(lp0
(iArchitecture
Architecture
p1
(dp2
S'clusters'
p3
(lp4
(iArchitecture
Cluster
p5
(dp6
S'entities'
p7
(lp8
(iArchitecture
Entity
p9
(dp10
S'issue_ids'
p11
(lp12
sS'name'
p13
S'media.libnbaio.AudioBufferProviderSource.c'
p14
sS'descs'
p15
(lp16
sS'labels'
p17
(lp18
sS'titles'
p19
(lp20
sS'change'
p21
I0
sbasS'classes'
p22
(lp23
g14
asg21
I0
sS'label'
p24
S'media.libnbaio.AudioBufferProviderSource.ss'
p25
sba(iArchitecture
Cluster
p26
(dp27
g7
(lp28
(iArchitecture
Entity
p29
(dp30
g11
(lp31
sg13
S'media.libnbaio.AudioStreamInSource.c'
p32
sg15
(lp33
sg17
(lp34
sg19
(lp35
sg21
I0
sbasg22
(lp36
g32
asg21
I0
sg24
S'media.libnbaio.AudioStreamInSource.ss'
p37
sba(iArchitecture
Cluster
p38
(dp39
g7
(lp40
(iArchitecture
Entity
p41
(dp42
g11
(lp43
sg13
S'media.libnbaio.AudioStreamOutSink.c'
p44
sg15
(lp45
sg17
(lp46
sg19
(lp47
sg21
I0
sbasg22
(lp48
g44
asg21
I0
sg24
S'media.libnbaio.AudioStreamOutSink.ss'
p49
sba(iArchitecture
Cluster
p50
(dp51
g7
(lp52
(iArchitecture
Entity
p53
(dp54
g11
(lp55
sg13
S'media.libnbaio.LibsndfileSink.c'
p56
sg15
(lp57
sg17
(lp58
sg19
(lp59
sg21
I0
sbasg22
(lp60
g56
asg21
I0
sg24
S'media.libnbaio.LibsndfileSink.ss'
p61
sba(iArchitecture
Cluster
p62
(dp63
g7
(lp64
(iArchitecture
Entity
p65
(dp66
g11
(lp67
sg13
S'media.libnbaio.LibsndfileSource.c'
p68
sg15
(lp69
sg17
(lp70
sg19
(lp71
sg21
I0
sbasg22
(lp72
g68
asg21
I0
sg24
S'media.libnbaio.LibsndfileSource.ss'
p73
sba(iArchitecture
Cluster
p74
(dp75
g7
(lp76
(iArchitecture
Entity
p77
(dp78
g11
(lp79
sg13
S'media.libnbaio.MonoPipeReader.c'
p80
sg15
(lp81
sg17
(lp82
sg19
(lp83
sg21
I0
sbasg22
(lp84
g80
asg21
I0
sg24
S'media.libnbaio.MonoPipeReader.ss'
p85
sba(iArchitecture
Cluster
p86
(dp87
g7
(lp88
(iArchitecture
Entity
p89
(dp90
g11
(lp91
sg13
S'media.libnbaio.SourceAudioBufferProvider.c'
p92
sg15
(lp93
sg17
(lp94
sg19
(lp95
sg21
I0
sbasg22
(lp96
g92
asg21
I0
sg24
S'media.libnbaio.SourceAudioBufferProvider.ss'
p97
sba(iArchitecture
Cluster
p98
(dp99
g7
(lp100
(iArchitecture
Entity
p101
(dp102
g11
(lp103
sg13
S'media.libnbaio.MonoPipe.c'
p104
sg15
(lp105
sg17
(lp106
sg19
(lp107
sg21
I0
sba(iArchitecture
Entity
p108
(dp109
g11
(lp110
sg13
S'media.libnbaio.NBAIO.c'
p111
sg15
(lp112
sg17
(lp113
sg19
(lp114
sg21
I0
sba(iArchitecture
Entity
p115
(dp116
g11
(lp117
sg13
S'media.libnbaio.Pipe.c'
p118
sg15
(lp119
sg17
(lp120
sg19
(lp121
sg21
I0
sba(iArchitecture
Entity
p122
(dp123
g11
(lp124
sg13
S'media.libnbaio.PipeReader.c'
p125
sg15
(lp126
sg17
(lp127
sg19
(lp128
sg21
I0
sbasg22
(lp129
g104
ag111
ag118
ag125
asg21
I0
sg24
S'services.audioflinger.Threads.ch'
p130
sba(iArchitecture
Cluster
p131
(dp132
g7
(lp133
(iArchitecture
Entity
p134
(dp135
g11
(lp136
sg13
S'media.libnbaio.NBLog.c'
p137
sg15
(lp138
sg17
(lp139
sg19
(lp140
sg21
I0
sbasg22
(lp141
g137
asg21
I0
sg24
S'services.medialog.MediaLogService.ch'
p142
sbasS'target_sub'
p143
S'media.libnbaio'
p144
sg22
(lp145
sS'is_component_arch'
p146
I00
sg24
S'6.0.0_r1'
p147
sba(iArchitecture
Architecture
p148
(dp149
g3
(lp150
(iArchitecture
Cluster
p151
(dp152
g7
(lp153
(iArchitecture
Entity
p154
(dp155
g11
(lp156
sg13
S'media.libnbaio.AudioBufferProviderSource.c'
p157
sg15
(lp158
sg17
(lp159
sg19
(lp160
sg21
I0
sbasg22
(lp161
g157
asg21
I0
sg24
S'media.libnbaio.AudioBufferProviderSource.ss'
p162
sba(iArchitecture
Cluster
p163
(dp164
g7
(lp165
(iArchitecture
Entity
p166
(dp167
g11
(lp168
sg13
S'media.libnbaio.AudioStreamInSource.c'
p169
sg15
(lp170
sg17
(lp171
sg19
(lp172
sg21
I0
sbasg22
(lp173
g169
asg21
I0
sg24
S'media.libnbaio.AudioStreamInSource.ss'
p174
sba(iArchitecture
Cluster
p175
(dp176
g7
(lp177
(iArchitecture
Entity
p178
(dp179
g11
(lp180
sg13
S'media.libnbaio.AudioStreamOutSink.c'
p181
sg15
(lp182
sg17
(lp183
sg19
(lp184
sg21
I0
sbasg22
(lp185
g181
asg21
I0
sg24
S'media.libnbaio.AudioStreamOutSink.ss'
p186
sba(iArchitecture
Cluster
p187
(dp188
g7
(lp189
(iArchitecture
Entity
p190
(dp191
g11
(lp192
sg13
S'media.libnbaio.LibsndfileSink.c'
p193
sg15
(lp194
sg17
(lp195
sg19
(lp196
sg21
I0
sbasg22
(lp197
g193
asg21
I0
sg24
S'media.libnbaio.LibsndfileSink.ss'
p198
sba(iArchitecture
Cluster
p199
(dp200
g7
(lp201
(iArchitecture
Entity
p202
(dp203
g11
(lp204
sg13
S'media.libnbaio.LibsndfileSource.c'
p205
sg15
(lp206
sg17
(lp207
sg19
(lp208
sg21
I0
sbasg22
(lp209
g205
asg21
I0
sg24
S'media.libnbaio.LibsndfileSource.ss'
p210
sba(iArchitecture
Cluster
p211
(dp212
g7
(lp213
(iArchitecture
Entity
p214
(dp215
g11
(lp216
sg13
S'media.libnbaio.MonoPipeReader.c'
p217
sg15
(lp218
sg17
(lp219
sg19
(lp220
sg21
I0
sbasg22
(lp221
g217
asg21
I0
sg24
S'media.libnbaio.MonoPipeReader.ss'
p222
sba(iArchitecture
Cluster
p223
(dp224
g7
(lp225
(iArchitecture
Entity
p226
(dp227
g11
(lp228
sg13
S'media.libnbaio.SourceAudioBufferProvider.c'
p229
sg15
(lp230
sg17
(lp231
sg19
(lp232
sg21
I0
sbasg22
(lp233
g229
asg21
I0
sg24
S'media.libnbaio.SourceAudioBufferProvider.ss'
p234
sba(iArchitecture
Cluster
p235
(dp236
g7
(lp237
(iArchitecture
Entity
p238
(dp239
g11
(lp240
sg13
S'media.libnbaio.MonoPipe.c'
p241
sg15
(lp242
sg17
(lp243
sg19
(lp244
sg21
I0
sba(iArchitecture
Entity
p245
(dp246
g11
(lp247
sg13
S'media.libnbaio.NBAIO.c'
p248
sg15
(lp249
sg17
(lp250
sg19
(lp251
sg21
I0
sba(iArchitecture
Entity
p252
(dp253
g11
(lp254
sg13
S'media.libnbaio.Pipe.c'
p255
sg15
(lp256
sg17
(lp257
sg19
(lp258
sg21
I0
sba(iArchitecture
Entity
p259
(dp260
g11
(lp261
sg13
S'media.libnbaio.PipeReader.c'
p262
sg15
(lp263
sg17
(lp264
sg19
(lp265
sg21
I0
sbasg22
(lp266
g241
ag248
ag255
ag262
asg21
I0
sg24
S'services.audioflinger.Threads.ch'
p267
sba(iArchitecture
Cluster
p268
(dp269
g7
(lp270
(iArchitecture
Entity
p271
(dp272
g11
(lp273
sg13
S'media.libnbaio.NBLog.c'
p274
sg15
(lp275
sg17
(lp276
sg19
(lp277
sg21
I0
sbasg22
(lp278
g274
asg21
I0
sg24
S'services.medialog.MediaLogService.ch'
p279
sbasg143
g144
sg22
(lp280
sg146
I00
sg24
S'7.0.0_r1'
p281
sba.