(lp0
(iArchitecture
Architecture
p1
(dp2
S'clusters'
p3
(lp4
(iArchitecture
Cluster
p5
(dp6
S'entities'
p7
(lp8
(iArchitecture
Entity
p9
(dp10
S'issue_ids'
p11
(lp12
sS'name'
p13
S'include.drm.DrmConstraints.h'
p14
sS'descs'
p15
(lp16
sS'labels'
p17
(lp18
sS'titles'
p19
(lp20
sS'change'
p21
I0
sba(iArchitecture
Entity
p22
(dp23
g11
(lp24
sg13
S'include.drm.DrmConvertedStatus.h'
p25
sg15
(lp26
sg17
(lp27
sg19
(lp28
sg21
I0
sba(iArchitecture
Entity
p29
(dp30
g11
(lp31
sg13
S'include.drm.DrmInfo.h'
p32
sg15
(lp33
sg17
(lp34
sg19
(lp35
sg21
I0
sba(iArchitecture
Entity
p36
(dp37
g11
(lp38
sg13
S'include.drm.DrmInfoEvent.h'
p39
sg15
(lp40
sg17
(lp41
sg19
(lp42
sg21
I0
sba(iArchitecture
Entity
p43
(dp44
g11
(lp45
sg13
S'include.drm.DrmInfoRequest.h'
p46
sg15
(lp47
sg17
(lp48
sg19
(lp49
sg21
I0
sba(iArchitecture
Entity
p50
(dp51
g11
(lp52
sg13
S'include.drm.DrmInfoStatus.h'
p53
sg15
(lp54
sg17
(lp55
sg19
(lp56
sg21
I0
sba(iArchitecture
Entity
p57
(dp58
g11
(lp59
sg13
S'include.drm.DrmMetadata.h'
p60
sg15
(lp61
sg17
(lp62
sg19
(lp63
sg21
I0
sba(iArchitecture
Entity
p64
(dp65
g11
(lp66
sg13
S'include.drm.DrmRights.h'
p67
sg15
(lp68
sg17
(lp69
sg19
(lp70
sg21
I0
sba(iArchitecture
Entity
p71
(dp72
g11
(lp73
sg13
S'include.drm.DrmSupportInfo.h'
p74
sg15
(lp75
sg17
(lp76
sg19
(lp77
sg21
I0
sbasS'classes'
p78
(lp79
g14
ag25
ag32
ag39
ag46
ag53
ag60
ag67
ag74
asg21
I0
sS'label'
p80
S'drm.libdrmframework.plugins.passthru.src.DrmPassthruPlugIn.ss'
p81
sba(iArchitecture
Cluster
p82
(dp83
g7
(lp84
(iArchitecture
Entity
p85
(dp86
g11
(lp87
sg13
S'include.drm.DrmManagerClient.h'
p88
sg15
(lp89
sg17
(lp90
sg19
(lp91
sg21
I0
sba(iArchitecture
Entity
p92
(dp93
g11
(lp94
sg13
S'include.drm.drm_framework_common.h'
p95
sg15
(lp96
sg17
(lp97
sg19
(lp98
sg21
I0
sbasg78
(lp99
g88
ag95
asg21
I0
sg80
S'media.libstagefright.wifi-display.source.PlaybackSession.ch'
p100
sbasS'target_sub'
p101
S'include.drm'
p102
sg78
(lp103
sS'is_component_arch'
p104
I00
sg80
S'6.0.0_r1'
p105
sba(iArchitecture
Architecture
p106
(dp107
g3
(lp108
(iArchitecture
Cluster
p109
(dp110
g7
(lp111
(iArchitecture
Entity
p112
(dp113
g11
(lp114
sg13
S'include.drm.DrmConstraints.h'
p115
sg15
(lp116
sg17
(lp117
sg19
(lp118
sg21
I0
sba(iArchitecture
Entity
p119
(dp120
g11
(lp121
sg13
S'include.drm.DrmConvertedStatus.h'
p122
sg15
(lp123
sg17
(lp124
sg19
(lp125
sg21
I0
sba(iArchitecture
Entity
p126
(dp127
g11
(lp128
sg13
S'include.drm.DrmInfo.h'
p129
sg15
(lp130
sg17
(lp131
sg19
(lp132
sg21
I0
sba(iArchitecture
Entity
p133
(dp134
g11
(lp135
sg13
S'include.drm.DrmInfoEvent.h'
p136
sg15
(lp137
sg17
(lp138
sg19
(lp139
sg21
I0
sba(iArchitecture
Entity
p140
(dp141
g11
(lp142
sg13
S'include.drm.DrmInfoRequest.h'
p143
sg15
(lp144
sg17
(lp145
sg19
(lp146
sg21
I0
sba(iArchitecture
Entity
p147
(dp148
g11
(lp149
sg13
S'include.drm.DrmInfoStatus.h'
p150
sg15
(lp151
sg17
(lp152
sg19
(lp153
sg21
I0
sba(iArchitecture
Entity
p154
(dp155
g11
(lp156
sg13
S'include.drm.DrmMetadata.h'
p157
sg15
(lp158
sg17
(lp159
sg19
(lp160
sg21
I0
sba(iArchitecture
Entity
p161
(dp162
g11
(lp163
sg13
S'include.drm.DrmRights.h'
p164
sg15
(lp165
sg17
(lp166
sg19
(lp167
sg21
I0
sba(iArchitecture
Entity
p168
(dp169
g11
(lp170
sg13
S'include.drm.DrmSupportInfo.h'
p171
sg15
(lp172
sg17
(lp173
sg19
(lp174
sg21
I0
sbasg78
(lp175
g115
ag122
ag129
ag136
ag143
ag150
ag157
ag164
ag171
asg21
I0
sg80
S'drm.libdrmframework.plugins.passthru.src.DrmPassthruPlugIn.ss'
p176
sba(iArchitecture
Cluster
p177
(dp178
g7
(lp179
(iArchitecture
Entity
p180
(dp181
g11
(lp182
sg13
S'include.drm.DrmManagerClient.h'
p183
sg15
(lp184
sg17
(lp185
sg19
(lp186
sg21
I0
sba(iArchitecture
Entity
p187
(dp188
g11
(lp189
sg13
S'include.drm.drm_framework_common.h'
p190
sg15
(lp191
sg17
(lp192
sg19
(lp193
sg21
I0
sbasg78
(lp194
g183
ag190
asg21
I0
sg80
S'services.mediaextractor.MediaExtractorService.ch'
p195
sbasg101
g102
sg78
(lp196
sg104
I00
sg80
S'7.0.0_r1'
p197
sba.