(lp0
(iArchitecture
Architecture
p1
(dp2
S'clusters'
p3
(lp4
(iArchitecture
Cluster
p5
(dp6
S'entities'
p7
(lp8
(iArchitecture
Entity
p9
(dp10
S'issue_ids'
p11
(lp12
sS'name'
p13
S'camera.CameraParameters2.c'
p14
sS'descs'
p15
(lp16
sS'labels'
p17
(lp18
sS'titles'
p19
(lp20
sS'change'
p21
I0
sba(iArchitecture
Entity
p22
(dp23
g11
(lp24
sg13
S'include.camera.CameraParameters2.h'
p25
sg15
(lp26
sg17
(lp27
sg19
(lp28
sg21
I0
sbasS'classes'
p29
(lp30
g14
ag25
asg21
I0
sS'label'
p31
S'camera.CameraParameters2.ss'
p32
sba(iArchitecture
Cluster
p33
(dp34
g7
(lp35
(iArchitecture
Entity
p36
(dp37
g11
(lp38
sg13
S'camera.CameraUtils.c'
p39
sg15
(lp40
sg17
(lp41
sg19
(lp42
sg21
I0
sba(iArchitecture
Entity
p43
(dp44
g11
(lp45
sg13
S'include.camera.CameraUtils.h'
p46
sg15
(lp47
sg17
(lp48
sg19
(lp49
sg21
I0
sbasg29
(lp50
g39
ag46
asg21
I0
sg31
S'camera.CameraUtils.ss'
p51
sba(iArchitecture
Cluster
p52
(dp53
g7
(lp54
(iArchitecture
Entity
p55
(dp56
g11
(lp57
sg13
S'camera.CameraParameters.c'
p58
sg15
(lp59
sg17
(lp60
sg19
(lp61
sg21
I0
sba(iArchitecture
Entity
p62
(dp63
g11
(lp64
sg13
S'include.camera.CameraParameters.h'
p65
sg15
(lp66
sg17
(lp67
sg19
(lp68
sg21
I0
sbasg29
(lp69
g58
ag65
asg21
I0
sg31
S'services.camera.libcameraservice.device3.Camera3Device.ch'
p70
sba(iArchitecture
Cluster
p71
(dp72
g7
(lp73
(iArchitecture
Entity
p74
(dp75
g11
(lp76
sg13
S'camera.Camera.c'
p77
sg15
(lp78
sg17
(lp79
sg19
(lp80
sg21
I0
sba(iArchitecture
Entity
p81
(dp82
g11
(lp83
sg13
S'camera.CameraBase.c'
p84
sg15
(lp85
sg17
(lp86
sg19
(lp87
sg21
I0
sba(iArchitecture
Entity
p88
(dp89
g11
(lp90
sg13
S'camera.CameraMetadata.c'
p91
sg15
(lp92
sg17
(lp93
sg19
(lp94
sg21
I0
sba(iArchitecture
Entity
p95
(dp96
g11
(lp97
sg13
S'include.camera.Camera.h'
p98
sg15
(lp99
sg17
(lp100
sg19
(lp101
sg21
I0
sba(iArchitecture
Entity
p102
(dp103
g11
(lp104
sg13
S'include.camera.CameraBase.h'
p105
sg15
(lp106
sg17
(lp107
sg19
(lp108
sg21
I0
sba(iArchitecture
Entity
p109
(dp110
g11
(lp111
sg13
S'include.camera.CameraMetadata.h'
p112
sg15
(lp113
sg17
(lp114
sg19
(lp115
sg21
I0
sbasg29
(lp116
g77
ag84
ag91
ag98
ag105
ag112
asg21
I0
sg31
S'services.camera.libcameraservice.device3.StatusTracker.ch'
p117
sbasS'target_sub'
p118
S'camera.Camera'
p119
sg29
(lp120
sS'is_component_arch'
p121
I00
sg31
S'6.0.0_r1'
p122
sba(iArchitecture
Architecture
p123
(dp124
g3
(lp125
(iArchitecture
Cluster
p126
(dp127
g7
(lp128
(iArchitecture
Entity
p129
(dp130
g11
(lp131
sg13
S'camera.CameraParameters2.c'
p132
sg15
(lp133
sg17
(lp134
sg19
(lp135
sg21
I0
sba(iArchitecture
Entity
p136
(dp137
g11
(lp138
sg13
S'include.camera.CameraParameters2.h'
p139
sg15
(lp140
sg17
(lp141
sg19
(lp142
sg21
I0
sbasg29
(lp143
g132
ag139
asg21
I0
sg31
S'camera.CameraParameters2.ss'
p144
sba(iArchitecture
Cluster
p145
(dp146
g7
(lp147
(iArchitecture
Entity
p148
(dp149
g11
(lp150
sg13
S'camera.CameraUtils.c'
p151
sg15
(lp152
sg17
(lp153
sg19
(lp154
sg21
I0
sba(iArchitecture
Entity
p155
(dp156
g11
(lp157
sg13
S'include.camera.CameraUtils.h'
p158
sg15
(lp159
sg17
(lp160
sg19
(lp161
sg21
I0
sbasg29
(lp162
g151
ag158
asg21
I0
sg31
S'services.camera.libcameraservice.api2.CameraDeviceClient.ch'
p163
sba(iArchitecture
Cluster
p164
(dp165
g7
(lp166
(iArchitecture
Entity
p167
(dp168
g11
(lp169
sg13
S'camera.CameraParameters.c'
p170
sg15
(lp171
sg17
(lp172
sg19
(lp173
sg21
I0
sba(iArchitecture
Entity
p174
(dp175
g11
(lp176
sg13
S'include.camera.CameraParameters.h'
p177
sg15
(lp178
sg17
(lp179
sg19
(lp180
sg21
I0
sbasg29
(lp181
g170
ag177
asg21
I0
sg31
S'services.camera.libcameraservice.device3.Camera3Device.ch'
p182
sba(iArchitecture
Cluster
p183
(dp184
g7
(lp185
(iArchitecture
Entity
p186
(dp187
g11
(lp188
sg13
S'camera.Camera.c'
p189
sg15
(lp190
sg17
(lp191
sg19
(lp192
sg21
I0
sba(iArchitecture
Entity
p193
(dp194
g11
(lp195
sg13
S'camera.CameraBase.c'
p196
sg15
(lp197
sg17
(lp198
sg19
(lp199
sg21
I0
sba(iArchitecture
Entity
p200
(dp201
g11
(lp202
sg13
S'camera.CameraMetadata.c'
p203
sg15
(lp204
sg17
(lp205
sg19
(lp206
sg21
I0
sba(iArchitecture
Entity
p207
(dp208
g11
(lp209
sg13
S'include.camera.Camera.h'
p210
sg15
(lp211
sg17
(lp212
sg19
(lp213
sg21
I0
sba(iArchitecture
Entity
p214
(dp215
g11
(lp216
sg13
S'include.camera.CameraBase.h'
p217
sg15
(lp218
sg17
(lp219
sg19
(lp220
sg21
I0
sba(iArchitecture
Entity
p221
(dp222
g11
(lp223
sg13
S'include.camera.CameraMetadata.h'
p224
sg15
(lp225
sg17
(lp226
sg19
(lp227
sg21
I0
sbasg29
(lp228
g189
ag196
ag203
ag210
ag217
ag224
asg21
I0
sg31
S'services.camera.libcameraservice.device3.StatusTracker.ch'
p229
sbasg118
g119
sg29
(lp230
sg121
I00
sg31
S'7.0.0_r1'
p231
sba.