(lp0
(iArchitecture
Architecture
p1
(dp2
S'clusters'
p3
(lp4
(iArchitecture
Cluster
p5
(dp6
S'entities'
p7
(lp8
(iArchitecture
Entity
p9
(dp10
S'issue_ids'
p11
(lp12
sS'name'
p13
S'media.common_time.utils.c'
p14
sS'descs'
p15
(lp16
sS'labels'
p17
(lp18
sS'titles'
p19
(lp20
sS'change'
p21
I0
sbasS'classes'
p22
(lp23
g14
asg21
I0
sS'label'
p24
S'drm.mediadrm.plugins.clearkey.Utils.ch'
p25
sba(iArchitecture
Cluster
p26
(dp27
g7
(lp28
(iArchitecture
Entity
p29
(dp30
g11
(lp31
sg13
S'media.common_time.ICommonTimeConfig.c'
p32
sg15
(lp33
sg17
(lp34
sg19
(lp35
sg21
I0
sbasg22
(lp36
g32
asg21
I0
sg24
S'media.common_time.ICommonTimeConfig.ss'
p37
sba(iArchitecture
Cluster
p38
(dp39
g7
(lp40
(iArchitecture
Entity
p41
(dp42
g11
(lp43
sg13
S'media.common_time.ICommonClock.c'
p44
sg15
(lp45
sg17
(lp46
sg19
(lp47
sg21
I0
sbasg22
(lp48
g44
asg21
I0
sg24
S'services.audioflinger.Threads.ch'
p49
sba(iArchitecture
Cluster
p50
(dp51
g7
(lp52
(iArchitecture
Entity
p53
(dp54
g11
(lp55
sg13
S'media.common_time.cc_helper.c'
p56
sg15
(lp57
sg17
(lp58
sg19
(lp59
sg21
I0
sba(iArchitecture
Entity
p60
(dp61
g11
(lp62
sg13
S'media.common_time.local_clock.c'
p63
sg15
(lp64
sg17
(lp65
sg19
(lp66
sg21
I0
sbasg22
(lp67
g56
ag63
asg21
I0
sg24
S'services.radio.RadioService.ch'
p68
sbasS'target_sub'
p69
S'media.common_time'
p70
sg22
(lp71
sS'is_component_arch'
p72
I00
sg24
S'6.0.0_r1'
p73
sba(iArchitecture
Architecture
p74
(dp75
g3
(lp76
(iArchitecture
Cluster
p77
(dp78
g7
(lp79
(iArchitecture
Entity
p80
(dp81
g11
(lp82
sg13
S'media.common_time.utils.c'
p83
sg15
(lp84
sg17
(lp85
sg19
(lp86
sg21
I0
sbasg22
(lp87
g83
asg21
I0
sg24
S'drm.mediadrm.plugins.clearkey.Utils.ch'
p88
sba(iArchitecture
Cluster
p89
(dp90
g7
(lp91
(iArchitecture
Entity
p92
(dp93
g11
(lp94
sg13
S'media.common_time.ICommonTimeConfig.c'
p95
sg15
(lp96
sg17
(lp97
sg19
(lp98
sg21
I0
sbasg22
(lp99
g95
asg21
I0
sg24
S'media.common_time.ICommonTimeConfig.ss'
p100
sba(iArchitecture
Cluster
p101
(dp102
g7
(lp103
(iArchitecture
Entity
p104
(dp105
g11
(lp106
sg13
S'media.common_time.ICommonClock.c'
p107
sg15
(lp108
sg17
(lp109
sg19
(lp110
sg21
I0
sba(iArchitecture
Entity
p111
(dp112
g11
(lp113
sg13
S'media.common_time.cc_helper.c'
p114
sg15
(lp115
sg17
(lp116
sg19
(lp117
sg21
I0
sbasg22
(lp118
g107
ag114
asg21
I0
sg24
S'media.common_time.cc_helper.ss'
p119
sba(iArchitecture
Cluster
p120
(dp121
g7
(lp122
(iArchitecture
Entity
p123
(dp124
g11
(lp125
sg13
S'media.common_time.local_clock.c'
p126
sg15
(lp127
sg17
(lp128
sg19
(lp129
sg21
I0
sbasg22
(lp130
g126
asg21
I0
sg24
S'media.common_time.local_clock.ss'
p131
sbasg69
g70
sg22
(lp132
sg72
I00
sg24
S'7.0.0_r1'
p133
sba.