(lp0
(iArchitecture
Architecture
p1
(dp2
S'clusters'
p3
(lp4
(iArchitecture
Cluster
p5
(dp6
S'entities'
p7
(lp8
(iArchitecture
Entity
p9
(dp10
S'issue_ids'
p11
(lp12
sS'name'
p13
S'services.mediaresourcemanager.ResourceManagerService.c'
p14
sS'descs'
p15
(lp16
sS'labels'
p17
(lp18
sS'titles'
p19
(lp20
sS'change'
p21
I0
sba(iArchitecture
Entity
p22
(dp23
g11
(lp24
sg13
S'services.mediaresourcemanager.ResourceManagerService.h'
p25
sg15
(lp26
sg17
(lp27
sg19
(lp28
sg21
I0
sba(iArchitecture
Entity
p29
(dp30
g11
(lp31
sg13
S'services.mediaresourcemanager.test.ResourceManagerService_test.c'
p32
sg15
(lp33
sg17
(lp34
sg19
(lp35
sg21
I0
sbasS'classes'
p36
(lp37
g14
ag25
ag32
asg21
I0
sS'label'
p38
S'services.mediaresourcemanager.ResourceManagerService.ch'
p39
sba(iArchitecture
Cluster
p40
(dp41
g7
(lp42
(iArchitecture
Entity
p43
(dp44
g11
(lp45
sg13
S'services.mediaresourcemanager.ServiceLog.c'
p46
sg15
(lp47
sg17
(lp48
sg19
(lp49
sg21
I0
sba(iArchitecture
Entity
p50
(dp51
g11
(lp52
sg13
S'services.mediaresourcemanager.ServiceLog.h'
p53
sg15
(lp54
sg17
(lp55
sg19
(lp56
sg21
I0
sbasg36
(lp57
g46
ag53
asg21
I0
sg38
S'services.mediaresourcemanager.ServiceLog.ch'
p58
sba(iArchitecture
Cluster
p59
(dp60
g7
(lp61
(iArchitecture
Entity
p62
(dp63
g11
(lp64
sg13
S'services.mediaresourcemanager.test.ServiceLog_test.c'
p65
sg15
(lp66
sg17
(lp67
sg19
(lp68
sg21
I0
sbasg36
(lp69
g65
asg21
I0
sg38
S'services.radio.RadioService.ch'
p70
sbasS'target_sub'
p71
S'services.mediaresourcemanager'
p72
sg36
(lp73
sS'is_component_arch'
p74
I00
sg38
S'6.0.0_r1'
p75
sba(iArchitecture
Architecture
p76
(dp77
g3
(lp78
(iArchitecture
Cluster
p79
(dp80
g7
(lp81
(iArchitecture
Entity
p82
(dp83
g11
(lp84
sg13
S'services.mediaresourcemanager.ResourceManagerService.c'
p85
sg15
(lp86
sg17
(lp87
sg19
(lp88
sg21
I0
sba(iArchitecture
Entity
p89
(dp90
g11
(lp91
sg13
S'services.mediaresourcemanager.ResourceManagerService.h'
p92
sg15
(lp93
sg17
(lp94
sg19
(lp95
sg21
I0
sba(iArchitecture
Entity
p96
(dp97
g11
(lp98
sg13
S'services.mediaresourcemanager.test.ResourceManagerService_test.c'
p99
sg15
(lp100
sg17
(lp101
sg19
(lp102
sg21
I0
sbasg36
(lp103
g85
ag92
ag99
asg21
I0
sg38
S'services.mediaresourcemanager.ResourceManagerService.ch'
p104
sba(iArchitecture
Cluster
p105
(dp106
g7
(lp107
(iArchitecture
Entity
p108
(dp109
g11
(lp110
sg13
S'services.mediaresourcemanager.ServiceLog.c'
p111
sg15
(lp112
sg17
(lp113
sg19
(lp114
sg21
I0
sba(iArchitecture
Entity
p115
(dp116
g11
(lp117
sg13
S'services.mediaresourcemanager.ServiceLog.h'
p118
sg15
(lp119
sg17
(lp120
sg19
(lp121
sg21
I0
sbasg36
(lp122
g111
ag118
asg21
I0
sg38
S'services.mediaresourcemanager.ServiceLog.ch'
p123
sba(iArchitecture
Cluster
p124
(dp125
g7
(lp126
(iArchitecture
Entity
p127
(dp128
g11
(lp129
sg13
S'services.mediaresourcemanager.test.ServiceLog_test.c'
p130
sg15
(lp131
sg17
(lp132
sg19
(lp133
sg21
I0
sbasg36
(lp134
g130
asg21
I0
sg38
S'services.radio.RadioService.ch'
p135
sbasg71
g72
sg36
(lp136
sg74
I00
sg38
S'7.0.0_r1'
p137
sba.