(lp0
(iArchitecture
Architecture
p1
(dp2
S'clusters'
p3
(lp4
(iArchitecture
Cluster
p5
(dp6
S'entities'
p7
(lp8
(iArchitecture
Entity
p9
(dp10
S'issue_ids'
p11
(lp12
sS'name'
p13
S'drm.drmserver.DrmManager.c'
p14
sS'descs'
p15
(lp16
sS'labels'
p17
(lp18
sS'titles'
p19
(lp20
sS'change'
p21
I0
sbasS'classes'
p22
(lp23
g14
asg21
I0
sS'label'
p24
S'drm.libdrmframework.plugins.passthru.src.DrmPassthruPlugIn.ss'
p25
sba(iArchitecture
Cluster
p26
(dp27
g7
(lp28
(iArchitecture
Entity
p29
(dp30
g11
(lp31
sg13
S'drm.drmserver.main_drmserver.c'
p32
sg15
(lp33
sg17
(lp34
sg19
(lp35
sg21
I0
sbasg22
(lp36
g32
asg21
I0
sg24
S'media.libstagefright.wifi-display.source.PlaybackSession.ch'
p37
sba(iArchitecture
Cluster
p38
(dp39
g7
(lp40
(iArchitecture
Entity
p41
(dp42
g11
(lp43
sg13
S'drm.drmserver.DrmManagerService.c'
p44
sg15
(lp45
sg17
(lp46
sg19
(lp47
sg21
I0
sbasg22
(lp48
g44
asg21
I0
sg24
S'services.radio.RadioService.ch'
p49
sbasS'target_sub'
p50
S'drm.drmserver'
p51
sg22
(lp52
sS'is_component_arch'
p53
I00
sg24
S'6.0.0_r1'
p54
sba(iArchitecture
Architecture
p55
(dp56
g3
(lp57
(iArchitecture
Cluster
p58
(dp59
g7
(lp60
(iArchitecture
Entity
p61
(dp62
g11
(lp63
sg13
S'drm.drmserver.DrmManager.c'
p64
sg15
(lp65
sg17
(lp66
sg19
(lp67
sg21
I0
sbasg22
(lp68
g64
asg21
I0
sg24
S'drm.libdrmframework.plugins.passthru.src.DrmPassthruPlugIn.ss'
p69
sba(iArchitecture
Cluster
p70
(dp71
g7
(lp72
(iArchitecture
Entity
p73
(dp74
g11
(lp75
sg13
S'drm.drmserver.main_drmserver.c'
p76
sg15
(lp77
sg17
(lp78
sg19
(lp79
sg21
I0
sbasg22
(lp80
g76
asg21
I0
sg24
S'services.mediaextractor.MediaExtractorService.ch'
p81
sba(iArchitecture
Cluster
p82
(dp83
g7
(lp84
(iArchitecture
Entity
p85
(dp86
g11
(lp87
sg13
S'drm.drmserver.DrmManagerService.c'
p88
sg15
(lp89
sg17
(lp90
sg19
(lp91
sg21
I0
sbasg22
(lp92
g88
asg21
I0
sg24
S'services.radio.RadioService.ch'
p93
sbasg50
g51
sg22
(lp94
sg53
I00
sg24
S'7.0.0_r1'
p95
sba.