(lp0
(iArchitecture
Architecture
p1
(dp2
S'clusters'
p3
(lp4
sS'target_sub'
p5
S'services.mediaextractor'
p6
sS'classes'
p7
(lp8
sS'is_component_arch'
p9
I00
sS'label'
p10
S'6.0.0_r1'
p11
sba(iArchitecture
Architecture
p12
(dp13
g3
(lp14
(iArchitecture
Cluster
p15
(dp16
S'entities'
p17
(lp18
(iArchitecture
Entity
p19
(dp20
S'issue_ids'
p21
(lp22
sS'name'
p23
S'services.mediaextractor.minijail.minijail.c'
p24
sS'descs'
p25
(lp26
sS'labels'
p27
(lp28
sS'titles'
p29
(lp30
sS'change'
p31
I0
sbasg7
(lp32
g24
asg31
I0
sg10
S'services.mediacodec.minijail.minijail.ch'
p33
sba(iArchitecture
Cluster
p34
(dp35
g17
(lp36
(iArchitecture
Entity
p37
(dp38
g21
(lp39
sg23
S'services.mediaextractor.MediaExtractorService.c'
p40
sg25
(lp41
sg27
(lp42
sg29
(lp43
sg31
I0
sba(iArchitecture
Entity
p44
(dp45
g21
(lp46
sg23
S'services.mediaextractor.MediaExtractorService.h'
p47
sg25
(lp48
sg27
(lp49
sg29
(lp50
sg31
I0
sba(iArchitecture
Entity
p51
(dp52
g21
(lp53
sg23
S'services.mediaextractor.main_extractorservice.c'
p54
sg25
(lp55
sg27
(lp56
sg29
(lp57
sg31
I0
sbasg7
(lp58
g40
ag47
ag54
asg31
I0
sg10
S'services.mediaextractor.MediaExtractorService.ch'
p59
sbasg5
g6
sg7
(lp60
sg9
I00
sg10
S'7.0.0_r1'
p61
sba.