(lp0
(iArchitecture
Architecture
p1
(dp2
S'clusters'
p3
(lp4
(iArchitecture
Cluster
p5
(dp6
S'entities'
p7
(lp8
(iArchitecture
Entity
p9
(dp10
S'issue_ids'
p11
(lp12
sS'name'
p13
S'camera.ICameraServiceProxy.c'
p14
sS'descs'
p15
(lp16
sS'labels'
p17
(lp18
sS'titles'
p19
(lp20
sS'change'
p21
I0
sba(iArchitecture
Entity
p22
(dp23
g11
(lp24
sg13
S'include.camera.ICameraServiceProxy.h'
p25
sg15
(lp26
sg17
(lp27
sg19
(lp28
sg21
I0
sbasS'classes'
p29
(lp30
g14
ag25
asg21
I0
sS'label'
p31
S'camera.ICameraServiceProxy.ss'
p32
sba(iArchitecture
Cluster
p33
(dp34
g7
(lp35
(iArchitecture
Entity
p36
(dp37
g11
(lp38
sg13
S'include.camera.ICameraServiceListener.h'
p39
sg15
(lp40
sg17
(lp41
sg19
(lp42
sg21
I0
sbasg29
(lp43
g39
asg21
I0
sg31
S'services.camera.libcameraservice.device3.Camera3Device.ch'
p44
sba(iArchitecture
Cluster
p45
(dp46
g7
(lp47
(iArchitecture
Entity
p48
(dp49
g11
(lp50
sg13
S'camera.ICameraService.c'
p51
sg15
(lp52
sg17
(lp53
sg19
(lp54
sg21
I0
sba(iArchitecture
Entity
p55
(dp56
g11
(lp57
sg13
S'include.camera.ICameraService.h'
p58
sg15
(lp59
sg17
(lp60
sg19
(lp61
sg21
I0
sbasg29
(lp62
g51
ag58
asg21
I0
sg31
S'services.camera.libcameraservice.device3.StatusTracker.ch'
p63
sba(iArchitecture
Cluster
p64
(dp65
g7
(lp66
(iArchitecture
Entity
p67
(dp68
g11
(lp69
sg13
S'camera.ICameraServiceListener.c'
p70
sg15
(lp71
sg17
(lp72
sg19
(lp73
sg21
I0
sbasg29
(lp74
g70
asg21
I0
sg31
S'services.soundtrigger.SoundTriggerHwService.ch'
p75
sbasS'target_sub'
p76
S'camera.ICameraService'
p77
sg29
(lp78
sS'is_component_arch'
p79
I00
sg31
S'6.0.0_r1'
p80
sba(iArchitecture
Architecture
p81
(dp82
g3
(lp83
(iArchitecture
Cluster
p84
(dp85
g7
(lp86
(iArchitecture
Entity
p87
(dp88
g11
(lp89
sg13
S'camera.ICameraServiceProxy.c'
p90
sg15
(lp91
sg17
(lp92
sg19
(lp93
sg21
I0
sba(iArchitecture
Entity
p94
(dp95
g11
(lp96
sg13
S'include.camera.ICameraServiceProxy.h'
p97
sg15
(lp98
sg17
(lp99
sg19
(lp100
sg21
I0
sbasg29
(lp101
g90
ag97
asg21
I0
sg31
S'services.camera.libcameraservice.device3.Camera3Device.ch'
p102
sbasg76
g77
sg29
(lp103
sg79
I00
sg31
S'7.0.0_r1'
p104
sba.