(lp0
(iArchitecture
Architecture
p1
(dp2
S'clusters'
p3
(lp4
(iArchitecture
Cluster
p5
(dp6
S'entities'
p7
(lp8
(iArchitecture
Entity
p9
(dp10
S'issue_ids'
p11
(lp12
sS'name'
p13
S'media.utils.BatteryNotifier.c'
p14
sS'descs'
p15
(lp16
sS'labels'
p17
(lp18
sS'titles'
p19
(lp20
sS'change'
p21
I0
sba(iArchitecture
Entity
p22
(dp23
g11
(lp24
sg13
S'media.utils.include.mediautils.BatteryNotifier.h'
p25
sg15
(lp26
sg17
(lp27
sg19
(lp28
sg21
I0
sbasS'classes'
p29
(lp30
g14
ag25
asg21
I0
sS'label'
p31
S'services.camera.libcameraservice.CameraService.ch'
p32
sbasS'target_sub'
p33
S'media.utils'
p34
sg29
(lp35
sS'is_component_arch'
p36
I00
sg31
S'6.0.0_r1'
p37
sba(iArchitecture
Architecture
p38
(dp39
g3
(lp40
(iArchitecture
Cluster
p41
(dp42
g7
(lp43
(iArchitecture
Entity
p44
(dp45
g11
(lp46
sg13
S'media.utils.ISchedulingPolicyService.c'
p47
sg15
(lp48
sg17
(lp49
sg19
(lp50
sg21
I0
sba(iArchitecture
Entity
p51
(dp52
g11
(lp53
sg13
S'media.utils.ISchedulingPolicyService.h'
p54
sg15
(lp55
sg17
(lp56
sg19
(lp57
sg21
I0
sbasg29
(lp58
g47
ag54
asg21
I0
sg31
S'media.utils.ISchedulingPolicyService.ch'
p59
sba(iArchitecture
Cluster
p60
(dp61
g7
(lp62
(iArchitecture
Entity
p63
(dp64
g11
(lp65
sg13
S'media.utils.SchedulingPolicyService.c'
p66
sg15
(lp67
sg17
(lp68
sg19
(lp69
sg21
I0
sba(iArchitecture
Entity
p70
(dp71
g11
(lp72
sg13
S'media.utils.include.mediautils.SchedulingPolicyService.h'
p73
sg15
(lp74
sg17
(lp75
sg19
(lp76
sg21
I0
sbasg29
(lp77
g66
ag73
asg21
I0
sg31
S'media.utils.SchedulingPolicyService.ss'
p78
sba(iArchitecture
Cluster
p79
(dp80
g7
(lp81
(iArchitecture
Entity
p82
(dp83
g11
(lp84
sg13
S'media.utils.BatteryNotifier.c'
p85
sg15
(lp86
sg17
(lp87
sg19
(lp88
sg21
I0
sba(iArchitecture
Entity
p89
(dp90
g11
(lp91
sg13
S'media.utils.include.mediautils.BatteryNotifier.h'
p92
sg15
(lp93
sg17
(lp94
sg19
(lp95
sg21
I0
sbasg29
(lp96
g85
ag92
asg21
I0
sg31
S'services.camera.libcameraservice.CameraService.ch'
p97
sbasg33
g34
sg29
(lp98
sg36
I00
sg31
S'7.0.0_r1'
p99
sba.