(lp0
(iArchitecture
Architecture
p1
(dp2
S'clusters'
p3
(lp4
(iArchitecture
Cluster
p5
(dp6
S'entities'
p7
(lp8
(iArchitecture
Entity
p9
(dp10
S'issue_ids'
p11
(lp12
sS'name'
p13
S'services.camera.libcameraservice.device1.CameraHardwareInterface.h'
p14
sS'descs'
p15
(lp16
sS'labels'
p17
(lp18
sS'titles'
p19
(lp20
sS'change'
p21
I0
sba(iArchitecture
Entity
p22
(dp23
g11
(lp24
sg13
S'services.camera.libcameraservice.utils.ClientManager.h'
p25
sg15
(lp26
sg17
(lp27
sg19
(lp28
sg21
I0
sbasS'classes'
p29
(lp30
g14
ag25
asg21
I0
sS'label'
p31
S'media.mediaserver.main_mediaserver.ss'
p32
sba(iArchitecture
Cluster
p33
(dp34
g7
(lp35
(iArchitecture
Entity
p36
(dp37
g11
(lp38
sg13
S'services.camera.libcameraservice.CameraDeviceFactory.c'
p39
sg15
(lp40
sg17
(lp41
sg19
(lp42
sg21
I0
sba(iArchitecture
Entity
p43
(dp44
g11
(lp45
sg13
S'services.camera.libcameraservice.CameraDeviceFactory.h'
p46
sg15
(lp47
sg17
(lp48
sg19
(lp49
sg21
I0
sbasg29
(lp50
g39
ag46
asg21
I0
sg31
S'services.camera.libcameraservice.CameraDeviceFactory.ch'
p51
sba(iArchitecture
Cluster
p52
(dp53
g7
(lp54
(iArchitecture
Entity
p55
(dp56
g11
(lp57
sg13
S'services.camera.libcameraservice.CameraFlashlight.c'
p58
sg15
(lp59
sg17
(lp60
sg19
(lp61
sg21
I0
sba(iArchitecture
Entity
p62
(dp63
g11
(lp64
sg13
S'services.camera.libcameraservice.CameraFlashlight.h'
p65
sg15
(lp66
sg17
(lp67
sg19
(lp68
sg21
I0
sbasg29
(lp69
g58
ag65
asg21
I0
sg31
S'services.camera.libcameraservice.CameraFlashlight.ch'
p70
sba(iArchitecture
Cluster
p71
(dp72
g7
(lp73
(iArchitecture
Entity
p74
(dp75
g11
(lp76
sg13
S'services.camera.libcameraservice.CameraService.c'
p77
sg15
(lp78
sg17
(lp79
sg19
(lp80
sg21
I0
sba(iArchitecture
Entity
p81
(dp82
g11
(lp83
sg13
S'services.camera.libcameraservice.CameraService.h'
p84
sg15
(lp85
sg17
(lp86
sg19
(lp87
sg21
I0
sbasg29
(lp88
g77
ag84
asg21
I0
sg31
S'services.camera.libcameraservice.CameraService.ch'
p89
sba(iArchitecture
Cluster
p90
(dp91
g7
(lp92
(iArchitecture
Entity
p93
(dp94
g11
(lp95
sg13
S'services.camera.libcameraservice.api1.Camera2Client.c'
p96
sg15
(lp97
sg17
(lp98
sg19
(lp99
sg21
I0
sba(iArchitecture
Entity
p100
(dp101
g11
(lp102
sg13
S'services.camera.libcameraservice.api1.Camera2Client.h'
p103
sg15
(lp104
sg17
(lp105
sg19
(lp106
sg21
I0
sbasg29
(lp107
g96
ag103
asg21
I0
sg31
S'services.camera.libcameraservice.api1.Camera2Client.ch'
p108
sba(iArchitecture
Cluster
p109
(dp110
g7
(lp111
(iArchitecture
Entity
p112
(dp113
g11
(lp114
sg13
S'services.camera.libcameraservice.api1.CameraClient.c'
p115
sg15
(lp116
sg17
(lp117
sg19
(lp118
sg21
I0
sba(iArchitecture
Entity
p119
(dp120
g11
(lp121
sg13
S'services.camera.libcameraservice.api1.CameraClient.h'
p122
sg15
(lp123
sg17
(lp124
sg19
(lp125
sg21
I0
sbasg29
(lp126
g115
ag122
asg21
I0
sg31
S'services.camera.libcameraservice.api1.CameraClient.ch'
p127
sba(iArchitecture
Cluster
p128
(dp129
g7
(lp130
(iArchitecture
Entity
p131
(dp132
g11
(lp133
sg13
S'services.camera.libcameraservice.api1.client2.BurstCapture.c'
p134
sg15
(lp135
sg17
(lp136
sg19
(lp137
sg21
I0
sba(iArchitecture
Entity
p138
(dp139
g11
(lp140
sg13
S'services.camera.libcameraservice.api1.client2.BurstCapture.h'
p141
sg15
(lp142
sg17
(lp143
sg19
(lp144
sg21
I0
sbasg29
(lp145
g134
ag141
asg21
I0
sg31
S'services.camera.libcameraservice.api1.client2.BurstCapture.ch'
p146
sba(iArchitecture
Cluster
p147
(dp148
g7
(lp149
(iArchitecture
Entity
p150
(dp151
g11
(lp152
sg13
S'services.camera.libcameraservice.api1.client2.CallbackProcessor.c'
p153
sg15
(lp154
sg17
(lp155
sg19
(lp156
sg21
I0
sba(iArchitecture
Entity
p157
(dp158
g11
(lp159
sg13
S'services.camera.libcameraservice.api1.client2.CallbackProcessor.h'
p160
sg15
(lp161
sg17
(lp162
sg19
(lp163
sg21
I0
sbasg29
(lp164
g153
ag160
asg21
I0
sg31
S'services.camera.libcameraservice.api1.client2.CallbackProcessor.ch'
p165
sba(iArchitecture
Cluster
p166
(dp167
g7
(lp168
(iArchitecture
Entity
p169
(dp170
g11
(lp171
sg13
S'services.camera.libcameraservice.api1.client2.CaptureSequencer.c'
p172
sg15
(lp173
sg17
(lp174
sg19
(lp175
sg21
I0
sba(iArchitecture
Entity
p176
(dp177
g11
(lp178
sg13
S'services.camera.libcameraservice.api1.client2.CaptureSequencer.h'
p179
sg15
(lp180
sg17
(lp181
sg19
(lp182
sg21
I0
sbasg29
(lp183
g172
ag179
asg21
I0
sg31
S'services.camera.libcameraservice.api1.client2.CaptureSequencer.ch'
p184
sba(iArchitecture
Cluster
p185
(dp186
g7
(lp187
(iArchitecture
Entity
p188
(dp189
g11
(lp190
sg13
S'services.camera.libcameraservice.api1.client2.FrameProcessor.c'
p191
sg15
(lp192
sg17
(lp193
sg19
(lp194
sg21
I0
sba(iArchitecture
Entity
p195
(dp196
g11
(lp197
sg13
S'services.camera.libcameraservice.api1.client2.FrameProcessor.h'
p198
sg15
(lp199
sg17
(lp200
sg19
(lp201
sg21
I0
sbasg29
(lp202
g191
ag198
asg21
I0
sg31
S'services.camera.libcameraservice.api1.client2.FrameProcessor.ch'
p203
sba(iArchitecture
Cluster
p204
(dp205
g7
(lp206
(iArchitecture
Entity
p207
(dp208
g11
(lp209
sg13
S'services.camera.libcameraservice.api1.client2.JpegCompressor.c'
p210
sg15
(lp211
sg17
(lp212
sg19
(lp213
sg21
I0
sba(iArchitecture
Entity
p214
(dp215
g11
(lp216
sg13
S'services.camera.libcameraservice.api1.client2.JpegCompressor.h'
p217
sg15
(lp218
sg17
(lp219
sg19
(lp220
sg21
I0
sbasg29
(lp221
g210
ag217
asg21
I0
sg31
S'services.camera.libcameraservice.api1.client2.JpegCompressor.ch'
p222
sba(iArchitecture
Cluster
p223
(dp224
g7
(lp225
(iArchitecture
Entity
p226
(dp227
g11
(lp228
sg13
S'services.camera.libcameraservice.api1.client2.JpegProcessor.c'
p229
sg15
(lp230
sg17
(lp231
sg19
(lp232
sg21
I0
sba(iArchitecture
Entity
p233
(dp234
g11
(lp235
sg13
S'services.camera.libcameraservice.api1.client2.JpegProcessor.h'
p236
sg15
(lp237
sg17
(lp238
sg19
(lp239
sg21
I0
sbasg29
(lp240
g229
ag236
asg21
I0
sg31
S'services.camera.libcameraservice.api1.client2.JpegProcessor.ch'
p241
sba(iArchitecture
Cluster
p242
(dp243
g7
(lp244
(iArchitecture
Entity
p245
(dp246
g11
(lp247
sg13
S'services.camera.libcameraservice.api1.client2.Camera2Heap.h'
p248
sg15
(lp249
sg17
(lp250
sg19
(lp251
sg21
I0
sba(iArchitecture
Entity
p252
(dp253
g11
(lp254
sg13
S'services.camera.libcameraservice.api1.client2.StreamingProcessor.c'
p255
sg15
(lp256
sg17
(lp257
sg19
(lp258
sg21
I0
sba(iArchitecture
Entity
p259
(dp260
g11
(lp261
sg13
S'services.camera.libcameraservice.api1.client2.StreamingProcessor.h'
p262
sg15
(lp263
sg17
(lp264
sg19
(lp265
sg21
I0
sbasg29
(lp266
g248
ag255
ag262
asg21
I0
sg31
S'services.camera.libcameraservice.api1.client2.StreamingProcessor.ch'
p267
sba(iArchitecture
Cluster
p268
(dp269
g7
(lp270
(iArchitecture
Entity
p271
(dp272
g11
(lp273
sg13
S'services.camera.libcameraservice.api1.client2.ZslProcessor.c'
p274
sg15
(lp275
sg17
(lp276
sg19
(lp277
sg21
I0
sba(iArchitecture
Entity
p278
(dp279
g11
(lp280
sg13
S'services.camera.libcameraservice.api1.client2.ZslProcessor.h'
p281
sg15
(lp282
sg17
(lp283
sg19
(lp284
sg21
I0
sbasg29
(lp285
g274
ag281
asg21
I0
sg31
S'services.camera.libcameraservice.api1.client2.ZslProcessor.ch'
p286
sba(iArchitecture
Cluster
p287
(dp288
g7
(lp289
(iArchitecture
Entity
p290
(dp291
g11
(lp292
sg13
S'services.camera.libcameraservice.api1.client2.ZslProcessor3.c'
p293
sg15
(lp294
sg17
(lp295
sg19
(lp296
sg21
I0
sba(iArchitecture
Entity
p297
(dp298
g11
(lp299
sg13
S'services.camera.libcameraservice.api1.client2.ZslProcessor3.h'
p300
sg15
(lp301
sg17
(lp302
sg19
(lp303
sg21
I0
sbasg29
(lp304
g293
ag300
asg21
I0
sg31
S'services.camera.libcameraservice.api1.client2.ZslProcessor3.ch'
p305
sba(iArchitecture
Cluster
p306
(dp307
g7
(lp308
(iArchitecture
Entity
p309
(dp310
g11
(lp311
sg13
S'services.camera.libcameraservice.api1.client2.ZslProcessorInterface.c'
p312
sg15
(lp313
sg17
(lp314
sg19
(lp315
sg21
I0
sba(iArchitecture
Entity
p316
(dp317
g11
(lp318
sg13
S'services.camera.libcameraservice.api1.client2.ZslProcessorInterface.h'
p319
sg15
(lp320
sg17
(lp321
sg19
(lp322
sg21
I0
sbasg29
(lp323
g312
ag319
asg21
I0
sg31
S'services.camera.libcameraservice.api1.client2.ZslProcessorInterface.ch'
p324
sba(iArchitecture
Cluster
p325
(dp326
g7
(lp327
(iArchitecture
Entity
p328
(dp329
g11
(lp330
sg13
S'services.camera.libcameraservice.api2.CameraDeviceClient.c'
p331
sg15
(lp332
sg17
(lp333
sg19
(lp334
sg21
I0
sba(iArchitecture
Entity
p335
(dp336
g11
(lp337
sg13
S'services.camera.libcameraservice.api2.CameraDeviceClient.h'
p338
sg15
(lp339
sg17
(lp340
sg19
(lp341
sg21
I0
sbasg29
(lp342
g331
ag338
asg21
I0
sg31
S'services.camera.libcameraservice.api2.CameraDeviceClient.ch'
p343
sba(iArchitecture
Cluster
p344
(dp345
g7
(lp346
(iArchitecture
Entity
p347
(dp348
g11
(lp349
sg13
S'services.camera.libcameraservice.common.Camera2ClientBase.c'
p350
sg15
(lp351
sg17
(lp352
sg19
(lp353
sg21
I0
sba(iArchitecture
Entity
p354
(dp355
g11
(lp356
sg13
S'services.camera.libcameraservice.common.Camera2ClientBase.h'
p357
sg15
(lp358
sg17
(lp359
sg19
(lp360
sg21
I0
sbasg29
(lp361
g350
ag357
asg21
I0
sg31
S'services.camera.libcameraservice.common.Camera2ClientBase.ch'
p362
sba(iArchitecture
Cluster
p363
(dp364
g7
(lp365
(iArchitecture
Entity
p366
(dp367
g11
(lp368
sg13
S'services.camera.libcameraservice.common.CameraDeviceBase.c'
p369
sg15
(lp370
sg17
(lp371
sg19
(lp372
sg21
I0
sba(iArchitecture
Entity
p373
(dp374
g11
(lp375
sg13
S'services.camera.libcameraservice.common.CameraDeviceBase.h'
p376
sg15
(lp377
sg17
(lp378
sg19
(lp379
sg21
I0
sbasg29
(lp380
g369
ag376
asg21
I0
sg31
S'services.camera.libcameraservice.common.CameraDeviceBase.ch'
p381
sba(iArchitecture
Cluster
p382
(dp383
g7
(lp384
(iArchitecture
Entity
p385
(dp386
g11
(lp387
sg13
S'services.camera.libcameraservice.common.CameraModule.c'
p388
sg15
(lp389
sg17
(lp390
sg19
(lp391
sg21
I0
sba(iArchitecture
Entity
p392
(dp393
g11
(lp394
sg13
S'services.camera.libcameraservice.common.CameraModule.h'
p395
sg15
(lp396
sg17
(lp397
sg19
(lp398
sg21
I0
sbasg29
(lp399
g388
ag395
asg21
I0
sg31
S'services.camera.libcameraservice.common.CameraModule.ch'
p400
sba(iArchitecture
Cluster
p401
(dp402
g7
(lp403
(iArchitecture
Entity
p404
(dp405
g11
(lp406
sg13
S'services.camera.libcameraservice.common.FrameProcessorBase.c'
p407
sg15
(lp408
sg17
(lp409
sg19
(lp410
sg21
I0
sba(iArchitecture
Entity
p411
(dp412
g11
(lp413
sg13
S'services.camera.libcameraservice.common.FrameProcessorBase.h'
p414
sg15
(lp415
sg17
(lp416
sg19
(lp417
sg21
I0
sbasg29
(lp418
g407
ag414
asg21
I0
sg31
S'services.camera.libcameraservice.common.FrameProcessorBase.ch'
p419
sba(iArchitecture
Cluster
p420
(dp421
g7
(lp422
(iArchitecture
Entity
p423
(dp424
g11
(lp425
sg13
S'services.camera.libcameraservice.device2.Camera2Device.c'
p426
sg15
(lp427
sg17
(lp428
sg19
(lp429
sg21
I0
sba(iArchitecture
Entity
p430
(dp431
g11
(lp432
sg13
S'services.camera.libcameraservice.device2.Camera2Device.h'
p433
sg15
(lp434
sg17
(lp435
sg19
(lp436
sg21
I0
sbasg29
(lp437
g426
ag433
asg21
I0
sg31
S'services.camera.libcameraservice.device2.Camera2Device.ch'
p438
sba(iArchitecture
Cluster
p439
(dp440
g7
(lp441
(iArchitecture
Entity
p442
(dp443
g11
(lp444
sg13
S'services.camera.libcameraservice.device3.Camera3Device.c'
p445
sg15
(lp446
sg17
(lp447
sg19
(lp448
sg21
I0
sba(iArchitecture
Entity
p449
(dp450
g11
(lp451
sg13
S'services.camera.libcameraservice.device3.Camera3Device.h'
p452
sg15
(lp453
sg17
(lp454
sg19
(lp455
sg21
I0
sbasg29
(lp456
g445
ag452
asg21
I0
sg31
S'services.camera.libcameraservice.device3.Camera3Device.ch'
p457
sba(iArchitecture
Cluster
p458
(dp459
g7
(lp460
(iArchitecture
Entity
p461
(dp462
g11
(lp463
sg13
S'services.camera.libcameraservice.device3.Camera3DummyStream.c'
p464
sg15
(lp465
sg17
(lp466
sg19
(lp467
sg21
I0
sba(iArchitecture
Entity
p468
(dp469
g11
(lp470
sg13
S'services.camera.libcameraservice.device3.Camera3DummyStream.h'
p471
sg15
(lp472
sg17
(lp473
sg19
(lp474
sg21
I0
sbasg29
(lp475
g464
ag471
asg21
I0
sg31
S'services.camera.libcameraservice.device3.Camera3DummyStream.ch'
p476
sba(iArchitecture
Cluster
p477
(dp478
g7
(lp479
(iArchitecture
Entity
p480
(dp481
g11
(lp482
sg13
S'services.camera.libcameraservice.device3.Camera3IOStreamBase.c'
p483
sg15
(lp484
sg17
(lp485
sg19
(lp486
sg21
I0
sba(iArchitecture
Entity
p487
(dp488
g11
(lp489
sg13
S'services.camera.libcameraservice.device3.Camera3IOStreamBase.h'
p490
sg15
(lp491
sg17
(lp492
sg19
(lp493
sg21
I0
sbasg29
(lp494
g483
ag490
asg21
I0
sg31
S'services.camera.libcameraservice.device3.Camera3IOStreamBase.ch'
p495
sba(iArchitecture
Cluster
p496
(dp497
g7
(lp498
(iArchitecture
Entity
p499
(dp500
g11
(lp501
sg13
S'services.camera.libcameraservice.device3.Camera3InputStream.c'
p502
sg15
(lp503
sg17
(lp504
sg19
(lp505
sg21
I0
sba(iArchitecture
Entity
p506
(dp507
g11
(lp508
sg13
S'services.camera.libcameraservice.device3.Camera3InputStream.h'
p509
sg15
(lp510
sg17
(lp511
sg19
(lp512
sg21
I0
sbasg29
(lp513
g502
ag509
asg21
I0
sg31
S'services.camera.libcameraservice.device3.Camera3InputStream.ch'
p514
sba(iArchitecture
Cluster
p515
(dp516
g7
(lp517
(iArchitecture
Entity
p518
(dp519
g11
(lp520
sg13
S'services.camera.libcameraservice.device3.Camera3OutputStream.c'
p521
sg15
(lp522
sg17
(lp523
sg19
(lp524
sg21
I0
sba(iArchitecture
Entity
p525
(dp526
g11
(lp527
sg13
S'services.camera.libcameraservice.device3.Camera3OutputStream.h'
p528
sg15
(lp529
sg17
(lp530
sg19
(lp531
sg21
I0
sbasg29
(lp532
g521
ag528
asg21
I0
sg31
S'services.camera.libcameraservice.device3.Camera3OutputStream.ch'
p533
sba(iArchitecture
Cluster
p534
(dp535
g7
(lp536
(iArchitecture
Entity
p537
(dp538
g11
(lp539
sg13
S'services.camera.libcameraservice.device3.Camera3Stream.c'
p540
sg15
(lp541
sg17
(lp542
sg19
(lp543
sg21
I0
sba(iArchitecture
Entity
p544
(dp545
g11
(lp546
sg13
S'services.camera.libcameraservice.device3.Camera3Stream.h'
p547
sg15
(lp548
sg17
(lp549
sg19
(lp550
sg21
I0
sbasg29
(lp551
g540
ag547
asg21
I0
sg31
S'services.camera.libcameraservice.device3.Camera3Stream.ch'
p552
sba(iArchitecture
Cluster
p553
(dp554
g7
(lp555
(iArchitecture
Entity
p556
(dp557
g11
(lp558
sg13
S'services.camera.libcameraservice.device3.Camera3OutputStreamInterface.h'
p559
sg15
(lp560
sg17
(lp561
sg19
(lp562
sg21
I0
sba(iArchitecture
Entity
p563
(dp564
g11
(lp565
sg13
S'services.camera.libcameraservice.device3.Camera3StreamBufferListener.h'
p566
sg15
(lp567
sg17
(lp568
sg19
(lp569
sg21
I0
sba(iArchitecture
Entity
p570
(dp571
g11
(lp572
sg13
S'services.camera.libcameraservice.device3.Camera3StreamInterface.h'
p573
sg15
(lp574
sg17
(lp575
sg19
(lp576
sg21
I0
sba(iArchitecture
Entity
p577
(dp578
g11
(lp579
sg13
S'services.camera.libcameraservice.device3.Camera3ZslStream.c'
p580
sg15
(lp581
sg17
(lp582
sg19
(lp583
sg21
I0
sba(iArchitecture
Entity
p584
(dp585
g11
(lp586
sg13
S'services.camera.libcameraservice.device3.Camera3ZslStream.h'
p587
sg15
(lp588
sg17
(lp589
sg19
(lp590
sg21
I0
sbasg29
(lp591
g559
ag566
ag573
ag580
ag587
asg21
I0
sg31
S'services.camera.libcameraservice.device3.Camera3ZslStream.ch'
p592
sba(iArchitecture
Cluster
p593
(dp594
g7
(lp595
(iArchitecture
Entity
p596
(dp597
g11
(lp598
sg13
S'services.camera.libcameraservice.device3.StatusTracker.c'
p599
sg15
(lp600
sg17
(lp601
sg19
(lp602
sg21
I0
sba(iArchitecture
Entity
p603
(dp604
g11
(lp605
sg13
S'services.camera.libcameraservice.device3.StatusTracker.h'
p606
sg15
(lp607
sg17
(lp608
sg19
(lp609
sg21
I0
sbasg29
(lp610
g599
ag606
asg21
I0
sg31
S'services.camera.libcameraservice.device3.StatusTracker.ch'
p611
sba(iArchitecture
Cluster
p612
(dp613
g7
(lp614
(iArchitecture
Entity
p615
(dp616
g11
(lp617
sg13
S'services.camera.libcameraservice.gui.RingBufferConsumer.c'
p618
sg15
(lp619
sg17
(lp620
sg19
(lp621
sg21
I0
sba(iArchitecture
Entity
p622
(dp623
g11
(lp624
sg13
S'services.camera.libcameraservice.gui.RingBufferConsumer.h'
p625
sg15
(lp626
sg17
(lp627
sg19
(lp628
sg21
I0
sbasg29
(lp629
g618
ag625
asg21
I0
sg31
S'services.camera.libcameraservice.gui.RingBufferConsumer.ch'
p630
sba(iArchitecture
Cluster
p631
(dp632
g7
(lp633
(iArchitecture
Entity
p634
(dp635
g11
(lp636
sg13
S'services.camera.libcameraservice.utils.AutoConditionLock.c'
p637
sg15
(lp638
sg17
(lp639
sg19
(lp640
sg21
I0
sba(iArchitecture
Entity
p641
(dp642
g11
(lp643
sg13
S'services.camera.libcameraservice.utils.AutoConditionLock.h'
p644
sg15
(lp645
sg17
(lp646
sg19
(lp647
sg21
I0
sbasg29
(lp648
g637
ag644
asg21
I0
sg31
S'services.camera.libcameraservice.utils.AutoConditionLock.ch'
p649
sba(iArchitecture
Cluster
p650
(dp651
g7
(lp652
(iArchitecture
Entity
p653
(dp654
g11
(lp655
sg13
S'services.camera.libcameraservice.utils.CameraTraces.c'
p656
sg15
(lp657
sg17
(lp658
sg19
(lp659
sg21
I0
sba(iArchitecture
Entity
p660
(dp661
g11
(lp662
sg13
S'services.camera.libcameraservice.utils.CameraTraces.h'
p663
sg15
(lp664
sg17
(lp665
sg19
(lp666
sg21
I0
sbasg29
(lp667
g656
ag663
asg21
I0
sg31
S'services.camera.libcameraservice.utils.CameraTraces.ch'
p668
sba(iArchitecture
Cluster
p669
(dp670
g7
(lp671
(iArchitecture
Entity
p672
(dp673
g11
(lp674
sg13
S'services.camera.libcameraservice.api1.client2.Parameters.c'
p675
sg15
(lp676
sg17
(lp677
sg19
(lp678
sg21
I0
sbasg29
(lp679
g675
asg21
I0
sg31
S'services.soundtrigger.SoundTriggerHwService.ch'
p680
sbasS'target_sub'
p681
S'services.camera'
p682
sg29
(lp683
sS'is_component_arch'
p684
I00
sg31
S'6.0.0_r1'
p685
sba(iArchitecture
Architecture
p686
(dp687
g3
(lp688
(iArchitecture
Cluster
p689
(dp690
g7
(lp691
(iArchitecture
Entity
p692
(dp693
g11
(lp694
sg13
S'services.camera.libcameraservice.device1.CameraHardwareInterface.h'
p695
sg15
(lp696
sg17
(lp697
sg19
(lp698
sg21
I0
sba(iArchitecture
Entity
p699
(dp700
g11
(lp701
sg13
S'services.camera.libcameraservice.device3.Camera3StreamBufferListener.h'
p702
sg15
(lp703
sg17
(lp704
sg19
(lp705
sg21
I0
sba(iArchitecture
Entity
p706
(dp707
g11
(lp708
sg13
S'services.camera.libcameraservice.device3.Camera3StreamInterface.h'
p709
sg15
(lp710
sg17
(lp711
sg19
(lp712
sg21
I0
sba(iArchitecture
Entity
p713
(dp714
g11
(lp715
sg13
S'services.camera.libcameraservice.utils.ClientManager.h'
p716
sg15
(lp717
sg17
(lp718
sg19
(lp719
sg21
I0
sbasg29
(lp720
g695
ag702
ag709
ag716
asg21
I0
sg31
S'camera.cameraserver.main_cameraserver.ss'
p721
sba(iArchitecture
Cluster
p722
(dp723
g7
(lp724
(iArchitecture
Entity
p725
(dp726
g11
(lp727
sg13
S'services.camera.libcameraservice.CameraFlashlight.c'
p728
sg15
(lp729
sg17
(lp730
sg19
(lp731
sg21
I0
sba(iArchitecture
Entity
p732
(dp733
g11
(lp734
sg13
S'services.camera.libcameraservice.CameraFlashlight.h'
p735
sg15
(lp736
sg17
(lp737
sg19
(lp738
sg21
I0
sbasg29
(lp739
g728
ag735
asg21
I0
sg31
S'services.camera.libcameraservice.CameraFlashlight.ch'
p740
sba(iArchitecture
Cluster
p741
(dp742
g7
(lp743
(iArchitecture
Entity
p744
(dp745
g11
(lp746
sg13
S'services.camera.libcameraservice.CameraService.c'
p747
sg15
(lp748
sg17
(lp749
sg19
(lp750
sg21
I0
sba(iArchitecture
Entity
p751
(dp752
g11
(lp753
sg13
S'services.camera.libcameraservice.CameraService.h'
p754
sg15
(lp755
sg17
(lp756
sg19
(lp757
sg21
I0
sbasg29
(lp758
g747
ag754
asg21
I0
sg31
S'services.camera.libcameraservice.CameraService.ch'
p759
sba(iArchitecture
Cluster
p760
(dp761
g7
(lp762
(iArchitecture
Entity
p763
(dp764
g11
(lp765
sg13
S'services.camera.libcameraservice.api1.Camera2Client.c'
p766
sg15
(lp767
sg17
(lp768
sg19
(lp769
sg21
I0
sba(iArchitecture
Entity
p770
(dp771
g11
(lp772
sg13
S'services.camera.libcameraservice.api1.Camera2Client.h'
p773
sg15
(lp774
sg17
(lp775
sg19
(lp776
sg21
I0
sbasg29
(lp777
g766
ag773
asg21
I0
sg31
S'services.camera.libcameraservice.api1.Camera2Client.ch'
p778
sba(iArchitecture
Cluster
p779
(dp780
g7
(lp781
(iArchitecture
Entity
p782
(dp783
g11
(lp784
sg13
S'services.camera.libcameraservice.api1.CameraClient.c'
p785
sg15
(lp786
sg17
(lp787
sg19
(lp788
sg21
I0
sba(iArchitecture
Entity
p789
(dp790
g11
(lp791
sg13
S'services.camera.libcameraservice.api1.CameraClient.h'
p792
sg15
(lp793
sg17
(lp794
sg19
(lp795
sg21
I0
sbasg29
(lp796
g785
ag792
asg21
I0
sg31
S'services.camera.libcameraservice.api1.CameraClient.ch'
p797
sba(iArchitecture
Cluster
p798
(dp799
g7
(lp800
(iArchitecture
Entity
p801
(dp802
g11
(lp803
sg13
S'services.camera.libcameraservice.api1.client2.CallbackProcessor.c'
p804
sg15
(lp805
sg17
(lp806
sg19
(lp807
sg21
I0
sba(iArchitecture
Entity
p808
(dp809
g11
(lp810
sg13
S'services.camera.libcameraservice.api1.client2.CallbackProcessor.h'
p811
sg15
(lp812
sg17
(lp813
sg19
(lp814
sg21
I0
sbasg29
(lp815
g804
ag811
asg21
I0
sg31
S'services.camera.libcameraservice.api1.client2.CallbackProcessor.ch'
p816
sba(iArchitecture
Cluster
p817
(dp818
g7
(lp819
(iArchitecture
Entity
p820
(dp821
g11
(lp822
sg13
S'services.camera.libcameraservice.api1.client2.CaptureSequencer.c'
p823
sg15
(lp824
sg17
(lp825
sg19
(lp826
sg21
I0
sba(iArchitecture
Entity
p827
(dp828
g11
(lp829
sg13
S'services.camera.libcameraservice.api1.client2.CaptureSequencer.h'
p830
sg15
(lp831
sg17
(lp832
sg19
(lp833
sg21
I0
sbasg29
(lp834
g823
ag830
asg21
I0
sg31
S'services.camera.libcameraservice.api1.client2.CaptureSequencer.ch'
p835
sba(iArchitecture
Cluster
p836
(dp837
g7
(lp838
(iArchitecture
Entity
p839
(dp840
g11
(lp841
sg13
S'services.camera.libcameraservice.api1.client2.FrameProcessor.c'
p842
sg15
(lp843
sg17
(lp844
sg19
(lp845
sg21
I0
sba(iArchitecture
Entity
p846
(dp847
g11
(lp848
sg13
S'services.camera.libcameraservice.api1.client2.FrameProcessor.h'
p849
sg15
(lp850
sg17
(lp851
sg19
(lp852
sg21
I0
sbasg29
(lp853
g842
ag849
asg21
I0
sg31
S'services.camera.libcameraservice.api1.client2.FrameProcessor.ch'
p854
sba(iArchitecture
Cluster
p855
(dp856
g7
(lp857
(iArchitecture
Entity
p858
(dp859
g11
(lp860
sg13
S'services.camera.libcameraservice.api1.client2.JpegCompressor.c'
p861
sg15
(lp862
sg17
(lp863
sg19
(lp864
sg21
I0
sba(iArchitecture
Entity
p865
(dp866
g11
(lp867
sg13
S'services.camera.libcameraservice.api1.client2.JpegCompressor.h'
p868
sg15
(lp869
sg17
(lp870
sg19
(lp871
sg21
I0
sbasg29
(lp872
g861
ag868
asg21
I0
sg31
S'services.camera.libcameraservice.api1.client2.JpegCompressor.ch'
p873
sba(iArchitecture
Cluster
p874
(dp875
g7
(lp876
(iArchitecture
Entity
p877
(dp878
g11
(lp879
sg13
S'services.camera.libcameraservice.api1.client2.JpegProcessor.c'
p880
sg15
(lp881
sg17
(lp882
sg19
(lp883
sg21
I0
sba(iArchitecture
Entity
p884
(dp885
g11
(lp886
sg13
S'services.camera.libcameraservice.api1.client2.JpegProcessor.h'
p887
sg15
(lp888
sg17
(lp889
sg19
(lp890
sg21
I0
sbasg29
(lp891
g880
ag887
asg21
I0
sg31
S'services.camera.libcameraservice.api1.client2.JpegProcessor.ch'
p892
sba(iArchitecture
Cluster
p893
(dp894
g7
(lp895
(iArchitecture
Entity
p896
(dp897
g11
(lp898
sg13
S'services.camera.libcameraservice.api1.client2.Camera2Heap.h'
p899
sg15
(lp900
sg17
(lp901
sg19
(lp902
sg21
I0
sba(iArchitecture
Entity
p903
(dp904
g11
(lp905
sg13
S'services.camera.libcameraservice.api1.client2.StreamingProcessor.c'
p906
sg15
(lp907
sg17
(lp908
sg19
(lp909
sg21
I0
sba(iArchitecture
Entity
p910
(dp911
g11
(lp912
sg13
S'services.camera.libcameraservice.api1.client2.StreamingProcessor.h'
p913
sg15
(lp914
sg17
(lp915
sg19
(lp916
sg21
I0
sbasg29
(lp917
g899
ag906
ag913
asg21
I0
sg31
S'services.camera.libcameraservice.api1.client2.StreamingProcessor.ch'
p918
sba(iArchitecture
Cluster
p919
(dp920
g7
(lp921
(iArchitecture
Entity
p922
(dp923
g11
(lp924
sg13
S'services.camera.libcameraservice.api1.client2.ZslProcessor.c'
p925
sg15
(lp926
sg17
(lp927
sg19
(lp928
sg21
I0
sba(iArchitecture
Entity
p929
(dp930
g11
(lp931
sg13
S'services.camera.libcameraservice.api1.client2.ZslProcessor.h'
p932
sg15
(lp933
sg17
(lp934
sg19
(lp935
sg21
I0
sbasg29
(lp936
g925
ag932
asg21
I0
sg31
S'services.camera.libcameraservice.api1.client2.ZslProcessor.ch'
p937
sba(iArchitecture
Cluster
p938
(dp939
g7
(lp940
(iArchitecture
Entity
p941
(dp942
g11
(lp943
sg13
S'services.camera.libcameraservice.api2.CameraDeviceClient.c'
p944
sg15
(lp945
sg17
(lp946
sg19
(lp947
sg21
I0
sba(iArchitecture
Entity
p948
(dp949
g11
(lp950
sg13
S'services.camera.libcameraservice.api2.CameraDeviceClient.h'
p951
sg15
(lp952
sg17
(lp953
sg19
(lp954
sg21
I0
sbasg29
(lp955
g944
ag951
asg21
I0
sg31
S'services.camera.libcameraservice.api2.CameraDeviceClient.ch'
p956
sba(iArchitecture
Cluster
p957
(dp958
g7
(lp959
(iArchitecture
Entity
p960
(dp961
g11
(lp962
sg13
S'services.camera.libcameraservice.common.Camera2ClientBase.c'
p963
sg15
(lp964
sg17
(lp965
sg19
(lp966
sg21
I0
sba(iArchitecture
Entity
p967
(dp968
g11
(lp969
sg13
S'services.camera.libcameraservice.common.Camera2ClientBase.h'
p970
sg15
(lp971
sg17
(lp972
sg19
(lp973
sg21
I0
sbasg29
(lp974
g963
ag970
asg21
I0
sg31
S'services.camera.libcameraservice.common.Camera2ClientBase.ch'
p975
sba(iArchitecture
Cluster
p976
(dp977
g7
(lp978
(iArchitecture
Entity
p979
(dp980
g11
(lp981
sg13
S'services.camera.libcameraservice.common.CameraDeviceBase.c'
p982
sg15
(lp983
sg17
(lp984
sg19
(lp985
sg21
I0
sba(iArchitecture
Entity
p986
(dp987
g11
(lp988
sg13
S'services.camera.libcameraservice.common.CameraDeviceBase.h'
p989
sg15
(lp990
sg17
(lp991
sg19
(lp992
sg21
I0
sbasg29
(lp993
g982
ag989
asg21
I0
sg31
S'services.camera.libcameraservice.common.CameraDeviceBase.ch'
p994
sba(iArchitecture
Cluster
p995
(dp996
g7
(lp997
(iArchitecture
Entity
p998
(dp999
g11
(lp1000
sg13
S'services.camera.libcameraservice.common.CameraModule.c'
p1001
sg15
(lp1002
sg17
(lp1003
sg19
(lp1004
sg21
I0
sba(iArchitecture
Entity
p1005
(dp1006
g11
(lp1007
sg13
S'services.camera.libcameraservice.common.CameraModule.h'
p1008
sg15
(lp1009
sg17
(lp1010
sg19
(lp1011
sg21
I0
sbasg29
(lp1012
g1001
ag1008
asg21
I0
sg31
S'services.camera.libcameraservice.common.CameraModule.ch'
p1013
sba(iArchitecture
Cluster
p1014
(dp1015
g7
(lp1016
(iArchitecture
Entity
p1017
(dp1018
g11
(lp1019
sg13
S'services.camera.libcameraservice.common.FrameProcessorBase.c'
p1020
sg15
(lp1021
sg17
(lp1022
sg19
(lp1023
sg21
I0
sba(iArchitecture
Entity
p1024
(dp1025
g11
(lp1026
sg13
S'services.camera.libcameraservice.common.FrameProcessorBase.h'
p1027
sg15
(lp1028
sg17
(lp1029
sg19
(lp1030
sg21
I0
sbasg29
(lp1031
g1020
ag1027
asg21
I0
sg31
S'services.camera.libcameraservice.common.FrameProcessorBase.ch'
p1032
sba(iArchitecture
Cluster
p1033
(dp1034
g7
(lp1035
(iArchitecture
Entity
p1036
(dp1037
g11
(lp1038
sg13
S'services.camera.libcameraservice.device3.Camera3BufferManager.c'
p1039
sg15
(lp1040
sg17
(lp1041
sg19
(lp1042
sg21
I0
sba(iArchitecture
Entity
p1043
(dp1044
g11
(lp1045
sg13
S'services.camera.libcameraservice.device3.Camera3BufferManager.h'
p1046
sg15
(lp1047
sg17
(lp1048
sg19
(lp1049
sg21
I0
sbasg29
(lp1050
g1039
ag1046
asg21
I0
sg31
S'services.camera.libcameraservice.device3.Camera3BufferManager.ch'
p1051
sba(iArchitecture
Cluster
p1052
(dp1053
g7
(lp1054
(iArchitecture
Entity
p1055
(dp1056
g11
(lp1057
sg13
S'services.camera.libcameraservice.device3.Camera3Device.c'
p1058
sg15
(lp1059
sg17
(lp1060
sg19
(lp1061
sg21
I0
sba(iArchitecture
Entity
p1062
(dp1063
g11
(lp1064
sg13
S'services.camera.libcameraservice.device3.Camera3Device.h'
p1065
sg15
(lp1066
sg17
(lp1067
sg19
(lp1068
sg21
I0
sbasg29
(lp1069
g1058
ag1065
asg21
I0
sg31
S'services.camera.libcameraservice.device3.Camera3Device.ch'
p1070
sba(iArchitecture
Cluster
p1071
(dp1072
g7
(lp1073
(iArchitecture
Entity
p1074
(dp1075
g11
(lp1076
sg13
S'services.camera.libcameraservice.device3.Camera3DummyStream.c'
p1077
sg15
(lp1078
sg17
(lp1079
sg19
(lp1080
sg21
I0
sba(iArchitecture
Entity
p1081
(dp1082
g11
(lp1083
sg13
S'services.camera.libcameraservice.device3.Camera3DummyStream.h'
p1084
sg15
(lp1085
sg17
(lp1086
sg19
(lp1087
sg21
I0
sbasg29
(lp1088
g1077
ag1084
asg21
I0
sg31
S'services.camera.libcameraservice.device3.Camera3DummyStream.ch'
p1089
sba(iArchitecture
Cluster
p1090
(dp1091
g7
(lp1092
(iArchitecture
Entity
p1093
(dp1094
g11
(lp1095
sg13
S'services.camera.libcameraservice.device3.Camera3IOStreamBase.c'
p1096
sg15
(lp1097
sg17
(lp1098
sg19
(lp1099
sg21
I0
sba(iArchitecture
Entity
p1100
(dp1101
g11
(lp1102
sg13
S'services.camera.libcameraservice.device3.Camera3IOStreamBase.h'
p1103
sg15
(lp1104
sg17
(lp1105
sg19
(lp1106
sg21
I0
sbasg29
(lp1107
g1096
ag1103
asg21
I0
sg31
S'services.camera.libcameraservice.device3.Camera3IOStreamBase.ch'
p1108
sba(iArchitecture
Cluster
p1109
(dp1110
g7
(lp1111
(iArchitecture
Entity
p1112
(dp1113
g11
(lp1114
sg13
S'services.camera.libcameraservice.device3.Camera3InputStream.c'
p1115
sg15
(lp1116
sg17
(lp1117
sg19
(lp1118
sg21
I0
sba(iArchitecture
Entity
p1119
(dp1120
g11
(lp1121
sg13
S'services.camera.libcameraservice.device3.Camera3InputStream.h'
p1122
sg15
(lp1123
sg17
(lp1124
sg19
(lp1125
sg21
I0
sbasg29
(lp1126
g1115
ag1122
asg21
I0
sg31
S'services.camera.libcameraservice.device3.Camera3InputStream.ch'
p1127
sba(iArchitecture
Cluster
p1128
(dp1129
g7
(lp1130
(iArchitecture
Entity
p1131
(dp1132
g11
(lp1133
sg13
S'services.camera.libcameraservice.device3.Camera3OutputStream.c'
p1134
sg15
(lp1135
sg17
(lp1136
sg19
(lp1137
sg21
I0
sba(iArchitecture
Entity
p1138
(dp1139
g11
(lp1140
sg13
S'services.camera.libcameraservice.device3.Camera3OutputStream.h'
p1141
sg15
(lp1142
sg17
(lp1143
sg19
(lp1144
sg21
I0
sbasg29
(lp1145
g1134
ag1141
asg21
I0
sg31
S'services.camera.libcameraservice.device3.Camera3OutputStream.ch'
p1146
sba(iArchitecture
Cluster
p1147
(dp1148
g7
(lp1149
(iArchitecture
Entity
p1150
(dp1151
g11
(lp1152
sg13
S'services.camera.libcameraservice.device3.Camera3Stream.c'
p1153
sg15
(lp1154
sg17
(lp1155
sg19
(lp1156
sg21
I0
sba(iArchitecture
Entity
p1157
(dp1158
g11
(lp1159
sg13
S'services.camera.libcameraservice.device3.Camera3Stream.h'
p1160
sg15
(lp1161
sg17
(lp1162
sg19
(lp1163
sg21
I0
sbasg29
(lp1164
g1153
ag1160
asg21
I0
sg31
S'services.camera.libcameraservice.device3.Camera3Stream.ch'
p1165
sba(iArchitecture
Cluster
p1166
(dp1167
g7
(lp1168
(iArchitecture
Entity
p1169
(dp1170
g11
(lp1171
sg13
S'services.camera.libcameraservice.device3.Camera3ZslStream.c'
p1172
sg15
(lp1173
sg17
(lp1174
sg19
(lp1175
sg21
I0
sba(iArchitecture
Entity
p1176
(dp1177
g11
(lp1178
sg13
S'services.camera.libcameraservice.device3.Camera3ZslStream.h'
p1179
sg15
(lp1180
sg17
(lp1181
sg19
(lp1182
sg21
I0
sbasg29
(lp1183
g1172
ag1179
asg21
I0
sg31
S'services.camera.libcameraservice.device3.Camera3ZslStream.ch'
p1184
sba(iArchitecture
Cluster
p1185
(dp1186
g7
(lp1187
(iArchitecture
Entity
p1188
(dp1189
g11
(lp1190
sg13
S'services.camera.libcameraservice.device3.Camera3OutputStreamInterface.h'
p1191
sg15
(lp1192
sg17
(lp1193
sg19
(lp1194
sg21
I0
sba(iArchitecture
Entity
p1195
(dp1196
g11
(lp1197
sg13
S'services.camera.libcameraservice.device3.StatusTracker.c'
p1198
sg15
(lp1199
sg17
(lp1200
sg19
(lp1201
sg21
I0
sba(iArchitecture
Entity
p1202
(dp1203
g11
(lp1204
sg13
S'services.camera.libcameraservice.device3.StatusTracker.h'
p1205
sg15
(lp1206
sg17
(lp1207
sg19
(lp1208
sg21
I0
sbasg29
(lp1209
g1191
ag1198
ag1205
asg21
I0
sg31
S'services.camera.libcameraservice.device3.StatusTracker.ch'
p1210
sba(iArchitecture
Cluster
p1211
(dp1212
g7
(lp1213
(iArchitecture
Entity
p1214
(dp1215
g11
(lp1216
sg13
S'services.camera.libcameraservice.gui.RingBufferConsumer.c'
p1217
sg15
(lp1218
sg17
(lp1219
sg19
(lp1220
sg21
I0
sba(iArchitecture
Entity
p1221
(dp1222
g11
(lp1223
sg13
S'services.camera.libcameraservice.gui.RingBufferConsumer.h'
p1224
sg15
(lp1225
sg17
(lp1226
sg19
(lp1227
sg21
I0
sbasg29
(lp1228
g1217
ag1224
asg21
I0
sg31
S'services.camera.libcameraservice.gui.RingBufferConsumer.ch'
p1229
sba(iArchitecture
Cluster
p1230
(dp1231
g7
(lp1232
(iArchitecture
Entity
p1233
(dp1234
g11
(lp1235
sg13
S'services.camera.libcameraservice.utils.AutoConditionLock.c'
p1236
sg15
(lp1237
sg17
(lp1238
sg19
(lp1239
sg21
I0
sba(iArchitecture
Entity
p1240
(dp1241
g11
(lp1242
sg13
S'services.camera.libcameraservice.utils.AutoConditionLock.h'
p1243
sg15
(lp1244
sg17
(lp1245
sg19
(lp1246
sg21
I0
sbasg29
(lp1247
g1236
ag1243
asg21
I0
sg31
S'services.camera.libcameraservice.utils.AutoConditionLock.ch'
p1248
sba(iArchitecture
Cluster
p1249
(dp1250
g7
(lp1251
(iArchitecture
Entity
p1252
(dp1253
g11
(lp1254
sg13
S'services.camera.libcameraservice.utils.CameraTraces.c'
p1255
sg15
(lp1256
sg17
(lp1257
sg19
(lp1258
sg21
I0
sba(iArchitecture
Entity
p1259
(dp1260
g11
(lp1261
sg13
S'services.camera.libcameraservice.utils.CameraTraces.h'
p1262
sg15
(lp1263
sg17
(lp1264
sg19
(lp1265
sg21
I0
sbasg29
(lp1266
g1255
ag1262
asg21
I0
sg31
S'services.camera.libcameraservice.utils.CameraTraces.ch'
p1267
sba(iArchitecture
Cluster
p1268
(dp1269
g7
(lp1270
(iArchitecture
Entity
p1271
(dp1272
g11
(lp1273
sg13
S'services.camera.libcameraservice.api1.client2.Parameters.c'
p1274
sg15
(lp1275
sg17
(lp1276
sg19
(lp1277
sg21
I0
sbasg29
(lp1278
g1274
asg21
I0
sg31
S'services.soundtrigger.SoundTriggerHwService.ch'
p1279
sbasg681
g682
sg29
(lp1280
sg684
I00
sg31
S'7.0.0_r1'
p1281
sba.