(lp0
(iArchitecture
Architecture
p1
(dp2
S'clusters'
p3
(lp4
(iArchitecture
Cluster
p5
(dp6
S'entities'
p7
(lp8
(iArchitecture
Entity
p9
(dp10
S'issue_ids'
p11
(lp12
sS'name'
p13
S'include.soundtrigger.SoundTrigger.h'
p14
sS'descs'
p15
(lp16
sS'labels'
p17
(lp18
sS'titles'
p19
(lp20
sS'change'
p21
I0
sba(iArchitecture
Entity
p22
(dp23
g11
(lp24
sg13
S'include.soundtrigger.SoundTriggerCallback.h'
p25
sg15
(lp26
sg17
(lp27
sg19
(lp28
sg21
I0
sbasS'classes'
p29
(lp30
g14
ag25
asg21
I0
sS'label'
p31
S'services.audiopolicy.managerdefault.AudioPolicyManager.ch'
p32
sba(iArchitecture
Cluster
p33
(dp34
g7
(lp35
(iArchitecture
Entity
p36
(dp37
g11
(lp38
sg13
S'soundtrigger.SoundTrigger.c'
p39
sg15
(lp40
sg17
(lp41
sg19
(lp42
sg21
I0
sbasg29
(lp43
g39
asg21
I0
sg31
S'services.radio.RadioService.ch'
p44
sba(iArchitecture
Cluster
p45
(dp46
g7
(lp47
(iArchitecture
Entity
p48
(dp49
g11
(lp50
sg13
S'services.soundtrigger.SoundTriggerHwService.c'
p51
sg15
(lp52
sg17
(lp53
sg19
(lp54
sg21
I0
sba(iArchitecture
Entity
p55
(dp56
g11
(lp57
sg13
S'services.soundtrigger.SoundTriggerHwService.h'
p58
sg15
(lp59
sg17
(lp60
sg19
(lp61
sg21
I0
sbasg29
(lp62
g51
ag58
asg21
I0
sg31
S'services.soundtrigger.SoundTriggerHwService.ch'
p63
sbasS'target_sub'
p64
S'soundtrigger.SoundTrigger'
p65
sg29
(lp66
sS'is_component_arch'
p67
I00
sg31
S'6.0.0_r1'
p68
sba(iArchitecture
Architecture
p69
(dp70
g3
(lp71
(iArchitecture
Cluster
p72
(dp73
g7
(lp74
(iArchitecture
Entity
p75
(dp76
g11
(lp77
sg13
S'include.soundtrigger.SoundTrigger.h'
p78
sg15
(lp79
sg17
(lp80
sg19
(lp81
sg21
I0
sba(iArchitecture
Entity
p82
(dp83
g11
(lp84
sg13
S'include.soundtrigger.SoundTriggerCallback.h'
p85
sg15
(lp86
sg17
(lp87
sg19
(lp88
sg21
I0
sbasg29
(lp89
g78
ag85
asg21
I0
sg31
S'services.audiopolicy.managerdefault.AudioPolicyManager.ch'
p90
sba(iArchitecture
Cluster
p91
(dp92
g7
(lp93
(iArchitecture
Entity
p94
(dp95
g11
(lp96
sg13
S'soundtrigger.SoundTrigger.c'
p97
sg15
(lp98
sg17
(lp99
sg19
(lp100
sg21
I0
sbasg29
(lp101
g97
asg21
I0
sg31
S'services.radio.RadioService.ch'
p102
sba(iArchitecture
Cluster
p103
(dp104
g7
(lp105
(iArchitecture
Entity
p106
(dp107
g11
(lp108
sg13
S'services.soundtrigger.SoundTriggerHwService.c'
p109
sg15
(lp110
sg17
(lp111
sg19
(lp112
sg21
I0
sba(iArchitecture
Entity
p113
(dp114
g11
(lp115
sg13
S'services.soundtrigger.SoundTriggerHwService.h'
p116
sg15
(lp117
sg17
(lp118
sg19
(lp119
sg21
I0
sbasg29
(lp120
g109
ag116
asg21
I0
sg31
S'services.soundtrigger.SoundTriggerHwService.ch'
p121
sbasg64
g65
sg29
(lp122
sg67
I00
sg31
S'7.0.0_r1'
p123
sba.