(lp0
(iArchitecture
Architecture
p1
(dp2
S'clusters'
p3
(lp4
(iArchitecture
Cluster
p5
(dp6
S'entities'
p7
(lp8
(iArchitecture
Entity
p9
(dp10
S'issue_ids'
p11
(lp12
sS'name'
p13
S'cmds.screenrecord.EglWindow.c'
p14
sS'descs'
p15
(lp16
sS'labels'
p17
(lp18
sS'titles'
p19
(lp20
sS'change'
p21
I0
sba(iArchitecture
Entity
p22
(dp23
g11
(lp24
sg13
S'cmds.screenrecord.EglWindow.h'
p25
sg15
(lp26
sg17
(lp27
sg19
(lp28
sg21
I0
sbasS'classes'
p29
(lp30
g14
ag25
asg21
I0
sS'label'
p31
S'cmds.screenrecord.EglWindow.ch'
p32
sba(iArchitecture
Cluster
p33
(dp34
g7
(lp35
(iArchitecture
Entity
p36
(dp37
g11
(lp38
sg13
S'cmds.screenrecord.FrameOutput.c'
p39
sg15
(lp40
sg17
(lp41
sg19
(lp42
sg21
I0
sba(iArchitecture
Entity
p43
(dp44
g11
(lp45
sg13
S'cmds.screenrecord.FrameOutput.h'
p46
sg15
(lp47
sg17
(lp48
sg19
(lp49
sg21
I0
sbasg29
(lp50
g39
ag46
asg21
I0
sg31
S'cmds.screenrecord.FrameOutput.ch'
p51
sba(iArchitecture
Cluster
p52
(dp53
g7
(lp54
(iArchitecture
Entity
p55
(dp56
g11
(lp57
sg13
S'cmds.screenrecord.Overlay.c'
p58
sg15
(lp59
sg17
(lp60
sg19
(lp61
sg21
I0
sba(iArchitecture
Entity
p62
(dp63
g11
(lp64
sg13
S'cmds.screenrecord.Overlay.h'
p65
sg15
(lp66
sg17
(lp67
sg19
(lp68
sg21
I0
sbasg29
(lp69
g58
ag65
asg21
I0
sg31
S'cmds.screenrecord.Overlay.ch'
p70
sba(iArchitecture
Cluster
p71
(dp72
g7
(lp73
(iArchitecture
Entity
p74
(dp75
g11
(lp76
sg13
S'cmds.screenrecord.Program.c'
p77
sg15
(lp78
sg17
(lp79
sg19
(lp80
sg21
I0
sba(iArchitecture
Entity
p81
(dp82
g11
(lp83
sg13
S'cmds.screenrecord.Program.h'
p84
sg15
(lp85
sg17
(lp86
sg19
(lp87
sg21
I0
sbasg29
(lp88
g77
ag84
asg21
I0
sg31
S'cmds.screenrecord.Program.ch'
p89
sba(iArchitecture
Cluster
p90
(dp91
g7
(lp92
(iArchitecture
Entity
p93
(dp94
g11
(lp95
sg13
S'cmds.screenrecord.FontBitmap.h'
p96
sg15
(lp97
sg17
(lp98
sg19
(lp99
sg21
I0
sba(iArchitecture
Entity
p100
(dp101
g11
(lp102
sg13
S'cmds.screenrecord.TextRenderer.c'
p103
sg15
(lp104
sg17
(lp105
sg19
(lp106
sg21
I0
sba(iArchitecture
Entity
p107
(dp108
g11
(lp109
sg13
S'cmds.screenrecord.TextRenderer.h'
p110
sg15
(lp111
sg17
(lp112
sg19
(lp113
sg21
I0
sbasg29
(lp114
g96
ag103
ag110
asg21
I0
sg31
S'cmds.screenrecord.TextRenderer.ch'
p115
sba(iArchitecture
Cluster
p116
(dp117
g7
(lp118
(iArchitecture
Entity
p119
(dp120
g11
(lp121
sg13
S'cmds.screenrecord.screenrecord.c'
p122
sg15
(lp123
sg17
(lp124
sg19
(lp125
sg21
I0
sba(iArchitecture
Entity
p126
(dp127
g11
(lp128
sg13
S'cmds.screenrecord.screenrecord.h'
p129
sg15
(lp130
sg17
(lp131
sg19
(lp132
sg21
I0
sbasg29
(lp133
g122
ag129
asg21
I0
sg31
S'cmds.screenrecord.screenrecord.ch'
p134
sbasS'target_sub'
p135
S'cmds.screenrecord'
p136
sg29
(lp137
sS'is_component_arch'
p138
I00
sg31
S'6.0.0_r1'
p139
sba(iArchitecture
Architecture
p140
(dp141
g3
(lp142
(iArchitecture
Cluster
p143
(dp144
g7
(lp145
(iArchitecture
Entity
p146
(dp147
g11
(lp148
sg13
S'cmds.screenrecord.EglWindow.c'
p149
sg15
(lp150
sg17
(lp151
sg19
(lp152
sg21
I0
sba(iArchitecture
Entity
p153
(dp154
g11
(lp155
sg13
S'cmds.screenrecord.EglWindow.h'
p156
sg15
(lp157
sg17
(lp158
sg19
(lp159
sg21
I0
sbasg29
(lp160
g149
ag156
asg21
I0
sg31
S'cmds.screenrecord.EglWindow.ch'
p161
sba(iArchitecture
Cluster
p162
(dp163
g7
(lp164
(iArchitecture
Entity
p165
(dp166
g11
(lp167
sg13
S'cmds.screenrecord.FrameOutput.c'
p168
sg15
(lp169
sg17
(lp170
sg19
(lp171
sg21
I0
sba(iArchitecture
Entity
p172
(dp173
g11
(lp174
sg13
S'cmds.screenrecord.FrameOutput.h'
p175
sg15
(lp176
sg17
(lp177
sg19
(lp178
sg21
I0
sbasg29
(lp179
g168
ag175
asg21
I0
sg31
S'cmds.screenrecord.FrameOutput.ch'
p180
sba(iArchitecture
Cluster
p181
(dp182
g7
(lp183
(iArchitecture
Entity
p184
(dp185
g11
(lp186
sg13
S'cmds.screenrecord.Overlay.c'
p187
sg15
(lp188
sg17
(lp189
sg19
(lp190
sg21
I0
sba(iArchitecture
Entity
p191
(dp192
g11
(lp193
sg13
S'cmds.screenrecord.Overlay.h'
p194
sg15
(lp195
sg17
(lp196
sg19
(lp197
sg21
I0
sbasg29
(lp198
g187
ag194
asg21
I0
sg31
S'cmds.screenrecord.Overlay.ch'
p199
sba(iArchitecture
Cluster
p200
(dp201
g7
(lp202
(iArchitecture
Entity
p203
(dp204
g11
(lp205
sg13
S'cmds.screenrecord.Program.c'
p206
sg15
(lp207
sg17
(lp208
sg19
(lp209
sg21
I0
sba(iArchitecture
Entity
p210
(dp211
g11
(lp212
sg13
S'cmds.screenrecord.Program.h'
p213
sg15
(lp214
sg17
(lp215
sg19
(lp216
sg21
I0
sbasg29
(lp217
g206
ag213
asg21
I0
sg31
S'cmds.screenrecord.Program.ch'
p218
sba(iArchitecture
Cluster
p219
(dp220
g7
(lp221
(iArchitecture
Entity
p222
(dp223
g11
(lp224
sg13
S'cmds.screenrecord.FontBitmap.h'
p225
sg15
(lp226
sg17
(lp227
sg19
(lp228
sg21
I0
sba(iArchitecture
Entity
p229
(dp230
g11
(lp231
sg13
S'cmds.screenrecord.TextRenderer.c'
p232
sg15
(lp233
sg17
(lp234
sg19
(lp235
sg21
I0
sba(iArchitecture
Entity
p236
(dp237
g11
(lp238
sg13
S'cmds.screenrecord.TextRenderer.h'
p239
sg15
(lp240
sg17
(lp241
sg19
(lp242
sg21
I0
sbasg29
(lp243
g225
ag232
ag239
asg21
I0
sg31
S'cmds.screenrecord.TextRenderer.ch'
p244
sba(iArchitecture
Cluster
p245
(dp246
g7
(lp247
(iArchitecture
Entity
p248
(dp249
g11
(lp250
sg13
S'cmds.screenrecord.screenrecord.c'
p251
sg15
(lp252
sg17
(lp253
sg19
(lp254
sg21
I0
sba(iArchitecture
Entity
p255
(dp256
g11
(lp257
sg13
S'cmds.screenrecord.screenrecord.h'
p258
sg15
(lp259
sg17
(lp260
sg19
(lp261
sg21
I0
sbasg29
(lp262
g251
ag258
asg21
I0
sg31
S'cmds.screenrecord.screenrecord.ch'
p263
sbasg135
g136
sg29
(lp264
sg138
I00
sg31
S'7.0.0_r1'
p265
sba.