(lp0
(iArchitecture
Architecture
p1
(dp2
S'clusters'
p3
(lp4
(iArchitecture
Cluster
p5
(dp6
S'entities'
p7
(lp8
(iArchitecture
Entity
p9
(dp10
S'issue_ids'
p11
(lp12
sS'name'
p13
S'include.soundtrigger.ISoundTrigger.h'
p14
sS'descs'
p15
(lp16
sS'labels'
p17
(lp18
sS'titles'
p19
(lp20
sS'change'
p21
I0
sba(iArchitecture
Entity
p22
(dp23
g11
(lp24
sg13
S'include.soundtrigger.ISoundTriggerClient.h'
p25
sg15
(lp26
sg17
(lp27
sg19
(lp28
sg21
I0
sba(iArchitecture
Entity
p29
(dp30
g11
(lp31
sg13
S'include.soundtrigger.ISoundTriggerHwService.h'
p32
sg15
(lp33
sg17
(lp34
sg19
(lp35
sg21
I0
sba(iArchitecture
Entity
p36
(dp37
g11
(lp38
sg13
S'soundtrigger.ISoundTrigger.c'
p39
sg15
(lp40
sg17
(lp41
sg19
(lp42
sg21
I0
sba(iArchitecture
Entity
p43
(dp44
g11
(lp45
sg13
S'soundtrigger.ISoundTriggerClient.c'
p46
sg15
(lp47
sg17
(lp48
sg19
(lp49
sg21
I0
sba(iArchitecture
Entity
p50
(dp51
g11
(lp52
sg13
S'soundtrigger.ISoundTriggerHwService.c'
p53
sg15
(lp54
sg17
(lp55
sg19
(lp56
sg21
I0
sbasS'classes'
p57
(lp58
g14
ag25
ag32
ag39
ag46
ag53
asg21
I0
sS'label'
p59
S'services.soundtrigger.SoundTriggerHwService.ch'
p60
sbasS'target_sub'
p61
S'soundtrigger.ISoundTrigger'
p62
sg57
(lp63
sS'is_component_arch'
p64
I00
sg59
S'6.0.0_r1'
p65
sba(iArchitecture
Architecture
p66
(dp67
g3
(lp68
(iArchitecture
Cluster
p69
(dp70
g7
(lp71
(iArchitecture
Entity
p72
(dp73
g11
(lp74
sg13
S'include.soundtrigger.ISoundTrigger.h'
p75
sg15
(lp76
sg17
(lp77
sg19
(lp78
sg21
I0
sba(iArchitecture
Entity
p79
(dp80
g11
(lp81
sg13
S'include.soundtrigger.ISoundTriggerClient.h'
p82
sg15
(lp83
sg17
(lp84
sg19
(lp85
sg21
I0
sba(iArchitecture
Entity
p86
(dp87
g11
(lp88
sg13
S'include.soundtrigger.ISoundTriggerHwService.h'
p89
sg15
(lp90
sg17
(lp91
sg19
(lp92
sg21
I0
sba(iArchitecture
Entity
p93
(dp94
g11
(lp95
sg13
S'soundtrigger.ISoundTrigger.c'
p96
sg15
(lp97
sg17
(lp98
sg19
(lp99
sg21
I0
sba(iArchitecture
Entity
p100
(dp101
g11
(lp102
sg13
S'soundtrigger.ISoundTriggerClient.c'
p103
sg15
(lp104
sg17
(lp105
sg19
(lp106
sg21
I0
sba(iArchitecture
Entity
p107
(dp108
g11
(lp109
sg13
S'soundtrigger.ISoundTriggerHwService.c'
p110
sg15
(lp111
sg17
(lp112
sg19
(lp113
sg21
I0
sbasg57
(lp114
g75
ag82
ag89
ag96
ag103
ag110
asg21
I0
sg59
S'services.soundtrigger.SoundTriggerHwService.ch'
p115
sbasg61
g62
sg57
(lp116
sg64
I00
sg59
S'7.0.0_r1'
p117
sba.