(lp0
(iArchitecture
Architecture
p1
(dp2
S'clusters'
p3
(lp4
(iArchitecture
Cluster
p5
(dp6
S'entities'
p7
(lp8
(iArchitecture
Entity
p9
(dp10
S'issue_ids'
p11
(lp12
sS'name'
p13
S'media.ndk.NdkMediaCodec.c'
p14
sS'descs'
p15
(lp16
sS'labels'
p17
(lp18
sS'titles'
p19
(lp20
sS'change'
p21
I0
sba(iArchitecture
Entity
p22
(dp23
g11
(lp24
sg13
S'media.ndk.NdkMediaCryptoPriv.h'
p25
sg15
(lp26
sg17
(lp27
sg19
(lp28
sg21
I0
sbasS'classes'
p29
(lp30
g14
ag25
asg21
I0
sS'label'
p31
S'media.ndk.NdkMediaCodec.ss'
p32
sba(iArchitecture
Cluster
p33
(dp34
g7
(lp35
(iArchitecture
Entity
p36
(dp37
g11
(lp38
sg13
S'media.ndk.NdkMediaDrm.c'
p39
sg15
(lp40
sg17
(lp41
sg19
(lp42
sg21
I0
sbasg29
(lp43
g39
asg21
I0
sg31
S'media.ndk.NdkMediaDrm.ss'
p44
sba(iArchitecture
Cluster
p45
(dp46
g7
(lp47
(iArchitecture
Entity
p48
(dp49
g11
(lp50
sg13
S'media.ndk.NdkMediaExtractor.c'
p51
sg15
(lp52
sg17
(lp53
sg19
(lp54
sg21
I0
sbasg29
(lp55
g51
asg21
I0
sg31
S'media.ndk.NdkMediaExtractor.ss'
p56
sba(iArchitecture
Cluster
p57
(dp58
g7
(lp59
(iArchitecture
Entity
p60
(dp61
g11
(lp62
sg13
S'media.ndk.NdkMediaCrypto.c'
p63
sg15
(lp64
sg17
(lp65
sg19
(lp66
sg21
I0
sba(iArchitecture
Entity
p67
(dp68
g11
(lp69
sg13
S'media.ndk.NdkMediaFormat.c'
p70
sg15
(lp71
sg17
(lp72
sg19
(lp73
sg21
I0
sba(iArchitecture
Entity
p74
(dp75
g11
(lp76
sg13
S'media.ndk.NdkMediaFormatPriv.h'
p77
sg15
(lp78
sg17
(lp79
sg19
(lp80
sg21
I0
sba(iArchitecture
Entity
p81
(dp82
g11
(lp83
sg13
S'media.ndk.NdkMediaMuxer.c'
p84
sg15
(lp85
sg17
(lp86
sg19
(lp87
sg21
I0
sbasg29
(lp88
g63
ag70
ag77
ag84
asg21
I0
sg31
S'media.ndk.NdkMediaMuxer.ss'
p89
sbasS'target_sub'
p90
S'media.ndk'
p91
sg29
(lp92
sS'is_component_arch'
p93
I00
sg31
S'6.0.0_r1'
p94
sba(iArchitecture
Architecture
p95
(dp96
g3
(lp97
(iArchitecture
Cluster
p98
(dp99
g7
(lp100
(iArchitecture
Entity
p101
(dp102
g11
(lp103
sg13
S'media.ndk.NdkMediaCodec.c'
p104
sg15
(lp105
sg17
(lp106
sg19
(lp107
sg21
I0
sba(iArchitecture
Entity
p108
(dp109
g11
(lp110
sg13
S'media.ndk.NdkMediaCryptoPriv.h'
p111
sg15
(lp112
sg17
(lp113
sg19
(lp114
sg21
I0
sbasg29
(lp115
g104
ag111
asg21
I0
sg31
S'media.ndk.NdkMediaCodec.ss'
p116
sba(iArchitecture
Cluster
p117
(dp118
g7
(lp119
(iArchitecture
Entity
p120
(dp121
g11
(lp122
sg13
S'media.ndk.NdkMediaDrm.c'
p123
sg15
(lp124
sg17
(lp125
sg19
(lp126
sg21
I0
sbasg29
(lp127
g123
asg21
I0
sg31
S'media.ndk.NdkMediaDrm.ss'
p128
sba(iArchitecture
Cluster
p129
(dp130
g7
(lp131
(iArchitecture
Entity
p132
(dp133
g11
(lp134
sg13
S'media.ndk.NdkMediaExtractor.c'
p135
sg15
(lp136
sg17
(lp137
sg19
(lp138
sg21
I0
sbasg29
(lp139
g135
asg21
I0
sg31
S'media.ndk.NdkMediaExtractor.ss'
p140
sba(iArchitecture
Cluster
p141
(dp142
g7
(lp143
(iArchitecture
Entity
p144
(dp145
g11
(lp146
sg13
S'media.ndk.NdkMediaCrypto.c'
p147
sg15
(lp148
sg17
(lp149
sg19
(lp150
sg21
I0
sba(iArchitecture
Entity
p151
(dp152
g11
(lp153
sg13
S'media.ndk.NdkMediaFormat.c'
p154
sg15
(lp155
sg17
(lp156
sg19
(lp157
sg21
I0
sba(iArchitecture
Entity
p158
(dp159
g11
(lp160
sg13
S'media.ndk.NdkMediaFormatPriv.h'
p161
sg15
(lp162
sg17
(lp163
sg19
(lp164
sg21
I0
sba(iArchitecture
Entity
p165
(dp166
g11
(lp167
sg13
S'media.ndk.NdkMediaMuxer.c'
p168
sg15
(lp169
sg17
(lp170
sg19
(lp171
sg21
I0
sbasg29
(lp172
g147
ag154
ag161
ag168
asg21
I0
sg31
S'media.ndk.NdkMediaMuxer.ss'
p173
sba(iArchitecture
Cluster
p174
(dp175
g7
(lp176
(iArchitecture
Entity
p177
(dp178
g11
(lp179
sg13
S'media.ndk.NdkImage.c'
p180
sg15
(lp181
sg17
(lp182
sg19
(lp183
sg21
I0
sba(iArchitecture
Entity
p184
(dp185
g11
(lp186
sg13
S'media.ndk.NdkImagePriv.h'
p187
sg15
(lp188
sg17
(lp189
sg19
(lp190
sg21
I0
sba(iArchitecture
Entity
p191
(dp192
g11
(lp193
sg13
S'media.ndk.NdkImageReader.c'
p194
sg15
(lp195
sg17
(lp196
sg19
(lp197
sg21
I0
sba(iArchitecture
Entity
p198
(dp199
g11
(lp200
sg13
S'media.ndk.NdkImageReaderPriv.h'
p201
sg15
(lp202
sg17
(lp203
sg19
(lp204
sg21
I0
sbasg29
(lp205
g180
ag187
ag194
ag201
asg21
I0
sg31
S'services.radio.RadioService.ch'
p206
sbasg90
g91
sg29
(lp207
sg93
I00
sg31
S'7.0.0_r1'
p208
sba.