(lp0
(iArchitecture
Architecture
p1
(dp2
S'clusters'
p3
(lp4
(iArchitecture
Cluster
p5
(dp6
S'entities'
p7
(lp8
(iArchitecture
Entity
p9
(dp10
S'issue_ids'
p11
(lp12
sS'name'
p13
S'include.common_time.ICommonTimeConfig.h'
p14
sS'descs'
p15
(lp16
sS'labels'
p17
(lp18
sS'titles'
p19
(lp20
sS'change'
p21
I0
sbasS'classes'
p22
(lp23
g14
asg21
I0
sS'label'
p24
S'media.common_time.ICommonTimeConfig.ss'
p25
sba(iArchitecture
Cluster
p26
(dp27
g7
(lp28
(iArchitecture
Entity
p29
(dp30
g11
(lp31
sg13
S'include.common_time.ICommonClock.h'
p32
sg15
(lp33
sg17
(lp34
sg19
(lp35
sg21
I0
sba(iArchitecture
Entity
p36
(dp37
g11
(lp38
sg13
S'include.common_time.cc_helper.h'
p39
sg15
(lp40
sg17
(lp41
sg19
(lp42
sg21
I0
sba(iArchitecture
Entity
p43
(dp44
g11
(lp45
sg13
S'include.common_time.local_clock.h'
p46
sg15
(lp47
sg17
(lp48
sg19
(lp49
sg21
I0
sbasg22
(lp50
g32
ag39
ag46
asg21
I0
sg24
S'services.audioflinger.Threads.ch'
p51
sbasS'target_sub'
p52
S'include.common_time'
p53
sg22
(lp54
sS'is_component_arch'
p55
I00
sg24
S'6.0.0_r1'
p56
sba(iArchitecture
Architecture
p57
(dp58
g3
(lp59
(iArchitecture
Cluster
p60
(dp61
g7
(lp62
(iArchitecture
Entity
p63
(dp64
g11
(lp65
sg13
S'include.common_time.ICommonTimeConfig.h'
p66
sg15
(lp67
sg17
(lp68
sg19
(lp69
sg21
I0
sbasg22
(lp70
g66
asg21
I0
sg24
S'media.common_time.ICommonTimeConfig.ss'
p71
sba(iArchitecture
Cluster
p72
(dp73
g7
(lp74
(iArchitecture
Entity
p75
(dp76
g11
(lp77
sg13
S'include.common_time.ICommonClock.h'
p78
sg15
(lp79
sg17
(lp80
sg19
(lp81
sg21
I0
sba(iArchitecture
Entity
p82
(dp83
g11
(lp84
sg13
S'include.common_time.cc_helper.h'
p85
sg15
(lp86
sg17
(lp87
sg19
(lp88
sg21
I0
sbasg22
(lp89
g78
ag85
asg21
I0
sg24
S'media.common_time.cc_helper.ss'
p90
sba(iArchitecture
Cluster
p91
(dp92
g7
(lp93
(iArchitecture
Entity
p94
(dp95
g11
(lp96
sg13
S'include.common_time.local_clock.h'
p97
sg15
(lp98
sg17
(lp99
sg19
(lp100
sg21
I0
sbasg22
(lp101
g97
asg21
I0
sg24
S'media.common_time.local_clock.ss'
p102
sbasg52
g53
sg22
(lp103
sg55
I00
sg24
S'7.0.0_r1'
p104
sba.