(lp0
(iArchitecture
Architecture
p1
(dp2
S'clusters'
p3
(lp4
(iArchitecture
Cluster
p5
(dp6
S'entities'
p7
(lp8
(iArchitecture
Entity
p9
(dp10
S'issue_ids'
p11
(lp12
sS'name'
p13
S'camera.CameraParameters2.c'
p14
sS'descs'
p15
(lp16
sS'labels'
p17
(lp18
sS'titles'
p19
(lp20
sS'change'
p21
I0
sba(iArchitecture
Entity
p22
(dp23
g11
(lp24
sg13
S'include.camera.CameraParameters2.h'
p25
sg15
(lp26
sg17
(lp27
sg19
(lp28
sg21
I0
sbasS'classes'
p29
(lp30
g14
ag25
asg21
I0
sS'label'
p31
S'camera.CameraParameters2.ss'
p32
sba(iArchitecture
Cluster
p33
(dp34
g7
(lp35
(iArchitecture
Entity
p36
(dp37
g11
(lp38
sg13
S'camera.CameraParameters.c'
p39
sg15
(lp40
sg17
(lp41
sg19
(lp42
sg21
I0
sba(iArchitecture
Entity
p43
(dp44
g11
(lp45
sg13
S'include.camera.CameraParameters.h'
p46
sg15
(lp47
sg17
(lp48
sg19
(lp49
sg21
I0
sbasg29
(lp50
g39
ag46
asg21
I0
sg31
S'services.camera.libcameraservice.device3.Camera3Device.ch'
p51
sbasS'target_sub'
p52
S'camera.CameraParameters'
p53
sg29
(lp54
sS'is_component_arch'
p55
I00
sg31
S'6.0.0_r1'
p56
sba(iArchitecture
Architecture
p57
(dp58
g3
(lp59
(iArchitecture
Cluster
p60
(dp61
g7
(lp62
(iArchitecture
Entity
p63
(dp64
g11
(lp65
sg13
S'camera.CameraParameters2.c'
p66
sg15
(lp67
sg17
(lp68
sg19
(lp69
sg21
I0
sba(iArchitecture
Entity
p70
(dp71
g11
(lp72
sg13
S'include.camera.CameraParameters2.h'
p73
sg15
(lp74
sg17
(lp75
sg19
(lp76
sg21
I0
sbasg29
(lp77
g66
ag73
asg21
I0
sg31
S'camera.CameraParameters2.ss'
p78
sba(iArchitecture
Cluster
p79
(dp80
g7
(lp81
(iArchitecture
Entity
p82
(dp83
g11
(lp84
sg13
S'camera.CameraParameters.c'
p85
sg15
(lp86
sg17
(lp87
sg19
(lp88
sg21
I0
sba(iArchitecture
Entity
p89
(dp90
g11
(lp91
sg13
S'include.camera.CameraParameters.h'
p92
sg15
(lp93
sg17
(lp94
sg19
(lp95
sg21
I0
sbasg29
(lp96
g85
ag92
asg21
I0
sg31
S'services.camera.libcameraservice.device3.Camera3Device.ch'
p97
sbasg52
g53
sg29
(lp98
sg55
I00
sg31
S'7.0.0_r1'
p99
sba.