(lp0
(iArchitecture
Architecture
p1
(dp2
S'clusters'
p3
(lp4
(iArchitecture
Cluster
p5
(dp6
S'entities'
p7
(lp8
(iArchitecture
Entity
p9
(dp10
S'issue_ids'
p11
(lp12
sS'name'
p13
S'include.ndk.NdkMediaDrm.h'
p14
sS'descs'
p15
(lp16
sS'labels'
p17
(lp18
sS'titles'
p19
(lp20
sS'change'
p21
I0
sbasS'classes'
p22
(lp23
g14
asg21
I0
sS'label'
p24
S'media.ndk.NdkMediaDrm.ss'
p25
sba(iArchitecture
Cluster
p26
(dp27
g7
(lp28
(iArchitecture
Entity
p29
(dp30
g11
(lp31
sg13
S'include.ndk.NdkMediaExtractor.h'
p32
sg15
(lp33
sg17
(lp34
sg19
(lp35
sg21
I0
sbasg22
(lp36
g32
asg21
I0
sg24
S'media.ndk.NdkMediaExtractor.ss'
p37
sba(iArchitecture
Cluster
p38
(dp39
g7
(lp40
(iArchitecture
Entity
p41
(dp42
g11
(lp43
sg13
S'include.ndk.NdkMediaCodec.h'
p44
sg15
(lp45
sg17
(lp46
sg19
(lp47
sg21
I0
sba(iArchitecture
Entity
p48
(dp49
g11
(lp50
sg13
S'include.ndk.NdkMediaCrypto.h'
p51
sg15
(lp52
sg17
(lp53
sg19
(lp54
sg21
I0
sba(iArchitecture
Entity
p55
(dp56
g11
(lp57
sg13
S'include.ndk.NdkMediaError.h'
p58
sg15
(lp59
sg17
(lp60
sg19
(lp61
sg21
I0
sba(iArchitecture
Entity
p62
(dp63
g11
(lp64
sg13
S'include.ndk.NdkMediaFormat.h'
p65
sg15
(lp66
sg17
(lp67
sg19
(lp68
sg21
I0
sba(iArchitecture
Entity
p69
(dp70
g11
(lp71
sg13
S'include.ndk.NdkMediaMuxer.h'
p72
sg15
(lp73
sg17
(lp74
sg19
(lp75
sg21
I0
sbasg22
(lp76
g44
ag51
ag58
ag65
ag72
asg21
I0
sg24
S'media.ndk.NdkMediaMuxer.ss'
p77
sbasS'target_sub'
p78
S'include.ndk'
p79
sg22
(lp80
sS'is_component_arch'
p81
I00
sg24
S'6.0.0_r1'
p82
sba(iArchitecture
Architecture
p83
(dp84
g3
(lp85
(iArchitecture
Cluster
p86
(dp87
g7
(lp88
(iArchitecture
Entity
p89
(dp90
g11
(lp91
sg13
S'include.ndk.NdkImage.h'
p92
sg15
(lp93
sg17
(lp94
sg19
(lp95
sg21
I0
sbasg22
(lp96
g92
asg21
I0
sg24
S'camera.ndk.impl.ACameraMetadata.ch'
p97
sba(iArchitecture
Cluster
p98
(dp99
g7
(lp100
(iArchitecture
Entity
p101
(dp102
g11
(lp103
sg13
S'include.ndk.NdkMediaDrm.h'
p104
sg15
(lp105
sg17
(lp106
sg19
(lp107
sg21
I0
sbasg22
(lp108
g104
asg21
I0
sg24
S'media.ndk.NdkMediaDrm.ss'
p109
sba(iArchitecture
Cluster
p110
(dp111
g7
(lp112
(iArchitecture
Entity
p113
(dp114
g11
(lp115
sg13
S'include.ndk.NdkMediaExtractor.h'
p116
sg15
(lp117
sg17
(lp118
sg19
(lp119
sg21
I0
sbasg22
(lp120
g116
asg21
I0
sg24
S'media.ndk.NdkMediaExtractor.ss'
p121
sba(iArchitecture
Cluster
p122
(dp123
g7
(lp124
(iArchitecture
Entity
p125
(dp126
g11
(lp127
sg13
S'include.ndk.NdkMediaCodec.h'
p128
sg15
(lp129
sg17
(lp130
sg19
(lp131
sg21
I0
sba(iArchitecture
Entity
p132
(dp133
g11
(lp134
sg13
S'include.ndk.NdkMediaCrypto.h'
p135
sg15
(lp136
sg17
(lp137
sg19
(lp138
sg21
I0
sba(iArchitecture
Entity
p139
(dp140
g11
(lp141
sg13
S'include.ndk.NdkMediaError.h'
p142
sg15
(lp143
sg17
(lp144
sg19
(lp145
sg21
I0
sba(iArchitecture
Entity
p146
(dp147
g11
(lp148
sg13
S'include.ndk.NdkMediaFormat.h'
p149
sg15
(lp150
sg17
(lp151
sg19
(lp152
sg21
I0
sba(iArchitecture
Entity
p153
(dp154
g11
(lp155
sg13
S'include.ndk.NdkMediaMuxer.h'
p156
sg15
(lp157
sg17
(lp158
sg19
(lp159
sg21
I0
sbasg22
(lp160
g128
ag135
ag142
ag149
ag156
asg21
I0
sg24
S'media.ndk.NdkMediaMuxer.ss'
p161
sba(iArchitecture
Cluster
p162
(dp163
g7
(lp164
(iArchitecture
Entity
p165
(dp166
g11
(lp167
sg13
S'include.ndk.NdkImageReader.h'
p168
sg15
(lp169
sg17
(lp170
sg19
(lp171
sg21
I0
sbasg22
(lp172
g168
asg21
I0
sg24
S'services.radio.RadioService.ch'
p173
sbasg78
g79
sg22
(lp174
sg81
I00
sg24
S'7.0.0_r1'
p175
sba.