(lp0
(iArchitecture
Architecture
p1
(dp2
S'clusters'
p3
(lp4
(iArchitecture
Cluster
p5
(dp6
S'entities'
p7
(lp8
(iArchitecture
Entity
p9
(dp10
S'issue_ids'
p11
(lp12
sS'name'
p13
S'media.img_utils.include.img_utils.ByteArrayOutput.h'
p14
sS'descs'
p15
(lp16
sS'labels'
p17
(lp18
sS'titles'
p19
(lp20
sS'change'
p21
I0
sba(iArchitecture
Entity
p22
(dp23
g11
(lp24
sg13
S'media.img_utils.include.img_utils.DngUtils.h'
p25
sg15
(lp26
sg17
(lp27
sg19
(lp28
sg21
I0
sba(iArchitecture
Entity
p29
(dp30
g11
(lp31
sg13
S'media.img_utils.include.img_utils.EndianUtils.h'
p32
sg15
(lp33
sg17
(lp34
sg19
(lp35
sg21
I0
sba(iArchitecture
Entity
p36
(dp37
g11
(lp38
sg13
S'media.img_utils.src.DngUtils.c'
p39
sg15
(lp40
sg17
(lp41
sg19
(lp42
sg21
I0
sbasS'classes'
p43
(lp44
g14
ag25
ag32
ag39
asg21
I0
sS'label'
p45
S'media.img_utils.src.DngUtils.ss'
p46
sba(iArchitecture
Cluster
p47
(dp48
g7
(lp49
(iArchitecture
Entity
p50
(dp51
g11
(lp52
sg13
S'media.img_utils.include.img_utils.FileInput.h'
p53
sg15
(lp54
sg17
(lp55
sg19
(lp56
sg21
I0
sba(iArchitecture
Entity
p57
(dp58
g11
(lp59
sg13
S'media.img_utils.include.img_utils.Input.h'
p60
sg15
(lp61
sg17
(lp62
sg19
(lp63
sg21
I0
sba(iArchitecture
Entity
p64
(dp65
g11
(lp66
sg13
S'media.img_utils.src.FileInput.c'
p67
sg15
(lp68
sg17
(lp69
sg19
(lp70
sg21
I0
sba(iArchitecture
Entity
p71
(dp72
g11
(lp73
sg13
S'media.img_utils.src.Input.c'
p74
sg15
(lp75
sg17
(lp76
sg19
(lp77
sg21
I0
sbasg43
(lp78
g53
ag60
ag67
ag74
asg21
I0
sg45
S'media.img_utils.src.FileInput.ss'
p79
sba(iArchitecture
Cluster
p80
(dp81
g7
(lp82
(iArchitecture
Entity
p83
(dp84
g11
(lp85
sg13
S'media.img_utils.include.img_utils.FileOutput.h'
p86
sg15
(lp87
sg17
(lp88
sg19
(lp89
sg21
I0
sba(iArchitecture
Entity
p90
(dp91
g11
(lp92
sg13
S'media.img_utils.include.img_utils.Orderable.h'
p93
sg15
(lp94
sg17
(lp95
sg19
(lp96
sg21
I0
sba(iArchitecture
Entity
p97
(dp98
g11
(lp99
sg13
S'media.img_utils.include.img_utils.Output.h'
p100
sg15
(lp101
sg17
(lp102
sg19
(lp103
sg21
I0
sba(iArchitecture
Entity
p104
(dp105
g11
(lp106
sg13
S'media.img_utils.include.img_utils.SortedEntryVector.h'
p107
sg15
(lp108
sg17
(lp109
sg19
(lp110
sg21
I0
sba(iArchitecture
Entity
p111
(dp112
g11
(lp113
sg13
S'media.img_utils.include.img_utils.StripSource.h'
p114
sg15
(lp115
sg17
(lp116
sg19
(lp117
sg21
I0
sba(iArchitecture
Entity
p118
(dp119
g11
(lp120
sg13
S'media.img_utils.include.img_utils.TagDefinitions.h'
p121
sg15
(lp122
sg17
(lp123
sg19
(lp124
sg21
I0
sba(iArchitecture
Entity
p125
(dp126
g11
(lp127
sg13
S'media.img_utils.include.img_utils.TiffEntry.h'
p128
sg15
(lp129
sg17
(lp130
sg19
(lp131
sg21
I0
sba(iArchitecture
Entity
p132
(dp133
g11
(lp134
sg13
S'media.img_utils.include.img_utils.TiffEntryImpl.h'
p135
sg15
(lp136
sg17
(lp137
sg19
(lp138
sg21
I0
sba(iArchitecture
Entity
p139
(dp140
g11
(lp141
sg13
S'media.img_utils.include.img_utils.TiffHelpers.h'
p142
sg15
(lp143
sg17
(lp144
sg19
(lp145
sg21
I0
sba(iArchitecture
Entity
p146
(dp147
g11
(lp148
sg13
S'media.img_utils.include.img_utils.TiffIfd.h'
p149
sg15
(lp150
sg17
(lp151
sg19
(lp152
sg21
I0
sba(iArchitecture
Entity
p153
(dp154
g11
(lp155
sg13
S'media.img_utils.include.img_utils.TiffWritable.h'
p156
sg15
(lp157
sg17
(lp158
sg19
(lp159
sg21
I0
sba(iArchitecture
Entity
p160
(dp161
g11
(lp162
sg13
S'media.img_utils.include.img_utils.TiffWriter.h'
p163
sg15
(lp164
sg17
(lp165
sg19
(lp166
sg21
I0
sba(iArchitecture
Entity
p167
(dp168
g11
(lp169
sg13
S'media.img_utils.src.ByteArrayOutput.c'
p170
sg15
(lp171
sg17
(lp172
sg19
(lp173
sg21
I0
sba(iArchitecture
Entity
p174
(dp175
g11
(lp176
sg13
S'media.img_utils.src.EndianUtils.c'
p177
sg15
(lp178
sg17
(lp179
sg19
(lp180
sg21
I0
sba(iArchitecture
Entity
p181
(dp182
g11
(lp183
sg13
S'media.img_utils.src.FileOutput.c'
p184
sg15
(lp185
sg17
(lp186
sg19
(lp187
sg21
I0
sba(iArchitecture
Entity
p188
(dp189
g11
(lp190
sg13
S'media.img_utils.src.Orderable.c'
p191
sg15
(lp192
sg17
(lp193
sg19
(lp194
sg21
I0
sba(iArchitecture
Entity
p195
(dp196
g11
(lp197
sg13
S'media.img_utils.src.Output.c'
p198
sg15
(lp199
sg17
(lp200
sg19
(lp201
sg21
I0
sba(iArchitecture
Entity
p202
(dp203
g11
(lp204
sg13
S'media.img_utils.src.SortedEntryVector.c'
p205
sg15
(lp206
sg17
(lp207
sg19
(lp208
sg21
I0
sba(iArchitecture
Entity
p209
(dp210
g11
(lp211
sg13
S'media.img_utils.src.StripSource.c'
p212
sg15
(lp213
sg17
(lp214
sg19
(lp215
sg21
I0
sba(iArchitecture
Entity
p216
(dp217
g11
(lp218
sg13
S'media.img_utils.src.TiffEntry.c'
p219
sg15
(lp220
sg17
(lp221
sg19
(lp222
sg21
I0
sba(iArchitecture
Entity
p223
(dp224
g11
(lp225
sg13
S'media.img_utils.src.TiffEntryImpl.c'
p226
sg15
(lp227
sg17
(lp228
sg19
(lp229
sg21
I0
sba(iArchitecture
Entity
p230
(dp231
g11
(lp232
sg13
S'media.img_utils.src.TiffIfd.c'
p233
sg15
(lp234
sg17
(lp235
sg19
(lp236
sg21
I0
sba(iArchitecture
Entity
p237
(dp238
g11
(lp239
sg13
S'media.img_utils.src.TiffWritable.c'
p240
sg15
(lp241
sg17
(lp242
sg19
(lp243
sg21
I0
sba(iArchitecture
Entity
p244
(dp245
g11
(lp246
sg13
S'media.img_utils.src.TiffWriter.c'
p247
sg15
(lp248
sg17
(lp249
sg19
(lp250
sg21
I0
sbasg43
(lp251
g86
ag93
ag100
ag107
ag114
ag121
ag128
ag135
ag142
ag149
ag156
ag163
ag170
ag177
ag184
ag191
ag198
ag205
ag212
ag219
ag226
ag233
ag240
ag247
asg21
I0
sg45
S'media.img_utils.src.FileOutput.ss'
p252
sbasS'target_sub'
p253
S'media.img_utils'
p254
sg43
(lp255
sS'is_component_arch'
p256
I00
sg45
S'6.0.0_r1'
p257
sba(iArchitecture
Architecture
p258
(dp259
g3
(lp260
(iArchitecture
Cluster
p261
(dp262
g7
(lp263
(iArchitecture
Entity
p264
(dp265
g11
(lp266
sg13
S'media.img_utils.include.img_utils.ByteArrayOutput.h'
p267
sg15
(lp268
sg17
(lp269
sg19
(lp270
sg21
I0
sba(iArchitecture
Entity
p271
(dp272
g11
(lp273
sg13
S'media.img_utils.include.img_utils.DngUtils.h'
p274
sg15
(lp275
sg17
(lp276
sg19
(lp277
sg21
I0
sba(iArchitecture
Entity
p278
(dp279
g11
(lp280
sg13
S'media.img_utils.include.img_utils.EndianUtils.h'
p281
sg15
(lp282
sg17
(lp283
sg19
(lp284
sg21
I0
sba(iArchitecture
Entity
p285
(dp286
g11
(lp287
sg13
S'media.img_utils.src.DngUtils.c'
p288
sg15
(lp289
sg17
(lp290
sg19
(lp291
sg21
I0
sbasg43
(lp292
g267
ag274
ag281
ag288
asg21
I0
sg45
S'media.img_utils.src.DngUtils.ss'
p293
sba(iArchitecture
Cluster
p294
(dp295
g7
(lp296
(iArchitecture
Entity
p297
(dp298
g11
(lp299
sg13
S'media.img_utils.include.img_utils.FileInput.h'
p300
sg15
(lp301
sg17
(lp302
sg19
(lp303
sg21
I0
sba(iArchitecture
Entity
p304
(dp305
g11
(lp306
sg13
S'media.img_utils.include.img_utils.Input.h'
p307
sg15
(lp308
sg17
(lp309
sg19
(lp310
sg21
I0
sba(iArchitecture
Entity
p311
(dp312
g11
(lp313
sg13
S'media.img_utils.src.FileInput.c'
p314
sg15
(lp315
sg17
(lp316
sg19
(lp317
sg21
I0
sba(iArchitecture
Entity
p318
(dp319
g11
(lp320
sg13
S'media.img_utils.src.Input.c'
p321
sg15
(lp322
sg17
(lp323
sg19
(lp324
sg21
I0
sbasg43
(lp325
g300
ag307
ag314
ag321
asg21
I0
sg45
S'media.img_utils.src.FileInput.ss'
p326
sba(iArchitecture
Cluster
p327
(dp328
g7
(lp329
(iArchitecture
Entity
p330
(dp331
g11
(lp332
sg13
S'media.img_utils.include.img_utils.FileOutput.h'
p333
sg15
(lp334
sg17
(lp335
sg19
(lp336
sg21
I0
sba(iArchitecture
Entity
p337
(dp338
g11
(lp339
sg13
S'media.img_utils.include.img_utils.Orderable.h'
p340
sg15
(lp341
sg17
(lp342
sg19
(lp343
sg21
I0
sba(iArchitecture
Entity
p344
(dp345
g11
(lp346
sg13
S'media.img_utils.include.img_utils.Output.h'
p347
sg15
(lp348
sg17
(lp349
sg19
(lp350
sg21
I0
sba(iArchitecture
Entity
p351
(dp352
g11
(lp353
sg13
S'media.img_utils.include.img_utils.SortedEntryVector.h'
p354
sg15
(lp355
sg17
(lp356
sg19
(lp357
sg21
I0
sba(iArchitecture
Entity
p358
(dp359
g11
(lp360
sg13
S'media.img_utils.include.img_utils.StripSource.h'
p361
sg15
(lp362
sg17
(lp363
sg19
(lp364
sg21
I0
sba(iArchitecture
Entity
p365
(dp366
g11
(lp367
sg13
S'media.img_utils.include.img_utils.TagDefinitions.h'
p368
sg15
(lp369
sg17
(lp370
sg19
(lp371
sg21
I0
sba(iArchitecture
Entity
p372
(dp373
g11
(lp374
sg13
S'media.img_utils.include.img_utils.TiffEntry.h'
p375
sg15
(lp376
sg17
(lp377
sg19
(lp378
sg21
I0
sba(iArchitecture
Entity
p379
(dp380
g11
(lp381
sg13
S'media.img_utils.include.img_utils.TiffEntryImpl.h'
p382
sg15
(lp383
sg17
(lp384
sg19
(lp385
sg21
I0
sba(iArchitecture
Entity
p386
(dp387
g11
(lp388
sg13
S'media.img_utils.include.img_utils.TiffHelpers.h'
p389
sg15
(lp390
sg17
(lp391
sg19
(lp392
sg21
I0
sba(iArchitecture
Entity
p393
(dp394
g11
(lp395
sg13
S'media.img_utils.include.img_utils.TiffIfd.h'
p396
sg15
(lp397
sg17
(lp398
sg19
(lp399
sg21
I0
sba(iArchitecture
Entity
p400
(dp401
g11
(lp402
sg13
S'media.img_utils.include.img_utils.TiffWritable.h'
p403
sg15
(lp404
sg17
(lp405
sg19
(lp406
sg21
I0
sba(iArchitecture
Entity
p407
(dp408
g11
(lp409
sg13
S'media.img_utils.include.img_utils.TiffWriter.h'
p410
sg15
(lp411
sg17
(lp412
sg19
(lp413
sg21
I0
sba(iArchitecture
Entity
p414
(dp415
g11
(lp416
sg13
S'media.img_utils.src.ByteArrayOutput.c'
p417
sg15
(lp418
sg17
(lp419
sg19
(lp420
sg21
I0
sba(iArchitecture
Entity
p421
(dp422
g11
(lp423
sg13
S'media.img_utils.src.EndianUtils.c'
p424
sg15
(lp425
sg17
(lp426
sg19
(lp427
sg21
I0
sba(iArchitecture
Entity
p428
(dp429
g11
(lp430
sg13
S'media.img_utils.src.FileOutput.c'
p431
sg15
(lp432
sg17
(lp433
sg19
(lp434
sg21
I0
sba(iArchitecture
Entity
p435
(dp436
g11
(lp437
sg13
S'media.img_utils.src.Orderable.c'
p438
sg15
(lp439
sg17
(lp440
sg19
(lp441
sg21
I0
sba(iArchitecture
Entity
p442
(dp443
g11
(lp444
sg13
S'media.img_utils.src.Output.c'
p445
sg15
(lp446
sg17
(lp447
sg19
(lp448
sg21
I0
sba(iArchitecture
Entity
p449
(dp450
g11
(lp451
sg13
S'media.img_utils.src.SortedEntryVector.c'
p452
sg15
(lp453
sg17
(lp454
sg19
(lp455
sg21
I0
sba(iArchitecture
Entity
p456
(dp457
g11
(lp458
sg13
S'media.img_utils.src.StripSource.c'
p459
sg15
(lp460
sg17
(lp461
sg19
(lp462
sg21
I0
sba(iArchitecture
Entity
p463
(dp464
g11
(lp465
sg13
S'media.img_utils.src.TiffEntry.c'
p466
sg15
(lp467
sg17
(lp468
sg19
(lp469
sg21
I0
sba(iArchitecture
Entity
p470
(dp471
g11
(lp472
sg13
S'media.img_utils.src.TiffEntryImpl.c'
p473
sg15
(lp474
sg17
(lp475
sg19
(lp476
sg21
I0
sba(iArchitecture
Entity
p477
(dp478
g11
(lp479
sg13
S'media.img_utils.src.TiffIfd.c'
p480
sg15
(lp481
sg17
(lp482
sg19
(lp483
sg21
I0
sba(iArchitecture
Entity
p484
(dp485
g11
(lp486
sg13
S'media.img_utils.src.TiffWritable.c'
p487
sg15
(lp488
sg17
(lp489
sg19
(lp490
sg21
I0
sba(iArchitecture
Entity
p491
(dp492
g11
(lp493
sg13
S'media.img_utils.src.TiffWriter.c'
p494
sg15
(lp495
sg17
(lp496
sg19
(lp497
sg21
I0
sbasg43
(lp498
g333
ag340
ag347
ag354
ag361
ag368
ag375
ag382
ag389
ag396
ag403
ag410
ag417
ag424
ag431
ag438
ag445
ag452
ag459
ag466
ag473
ag480
ag487
ag494
asg21
I0
sg45
S'media.img_utils.src.FileOutput.ss'
p499
sbasg253
g254
sg43
(lp500
sg256
I00
sg45
S'7.0.0_r1'
p501
sba.