(lp0
(iArchitecture
Architecture
p1
(dp2
S'clusters'
p3
(lp4
(iArchitecture
Cluster
p5
(dp6
S'entities'
p7
(lp8
(iArchitecture
Entity
p9
(dp10
S'issue_ids'
p11
(lp12
sS'name'
p13
S'include.radio.IRadio.h'
p14
sS'descs'
p15
(lp16
sS'labels'
p17
(lp18
sS'titles'
p19
(lp20
sS'change'
p21
I0
sba(iArchitecture
Entity
p22
(dp23
g11
(lp24
sg13
S'include.radio.IRadioClient.h'
p25
sg15
(lp26
sg17
(lp27
sg19
(lp28
sg21
I0
sba(iArchitecture
Entity
p29
(dp30
g11
(lp31
sg13
S'include.radio.IRadioService.h'
p32
sg15
(lp33
sg17
(lp34
sg19
(lp35
sg21
I0
sba(iArchitecture
Entity
p36
(dp37
g11
(lp38
sg13
S'include.radio.Radio.h'
p39
sg15
(lp40
sg17
(lp41
sg19
(lp42
sg21
I0
sba(iArchitecture
Entity
p43
(dp44
g11
(lp45
sg13
S'include.radio.RadioCallback.h'
p46
sg15
(lp47
sg17
(lp48
sg19
(lp49
sg21
I0
sbasS'classes'
p50
(lp51
g14
ag25
ag32
ag39
ag46
asg21
I0
sS'label'
p52
S'services.radio.RadioService.ch'
p53
sbasS'target_sub'
p54
S'include.radio'
p55
sg50
(lp56
sS'is_component_arch'
p57
I00
sg52
S'6.0.0_r1'
p58
sba(iArchitecture
Architecture
p59
(dp60
g3
(lp61
(iArchitecture
Cluster
p62
(dp63
g7
(lp64
(iArchitecture
Entity
p65
(dp66
g11
(lp67
sg13
S'include.radio.IRadio.h'
p68
sg15
(lp69
sg17
(lp70
sg19
(lp71
sg21
I0
sba(iArchitecture
Entity
p72
(dp73
g11
(lp74
sg13
S'include.radio.IRadioClient.h'
p75
sg15
(lp76
sg17
(lp77
sg19
(lp78
sg21
I0
sba(iArchitecture
Entity
p79
(dp80
g11
(lp81
sg13
S'include.radio.IRadioService.h'
p82
sg15
(lp83
sg17
(lp84
sg19
(lp85
sg21
I0
sba(iArchitecture
Entity
p86
(dp87
g11
(lp88
sg13
S'include.radio.Radio.h'
p89
sg15
(lp90
sg17
(lp91
sg19
(lp92
sg21
I0
sba(iArchitecture
Entity
p93
(dp94
g11
(lp95
sg13
S'include.radio.RadioCallback.h'
p96
sg15
(lp97
sg17
(lp98
sg19
(lp99
sg21
I0
sbasg50
(lp100
g68
ag75
ag82
ag89
ag96
asg21
I0
sg52
S'services.radio.RadioService.ch'
p101
sbasg54
g55
sg50
(lp102
sg57
I00
sg52
S'7.0.0_r1'
p103
sba.