(lp0
(iArchitecture
Architecture
p1
(dp2
S'clusters'
p3
(lp4
(iArchitecture
Cluster
p5
(dp6
S'entities'
p7
(lp8
(iArchitecture
Entity
p9
(dp10
S'issue_ids'
p11
(lp12
sS'name'
p13
S'drm.libdrmframework.plugins.common.util.include.MimeTypeUtil.h'
p14
sS'descs'
p15
(lp16
sS'labels'
p17
(lp18
sS'titles'
p19
(lp20
sS'change'
p21
I0
sba(iArchitecture
Entity
p22
(dp23
g11
(lp24
sg13
S'drm.libdrmframework.plugins.common.util.include.SessionMap.h'
p25
sg15
(lp26
sg17
(lp27
sg19
(lp28
sg21
I0
sba(iArchitecture
Entity
p29
(dp30
g11
(lp31
sg13
S'drm.libdrmframework.plugins.common.util.src.MimeTypeUtil.c'
p32
sg15
(lp33
sg17
(lp34
sg19
(lp35
sg21
I0
sba(iArchitecture
Entity
p36
(dp37
g11
(lp38
sg13
S'drm.libdrmframework.plugins.forward-lock.FwdLockEngine.include.FwdLockEngine.h'
p39
sg15
(lp40
sg17
(lp41
sg19
(lp42
sg21
I0
sba(iArchitecture
Entity
p43
(dp44
g11
(lp45
sg13
S'drm.libdrmframework.plugins.forward-lock.FwdLockEngine.src.FwdLockEngine.c'
p46
sg15
(lp47
sg17
(lp48
sg19
(lp49
sg21
I0
sbasS'classes'
p50
(lp51
g14
ag25
ag32
ag39
ag46
asg21
I0
sS'label'
p52
S'drm.libdrmframework.plugins.forward-lock.FwdLockEngine.src.FwdLockEngine.ss'
p53
sba(iArchitecture
Cluster
p54
(dp55
g7
(lp56
(iArchitecture
Entity
p57
(dp58
g11
(lp59
sg13
S'drm.libdrmframework.plugins.forward-lock.internal-format.common.FwdLockGlue.c'
p60
sg15
(lp61
sg17
(lp62
sg19
(lp63
sg21
I0
sba(iArchitecture
Entity
p64
(dp65
g11
(lp66
sg13
S'drm.libdrmframework.plugins.forward-lock.internal-format.common.FwdLockGlue.h'
p67
sg15
(lp68
sg17
(lp69
sg19
(lp70
sg21
I0
sbasg50
(lp71
g60
ag67
asg21
I0
sg52
S'drm.libdrmframework.plugins.forward-lock.internal-format.common.FwdLockGlue.ch'
p72
sba(iArchitecture
Cluster
p73
(dp74
g7
(lp75
(iArchitecture
Entity
p76
(dp77
g11
(lp78
sg13
S'drm.libdrmframework.plugins.forward-lock.internal-format.converter.FwdLockConv.c'
p79
sg15
(lp80
sg17
(lp81
sg19
(lp82
sg21
I0
sba(iArchitecture
Entity
p83
(dp84
g11
(lp85
sg13
S'drm.libdrmframework.plugins.forward-lock.internal-format.converter.FwdLockConv.h'
p86
sg15
(lp87
sg17
(lp88
sg19
(lp89
sg21
I0
sbasg50
(lp90
g79
ag86
asg21
I0
sg52
S'drm.libdrmframework.plugins.forward-lock.internal-format.converter.FwdLockConv.ch'
p91
sba(iArchitecture
Cluster
p92
(dp93
g7
(lp94
(iArchitecture
Entity
p95
(dp96
g11
(lp97
sg13
S'drm.libdrmframework.plugins.forward-lock.internal-format.decoder.FwdLockFile.c'
p98
sg15
(lp99
sg17
(lp100
sg19
(lp101
sg21
I0
sba(iArchitecture
Entity
p102
(dp103
g11
(lp104
sg13
S'drm.libdrmframework.plugins.forward-lock.internal-format.decoder.FwdLockFile.h'
p105
sg15
(lp106
sg17
(lp107
sg19
(lp108
sg21
I0
sbasg50
(lp109
g98
ag105
asg21
I0
sg52
S'drm.libdrmframework.plugins.forward-lock.internal-format.decoder.FwdLockFile.ch'
p110
sba(iArchitecture
Cluster
p111
(dp112
g7
(lp113
(iArchitecture
Entity
p114
(dp115
g11
(lp116
sg13
S'drm.libdrmframework.include.ReadWriteUtils.h'
p117
sg15
(lp118
sg17
(lp119
sg19
(lp120
sg21
I0
sba(iArchitecture
Entity
p121
(dp122
g11
(lp123
sg13
S'drm.libdrmframework.plugins.common.include.DrmEngineBase.h'
p124
sg15
(lp125
sg17
(lp126
sg19
(lp127
sg21
I0
sba(iArchitecture
Entity
p128
(dp129
g11
(lp130
sg13
S'drm.libdrmframework.plugins.common.include.IDrmEngine.h'
p131
sg15
(lp132
sg17
(lp133
sg19
(lp134
sg21
I0
sba(iArchitecture
Entity
p135
(dp136
g11
(lp137
sg13
S'drm.libdrmframework.plugins.passthru.include.DrmPassthruPlugIn.h'
p138
sg15
(lp139
sg17
(lp140
sg19
(lp141
sg21
I0
sba(iArchitecture
Entity
p142
(dp143
g11
(lp144
sg13
S'drm.libdrmframework.plugins.passthru.src.DrmPassthruPlugIn.c'
p145
sg15
(lp146
sg17
(lp147
sg19
(lp148
sg21
I0
sbasg50
(lp149
g117
ag124
ag131
ag138
ag145
asg21
I0
sg52
S'drm.libdrmframework.plugins.passthru.src.DrmPassthruPlugIn.ss'
p150
sba(iArchitecture
Cluster
p151
(dp152
g7
(lp153
(iArchitecture
Entity
p154
(dp155
g11
(lp156
sg13
S'drm.libdrmframework.include.DrmManagerService.h'
p157
sg15
(lp158
sg17
(lp159
sg19
(lp160
sg21
I0
sbasg50
(lp161
g157
asg21
I0
sg52
S'media.libstagefright.wifi-display.source.PlaybackSession.ch'
p162
sba(iArchitecture
Cluster
p163
(dp164
g7
(lp165
(iArchitecture
Entity
p166
(dp167
g11
(lp168
sg13
S'drm.libdrmframework.DrmManagerClient.c'
p169
sg15
(lp170
sg17
(lp171
sg19
(lp172
sg21
I0
sba(iArchitecture
Entity
p173
(dp174
g11
(lp175
sg13
S'drm.libdrmframework.DrmManagerClientImpl.c'
p176
sg15
(lp177
sg17
(lp178
sg19
(lp179
sg21
I0
sba(iArchitecture
Entity
p180
(dp181
g11
(lp182
sg13
S'drm.libdrmframework.NoOpDrmManagerClientImpl.c'
p183
sg15
(lp184
sg17
(lp185
sg19
(lp186
sg21
I0
sba(iArchitecture
Entity
p187
(dp188
g11
(lp189
sg13
S'drm.libdrmframework.include.DrmManager.h'
p190
sg15
(lp191
sg17
(lp192
sg19
(lp193
sg21
I0
sba(iArchitecture
Entity
p194
(dp195
g11
(lp196
sg13
S'drm.libdrmframework.include.DrmManagerClientImpl.h'
p197
sg15
(lp198
sg17
(lp199
sg19
(lp200
sg21
I0
sba(iArchitecture
Entity
p201
(dp202
g11
(lp203
sg13
S'drm.libdrmframework.include.IDrmManagerService.h'
p204
sg15
(lp205
sg17
(lp206
sg19
(lp207
sg21
I0
sba(iArchitecture
Entity
p208
(dp209
g11
(lp210
sg13
S'drm.libdrmframework.include.IDrmServiceListener.h'
p211
sg15
(lp212
sg17
(lp213
sg19
(lp214
sg21
I0
sba(iArchitecture
Entity
p215
(dp216
g11
(lp217
sg13
S'drm.libdrmframework.include.NoOpDrmManagerClientImpl.h'
p218
sg15
(lp219
sg17
(lp220
sg19
(lp221
sg21
I0
sba(iArchitecture
Entity
p222
(dp223
g11
(lp224
sg13
S'drm.libdrmframework.include.PlugInManager.h'
p225
sg15
(lp226
sg17
(lp227
sg19
(lp228
sg21
I0
sbasg50
(lp229
g169
ag176
ag183
ag190
ag197
ag204
ag211
ag218
ag225
asg21
I0
sg52
S'services.radio.RadioService.ch'
p230
sbasS'target_sub'
p231
S'drm.libdrmframework'
p232
sg50
(lp233
sS'is_component_arch'
p234
I00
sg52
S'6.0.0_r1'
p235
sba(iArchitecture
Architecture
p236
(dp237
g3
(lp238
(iArchitecture
Cluster
p239
(dp240
g7
(lp241
(iArchitecture
Entity
p242
(dp243
g11
(lp244
sg13
S'drm.libdrmframework.plugins.common.util.include.MimeTypeUtil.h'
p245
sg15
(lp246
sg17
(lp247
sg19
(lp248
sg21
I0
sba(iArchitecture
Entity
p249
(dp250
g11
(lp251
sg13
S'drm.libdrmframework.plugins.common.util.include.SessionMap.h'
p252
sg15
(lp253
sg17
(lp254
sg19
(lp255
sg21
I0
sba(iArchitecture
Entity
p256
(dp257
g11
(lp258
sg13
S'drm.libdrmframework.plugins.common.util.src.MimeTypeUtil.c'
p259
sg15
(lp260
sg17
(lp261
sg19
(lp262
sg21
I0
sba(iArchitecture
Entity
p263
(dp264
g11
(lp265
sg13
S'drm.libdrmframework.plugins.forward-lock.FwdLockEngine.include.FwdLockEngine.h'
p266
sg15
(lp267
sg17
(lp268
sg19
(lp269
sg21
I0
sba(iArchitecture
Entity
p270
(dp271
g11
(lp272
sg13
S'drm.libdrmframework.plugins.forward-lock.FwdLockEngine.src.FwdLockEngine.c'
p273
sg15
(lp274
sg17
(lp275
sg19
(lp276
sg21
I0
sbasg50
(lp277
g245
ag252
ag259
ag266
ag273
asg21
I0
sg52
S'drm.libdrmframework.plugins.forward-lock.FwdLockEngine.src.FwdLockEngine.ss'
p278
sba(iArchitecture
Cluster
p279
(dp280
g7
(lp281
(iArchitecture
Entity
p282
(dp283
g11
(lp284
sg13
S'drm.libdrmframework.plugins.forward-lock.internal-format.common.FwdLockGlue.c'
p285
sg15
(lp286
sg17
(lp287
sg19
(lp288
sg21
I0
sba(iArchitecture
Entity
p289
(dp290
g11
(lp291
sg13
S'drm.libdrmframework.plugins.forward-lock.internal-format.common.FwdLockGlue.h'
p292
sg15
(lp293
sg17
(lp294
sg19
(lp295
sg21
I0
sbasg50
(lp296
g285
ag292
asg21
I0
sg52
S'drm.libdrmframework.plugins.forward-lock.internal-format.common.FwdLockGlue.ch'
p297
sba(iArchitecture
Cluster
p298
(dp299
g7
(lp300
(iArchitecture
Entity
p301
(dp302
g11
(lp303
sg13
S'drm.libdrmframework.plugins.forward-lock.internal-format.converter.FwdLockConv.c'
p304
sg15
(lp305
sg17
(lp306
sg19
(lp307
sg21
I0
sba(iArchitecture
Entity
p308
(dp309
g11
(lp310
sg13
S'drm.libdrmframework.plugins.forward-lock.internal-format.converter.FwdLockConv.h'
p311
sg15
(lp312
sg17
(lp313
sg19
(lp314
sg21
I0
sbasg50
(lp315
g304
ag311
asg21
I0
sg52
S'drm.libdrmframework.plugins.forward-lock.internal-format.converter.FwdLockConv.ch'
p316
sba(iArchitecture
Cluster
p317
(dp318
g7
(lp319
(iArchitecture
Entity
p320
(dp321
g11
(lp322
sg13
S'drm.libdrmframework.plugins.forward-lock.internal-format.decoder.FwdLockFile.c'
p323
sg15
(lp324
sg17
(lp325
sg19
(lp326
sg21
I0
sba(iArchitecture
Entity
p327
(dp328
g11
(lp329
sg13
S'drm.libdrmframework.plugins.forward-lock.internal-format.decoder.FwdLockFile.h'
p330
sg15
(lp331
sg17
(lp332
sg19
(lp333
sg21
I0
sbasg50
(lp334
g323
ag330
asg21
I0
sg52
S'drm.libdrmframework.plugins.forward-lock.internal-format.decoder.FwdLockFile.ch'
p335
sba(iArchitecture
Cluster
p336
(dp337
g7
(lp338
(iArchitecture
Entity
p339
(dp340
g11
(lp341
sg13
S'drm.libdrmframework.include.ReadWriteUtils.h'
p342
sg15
(lp343
sg17
(lp344
sg19
(lp345
sg21
I0
sba(iArchitecture
Entity
p346
(dp347
g11
(lp348
sg13
S'drm.libdrmframework.plugins.common.include.DrmEngineBase.h'
p349
sg15
(lp350
sg17
(lp351
sg19
(lp352
sg21
I0
sba(iArchitecture
Entity
p353
(dp354
g11
(lp355
sg13
S'drm.libdrmframework.plugins.common.include.IDrmEngine.h'
p356
sg15
(lp357
sg17
(lp358
sg19
(lp359
sg21
I0
sba(iArchitecture
Entity
p360
(dp361
g11
(lp362
sg13
S'drm.libdrmframework.plugins.passthru.include.DrmPassthruPlugIn.h'
p363
sg15
(lp364
sg17
(lp365
sg19
(lp366
sg21
I0
sba(iArchitecture
Entity
p367
(dp368
g11
(lp369
sg13
S'drm.libdrmframework.plugins.passthru.src.DrmPassthruPlugIn.c'
p370
sg15
(lp371
sg17
(lp372
sg19
(lp373
sg21
I0
sbasg50
(lp374
g342
ag349
ag356
ag363
ag370
asg21
I0
sg52
S'drm.libdrmframework.plugins.passthru.src.DrmPassthruPlugIn.ss'
p375
sba(iArchitecture
Cluster
p376
(dp377
g7
(lp378
(iArchitecture
Entity
p379
(dp380
g11
(lp381
sg13
S'drm.libdrmframework.include.DrmManagerService.h'
p382
sg15
(lp383
sg17
(lp384
sg19
(lp385
sg21
I0
sbasg50
(lp386
g382
asg21
I0
sg52
S'services.mediaextractor.MediaExtractorService.ch'
p387
sba(iArchitecture
Cluster
p388
(dp389
g7
(lp390
(iArchitecture
Entity
p391
(dp392
g11
(lp393
sg13
S'drm.libdrmframework.DrmManagerClient.c'
p394
sg15
(lp395
sg17
(lp396
sg19
(lp397
sg21
I0
sba(iArchitecture
Entity
p398
(dp399
g11
(lp400
sg13
S'drm.libdrmframework.DrmManagerClientImpl.c'
p401
sg15
(lp402
sg17
(lp403
sg19
(lp404
sg21
I0
sba(iArchitecture
Entity
p405
(dp406
g11
(lp407
sg13
S'drm.libdrmframework.NoOpDrmManagerClientImpl.c'
p408
sg15
(lp409
sg17
(lp410
sg19
(lp411
sg21
I0
sba(iArchitecture
Entity
p412
(dp413
g11
(lp414
sg13
S'drm.libdrmframework.include.DrmManager.h'
p415
sg15
(lp416
sg17
(lp417
sg19
(lp418
sg21
I0
sba(iArchitecture
Entity
p419
(dp420
g11
(lp421
sg13
S'drm.libdrmframework.include.DrmManagerClientImpl.h'
p422
sg15
(lp423
sg17
(lp424
sg19
(lp425
sg21
I0
sba(iArchitecture
Entity
p426
(dp427
g11
(lp428
sg13
S'drm.libdrmframework.include.IDrmManagerService.h'
p429
sg15
(lp430
sg17
(lp431
sg19
(lp432
sg21
I0
sba(iArchitecture
Entity
p433
(dp434
g11
(lp435
sg13
S'drm.libdrmframework.include.IDrmServiceListener.h'
p436
sg15
(lp437
sg17
(lp438
sg19
(lp439
sg21
I0
sba(iArchitecture
Entity
p440
(dp441
g11
(lp442
sg13
S'drm.libdrmframework.include.NoOpDrmManagerClientImpl.h'
p443
sg15
(lp444
sg17
(lp445
sg19
(lp446
sg21
I0
sba(iArchitecture
Entity
p447
(dp448
g11
(lp449
sg13
S'drm.libdrmframework.include.PlugInManager.h'
p450
sg15
(lp451
sg17
(lp452
sg19
(lp453
sg21
I0
sbasg50
(lp454
g394
ag401
ag408
ag415
ag422
ag429
ag436
ag443
ag450
asg21
I0
sg52
S'services.radio.RadioService.ch'
p455
sbasg231
g232
sg50
(lp456
sg234
I00
sg52
S'7.0.0_r1'
p457
sba.