(lp0
(iArchitecture
Architecture
p1
(dp2
S'clusters'
p3
(lp4
(iArchitecture
Cluster
p5
(dp6
S'entities'
p7
(lp8
(iArchitecture
Entity
p9
(dp10
S'issue_ids'
p11
(lp12
sS'name'
p13
S'include.soundtrigger.SoundTrigger.h'
p14
sS'descs'
p15
(lp16
sS'labels'
p17
(lp18
sS'titles'
p19
(lp20
sS'change'
p21
I0
sba(iArchitecture
Entity
p22
(dp23
g11
(lp24
sg13
S'include.soundtrigger.SoundTriggerCallback.h'
p25
sg15
(lp26
sg17
(lp27
sg19
(lp28
sg21
I0
sbasS'classes'
p29
(lp30
g14
ag25
asg21
I0
sS'label'
p31
S'services.audiopolicy.managerdefault.AudioPolicyManager.ch'
p32
sba(iArchitecture
Cluster
p33
(dp34
g7
(lp35
(iArchitecture
Entity
p36
(dp37
g11
(lp38
sg13
S'include.soundtrigger.ISoundTrigger.h'
p39
sg15
(lp40
sg17
(lp41
sg19
(lp42
sg21
I0
sba(iArchitecture
Entity
p43
(dp44
g11
(lp45
sg13
S'include.soundtrigger.ISoundTriggerClient.h'
p46
sg15
(lp47
sg17
(lp48
sg19
(lp49
sg21
I0
sba(iArchitecture
Entity
p50
(dp51
g11
(lp52
sg13
S'include.soundtrigger.ISoundTriggerHwService.h'
p53
sg15
(lp54
sg17
(lp55
sg19
(lp56
sg21
I0
sbasg29
(lp57
g39
ag46
ag53
asg21
I0
sg31
S'services.soundtrigger.SoundTriggerHwService.ch'
p58
sbasS'target_sub'
p59
S'include.soundtrigger'
p60
sg29
(lp61
sS'is_component_arch'
p62
I00
sg31
S'6.0.0_r1'
p63
sba(iArchitecture
Architecture
p64
(dp65
g3
(lp66
(iArchitecture
Cluster
p67
(dp68
g7
(lp69
(iArchitecture
Entity
p70
(dp71
g11
(lp72
sg13
S'include.soundtrigger.SoundTrigger.h'
p73
sg15
(lp74
sg17
(lp75
sg19
(lp76
sg21
I0
sba(iArchitecture
Entity
p77
(dp78
g11
(lp79
sg13
S'include.soundtrigger.SoundTriggerCallback.h'
p80
sg15
(lp81
sg17
(lp82
sg19
(lp83
sg21
I0
sbasg29
(lp84
g73
ag80
asg21
I0
sg31
S'services.audiopolicy.managerdefault.AudioPolicyManager.ch'
p85
sba(iArchitecture
Cluster
p86
(dp87
g7
(lp88
(iArchitecture
Entity
p89
(dp90
g11
(lp91
sg13
S'include.soundtrigger.ISoundTrigger.h'
p92
sg15
(lp93
sg17
(lp94
sg19
(lp95
sg21
I0
sba(iArchitecture
Entity
p96
(dp97
g11
(lp98
sg13
S'include.soundtrigger.ISoundTriggerClient.h'
p99
sg15
(lp100
sg17
(lp101
sg19
(lp102
sg21
I0
sba(iArchitecture
Entity
p103
(dp104
g11
(lp105
sg13
S'include.soundtrigger.ISoundTriggerHwService.h'
p106
sg15
(lp107
sg17
(lp108
sg19
(lp109
sg21
I0
sbasg29
(lp110
g92
ag99
ag106
asg21
I0
sg31
S'services.soundtrigger.SoundTriggerHwService.ch'
p111
sbasg59
g60
sg29
(lp112
sg62
I00
sg31
S'7.0.0_r1'
p113
sba.