(lp0
(iArchitecture
Architecture
p1
(dp2
S'clusters'
p3
(lp4
(iArchitecture
Cluster
p5
(dp6
S'entities'
p7
(lp8
(iArchitecture
Entity
p9
(dp10
S'issue_ids'
p11
(lp12
sS'name'
p13
S'include.camera.ICameraServiceListener.h'
p14
sS'descs'
p15
(lp16
sS'labels'
p17
(lp18
sS'titles'
p19
(lp20
sS'change'
p21
I0
sbasS'classes'
p22
(lp23
g14
asg21
I0
sS'label'
p24
S'services.camera.libcameraservice.device3.Camera3Device.ch'
p25
sba(iArchitecture
Cluster
p26
(dp27
g7
(lp28
(iArchitecture
Entity
p29
(dp30
g11
(lp31
sg13
S'camera.ICameraServiceListener.c'
p32
sg15
(lp33
sg17
(lp34
sg19
(lp35
sg21
I0
sbasg22
(lp36
g32
asg21
I0
sg24
S'services.soundtrigger.SoundTriggerHwService.ch'
p37
sbasS'target_sub'
p38
S'camera.ICameraServiceListener'
p39
sg22
(lp40
sS'is_component_arch'
p41
I00
sg24
S'6.0.0_r1'
p42
sba(iArchitecture
Architecture
p43
(dp44
g3
(lp45
sg38
g39
sg22
(lp46
sg41
I00
sg24
S'7.0.0_r1'
p47
sba.