(lp0
(iArchitecture
Architecture
p1
(dp2
S'clusters'
p3
(lp4
(iArchitecture
Cluster
p5
(dp6
S'entities'
p7
(lp8
(iArchitecture
Entity
p9
(dp10
S'issue_ids'
p11
(lp12
sS'name'
p13
S'cmds.stagefright.SimplePlayer.c'
p14
sS'descs'
p15
(lp16
sS'labels'
p17
(lp18
sS'titles'
p19
(lp20
sS'change'
p21
I0
sba(iArchitecture
Entity
p22
(dp23
g11
(lp24
sg13
S'cmds.stagefright.SimplePlayer.h'
p25
sg15
(lp26
sg17
(lp27
sg19
(lp28
sg21
I0
sbasS'classes'
p29
(lp30
g14
ag25
asg21
I0
sS'label'
p31
S'cmds.stagefright.SimplePlayer.ch'
p32
sba(iArchitecture
Cluster
p33
(dp34
g7
(lp35
(iArchitecture
Entity
p36
(dp37
g11
(lp38
sg13
S'cmds.stagefright.SineSource.c'
p39
sg15
(lp40
sg17
(lp41
sg19
(lp42
sg21
I0
sba(iArchitecture
Entity
p43
(dp44
g11
(lp45
sg13
S'cmds.stagefright.SineSource.h'
p46
sg15
(lp47
sg17
(lp48
sg19
(lp49
sg21
I0
sbasg29
(lp50
g39
ag46
asg21
I0
sg31
S'cmds.stagefright.SineSource.ch'
p51
sba(iArchitecture
Cluster
p52
(dp53
g7
(lp54
(iArchitecture
Entity
p55
(dp56
g11
(lp57
sg13
S'cmds.stagefright.jpeg.h'
p58
sg15
(lp59
sg17
(lp60
sg19
(lp61
sg21
I0
sba(iArchitecture
Entity
p62
(dp63
g11
(lp64
sg13
S'cmds.stagefright.stagefright.c'
p65
sg15
(lp66
sg17
(lp67
sg19
(lp68
sg21
I0
sbasg29
(lp69
g58
ag65
asg21
I0
sg31
S'cmds.stagefright.stagefright.ss'
p70
sba(iArchitecture
Cluster
p71
(dp72
g7
(lp73
(iArchitecture
Entity
p74
(dp75
g11
(lp76
sg13
S'cmds.stagefright.codec.c'
p77
sg15
(lp78
sg17
(lp79
sg19
(lp80
sg21
I0
sba(iArchitecture
Entity
p81
(dp82
g11
(lp83
sg13
S'cmds.stagefright.mediafilter.c'
p84
sg15
(lp85
sg17
(lp86
sg19
(lp87
sg21
I0
sbasg29
(lp88
g77
ag84
asg21
I0
sg31
S'media.ndk.NdkMediaCodec.ss'
p89
sba(iArchitecture
Cluster
p90
(dp91
g7
(lp92
(iArchitecture
Entity
p93
(dp94
g11
(lp95
sg13
S'cmds.stagefright.muxer.c'
p96
sg15
(lp97
sg17
(lp98
sg19
(lp99
sg21
I0
sba(iArchitecture
Entity
p100
(dp101
g11
(lp102
sg13
S'cmds.stagefright.sf2.c'
p103
sg15
(lp104
sg17
(lp105
sg19
(lp106
sg21
I0
sbasg29
(lp107
g96
ag103
asg21
I0
sg31
S'media.ndk.NdkMediaMuxer.ss'
p108
sba(iArchitecture
Cluster
p109
(dp110
g7
(lp111
(iArchitecture
Entity
p112
(dp113
g11
(lp114
sg13
S'cmds.stagefright.audioloop.c'
p115
sg15
(lp116
sg17
(lp117
sg19
(lp118
sg21
I0
sba(iArchitecture
Entity
p119
(dp120
g11
(lp121
sg13
S'cmds.stagefright.record.c'
p122
sg15
(lp123
sg17
(lp124
sg19
(lp125
sg21
I0
sba(iArchitecture
Entity
p126
(dp127
g11
(lp128
sg13
S'cmds.stagefright.recordvideo.c'
p129
sg15
(lp130
sg17
(lp131
sg19
(lp132
sg21
I0
sba(iArchitecture
Entity
p133
(dp134
g11
(lp135
sg13
S'cmds.stagefright.stream.c'
p136
sg15
(lp137
sg17
(lp138
sg19
(lp139
sg21
I0
sbasg29
(lp140
g115
ag122
ag129
ag136
asg21
I0
sg31
S'services.camera.libcameraservice.CameraService.ch'
p141
sbasS'target_sub'
p142
S'cmds.stagefright'
p143
sg29
(lp144
sS'is_component_arch'
p145
I00
sg31
S'6.0.0_r1'
p146
sba(iArchitecture
Architecture
p147
(dp148
g3
(lp149
(iArchitecture
Cluster
p150
(dp151
g7
(lp152
(iArchitecture
Entity
p153
(dp154
g11
(lp155
sg13
S'cmds.stagefright.SimplePlayer.c'
p156
sg15
(lp157
sg17
(lp158
sg19
(lp159
sg21
I0
sba(iArchitecture
Entity
p160
(dp161
g11
(lp162
sg13
S'cmds.stagefright.SimplePlayer.h'
p163
sg15
(lp164
sg17
(lp165
sg19
(lp166
sg21
I0
sbasg29
(lp167
g156
ag163
asg21
I0
sg31
S'cmds.stagefright.SimplePlayer.ch'
p168
sba(iArchitecture
Cluster
p169
(dp170
g7
(lp171
(iArchitecture
Entity
p172
(dp173
g11
(lp174
sg13
S'cmds.stagefright.SineSource.c'
p175
sg15
(lp176
sg17
(lp177
sg19
(lp178
sg21
I0
sba(iArchitecture
Entity
p179
(dp180
g11
(lp181
sg13
S'cmds.stagefright.SineSource.h'
p182
sg15
(lp183
sg17
(lp184
sg19
(lp185
sg21
I0
sbasg29
(lp186
g175
ag182
asg21
I0
sg31
S'cmds.stagefright.SineSource.ch'
p187
sba(iArchitecture
Cluster
p188
(dp189
g7
(lp190
(iArchitecture
Entity
p191
(dp192
g11
(lp193
sg13
S'cmds.stagefright.jpeg.h'
p194
sg15
(lp195
sg17
(lp196
sg19
(lp197
sg21
I0
sba(iArchitecture
Entity
p198
(dp199
g11
(lp200
sg13
S'cmds.stagefright.stagefright.c'
p201
sg15
(lp202
sg17
(lp203
sg19
(lp204
sg21
I0
sbasg29
(lp205
g194
ag201
asg21
I0
sg31
S'cmds.stagefright.stagefright.ss'
p206
sba(iArchitecture
Cluster
p207
(dp208
g7
(lp209
(iArchitecture
Entity
p210
(dp211
g11
(lp212
sg13
S'cmds.stagefright.audioloop.c'
p213
sg15
(lp214
sg17
(lp215
sg19
(lp216
sg21
I0
sba(iArchitecture
Entity
p217
(dp218
g11
(lp219
sg13
S'cmds.stagefright.record.c'
p220
sg15
(lp221
sg17
(lp222
sg19
(lp223
sg21
I0
sba(iArchitecture
Entity
p224
(dp225
g11
(lp226
sg13
S'cmds.stagefright.recordvideo.c'
p227
sg15
(lp228
sg17
(lp229
sg19
(lp230
sg21
I0
sba(iArchitecture
Entity
p231
(dp232
g11
(lp233
sg13
S'cmds.stagefright.stream.c'
p234
sg15
(lp235
sg17
(lp236
sg19
(lp237
sg21
I0
sbasg29
(lp238
g213
ag220
ag227
ag234
asg21
I0
sg31
S'services.camera.libcameraservice.CameraService.ch'
p239
sba(iArchitecture
Cluster
p240
(dp241
g7
(lp242
(iArchitecture
Entity
p243
(dp244
g11
(lp245
sg13
S'cmds.stagefright.codec.c'
p246
sg15
(lp247
sg17
(lp248
sg19
(lp249
sg21
I0
sba(iArchitecture
Entity
p250
(dp251
g11
(lp252
sg13
S'cmds.stagefright.mediafilter.c'
p253
sg15
(lp254
sg17
(lp255
sg19
(lp256
sg21
I0
sba(iArchitecture
Entity
p257
(dp258
g11
(lp259
sg13
S'cmds.stagefright.muxer.c'
p260
sg15
(lp261
sg17
(lp262
sg19
(lp263
sg21
I0
sba(iArchitecture
Entity
p264
(dp265
g11
(lp266
sg13
S'cmds.stagefright.sf2.c'
p267
sg15
(lp268
sg17
(lp269
sg19
(lp270
sg21
I0
sbasg29
(lp271
g246
ag253
ag260
ag267
asg21
I0
sg31
S'services.mediaextractor.MediaExtractorService.ch'
p272
sbasg142
g143
sg29
(lp273
sg145
I00
sg31
S'7.0.0_r1'
p274
sba.