(lp0
(iArchitecture
Architecture
p1
(dp2
S'clusters'
p3
(lp4
(iArchitecture
Cluster
p5
(dp6
S'entities'
p7
(lp8
(iArchitecture
Entity
p9
(dp10
S'issue_ids'
p11
(lp12
sS'name'
p13
S'camera.camera2.CaptureRequest.c'
p14
sS'descs'
p15
(lp16
sS'labels'
p17
(lp18
sS'titles'
p19
(lp20
sS'change'
p21
I0
sba(iArchitecture
Entity
p22
(dp23
g11
(lp24
sg13
S'include.camera.camera2.CaptureRequest.h'
p25
sg15
(lp26
sg17
(lp27
sg19
(lp28
sg21
I0
sbasS'classes'
p29
(lp30
g14
ag25
asg21
I0
sS'label'
p31
S'services.camera.libcameraservice.api2.CameraDeviceClient.ch'
p32
sba(iArchitecture
Cluster
p33
(dp34
g7
(lp35
(iArchitecture
Entity
p36
(dp37
g11
(lp38
sg13
S'camera.camera2.OutputConfiguration.c'
p39
sg15
(lp40
sg17
(lp41
sg19
(lp42
sg21
I0
sba(iArchitecture
Entity
p43
(dp44
g11
(lp45
sg13
S'include.camera.camera2.OutputConfiguration.h'
p46
sg15
(lp47
sg17
(lp48
sg19
(lp49
sg21
I0
sbasg29
(lp50
g39
ag46
asg21
I0
sg31
S'services.camera.libcameraservice.common.Camera2ClientBase.ch'
p51
sba(iArchitecture
Cluster
p52
(dp53
g7
(lp54
(iArchitecture
Entity
p55
(dp56
g11
(lp57
sg13
S'camera.camera2.ICameraDeviceCallbacks.c'
p58
sg15
(lp59
sg17
(lp60
sg19
(lp61
sg21
I0
sba(iArchitecture
Entity
p62
(dp63
g11
(lp64
sg13
S'include.camera.camera2.ICameraDeviceCallbacks.h'
p65
sg15
(lp66
sg17
(lp67
sg19
(lp68
sg21
I0
sba(iArchitecture
Entity
p69
(dp70
g11
(lp71
sg13
S'include.camera.camera2.ICameraDeviceUser.h'
p72
sg15
(lp73
sg17
(lp74
sg19
(lp75
sg21
I0
sbasg29
(lp76
g58
ag65
ag72
asg21
I0
sg31
S'services.camera.libcameraservice.device3.StatusTracker.ch'
p77
sba(iArchitecture
Cluster
p78
(dp79
g7
(lp80
(iArchitecture
Entity
p81
(dp82
g11
(lp83
sg13
S'camera.camera2.ICameraDeviceUser.c'
p84
sg15
(lp85
sg17
(lp86
sg19
(lp87
sg21
I0
sbasg29
(lp88
g84
asg21
I0
sg31
S'services.soundtrigger.SoundTriggerHwService.ch'
p89
sbasS'target_sub'
p90
S'camera.camera2'
p91
sg29
(lp92
sS'is_component_arch'
p93
I00
sg31
S'6.0.0_r1'
p94
sba(iArchitecture
Architecture
p95
(dp96
g3
(lp97
(iArchitecture
Cluster
p98
(dp99
g7
(lp100
(iArchitecture
Entity
p101
(dp102
g11
(lp103
sg13
S'camera.camera2.CaptureRequest.c'
p104
sg15
(lp105
sg17
(lp106
sg19
(lp107
sg21
I0
sba(iArchitecture
Entity
p108
(dp109
g11
(lp110
sg13
S'include.camera.camera2.CaptureRequest.h'
p111
sg15
(lp112
sg17
(lp113
sg19
(lp114
sg21
I0
sbasg29
(lp115
g104
ag111
asg21
I0
sg31
S'services.camera.libcameraservice.api2.CameraDeviceClient.ch'
p116
sba(iArchitecture
Cluster
p117
(dp118
g7
(lp119
(iArchitecture
Entity
p120
(dp121
g11
(lp122
sg13
S'camera.camera2.OutputConfiguration.c'
p123
sg15
(lp124
sg17
(lp125
sg19
(lp126
sg21
I0
sba(iArchitecture
Entity
p127
(dp128
g11
(lp129
sg13
S'camera.camera2.SubmitInfo.c'
p130
sg15
(lp131
sg17
(lp132
sg19
(lp133
sg21
I0
sba(iArchitecture
Entity
p134
(dp135
g11
(lp136
sg13
S'include.camera.camera2.OutputConfiguration.h'
p137
sg15
(lp138
sg17
(lp139
sg19
(lp140
sg21
I0
sba(iArchitecture
Entity
p141
(dp142
g11
(lp143
sg13
S'include.camera.camera2.SubmitInfo.h'
p144
sg15
(lp145
sg17
(lp146
sg19
(lp147
sg21
I0
sbasg29
(lp148
g123
ag130
ag137
ag144
asg21
I0
sg31
S'services.camera.libcameraservice.common.Camera2ClientBase.ch'
p149
sbasg90
g91
sg29
(lp150
sg93
I00
sg31
S'7.0.0_r1'
p151
sba.