(lp0
(iArchitecture
Architecture
p1
(dp2
S'clusters'
p3
(lp4
(iArchitecture
Cluster
p5
(dp6
S'entities'
p7
(lp8
(iArchitecture
Entity
p9
(dp10
S'issue_ids'
p11
(lp12
sS'name'
p13
S'services.radio.RadioRegions.h'
p14
sS'descs'
p15
(lp16
sS'labels'
p17
(lp18
sS'titles'
p19
(lp20
sS'change'
p21
I0
sba(iArchitecture
Entity
p22
(dp23
g11
(lp24
sg13
S'services.radio.RadioService.c'
p25
sg15
(lp26
sg17
(lp27
sg19
(lp28
sg21
I0
sba(iArchitecture
Entity
p29
(dp30
g11
(lp31
sg13
S'services.radio.RadioService.h'
p32
sg15
(lp33
sg17
(lp34
sg19
(lp35
sg21
I0
sbasS'classes'
p36
(lp37
g14
ag25
ag32
asg21
I0
sS'label'
p38
S'services.radio.RadioService.ch'
p39
sbasS'target_sub'
p40
S'services.radio'
p41
sg36
(lp42
sS'is_component_arch'
p43
I00
sg38
S'6.0.0_r1'
p44
sba(iArchitecture
Architecture
p45
(dp46
g3
(lp47
(iArchitecture
Cluster
p48
(dp49
g7
(lp50
(iArchitecture
Entity
p51
(dp52
g11
(lp53
sg13
S'services.radio.RadioRegions.h'
p54
sg15
(lp55
sg17
(lp56
sg19
(lp57
sg21
I0
sba(iArchitecture
Entity
p58
(dp59
g11
(lp60
sg13
S'services.radio.RadioService.c'
p61
sg15
(lp62
sg17
(lp63
sg19
(lp64
sg21
I0
sba(iArchitecture
Entity
p65
(dp66
g11
(lp67
sg13
S'services.radio.RadioService.h'
p68
sg15
(lp69
sg17
(lp70
sg19
(lp71
sg21
I0
sbasg36
(lp72
g54
ag61
ag68
asg21
I0
sg38
S'services.radio.RadioService.ch'
p73
sbasg40
g41
sg36
(lp74
sg43
I00
sg38
S'7.0.0_r1'
p75
sba.