(lp0
(iArchitecture
Architecture
p1
(dp2
S'clusters'
p3
(lp4
(iArchitecture
Cluster
p5
(dp6
S'entities'
p7
(lp8
(iArchitecture
Entity
p9
(dp10
S'issue_ids'
p11
(lp12
sS'name'
p13
S'media.mtp.MtpDataPacket.c'
p14
sS'descs'
p15
(lp16
sS'labels'
p17
(lp18
sS'titles'
p19
(lp20
sS'change'
p21
I0
sba(iArchitecture
Entity
p22
(dp23
g11
(lp24
sg13
S'media.mtp.MtpDataPacket.h'
p25
sg15
(lp26
sg17
(lp27
sg19
(lp28
sg21
I0
sbasS'classes'
p29
(lp30
g14
ag25
asg21
I0
sS'label'
p31
S'media.mtp.MtpDataPacket.ch'
p32
sba(iArchitecture
Cluster
p33
(dp34
g7
(lp35
(iArchitecture
Entity
p36
(dp37
g11
(lp38
sg13
S'media.mtp.MtpDebug.c'
p39
sg15
(lp40
sg17
(lp41
sg19
(lp42
sg21
I0
sba(iArchitecture
Entity
p43
(dp44
g11
(lp45
sg13
S'media.mtp.MtpDebug.h'
p46
sg15
(lp47
sg17
(lp48
sg19
(lp49
sg21
I0
sbasg29
(lp50
g39
ag46
asg21
I0
sg31
S'media.mtp.MtpDebug.ch'
p51
sba(iArchitecture
Cluster
p52
(dp53
g7
(lp54
(iArchitecture
Entity
p55
(dp56
g11
(lp57
sg13
S'media.mtp.MtpDevice.c'
p58
sg15
(lp59
sg17
(lp60
sg19
(lp61
sg21
I0
sba(iArchitecture
Entity
p62
(dp63
g11
(lp64
sg13
S'media.mtp.MtpDevice.h'
p65
sg15
(lp66
sg17
(lp67
sg19
(lp68
sg21
I0
sbasg29
(lp69
g58
ag65
asg21
I0
sg31
S'media.mtp.MtpDevice.ch'
p70
sba(iArchitecture
Cluster
p71
(dp72
g7
(lp73
(iArchitecture
Entity
p74
(dp75
g11
(lp76
sg13
S'media.mtp.MtpDeviceInfo.c'
p77
sg15
(lp78
sg17
(lp79
sg19
(lp80
sg21
I0
sba(iArchitecture
Entity
p81
(dp82
g11
(lp83
sg13
S'media.mtp.MtpDeviceInfo.h'
p84
sg15
(lp85
sg17
(lp86
sg19
(lp87
sg21
I0
sbasg29
(lp88
g77
ag84
asg21
I0
sg31
S'media.mtp.MtpDeviceInfo.ch'
p89
sba(iArchitecture
Cluster
p90
(dp91
g7
(lp92
(iArchitecture
Entity
p93
(dp94
g11
(lp95
sg13
S'media.mtp.MtpEventPacket.c'
p96
sg15
(lp97
sg17
(lp98
sg19
(lp99
sg21
I0
sba(iArchitecture
Entity
p100
(dp101
g11
(lp102
sg13
S'media.mtp.MtpEventPacket.h'
p103
sg15
(lp104
sg17
(lp105
sg19
(lp106
sg21
I0
sbasg29
(lp107
g96
ag103
asg21
I0
sg31
S'media.mtp.MtpEventPacket.ch'
p108
sba(iArchitecture
Cluster
p109
(dp110
g7
(lp111
(iArchitecture
Entity
p112
(dp113
g11
(lp114
sg13
S'media.mtp.MtpObjectInfo.c'
p115
sg15
(lp116
sg17
(lp117
sg19
(lp118
sg21
I0
sba(iArchitecture
Entity
p119
(dp120
g11
(lp121
sg13
S'media.mtp.MtpObjectInfo.h'
p122
sg15
(lp123
sg17
(lp124
sg19
(lp125
sg21
I0
sbasg29
(lp126
g115
ag122
asg21
I0
sg31
S'media.mtp.MtpObjectInfo.ch'
p127
sba(iArchitecture
Cluster
p128
(dp129
g7
(lp130
(iArchitecture
Entity
p131
(dp132
g11
(lp133
sg13
S'media.mtp.MtpPacket.c'
p134
sg15
(lp135
sg17
(lp136
sg19
(lp137
sg21
I0
sba(iArchitecture
Entity
p138
(dp139
g11
(lp140
sg13
S'media.mtp.MtpPacket.h'
p141
sg15
(lp142
sg17
(lp143
sg19
(lp144
sg21
I0
sbasg29
(lp145
g134
ag141
asg21
I0
sg31
S'media.mtp.MtpPacket.ch'
p146
sba(iArchitecture
Cluster
p147
(dp148
g7
(lp149
(iArchitecture
Entity
p150
(dp151
g11
(lp152
sg13
S'media.mtp.MtpProperty.c'
p153
sg15
(lp154
sg17
(lp155
sg19
(lp156
sg21
I0
sba(iArchitecture
Entity
p157
(dp158
g11
(lp159
sg13
S'media.mtp.MtpProperty.h'
p160
sg15
(lp161
sg17
(lp162
sg19
(lp163
sg21
I0
sbasg29
(lp164
g153
ag160
asg21
I0
sg31
S'media.mtp.MtpProperty.ch'
p165
sba(iArchitecture
Cluster
p166
(dp167
g7
(lp168
(iArchitecture
Entity
p169
(dp170
g11
(lp171
sg13
S'media.mtp.MtpRequestPacket.c'
p172
sg15
(lp173
sg17
(lp174
sg19
(lp175
sg21
I0
sba(iArchitecture
Entity
p176
(dp177
g11
(lp178
sg13
S'media.mtp.MtpRequestPacket.h'
p179
sg15
(lp180
sg17
(lp181
sg19
(lp182
sg21
I0
sbasg29
(lp183
g172
ag179
asg21
I0
sg31
S'media.mtp.MtpRequestPacket.ch'
p184
sba(iArchitecture
Cluster
p185
(dp186
g7
(lp187
(iArchitecture
Entity
p188
(dp189
g11
(lp190
sg13
S'media.mtp.MtpResponsePacket.c'
p191
sg15
(lp192
sg17
(lp193
sg19
(lp194
sg21
I0
sba(iArchitecture
Entity
p195
(dp196
g11
(lp197
sg13
S'media.mtp.MtpResponsePacket.h'
p198
sg15
(lp199
sg17
(lp200
sg19
(lp201
sg21
I0
sbasg29
(lp202
g191
ag198
asg21
I0
sg31
S'media.mtp.MtpResponsePacket.ch'
p203
sba(iArchitecture
Cluster
p204
(dp205
g7
(lp206
(iArchitecture
Entity
p207
(dp208
g11
(lp209
sg13
S'media.mtp.MtpServer.c'
p210
sg15
(lp211
sg17
(lp212
sg19
(lp213
sg21
I0
sba(iArchitecture
Entity
p214
(dp215
g11
(lp216
sg13
S'media.mtp.MtpServer.h'
p217
sg15
(lp218
sg17
(lp219
sg19
(lp220
sg21
I0
sbasg29
(lp221
g210
ag217
asg21
I0
sg31
S'media.mtp.MtpServer.ch'
p222
sba(iArchitecture
Cluster
p223
(dp224
g7
(lp225
(iArchitecture
Entity
p226
(dp227
g11
(lp228
sg13
S'media.mtp.MtpDatabase.h'
p229
sg15
(lp230
sg17
(lp231
sg19
(lp232
sg21
I0
sba(iArchitecture
Entity
p233
(dp234
g11
(lp235
sg13
S'media.mtp.MtpStorage.c'
p236
sg15
(lp237
sg17
(lp238
sg19
(lp239
sg21
I0
sba(iArchitecture
Entity
p240
(dp241
g11
(lp242
sg13
S'media.mtp.MtpStorage.h'
p243
sg15
(lp244
sg17
(lp245
sg19
(lp246
sg21
I0
sbasg29
(lp247
g229
ag236
ag243
asg21
I0
sg31
S'media.mtp.MtpStorage.ch'
p248
sba(iArchitecture
Cluster
p249
(dp250
g7
(lp251
(iArchitecture
Entity
p252
(dp253
g11
(lp254
sg13
S'media.mtp.MtpStorageInfo.c'
p255
sg15
(lp256
sg17
(lp257
sg19
(lp258
sg21
I0
sba(iArchitecture
Entity
p259
(dp260
g11
(lp261
sg13
S'media.mtp.MtpStorageInfo.h'
p262
sg15
(lp263
sg17
(lp264
sg19
(lp265
sg21
I0
sbasg29
(lp266
g255
ag262
asg21
I0
sg31
S'media.mtp.MtpStorageInfo.ch'
p267
sba(iArchitecture
Cluster
p268
(dp269
g7
(lp270
(iArchitecture
Entity
p271
(dp272
g11
(lp273
sg13
S'media.mtp.MtpStringBuffer.c'
p274
sg15
(lp275
sg17
(lp276
sg19
(lp277
sg21
I0
sba(iArchitecture
Entity
p278
(dp279
g11
(lp280
sg13
S'media.mtp.MtpStringBuffer.h'
p281
sg15
(lp282
sg17
(lp283
sg19
(lp284
sg21
I0
sba(iArchitecture
Entity
p285
(dp286
g11
(lp287
sg13
S'media.mtp.MtpTypes.h'
p288
sg15
(lp289
sg17
(lp290
sg19
(lp291
sg21
I0
sba(iArchitecture
Entity
p292
(dp293
g11
(lp294
sg13
S'media.mtp.mtp.h'
p295
sg15
(lp296
sg17
(lp297
sg19
(lp298
sg21
I0
sbasg29
(lp299
g274
ag281
ag288
ag295
asg21
I0
sg31
S'media.mtp.MtpStringBuffer.ch'
p300
sba(iArchitecture
Cluster
p301
(dp302
g7
(lp303
(iArchitecture
Entity
p304
(dp305
g11
(lp306
sg13
S'media.mtp.MtpUtils.c'
p307
sg15
(lp308
sg17
(lp309
sg19
(lp310
sg21
I0
sba(iArchitecture
Entity
p311
(dp312
g11
(lp313
sg13
S'media.mtp.MtpUtils.h'
p314
sg15
(lp315
sg17
(lp316
sg19
(lp317
sg21
I0
sbasg29
(lp318
g307
ag314
asg21
I0
sg31
S'media.mtp.MtpUtils.ch'
p319
sbasS'target_sub'
p320
S'media.mtp'
p321
sg29
(lp322
sS'is_component_arch'
p323
I00
sg31
S'6.0.0_r1'
p324
sba(iArchitecture
Architecture
p325
(dp326
g3
(lp327
(iArchitecture
Cluster
p328
(dp329
g7
(lp330
(iArchitecture
Entity
p331
(dp332
g11
(lp333
sg13
S'media.mtp.MtpDataPacket.c'
p334
sg15
(lp335
sg17
(lp336
sg19
(lp337
sg21
I0
sba(iArchitecture
Entity
p338
(dp339
g11
(lp340
sg13
S'media.mtp.MtpDataPacket.h'
p341
sg15
(lp342
sg17
(lp343
sg19
(lp344
sg21
I0
sbasg29
(lp345
g334
ag341
asg21
I0
sg31
S'media.mtp.MtpDataPacket.ch'
p346
sba(iArchitecture
Cluster
p347
(dp348
g7
(lp349
(iArchitecture
Entity
p350
(dp351
g11
(lp352
sg13
S'media.mtp.MtpDebug.c'
p353
sg15
(lp354
sg17
(lp355
sg19
(lp356
sg21
I0
sba(iArchitecture
Entity
p357
(dp358
g11
(lp359
sg13
S'media.mtp.MtpDebug.h'
p360
sg15
(lp361
sg17
(lp362
sg19
(lp363
sg21
I0
sbasg29
(lp364
g353
ag360
asg21
I0
sg31
S'media.mtp.MtpDebug.ch'
p365
sba(iArchitecture
Cluster
p366
(dp367
g7
(lp368
(iArchitecture
Entity
p369
(dp370
g11
(lp371
sg13
S'media.mtp.MtpDevice.c'
p372
sg15
(lp373
sg17
(lp374
sg19
(lp375
sg21
I0
sba(iArchitecture
Entity
p376
(dp377
g11
(lp378
sg13
S'media.mtp.MtpDevice.h'
p379
sg15
(lp380
sg17
(lp381
sg19
(lp382
sg21
I0
sbasg29
(lp383
g372
ag379
asg21
I0
sg31
S'media.mtp.MtpDevice.ch'
p384
sba(iArchitecture
Cluster
p385
(dp386
g7
(lp387
(iArchitecture
Entity
p388
(dp389
g11
(lp390
sg13
S'media.mtp.MtpDeviceInfo.c'
p391
sg15
(lp392
sg17
(lp393
sg19
(lp394
sg21
I0
sba(iArchitecture
Entity
p395
(dp396
g11
(lp397
sg13
S'media.mtp.MtpDeviceInfo.h'
p398
sg15
(lp399
sg17
(lp400
sg19
(lp401
sg21
I0
sbasg29
(lp402
g391
ag398
asg21
I0
sg31
S'media.mtp.MtpDeviceInfo.ch'
p403
sba(iArchitecture
Cluster
p404
(dp405
g7
(lp406
(iArchitecture
Entity
p407
(dp408
g11
(lp409
sg13
S'media.mtp.MtpEventPacket.c'
p410
sg15
(lp411
sg17
(lp412
sg19
(lp413
sg21
I0
sba(iArchitecture
Entity
p414
(dp415
g11
(lp416
sg13
S'media.mtp.MtpEventPacket.h'
p417
sg15
(lp418
sg17
(lp419
sg19
(lp420
sg21
I0
sbasg29
(lp421
g410
ag417
asg21
I0
sg31
S'media.mtp.MtpEventPacket.ch'
p422
sba(iArchitecture
Cluster
p423
(dp424
g7
(lp425
(iArchitecture
Entity
p426
(dp427
g11
(lp428
sg13
S'media.mtp.MtpObjectInfo.c'
p429
sg15
(lp430
sg17
(lp431
sg19
(lp432
sg21
I0
sba(iArchitecture
Entity
p433
(dp434
g11
(lp435
sg13
S'media.mtp.MtpObjectInfo.h'
p436
sg15
(lp437
sg17
(lp438
sg19
(lp439
sg21
I0
sbasg29
(lp440
g429
ag436
asg21
I0
sg31
S'media.mtp.MtpObjectInfo.ch'
p441
sba(iArchitecture
Cluster
p442
(dp443
g7
(lp444
(iArchitecture
Entity
p445
(dp446
g11
(lp447
sg13
S'media.mtp.MtpPacket.c'
p448
sg15
(lp449
sg17
(lp450
sg19
(lp451
sg21
I0
sba(iArchitecture
Entity
p452
(dp453
g11
(lp454
sg13
S'media.mtp.MtpPacket.h'
p455
sg15
(lp456
sg17
(lp457
sg19
(lp458
sg21
I0
sbasg29
(lp459
g448
ag455
asg21
I0
sg31
S'media.mtp.MtpPacket.ch'
p460
sba(iArchitecture
Cluster
p461
(dp462
g7
(lp463
(iArchitecture
Entity
p464
(dp465
g11
(lp466
sg13
S'media.mtp.MtpProperty.c'
p467
sg15
(lp468
sg17
(lp469
sg19
(lp470
sg21
I0
sba(iArchitecture
Entity
p471
(dp472
g11
(lp473
sg13
S'media.mtp.MtpProperty.h'
p474
sg15
(lp475
sg17
(lp476
sg19
(lp477
sg21
I0
sbasg29
(lp478
g467
ag474
asg21
I0
sg31
S'media.mtp.MtpProperty.ch'
p479
sba(iArchitecture
Cluster
p480
(dp481
g7
(lp482
(iArchitecture
Entity
p483
(dp484
g11
(lp485
sg13
S'media.mtp.MtpRequestPacket.c'
p486
sg15
(lp487
sg17
(lp488
sg19
(lp489
sg21
I0
sba(iArchitecture
Entity
p490
(dp491
g11
(lp492
sg13
S'media.mtp.MtpRequestPacket.h'
p493
sg15
(lp494
sg17
(lp495
sg19
(lp496
sg21
I0
sbasg29
(lp497
g486
ag493
asg21
I0
sg31
S'media.mtp.MtpRequestPacket.ch'
p498
sba(iArchitecture
Cluster
p499
(dp500
g7
(lp501
(iArchitecture
Entity
p502
(dp503
g11
(lp504
sg13
S'media.mtp.MtpResponsePacket.c'
p505
sg15
(lp506
sg17
(lp507
sg19
(lp508
sg21
I0
sba(iArchitecture
Entity
p509
(dp510
g11
(lp511
sg13
S'media.mtp.MtpResponsePacket.h'
p512
sg15
(lp513
sg17
(lp514
sg19
(lp515
sg21
I0
sbasg29
(lp516
g505
ag512
asg21
I0
sg31
S'media.mtp.MtpResponsePacket.ch'
p517
sba(iArchitecture
Cluster
p518
(dp519
g7
(lp520
(iArchitecture
Entity
p521
(dp522
g11
(lp523
sg13
S'media.mtp.MtpServer.c'
p524
sg15
(lp525
sg17
(lp526
sg19
(lp527
sg21
I0
sba(iArchitecture
Entity
p528
(dp529
g11
(lp530
sg13
S'media.mtp.MtpServer.h'
p531
sg15
(lp532
sg17
(lp533
sg19
(lp534
sg21
I0
sbasg29
(lp535
g524
ag531
asg21
I0
sg31
S'media.mtp.MtpServer.ch'
p536
sba(iArchitecture
Cluster
p537
(dp538
g7
(lp539
(iArchitecture
Entity
p540
(dp541
g11
(lp542
sg13
S'media.mtp.MtpDatabase.h'
p543
sg15
(lp544
sg17
(lp545
sg19
(lp546
sg21
I0
sba(iArchitecture
Entity
p547
(dp548
g11
(lp549
sg13
S'media.mtp.MtpStorage.c'
p550
sg15
(lp551
sg17
(lp552
sg19
(lp553
sg21
I0
sba(iArchitecture
Entity
p554
(dp555
g11
(lp556
sg13
S'media.mtp.MtpStorage.h'
p557
sg15
(lp558
sg17
(lp559
sg19
(lp560
sg21
I0
sbasg29
(lp561
g543
ag550
ag557
asg21
I0
sg31
S'media.mtp.MtpStorage.ch'
p562
sba(iArchitecture
Cluster
p563
(dp564
g7
(lp565
(iArchitecture
Entity
p566
(dp567
g11
(lp568
sg13
S'media.mtp.MtpStorageInfo.c'
p569
sg15
(lp570
sg17
(lp571
sg19
(lp572
sg21
I0
sba(iArchitecture
Entity
p573
(dp574
g11
(lp575
sg13
S'media.mtp.MtpStorageInfo.h'
p576
sg15
(lp577
sg17
(lp578
sg19
(lp579
sg21
I0
sbasg29
(lp580
g569
ag576
asg21
I0
sg31
S'media.mtp.MtpStorageInfo.ch'
p581
sba(iArchitecture
Cluster
p582
(dp583
g7
(lp584
(iArchitecture
Entity
p585
(dp586
g11
(lp587
sg13
S'media.mtp.MtpStringBuffer.c'
p588
sg15
(lp589
sg17
(lp590
sg19
(lp591
sg21
I0
sba(iArchitecture
Entity
p592
(dp593
g11
(lp594
sg13
S'media.mtp.MtpStringBuffer.h'
p595
sg15
(lp596
sg17
(lp597
sg19
(lp598
sg21
I0
sba(iArchitecture
Entity
p599
(dp600
g11
(lp601
sg13
S'media.mtp.MtpTypes.h'
p602
sg15
(lp603
sg17
(lp604
sg19
(lp605
sg21
I0
sba(iArchitecture
Entity
p606
(dp607
g11
(lp608
sg13
S'media.mtp.mtp.h'
p609
sg15
(lp610
sg17
(lp611
sg19
(lp612
sg21
I0
sbasg29
(lp613
g588
ag595
ag602
ag609
asg21
I0
sg31
S'media.mtp.MtpStringBuffer.ch'
p614
sba(iArchitecture
Cluster
p615
(dp616
g7
(lp617
(iArchitecture
Entity
p618
(dp619
g11
(lp620
sg13
S'media.mtp.MtpUtils.c'
p621
sg15
(lp622
sg17
(lp623
sg19
(lp624
sg21
I0
sba(iArchitecture
Entity
p625
(dp626
g11
(lp627
sg13
S'media.mtp.MtpUtils.h'
p628
sg15
(lp629
sg17
(lp630
sg19
(lp631
sg21
I0
sbasg29
(lp632
g621
ag628
asg21
I0
sg31
S'media.mtp.MtpUtils.ch'
p633
sbasg320
g321
sg29
(lp634
sg323
I00
sg31
S'7.0.0_r1'
p635
sba.