(lp0
(iArchitecture
Architecture
p1
(dp2
S'clusters'
p3
(lp4
(iArchitecture
Cluster
p5
(dp6
S'entities'
p7
(lp8
(iArchitecture
Entity
p9
(dp10
S'issue_ids'
p11
(lp12
sS'name'
p13
S'camera.ICameraServiceProxy.c'
p14
sS'descs'
p15
(lp16
sS'labels'
p17
(lp18
sS'titles'
p19
(lp20
sS'change'
p21
I0
sba(iArchitecture
Entity
p22
(dp23
g11
(lp24
sg13
S'include.camera.ICameraServiceProxy.h'
p25
sg15
(lp26
sg17
(lp27
sg19
(lp28
sg21
I0
sbasS'classes'
p29
(lp30
g14
ag25
asg21
I0
sS'label'
p31
S'camera.ICameraServiceProxy.ss'
p32
sba(iArchitecture
Cluster
p33
(dp34
g7
(lp35
(iArchitecture
Entity
p36
(dp37
g11
(lp38
sg13
S'include.camera.ICameraServiceListener.h'
p39
sg15
(lp40
sg17
(lp41
sg19
(lp42
sg21
I0
sbasg29
(lp43
g39
asg21
I0
sg31
S'services.camera.libcameraservice.device3.Camera3Device.ch'
p44
sba(iArchitecture
Cluster
p45
(dp46
g7
(lp47
(iArchitecture
Entity
p48
(dp49
g11
(lp50
sg13
S'camera.ICamera.c'
p51
sg15
(lp52
sg17
(lp53
sg19
(lp54
sg21
I0
sba(iArchitecture
Entity
p55
(dp56
g11
(lp57
sg13
S'camera.ICameraClient.c'
p58
sg15
(lp59
sg17
(lp60
sg19
(lp61
sg21
I0
sba(iArchitecture
Entity
p62
(dp63
g11
(lp64
sg13
S'camera.ICameraRecordingProxy.c'
p65
sg15
(lp66
sg17
(lp67
sg19
(lp68
sg21
I0
sba(iArchitecture
Entity
p69
(dp70
g11
(lp71
sg13
S'camera.ICameraRecordingProxyListener.c'
p72
sg15
(lp73
sg17
(lp74
sg19
(lp75
sg21
I0
sba(iArchitecture
Entity
p76
(dp77
g11
(lp78
sg13
S'camera.ICameraService.c'
p79
sg15
(lp80
sg17
(lp81
sg19
(lp82
sg21
I0
sba(iArchitecture
Entity
p83
(dp84
g11
(lp85
sg13
S'include.camera.ICamera.h'
p86
sg15
(lp87
sg17
(lp88
sg19
(lp89
sg21
I0
sba(iArchitecture
Entity
p90
(dp91
g11
(lp92
sg13
S'include.camera.ICameraClient.h'
p93
sg15
(lp94
sg17
(lp95
sg19
(lp96
sg21
I0
sba(iArchitecture
Entity
p97
(dp98
g11
(lp99
sg13
S'include.camera.ICameraRecordingProxy.h'
p100
sg15
(lp101
sg17
(lp102
sg19
(lp103
sg21
I0
sba(iArchitecture
Entity
p104
(dp105
g11
(lp106
sg13
S'include.camera.ICameraRecordingProxyListener.h'
p107
sg15
(lp108
sg17
(lp109
sg19
(lp110
sg21
I0
sba(iArchitecture
Entity
p111
(dp112
g11
(lp113
sg13
S'include.camera.ICameraService.h'
p114
sg15
(lp115
sg17
(lp116
sg19
(lp117
sg21
I0
sbasg29
(lp118
g51
ag58
ag65
ag72
ag79
ag86
ag93
ag100
ag107
ag114
asg21
I0
sg31
S'services.camera.libcameraservice.device3.StatusTracker.ch'
p119
sba(iArchitecture
Cluster
p120
(dp121
g7
(lp122
(iArchitecture
Entity
p123
(dp124
g11
(lp125
sg13
S'camera.ICameraServiceListener.c'
p126
sg15
(lp127
sg17
(lp128
sg19
(lp129
sg21
I0
sbasg29
(lp130
g126
asg21
I0
sg31
S'services.soundtrigger.SoundTriggerHwService.ch'
p131
sbasS'target_sub'
p132
S'camera.ICamera'
p133
sg29
(lp134
sS'is_component_arch'
p135
I00
sg31
S'6.0.0_r1'
p136
sba(iArchitecture
Architecture
p137
(dp138
g3
(lp139
(iArchitecture
Cluster
p140
(dp141
g7
(lp142
(iArchitecture
Entity
p143
(dp144
g11
(lp145
sg13
S'camera.ICameraServiceProxy.c'
p146
sg15
(lp147
sg17
(lp148
sg19
(lp149
sg21
I0
sba(iArchitecture
Entity
p150
(dp151
g11
(lp152
sg13
S'include.camera.ICameraServiceProxy.h'
p153
sg15
(lp154
sg17
(lp155
sg19
(lp156
sg21
I0
sbasg29
(lp157
g146
ag153
asg21
I0
sg31
S'services.camera.libcameraservice.device3.Camera3Device.ch'
p158
sba(iArchitecture
Cluster
p159
(dp160
g7
(lp161
(iArchitecture
Entity
p162
(dp163
g11
(lp164
sg13
S'camera.ICamera.c'
p165
sg15
(lp166
sg17
(lp167
sg19
(lp168
sg21
I0
sba(iArchitecture
Entity
p169
(dp170
g11
(lp171
sg13
S'camera.ICameraClient.c'
p172
sg15
(lp173
sg17
(lp174
sg19
(lp175
sg21
I0
sba(iArchitecture
Entity
p176
(dp177
g11
(lp178
sg13
S'camera.ICameraRecordingProxy.c'
p179
sg15
(lp180
sg17
(lp181
sg19
(lp182
sg21
I0
sba(iArchitecture
Entity
p183
(dp184
g11
(lp185
sg13
S'camera.ICameraRecordingProxyListener.c'
p186
sg15
(lp187
sg17
(lp188
sg19
(lp189
sg21
I0
sba(iArchitecture
Entity
p190
(dp191
g11
(lp192
sg13
S'include.camera.ICameraRecordingProxy.h'
p193
sg15
(lp194
sg17
(lp195
sg19
(lp196
sg21
I0
sba(iArchitecture
Entity
p197
(dp198
g11
(lp199
sg13
S'include.camera.ICameraRecordingProxyListener.h'
p200
sg15
(lp201
sg17
(lp202
sg19
(lp203
sg21
I0
sbasg29
(lp204
g165
ag172
ag179
ag186
ag193
ag200
asg21
I0
sg31
S'services.camera.libcameraservice.device3.StatusTracker.ch'
p205
sbasg132
g133
sg29
(lp206
sg135
I00
sg31
S'7.0.0_r1'
p207
sba.