(lp0
(iArchitecture
Architecture
p1
(dp2
S'clusters'
p3
(lp4
(iArchitecture
Cluster
p5
(dp6
S'entities'
p7
(lp8
(iArchitecture
Entity
p9
(dp10
S'issue_ids'
p11
(lp12
sS'name'
p13
S'services.audioflinger.AudioFlinger.c'
p14
sS'descs'
p15
(lp16
sS'labels'
p17
(lp18
sS'titles'
p19
(lp20
sS'change'
p21
I0
sba(iArchitecture
Entity
p22
(dp23
g11
(lp24
sg13
S'services.audioflinger.AudioFlinger.h'
p25
sg15
(lp26
sg17
(lp27
sg19
(lp28
sg21
I0
sbasS'classes'
p29
(lp30
g14
ag25
asg21
I0
sS'label'
p31
S'services.audioflinger.AudioFlinger.ch'
p32
sba(iArchitecture
Cluster
p33
(dp34
g7
(lp35
(iArchitecture
Entity
p36
(dp37
g11
(lp38
sg13
S'services.audioflinger.AudioHwDevice.c'
p39
sg15
(lp40
sg17
(lp41
sg19
(lp42
sg21
I0
sba(iArchitecture
Entity
p43
(dp44
g11
(lp45
sg13
S'services.audioflinger.AudioHwDevice.h'
p46
sg15
(lp47
sg17
(lp48
sg19
(lp49
sg21
I0
sbasg29
(lp50
g39
ag46
asg21
I0
sg31
S'services.audioflinger.AudioHwDevice.ch'
p51
sba(iArchitecture
Cluster
p52
(dp53
g7
(lp54
(iArchitecture
Entity
p55
(dp56
g11
(lp57
sg13
S'services.audioflinger.AudioMixer.c'
p58
sg15
(lp59
sg17
(lp60
sg19
(lp61
sg21
I0
sba(iArchitecture
Entity
p62
(dp63
g11
(lp64
sg13
S'services.audioflinger.AudioMixer.h'
p65
sg15
(lp66
sg17
(lp67
sg19
(lp68
sg21
I0
sba(iArchitecture
Entity
p69
(dp70
g11
(lp71
sg13
S'services.audioflinger.AudioMixerOps.h'
p72
sg15
(lp73
sg17
(lp74
sg19
(lp75
sg21
I0
sbasg29
(lp76
g58
ag65
ag72
asg21
I0
sg31
S'services.audioflinger.AudioMixer.ch'
p77
sba(iArchitecture
Cluster
p78
(dp79
g7
(lp80
(iArchitecture
Entity
p81
(dp82
g11
(lp83
sg13
S'services.audioflinger.AudioResampler.c'
p84
sg15
(lp85
sg17
(lp86
sg19
(lp87
sg21
I0
sba(iArchitecture
Entity
p88
(dp89
g11
(lp90
sg13
S'services.audioflinger.AudioResampler.h'
p91
sg15
(lp92
sg17
(lp93
sg19
(lp94
sg21
I0
sbasg29
(lp95
g84
ag91
asg21
I0
sg31
S'services.audioflinger.AudioResampler.ch'
p96
sba(iArchitecture
Cluster
p97
(dp98
g7
(lp99
(iArchitecture
Entity
p100
(dp101
g11
(lp102
sg13
S'services.audioflinger.AudioResamplerCubic.c'
p103
sg15
(lp104
sg17
(lp105
sg19
(lp106
sg21
I0
sba(iArchitecture
Entity
p107
(dp108
g11
(lp109
sg13
S'services.audioflinger.AudioResamplerCubic.h'
p110
sg15
(lp111
sg17
(lp112
sg19
(lp113
sg21
I0
sbasg29
(lp114
g103
ag110
asg21
I0
sg31
S'services.audioflinger.AudioResamplerCubic.ch'
p115
sba(iArchitecture
Cluster
p116
(dp117
g7
(lp118
(iArchitecture
Entity
p119
(dp120
g11
(lp121
sg13
S'services.audioflinger.AudioResamplerDyn.c'
p122
sg15
(lp123
sg17
(lp124
sg19
(lp125
sg21
I0
sba(iArchitecture
Entity
p126
(dp127
g11
(lp128
sg13
S'services.audioflinger.AudioResamplerDyn.h'
p129
sg15
(lp130
sg17
(lp131
sg19
(lp132
sg21
I0
sba(iArchitecture
Entity
p133
(dp134
g11
(lp135
sg13
S'services.audioflinger.AudioResamplerFirGen.h'
p136
sg15
(lp137
sg17
(lp138
sg19
(lp139
sg21
I0
sba(iArchitecture
Entity
p140
(dp141
g11
(lp142
sg13
S'services.audioflinger.AudioResamplerFirOps.h'
p143
sg15
(lp144
sg17
(lp145
sg19
(lp146
sg21
I0
sba(iArchitecture
Entity
p147
(dp148
g11
(lp149
sg13
S'services.audioflinger.AudioResamplerFirProcess.h'
p150
sg15
(lp151
sg17
(lp152
sg19
(lp153
sg21
I0
sba(iArchitecture
Entity
p154
(dp155
g11
(lp156
sg13
S'services.audioflinger.AudioResamplerFirProcessNeon.h'
p157
sg15
(lp158
sg17
(lp159
sg19
(lp160
sg21
I0
sbasg29
(lp161
g122
ag129
ag136
ag143
ag150
ag157
asg21
I0
sg31
S'services.audioflinger.AudioResamplerDyn.ch'
p162
sba(iArchitecture
Cluster
p163
(dp164
g7
(lp165
(iArchitecture
Entity
p166
(dp167
g11
(lp168
sg13
S'services.audioflinger.AudioResamplerSinc.c'
p169
sg15
(lp170
sg17
(lp171
sg19
(lp172
sg21
I0
sba(iArchitecture
Entity
p173
(dp174
g11
(lp175
sg13
S'services.audioflinger.AudioResamplerSinc.h'
p176
sg15
(lp177
sg17
(lp178
sg19
(lp179
sg21
I0
sba(iArchitecture
Entity
p180
(dp181
g11
(lp182
sg13
S'services.audioflinger.AudioResamplerSincDown.h'
p183
sg15
(lp184
sg17
(lp185
sg19
(lp186
sg21
I0
sba(iArchitecture
Entity
p187
(dp188
g11
(lp189
sg13
S'services.audioflinger.AudioResamplerSincUp.h'
p190
sg15
(lp191
sg17
(lp192
sg19
(lp193
sg21
I0
sbasg29
(lp194
g169
ag176
ag183
ag190
asg21
I0
sg31
S'services.audioflinger.AudioResamplerSinc.ch'
p195
sba(iArchitecture
Cluster
p196
(dp197
g7
(lp198
(iArchitecture
Entity
p199
(dp200
g11
(lp201
sg13
S'services.audioflinger.AudioStreamOut.c'
p202
sg15
(lp203
sg17
(lp204
sg19
(lp205
sg21
I0
sba(iArchitecture
Entity
p206
(dp207
g11
(lp208
sg13
S'services.audioflinger.AudioStreamOut.h'
p209
sg15
(lp210
sg17
(lp211
sg19
(lp212
sg21
I0
sbasg29
(lp213
g202
ag209
asg21
I0
sg31
S'services.audioflinger.AudioStreamOut.ch'
p214
sba(iArchitecture
Cluster
p215
(dp216
g7
(lp217
(iArchitecture
Entity
p218
(dp219
g11
(lp220
sg13
S'services.audioflinger.AudioWatchdog.c'
p221
sg15
(lp222
sg17
(lp223
sg19
(lp224
sg21
I0
sba(iArchitecture
Entity
p225
(dp226
g11
(lp227
sg13
S'services.audioflinger.AudioWatchdog.h'
p228
sg15
(lp229
sg17
(lp230
sg19
(lp231
sg21
I0
sbasg29
(lp232
g221
ag228
asg21
I0
sg31
S'services.audioflinger.AudioWatchdog.ch'
p233
sba(iArchitecture
Cluster
p234
(dp235
g7
(lp236
(iArchitecture
Entity
p237
(dp238
g11
(lp239
sg13
S'services.audioflinger.BufferProviders.c'
p240
sg15
(lp241
sg17
(lp242
sg19
(lp243
sg21
I0
sba(iArchitecture
Entity
p244
(dp245
g11
(lp246
sg13
S'services.audioflinger.BufferProviders.h'
p247
sg15
(lp248
sg17
(lp249
sg19
(lp250
sg21
I0
sbasg29
(lp251
g240
ag247
asg21
I0
sg31
S'services.audioflinger.BufferProviders.ch'
p252
sba(iArchitecture
Cluster
p253
(dp254
g7
(lp255
(iArchitecture
Entity
p256
(dp257
g11
(lp258
sg13
S'services.audioflinger.Effects.c'
p259
sg15
(lp260
sg17
(lp261
sg19
(lp262
sg21
I0
sba(iArchitecture
Entity
p263
(dp264
g11
(lp265
sg13
S'services.audioflinger.Effects.h'
p266
sg15
(lp267
sg17
(lp268
sg19
(lp269
sg21
I0
sbasg29
(lp270
g259
ag266
asg21
I0
sg31
S'services.audioflinger.Effects.ch'
p271
sba(iArchitecture
Cluster
p272
(dp273
g7
(lp274
(iArchitecture
Entity
p275
(dp276
g11
(lp277
sg13
S'services.audioflinger.FastCapture.c'
p278
sg15
(lp279
sg17
(lp280
sg19
(lp281
sg21
I0
sba(iArchitecture
Entity
p282
(dp283
g11
(lp284
sg13
S'services.audioflinger.FastCapture.h'
p285
sg15
(lp286
sg17
(lp287
sg19
(lp288
sg21
I0
sbasg29
(lp289
g278
ag285
asg21
I0
sg31
S'services.audioflinger.FastCapture.ch'
p290
sba(iArchitecture
Cluster
p291
(dp292
g7
(lp293
(iArchitecture
Entity
p294
(dp295
g11
(lp296
sg13
S'services.audioflinger.FastCaptureDumpState.c'
p297
sg15
(lp298
sg17
(lp299
sg19
(lp300
sg21
I0
sba(iArchitecture
Entity
p301
(dp302
g11
(lp303
sg13
S'services.audioflinger.FastCaptureDumpState.h'
p304
sg15
(lp305
sg17
(lp306
sg19
(lp307
sg21
I0
sbasg29
(lp308
g297
ag304
asg21
I0
sg31
S'services.audioflinger.FastCaptureDumpState.ch'
p309
sba(iArchitecture
Cluster
p310
(dp311
g7
(lp312
(iArchitecture
Entity
p313
(dp314
g11
(lp315
sg13
S'services.audioflinger.FastCaptureState.c'
p316
sg15
(lp317
sg17
(lp318
sg19
(lp319
sg21
I0
sba(iArchitecture
Entity
p320
(dp321
g11
(lp322
sg13
S'services.audioflinger.FastCaptureState.h'
p323
sg15
(lp324
sg17
(lp325
sg19
(lp326
sg21
I0
sbasg29
(lp327
g316
ag323
asg21
I0
sg31
S'services.audioflinger.FastCaptureState.ch'
p328
sba(iArchitecture
Cluster
p329
(dp330
g7
(lp331
(iArchitecture
Entity
p332
(dp333
g11
(lp334
sg13
S'services.audioflinger.FastMixer.c'
p335
sg15
(lp336
sg17
(lp337
sg19
(lp338
sg21
I0
sba(iArchitecture
Entity
p339
(dp340
g11
(lp341
sg13
S'services.audioflinger.FastMixer.h'
p342
sg15
(lp343
sg17
(lp344
sg19
(lp345
sg21
I0
sbasg29
(lp346
g335
ag342
asg21
I0
sg31
S'services.audioflinger.FastMixer.ch'
p347
sba(iArchitecture
Cluster
p348
(dp349
g7
(lp350
(iArchitecture
Entity
p351
(dp352
g11
(lp353
sg13
S'services.audioflinger.FastMixerDumpState.c'
p354
sg15
(lp355
sg17
(lp356
sg19
(lp357
sg21
I0
sba(iArchitecture
Entity
p358
(dp359
g11
(lp360
sg13
S'services.audioflinger.FastMixerDumpState.h'
p361
sg15
(lp362
sg17
(lp363
sg19
(lp364
sg21
I0
sbasg29
(lp365
g354
ag361
asg21
I0
sg31
S'services.audioflinger.FastMixerDumpState.ch'
p366
sba(iArchitecture
Cluster
p367
(dp368
g7
(lp369
(iArchitecture
Entity
p370
(dp371
g11
(lp372
sg13
S'services.audioflinger.FastMixerState.c'
p373
sg15
(lp374
sg17
(lp375
sg19
(lp376
sg21
I0
sba(iArchitecture
Entity
p377
(dp378
g11
(lp379
sg13
S'services.audioflinger.FastMixerState.h'
p380
sg15
(lp381
sg17
(lp382
sg19
(lp383
sg21
I0
sbasg29
(lp384
g373
ag380
asg21
I0
sg31
S'services.audioflinger.FastMixerState.ch'
p385
sba(iArchitecture
Cluster
p386
(dp387
g7
(lp388
(iArchitecture
Entity
p389
(dp390
g11
(lp391
sg13
S'services.audioflinger.FastThread.c'
p392
sg15
(lp393
sg17
(lp394
sg19
(lp395
sg21
I0
sba(iArchitecture
Entity
p396
(dp397
g11
(lp398
sg13
S'services.audioflinger.FastThread.h'
p399
sg15
(lp400
sg17
(lp401
sg19
(lp402
sg21
I0
sbasg29
(lp403
g392
ag399
asg21
I0
sg31
S'services.audioflinger.FastThread.ch'
p404
sba(iArchitecture
Cluster
p405
(dp406
g7
(lp407
(iArchitecture
Entity
p408
(dp409
g11
(lp410
sg13
S'services.audioflinger.FastThreadDumpState.c'
p411
sg15
(lp412
sg17
(lp413
sg19
(lp414
sg21
I0
sba(iArchitecture
Entity
p415
(dp416
g11
(lp417
sg13
S'services.audioflinger.FastThreadDumpState.h'
p418
sg15
(lp419
sg17
(lp420
sg19
(lp421
sg21
I0
sbasg29
(lp422
g411
ag418
asg21
I0
sg31
S'services.audioflinger.FastThreadDumpState.ch'
p423
sba(iArchitecture
Cluster
p424
(dp425
g7
(lp426
(iArchitecture
Entity
p427
(dp428
g11
(lp429
sg13
S'services.audioflinger.FastThreadState.c'
p430
sg15
(lp431
sg17
(lp432
sg19
(lp433
sg21
I0
sba(iArchitecture
Entity
p434
(dp435
g11
(lp436
sg13
S'services.audioflinger.FastThreadState.h'
p437
sg15
(lp438
sg17
(lp439
sg19
(lp440
sg21
I0
sbasg29
(lp441
g430
ag437
asg21
I0
sg31
S'services.audioflinger.FastThreadState.ch'
p442
sba(iArchitecture
Cluster
p443
(dp444
g7
(lp445
(iArchitecture
Entity
p446
(dp447
g11
(lp448
sg13
S'services.audioflinger.ISchedulingPolicyService.c'
p449
sg15
(lp450
sg17
(lp451
sg19
(lp452
sg21
I0
sba(iArchitecture
Entity
p453
(dp454
g11
(lp455
sg13
S'services.audioflinger.ISchedulingPolicyService.h'
p456
sg15
(lp457
sg17
(lp458
sg19
(lp459
sg21
I0
sbasg29
(lp460
g449
ag456
asg21
I0
sg31
S'services.audioflinger.ISchedulingPolicyService.ch'
p461
sba(iArchitecture
Cluster
p462
(dp463
g7
(lp464
(iArchitecture
Entity
p465
(dp466
g11
(lp467
sg13
S'services.audioflinger.PatchPanel.c'
p468
sg15
(lp469
sg17
(lp470
sg19
(lp471
sg21
I0
sba(iArchitecture
Entity
p472
(dp473
g11
(lp474
sg13
S'services.audioflinger.PatchPanel.h'
p475
sg15
(lp476
sg17
(lp477
sg19
(lp478
sg21
I0
sbasg29
(lp479
g468
ag475
asg21
I0
sg31
S'services.audioflinger.PatchPanel.ch'
p480
sba(iArchitecture
Cluster
p481
(dp482
g7
(lp483
(iArchitecture
Entity
p484
(dp485
g11
(lp486
sg13
S'services.audioflinger.SchedulingPolicyService.c'
p487
sg15
(lp488
sg17
(lp489
sg19
(lp490
sg21
I0
sba(iArchitecture
Entity
p491
(dp492
g11
(lp493
sg13
S'services.audioflinger.SchedulingPolicyService.h'
p494
sg15
(lp495
sg17
(lp496
sg19
(lp497
sg21
I0
sbasg29
(lp498
g487
ag494
asg21
I0
sg31
S'services.audioflinger.SchedulingPolicyService.ch'
p499
sba(iArchitecture
Cluster
p500
(dp501
g7
(lp502
(iArchitecture
Entity
p503
(dp504
g11
(lp505
sg13
S'services.audioflinger.ServiceUtilities.c'
p506
sg15
(lp507
sg17
(lp508
sg19
(lp509
sg21
I0
sba(iArchitecture
Entity
p510
(dp511
g11
(lp512
sg13
S'services.audioflinger.ServiceUtilities.h'
p513
sg15
(lp514
sg17
(lp515
sg19
(lp516
sg21
I0
sbasg29
(lp517
g506
ag513
asg21
I0
sg31
S'services.audioflinger.ServiceUtilities.ch'
p518
sba(iArchitecture
Cluster
p519
(dp520
g7
(lp521
(iArchitecture
Entity
p522
(dp523
g11
(lp524
sg13
S'services.audioflinger.SpdifStreamOut.c'
p525
sg15
(lp526
sg17
(lp527
sg19
(lp528
sg21
I0
sba(iArchitecture
Entity
p529
(dp530
g11
(lp531
sg13
S'services.audioflinger.SpdifStreamOut.h'
p532
sg15
(lp533
sg17
(lp534
sg19
(lp535
sg21
I0
sbasg29
(lp536
g525
ag532
asg21
I0
sg31
S'services.audioflinger.SpdifStreamOut.ch'
p537
sba(iArchitecture
Cluster
p538
(dp539
g7
(lp540
(iArchitecture
Entity
p541
(dp542
g11
(lp543
sg13
S'services.audioflinger.StateQueue.c'
p544
sg15
(lp545
sg17
(lp546
sg19
(lp547
sg21
I0
sba(iArchitecture
Entity
p548
(dp549
g11
(lp550
sg13
S'services.audioflinger.StateQueue.h'
p551
sg15
(lp552
sg17
(lp553
sg19
(lp554
sg21
I0
sbasg29
(lp555
g544
ag551
asg21
I0
sg31
S'services.audioflinger.StateQueue.ch'
p556
sba(iArchitecture
Cluster
p557
(dp558
g7
(lp559
(iArchitecture
Entity
p560
(dp561
g11
(lp562
sg13
S'services.audioflinger.StateQueueInstantiations.c'
p563
sg15
(lp564
sg17
(lp565
sg19
(lp566
sg21
I0
sba(iArchitecture
Entity
p567
(dp568
g11
(lp569
sg13
S'services.audioflinger.Threads.c'
p570
sg15
(lp571
sg17
(lp572
sg19
(lp573
sg21
I0
sba(iArchitecture
Entity
p574
(dp575
g11
(lp576
sg13
S'services.audioflinger.Threads.h'
p577
sg15
(lp578
sg17
(lp579
sg19
(lp580
sg21
I0
sba(iArchitecture
Entity
p581
(dp582
g11
(lp583
sg13
S'services.audioflinger.Tracks.c'
p584
sg15
(lp585
sg17
(lp586
sg19
(lp587
sg21
I0
sbasg29
(lp588
g563
ag570
ag577
ag584
asg21
I0
sg31
S'services.audioflinger.Threads.ch'
p589
sba(iArchitecture
Cluster
p590
(dp591
g7
(lp592
(iArchitecture
Entity
p593
(dp594
g11
(lp595
sg13
S'services.audioflinger.audio-resampler.AudioResamplerCoefficients.c'
p596
sg15
(lp597
sg17
(lp598
sg19
(lp599
sg21
I0
sba(iArchitecture
Entity
p600
(dp601
g11
(lp602
sg13
S'services.audioflinger.audio-resampler.filter_coefficients.h'
p603
sg15
(lp604
sg17
(lp605
sg19
(lp606
sg21
I0
sbasg29
(lp607
g596
ag603
asg21
I0
sg31
S'services.audioflinger.audio-resampler.AudioResamplerCoefficients.ss'
p608
sba(iArchitecture
Cluster
p609
(dp610
g7
(lp611
(iArchitecture
Entity
p612
(dp613
g11
(lp614
sg13
S'services.audioflinger.Configuration.h'
p615
sg15
(lp616
sg17
(lp617
sg19
(lp618
sg21
I0
sbasg29
(lp619
g615
asg21
I0
sg31
S'services.audiopolicy.service.AudioPolicyService.ch'
p620
sba(iArchitecture
Cluster
p621
(dp622
g7
(lp623
(iArchitecture
Entity
p624
(dp625
g11
(lp626
sg13
S'services.audioflinger.PlaybackTracks.h'
p627
sg15
(lp628
sg17
(lp629
sg19
(lp630
sg21
I0
sba(iArchitecture
Entity
p631
(dp632
g11
(lp633
sg13
S'services.audioflinger.RecordTracks.h'
p634
sg15
(lp635
sg17
(lp636
sg19
(lp637
sg21
I0
sba(iArchitecture
Entity
p638
(dp639
g11
(lp640
sg13
S'services.audioflinger.TrackBase.h'
p641
sg15
(lp642
sg17
(lp643
sg19
(lp644
sg21
I0
sba(iArchitecture
Entity
p645
(dp646
g11
(lp647
sg13
S'services.audioflinger.tests.test-mixer.c'
p648
sg15
(lp649
sg17
(lp650
sg19
(lp651
sg21
I0
sba(iArchitecture
Entity
p652
(dp653
g11
(lp654
sg13
S'services.audioflinger.tests.test_utils.h'
p655
sg15
(lp656
sg17
(lp657
sg19
(lp658
sg21
I0
sbasg29
(lp659
g627
ag634
ag641
ag648
ag655
asg21
I0
sg31
S'services.radio.RadioService.ch'
p660
sba(iArchitecture
Cluster
p661
(dp662
g7
(lp663
(iArchitecture
Entity
p664
(dp665
g11
(lp666
sg13
S'services.audioflinger.test-resample.c'
p667
sg15
(lp668
sg17
(lp669
sg19
(lp670
sg21
I0
sba(iArchitecture
Entity
p671
(dp672
g11
(lp673
sg13
S'services.audioflinger.tests.resampler_tests.c'
p674
sg15
(lp675
sg17
(lp676
sg19
(lp677
sg21
I0
sbasg29
(lp678
g667
ag674
asg21
I0
sg31
S'services.soundtrigger.SoundTriggerHwService.ch'
p679
sbasS'target_sub'
p680
S'services.audioflinger'
p681
sg29
(lp682
sS'is_component_arch'
p683
I00
sg31
S'6.0.0_r1'
p684
sba(iArchitecture
Architecture
p685
(dp686
g3
(lp687
(iArchitecture
Cluster
p688
(dp689
g7
(lp690
(iArchitecture
Entity
p691
(dp692
g11
(lp693
sg13
S'services.audioflinger.AudioFlinger.c'
p694
sg15
(lp695
sg17
(lp696
sg19
(lp697
sg21
I0
sba(iArchitecture
Entity
p698
(dp699
g11
(lp700
sg13
S'services.audioflinger.AudioFlinger.h'
p701
sg15
(lp702
sg17
(lp703
sg19
(lp704
sg21
I0
sbasg29
(lp705
g694
ag701
asg21
I0
sg31
S'services.audioflinger.AudioFlinger.ch'
p706
sba(iArchitecture
Cluster
p707
(dp708
g7
(lp709
(iArchitecture
Entity
p710
(dp711
g11
(lp712
sg13
S'services.audioflinger.AudioHwDevice.c'
p713
sg15
(lp714
sg17
(lp715
sg19
(lp716
sg21
I0
sba(iArchitecture
Entity
p717
(dp718
g11
(lp719
sg13
S'services.audioflinger.AudioHwDevice.h'
p720
sg15
(lp721
sg17
(lp722
sg19
(lp723
sg21
I0
sbasg29
(lp724
g713
ag720
asg21
I0
sg31
S'services.audioflinger.AudioHwDevice.ch'
p725
sba(iArchitecture
Cluster
p726
(dp727
g7
(lp728
(iArchitecture
Entity
p729
(dp730
g11
(lp731
sg13
S'services.audioflinger.AudioMixer.c'
p732
sg15
(lp733
sg17
(lp734
sg19
(lp735
sg21
I0
sba(iArchitecture
Entity
p736
(dp737
g11
(lp738
sg13
S'services.audioflinger.AudioMixer.h'
p739
sg15
(lp740
sg17
(lp741
sg19
(lp742
sg21
I0
sba(iArchitecture
Entity
p743
(dp744
g11
(lp745
sg13
S'services.audioflinger.AudioMixerOps.h'
p746
sg15
(lp747
sg17
(lp748
sg19
(lp749
sg21
I0
sbasg29
(lp750
g732
ag739
ag746
asg21
I0
sg31
S'services.audioflinger.AudioMixer.ch'
p751
sba(iArchitecture
Cluster
p752
(dp753
g7
(lp754
(iArchitecture
Entity
p755
(dp756
g11
(lp757
sg13
S'services.audioflinger.AudioResampler.c'
p758
sg15
(lp759
sg17
(lp760
sg19
(lp761
sg21
I0
sba(iArchitecture
Entity
p762
(dp763
g11
(lp764
sg13
S'services.audioflinger.AudioResampler.h'
p765
sg15
(lp766
sg17
(lp767
sg19
(lp768
sg21
I0
sbasg29
(lp769
g758
ag765
asg21
I0
sg31
S'services.audioflinger.AudioResampler.ch'
p770
sba(iArchitecture
Cluster
p771
(dp772
g7
(lp773
(iArchitecture
Entity
p774
(dp775
g11
(lp776
sg13
S'services.audioflinger.AudioResamplerCubic.c'
p777
sg15
(lp778
sg17
(lp779
sg19
(lp780
sg21
I0
sba(iArchitecture
Entity
p781
(dp782
g11
(lp783
sg13
S'services.audioflinger.AudioResamplerCubic.h'
p784
sg15
(lp785
sg17
(lp786
sg19
(lp787
sg21
I0
sbasg29
(lp788
g777
ag784
asg21
I0
sg31
S'services.audioflinger.AudioResamplerCubic.ch'
p789
sba(iArchitecture
Cluster
p790
(dp791
g7
(lp792
(iArchitecture
Entity
p793
(dp794
g11
(lp795
sg13
S'services.audioflinger.AudioResamplerDyn.c'
p796
sg15
(lp797
sg17
(lp798
sg19
(lp799
sg21
I0
sba(iArchitecture
Entity
p800
(dp801
g11
(lp802
sg13
S'services.audioflinger.AudioResamplerDyn.h'
p803
sg15
(lp804
sg17
(lp805
sg19
(lp806
sg21
I0
sba(iArchitecture
Entity
p807
(dp808
g11
(lp809
sg13
S'services.audioflinger.AudioResamplerFirGen.h'
p810
sg15
(lp811
sg17
(lp812
sg19
(lp813
sg21
I0
sba(iArchitecture
Entity
p814
(dp815
g11
(lp816
sg13
S'services.audioflinger.AudioResamplerFirOps.h'
p817
sg15
(lp818
sg17
(lp819
sg19
(lp820
sg21
I0
sba(iArchitecture
Entity
p821
(dp822
g11
(lp823
sg13
S'services.audioflinger.AudioResamplerFirProcess.h'
p824
sg15
(lp825
sg17
(lp826
sg19
(lp827
sg21
I0
sba(iArchitecture
Entity
p828
(dp829
g11
(lp830
sg13
S'services.audioflinger.AudioResamplerFirProcessNeon.h'
p831
sg15
(lp832
sg17
(lp833
sg19
(lp834
sg21
I0
sbasg29
(lp835
g796
ag803
ag810
ag817
ag824
ag831
asg21
I0
sg31
S'services.audioflinger.AudioResamplerDyn.ch'
p836
sba(iArchitecture
Cluster
p837
(dp838
g7
(lp839
(iArchitecture
Entity
p840
(dp841
g11
(lp842
sg13
S'services.audioflinger.AudioResamplerSinc.c'
p843
sg15
(lp844
sg17
(lp845
sg19
(lp846
sg21
I0
sba(iArchitecture
Entity
p847
(dp848
g11
(lp849
sg13
S'services.audioflinger.AudioResamplerSinc.h'
p850
sg15
(lp851
sg17
(lp852
sg19
(lp853
sg21
I0
sba(iArchitecture
Entity
p854
(dp855
g11
(lp856
sg13
S'services.audioflinger.AudioResamplerSincDown.h'
p857
sg15
(lp858
sg17
(lp859
sg19
(lp860
sg21
I0
sba(iArchitecture
Entity
p861
(dp862
g11
(lp863
sg13
S'services.audioflinger.AudioResamplerSincUp.h'
p864
sg15
(lp865
sg17
(lp866
sg19
(lp867
sg21
I0
sbasg29
(lp868
g843
ag850
ag857
ag864
asg21
I0
sg31
S'services.audioflinger.AudioResamplerSinc.ch'
p869
sba(iArchitecture
Cluster
p870
(dp871
g7
(lp872
(iArchitecture
Entity
p873
(dp874
g11
(lp875
sg13
S'services.audioflinger.AudioStreamOut.c'
p876
sg15
(lp877
sg17
(lp878
sg19
(lp879
sg21
I0
sba(iArchitecture
Entity
p880
(dp881
g11
(lp882
sg13
S'services.audioflinger.AudioStreamOut.h'
p883
sg15
(lp884
sg17
(lp885
sg19
(lp886
sg21
I0
sbasg29
(lp887
g876
ag883
asg21
I0
sg31
S'services.audioflinger.AudioStreamOut.ch'
p888
sba(iArchitecture
Cluster
p889
(dp890
g7
(lp891
(iArchitecture
Entity
p892
(dp893
g11
(lp894
sg13
S'services.audioflinger.AudioWatchdog.c'
p895
sg15
(lp896
sg17
(lp897
sg19
(lp898
sg21
I0
sba(iArchitecture
Entity
p899
(dp900
g11
(lp901
sg13
S'services.audioflinger.AudioWatchdog.h'
p902
sg15
(lp903
sg17
(lp904
sg19
(lp905
sg21
I0
sbasg29
(lp906
g895
ag902
asg21
I0
sg31
S'services.audioflinger.AudioWatchdog.ch'
p907
sba(iArchitecture
Cluster
p908
(dp909
g7
(lp910
(iArchitecture
Entity
p911
(dp912
g11
(lp913
sg13
S'services.audioflinger.BufferProviders.c'
p914
sg15
(lp915
sg17
(lp916
sg19
(lp917
sg21
I0
sba(iArchitecture
Entity
p918
(dp919
g11
(lp920
sg13
S'services.audioflinger.BufferProviders.h'
p921
sg15
(lp922
sg17
(lp923
sg19
(lp924
sg21
I0
sbasg29
(lp925
g914
ag921
asg21
I0
sg31
S'services.audioflinger.BufferProviders.ch'
p926
sba(iArchitecture
Cluster
p927
(dp928
g7
(lp929
(iArchitecture
Entity
p930
(dp931
g11
(lp932
sg13
S'services.audioflinger.Effects.c'
p933
sg15
(lp934
sg17
(lp935
sg19
(lp936
sg21
I0
sba(iArchitecture
Entity
p937
(dp938
g11
(lp939
sg13
S'services.audioflinger.Effects.h'
p940
sg15
(lp941
sg17
(lp942
sg19
(lp943
sg21
I0
sbasg29
(lp944
g933
ag940
asg21
I0
sg31
S'services.audioflinger.Effects.ch'
p945
sba(iArchitecture
Cluster
p946
(dp947
g7
(lp948
(iArchitecture
Entity
p949
(dp950
g11
(lp951
sg13
S'services.audioflinger.FastCapture.c'
p952
sg15
(lp953
sg17
(lp954
sg19
(lp955
sg21
I0
sba(iArchitecture
Entity
p956
(dp957
g11
(lp958
sg13
S'services.audioflinger.FastCapture.h'
p959
sg15
(lp960
sg17
(lp961
sg19
(lp962
sg21
I0
sbasg29
(lp963
g952
ag959
asg21
I0
sg31
S'services.audioflinger.FastCapture.ch'
p964
sba(iArchitecture
Cluster
p965
(dp966
g7
(lp967
(iArchitecture
Entity
p968
(dp969
g11
(lp970
sg13
S'services.audioflinger.FastCaptureDumpState.c'
p971
sg15
(lp972
sg17
(lp973
sg19
(lp974
sg21
I0
sba(iArchitecture
Entity
p975
(dp976
g11
(lp977
sg13
S'services.audioflinger.FastCaptureDumpState.h'
p978
sg15
(lp979
sg17
(lp980
sg19
(lp981
sg21
I0
sbasg29
(lp982
g971
ag978
asg21
I0
sg31
S'services.audioflinger.FastCaptureDumpState.ch'
p983
sba(iArchitecture
Cluster
p984
(dp985
g7
(lp986
(iArchitecture
Entity
p987
(dp988
g11
(lp989
sg13
S'services.audioflinger.FastCaptureState.c'
p990
sg15
(lp991
sg17
(lp992
sg19
(lp993
sg21
I0
sba(iArchitecture
Entity
p994
(dp995
g11
(lp996
sg13
S'services.audioflinger.FastCaptureState.h'
p997
sg15
(lp998
sg17
(lp999
sg19
(lp1000
sg21
I0
sbasg29
(lp1001
g990
ag997
asg21
I0
sg31
S'services.audioflinger.FastCaptureState.ch'
p1002
sba(iArchitecture
Cluster
p1003
(dp1004
g7
(lp1005
(iArchitecture
Entity
p1006
(dp1007
g11
(lp1008
sg13
S'services.audioflinger.FastMixer.c'
p1009
sg15
(lp1010
sg17
(lp1011
sg19
(lp1012
sg21
I0
sba(iArchitecture
Entity
p1013
(dp1014
g11
(lp1015
sg13
S'services.audioflinger.FastMixer.h'
p1016
sg15
(lp1017
sg17
(lp1018
sg19
(lp1019
sg21
I0
sbasg29
(lp1020
g1009
ag1016
asg21
I0
sg31
S'services.audioflinger.FastMixer.ch'
p1021
sba(iArchitecture
Cluster
p1022
(dp1023
g7
(lp1024
(iArchitecture
Entity
p1025
(dp1026
g11
(lp1027
sg13
S'services.audioflinger.FastMixerDumpState.c'
p1028
sg15
(lp1029
sg17
(lp1030
sg19
(lp1031
sg21
I0
sba(iArchitecture
Entity
p1032
(dp1033
g11
(lp1034
sg13
S'services.audioflinger.FastMixerDumpState.h'
p1035
sg15
(lp1036
sg17
(lp1037
sg19
(lp1038
sg21
I0
sbasg29
(lp1039
g1028
ag1035
asg21
I0
sg31
S'services.audioflinger.FastMixerDumpState.ch'
p1040
sba(iArchitecture
Cluster
p1041
(dp1042
g7
(lp1043
(iArchitecture
Entity
p1044
(dp1045
g11
(lp1046
sg13
S'services.audioflinger.FastMixerState.c'
p1047
sg15
(lp1048
sg17
(lp1049
sg19
(lp1050
sg21
I0
sba(iArchitecture
Entity
p1051
(dp1052
g11
(lp1053
sg13
S'services.audioflinger.FastMixerState.h'
p1054
sg15
(lp1055
sg17
(lp1056
sg19
(lp1057
sg21
I0
sbasg29
(lp1058
g1047
ag1054
asg21
I0
sg31
S'services.audioflinger.FastMixerState.ch'
p1059
sba(iArchitecture
Cluster
p1060
(dp1061
g7
(lp1062
(iArchitecture
Entity
p1063
(dp1064
g11
(lp1065
sg13
S'services.audioflinger.FastThread.c'
p1066
sg15
(lp1067
sg17
(lp1068
sg19
(lp1069
sg21
I0
sba(iArchitecture
Entity
p1070
(dp1071
g11
(lp1072
sg13
S'services.audioflinger.FastThread.h'
p1073
sg15
(lp1074
sg17
(lp1075
sg19
(lp1076
sg21
I0
sbasg29
(lp1077
g1066
ag1073
asg21
I0
sg31
S'services.audioflinger.FastThread.ch'
p1078
sba(iArchitecture
Cluster
p1079
(dp1080
g7
(lp1081
(iArchitecture
Entity
p1082
(dp1083
g11
(lp1084
sg13
S'services.audioflinger.FastThreadDumpState.c'
p1085
sg15
(lp1086
sg17
(lp1087
sg19
(lp1088
sg21
I0
sba(iArchitecture
Entity
p1089
(dp1090
g11
(lp1091
sg13
S'services.audioflinger.FastThreadDumpState.h'
p1092
sg15
(lp1093
sg17
(lp1094
sg19
(lp1095
sg21
I0
sbasg29
(lp1096
g1085
ag1092
asg21
I0
sg31
S'services.audioflinger.FastThreadDumpState.ch'
p1097
sba(iArchitecture
Cluster
p1098
(dp1099
g7
(lp1100
(iArchitecture
Entity
p1101
(dp1102
g11
(lp1103
sg13
S'services.audioflinger.FastThreadState.c'
p1104
sg15
(lp1105
sg17
(lp1106
sg19
(lp1107
sg21
I0
sba(iArchitecture
Entity
p1108
(dp1109
g11
(lp1110
sg13
S'services.audioflinger.FastThreadState.h'
p1111
sg15
(lp1112
sg17
(lp1113
sg19
(lp1114
sg21
I0
sbasg29
(lp1115
g1104
ag1111
asg21
I0
sg31
S'services.audioflinger.FastThreadState.ch'
p1116
sba(iArchitecture
Cluster
p1117
(dp1118
g7
(lp1119
(iArchitecture
Entity
p1120
(dp1121
g11
(lp1122
sg13
S'services.audioflinger.PatchPanel.c'
p1123
sg15
(lp1124
sg17
(lp1125
sg19
(lp1126
sg21
I0
sba(iArchitecture
Entity
p1127
(dp1128
g11
(lp1129
sg13
S'services.audioflinger.PatchPanel.h'
p1130
sg15
(lp1131
sg17
(lp1132
sg19
(lp1133
sg21
I0
sbasg29
(lp1134
g1123
ag1130
asg21
I0
sg31
S'services.audioflinger.PatchPanel.ch'
p1135
sba(iArchitecture
Cluster
p1136
(dp1137
g7
(lp1138
(iArchitecture
Entity
p1139
(dp1140
g11
(lp1141
sg13
S'services.audioflinger.ServiceUtilities.c'
p1142
sg15
(lp1143
sg17
(lp1144
sg19
(lp1145
sg21
I0
sba(iArchitecture
Entity
p1146
(dp1147
g11
(lp1148
sg13
S'services.audioflinger.ServiceUtilities.h'
p1149
sg15
(lp1150
sg17
(lp1151
sg19
(lp1152
sg21
I0
sbasg29
(lp1153
g1142
ag1149
asg21
I0
sg31
S'services.audioflinger.ServiceUtilities.ch'
p1154
sba(iArchitecture
Cluster
p1155
(dp1156
g7
(lp1157
(iArchitecture
Entity
p1158
(dp1159
g11
(lp1160
sg13
S'services.audioflinger.SpdifStreamOut.c'
p1161
sg15
(lp1162
sg17
(lp1163
sg19
(lp1164
sg21
I0
sba(iArchitecture
Entity
p1165
(dp1166
g11
(lp1167
sg13
S'services.audioflinger.SpdifStreamOut.h'
p1168
sg15
(lp1169
sg17
(lp1170
sg19
(lp1171
sg21
I0
sbasg29
(lp1172
g1161
ag1168
asg21
I0
sg31
S'services.audioflinger.SpdifStreamOut.ch'
p1173
sba(iArchitecture
Cluster
p1174
(dp1175
g7
(lp1176
(iArchitecture
Entity
p1177
(dp1178
g11
(lp1179
sg13
S'services.audioflinger.StateQueue.c'
p1180
sg15
(lp1181
sg17
(lp1182
sg19
(lp1183
sg21
I0
sba(iArchitecture
Entity
p1184
(dp1185
g11
(lp1186
sg13
S'services.audioflinger.StateQueue.h'
p1187
sg15
(lp1188
sg17
(lp1189
sg19
(lp1190
sg21
I0
sbasg29
(lp1191
g1180
ag1187
asg21
I0
sg31
S'services.audioflinger.StateQueue.ch'
p1192
sba(iArchitecture
Cluster
p1193
(dp1194
g7
(lp1195
(iArchitecture
Entity
p1196
(dp1197
g11
(lp1198
sg13
S'services.audioflinger.AutoPark.h'
p1199
sg15
(lp1200
sg17
(lp1201
sg19
(lp1202
sg21
I0
sba(iArchitecture
Entity
p1203
(dp1204
g11
(lp1205
sg13
S'services.audioflinger.LinearMap.h'
p1206
sg15
(lp1207
sg17
(lp1208
sg19
(lp1209
sg21
I0
sba(iArchitecture
Entity
p1210
(dp1211
g11
(lp1212
sg13
S'services.audioflinger.StateQueueInstantiations.c'
p1213
sg15
(lp1214
sg17
(lp1215
sg19
(lp1216
sg21
I0
sba(iArchitecture
Entity
p1217
(dp1218
g11
(lp1219
sg13
S'services.audioflinger.Threads.c'
p1220
sg15
(lp1221
sg17
(lp1222
sg19
(lp1223
sg21
I0
sba(iArchitecture
Entity
p1224
(dp1225
g11
(lp1226
sg13
S'services.audioflinger.Threads.h'
p1227
sg15
(lp1228
sg17
(lp1229
sg19
(lp1230
sg21
I0
sba(iArchitecture
Entity
p1231
(dp1232
g11
(lp1233
sg13
S'services.audioflinger.Tracks.c'
p1234
sg15
(lp1235
sg17
(lp1236
sg19
(lp1237
sg21
I0
sbasg29
(lp1238
g1199
ag1206
ag1213
ag1220
ag1227
ag1234
asg21
I0
sg31
S'services.audioflinger.Threads.ch'
p1239
sba(iArchitecture
Cluster
p1240
(dp1241
g7
(lp1242
(iArchitecture
Entity
p1243
(dp1244
g11
(lp1245
sg13
S'services.audioflinger.audio-resampler.AudioResamplerCoefficients.c'
p1246
sg15
(lp1247
sg17
(lp1248
sg19
(lp1249
sg21
I0
sba(iArchitecture
Entity
p1250
(dp1251
g11
(lp1252
sg13
S'services.audioflinger.audio-resampler.filter_coefficients.h'
p1253
sg15
(lp1254
sg17
(lp1255
sg19
(lp1256
sg21
I0
sbasg29
(lp1257
g1246
ag1253
asg21
I0
sg31
S'services.audioflinger.audio-resampler.AudioResamplerCoefficients.ss'
p1258
sba(iArchitecture
Cluster
p1259
(dp1260
g7
(lp1261
(iArchitecture
Entity
p1262
(dp1263
g11
(lp1264
sg13
S'services.audioflinger.Configuration.h'
p1265
sg15
(lp1266
sg17
(lp1267
sg19
(lp1268
sg21
I0
sbasg29
(lp1269
g1265
asg21
I0
sg31
S'services.audiopolicy.service.AudioPolicyService.ch'
p1270
sba(iArchitecture
Cluster
p1271
(dp1272
g7
(lp1273
(iArchitecture
Entity
p1274
(dp1275
g11
(lp1276
sg13
S'services.audioflinger.PlaybackTracks.h'
p1277
sg15
(lp1278
sg17
(lp1279
sg19
(lp1280
sg21
I0
sba(iArchitecture
Entity
p1281
(dp1282
g11
(lp1283
sg13
S'services.audioflinger.RecordTracks.h'
p1284
sg15
(lp1285
sg17
(lp1286
sg19
(lp1287
sg21
I0
sba(iArchitecture
Entity
p1288
(dp1289
g11
(lp1290
sg13
S'services.audioflinger.TrackBase.h'
p1291
sg15
(lp1292
sg17
(lp1293
sg19
(lp1294
sg21
I0
sba(iArchitecture
Entity
p1295
(dp1296
g11
(lp1297
sg13
S'services.audioflinger.tests.test-mixer.c'
p1298
sg15
(lp1299
sg17
(lp1300
sg19
(lp1301
sg21
I0
sba(iArchitecture
Entity
p1302
(dp1303
g11
(lp1304
sg13
S'services.audioflinger.tests.test_utils.h'
p1305
sg15
(lp1306
sg17
(lp1307
sg19
(lp1308
sg21
I0
sbasg29
(lp1309
g1277
ag1284
ag1291
ag1298
ag1305
asg21
I0
sg31
S'services.radio.RadioService.ch'
p1310
sba(iArchitecture
Cluster
p1311
(dp1312
g7
(lp1313
(iArchitecture
Entity
p1314
(dp1315
g11
(lp1316
sg13
S'services.audioflinger.test-resample.c'
p1317
sg15
(lp1318
sg17
(lp1319
sg19
(lp1320
sg21
I0
sba(iArchitecture
Entity
p1321
(dp1322
g11
(lp1323
sg13
S'services.audioflinger.tests.resampler_tests.c'
p1324
sg15
(lp1325
sg17
(lp1326
sg19
(lp1327
sg21
I0
sbasg29
(lp1328
g1317
ag1324
asg21
I0
sg31
S'services.soundtrigger.SoundTriggerHwService.ch'
p1329
sbasg680
g681
sg29
(lp1330
sg683
I00
sg31
S'7.0.0_r1'
p1331
sba.