(lp0
(iArchitecture
Architecture
p1
(dp2
S'clusters'
p3
(lp4
(iArchitecture
Cluster
p5
(dp6
S'entities'
p7
(lp8
(iArchitecture
Entity
p9
(dp10
S'issue_ids'
p11
(lp12
sS'name'
p13
S'media.libmediaplayerservice.ActivityManager.c'
p14
sS'descs'
p15
(lp16
sS'labels'
p17
(lp18
sS'titles'
p19
(lp20
sS'change'
p21
I0
sba(iArchitecture
Entity
p22
(dp23
g11
(lp24
sg13
S'media.libmediaplayerservice.ActivityManager.h'
p25
sg15
(lp26
sg17
(lp27
sg19
(lp28
sg21
I0
sbasS'classes'
p29
(lp30
g14
ag25
asg21
I0
sS'label'
p31
S'media.libmediaplayerservice.ActivityManager.ch'
p32
sba(iArchitecture
Cluster
p33
(dp34
g7
(lp35
(iArchitecture
Entity
p36
(dp37
g11
(lp38
sg13
S'media.libmediaplayerservice.Crypto.c'
p39
sg15
(lp40
sg17
(lp41
sg19
(lp42
sg21
I0
sba(iArchitecture
Entity
p43
(dp44
g11
(lp45
sg13
S'media.libmediaplayerservice.Crypto.h'
p46
sg15
(lp47
sg17
(lp48
sg19
(lp49
sg21
I0
sbasg29
(lp50
g39
ag46
asg21
I0
sg31
S'media.libmediaplayerservice.Crypto.ch'
p51
sba(iArchitecture
Cluster
p52
(dp53
g7
(lp54
(iArchitecture
Entity
p55
(dp56
g11
(lp57
sg13
S'media.libmediaplayerservice.Drm.c'
p58
sg15
(lp59
sg17
(lp60
sg19
(lp61
sg21
I0
sba(iArchitecture
Entity
p62
(dp63
g11
(lp64
sg13
S'media.libmediaplayerservice.Drm.h'
p65
sg15
(lp66
sg17
(lp67
sg19
(lp68
sg21
I0
sbasg29
(lp69
g58
ag65
asg21
I0
sg31
S'media.libmediaplayerservice.Drm.ch'
p70
sba(iArchitecture
Cluster
p71
(dp72
g7
(lp73
(iArchitecture
Entity
p74
(dp75
g11
(lp76
sg13
S'media.libmediaplayerservice.DrmSessionManager.c'
p77
sg15
(lp78
sg17
(lp79
sg19
(lp80
sg21
I0
sba(iArchitecture
Entity
p81
(dp82
g11
(lp83
sg13
S'media.libmediaplayerservice.DrmSessionManager.h'
p84
sg15
(lp85
sg17
(lp86
sg19
(lp87
sg21
I0
sbasg29
(lp88
g77
ag84
asg21
I0
sg31
S'media.libmediaplayerservice.DrmSessionManager.ch'
p89
sba(iArchitecture
Cluster
p90
(dp91
g7
(lp92
(iArchitecture
Entity
p93
(dp94
g11
(lp95
sg13
S'media.libmediaplayerservice.HDCP.c'
p96
sg15
(lp97
sg17
(lp98
sg19
(lp99
sg21
I0
sba(iArchitecture
Entity
p100
(dp101
g11
(lp102
sg13
S'media.libmediaplayerservice.HDCP.h'
p103
sg15
(lp104
sg17
(lp105
sg19
(lp106
sg21
I0
sbasg29
(lp107
g96
ag103
asg21
I0
sg31
S'media.libmediaplayerservice.HDCP.ch'
p108
sba(iArchitecture
Cluster
p109
(dp110
g7
(lp111
(iArchitecture
Entity
p112
(dp113
g11
(lp114
sg13
S'media.libmediaplayerservice.MediaPlayerFactory.c'
p115
sg15
(lp116
sg17
(lp117
sg19
(lp118
sg21
I0
sba(iArchitecture
Entity
p119
(dp120
g11
(lp121
sg13
S'media.libmediaplayerservice.MediaPlayerFactory.h'
p122
sg15
(lp123
sg17
(lp124
sg19
(lp125
sg21
I0
sbasg29
(lp126
g115
ag122
asg21
I0
sg31
S'media.libmediaplayerservice.MediaPlayerFactory.ch'
p127
sba(iArchitecture
Cluster
p128
(dp129
g7
(lp130
(iArchitecture
Entity
p131
(dp132
g11
(lp133
sg13
S'media.libmediaplayerservice.MediaPlayerService.c'
p134
sg15
(lp135
sg17
(lp136
sg19
(lp137
sg21
I0
sba(iArchitecture
Entity
p138
(dp139
g11
(lp140
sg13
S'media.libmediaplayerservice.MediaPlayerService.h'
p141
sg15
(lp142
sg17
(lp143
sg19
(lp144
sg21
I0
sbasg29
(lp145
g134
ag141
asg21
I0
sg31
S'media.libmediaplayerservice.MediaPlayerService.ch'
p146
sba(iArchitecture
Cluster
p147
(dp148
g7
(lp149
(iArchitecture
Entity
p150
(dp151
g11
(lp152
sg13
S'media.libmediaplayerservice.MediaRecorderClient.c'
p153
sg15
(lp154
sg17
(lp155
sg19
(lp156
sg21
I0
sba(iArchitecture
Entity
p157
(dp158
g11
(lp159
sg13
S'media.libmediaplayerservice.MediaRecorderClient.h'
p160
sg15
(lp161
sg17
(lp162
sg19
(lp163
sg21
I0
sbasg29
(lp164
g153
ag160
asg21
I0
sg31
S'media.libmediaplayerservice.MediaRecorderClient.ch'
p165
sba(iArchitecture
Cluster
p166
(dp167
g7
(lp168
(iArchitecture
Entity
p169
(dp170
g11
(lp171
sg13
S'media.libmediaplayerservice.MetadataRetrieverClient.c'
p172
sg15
(lp173
sg17
(lp174
sg19
(lp175
sg21
I0
sba(iArchitecture
Entity
p176
(dp177
g11
(lp178
sg13
S'media.libmediaplayerservice.MetadataRetrieverClient.h'
p179
sg15
(lp180
sg17
(lp181
sg19
(lp182
sg21
I0
sbasg29
(lp183
g172
ag179
asg21
I0
sg31
S'media.libmediaplayerservice.MetadataRetrieverClient.ch'
p184
sba(iArchitecture
Cluster
p185
(dp186
g7
(lp187
(iArchitecture
Entity
p188
(dp189
g11
(lp190
sg13
S'media.libmediaplayerservice.RemoteDisplay.c'
p191
sg15
(lp192
sg17
(lp193
sg19
(lp194
sg21
I0
sba(iArchitecture
Entity
p195
(dp196
g11
(lp197
sg13
S'media.libmediaplayerservice.RemoteDisplay.h'
p198
sg15
(lp199
sg17
(lp200
sg19
(lp201
sg21
I0
sbasg29
(lp202
g191
ag198
asg21
I0
sg31
S'media.libmediaplayerservice.RemoteDisplay.ch'
p203
sba(iArchitecture
Cluster
p204
(dp205
g7
(lp206
(iArchitecture
Entity
p207
(dp208
g11
(lp209
sg13
S'media.libmediaplayerservice.SharedLibrary.c'
p210
sg15
(lp211
sg17
(lp212
sg19
(lp213
sg21
I0
sba(iArchitecture
Entity
p214
(dp215
g11
(lp216
sg13
S'media.libmediaplayerservice.SharedLibrary.h'
p217
sg15
(lp218
sg17
(lp219
sg19
(lp220
sg21
I0
sbasg29
(lp221
g210
ag217
asg21
I0
sg31
S'media.libmediaplayerservice.SharedLibrary.ch'
p222
sba(iArchitecture
Cluster
p223
(dp224
g7
(lp225
(iArchitecture
Entity
p226
(dp227
g11
(lp228
sg13
S'media.libmediaplayerservice.StagefrightPlayer.c'
p229
sg15
(lp230
sg17
(lp231
sg19
(lp232
sg21
I0
sba(iArchitecture
Entity
p233
(dp234
g11
(lp235
sg13
S'media.libmediaplayerservice.StagefrightPlayer.h'
p236
sg15
(lp237
sg17
(lp238
sg19
(lp239
sg21
I0
sbasg29
(lp240
g229
ag236
asg21
I0
sg31
S'media.libmediaplayerservice.StagefrightPlayer.ch'
p241
sba(iArchitecture
Cluster
p242
(dp243
g7
(lp244
(iArchitecture
Entity
p245
(dp246
g11
(lp247
sg13
S'media.libmediaplayerservice.StagefrightRecorder.c'
p248
sg15
(lp249
sg17
(lp250
sg19
(lp251
sg21
I0
sba(iArchitecture
Entity
p252
(dp253
g11
(lp254
sg13
S'media.libmediaplayerservice.StagefrightRecorder.h'
p255
sg15
(lp256
sg17
(lp257
sg19
(lp258
sg21
I0
sbasg29
(lp259
g248
ag255
asg21
I0
sg31
S'media.libmediaplayerservice.StagefrightRecorder.ch'
p260
sba(iArchitecture
Cluster
p261
(dp262
g7
(lp263
(iArchitecture
Entity
p264
(dp265
g11
(lp266
sg13
S'media.libmediaplayerservice.TestPlayerStub.c'
p267
sg15
(lp268
sg17
(lp269
sg19
(lp270
sg21
I0
sba(iArchitecture
Entity
p271
(dp272
g11
(lp273
sg13
S'media.libmediaplayerservice.TestPlayerStub.h'
p274
sg15
(lp275
sg17
(lp276
sg19
(lp277
sg21
I0
sbasg29
(lp278
g267
ag274
asg21
I0
sg31
S'media.libmediaplayerservice.TestPlayerStub.ch'
p279
sba(iArchitecture
Cluster
p280
(dp281
g7
(lp282
(iArchitecture
Entity
p283
(dp284
g11
(lp285
sg13
S'media.libmediaplayerservice.nuplayer.GenericSource.c'
p286
sg15
(lp287
sg17
(lp288
sg19
(lp289
sg21
I0
sba(iArchitecture
Entity
p290
(dp291
g11
(lp292
sg13
S'media.libmediaplayerservice.nuplayer.GenericSource.h'
p293
sg15
(lp294
sg17
(lp295
sg19
(lp296
sg21
I0
sbasg29
(lp297
g286
ag293
asg21
I0
sg31
S'media.libmediaplayerservice.nuplayer.GenericSource.ch'
p298
sba(iArchitecture
Cluster
p299
(dp300
g7
(lp301
(iArchitecture
Entity
p302
(dp303
g11
(lp304
sg13
S'media.libmediaplayerservice.nuplayer.HTTPLiveSource.c'
p305
sg15
(lp306
sg17
(lp307
sg19
(lp308
sg21
I0
sba(iArchitecture
Entity
p309
(dp310
g11
(lp311
sg13
S'media.libmediaplayerservice.nuplayer.HTTPLiveSource.h'
p312
sg15
(lp313
sg17
(lp314
sg19
(lp315
sg21
I0
sbasg29
(lp316
g305
ag312
asg21
I0
sg31
S'media.libmediaplayerservice.nuplayer.HTTPLiveSource.ch'
p317
sba(iArchitecture
Cluster
p318
(dp319
g7
(lp320
(iArchitecture
Entity
p321
(dp322
g11
(lp323
sg13
S'media.libmediaplayerservice.nuplayer.NuPlayer.c'
p324
sg15
(lp325
sg17
(lp326
sg19
(lp327
sg21
I0
sba(iArchitecture
Entity
p328
(dp329
g11
(lp330
sg13
S'media.libmediaplayerservice.nuplayer.NuPlayer.h'
p331
sg15
(lp332
sg17
(lp333
sg19
(lp334
sg21
I0
sbasg29
(lp335
g324
ag331
asg21
I0
sg31
S'media.libmediaplayerservice.nuplayer.NuPlayer.ch'
p336
sba(iArchitecture
Cluster
p337
(dp338
g7
(lp339
(iArchitecture
Entity
p340
(dp341
g11
(lp342
sg13
S'media.libmediaplayerservice.nuplayer.NuPlayerCCDecoder.c'
p343
sg15
(lp344
sg17
(lp345
sg19
(lp346
sg21
I0
sba(iArchitecture
Entity
p347
(dp348
g11
(lp349
sg13
S'media.libmediaplayerservice.nuplayer.NuPlayerCCDecoder.h'
p350
sg15
(lp351
sg17
(lp352
sg19
(lp353
sg21
I0
sbasg29
(lp354
g343
ag350
asg21
I0
sg31
S'media.libmediaplayerservice.nuplayer.NuPlayerCCDecoder.ch'
p355
sba(iArchitecture
Cluster
p356
(dp357
g7
(lp358
(iArchitecture
Entity
p359
(dp360
g11
(lp361
sg13
S'media.libmediaplayerservice.nuplayer.NuPlayerDecoder.c'
p362
sg15
(lp363
sg17
(lp364
sg19
(lp365
sg21
I0
sba(iArchitecture
Entity
p366
(dp367
g11
(lp368
sg13
S'media.libmediaplayerservice.nuplayer.NuPlayerDecoder.h'
p369
sg15
(lp370
sg17
(lp371
sg19
(lp372
sg21
I0
sbasg29
(lp373
g362
ag369
asg21
I0
sg31
S'media.libmediaplayerservice.nuplayer.NuPlayerDecoder.ch'
p374
sba(iArchitecture
Cluster
p375
(dp376
g7
(lp377
(iArchitecture
Entity
p378
(dp379
g11
(lp380
sg13
S'media.libmediaplayerservice.nuplayer.NuPlayerDecoderBase.c'
p381
sg15
(lp382
sg17
(lp383
sg19
(lp384
sg21
I0
sba(iArchitecture
Entity
p385
(dp386
g11
(lp387
sg13
S'media.libmediaplayerservice.nuplayer.NuPlayerDecoderBase.h'
p388
sg15
(lp389
sg17
(lp390
sg19
(lp391
sg21
I0
sbasg29
(lp392
g381
ag388
asg21
I0
sg31
S'media.libmediaplayerservice.nuplayer.NuPlayerDecoderBase.ch'
p393
sba(iArchitecture
Cluster
p394
(dp395
g7
(lp396
(iArchitecture
Entity
p397
(dp398
g11
(lp399
sg13
S'media.libmediaplayerservice.nuplayer.NuPlayerDecoderPassThrough.c'
p400
sg15
(lp401
sg17
(lp402
sg19
(lp403
sg21
I0
sba(iArchitecture
Entity
p404
(dp405
g11
(lp406
sg13
S'media.libmediaplayerservice.nuplayer.NuPlayerDecoderPassThrough.h'
p407
sg15
(lp408
sg17
(lp409
sg19
(lp410
sg21
I0
sbasg29
(lp411
g400
ag407
asg21
I0
sg31
S'media.libmediaplayerservice.nuplayer.NuPlayerDecoderPassThrough.ch'
p412
sba(iArchitecture
Cluster
p413
(dp414
g7
(lp415
(iArchitecture
Entity
p416
(dp417
g11
(lp418
sg13
S'media.libmediaplayerservice.nuplayer.NuPlayerDriver.c'
p419
sg15
(lp420
sg17
(lp421
sg19
(lp422
sg21
I0
sba(iArchitecture
Entity
p423
(dp424
g11
(lp425
sg13
S'media.libmediaplayerservice.nuplayer.NuPlayerDriver.h'
p426
sg15
(lp427
sg17
(lp428
sg19
(lp429
sg21
I0
sbasg29
(lp430
g419
ag426
asg21
I0
sg31
S'media.libmediaplayerservice.nuplayer.NuPlayerDriver.ch'
p431
sba(iArchitecture
Cluster
p432
(dp433
g7
(lp434
(iArchitecture
Entity
p435
(dp436
g11
(lp437
sg13
S'media.libmediaplayerservice.nuplayer.NuPlayerRenderer.c'
p438
sg15
(lp439
sg17
(lp440
sg19
(lp441
sg21
I0
sba(iArchitecture
Entity
p442
(dp443
g11
(lp444
sg13
S'media.libmediaplayerservice.nuplayer.NuPlayerRenderer.h'
p445
sg15
(lp446
sg17
(lp447
sg19
(lp448
sg21
I0
sbasg29
(lp449
g438
ag445
asg21
I0
sg31
S'media.libmediaplayerservice.nuplayer.NuPlayerRenderer.ch'
p450
sba(iArchitecture
Cluster
p451
(dp452
g7
(lp453
(iArchitecture
Entity
p454
(dp455
g11
(lp456
sg13
S'media.libmediaplayerservice.nuplayer.NuPlayerStreamListener.c'
p457
sg15
(lp458
sg17
(lp459
sg19
(lp460
sg21
I0
sba(iArchitecture
Entity
p461
(dp462
g11
(lp463
sg13
S'media.libmediaplayerservice.nuplayer.NuPlayerStreamListener.h'
p464
sg15
(lp465
sg17
(lp466
sg19
(lp467
sg21
I0
sbasg29
(lp468
g457
ag464
asg21
I0
sg31
S'media.libmediaplayerservice.nuplayer.NuPlayerStreamListener.ch'
p469
sba(iArchitecture
Cluster
p470
(dp471
g7
(lp472
(iArchitecture
Entity
p473
(dp474
g11
(lp475
sg13
S'media.libmediaplayerservice.nuplayer.RTSPSource.c'
p476
sg15
(lp477
sg17
(lp478
sg19
(lp479
sg21
I0
sba(iArchitecture
Entity
p480
(dp481
g11
(lp482
sg13
S'media.libmediaplayerservice.nuplayer.RTSPSource.h'
p483
sg15
(lp484
sg17
(lp485
sg19
(lp486
sg21
I0
sbasg29
(lp487
g476
ag483
asg21
I0
sg31
S'media.libmediaplayerservice.nuplayer.RTSPSource.ch'
p488
sba(iArchitecture
Cluster
p489
(dp490
g7
(lp491
(iArchitecture
Entity
p492
(dp493
g11
(lp494
sg13
S'media.libmediaplayerservice.nuplayer.NuPlayerSource.h'
p495
sg15
(lp496
sg17
(lp497
sg19
(lp498
sg21
I0
sba(iArchitecture
Entity
p499
(dp500
g11
(lp501
sg13
S'media.libmediaplayerservice.nuplayer.StreamingSource.c'
p502
sg15
(lp503
sg17
(lp504
sg19
(lp505
sg21
I0
sba(iArchitecture
Entity
p506
(dp507
g11
(lp508
sg13
S'media.libmediaplayerservice.nuplayer.StreamingSource.h'
p509
sg15
(lp510
sg17
(lp511
sg19
(lp512
sg21
I0
sbasg29
(lp513
g495
ag502
ag509
asg21
I0
sg31
S'media.libmediaplayerservice.nuplayer.StreamingSource.ch'
p514
sba(iArchitecture
Cluster
p515
(dp516
g7
(lp517
(iArchitecture
Entity
p518
(dp519
g11
(lp520
sg13
S'media.libmediaplayerservice.DrmSessionClientInterface.h'
p521
sg15
(lp522
sg17
(lp523
sg19
(lp524
sg21
I0
sba(iArchitecture
Entity
p525
(dp526
g11
(lp527
sg13
S'media.libmediaplayerservice.tests.DrmSessionManager_test.c'
p528
sg15
(lp529
sg17
(lp530
sg19
(lp531
sg21
I0
sbasg29
(lp532
g521
ag528
asg21
I0
sg31
S'media.libmediaplayerservice.tests.DrmSessionManager_test.ss'
p533
sbasS'target_sub'
p534
S'media.libmediaplayerservice'
p535
sg29
(lp536
sS'is_component_arch'
p537
I00
sg31
S'6.0.0_r1'
p538
sba(iArchitecture
Architecture
p539
(dp540
g3
(lp541
(iArchitecture
Cluster
p542
(dp543
g7
(lp544
(iArchitecture
Entity
p545
(dp546
g11
(lp547
sg13
S'media.libmediaplayerservice.ActivityManager.c'
p548
sg15
(lp549
sg17
(lp550
sg19
(lp551
sg21
I0
sba(iArchitecture
Entity
p552
(dp553
g11
(lp554
sg13
S'media.libmediaplayerservice.ActivityManager.h'
p555
sg15
(lp556
sg17
(lp557
sg19
(lp558
sg21
I0
sbasg29
(lp559
g548
ag555
asg21
I0
sg31
S'media.libmediaplayerservice.ActivityManager.ch'
p560
sba(iArchitecture
Cluster
p561
(dp562
g7
(lp563
(iArchitecture
Entity
p564
(dp565
g11
(lp566
sg13
S'media.libmediaplayerservice.HDCP.c'
p567
sg15
(lp568
sg17
(lp569
sg19
(lp570
sg21
I0
sba(iArchitecture
Entity
p571
(dp572
g11
(lp573
sg13
S'media.libmediaplayerservice.HDCP.h'
p574
sg15
(lp575
sg17
(lp576
sg19
(lp577
sg21
I0
sbasg29
(lp578
g567
ag574
asg21
I0
sg31
S'media.libmediaplayerservice.HDCP.ch'
p579
sba(iArchitecture
Cluster
p580
(dp581
g7
(lp582
(iArchitecture
Entity
p583
(dp584
g11
(lp585
sg13
S'media.libmediaplayerservice.MediaPlayerFactory.c'
p586
sg15
(lp587
sg17
(lp588
sg19
(lp589
sg21
I0
sba(iArchitecture
Entity
p590
(dp591
g11
(lp592
sg13
S'media.libmediaplayerservice.MediaPlayerFactory.h'
p593
sg15
(lp594
sg17
(lp595
sg19
(lp596
sg21
I0
sbasg29
(lp597
g586
ag593
asg21
I0
sg31
S'media.libmediaplayerservice.MediaPlayerFactory.ch'
p598
sba(iArchitecture
Cluster
p599
(dp600
g7
(lp601
(iArchitecture
Entity
p602
(dp603
g11
(lp604
sg13
S'media.libmediaplayerservice.MediaPlayerService.c'
p605
sg15
(lp606
sg17
(lp607
sg19
(lp608
sg21
I0
sba(iArchitecture
Entity
p609
(dp610
g11
(lp611
sg13
S'media.libmediaplayerservice.MediaPlayerService.h'
p612
sg15
(lp613
sg17
(lp614
sg19
(lp615
sg21
I0
sbasg29
(lp616
g605
ag612
asg21
I0
sg31
S'media.libmediaplayerservice.MediaPlayerService.ch'
p617
sba(iArchitecture
Cluster
p618
(dp619
g7
(lp620
(iArchitecture
Entity
p621
(dp622
g11
(lp623
sg13
S'media.libmediaplayerservice.MediaRecorderClient.c'
p624
sg15
(lp625
sg17
(lp626
sg19
(lp627
sg21
I0
sba(iArchitecture
Entity
p628
(dp629
g11
(lp630
sg13
S'media.libmediaplayerservice.MediaRecorderClient.h'
p631
sg15
(lp632
sg17
(lp633
sg19
(lp634
sg21
I0
sbasg29
(lp635
g624
ag631
asg21
I0
sg31
S'media.libmediaplayerservice.MediaRecorderClient.ch'
p636
sba(iArchitecture
Cluster
p637
(dp638
g7
(lp639
(iArchitecture
Entity
p640
(dp641
g11
(lp642
sg13
S'media.libmediaplayerservice.MetadataRetrieverClient.c'
p643
sg15
(lp644
sg17
(lp645
sg19
(lp646
sg21
I0
sba(iArchitecture
Entity
p647
(dp648
g11
(lp649
sg13
S'media.libmediaplayerservice.MetadataRetrieverClient.h'
p650
sg15
(lp651
sg17
(lp652
sg19
(lp653
sg21
I0
sbasg29
(lp654
g643
ag650
asg21
I0
sg31
S'media.libmediaplayerservice.MetadataRetrieverClient.ch'
p655
sba(iArchitecture
Cluster
p656
(dp657
g7
(lp658
(iArchitecture
Entity
p659
(dp660
g11
(lp661
sg13
S'media.libmediaplayerservice.RemoteDisplay.c'
p662
sg15
(lp663
sg17
(lp664
sg19
(lp665
sg21
I0
sba(iArchitecture
Entity
p666
(dp667
g11
(lp668
sg13
S'media.libmediaplayerservice.RemoteDisplay.h'
p669
sg15
(lp670
sg17
(lp671
sg19
(lp672
sg21
I0
sbasg29
(lp673
g662
ag669
asg21
I0
sg31
S'media.libmediaplayerservice.RemoteDisplay.ch'
p674
sba(iArchitecture
Cluster
p675
(dp676
g7
(lp677
(iArchitecture
Entity
p678
(dp679
g11
(lp680
sg13
S'media.libmediaplayerservice.StagefrightRecorder.c'
p681
sg15
(lp682
sg17
(lp683
sg19
(lp684
sg21
I0
sba(iArchitecture
Entity
p685
(dp686
g11
(lp687
sg13
S'media.libmediaplayerservice.StagefrightRecorder.h'
p688
sg15
(lp689
sg17
(lp690
sg19
(lp691
sg21
I0
sbasg29
(lp692
g681
ag688
asg21
I0
sg31
S'media.libmediaplayerservice.StagefrightRecorder.ch'
p693
sba(iArchitecture
Cluster
p694
(dp695
g7
(lp696
(iArchitecture
Entity
p697
(dp698
g11
(lp699
sg13
S'media.libmediaplayerservice.TestPlayerStub.c'
p700
sg15
(lp701
sg17
(lp702
sg19
(lp703
sg21
I0
sba(iArchitecture
Entity
p704
(dp705
g11
(lp706
sg13
S'media.libmediaplayerservice.TestPlayerStub.h'
p707
sg15
(lp708
sg17
(lp709
sg19
(lp710
sg21
I0
sbasg29
(lp711
g700
ag707
asg21
I0
sg31
S'media.libmediaplayerservice.TestPlayerStub.ch'
p712
sba(iArchitecture
Cluster
p713
(dp714
g7
(lp715
(iArchitecture
Entity
p716
(dp717
g11
(lp718
sg13
S'media.libmediaplayerservice.nuplayer.GenericSource.c'
p719
sg15
(lp720
sg17
(lp721
sg19
(lp722
sg21
I0
sba(iArchitecture
Entity
p723
(dp724
g11
(lp725
sg13
S'media.libmediaplayerservice.nuplayer.GenericSource.h'
p726
sg15
(lp727
sg17
(lp728
sg19
(lp729
sg21
I0
sbasg29
(lp730
g719
ag726
asg21
I0
sg31
S'media.libmediaplayerservice.nuplayer.GenericSource.ch'
p731
sba(iArchitecture
Cluster
p732
(dp733
g7
(lp734
(iArchitecture
Entity
p735
(dp736
g11
(lp737
sg13
S'media.libmediaplayerservice.nuplayer.HTTPLiveSource.c'
p738
sg15
(lp739
sg17
(lp740
sg19
(lp741
sg21
I0
sba(iArchitecture
Entity
p742
(dp743
g11
(lp744
sg13
S'media.libmediaplayerservice.nuplayer.HTTPLiveSource.h'
p745
sg15
(lp746
sg17
(lp747
sg19
(lp748
sg21
I0
sbasg29
(lp749
g738
ag745
asg21
I0
sg31
S'media.libmediaplayerservice.nuplayer.HTTPLiveSource.ch'
p750
sba(iArchitecture
Cluster
p751
(dp752
g7
(lp753
(iArchitecture
Entity
p754
(dp755
g11
(lp756
sg13
S'media.libmediaplayerservice.nuplayer.NuPlayer.c'
p757
sg15
(lp758
sg17
(lp759
sg19
(lp760
sg21
I0
sba(iArchitecture
Entity
p761
(dp762
g11
(lp763
sg13
S'media.libmediaplayerservice.nuplayer.NuPlayer.h'
p764
sg15
(lp765
sg17
(lp766
sg19
(lp767
sg21
I0
sbasg29
(lp768
g757
ag764
asg21
I0
sg31
S'media.libmediaplayerservice.nuplayer.NuPlayer.ch'
p769
sba(iArchitecture
Cluster
p770
(dp771
g7
(lp772
(iArchitecture
Entity
p773
(dp774
g11
(lp775
sg13
S'media.libmediaplayerservice.nuplayer.NuPlayerCCDecoder.c'
p776
sg15
(lp777
sg17
(lp778
sg19
(lp779
sg21
I0
sba(iArchitecture
Entity
p780
(dp781
g11
(lp782
sg13
S'media.libmediaplayerservice.nuplayer.NuPlayerCCDecoder.h'
p783
sg15
(lp784
sg17
(lp785
sg19
(lp786
sg21
I0
sbasg29
(lp787
g776
ag783
asg21
I0
sg31
S'media.libmediaplayerservice.nuplayer.NuPlayerCCDecoder.ch'
p788
sba(iArchitecture
Cluster
p789
(dp790
g7
(lp791
(iArchitecture
Entity
p792
(dp793
g11
(lp794
sg13
S'media.libmediaplayerservice.nuplayer.NuPlayerDecoder.c'
p795
sg15
(lp796
sg17
(lp797
sg19
(lp798
sg21
I0
sba(iArchitecture
Entity
p799
(dp800
g11
(lp801
sg13
S'media.libmediaplayerservice.nuplayer.NuPlayerDecoder.h'
p802
sg15
(lp803
sg17
(lp804
sg19
(lp805
sg21
I0
sbasg29
(lp806
g795
ag802
asg21
I0
sg31
S'media.libmediaplayerservice.nuplayer.NuPlayerDecoder.ch'
p807
sba(iArchitecture
Cluster
p808
(dp809
g7
(lp810
(iArchitecture
Entity
p811
(dp812
g11
(lp813
sg13
S'media.libmediaplayerservice.nuplayer.NuPlayerDecoderBase.c'
p814
sg15
(lp815
sg17
(lp816
sg19
(lp817
sg21
I0
sba(iArchitecture
Entity
p818
(dp819
g11
(lp820
sg13
S'media.libmediaplayerservice.nuplayer.NuPlayerDecoderBase.h'
p821
sg15
(lp822
sg17
(lp823
sg19
(lp824
sg21
I0
sbasg29
(lp825
g814
ag821
asg21
I0
sg31
S'media.libmediaplayerservice.nuplayer.NuPlayerDecoderBase.ch'
p826
sba(iArchitecture
Cluster
p827
(dp828
g7
(lp829
(iArchitecture
Entity
p830
(dp831
g11
(lp832
sg13
S'media.libmediaplayerservice.nuplayer.NuPlayerDecoderPassThrough.c'
p833
sg15
(lp834
sg17
(lp835
sg19
(lp836
sg21
I0
sba(iArchitecture
Entity
p837
(dp838
g11
(lp839
sg13
S'media.libmediaplayerservice.nuplayer.NuPlayerDecoderPassThrough.h'
p840
sg15
(lp841
sg17
(lp842
sg19
(lp843
sg21
I0
sbasg29
(lp844
g833
ag840
asg21
I0
sg31
S'media.libmediaplayerservice.nuplayer.NuPlayerDecoderPassThrough.ch'
p845
sba(iArchitecture
Cluster
p846
(dp847
g7
(lp848
(iArchitecture
Entity
p849
(dp850
g11
(lp851
sg13
S'media.libmediaplayerservice.nuplayer.NuPlayerDriver.c'
p852
sg15
(lp853
sg17
(lp854
sg19
(lp855
sg21
I0
sba(iArchitecture
Entity
p856
(dp857
g11
(lp858
sg13
S'media.libmediaplayerservice.nuplayer.NuPlayerDriver.h'
p859
sg15
(lp860
sg17
(lp861
sg19
(lp862
sg21
I0
sbasg29
(lp863
g852
ag859
asg21
I0
sg31
S'media.libmediaplayerservice.nuplayer.NuPlayerDriver.ch'
p864
sba(iArchitecture
Cluster
p865
(dp866
g7
(lp867
(iArchitecture
Entity
p868
(dp869
g11
(lp870
sg13
S'media.libmediaplayerservice.nuplayer.NuPlayerRenderer.c'
p871
sg15
(lp872
sg17
(lp873
sg19
(lp874
sg21
I0
sba(iArchitecture
Entity
p875
(dp876
g11
(lp877
sg13
S'media.libmediaplayerservice.nuplayer.NuPlayerRenderer.h'
p878
sg15
(lp879
sg17
(lp880
sg19
(lp881
sg21
I0
sbasg29
(lp882
g871
ag878
asg21
I0
sg31
S'media.libmediaplayerservice.nuplayer.NuPlayerRenderer.ch'
p883
sba(iArchitecture
Cluster
p884
(dp885
g7
(lp886
(iArchitecture
Entity
p887
(dp888
g11
(lp889
sg13
S'media.libmediaplayerservice.nuplayer.NuPlayerStreamListener.c'
p890
sg15
(lp891
sg17
(lp892
sg19
(lp893
sg21
I0
sba(iArchitecture
Entity
p894
(dp895
g11
(lp896
sg13
S'media.libmediaplayerservice.nuplayer.NuPlayerStreamListener.h'
p897
sg15
(lp898
sg17
(lp899
sg19
(lp900
sg21
I0
sbasg29
(lp901
g890
ag897
asg21
I0
sg31
S'media.libmediaplayerservice.nuplayer.NuPlayerStreamListener.ch'
p902
sba(iArchitecture
Cluster
p903
(dp904
g7
(lp905
(iArchitecture
Entity
p906
(dp907
g11
(lp908
sg13
S'media.libmediaplayerservice.nuplayer.RTSPSource.c'
p909
sg15
(lp910
sg17
(lp911
sg19
(lp912
sg21
I0
sba(iArchitecture
Entity
p913
(dp914
g11
(lp915
sg13
S'media.libmediaplayerservice.nuplayer.RTSPSource.h'
p916
sg15
(lp917
sg17
(lp918
sg19
(lp919
sg21
I0
sbasg29
(lp920
g909
ag916
asg21
I0
sg31
S'media.libmediaplayerservice.nuplayer.RTSPSource.ch'
p921
sba(iArchitecture
Cluster
p922
(dp923
g7
(lp924
(iArchitecture
Entity
p925
(dp926
g11
(lp927
sg13
S'media.libmediaplayerservice.nuplayer.NuPlayerSource.h'
p928
sg15
(lp929
sg17
(lp930
sg19
(lp931
sg21
I0
sba(iArchitecture
Entity
p932
(dp933
g11
(lp934
sg13
S'media.libmediaplayerservice.nuplayer.StreamingSource.c'
p935
sg15
(lp936
sg17
(lp937
sg19
(lp938
sg21
I0
sba(iArchitecture
Entity
p939
(dp940
g11
(lp941
sg13
S'media.libmediaplayerservice.nuplayer.StreamingSource.h'
p942
sg15
(lp943
sg17
(lp944
sg19
(lp945
sg21
I0
sbasg29
(lp946
g928
ag935
ag942
asg21
I0
sg31
S'media.libmediaplayerservice.nuplayer.StreamingSource.ch'
p947
sba(iArchitecture
Cluster
p948
(dp949
g7
(lp950
(iArchitecture
Entity
p951
(dp952
g11
(lp953
sg13
S'media.libmediaplayerservice.tests.DrmSessionManager_test.c'
p954
sg15
(lp955
sg17
(lp956
sg19
(lp957
sg21
I0
sbasg29
(lp958
g954
asg21
I0
sg31
S'services.mediadrm.MediaDrmService.ch'
p959
sbasg534
g535
sg29
(lp960
sg537
I00
sg31
S'7.0.0_r1'
p961
sba.