(lp0
(iArchitecture
Architecture
p1
(dp2
S'clusters'
p3
(lp4
sS'target_sub'
p5
S'drm.libmediadrm'
p6
sS'classes'
p7
(lp8
sS'is_component_arch'
p9
I00
sS'label'
p10
S'6.0.0_r1'
p11
sba(iArchitecture
Architecture
p12
(dp13
g3
(lp14
(iArchitecture
Cluster
p15
(dp16
S'entities'
p17
(lp18
(iArchitecture
Entity
p19
(dp20
S'issue_ids'
p21
(lp22
sS'name'
p23
S'drm.libmediadrm.Crypto.c'
p24
sS'descs'
p25
(lp26
sS'labels'
p27
(lp28
sS'titles'
p29
(lp30
sS'change'
p31
I0
sbasg7
(lp32
g24
asg31
I0
sg10
S'drm.libmediadrm.Crypto.ss'
p33
sba(iArchitecture
Cluster
p34
(dp35
g17
(lp36
(iArchitecture
Entity
p37
(dp38
g21
(lp39
sg23
S'drm.libmediadrm.Drm.c'
p40
sg25
(lp41
sg27
(lp42
sg29
(lp43
sg31
I0
sbasg7
(lp44
g40
asg31
I0
sg10
S'services.mediadrm.MediaDrmService.ch'
p45
sba(iArchitecture
Cluster
p46
(dp47
g17
(lp48
(iArchitecture
Entity
p49
(dp50
g21
(lp51
sg23
S'drm.libmediadrm.DrmSessionManager.c'
p52
sg25
(lp53
sg27
(lp54
sg29
(lp55
sg31
I0
sbasg7
(lp56
g52
asg31
I0
sg10
S'services.radio.RadioService.ch'
p57
sba(iArchitecture
Cluster
p58
(dp59
g17
(lp60
(iArchitecture
Entity
p61
(dp62
g21
(lp63
sg23
S'drm.libmediadrm.SharedLibrary.c'
p64
sg25
(lp65
sg27
(lp66
sg29
(lp67
sg31
I0
sbasg7
(lp68
g64
asg31
I0
sg10
S'services.soundtrigger.SoundTriggerHwService.ch'
p69
sbasg5
g6
sg7
(lp70
sg9
I00
sg10
S'7.0.0_r1'
p71
sba.