(lp0
(iArchitecture
Architecture
p1
(dp2
S'clusters'
p3
(lp4
(iArchitecture
Cluster
p5
(dp6
S'entities'
p7
(lp8
(iArchitecture
Entity
p9
(dp10
S'issue_ids'
p11
(lp12
sS'name'
p13
S'drm.common.DrmEngineBase.c'
p14
sS'descs'
p15
(lp16
sS'labels'
p17
(lp18
sS'titles'
p19
(lp20
sS'change'
p21
I0
sba(iArchitecture
Entity
p22
(dp23
g11
(lp24
sg13
S'drm.common.DrmInfoEvent.c'
p25
sg15
(lp26
sg17
(lp27
sg19
(lp28
sg21
I0
sba(iArchitecture
Entity
p29
(dp30
g11
(lp31
sg13
S'drm.common.IDrmManagerService.c'
p32
sg15
(lp33
sg17
(lp34
sg19
(lp35
sg21
I0
sbasS'classes'
p36
(lp37
g14
ag25
ag32
asg21
I0
sS'label'
p38
S'drm.libdrmframework.plugins.passthru.src.DrmPassthruPlugIn.ss'
p39
sba(iArchitecture
Cluster
p40
(dp41
g7
(lp42
(iArchitecture
Entity
p43
(dp44
g11
(lp45
sg13
S'drm.common.DrmConstraints.c'
p46
sg15
(lp47
sg17
(lp48
sg19
(lp49
sg21
I0
sba(iArchitecture
Entity
p50
(dp51
g11
(lp52
sg13
S'drm.common.DrmConvertedStatus.c'
p53
sg15
(lp54
sg17
(lp55
sg19
(lp56
sg21
I0
sba(iArchitecture
Entity
p57
(dp58
g11
(lp59
sg13
S'drm.common.DrmInfo.c'
p60
sg15
(lp61
sg17
(lp62
sg19
(lp63
sg21
I0
sba(iArchitecture
Entity
p64
(dp65
g11
(lp66
sg13
S'drm.common.DrmInfoRequest.c'
p67
sg15
(lp68
sg17
(lp69
sg19
(lp70
sg21
I0
sba(iArchitecture
Entity
p71
(dp72
g11
(lp73
sg13
S'drm.common.DrmInfoStatus.c'
p74
sg15
(lp75
sg17
(lp76
sg19
(lp77
sg21
I0
sba(iArchitecture
Entity
p78
(dp79
g11
(lp80
sg13
S'drm.common.DrmMetadata.c'
p81
sg15
(lp82
sg17
(lp83
sg19
(lp84
sg21
I0
sba(iArchitecture
Entity
p85
(dp86
g11
(lp87
sg13
S'drm.common.DrmRights.c'
p88
sg15
(lp89
sg17
(lp90
sg19
(lp91
sg21
I0
sba(iArchitecture
Entity
p92
(dp93
g11
(lp94
sg13
S'drm.common.DrmSupportInfo.c'
p95
sg15
(lp96
sg17
(lp97
sg19
(lp98
sg21
I0
sbasg36
(lp99
g46
ag53
ag60
ag67
ag74
ag81
ag88
ag95
asg21
I0
sg38
S'media.libstagefright.wifi-display.source.PlaybackSession.ch'
p100
sba(iArchitecture
Cluster
p101
(dp102
g7
(lp103
(iArchitecture
Entity
p104
(dp105
g11
(lp106
sg13
S'drm.common.IDrmServiceListener.c'
p107
sg15
(lp108
sg17
(lp109
sg19
(lp110
sg21
I0
sba(iArchitecture
Entity
p111
(dp112
g11
(lp113
sg13
S'drm.common.ReadWriteUtils.c'
p114
sg15
(lp115
sg17
(lp116
sg19
(lp117
sg21
I0
sbasg36
(lp118
g107
ag114
asg21
I0
sg38
S'services.soundtrigger.SoundTriggerHwService.ch'
p119
sbasS'target_sub'
p120
S'drm.common'
p121
sg36
(lp122
sS'is_component_arch'
p123
I00
sg38
S'6.0.0_r1'
p124
sba(iArchitecture
Architecture
p125
(dp126
g3
(lp127
(iArchitecture
Cluster
p128
(dp129
g7
(lp130
(iArchitecture
Entity
p131
(dp132
g11
(lp133
sg13
S'drm.common.DrmEngineBase.c'
p134
sg15
(lp135
sg17
(lp136
sg19
(lp137
sg21
I0
sba(iArchitecture
Entity
p138
(dp139
g11
(lp140
sg13
S'drm.common.DrmInfoEvent.c'
p141
sg15
(lp142
sg17
(lp143
sg19
(lp144
sg21
I0
sba(iArchitecture
Entity
p145
(dp146
g11
(lp147
sg13
S'drm.common.IDrmManagerService.c'
p148
sg15
(lp149
sg17
(lp150
sg19
(lp151
sg21
I0
sbasg36
(lp152
g134
ag141
ag148
asg21
I0
sg38
S'drm.libdrmframework.plugins.passthru.src.DrmPassthruPlugIn.ss'
p153
sba(iArchitecture
Cluster
p154
(dp155
g7
(lp156
(iArchitecture
Entity
p157
(dp158
g11
(lp159
sg13
S'drm.common.DrmConstraints.c'
p160
sg15
(lp161
sg17
(lp162
sg19
(lp163
sg21
I0
sba(iArchitecture
Entity
p164
(dp165
g11
(lp166
sg13
S'drm.common.DrmConvertedStatus.c'
p167
sg15
(lp168
sg17
(lp169
sg19
(lp170
sg21
I0
sba(iArchitecture
Entity
p171
(dp172
g11
(lp173
sg13
S'drm.common.DrmInfo.c'
p174
sg15
(lp175
sg17
(lp176
sg19
(lp177
sg21
I0
sba(iArchitecture
Entity
p178
(dp179
g11
(lp180
sg13
S'drm.common.DrmInfoRequest.c'
p181
sg15
(lp182
sg17
(lp183
sg19
(lp184
sg21
I0
sba(iArchitecture
Entity
p185
(dp186
g11
(lp187
sg13
S'drm.common.DrmInfoStatus.c'
p188
sg15
(lp189
sg17
(lp190
sg19
(lp191
sg21
I0
sba(iArchitecture
Entity
p192
(dp193
g11
(lp194
sg13
S'drm.common.DrmMetadata.c'
p195
sg15
(lp196
sg17
(lp197
sg19
(lp198
sg21
I0
sba(iArchitecture
Entity
p199
(dp200
g11
(lp201
sg13
S'drm.common.DrmRights.c'
p202
sg15
(lp203
sg17
(lp204
sg19
(lp205
sg21
I0
sba(iArchitecture
Entity
p206
(dp207
g11
(lp208
sg13
S'drm.common.DrmSupportInfo.c'
p209
sg15
(lp210
sg17
(lp211
sg19
(lp212
sg21
I0
sbasg36
(lp213
g160
ag167
ag174
ag181
ag188
ag195
ag202
ag209
asg21
I0
sg38
S'services.mediaextractor.MediaExtractorService.ch'
p214
sba(iArchitecture
Cluster
p215
(dp216
g7
(lp217
(iArchitecture
Entity
p218
(dp219
g11
(lp220
sg13
S'drm.common.IDrmServiceListener.c'
p221
sg15
(lp222
sg17
(lp223
sg19
(lp224
sg21
I0
sba(iArchitecture
Entity
p225
(dp226
g11
(lp227
sg13
S'drm.common.ReadWriteUtils.c'
p228
sg15
(lp229
sg17
(lp230
sg19
(lp231
sg21
I0
sbasg36
(lp232
g221
ag228
asg21
I0
sg38
S'services.soundtrigger.SoundTriggerHwService.ch'
p233
sbasg120
g121
sg36
(lp234
sg123
I00
sg38
S'7.0.0_r1'
p235
sba.