(lp0
(iArchitecture
Architecture
p1
(dp2
S'clusters'
p3
(lp4
(iArchitecture
Cluster
p5
(dp6
S'entities'
p7
(lp8
(iArchitecture
Entity
p9
(dp10
S'issue_ids'
p11
(lp12
sS'name'
p13
S'include.camera.CameraParameters2.h'
p14
sS'descs'
p15
(lp16
sS'labels'
p17
(lp18
sS'titles'
p19
(lp20
sS'change'
p21
I0
sbasS'classes'
p22
(lp23
g14
asg21
I0
sS'label'
p24
S'camera.CameraParameters2.ss'
p25
sba(iArchitecture
Cluster
p26
(dp27
g7
(lp28
(iArchitecture
Entity
p29
(dp30
g11
(lp31
sg13
S'include.camera.CameraUtils.h'
p32
sg15
(lp33
sg17
(lp34
sg19
(lp35
sg21
I0
sbasg22
(lp36
g32
asg21
I0
sg24
S'camera.CameraUtils.ss'
p37
sba(iArchitecture
Cluster
p38
(dp39
g7
(lp40
(iArchitecture
Entity
p41
(dp42
g11
(lp43
sg13
S'include.camera.ICameraServiceProxy.h'
p44
sg15
(lp45
sg17
(lp46
sg19
(lp47
sg21
I0
sbasg22
(lp48
g44
asg21
I0
sg24
S'camera.ICameraServiceProxy.ss'
p49
sba(iArchitecture
Cluster
p50
(dp51
g7
(lp52
(iArchitecture
Entity
p53
(dp54
g11
(lp55
sg13
S'include.camera.camera2.CaptureRequest.h'
p56
sg15
(lp57
sg17
(lp58
sg19
(lp59
sg21
I0
sbasg22
(lp60
g56
asg21
I0
sg24
S'services.camera.libcameraservice.api2.CameraDeviceClient.ch'
p61
sba(iArchitecture
Cluster
p62
(dp63
g7
(lp64
(iArchitecture
Entity
p65
(dp66
g11
(lp67
sg13
S'include.camera.camera2.OutputConfiguration.h'
p68
sg15
(lp69
sg17
(lp70
sg19
(lp71
sg21
I0
sbasg22
(lp72
g68
asg21
I0
sg24
S'services.camera.libcameraservice.common.Camera2ClientBase.ch'
p73
sba(iArchitecture
Cluster
p74
(dp75
g7
(lp76
(iArchitecture
Entity
p77
(dp78
g11
(lp79
sg13
S'include.camera.CameraParameters.h'
p80
sg15
(lp81
sg17
(lp82
sg19
(lp83
sg21
I0
sba(iArchitecture
Entity
p84
(dp85
g11
(lp86
sg13
S'include.camera.ICameraServiceListener.h'
p87
sg15
(lp88
sg17
(lp89
sg19
(lp90
sg21
I0
sba(iArchitecture
Entity
p91
(dp92
g11
(lp93
sg13
S'include.camera.VendorTagDescriptor.h'
p94
sg15
(lp95
sg17
(lp96
sg19
(lp97
sg21
I0
sbasg22
(lp98
g80
ag87
ag94
asg21
I0
sg24
S'services.camera.libcameraservice.device3.Camera3Device.ch'
p99
sba(iArchitecture
Cluster
p100
(dp101
g7
(lp102
(iArchitecture
Entity
p103
(dp104
g11
(lp105
sg13
S'include.camera.Camera.h'
p106
sg15
(lp107
sg17
(lp108
sg19
(lp109
sg21
I0
sba(iArchitecture
Entity
p110
(dp111
g11
(lp112
sg13
S'include.camera.CameraBase.h'
p113
sg15
(lp114
sg17
(lp115
sg19
(lp116
sg21
I0
sba(iArchitecture
Entity
p117
(dp118
g11
(lp119
sg13
S'include.camera.CameraMetadata.h'
p120
sg15
(lp121
sg17
(lp122
sg19
(lp123
sg21
I0
sba(iArchitecture
Entity
p124
(dp125
g11
(lp126
sg13
S'include.camera.CaptureResult.h'
p127
sg15
(lp128
sg17
(lp129
sg19
(lp130
sg21
I0
sba(iArchitecture
Entity
p131
(dp132
g11
(lp133
sg13
S'include.camera.ICamera.h'
p134
sg15
(lp135
sg17
(lp136
sg19
(lp137
sg21
I0
sba(iArchitecture
Entity
p138
(dp139
g11
(lp140
sg13
S'include.camera.ICameraClient.h'
p141
sg15
(lp142
sg17
(lp143
sg19
(lp144
sg21
I0
sba(iArchitecture
Entity
p145
(dp146
g11
(lp147
sg13
S'include.camera.ICameraRecordingProxy.h'
p148
sg15
(lp149
sg17
(lp150
sg19
(lp151
sg21
I0
sba(iArchitecture
Entity
p152
(dp153
g11
(lp154
sg13
S'include.camera.ICameraRecordingProxyListener.h'
p155
sg15
(lp156
sg17
(lp157
sg19
(lp158
sg21
I0
sba(iArchitecture
Entity
p159
(dp160
g11
(lp161
sg13
S'include.camera.ICameraService.h'
p162
sg15
(lp163
sg17
(lp164
sg19
(lp165
sg21
I0
sba(iArchitecture
Entity
p166
(dp167
g11
(lp168
sg13
S'include.camera.camera2.ICameraDeviceCallbacks.h'
p169
sg15
(lp170
sg17
(lp171
sg19
(lp172
sg21
I0
sba(iArchitecture
Entity
p173
(dp174
g11
(lp175
sg13
S'include.camera.camera2.ICameraDeviceUser.h'
p176
sg15
(lp177
sg17
(lp178
sg19
(lp179
sg21
I0
sbasg22
(lp180
g106
ag113
ag120
ag127
ag134
ag141
ag148
ag155
ag162
ag169
ag176
asg21
I0
sg24
S'services.camera.libcameraservice.device3.StatusTracker.ch'
p181
sbasS'target_sub'
p182
S'include.camera'
p183
sg22
(lp184
sS'is_component_arch'
p185
I00
sg24
S'6.0.0_r1'
p186
sba(iArchitecture
Architecture
p187
(dp188
g3
(lp189
(iArchitecture
Cluster
p190
(dp191
g7
(lp192
(iArchitecture
Entity
p193
(dp194
g11
(lp195
sg13
S'include.camera.CameraParameters2.h'
p196
sg15
(lp197
sg17
(lp198
sg19
(lp199
sg21
I0
sbasg22
(lp200
g196
asg21
I0
sg24
S'camera.CameraParameters2.ss'
p201
sba(iArchitecture
Cluster
p202
(dp203
g7
(lp204
(iArchitecture
Entity
p205
(dp206
g11
(lp207
sg13
S'include.camera.ndk.NdkCameraManager.h'
p208
sg15
(lp209
sg17
(lp210
sg19
(lp211
sg21
I0
sbasg22
(lp212
g208
asg21
I0
sg24
S'camera.ndk.NdkCameraManager.ss'
p213
sba(iArchitecture
Cluster
p214
(dp215
g7
(lp216
(iArchitecture
Entity
p217
(dp218
g11
(lp219
sg13
S'include.camera.ndk.NdkCameraCaptureSession.h'
p220
sg15
(lp221
sg17
(lp222
sg19
(lp223
sg21
I0
sba(iArchitecture
Entity
p224
(dp225
g11
(lp226
sg13
S'include.camera.ndk.NdkCameraDevice.h'
p227
sg15
(lp228
sg17
(lp229
sg19
(lp230
sg21
I0
sba(iArchitecture
Entity
p231
(dp232
g11
(lp233
sg13
S'include.camera.ndk.NdkCaptureRequest.h'
p234
sg15
(lp235
sg17
(lp236
sg19
(lp237
sg21
I0
sbasg22
(lp238
g220
ag227
ag234
asg21
I0
sg24
S'camera.ndk.impl.ACameraManager.ch'
p239
sba(iArchitecture
Cluster
p240
(dp241
g7
(lp242
(iArchitecture
Entity
p243
(dp244
g11
(lp245
sg13
S'include.camera.ndk.NdkCameraError.h'
p246
sg15
(lp247
sg17
(lp248
sg19
(lp249
sg21
I0
sba(iArchitecture
Entity
p250
(dp251
g11
(lp252
sg13
S'include.camera.ndk.NdkCameraMetadata.h'
p253
sg15
(lp254
sg17
(lp255
sg19
(lp256
sg21
I0
sba(iArchitecture
Entity
p257
(dp258
g11
(lp259
sg13
S'include.camera.ndk.NdkCameraMetadataTags.h'
p260
sg15
(lp261
sg17
(lp262
sg19
(lp263
sg21
I0
sbasg22
(lp264
g246
ag253
ag260
asg21
I0
sg24
S'camera.ndk.impl.ACameraMetadata.ch'
p265
sba(iArchitecture
Cluster
p266
(dp267
g7
(lp268
(iArchitecture
Entity
p269
(dp270
g11
(lp271
sg13
S'include.camera.CameraUtils.h'
p272
sg15
(lp273
sg17
(lp274
sg19
(lp275
sg21
I0
sba(iArchitecture
Entity
p276
(dp277
g11
(lp278
sg13
S'include.camera.camera2.CaptureRequest.h'
p279
sg15
(lp280
sg17
(lp281
sg19
(lp282
sg21
I0
sbasg22
(lp283
g272
ag279
asg21
I0
sg24
S'services.camera.libcameraservice.api2.CameraDeviceClient.ch'
p284
sba(iArchitecture
Cluster
p285
(dp286
g7
(lp287
(iArchitecture
Entity
p288
(dp289
g11
(lp290
sg13
S'include.camera.camera2.OutputConfiguration.h'
p291
sg15
(lp292
sg17
(lp293
sg19
(lp294
sg21
I0
sba(iArchitecture
Entity
p295
(dp296
g11
(lp297
sg13
S'include.camera.camera2.SubmitInfo.h'
p298
sg15
(lp299
sg17
(lp300
sg19
(lp301
sg21
I0
sbasg22
(lp302
g291
ag298
asg21
I0
sg24
S'services.camera.libcameraservice.common.Camera2ClientBase.ch'
p303
sba(iArchitecture
Cluster
p304
(dp305
g7
(lp306
(iArchitecture
Entity
p307
(dp308
g11
(lp309
sg13
S'include.camera.CameraParameters.h'
p310
sg15
(lp311
sg17
(lp312
sg19
(lp313
sg21
I0
sba(iArchitecture
Entity
p314
(dp315
g11
(lp316
sg13
S'include.camera.ICameraServiceProxy.h'
p317
sg15
(lp318
sg17
(lp319
sg19
(lp320
sg21
I0
sba(iArchitecture
Entity
p321
(dp322
g11
(lp323
sg13
S'include.camera.VendorTagDescriptor.h'
p324
sg15
(lp325
sg17
(lp326
sg19
(lp327
sg21
I0
sbasg22
(lp328
g310
ag317
ag324
asg21
I0
sg24
S'services.camera.libcameraservice.device3.Camera3Device.ch'
p329
sba(iArchitecture
Cluster
p330
(dp331
g7
(lp332
(iArchitecture
Entity
p333
(dp334
g11
(lp335
sg13
S'include.camera.Camera.h'
p336
sg15
(lp337
sg17
(lp338
sg19
(lp339
sg21
I0
sba(iArchitecture
Entity
p340
(dp341
g11
(lp342
sg13
S'include.camera.CameraBase.h'
p343
sg15
(lp344
sg17
(lp345
sg19
(lp346
sg21
I0
sba(iArchitecture
Entity
p347
(dp348
g11
(lp349
sg13
S'include.camera.CameraMetadata.h'
p350
sg15
(lp351
sg17
(lp352
sg19
(lp353
sg21
I0
sba(iArchitecture
Entity
p354
(dp355
g11
(lp356
sg13
S'include.camera.CaptureResult.h'
p357
sg15
(lp358
sg17
(lp359
sg19
(lp360
sg21
I0
sba(iArchitecture
Entity
p361
(dp362
g11
(lp363
sg13
S'include.camera.ICameraRecordingProxy.h'
p364
sg15
(lp365
sg17
(lp366
sg19
(lp367
sg21
I0
sba(iArchitecture
Entity
p368
(dp369
g11
(lp370
sg13
S'include.camera.ICameraRecordingProxyListener.h'
p371
sg15
(lp372
sg17
(lp373
sg19
(lp374
sg21
I0
sba(iArchitecture
Entity
p375
(dp376
g11
(lp377
sg13
S'include.camera.android.hardware.ICamera.h'
p378
sg15
(lp379
sg17
(lp380
sg19
(lp381
sg21
I0
sba(iArchitecture
Entity
p382
(dp383
g11
(lp384
sg13
S'include.camera.android.hardware.ICameraClient.h'
p385
sg15
(lp386
sg17
(lp387
sg19
(lp388
sg21
I0
sbasg22
(lp389
g336
ag343
ag350
ag357
ag364
ag371
ag378
ag385
asg21
I0
sg24
S'services.camera.libcameraservice.device3.StatusTracker.ch'
p390
sbasg182
g183
sg22
(lp391
sg185
I00
sg24
S'7.0.0_r1'
p392
sba.