(lp0
(iArchitecture
Architecture
p1
(dp2
S'clusters'
p3
(lp4
(iArchitecture
Cluster
p5
(dp6
S'entities'
p7
(lp8
(iArchitecture
Entity
p9
(dp10
S'issue_ids'
p11
(lp12
sS'name'
p13
S'include.media.stagefright.JPEGSource.h'
p14
sS'descs'
p15
(lp16
sS'labels'
p17
(lp18
sS'titles'
p19
(lp20
sS'change'
p21
I0
sbasS'classes'
p22
(lp23
g14
asg21
I0
sS'label'
p24
S'cmds.stagefright.stagefright.ss'
p25
sba(iArchitecture
Cluster
p26
(dp27
g7
(lp28
(iArchitecture
Entity
p29
(dp30
g11
(lp31
sg13
S'include.media.JetPlayer.h'
p32
sg15
(lp33
sg17
(lp34
sg19
(lp35
sg21
I0
sba(iArchitecture
Entity
p36
(dp37
g11
(lp38
sg13
S'include.media.MidiIoWrapper.h'
p39
sg15
(lp40
sg17
(lp41
sg19
(lp42
sg21
I0
sbasg22
(lp43
g32
ag39
asg21
I0
sg24
S'media.libmedia.JetPlayer.ss'
p44
sba(iArchitecture
Cluster
p45
(dp46
g7
(lp47
(iArchitecture
Entity
p48
(dp49
g11
(lp50
sg13
S'include.media.MediaProfiles.h'
p51
sg15
(lp52
sg17
(lp53
sg19
(lp54
sg21
I0
sbasg22
(lp55
g51
asg21
I0
sg24
S'media.libmedia.MediaProfiles.ss'
p56
sba(iArchitecture
Cluster
p57
(dp58
g7
(lp59
(iArchitecture
Entity
p60
(dp61
g11
(lp62
sg13
S'include.media.Visualizer.h'
p63
sg15
(lp64
sg17
(lp65
sg19
(lp66
sg21
I0
sbasg22
(lp67
g63
asg21
I0
sg24
S'media.libmedia.Visualizer.ss'
p68
sba(iArchitecture
Cluster
p69
(dp70
g7
(lp71
(iArchitecture
Entity
p72
(dp73
g11
(lp74
sg13
S'include.media.MemoryLeakTrackUtil.h'
p75
sg15
(lp76
sg17
(lp77
sg19
(lp78
sg21
I0
sba(iArchitecture
Entity
p79
(dp80
g11
(lp81
sg13
S'include.media.stagefright.AudioPlayer.h'
p82
sg15
(lp83
sg17
(lp84
sg19
(lp85
sg21
I0
sba(iArchitecture
Entity
p86
(dp87
g11
(lp88
sg13
S'include.media.stagefright.foundation.ALooperRoster.h'
p89
sg15
(lp90
sg17
(lp91
sg19
(lp92
sg21
I0
sbasg22
(lp93
g75
ag82
ag89
asg21
I0
sg24
S'media.libmediaplayerservice.MediaPlayerService.ch'
p94
sba(iArchitecture
Cluster
p95
(dp96
g7
(lp97
(iArchitecture
Entity
p98
(dp99
g11
(lp100
sg13
S'include.media.IMediaRecorder.h'
p101
sg15
(lp102
sg17
(lp103
sg19
(lp104
sg21
I0
sbasg22
(lp105
g101
asg21
I0
sg24
S'media.libmediaplayerservice.MediaRecorderClient.ch'
p106
sba(iArchitecture
Cluster
p107
(dp108
g7
(lp109
(iArchitecture
Entity
p110
(dp111
g11
(lp112
sg13
S'include.media.IRemoteDisplay.h'
p113
sg15
(lp114
sg17
(lp115
sg19
(lp116
sg21
I0
sbasg22
(lp117
g113
asg21
I0
sg24
S'media.libmediaplayerservice.RemoteDisplay.ch'
p118
sba(iArchitecture
Cluster
p119
(dp120
g7
(lp121
(iArchitecture
Entity
p122
(dp123
g11
(lp124
sg13
S'include.media.stagefright.TimeSource.h'
p125
sg15
(lp126
sg17
(lp127
sg19
(lp128
sg21
I0
sbasg22
(lp129
g125
asg21
I0
sg24
S'media.libmediaplayerservice.StagefrightPlayer.ch'
p130
sba(iArchitecture
Cluster
p131
(dp132
g7
(lp133
(iArchitecture
Entity
p134
(dp135
g11
(lp136
sg13
S'include.media.MediaRecorderBase.h'
p137
sg15
(lp138
sg17
(lp139
sg19
(lp140
sg21
I0
sba(iArchitecture
Entity
p141
(dp142
g11
(lp143
sg13
S'include.media.stagefright.AMRWriter.h'
p144
sg15
(lp145
sg17
(lp146
sg19
(lp147
sg21
I0
sba(iArchitecture
Entity
p148
(dp149
g11
(lp150
sg13
S'include.media.stagefright.MPEG2TSWriter.h'
p151
sg15
(lp152
sg17
(lp153
sg19
(lp154
sg21
I0
sbasg22
(lp155
g137
ag144
ag151
asg21
I0
sg24
S'media.libmediaplayerservice.StagefrightRecorder.ch'
p156
sba(iArchitecture
Cluster
p157
(dp158
g7
(lp159
(iArchitecture
Entity
p160
(dp161
g11
(lp162
sg13
S'include.media.nbaio.AudioBufferProviderSource.h'
p163
sg15
(lp164
sg17
(lp165
sg19
(lp166
sg21
I0
sbasg22
(lp167
g163
asg21
I0
sg24
S'media.libnbaio.AudioBufferProviderSource.ss'
p168
sba(iArchitecture
Cluster
p169
(dp170
g7
(lp171
(iArchitecture
Entity
p172
(dp173
g11
(lp174
sg13
S'include.media.nbaio.AudioStreamInSource.h'
p175
sg15
(lp176
sg17
(lp177
sg19
(lp178
sg21
I0
sbasg22
(lp179
g175
asg21
I0
sg24
S'media.libnbaio.AudioStreamInSource.ss'
p180
sba(iArchitecture
Cluster
p181
(dp182
g7
(lp183
(iArchitecture
Entity
p184
(dp185
g11
(lp186
sg13
S'include.media.nbaio.AudioStreamOutSink.h'
p187
sg15
(lp188
sg17
(lp189
sg19
(lp190
sg21
I0
sbasg22
(lp191
g187
asg21
I0
sg24
S'media.libnbaio.AudioStreamOutSink.ss'
p192
sba(iArchitecture
Cluster
p193
(dp194
g7
(lp195
(iArchitecture
Entity
p196
(dp197
g11
(lp198
sg13
S'include.media.nbaio.LibsndfileSink.h'
p199
sg15
(lp200
sg17
(lp201
sg19
(lp202
sg21
I0
sbasg22
(lp203
g199
asg21
I0
sg24
S'media.libnbaio.LibsndfileSink.ss'
p204
sba(iArchitecture
Cluster
p205
(dp206
g7
(lp207
(iArchitecture
Entity
p208
(dp209
g11
(lp210
sg13
S'include.media.nbaio.LibsndfileSource.h'
p211
sg15
(lp212
sg17
(lp213
sg19
(lp214
sg21
I0
sbasg22
(lp215
g211
asg21
I0
sg24
S'media.libnbaio.LibsndfileSource.ss'
p216
sba(iArchitecture
Cluster
p217
(dp218
g7
(lp219
(iArchitecture
Entity
p220
(dp221
g11
(lp222
sg13
S'include.media.nbaio.MonoPipeReader.h'
p223
sg15
(lp224
sg17
(lp225
sg19
(lp226
sg21
I0
sbasg22
(lp227
g223
asg21
I0
sg24
S'media.libnbaio.MonoPipeReader.ss'
p228
sba(iArchitecture
Cluster
p229
(dp230
g7
(lp231
(iArchitecture
Entity
p232
(dp233
g11
(lp234
sg13
S'include.media.nbaio.SourceAudioBufferProvider.h'
p235
sg15
(lp236
sg17
(lp237
sg19
(lp238
sg21
I0
sbasg22
(lp239
g235
asg21
I0
sg24
S'media.libnbaio.SourceAudioBufferProvider.ss'
p240
sba(iArchitecture
Cluster
p241
(dp242
g7
(lp243
(iArchitecture
Entity
p244
(dp245
g11
(lp246
sg13
S'include.media.mediarecorder.h'
p247
sg15
(lp248
sg17
(lp249
sg19
(lp250
sg21
I0
sba(iArchitecture
Entity
p251
(dp252
g11
(lp253
sg13
S'include.media.stagefright.AACWriter.h'
p254
sg15
(lp255
sg17
(lp256
sg19
(lp257
sg21
I0
sbasg22
(lp258
g247
ag254
asg21
I0
sg24
S'media.libstagefright.AACWriter.ss'
p259
sba(iArchitecture
Cluster
p260
(dp261
g7
(lp262
(iArchitecture
Entity
p263
(dp264
g11
(lp265
sg13
S'include.media.stagefright.MediaBufferGroup.h'
p266
sg15
(lp267
sg17
(lp268
sg19
(lp269
sg21
I0
sbasg22
(lp270
g266
asg21
I0
sg24
S'media.libstagefright.AVIExtractor.ss'
p271
sba(iArchitecture
Cluster
p272
(dp273
g7
(lp274
(iArchitecture
Entity
p275
(dp276
g11
(lp277
sg13
S'include.media.stagefright.CameraSource.h'
p278
sg15
(lp279
sg17
(lp280
sg19
(lp281
sg21
I0
sba(iArchitecture
Entity
p282
(dp283
g11
(lp284
sg13
S'include.media.stagefright.CameraSourceTimeLapse.h'
p285
sg15
(lp286
sg17
(lp287
sg19
(lp288
sg21
I0
sbasg22
(lp289
g278
ag285
asg21
I0
sg24
S'media.libstagefright.CameraSourceTimeLapse.ss'
p290
sba(iArchitecture
Cluster
p291
(dp292
g7
(lp293
(iArchitecture
Entity
p294
(dp295
g11
(lp296
sg13
S'include.media.stagefright.ACodec.h'
p297
sg15
(lp298
sg17
(lp299
sg19
(lp300
sg21
I0
sba(iArchitecture
Entity
p301
(dp302
g11
(lp303
sg13
S'include.media.stagefright.BufferProducerWrapper.h'
p304
sg15
(lp305
sg17
(lp306
sg19
(lp307
sg21
I0
sba(iArchitecture
Entity
p308
(dp309
g11
(lp310
sg13
S'include.media.stagefright.CodecBase.h'
p311
sg15
(lp312
sg17
(lp313
sg19
(lp314
sg21
I0
sba(iArchitecture
Entity
p315
(dp316
g11
(lp317
sg13
S'include.media.stagefright.MediaFilter.h'
p318
sg15
(lp319
sg17
(lp320
sg19
(lp321
sg21
I0
sba(iArchitecture
Entity
p322
(dp323
g11
(lp324
sg13
S'include.media.stagefright.SkipCutBuffer.h'
p325
sg15
(lp326
sg17
(lp327
sg19
(lp328
sg21
I0
sba(iArchitecture
Entity
p329
(dp330
g11
(lp331
sg13
S'include.media.stagefright.SurfaceUtils.h'
p332
sg15
(lp333
sg17
(lp334
sg19
(lp335
sg21
I0
sba(iArchitecture
Entity
p336
(dp337
g11
(lp338
sg13
S'include.media.stagefright.foundation.AHierarchicalStateMachine.h'
p339
sg15
(lp340
sg17
(lp341
sg19
(lp342
sg21
I0
sbasg22
(lp343
g297
ag304
ag311
ag318
ag325
ag332
ag339
asg21
I0
sg24
S'media.libstagefright.MediaCodec.ss'
p344
sba(iArchitecture
Cluster
p345
(dp346
g7
(lp347
(iArchitecture
Entity
p348
(dp349
g11
(lp350
sg13
S'include.media.IMediaCodecList.h'
p351
sg15
(lp352
sg17
(lp353
sg19
(lp354
sg21
I0
sba(iArchitecture
Entity
p355
(dp356
g11
(lp357
sg13
S'include.media.MediaCodecInfo.h'
p358
sg15
(lp359
sg17
(lp360
sg19
(lp361
sg21
I0
sba(iArchitecture
Entity
p362
(dp363
g11
(lp364
sg13
S'include.media.stagefright.MediaCodecList.h'
p365
sg15
(lp366
sg17
(lp367
sg19
(lp368
sg21
I0
sbasg22
(lp369
g351
ag358
ag365
asg21
I0
sg24
S'media.libstagefright.MediaCodecListOverrides.ch'
p370
sba(iArchitecture
Cluster
p371
(dp372
g7
(lp373
(iArchitecture
Entity
p374
(dp375
g11
(lp376
sg13
S'include.media.stagefright.MediaCodecSource.h'
p377
sg15
(lp378
sg17
(lp379
sg19
(lp380
sg21
I0
sba(iArchitecture
Entity
p381
(dp382
g11
(lp383
sg13
S'include.media.stagefright.PersistentSurface.h'
p384
sg15
(lp385
sg17
(lp386
sg19
(lp387
sg21
I0
sbasg22
(lp388
g377
ag384
asg21
I0
sg24
S'media.libstagefright.MediaCodecSource.ss'
p389
sba(iArchitecture
Cluster
p390
(dp391
g7
(lp392
(iArchitecture
Entity
p393
(dp394
g11
(lp395
sg13
S'include.media.stagefright.MPEG4Writer.h'
p396
sg15
(lp397
sg17
(lp398
sg19
(lp399
sg21
I0
sba(iArchitecture
Entity
p400
(dp401
g11
(lp402
sg13
S'include.media.stagefright.MediaAdapter.h'
p403
sg15
(lp404
sg17
(lp405
sg19
(lp406
sg21
I0
sbasg22
(lp407
g396
ag403
asg21
I0
sg24
S'media.libstagefright.MediaMuxer.ss'
p408
sba(iArchitecture
Cluster
p409
(dp410
g7
(lp411
(iArchitecture
Entity
p412
(dp413
g11
(lp414
sg13
S'include.media.stagefright.MediaClock.h'
p415
sg15
(lp416
sg17
(lp417
sg19
(lp418
sg21
I0
sba(iArchitecture
Entity
p419
(dp420
g11
(lp421
sg13
S'include.media.stagefright.MediaSync.h'
p422
sg15
(lp423
sg17
(lp424
sg19
(lp425
sg21
I0
sba(iArchitecture
Entity
p426
(dp427
g11
(lp428
sg13
S'include.media.stagefright.VideoFrameScheduler.h'
p429
sg15
(lp430
sg17
(lp431
sg19
(lp432
sg21
I0
sbasg22
(lp433
g415
ag422
ag429
asg21
I0
sg24
S'media.libstagefright.MediaSync.ss'
p434
sba(iArchitecture
Cluster
p435
(dp436
g7
(lp437
(iArchitecture
Entity
p438
(dp439
g11
(lp440
sg13
S'include.media.stagefright.ProcessInfo.h'
p441
sg15
(lp442
sg17
(lp443
sg19
(lp444
sg21
I0
sbasg22
(lp445
g441
asg21
I0
sg24
S'media.libstagefright.ProcessInfo.ss'
p446
sba(iArchitecture
Cluster
p447
(dp448
g7
(lp449
(iArchitecture
Entity
p450
(dp451
g11
(lp452
sg13
S'include.media.stagefright.StagefrightMediaScanner.h'
p453
sg15
(lp454
sg17
(lp455
sg19
(lp456
sg21
I0
sbasg22
(lp457
g453
asg21
I0
sg24
S'media.libstagefright.StagefrightMediaScanner.ss'
p458
sba(iArchitecture
Cluster
p459
(dp460
g7
(lp461
(iArchitecture
Entity
p462
(dp463
g11
(lp464
sg13
S'include.media.CharacterEncodingDetector.h'
p465
sg15
(lp466
sg17
(lp467
sg19
(lp468
sg21
I0
sba(iArchitecture
Entity
p469
(dp470
g11
(lp471
sg13
S'include.media.MediaMetadataRetrieverInterface.h'
p472
sg15
(lp473
sg17
(lp474
sg19
(lp475
sg21
I0
sba(iArchitecture
Entity
p476
(dp477
g11
(lp478
sg13
S'include.media.StringArray.h'
p479
sg15
(lp480
sg17
(lp481
sg19
(lp482
sg21
I0
sba(iArchitecture
Entity
p483
(dp484
g11
(lp485
sg13
S'include.media.mediametadataretriever.h'
p486
sg15
(lp487
sg17
(lp488
sg19
(lp489
sg21
I0
sba(iArchitecture
Entity
p490
(dp491
g11
(lp492
sg13
S'include.media.mediascanner.h'
p493
sg15
(lp494
sg17
(lp495
sg19
(lp496
sg21
I0
sba(iArchitecture
Entity
p497
(dp498
g11
(lp499
sg13
S'include.media.stagefright.ColorConverter.h'
p500
sg15
(lp501
sg17
(lp502
sg19
(lp503
sg21
I0
sba(iArchitecture
Entity
p504
(dp505
g11
(lp506
sg13
S'include.media.stagefright.OMXClient.h'
p507
sg15
(lp508
sg17
(lp509
sg19
(lp510
sg21
I0
sbasg22
(lp511
g465
ag472
ag479
ag486
ag493
ag500
ag507
asg21
I0
sg24
S'media.libstagefright.StagefrightMetadataRetriever.ss'
p512
sba(iArchitecture
Cluster
p513
(dp514
g7
(lp515
(iArchitecture
Entity
p516
(dp517
g11
(lp518
sg13
S'include.media.stagefright.RenderScriptWrapper.h'
p519
sg15
(lp520
sg17
(lp521
sg19
(lp522
sg21
I0
sbasg22
(lp523
g519
asg21
I0
sg24
S'media.libstagefright.filters.RSFilter.ch'
p524
sba(iArchitecture
Cluster
p525
(dp526
g7
(lp527
(iArchitecture
Entity
p528
(dp529
g11
(lp530
sg13
S'include.media.stagefright.foundation.ANetworkSession.h'
p531
sg15
(lp532
sg17
(lp533
sg19
(lp534
sg21
I0
sbasg22
(lp535
g531
asg21
I0
sg24
S'media.libstagefright.foundation.ANetworkSession.ss'
p536
sba(iArchitecture
Cluster
p537
(dp538
g7
(lp539
(iArchitecture
Entity
p540
(dp541
g11
(lp542
sg13
S'include.media.stagefright.foundation.AWakeLock.h'
p543
sg15
(lp544
sg17
(lp545
sg19
(lp546
sg21
I0
sbasg22
(lp547
g543
asg21
I0
sg24
S'media.libstagefright.foundation.AWakeLock.ss'
p548
sba(iArchitecture
Cluster
p549
(dp550
g7
(lp551
(iArchitecture
Entity
p552
(dp553
g11
(lp554
sg13
S'include.media.stagefright.foundation.AUtils.h'
p555
sg15
(lp556
sg17
(lp557
sg19
(lp558
sg21
I0
sbasg22
(lp559
g555
asg21
I0
sg24
S'media.libstagefright.omx.SoftVideoEncoderOMXComponent.ss'
p560
sba(iArchitecture
Cluster
p561
(dp562
g7
(lp563
(iArchitecture
Entity
p564
(dp565
g11
(lp566
sg13
S'include.media.IOMX.h'
p567
sg15
(lp568
sg17
(lp569
sg19
(lp570
sg21
I0
sba(iArchitecture
Entity
p571
(dp572
g11
(lp573
sg13
S'include.media.stagefright.MediaExtractor.h'
p574
sg15
(lp575
sg17
(lp576
sg19
(lp577
sg21
I0
sba(iArchitecture
Entity
p578
(dp579
g11
(lp580
sg13
S'include.media.stagefright.OMXCodec.h'
p581
sg15
(lp582
sg17
(lp583
sg19
(lp584
sg21
I0
sbasg22
(lp585
g567
ag574
ag581
asg21
I0
sg24
S'media.libstagefright.omx.tests.OMXHarness.ch'
p586
sba(iArchitecture
Cluster
p587
(dp588
g7
(lp589
(iArchitecture
Entity
p590
(dp591
g11
(lp592
sg13
S'include.media.stagefright.foundation.base64.h'
p593
sg15
(lp594
sg17
(lp595
sg19
(lp596
sg21
I0
sbasg22
(lp597
g593
asg21
I0
sg24
S'media.libstagefright.rtsp.ARTSPConnection.ch'
p598
sba(iArchitecture
Cluster
p599
(dp600
g7
(lp601
(iArchitecture
Entity
p602
(dp603
g11
(lp604
sg13
S'include.media.IMediaHTTPConnection.h'
p605
sg15
(lp606
sg17
(lp607
sg19
(lp608
sg21
I0
sba(iArchitecture
Entity
p609
(dp610
g11
(lp611
sg13
S'include.media.stagefright.MediaHTTP.h'
p612
sg15
(lp613
sg17
(lp614
sg19
(lp615
sg21
I0
sbasg22
(lp616
g605
ag612
asg21
I0
sg24
S'media.libstagefright.rtsp.SDPLoader.ss'
p617
sba(iArchitecture
Cluster
p618
(dp619
g7
(lp620
(iArchitecture
Entity
p621
(dp622
g11
(lp623
sg13
S'include.media.stagefright.timedtext.TimedTextDriver.h'
p624
sg15
(lp625
sg17
(lp626
sg19
(lp627
sg21
I0
sbasg22
(lp628
g624
asg21
I0
sg24
S'media.libstagefright.timedtext.TimedTextPlayer.ch'
p629
sba(iArchitecture
Cluster
p630
(dp631
g7
(lp632
(iArchitecture
Entity
p633
(dp634
g11
(lp635
sg13
S'include.media.IMediaRecorderClient.h'
p636
sg15
(lp637
sg17
(lp638
sg19
(lp639
sg21
I0
sba(iArchitecture
Entity
p640
(dp641
g11
(lp642
sg13
S'include.media.stagefright.FileSource.h'
p643
sg15
(lp644
sg17
(lp645
sg19
(lp646
sg21
I0
sba(iArchitecture
Entity
p647
(dp648
g11
(lp649
sg13
S'include.media.stagefright.MediaWriter.h'
p650
sg15
(lp651
sg17
(lp652
sg19
(lp653
sg21
I0
sbasg22
(lp654
g636
ag643
ag650
asg21
I0
sg24
S'media.libstagefright.webm.WebmWriter.ch'
p655
sba(iArchitecture
Cluster
p656
(dp657
g7
(lp658
(iArchitecture
Entity
p659
(dp660
g11
(lp661
sg13
S'include.media.AudioRecord.h'
p662
sg15
(lp663
sg17
(lp664
sg19
(lp665
sg21
I0
sba(iArchitecture
Entity
p666
(dp667
g11
(lp668
sg13
S'include.media.stagefright.AudioSource.h'
p669
sg15
(lp670
sg17
(lp671
sg19
(lp672
sg21
I0
sba(iArchitecture
Entity
p673
(dp674
g11
(lp675
sg13
S'include.media.stagefright.DataSource.h'
p676
sg15
(lp677
sg17
(lp678
sg19
(lp679
sg21
I0
sba(iArchitecture
Entity
p680
(dp681
g11
(lp682
sg13
S'include.media.stagefright.SurfaceMediaSource.h'
p683
sg15
(lp684
sg17
(lp685
sg19
(lp686
sg21
I0
sba(iArchitecture
Entity
p687
(dp688
g11
(lp689
sg13
S'include.media.stagefright.foundation.ABitReader.h'
p690
sg15
(lp691
sg17
(lp692
sg19
(lp693
sg21
I0
sbasg22
(lp694
g662
ag669
ag676
ag683
ag690
asg21
I0
sg24
S'media.libstagefright.wifi-display.source.PlaybackSession.ch'
p695
sba(iArchitecture
Cluster
p696
(dp697
g7
(lp698
(iArchitecture
Entity
p699
(dp700
g11
(lp701
sg13
S'include.media.stagefright.MediaBuffer.h'
p702
sg15
(lp703
sg17
(lp704
sg19
(lp705
sg21
I0
sba(iArchitecture
Entity
p706
(dp707
g11
(lp708
sg13
S'include.media.stagefright.foundation.AHandlerReflector.h'
p709
sg15
(lp710
sg17
(lp711
sg19
(lp712
sg21
I0
sba(iArchitecture
Entity
p713
(dp714
g11
(lp715
sg13
S'include.media.stagefright.foundation.MediaBufferBase.h'
p716
sg15
(lp717
sg17
(lp718
sg19
(lp719
sg21
I0
sbasg22
(lp720
g702
ag709
ag716
asg21
I0
sg24
S'media.libstagefright.wifi-display.source.RepeaterSource.ch'
p721
sba(iArchitecture
Cluster
p722
(dp723
g7
(lp724
(iArchitecture
Entity
p725
(dp726
g11
(lp727
sg13
S'include.media.stagefright.MediaDefs.h'
p728
sg15
(lp729
sg17
(lp730
sg19
(lp731
sg21
I0
sba(iArchitecture
Entity
p732
(dp733
g11
(lp734
sg13
S'include.media.stagefright.foundation.hexdump.h'
p735
sg15
(lp736
sg17
(lp737
sg19
(lp738
sg21
I0
sbasg22
(lp739
g728
ag735
asg21
I0
sg24
S'media.libstagefright.wifi-display.source.TSPacketizer.ch'
p740
sba(iArchitecture
Cluster
p741
(dp742
g7
(lp743
(iArchitecture
Entity
p744
(dp745
g11
(lp746
sg13
S'include.media.IHDCP.h'
p747
sg15
(lp748
sg17
(lp749
sg19
(lp750
sg21
I0
sba(iArchitecture
Entity
p751
(dp752
g11
(lp753
sg13
S'include.media.IRemoteDisplayClient.h'
p754
sg15
(lp755
sg17
(lp756
sg19
(lp757
sg21
I0
sba(iArchitecture
Entity
p758
(dp759
g11
(lp760
sg13
S'include.media.stagefright.foundation.ParsedMessage.h'
p761
sg15
(lp762
sg17
(lp763
sg19
(lp764
sg21
I0
sbasg22
(lp765
g747
ag754
ag761
asg21
I0
sg24
S'media.libstagefright.wifi-display.source.WifiDisplaySource.ch'
p766
sba(iArchitecture
Cluster
p767
(dp768
g7
(lp769
(iArchitecture
Entity
p770
(dp771
g11
(lp772
sg13
S'include.media.stagefright.YUVCanvas.h'
p773
sg15
(lp774
sg17
(lp775
sg19
(lp776
sg21
I0
sba(iArchitecture
Entity
p777
(dp778
g11
(lp779
sg13
S'include.media.stagefright.YUVImage.h'
p780
sg15
(lp781
sg17
(lp782
sg19
(lp783
sg21
I0
sbasg22
(lp784
g773
ag780
asg21
I0
sg24
S'media.libstagefright.yuv.YUVCanvas.ss'
p785
sba(iArchitecture
Cluster
p786
(dp787
g7
(lp788
(iArchitecture
Entity
p789
(dp790
g11
(lp791
sg13
S'include.media.AVSyncSettings.h'
p792
sg15
(lp793
sg17
(lp794
sg19
(lp795
sg21
I0
sba(iArchitecture
Entity
p796
(dp797
g11
(lp798
sg13
S'include.media.MediaPlayerInterface.h'
p799
sg15
(lp800
sg17
(lp801
sg19
(lp802
sg21
I0
sbasg22
(lp803
g792
ag799
asg21
I0
sg24
S'media.mediaserver.main_mediaserver.ss'
p804
sba(iArchitecture
Cluster
p805
(dp806
g7
(lp807
(iArchitecture
Entity
p808
(dp809
g11
(lp810
sg13
S'include.media.ICrypto.h'
p811
sg15
(lp812
sg17
(lp813
sg19
(lp814
sg21
I0
sba(iArchitecture
Entity
p815
(dp816
g11
(lp817
sg13
S'include.media.stagefright.FrameRenderTracker.h'
p818
sg15
(lp819
sg17
(lp820
sg19
(lp821
sg21
I0
sba(iArchitecture
Entity
p822
(dp823
g11
(lp824
sg13
S'include.media.stagefright.MediaCodec.h'
p825
sg15
(lp826
sg17
(lp827
sg19
(lp828
sg21
I0
sba(iArchitecture
Entity
p829
(dp830
g11
(lp831
sg13
S'include.media.stagefright.foundation.ADebug.h'
p832
sg15
(lp833
sg17
(lp834
sg19
(lp835
sg21
I0
sba(iArchitecture
Entity
p836
(dp837
g11
(lp838
sg13
S'include.media.stagefright.foundation.AHandler.h'
p839
sg15
(lp840
sg17
(lp841
sg19
(lp842
sg21
I0
sbasg22
(lp843
g811
ag818
ag825
ag832
ag839
asg21
I0
sg24
S'media.ndk.NdkMediaCodec.ss'
p844
sba(iArchitecture
Cluster
p845
(dp846
g7
(lp847
(iArchitecture
Entity
p848
(dp849
g11
(lp850
sg13
S'include.media.IDrm.h'
p851
sg15
(lp852
sg17
(lp853
sg19
(lp854
sg21
I0
sba(iArchitecture
Entity
p855
(dp856
g11
(lp857
sg13
S'include.media.IDrmClient.h'
p858
sg15
(lp859
sg17
(lp860
sg19
(lp861
sg21
I0
sbasg22
(lp862
g851
ag858
asg21
I0
sg24
S'media.ndk.NdkMediaDrm.ss'
p863
sba(iArchitecture
Cluster
p864
(dp865
g7
(lp866
(iArchitecture
Entity
p867
(dp868
g11
(lp869
sg13
S'include.media.stagefright.MediaErrors.h'
p870
sg15
(lp871
sg17
(lp872
sg19
(lp873
sg21
I0
sba(iArchitecture
Entity
p874
(dp875
g11
(lp876
sg13
S'include.media.stagefright.MediaSource.h'
p877
sg15
(lp878
sg17
(lp879
sg19
(lp880
sg21
I0
sba(iArchitecture
Entity
p881
(dp882
g11
(lp883
sg13
S'include.media.stagefright.NuMediaExtractor.h'
p884
sg15
(lp885
sg17
(lp886
sg19
(lp887
sg21
I0
sbasg22
(lp888
g870
ag877
ag884
asg21
I0
sg24
S'media.ndk.NdkMediaExtractor.ss'
p889
sba(iArchitecture
Cluster
p890
(dp891
g7
(lp892
(iArchitecture
Entity
p893
(dp894
g11
(lp895
sg13
S'include.media.Metadata.h'
p896
sg15
(lp897
sg17
(lp898
sg19
(lp899
sg21
I0
sba(iArchitecture
Entity
p900
(dp901
g11
(lp902
sg13
S'include.media.stagefright.MediaMuxer.h'
p903
sg15
(lp904
sg17
(lp905
sg19
(lp906
sg21
I0
sba(iArchitecture
Entity
p907
(dp908
g11
(lp909
sg13
S'include.media.stagefright.foundation.ABuffer.h'
p910
sg15
(lp911
sg17
(lp912
sg19
(lp913
sg21
I0
sba(iArchitecture
Entity
p914
(dp915
g11
(lp916
sg13
S'include.media.stagefright.foundation.ALooper.h'
p917
sg15
(lp918
sg17
(lp919
sg19
(lp920
sg21
I0
sba(iArchitecture
Entity
p921
(dp922
g11
(lp923
sg13
S'include.media.stagefright.foundation.AMessage.h'
p924
sg15
(lp925
sg17
(lp926
sg19
(lp927
sg21
I0
sbasg22
(lp928
g896
ag903
ag910
ag917
ag924
asg21
I0
sg24
S'media.ndk.NdkMediaMuxer.ss'
p929
sba(iArchitecture
Cluster
p930
(dp931
g7
(lp932
(iArchitecture
Entity
p933
(dp934
g11
(lp935
sg13
S'include.media.AudioBufferProvider.h'
p936
sg15
(lp937
sg17
(lp938
sg19
(lp939
sg21
I0
sba(iArchitecture
Entity
p940
(dp941
g11
(lp942
sg13
S'include.media.ExtendedAudioBufferProvider.h'
p943
sg15
(lp944
sg17
(lp945
sg19
(lp946
sg21
I0
sba(iArchitecture
Entity
p947
(dp948
g11
(lp949
sg13
S'include.media.SingleStateQueue.h'
p950
sg15
(lp951
sg17
(lp952
sg19
(lp953
sg21
I0
sba(iArchitecture
Entity
p954
(dp955
g11
(lp956
sg13
S'include.media.nbaio.MonoPipe.h'
p957
sg15
(lp958
sg17
(lp959
sg19
(lp960
sg21
I0
sba(iArchitecture
Entity
p961
(dp962
g11
(lp963
sg13
S'include.media.nbaio.NBAIO.h'
p964
sg15
(lp965
sg17
(lp966
sg19
(lp967
sg21
I0
sba(iArchitecture
Entity
p968
(dp969
g11
(lp970
sg13
S'include.media.nbaio.Pipe.h'
p971
sg15
(lp972
sg17
(lp973
sg19
(lp974
sg21
I0
sba(iArchitecture
Entity
p975
(dp976
g11
(lp977
sg13
S'include.media.nbaio.PipeReader.h'
p978
sg15
(lp979
sg17
(lp980
sg19
(lp981
sg21
I0
sbasg22
(lp982
g936
ag943
ag950
ag957
ag964
ag971
ag978
asg21
I0
sg24
S'services.audioflinger.Threads.ch'
p983
sba(iArchitecture
Cluster
p984
(dp985
g7
(lp986
(iArchitecture
Entity
p987
(dp988
g11
(lp989
sg13
S'include.media.AudioPolicyHelper.h'
p990
sg15
(lp991
sg17
(lp992
sg19
(lp993
sg21
I0
sbasg22
(lp994
g990
asg21
I0
sg24
S'services.audiopolicy.managerdefault.AudioPolicyManager.ch'
p995
sba(iArchitecture
Cluster
p996
(dp997
g7
(lp998
(iArchitecture
Entity
p999
(dp1000
g11
(lp1001
sg13
S'include.media.EffectsFactoryApi.h'
p1002
sg15
(lp1003
sg17
(lp1004
sg19
(lp1005
sg21
I0
sbasg22
(lp1006
g1002
asg21
I0
sg24
S'services.audiopolicy.service.AudioPolicyClientImplLegacy.ss'
p1007
sba(iArchitecture
Cluster
p1008
(dp1009
g7
(lp1010
(iArchitecture
Entity
p1011
(dp1012
g11
(lp1013
sg13
S'include.media.AudioEffect.h'
p1014
sg15
(lp1015
sg17
(lp1016
sg19
(lp1017
sg21
I0
sba(iArchitecture
Entity
p1018
(dp1019
g11
(lp1020
sg13
S'include.media.AudioParameter.h'
p1021
sg15
(lp1022
sg17
(lp1023
sg19
(lp1024
sg21
I0
sba(iArchitecture
Entity
p1025
(dp1026
g11
(lp1027
sg13
S'include.media.AudioTimestamp.h'
p1028
sg15
(lp1029
sg17
(lp1030
sg19
(lp1031
sg21
I0
sba(iArchitecture
Entity
p1032
(dp1033
g11
(lp1034
sg13
S'include.media.AudioTrack.h'
p1035
sg15
(lp1036
sg17
(lp1037
sg19
(lp1038
sg21
I0
sba(iArchitecture
Entity
p1039
(dp1040
g11
(lp1041
sg13
S'include.media.IAudioFlinger.h'
p1042
sg15
(lp1043
sg17
(lp1044
sg19
(lp1045
sg21
I0
sba(iArchitecture
Entity
p1046
(dp1047
g11
(lp1048
sg13
S'include.media.IAudioPolicyService.h'
p1049
sg15
(lp1050
sg17
(lp1051
sg19
(lp1052
sg21
I0
sba(iArchitecture
Entity
p1053
(dp1054
g11
(lp1055
sg13
S'include.media.IAudioRecord.h'
p1056
sg15
(lp1057
sg17
(lp1058
sg19
(lp1059
sg21
I0
sba(iArchitecture
Entity
p1060
(dp1061
g11
(lp1062
sg13
S'include.media.IAudioTrack.h'
p1063
sg15
(lp1064
sg17
(lp1065
sg19
(lp1066
sg21
I0
sba(iArchitecture
Entity
p1067
(dp1068
g11
(lp1069
sg13
S'include.media.IEffect.h'
p1070
sg15
(lp1071
sg17
(lp1072
sg19
(lp1073
sg21
I0
sba(iArchitecture
Entity
p1074
(dp1075
g11
(lp1076
sg13
S'include.media.IEffectClient.h'
p1077
sg15
(lp1078
sg17
(lp1079
sg19
(lp1080
sg21
I0
sba(iArchitecture
Entity
p1081
(dp1082
g11
(lp1083
sg13
S'include.media.ToneGenerator.h'
p1084
sg15
(lp1085
sg17
(lp1086
sg19
(lp1087
sg21
I0
sbasg22
(lp1088
g1014
ag1021
ag1028
ag1035
ag1042
ag1049
ag1056
ag1063
ag1070
ag1077
ag1084
asg21
I0
sg24
S'services.audiopolicy.service.AudioPolicyService.ch'
p1089
sba(iArchitecture
Cluster
p1090
(dp1091
g7
(lp1092
(iArchitecture
Entity
p1093
(dp1094
g11
(lp1095
sg13
S'include.media.AudioResamplerPublic.h'
p1096
sg15
(lp1097
sg17
(lp1098
sg19
(lp1099
sg21
I0
sba(iArchitecture
Entity
p1100
(dp1101
g11
(lp1102
sg13
S'include.media.IDataSource.h'
p1103
sg15
(lp1104
sg17
(lp1105
sg19
(lp1106
sg21
I0
sba(iArchitecture
Entity
p1107
(dp1108
g11
(lp1109
sg13
S'include.media.IMediaDeathNotifier.h'
p1110
sg15
(lp1111
sg17
(lp1112
sg19
(lp1113
sg21
I0
sba(iArchitecture
Entity
p1114
(dp1115
g11
(lp1116
sg13
S'include.media.IMediaHTTPService.h'
p1117
sg15
(lp1118
sg17
(lp1119
sg19
(lp1120
sg21
I0
sba(iArchitecture
Entity
p1121
(dp1122
g11
(lp1123
sg13
S'include.media.IMediaMetadataRetriever.h'
p1124
sg15
(lp1125
sg17
(lp1126
sg19
(lp1127
sg21
I0
sba(iArchitecture
Entity
p1128
(dp1129
g11
(lp1130
sg13
S'include.media.IMediaPlayer.h'
p1131
sg15
(lp1132
sg17
(lp1133
sg19
(lp1134
sg21
I0
sba(iArchitecture
Entity
p1135
(dp1136
g11
(lp1137
sg13
S'include.media.IMediaPlayerClient.h'
p1138
sg15
(lp1139
sg17
(lp1140
sg19
(lp1141
sg21
I0
sba(iArchitecture
Entity
p1142
(dp1143
g11
(lp1144
sg13
S'include.media.IMediaPlayerService.h'
p1145
sg15
(lp1146
sg17
(lp1147
sg19
(lp1148
sg21
I0
sba(iArchitecture
Entity
p1149
(dp1150
g11
(lp1151
sg13
S'include.media.IStreamSource.h'
p1152
sg15
(lp1153
sg17
(lp1154
sg19
(lp1155
sg21
I0
sba(iArchitecture
Entity
p1156
(dp1157
g11
(lp1158
sg13
S'include.media.mediaplayer.h'
p1159
sg15
(lp1160
sg17
(lp1161
sg19
(lp1162
sg21
I0
sba(iArchitecture
Entity
p1163
(dp1164
g11
(lp1165
sg13
S'media.utils.include.mediautils.BatteryNotifier.h'
p1166
sg15
(lp1167
sg17
(lp1168
sg19
(lp1169
sg21
I0
sbasg22
(lp1170
g1096
ag1103
ag1110
ag1117
ag1124
ag1131
ag1138
ag1145
ag1152
ag1159
ag1166
asg21
I0
sg24
S'services.camera.libcameraservice.CameraService.ch'
p1171
sba(iArchitecture
Cluster
p1172
(dp1173
g7
(lp1174
(iArchitecture
Entity
p1175
(dp1176
g11
(lp1177
sg13
S'include.media.stagefright.foundation.AString.h'
p1178
sg15
(lp1179
sg17
(lp1180
sg19
(lp1181
sg21
I0
sbasg22
(lp1182
g1178
asg21
I0
sg24
S'services.camera.libcameraservice.api1.client2.ZslProcessor3.ch'
p1183
sba(iArchitecture
Cluster
p1184
(dp1185
g7
(lp1186
(iArchitecture
Entity
p1187
(dp1188
g11
(lp1189
sg13
S'include.media.IMediaLogService.h'
p1190
sg15
(lp1191
sg17
(lp1192
sg19
(lp1193
sg21
I0
sba(iArchitecture
Entity
p1194
(dp1195
g11
(lp1196
sg13
S'include.media.nbaio.NBLog.h'
p1197
sg15
(lp1198
sg17
(lp1199
sg19
(lp1200
sg21
I0
sbasg22
(lp1201
g1190
ag1197
asg21
I0
sg24
S'services.medialog.MediaLogService.ch'
p1202
sba(iArchitecture
Cluster
p1203
(dp1204
g7
(lp1205
(iArchitecture
Entity
p1206
(dp1207
g11
(lp1208
sg13
S'include.media.IResourceManagerClient.h'
p1209
sg15
(lp1210
sg17
(lp1211
sg19
(lp1212
sg21
I0
sba(iArchitecture
Entity
p1213
(dp1214
g11
(lp1215
sg13
S'include.media.IResourceManagerService.h'
p1216
sg15
(lp1217
sg17
(lp1218
sg19
(lp1219
sg21
I0
sba(iArchitecture
Entity
p1220
(dp1221
g11
(lp1222
sg13
S'include.media.MediaResource.h'
p1223
sg15
(lp1224
sg17
(lp1225
sg19
(lp1226
sg21
I0
sba(iArchitecture
Entity
p1227
(dp1228
g11
(lp1229
sg13
S'include.media.MediaResourcePolicy.h'
p1230
sg15
(lp1231
sg17
(lp1232
sg19
(lp1233
sg21
I0
sba(iArchitecture
Entity
p1234
(dp1235
g11
(lp1236
sg13
S'include.media.stagefright.ProcessInfoInterface.h'
p1237
sg15
(lp1238
sg17
(lp1239
sg19
(lp1240
sg21
I0
sba(iArchitecture
Entity
p1241
(dp1242
g11
(lp1243
sg13
S'include.media.stagefright.foundation.ABase.h'
p1244
sg15
(lp1245
sg17
(lp1246
sg19
(lp1247
sg21
I0
sbasg22
(lp1248
g1209
ag1216
ag1223
ag1230
ag1237
ag1244
asg21
I0
sg24
S'services.mediaresourcemanager.ResourceManagerService.ch'
p1249
sba(iArchitecture
Cluster
p1250
(dp1251
g7
(lp1252
(iArchitecture
Entity
p1253
(dp1254
g11
(lp1255
sg13
S'include.media.RingBuffer.h'
p1256
sg15
(lp1257
sg17
(lp1258
sg19
(lp1259
sg21
I0
sbasg22
(lp1260
g1256
asg21
I0
sg24
S'services.mediaresourcemanager.ServiceLog.ch'
p1261
sba(iArchitecture
Cluster
p1262
(dp1263
g7
(lp1264
(iArchitecture
Entity
p1265
(dp1266
g11
(lp1267
sg13
S'include.media.stagefright.DataURISource.h'
p1268
sg15
(lp1269
sg17
(lp1270
sg19
(lp1271
sg21
I0
sba(iArchitecture
Entity
p1272
(dp1273
g11
(lp1274
sg13
S'include.media.stagefright.foundation.AAtomizer.h'
p1275
sg15
(lp1276
sg17
(lp1277
sg19
(lp1278
sg21
I0
sbasg22
(lp1279
g1268
ag1275
asg21
I0
sg24
S'services.radio.RadioService.ch'
p1280
sba(iArchitecture
Cluster
p1281
(dp1282
g7
(lp1283
(iArchitecture
Entity
p1284
(dp1285
g11
(lp1286
sg13
S'include.media.AudioIoDescriptor.h'
p1287
sg15
(lp1288
sg17
(lp1289
sg19
(lp1290
sg21
I0
sba(iArchitecture
Entity
p1291
(dp1292
g11
(lp1293
sg13
S'include.media.AudioPolicy.h'
p1294
sg15
(lp1295
sg17
(lp1296
sg19
(lp1297
sg21
I0
sba(iArchitecture
Entity
p1298
(dp1299
g11
(lp1300
sg13
S'include.media.AudioSystem.h'
p1301
sg15
(lp1302
sg17
(lp1303
sg19
(lp1304
sg21
I0
sba(iArchitecture
Entity
p1305
(dp1306
g11
(lp1307
sg13
S'include.media.IAudioFlingerClient.h'
p1308
sg15
(lp1309
sg17
(lp1310
sg19
(lp1311
sg21
I0
sba(iArchitecture
Entity
p1312
(dp1313
g11
(lp1314
sg13
S'include.media.IAudioPolicyServiceClient.h'
p1315
sg15
(lp1316
sg17
(lp1317
sg19
(lp1318
sg21
I0
sba(iArchitecture
Entity
p1319
(dp1320
g11
(lp1321
sg13
S'include.media.stagefright.ClockEstimator.h'
p1322
sg15
(lp1323
sg17
(lp1324
sg19
(lp1325
sg21
I0
sba(iArchitecture
Entity
p1326
(dp1327
g11
(lp1328
sg13
S'include.media.stagefright.foundation.AStringUtils.h'
p1329
sg15
(lp1330
sg17
(lp1331
sg19
(lp1332
sg21
I0
sbasg22
(lp1333
g1287
ag1294
ag1301
ag1308
ag1315
ag1322
ag1329
asg21
I0
sg24
S'services.soundtrigger.SoundTriggerHwService.ch'
p1334
sbasS'target_sub'
p1335
S'include.media'
p1336
sg22
(lp1337
sS'is_component_arch'
p1338
I00
sg24
S'6.0.0_r1'
p1339
sba(iArchitecture
Architecture
p1340
(dp1341
g3
(lp1342
(iArchitecture
Cluster
p1343
(dp1344
g7
(lp1345
(iArchitecture
Entity
p1346
(dp1347
g11
(lp1348
sg13
S'include.media.stagefright.AudioPlayer.h'
p1349
sg15
(lp1350
sg17
(lp1351
sg19
(lp1352
sg21
I0
sba(iArchitecture
Entity
p1353
(dp1354
g11
(lp1355
sg13
S'include.media.stagefright.JPEGSource.h'
p1356
sg15
(lp1357
sg17
(lp1358
sg19
(lp1359
sg21
I0
sbasg22
(lp1360
g1349
ag1356
asg21
I0
sg24
S'cmds.stagefright.stagefright.ss'
p1361
sba(iArchitecture
Cluster
p1362
(dp1363
g7
(lp1364
(iArchitecture
Entity
p1365
(dp1366
g11
(lp1367
sg13
S'include.media.Crypto.h'
p1368
sg15
(lp1369
sg17
(lp1370
sg19
(lp1371
sg21
I0
sbasg22
(lp1372
g1368
asg21
I0
sg24
S'drm.libmediadrm.Crypto.ss'
p1373
sba(iArchitecture
Cluster
p1374
(dp1375
g7
(lp1376
(iArchitecture
Entity
p1377
(dp1378
g11
(lp1379
sg13
S'include.media.JetPlayer.h'
p1380
sg15
(lp1381
sg17
(lp1382
sg19
(lp1383
sg21
I0
sba(iArchitecture
Entity
p1384
(dp1385
g11
(lp1386
sg13
S'include.media.MidiIoWrapper.h'
p1387
sg15
(lp1388
sg17
(lp1389
sg19
(lp1390
sg21
I0
sbasg22
(lp1391
g1380
ag1387
asg21
I0
sg24
S'media.libmedia.JetPlayer.ss'
p1392
sba(iArchitecture
Cluster
p1393
(dp1394
g7
(lp1395
(iArchitecture
Entity
p1396
(dp1397
g11
(lp1398
sg13
S'include.media.MediaProfiles.h'
p1399
sg15
(lp1400
sg17
(lp1401
sg19
(lp1402
sg21
I0
sbasg22
(lp1403
g1399
asg21
I0
sg24
S'media.libmedia.MediaProfiles.ss'
p1404
sba(iArchitecture
Cluster
p1405
(dp1406
g7
(lp1407
(iArchitecture
Entity
p1408
(dp1409
g11
(lp1410
sg13
S'include.media.Visualizer.h'
p1411
sg15
(lp1412
sg17
(lp1413
sg19
(lp1414
sg21
I0
sbasg22
(lp1415
g1411
asg21
I0
sg24
S'media.libmedia.Visualizer.ss'
p1416
sba(iArchitecture
Cluster
p1417
(dp1418
g7
(lp1419
(iArchitecture
Entity
p1420
(dp1421
g11
(lp1422
sg13
S'include.media.stagefright.foundation.ALooperRoster.h'
p1423
sg15
(lp1424
sg17
(lp1425
sg19
(lp1426
sg21
I0
sbasg22
(lp1427
g1423
asg21
I0
sg24
S'media.libmediaplayerservice.MediaPlayerService.ch'
p1428
sba(iArchitecture
Cluster
p1429
(dp1430
g7
(lp1431
(iArchitecture
Entity
p1432
(dp1433
g11
(lp1434
sg13
S'include.media.IMediaRecorder.h'
p1435
sg15
(lp1436
sg17
(lp1437
sg19
(lp1438
sg21
I0
sbasg22
(lp1439
g1435
asg21
I0
sg24
S'media.libmediaplayerservice.MediaRecorderClient.ch'
p1440
sba(iArchitecture
Cluster
p1441
(dp1442
g7
(lp1443
(iArchitecture
Entity
p1444
(dp1445
g11
(lp1446
sg13
S'include.media.IRemoteDisplay.h'
p1447
sg15
(lp1448
sg17
(lp1449
sg19
(lp1450
sg21
I0
sbasg22
(lp1451
g1447
asg21
I0
sg24
S'media.libmediaplayerservice.RemoteDisplay.ch'
p1452
sba(iArchitecture
Cluster
p1453
(dp1454
g7
(lp1455
(iArchitecture
Entity
p1456
(dp1457
g11
(lp1458
sg13
S'include.media.MediaRecorderBase.h'
p1459
sg15
(lp1460
sg17
(lp1461
sg19
(lp1462
sg21
I0
sba(iArchitecture
Entity
p1463
(dp1464
g11
(lp1465
sg13
S'include.media.stagefright.AMRWriter.h'
p1466
sg15
(lp1467
sg17
(lp1468
sg19
(lp1469
sg21
I0
sba(iArchitecture
Entity
p1470
(dp1471
g11
(lp1472
sg13
S'include.media.stagefright.MPEG2TSWriter.h'
p1473
sg15
(lp1474
sg17
(lp1475
sg19
(lp1476
sg21
I0
sba(iArchitecture
Entity
p1477
(dp1478
g11
(lp1479
sg13
S'include.media.stagefright.MediaCodecSource.h'
p1480
sg15
(lp1481
sg17
(lp1482
sg19
(lp1483
sg21
I0
sbasg22
(lp1484
g1459
ag1466
ag1473
ag1480
asg21
I0
sg24
S'media.libmediaplayerservice.StagefrightRecorder.ch'
p1485
sba(iArchitecture
Cluster
p1486
(dp1487
g7
(lp1488
(iArchitecture
Entity
p1489
(dp1490
g11
(lp1491
sg13
S'include.media.MediaPlayerInterface.h'
p1492
sg15
(lp1493
sg17
(lp1494
sg19
(lp1495
sg21
I0
sbasg22
(lp1496
g1492
asg21
I0
sg24
S'media.libmediaplayerservice.nuplayer.StreamingSource.ch'
p1497
sba(iArchitecture
Cluster
p1498
(dp1499
g7
(lp1500
(iArchitecture
Entity
p1501
(dp1502
g11
(lp1503
sg13
S'include.media.nbaio.AudioBufferProviderSource.h'
p1504
sg15
(lp1505
sg17
(lp1506
sg19
(lp1507
sg21
I0
sbasg22
(lp1508
g1504
asg21
I0
sg24
S'media.libnbaio.AudioBufferProviderSource.ss'
p1509
sba(iArchitecture
Cluster
p1510
(dp1511
g7
(lp1512
(iArchitecture
Entity
p1513
(dp1514
g11
(lp1515
sg13
S'include.media.nbaio.AudioStreamInSource.h'
p1516
sg15
(lp1517
sg17
(lp1518
sg19
(lp1519
sg21
I0
sbasg22
(lp1520
g1516
asg21
I0
sg24
S'media.libnbaio.AudioStreamInSource.ss'
p1521
sba(iArchitecture
Cluster
p1522
(dp1523
g7
(lp1524
(iArchitecture
Entity
p1525
(dp1526
g11
(lp1527
sg13
S'include.media.nbaio.AudioStreamOutSink.h'
p1528
sg15
(lp1529
sg17
(lp1530
sg19
(lp1531
sg21
I0
sbasg22
(lp1532
g1528
asg21
I0
sg24
S'media.libnbaio.AudioStreamOutSink.ss'
p1533
sba(iArchitecture
Cluster
p1534
(dp1535
g7
(lp1536
(iArchitecture
Entity
p1537
(dp1538
g11
(lp1539
sg13
S'include.media.nbaio.LibsndfileSink.h'
p1540
sg15
(lp1541
sg17
(lp1542
sg19
(lp1543
sg21
I0
sbasg22
(lp1544
g1540
asg21
I0
sg24
S'media.libnbaio.LibsndfileSink.ss'
p1545
sba(iArchitecture
Cluster
p1546
(dp1547
g7
(lp1548
(iArchitecture
Entity
p1549
(dp1550
g11
(lp1551
sg13
S'include.media.nbaio.LibsndfileSource.h'
p1552
sg15
(lp1553
sg17
(lp1554
sg19
(lp1555
sg21
I0
sbasg22
(lp1556
g1552
asg21
I0
sg24
S'media.libnbaio.LibsndfileSource.ss'
p1557
sba(iArchitecture
Cluster
p1558
(dp1559
g7
(lp1560
(iArchitecture
Entity
p1561
(dp1562
g11
(lp1563
sg13
S'include.media.nbaio.MonoPipeReader.h'
p1564
sg15
(lp1565
sg17
(lp1566
sg19
(lp1567
sg21
I0
sbasg22
(lp1568
g1564
asg21
I0
sg24
S'media.libnbaio.MonoPipeReader.ss'
p1569
sba(iArchitecture
Cluster
p1570
(dp1571
g7
(lp1572
(iArchitecture
Entity
p1573
(dp1574
g11
(lp1575
sg13
S'include.media.nbaio.SourceAudioBufferProvider.h'
p1576
sg15
(lp1577
sg17
(lp1578
sg19
(lp1579
sg21
I0
sbasg22
(lp1580
g1576
asg21
I0
sg24
S'media.libnbaio.SourceAudioBufferProvider.ss'
p1581
sba(iArchitecture
Cluster
p1582
(dp1583
g7
(lp1584
(iArchitecture
Entity
p1585
(dp1586
g11
(lp1587
sg13
S'include.media.mediarecorder.h'
p1588
sg15
(lp1589
sg17
(lp1590
sg19
(lp1591
sg21
I0
sba(iArchitecture
Entity
p1592
(dp1593
g11
(lp1594
sg13
S'include.media.stagefright.AACWriter.h'
p1595
sg15
(lp1596
sg17
(lp1597
sg19
(lp1598
sg21
I0
sbasg22
(lp1599
g1588
ag1595
asg21
I0
sg24
S'media.libstagefright.AACWriter.ss'
p1600
sba(iArchitecture
Cluster
p1601
(dp1602
g7
(lp1603
(iArchitecture
Entity
p1604
(dp1605
g11
(lp1606
sg13
S'include.media.stagefright.CameraSource.h'
p1607
sg15
(lp1608
sg17
(lp1609
sg19
(lp1610
sg21
I0
sba(iArchitecture
Entity
p1611
(dp1612
g11
(lp1613
sg13
S'include.media.stagefright.CameraSourceTimeLapse.h'
p1614
sg15
(lp1615
sg17
(lp1616
sg19
(lp1617
sg21
I0
sbasg22
(lp1618
g1607
ag1614
asg21
I0
sg24
S'media.libstagefright.CameraSourceTimeLapse.ss'
p1619
sba(iArchitecture
Cluster
p1620
(dp1621
g7
(lp1622
(iArchitecture
Entity
p1623
(dp1624
g11
(lp1625
sg13
S'include.media.stagefright.ACodec.h'
p1626
sg15
(lp1627
sg17
(lp1628
sg19
(lp1629
sg21
I0
sba(iArchitecture
Entity
p1630
(dp1631
g11
(lp1632
sg13
S'include.media.stagefright.BufferProducerWrapper.h'
p1633
sg15
(lp1634
sg17
(lp1635
sg19
(lp1636
sg21
I0
sba(iArchitecture
Entity
p1637
(dp1638
g11
(lp1639
sg13
S'include.media.stagefright.CodecBase.h'
p1640
sg15
(lp1641
sg17
(lp1642
sg19
(lp1643
sg21
I0
sba(iArchitecture
Entity
p1644
(dp1645
g11
(lp1646
sg13
S'include.media.stagefright.MediaFilter.h'
p1647
sg15
(lp1648
sg17
(lp1649
sg19
(lp1650
sg21
I0
sba(iArchitecture
Entity
p1651
(dp1652
g11
(lp1653
sg13
S'include.media.stagefright.OMXClient.h'
p1654
sg15
(lp1655
sg17
(lp1656
sg19
(lp1657
sg21
I0
sba(iArchitecture
Entity
p1658
(dp1659
g11
(lp1660
sg13
S'include.media.stagefright.PersistentSurface.h'
p1661
sg15
(lp1662
sg17
(lp1663
sg19
(lp1664
sg21
I0
sba(iArchitecture
Entity
p1665
(dp1666
g11
(lp1667
sg13
S'include.media.stagefright.SkipCutBuffer.h'
p1668
sg15
(lp1669
sg17
(lp1670
sg19
(lp1671
sg21
I0
sba(iArchitecture
Entity
p1672
(dp1673
g11
(lp1674
sg13
S'include.media.stagefright.SurfaceUtils.h'
p1675
sg15
(lp1676
sg17
(lp1677
sg19
(lp1678
sg21
I0
sba(iArchitecture
Entity
p1679
(dp1680
g11
(lp1681
sg13
S'include.media.stagefright.foundation.AHierarchicalStateMachine.h'
p1682
sg15
(lp1683
sg17
(lp1684
sg19
(lp1685
sg21
I0
sbasg22
(lp1686
g1626
ag1633
ag1640
ag1647
ag1654
ag1661
ag1668
ag1675
ag1682
asg21
I0
sg24
S'media.libstagefright.MediaCodec.ss'
p1687
sba(iArchitecture
Cluster
p1688
(dp1689
g7
(lp1690
(iArchitecture
Entity
p1691
(dp1692
g11
(lp1693
sg13
S'include.media.stagefright.MPEG4Writer.h'
p1694
sg15
(lp1695
sg17
(lp1696
sg19
(lp1697
sg21
I0
sba(iArchitecture
Entity
p1698
(dp1699
g11
(lp1700
sg13
S'include.media.stagefright.MediaAdapter.h'
p1701
sg15
(lp1702
sg17
(lp1703
sg19
(lp1704
sg21
I0
sbasg22
(lp1705
g1694
ag1701
asg21
I0
sg24
S'media.libstagefright.MediaMuxer.ss'
p1706
sba(iArchitecture
Cluster
p1707
(dp1708
g7
(lp1709
(iArchitecture
Entity
p1710
(dp1711
g11
(lp1712
sg13
S'include.media.AVSyncSettings.h'
p1713
sg15
(lp1714
sg17
(lp1715
sg19
(lp1716
sg21
I0
sba(iArchitecture
Entity
p1717
(dp1718
g11
(lp1719
sg13
S'include.media.stagefright.MediaClock.h'
p1720
sg15
(lp1721
sg17
(lp1722
sg19
(lp1723
sg21
I0
sba(iArchitecture
Entity
p1724
(dp1725
g11
(lp1726
sg13
S'include.media.stagefright.MediaSync.h'
p1727
sg15
(lp1728
sg17
(lp1729
sg19
(lp1730
sg21
I0
sba(iArchitecture
Entity
p1731
(dp1732
g11
(lp1733
sg13
S'include.media.stagefright.VideoFrameScheduler.h'
p1734
sg15
(lp1735
sg17
(lp1736
sg19
(lp1737
sg21
I0
sbasg22
(lp1738
g1713
ag1720
ag1727
ag1734
asg21
I0
sg24
S'media.libstagefright.MediaSync.ss'
p1739
sba(iArchitecture
Cluster
p1740
(dp1741
g7
(lp1742
(iArchitecture
Entity
p1743
(dp1744
g11
(lp1745
sg13
S'include.media.stagefright.StagefrightMediaScanner.h'
p1746
sg15
(lp1747
sg17
(lp1748
sg19
(lp1749
sg21
I0
sbasg22
(lp1750
g1746
asg21
I0
sg24
S'media.libstagefright.StagefrightMediaScanner.ss'
p1751
sba(iArchitecture
Cluster
p1752
(dp1753
g7
(lp1754
(iArchitecture
Entity
p1755
(dp1756
g11
(lp1757
sg13
S'include.media.CharacterEncodingDetector.h'
p1758
sg15
(lp1759
sg17
(lp1760
sg19
(lp1761
sg21
I0
sba(iArchitecture
Entity
p1762
(dp1763
g11
(lp1764
sg13
S'include.media.IMediaCodecList.h'
p1765
sg15
(lp1766
sg17
(lp1767
sg19
(lp1768
sg21
I0
sba(iArchitecture
Entity
p1769
(dp1770
g11
(lp1771
sg13
S'include.media.MediaMetadataRetrieverInterface.h'
p1772
sg15
(lp1773
sg17
(lp1774
sg19
(lp1775
sg21
I0
sba(iArchitecture
Entity
p1776
(dp1777
g11
(lp1778
sg13
S'include.media.StringArray.h'
p1779
sg15
(lp1780
sg17
(lp1781
sg19
(lp1782
sg21
I0
sba(iArchitecture
Entity
p1783
(dp1784
g11
(lp1785
sg13
S'include.media.mediametadataretriever.h'
p1786
sg15
(lp1787
sg17
(lp1788
sg19
(lp1789
sg21
I0
sba(iArchitecture
Entity
p1790
(dp1791
g11
(lp1792
sg13
S'include.media.mediascanner.h'
p1793
sg15
(lp1794
sg17
(lp1795
sg19
(lp1796
sg21
I0
sba(iArchitecture
Entity
p1797
(dp1798
g11
(lp1799
sg13
S'include.media.stagefright.ColorConverter.h'
p1800
sg15
(lp1801
sg17
(lp1802
sg19
(lp1803
sg21
I0
sba(iArchitecture
Entity
p1804
(dp1805
g11
(lp1806
sg13
S'include.media.stagefright.MediaCodecList.h'
p1807
sg15
(lp1808
sg17
(lp1809
sg19
(lp1810
sg21
I0
sbasg22
(lp1811
g1758
ag1765
ag1772
ag1779
ag1786
ag1793
ag1800
ag1807
asg21
I0
sg24
S'media.libstagefright.StagefrightMetadataRetriever.ss'
p1812
sba(iArchitecture
Cluster
p1813
(dp1814
g7
(lp1815
(iArchitecture
Entity
p1816
(dp1817
g11
(lp1818
sg13
S'include.media.stagefright.MediaBufferGroup.h'
p1819
sg15
(lp1820
sg17
(lp1821
sg19
(lp1822
sg21
I0
sbasg22
(lp1823
g1819
asg21
I0
sg24
S'media.libstagefright.codecs.aacenc.AACEncoder.ss'
p1824
sba(iArchitecture
Cluster
p1825
(dp1826
g7
(lp1827
(iArchitecture
Entity
p1828
(dp1829
g11
(lp1830
sg13
S'include.media.stagefright.RenderScriptWrapper.h'
p1831
sg15
(lp1832
sg17
(lp1833
sg19
(lp1834
sg21
I0
sbasg22
(lp1835
g1831
asg21
I0
sg24
S'media.libstagefright.filters.RSFilter.ch'
p1836
sba(iArchitecture
Cluster
p1837
(dp1838
g7
(lp1839
(iArchitecture
Entity
p1840
(dp1841
g11
(lp1842
sg13
S'include.media.stagefright.foundation.ANetworkSession.h'
p1843
sg15
(lp1844
sg17
(lp1845
sg19
(lp1846
sg21
I0
sbasg22
(lp1847
g1843
asg21
I0
sg24
S'media.libstagefright.foundation.ANetworkSession.ss'
p1848
sba(iArchitecture
Cluster
p1849
(dp1850
g7
(lp1851
(iArchitecture
Entity
p1852
(dp1853
g11
(lp1854
sg13
S'include.media.stagefright.foundation.AWakeLock.h'
p1855
sg15
(lp1856
sg17
(lp1857
sg19
(lp1858
sg21
I0
sbasg22
(lp1859
g1855
asg21
I0
sg24
S'media.libstagefright.foundation.AWakeLock.ss'
p1860
sba(iArchitecture
Cluster
p1861
(dp1862
g7
(lp1863
(iArchitecture
Entity
p1864
(dp1865
g11
(lp1866
sg13
S'include.media.stagefright.foundation.AUtils.h'
p1867
sg15
(lp1868
sg17
(lp1869
sg19
(lp1870
sg21
I0
sbasg22
(lp1871
g1867
asg21
I0
sg24
S'media.libstagefright.omx.SoftVideoEncoderOMXComponent.ss'
p1872
sba(iArchitecture
Cluster
p1873
(dp1874
g7
(lp1875
(iArchitecture
Entity
p1876
(dp1877
g11
(lp1878
sg13
S'include.media.stagefright.SimpleDecodingSource.h'
p1879
sg15
(lp1880
sg17
(lp1881
sg19
(lp1882
sg21
I0
sba(iArchitecture
Entity
p1883
(dp1884
g11
(lp1885
sg13
S'include.media.stagefright.foundation.Mutexed.h'
p1886
sg15
(lp1887
sg17
(lp1888
sg19
(lp1889
sg21
I0
sbasg22
(lp1890
g1879
ag1886
asg21
I0
sg24
S'media.libstagefright.omx.tests.OMXHarness.ch'
p1891
sba(iArchitecture
Cluster
p1892
(dp1893
g7
(lp1894
(iArchitecture
Entity
p1895
(dp1896
g11
(lp1897
sg13
S'include.media.stagefright.foundation.base64.h'
p1898
sg15
(lp1899
sg17
(lp1900
sg19
(lp1901
sg21
I0
sbasg22
(lp1902
g1898
asg21
I0
sg24
S'media.libstagefright.rtsp.ARTSPConnection.ch'
p1903
sba(iArchitecture
Cluster
p1904
(dp1905
g7
(lp1906
(iArchitecture
Entity
p1907
(dp1908
g11
(lp1909
sg13
S'include.media.IMediaHTTPConnection.h'
p1910
sg15
(lp1911
sg17
(lp1912
sg19
(lp1913
sg21
I0
sba(iArchitecture
Entity
p1914
(dp1915
g11
(lp1916
sg13
S'include.media.stagefright.MediaHTTP.h'
p1917
sg15
(lp1918
sg17
(lp1919
sg19
(lp1920
sg21
I0
sbasg22
(lp1921
g1910
ag1917
asg21
I0
sg24
S'media.libstagefright.rtsp.SDPLoader.ss'
p1922
sba(iArchitecture
Cluster
p1923
(dp1924
g7
(lp1925
(iArchitecture
Entity
p1926
(dp1927
g11
(lp1928
sg13
S'include.media.stagefright.foundation.ColorUtils.h'
p1929
sg15
(lp1930
sg17
(lp1931
sg19
(lp1932
sg21
I0
sbasg22
(lp1933
g1929
asg21
I0
sg24
S'media.libstagefright.webm.WebmElement.ch'
p1934
sba(iArchitecture
Cluster
p1935
(dp1936
g7
(lp1937
(iArchitecture
Entity
p1938
(dp1939
g11
(lp1940
sg13
S'include.media.IMediaRecorderClient.h'
p1941
sg15
(lp1942
sg17
(lp1943
sg19
(lp1944
sg21
I0
sba(iArchitecture
Entity
p1945
(dp1946
g11
(lp1947
sg13
S'include.media.stagefright.FileSource.h'
p1948
sg15
(lp1949
sg17
(lp1950
sg19
(lp1951
sg21
I0
sba(iArchitecture
Entity
p1952
(dp1953
g11
(lp1954
sg13
S'include.media.stagefright.MediaWriter.h'
p1955
sg15
(lp1956
sg17
(lp1957
sg19
(lp1958
sg21
I0
sbasg22
(lp1959
g1941
ag1948
ag1955
asg21
I0
sg24
S'media.libstagefright.webm.WebmWriter.ch'
p1960
sba(iArchitecture
Cluster
p1961
(dp1962
g7
(lp1963
(iArchitecture
Entity
p1964
(dp1965
g11
(lp1966
sg13
S'include.media.AudioRecord.h'
p1967
sg15
(lp1968
sg17
(lp1969
sg19
(lp1970
sg21
I0
sba(iArchitecture
Entity
p1971
(dp1972
g11
(lp1973
sg13
S'include.media.stagefright.AudioSource.h'
p1974
sg15
(lp1975
sg17
(lp1976
sg19
(lp1977
sg21
I0
sba(iArchitecture
Entity
p1978
(dp1979
g11
(lp1980
sg13
S'include.media.stagefright.SurfaceMediaSource.h'
p1981
sg15
(lp1982
sg17
(lp1983
sg19
(lp1984
sg21
I0
sba(iArchitecture
Entity
p1985
(dp1986
g11
(lp1987
sg13
S'include.media.stagefright.foundation.ABitReader.h'
p1988
sg15
(lp1989
sg17
(lp1990
sg19
(lp1991
sg21
I0
sbasg22
(lp1992
g1967
ag1974
ag1981
ag1988
asg21
I0
sg24
S'media.libstagefright.wifi-display.source.PlaybackSession.ch'
p1993
sba(iArchitecture
Cluster
p1994
(dp1995
g7
(lp1996
(iArchitecture
Entity
p1997
(dp1998
g11
(lp1999
sg13
S'include.media.stagefright.MediaBuffer.h'
p2000
sg15
(lp2001
sg17
(lp2002
sg19
(lp2003
sg21
I0
sba(iArchitecture
Entity
p2004
(dp2005
g11
(lp2006
sg13
S'include.media.stagefright.foundation.AHandlerReflector.h'
p2007
sg15
(lp2008
sg17
(lp2009
sg19
(lp2010
sg21
I0
sba(iArchitecture
Entity
p2011
(dp2012
g11
(lp2013
sg13
S'include.media.stagefright.foundation.MediaBufferBase.h'
p2014
sg15
(lp2015
sg17
(lp2016
sg19
(lp2017
sg21
I0
sbasg22
(lp2018
g2000
ag2007
ag2014
asg21
I0
sg24
S'media.libstagefright.wifi-display.source.RepeaterSource.ch'
p2019
sba(iArchitecture
Cluster
p2020
(dp2021
g7
(lp2022
(iArchitecture
Entity
p2023
(dp2024
g11
(lp2025
sg13
S'include.media.stagefright.MediaDefs.h'
p2026
sg15
(lp2027
sg17
(lp2028
sg19
(lp2029
sg21
I0
sba(iArchitecture
Entity
p2030
(dp2031
g11
(lp2032
sg13
S'include.media.stagefright.foundation.hexdump.h'
p2033
sg15
(lp2034
sg17
(lp2035
sg19
(lp2036
sg21
I0
sbasg22
(lp2037
g2026
ag2033
asg21
I0
sg24
S'media.libstagefright.wifi-display.source.TSPacketizer.ch'
p2038
sba(iArchitecture
Cluster
p2039
(dp2040
g7
(lp2041
(iArchitecture
Entity
p2042
(dp2043
g11
(lp2044
sg13
S'include.media.IHDCP.h'
p2045
sg15
(lp2046
sg17
(lp2047
sg19
(lp2048
sg21
I0
sba(iArchitecture
Entity
p2049
(dp2050
g11
(lp2051
sg13
S'include.media.IRemoteDisplayClient.h'
p2052
sg15
(lp2053
sg17
(lp2054
sg19
(lp2055
sg21
I0
sba(iArchitecture
Entity
p2056
(dp2057
g11
(lp2058
sg13
S'include.media.stagefright.foundation.ParsedMessage.h'
p2059
sg15
(lp2060
sg17
(lp2061
sg19
(lp2062
sg21
I0
sbasg22
(lp2063
g2045
ag2052
ag2059
asg21
I0
sg24
S'media.libstagefright.wifi-display.source.WifiDisplaySource.ch'
p2064
sba(iArchitecture
Cluster
p2065
(dp2066
g7
(lp2067
(iArchitecture
Entity
p2068
(dp2069
g11
(lp2070
sg13
S'include.media.stagefright.YUVCanvas.h'
p2071
sg15
(lp2072
sg17
(lp2073
sg19
(lp2074
sg21
I0
sba(iArchitecture
Entity
p2075
(dp2076
g11
(lp2077
sg13
S'include.media.stagefright.YUVImage.h'
p2078
sg15
(lp2079
sg17
(lp2080
sg19
(lp2081
sg21
I0
sbasg22
(lp2082
g2071
ag2078
asg21
I0
sg24
S'media.libstagefright.yuv.YUVCanvas.ss'
p2083
sba(iArchitecture
Cluster
p2084
(dp2085
g7
(lp2086
(iArchitecture
Entity
p2087
(dp2088
g11
(lp2089
sg13
S'include.media.MediaCodecInfo.h'
p2090
sg15
(lp2091
sg17
(lp2092
sg19
(lp2093
sg21
I0
sba(iArchitecture
Entity
p2094
(dp2095
g11
(lp2096
sg13
S'include.media.stagefright.FrameRenderTracker.h'
p2097
sg15
(lp2098
sg17
(lp2099
sg19
(lp2100
sg21
I0
sba(iArchitecture
Entity
p2101
(dp2102
g11
(lp2103
sg13
S'include.media.stagefright.MediaCodec.h'
p2104
sg15
(lp2105
sg17
(lp2106
sg19
(lp2107
sg21
I0
sba(iArchitecture
Entity
p2108
(dp2109
g11
(lp2110
sg13
S'include.media.stagefright.foundation.AHandler.h'
p2111
sg15
(lp2112
sg17
(lp2113
sg19
(lp2114
sg21
I0
sbasg22
(lp2115
g2090
ag2097
ag2104
ag2111
asg21
I0
sg24
S'media.ndk.NdkMediaCodec.ss'
p2116
sba(iArchitecture
Cluster
p2117
(dp2118
g7
(lp2119
(iArchitecture
Entity
p2120
(dp2121
g11
(lp2122
sg13
S'include.media.stagefright.MediaSource.h'
p2123
sg15
(lp2124
sg17
(lp2125
sg19
(lp2126
sg21
I0
sba(iArchitecture
Entity
p2127
(dp2128
g11
(lp2129
sg13
S'include.media.stagefright.NuMediaExtractor.h'
p2130
sg15
(lp2131
sg17
(lp2132
sg19
(lp2133
sg21
I0
sbasg22
(lp2134
g2123
ag2130
asg21
I0
sg24
S'media.ndk.NdkMediaExtractor.ss'
p2135
sba(iArchitecture
Cluster
p2136
(dp2137
g7
(lp2138
(iArchitecture
Entity
p2139
(dp2140
g11
(lp2141
sg13
S'include.media.stagefright.MediaMuxer.h'
p2142
sg15
(lp2143
sg17
(lp2144
sg19
(lp2145
sg21
I0
sba(iArchitecture
Entity
p2146
(dp2147
g11
(lp2148
sg13
S'include.media.stagefright.foundation.ABuffer.h'
p2149
sg15
(lp2150
sg17
(lp2151
sg19
(lp2152
sg21
I0
sba(iArchitecture
Entity
p2153
(dp2154
g11
(lp2155
sg13
S'include.media.stagefright.foundation.ALooper.h'
p2156
sg15
(lp2157
sg17
(lp2158
sg19
(lp2159
sg21
I0
sba(iArchitecture
Entity
p2160
(dp2161
g11
(lp2162
sg13
S'include.media.stagefright.foundation.AMessage.h'
p2163
sg15
(lp2164
sg17
(lp2165
sg19
(lp2166
sg21
I0
sbasg22
(lp2167
g2142
ag2149
ag2156
ag2163
asg21
I0
sg24
S'media.ndk.NdkMediaMuxer.ss'
p2168
sba(iArchitecture
Cluster
p2169
(dp2170
g7
(lp2171
(iArchitecture
Entity
p2172
(dp2173
g11
(lp2174
sg13
S'media.utils.include.mediautils.SchedulingPolicyService.h'
p2175
sg15
(lp2176
sg17
(lp2177
sg19
(lp2178
sg21
I0
sbasg22
(lp2179
g2175
asg21
I0
sg24
S'media.utils.SchedulingPolicyService.ss'
p2180
sba(iArchitecture
Cluster
p2181
(dp2182
g7
(lp2183
(iArchitecture
Entity
p2184
(dp2185
g11
(lp2186
sg13
S'include.media.MemoryLeakTrackUtil.h'
p2187
sg15
(lp2188
sg17
(lp2189
sg19
(lp2190
sg21
I0
sbasg22
(lp2191
g2187
asg21
I0
sg24
S'services.audioflinger.AudioFlinger.ch'
p2192
sba(iArchitecture
Cluster
p2193
(dp2194
g7
(lp2195
(iArchitecture
Entity
p2196
(dp2197
g11
(lp2198
sg13
S'include.media.AudioBufferProvider.h'
p2199
sg15
(lp2200
sg17
(lp2201
sg19
(lp2202
sg21
I0
sba(iArchitecture
Entity
p2203
(dp2204
g11
(lp2205
sg13
S'include.media.ExtendedAudioBufferProvider.h'
p2206
sg15
(lp2207
sg17
(lp2208
sg19
(lp2209
sg21
I0
sba(iArchitecture
Entity
p2210
(dp2211
g11
(lp2212
sg13
S'include.media.SingleStateQueue.h'
p2213
sg15
(lp2214
sg17
(lp2215
sg19
(lp2216
sg21
I0
sba(iArchitecture
Entity
p2217
(dp2218
g11
(lp2219
sg13
S'include.media.nbaio.MonoPipe.h'
p2220
sg15
(lp2221
sg17
(lp2222
sg19
(lp2223
sg21
I0
sba(iArchitecture
Entity
p2224
(dp2225
g11
(lp2226
sg13
S'include.media.nbaio.NBAIO.h'
p2227
sg15
(lp2228
sg17
(lp2229
sg19
(lp2230
sg21
I0
sba(iArchitecture
Entity
p2231
(dp2232
g11
(lp2233
sg13
S'include.media.nbaio.Pipe.h'
p2234
sg15
(lp2235
sg17
(lp2236
sg19
(lp2237
sg21
I0
sba(iArchitecture
Entity
p2238
(dp2239
g11
(lp2240
sg13
S'include.media.nbaio.PipeReader.h'
p2241
sg15
(lp2242
sg17
(lp2243
sg19
(lp2244
sg21
I0
sbasg22
(lp2245
g2199
ag2206
ag2213
ag2220
ag2227
ag2234
ag2241
asg21
I0
sg24
S'services.audioflinger.Threads.ch'
p2246
sba(iArchitecture
Cluster
p2247
(dp2248
g7
(lp2249
(iArchitecture
Entity
p2250
(dp2251
g11
(lp2252
sg13
S'include.media.AudioPolicyHelper.h'
p2253
sg15
(lp2254
sg17
(lp2255
sg19
(lp2256
sg21
I0
sbasg22
(lp2257
g2253
asg21
I0
sg24
S'services.audiopolicy.managerdefault.AudioPolicyManager.ch'
p2258
sba(iArchitecture
Cluster
p2259
(dp2260
g7
(lp2261
(iArchitecture
Entity
p2262
(dp2263
g11
(lp2264
sg13
S'include.media.EffectsFactoryApi.h'
p2265
sg15
(lp2266
sg17
(lp2267
sg19
(lp2268
sg21
I0
sbasg22
(lp2269
g2265
asg21
I0
sg24
S'services.audiopolicy.service.AudioPolicyClientImplLegacy.ss'
p2270
sba(iArchitecture
Cluster
p2271
(dp2272
g7
(lp2273
(iArchitecture
Entity
p2274
(dp2275
g11
(lp2276
sg13
S'include.media.AudioEffect.h'
p2277
sg15
(lp2278
sg17
(lp2279
sg19
(lp2280
sg21
I0
sba(iArchitecture
Entity
p2281
(dp2282
g11
(lp2283
sg13
S'include.media.AudioParameter.h'
p2284
sg15
(lp2285
sg17
(lp2286
sg19
(lp2287
sg21
I0
sba(iArchitecture
Entity
p2288
(dp2289
g11
(lp2290
sg13
S'include.media.AudioTimestamp.h'
p2291
sg15
(lp2292
sg17
(lp2293
sg19
(lp2294
sg21
I0
sba(iArchitecture
Entity
p2295
(dp2296
g11
(lp2297
sg13
S'include.media.AudioTrack.h'
p2298
sg15
(lp2299
sg17
(lp2300
sg19
(lp2301
sg21
I0
sba(iArchitecture
Entity
p2302
(dp2303
g11
(lp2304
sg13
S'include.media.IAudioFlinger.h'
p2305
sg15
(lp2306
sg17
(lp2307
sg19
(lp2308
sg21
I0
sba(iArchitecture
Entity
p2309
(dp2310
g11
(lp2311
sg13
S'include.media.IAudioPolicyService.h'
p2312
sg15
(lp2313
sg17
(lp2314
sg19
(lp2315
sg21
I0
sba(iArchitecture
Entity
p2316
(dp2317
g11
(lp2318
sg13
S'include.media.IAudioRecord.h'
p2319
sg15
(lp2320
sg17
(lp2321
sg19
(lp2322
sg21
I0
sba(iArchitecture
Entity
p2323
(dp2324
g11
(lp2325
sg13
S'include.media.IAudioTrack.h'
p2326
sg15
(lp2327
sg17
(lp2328
sg19
(lp2329
sg21
I0
sba(iArchitecture
Entity
p2330
(dp2331
g11
(lp2332
sg13
S'include.media.IEffect.h'
p2333
sg15
(lp2334
sg17
(lp2335
sg19
(lp2336
sg21
I0
sba(iArchitecture
Entity
p2337
(dp2338
g11
(lp2339
sg13
S'include.media.IEffectClient.h'
p2340
sg15
(lp2341
sg17
(lp2342
sg19
(lp2343
sg21
I0
sba(iArchitecture
Entity
p2344
(dp2345
g11
(lp2346
sg13
S'include.media.Modulo.h'
p2347
sg15
(lp2348
sg17
(lp2349
sg19
(lp2350
sg21
I0
sba(iArchitecture
Entity
p2351
(dp2352
g11
(lp2353
sg13
S'include.media.ToneGenerator.h'
p2354
sg15
(lp2355
sg17
(lp2356
sg19
(lp2357
sg21
I0
sbasg22
(lp2358
g2277
ag2284
ag2291
ag2298
ag2305
ag2312
ag2319
ag2326
ag2333
ag2340
ag2347
ag2354
asg21
I0
sg24
S'services.audiopolicy.service.AudioPolicyService.ch'
p2359
sba(iArchitecture
Cluster
p2360
(dp2361
g7
(lp2362
(iArchitecture
Entity
p2363
(dp2364
g11
(lp2365
sg13
S'include.media.AudioResamplerPublic.h'
p2366
sg15
(lp2367
sg17
(lp2368
sg19
(lp2369
sg21
I0
sba(iArchitecture
Entity
p2370
(dp2371
g11
(lp2372
sg13
S'include.media.IMediaDeathNotifier.h'
p2373
sg15
(lp2374
sg17
(lp2375
sg19
(lp2376
sg21
I0
sba(iArchitecture
Entity
p2377
(dp2378
g11
(lp2379
sg13
S'include.media.IMediaHTTPService.h'
p2380
sg15
(lp2381
sg17
(lp2382
sg19
(lp2383
sg21
I0
sba(iArchitecture
Entity
p2384
(dp2385
g11
(lp2386
sg13
S'include.media.IMediaMetadataRetriever.h'
p2387
sg15
(lp2388
sg17
(lp2389
sg19
(lp2390
sg21
I0
sba(iArchitecture
Entity
p2391
(dp2392
g11
(lp2393
sg13
S'include.media.IMediaPlayer.h'
p2394
sg15
(lp2395
sg17
(lp2396
sg19
(lp2397
sg21
I0
sba(iArchitecture
Entity
p2398
(dp2399
g11
(lp2400
sg13
S'include.media.IMediaPlayerClient.h'
p2401
sg15
(lp2402
sg17
(lp2403
sg19
(lp2404
sg21
I0
sba(iArchitecture
Entity
p2405
(dp2406
g11
(lp2407
sg13
S'include.media.IMediaPlayerService.h'
p2408
sg15
(lp2409
sg17
(lp2410
sg19
(lp2411
sg21
I0
sba(iArchitecture
Entity
p2412
(dp2413
g11
(lp2414
sg13
S'include.media.IStreamSource.h'
p2415
sg15
(lp2416
sg17
(lp2417
sg19
(lp2418
sg21
I0
sba(iArchitecture
Entity
p2419
(dp2420
g11
(lp2421
sg13
S'include.media.mediaplayer.h'
p2422
sg15
(lp2423
sg17
(lp2424
sg19
(lp2425
sg21
I0
sba(iArchitecture
Entity
p2426
(dp2427
g11
(lp2428
sg13
S'media.utils.include.mediautils.BatteryNotifier.h'
p2429
sg15
(lp2430
sg17
(lp2431
sg19
(lp2432
sg21
I0
sbasg22
(lp2433
g2366
ag2373
ag2380
ag2387
ag2394
ag2401
ag2408
ag2415
ag2422
ag2429
asg21
I0
sg24
S'services.camera.libcameraservice.CameraService.ch'
p2434
sba(iArchitecture
Cluster
p2435
(dp2436
g7
(lp2437
(iArchitecture
Entity
p2438
(dp2439
g11
(lp2440
sg13
S'include.media.IMediaCodecService.h'
p2441
sg15
(lp2442
sg17
(lp2443
sg19
(lp2444
sg21
I0
sba(iArchitecture
Entity
p2445
(dp2446
g11
(lp2447
sg13
S'include.media.IOMX.h'
p2448
sg15
(lp2449
sg17
(lp2450
sg19
(lp2451
sg21
I0
sbasg22
(lp2452
g2441
ag2448
asg21
I0
sg24
S'services.mediacodec.MediaCodecService.ch'
p2453
sba(iArchitecture
Cluster
p2454
(dp2455
g7
(lp2456
(iArchitecture
Entity
p2457
(dp2458
g11
(lp2459
sg13
S'include.media.Drm.h'
p2460
sg15
(lp2461
sg17
(lp2462
sg19
(lp2463
sg21
I0
sba(iArchitecture
Entity
p2464
(dp2465
g11
(lp2466
sg13
S'include.media.DrmSessionClientInterface.h'
p2467
sg15
(lp2468
sg17
(lp2469
sg19
(lp2470
sg21
I0
sba(iArchitecture
Entity
p2471
(dp2472
g11
(lp2473
sg13
S'include.media.DrmSessionManager.h'
p2474
sg15
(lp2475
sg17
(lp2476
sg19
(lp2477
sg21
I0
sba(iArchitecture
Entity
p2478
(dp2479
g11
(lp2480
sg13
S'include.media.ICrypto.h'
p2481
sg15
(lp2482
sg17
(lp2483
sg19
(lp2484
sg21
I0
sba(iArchitecture
Entity
p2485
(dp2486
g11
(lp2487
sg13
S'include.media.IDrm.h'
p2488
sg15
(lp2489
sg17
(lp2490
sg19
(lp2491
sg21
I0
sba(iArchitecture
Entity
p2492
(dp2493
g11
(lp2494
sg13
S'include.media.IDrmClient.h'
p2495
sg15
(lp2496
sg17
(lp2497
sg19
(lp2498
sg21
I0
sba(iArchitecture
Entity
p2499
(dp2500
g11
(lp2501
sg13
S'include.media.IMediaDrmService.h'
p2502
sg15
(lp2503
sg17
(lp2504
sg19
(lp2505
sg21
I0
sba(iArchitecture
Entity
p2506
(dp2507
g11
(lp2508
sg13
S'include.media.Metadata.h'
p2509
sg15
(lp2510
sg17
(lp2511
sg19
(lp2512
sg21
I0
sba(iArchitecture
Entity
p2513
(dp2514
g11
(lp2515
sg13
S'include.media.SharedLibrary.h'
p2516
sg15
(lp2517
sg17
(lp2518
sg19
(lp2519
sg21
I0
sbasg22
(lp2520
g2460
ag2467
ag2474
ag2481
ag2488
ag2495
ag2502
ag2509
ag2516
asg21
I0
sg24
S'services.mediadrm.MediaDrmService.ch'
p2521
sba(iArchitecture
Cluster
p2522
(dp2523
g7
(lp2524
(iArchitecture
Entity
p2525
(dp2526
g11
(lp2527
sg13
S'include.media.IDataSource.h'
p2528
sg15
(lp2529
sg17
(lp2530
sg19
(lp2531
sg21
I0
sba(iArchitecture
Entity
p2532
(dp2533
g11
(lp2534
sg13
S'include.media.IMediaExtractor.h'
p2535
sg15
(lp2536
sg17
(lp2537
sg19
(lp2538
sg21
I0
sba(iArchitecture
Entity
p2539
(dp2540
g11
(lp2541
sg13
S'include.media.IMediaExtractorService.h'
p2542
sg15
(lp2543
sg17
(lp2544
sg19
(lp2545
sg21
I0
sba(iArchitecture
Entity
p2546
(dp2547
g11
(lp2548
sg13
S'include.media.IMediaSource.h'
p2549
sg15
(lp2550
sg17
(lp2551
sg19
(lp2552
sg21
I0
sba(iArchitecture
Entity
p2553
(dp2554
g11
(lp2555
sg13
S'include.media.stagefright.DataSource.h'
p2556
sg15
(lp2557
sg17
(lp2558
sg19
(lp2559
sg21
I0
sba(iArchitecture
Entity
p2560
(dp2561
g11
(lp2562
sg13
S'include.media.stagefright.DataURISource.h'
p2563
sg15
(lp2564
sg17
(lp2565
sg19
(lp2566
sg21
I0
sba(iArchitecture
Entity
p2567
(dp2568
g11
(lp2569
sg13
S'include.media.stagefright.MediaErrors.h'
p2570
sg15
(lp2571
sg17
(lp2572
sg19
(lp2573
sg21
I0
sba(iArchitecture
Entity
p2574
(dp2575
g11
(lp2576
sg13
S'include.media.stagefright.MediaExtractor.h'
p2577
sg15
(lp2578
sg17
(lp2579
sg19
(lp2580
sg21
I0
sba(iArchitecture
Entity
p2581
(dp2582
g11
(lp2583
sg13
S'include.media.stagefright.foundation.ADebug.h'
p2584
sg15
(lp2585
sg17
(lp2586
sg19
(lp2587
sg21
I0
sba(iArchitecture
Entity
p2588
(dp2589
g11
(lp2590
sg13
S'include.media.stagefright.foundation.AString.h'
p2591
sg15
(lp2592
sg17
(lp2593
sg19
(lp2594
sg21
I0
sbasg22
(lp2595
g2528
ag2535
ag2542
ag2549
ag2556
ag2563
ag2570
ag2577
ag2584
ag2591
asg21
I0
sg24
S'services.mediaextractor.MediaExtractorService.ch'
p2596
sba(iArchitecture
Cluster
p2597
(dp2598
g7
(lp2599
(iArchitecture
Entity
p2600
(dp2601
g11
(lp2602
sg13
S'include.media.IMediaLogService.h'
p2603
sg15
(lp2604
sg17
(lp2605
sg19
(lp2606
sg21
I0
sba(iArchitecture
Entity
p2607
(dp2608
g11
(lp2609
sg13
S'include.media.nbaio.NBLog.h'
p2610
sg15
(lp2611
sg17
(lp2612
sg19
(lp2613
sg21
I0
sbasg22
(lp2614
g2603
ag2610
asg21
I0
sg24
S'services.medialog.MediaLogService.ch'
p2615
sba(iArchitecture
Cluster
p2616
(dp2617
g7
(lp2618
(iArchitecture
Entity
p2619
(dp2620
g11
(lp2621
sg13
S'include.media.IResourceManagerClient.h'
p2622
sg15
(lp2623
sg17
(lp2624
sg19
(lp2625
sg21
I0
sba(iArchitecture
Entity
p2626
(dp2627
g11
(lp2628
sg13
S'include.media.IResourceManagerService.h'
p2629
sg15
(lp2630
sg17
(lp2631
sg19
(lp2632
sg21
I0
sba(iArchitecture
Entity
p2633
(dp2634
g11
(lp2635
sg13
S'include.media.MediaResource.h'
p2636
sg15
(lp2637
sg17
(lp2638
sg19
(lp2639
sg21
I0
sba(iArchitecture
Entity
p2640
(dp2641
g11
(lp2642
sg13
S'include.media.MediaResourcePolicy.h'
p2643
sg15
(lp2644
sg17
(lp2645
sg19
(lp2646
sg21
I0
sba(iArchitecture
Entity
p2647
(dp2648
g11
(lp2649
sg13
S'include.media.stagefright.ProcessInfo.h'
p2650
sg15
(lp2651
sg17
(lp2652
sg19
(lp2653
sg21
I0
sba(iArchitecture
Entity
p2654
(dp2655
g11
(lp2656
sg13
S'include.media.stagefright.ProcessInfoInterface.h'
p2657
sg15
(lp2658
sg17
(lp2659
sg19
(lp2660
sg21
I0
sba(iArchitecture
Entity
p2661
(dp2662
g11
(lp2663
sg13
S'include.media.stagefright.foundation.ABase.h'
p2664
sg15
(lp2665
sg17
(lp2666
sg19
(lp2667
sg21
I0
sbasg22
(lp2668
g2622
ag2629
ag2636
ag2643
ag2650
ag2657
ag2664
asg21
I0
sg24
S'services.mediaresourcemanager.ResourceManagerService.ch'
p2669
sba(iArchitecture
Cluster
p2670
(dp2671
g7
(lp2672
(iArchitecture
Entity
p2673
(dp2674
g11
(lp2675
sg13
S'include.media.RingBuffer.h'
p2676
sg15
(lp2677
sg17
(lp2678
sg19
(lp2679
sg21
I0
sbasg22
(lp2680
g2676
asg21
I0
sg24
S'services.mediaresourcemanager.ServiceLog.ch'
p2681
sba(iArchitecture
Cluster
p2682
(dp2683
g7
(lp2684
(iArchitecture
Entity
p2685
(dp2686
g11
(lp2687
sg13
S'include.media.stagefright.foundation.AAtomizer.h'
p2688
sg15
(lp2689
sg17
(lp2690
sg19
(lp2691
sg21
I0
sba(iArchitecture
Entity
p2692
(dp2693
g11
(lp2694
sg13
S'include.media.stagefright.foundation.ALookup.h'
p2695
sg15
(lp2696
sg17
(lp2697
sg19
(lp2698
sg21
I0
sbasg22
(lp2699
g2688
ag2695
asg21
I0
sg24
S'services.radio.RadioService.ch'
p2700
sba(iArchitecture
Cluster
p2701
(dp2702
g7
(lp2703
(iArchitecture
Entity
p2704
(dp2705
g11
(lp2706
sg13
S'include.media.AudioIoDescriptor.h'
p2707
sg15
(lp2708
sg17
(lp2709
sg19
(lp2710
sg21
I0
sba(iArchitecture
Entity
p2711
(dp2712
g11
(lp2713
sg13
S'include.media.AudioPolicy.h'
p2714
sg15
(lp2715
sg17
(lp2716
sg19
(lp2717
sg21
I0
sba(iArchitecture
Entity
p2718
(dp2719
g11
(lp2720
sg13
S'include.media.AudioSystem.h'
p2721
sg15
(lp2722
sg17
(lp2723
sg19
(lp2724
sg21
I0
sba(iArchitecture
Entity
p2725
(dp2726
g11
(lp2727
sg13
S'include.media.IAudioFlingerClient.h'
p2728
sg15
(lp2729
sg17
(lp2730
sg19
(lp2731
sg21
I0
sba(iArchitecture
Entity
p2732
(dp2733
g11
(lp2734
sg13
S'include.media.IAudioPolicyServiceClient.h'
p2735
sg15
(lp2736
sg17
(lp2737
sg19
(lp2738
sg21
I0
sba(iArchitecture
Entity
p2739
(dp2740
g11
(lp2741
sg13
S'include.media.stagefright.foundation.AStringUtils.h'
p2742
sg15
(lp2743
sg17
(lp2744
sg19
(lp2745
sg21
I0
sbasg22
(lp2746
g2707
ag2714
ag2721
ag2728
ag2735
ag2742
asg21
I0
sg24
S'services.soundtrigger.SoundTriggerHwService.ch'
p2747
sbasg1335
g1336
sg22
(lp2748
sg1338
I00
sg24
S'7.0.0_r1'
p2749
sba.