(lp0
(iArchitecture
Architecture
p1
(dp2
S'clusters'
p3
(lp4
sS'target_sub'
p5
S'services.mediacodec'
p6
sS'classes'
p7
(lp8
sS'is_component_arch'
p9
I00
sS'label'
p10
S'6.0.0_r1'
p11
sba(iArchitecture
Architecture
p12
(dp13
g3
(lp14
(iArchitecture
Cluster
p15
(dp16
S'entities'
p17
(lp18
(iArchitecture
Entity
p19
(dp20
S'issue_ids'
p21
(lp22
sS'name'
p23
S'services.mediacodec.MediaCodecService.c'
p24
sS'descs'
p25
(lp26
sS'labels'
p27
(lp28
sS'titles'
p29
(lp30
sS'change'
p31
I0
sba(iArchitecture
Entity
p32
(dp33
g21
(lp34
sg23
S'services.mediacodec.MediaCodecService.h'
p35
sg25
(lp36
sg27
(lp37
sg29
(lp38
sg31
I0
sba(iArchitecture
Entity
p39
(dp40
g21
(lp41
sg23
S'services.mediacodec.main_codecservice.c'
p42
sg25
(lp43
sg27
(lp44
sg29
(lp45
sg31
I0
sbasg7
(lp46
g24
ag35
ag42
asg31
I0
sg10
S'services.mediacodec.MediaCodecService.ch'
p47
sba(iArchitecture
Cluster
p48
(dp49
g17
(lp50
(iArchitecture
Entity
p51
(dp52
g21
(lp53
sg23
S'services.mediacodec.minijail.minijail.c'
p54
sg25
(lp55
sg27
(lp56
sg29
(lp57
sg31
I0
sba(iArchitecture
Entity
p58
(dp59
g21
(lp60
sg23
S'services.mediacodec.minijail.minijail.h'
p61
sg25
(lp62
sg27
(lp63
sg29
(lp64
sg31
I0
sbasg7
(lp65
g54
ag61
asg31
I0
sg10
S'services.mediacodec.minijail.minijail.ch'
p66
sbasg5
g6
sg7
(lp67
sg9
I00
sg10
S'7.0.0_r1'
p68
sba.