(lp0
(iArchitecture
Architecture
p1
(dp2
S'clusters'
p3
(lp4
(iArchitecture
Cluster
p5
(dp6
S'entities'
p7
(lp8
(iArchitecture
Entity
p9
(dp10
S'issue_ids'
p11
(lp12
sS'name'
p13
S'include.radio.IRadio.h'
p14
sS'descs'
p15
(lp16
sS'labels'
p17
(lp18
sS'titles'
p19
(lp20
sS'change'
p21
I0
sba(iArchitecture
Entity
p22
(dp23
g11
(lp24
sg13
S'include.radio.IRadioClient.h'
p25
sg15
(lp26
sg17
(lp27
sg19
(lp28
sg21
I0
sba(iArchitecture
Entity
p29
(dp30
g11
(lp31
sg13
S'include.radio.IRadioService.h'
p32
sg15
(lp33
sg17
(lp34
sg19
(lp35
sg21
I0
sba(iArchitecture
Entity
p36
(dp37
g11
(lp38
sg13
S'radio.IRadio.c'
p39
sg15
(lp40
sg17
(lp41
sg19
(lp42
sg21
I0
sba(iArchitecture
Entity
p43
(dp44
g11
(lp45
sg13
S'radio.IRadioService.c'
p46
sg15
(lp47
sg17
(lp48
sg19
(lp49
sg21
I0
sbasS'classes'
p50
(lp51
g14
ag25
ag32
ag39
ag46
asg21
I0
sS'label'
p52
S'services.radio.RadioService.ch'
p53
sba(iArchitecture
Cluster
p54
(dp55
g7
(lp56
(iArchitecture
Entity
p57
(dp58
g11
(lp59
sg13
S'radio.IRadioClient.c'
p60
sg15
(lp61
sg17
(lp62
sg19
(lp63
sg21
I0
sbasg50
(lp64
g60
asg21
I0
sg52
S'services.soundtrigger.SoundTriggerHwService.ch'
p65
sbasS'target_sub'
p66
S'radio.IRadio'
p67
sg50
(lp68
sS'is_component_arch'
p69
I00
sg52
S'6.0.0_r1'
p70
sba(iArchitecture
Architecture
p71
(dp72
g3
(lp73
(iArchitecture
Cluster
p74
(dp75
g7
(lp76
(iArchitecture
Entity
p77
(dp78
g11
(lp79
sg13
S'include.radio.IRadio.h'
p80
sg15
(lp81
sg17
(lp82
sg19
(lp83
sg21
I0
sba(iArchitecture
Entity
p84
(dp85
g11
(lp86
sg13
S'include.radio.IRadioClient.h'
p87
sg15
(lp88
sg17
(lp89
sg19
(lp90
sg21
I0
sba(iArchitecture
Entity
p91
(dp92
g11
(lp93
sg13
S'include.radio.IRadioService.h'
p94
sg15
(lp95
sg17
(lp96
sg19
(lp97
sg21
I0
sba(iArchitecture
Entity
p98
(dp99
g11
(lp100
sg13
S'radio.IRadio.c'
p101
sg15
(lp102
sg17
(lp103
sg19
(lp104
sg21
I0
sba(iArchitecture
Entity
p105
(dp106
g11
(lp107
sg13
S'radio.IRadioService.c'
p108
sg15
(lp109
sg17
(lp110
sg19
(lp111
sg21
I0
sbasg50
(lp112
g80
ag87
ag94
ag101
ag108
asg21
I0
sg52
S'services.radio.RadioService.ch'
p113
sba(iArchitecture
Cluster
p114
(dp115
g7
(lp116
(iArchitecture
Entity
p117
(dp118
g11
(lp119
sg13
S'radio.IRadioClient.c'
p120
sg15
(lp121
sg17
(lp122
sg19
(lp123
sg21
I0
sbasg50
(lp124
g120
asg21
I0
sg52
S'services.soundtrigger.SoundTriggerHwService.ch'
p125
sbasg66
g67
sg50
(lp126
sg69
I00
sg52
S'7.0.0_r1'
p127
sba.