(lp0
(iArchitecture
Architecture
p1
(dp2
S'clusters'
p3
(lp4
(iArchitecture
Cluster
p5
(dp6
S'entities'
p7
(lp8
(iArchitecture
Entity
p9
(dp10
S'issue_ids'
p11
(lp12
sS'name'
p13
S'services.audiopolicy.engineconfigurable.parameter-framework.plugin.InputSource.c'
p14
sS'descs'
p15
(lp16
sS'labels'
p17
(lp18
sS'titles'
p19
(lp20
sS'change'
p21
I0
sba(iArchitecture
Entity
p22
(dp23
g11
(lp24
sg13
S'services.audiopolicy.engineconfigurable.parameter-framework.plugin.InputSource.h'
p25
sg15
(lp26
sg17
(lp27
sg19
(lp28
sg21
I0
sbasS'classes'
p29
(lp30
g14
ag25
asg21
I0
sS'label'
p31
S'services.audiopolicy.engineconfigurable.parameter-framework.plugin.InputSource.ch'
p32
sba(iArchitecture
Cluster
p33
(dp34
g7
(lp35
(iArchitecture
Entity
p36
(dp37
g11
(lp38
sg13
S'services.audiopolicy.engineconfigurable.parameter-framework.plugin.PolicySubsystem.c'
p39
sg15
(lp40
sg17
(lp41
sg19
(lp42
sg21
I0
sba(iArchitecture
Entity
p43
(dp44
g11
(lp45
sg13
S'services.audiopolicy.engineconfigurable.parameter-framework.plugin.PolicySubsystem.h'
p46
sg15
(lp47
sg17
(lp48
sg19
(lp49
sg21
I0
sba(iArchitecture
Entity
p50
(dp51
g11
(lp52
sg13
S'services.audiopolicy.engineconfigurable.parameter-framework.plugin.PolicySubsystemBuilder.c'
p53
sg15
(lp54
sg17
(lp55
sg19
(lp56
sg21
I0
sbasg29
(lp57
g39
ag46
ag53
asg21
I0
sg31
S'services.audiopolicy.engineconfigurable.parameter-framework.plugin.PolicySubsystem.ch'
p58
sba(iArchitecture
Cluster
p59
(dp60
g7
(lp61
(iArchitecture
Entity
p62
(dp63
g11
(lp64
sg13
S'services.audiopolicy.engineconfigurable.parameter-framework.plugin.Strategy.c'
p65
sg15
(lp66
sg17
(lp67
sg19
(lp68
sg21
I0
sba(iArchitecture
Entity
p69
(dp70
g11
(lp71
sg13
S'services.audiopolicy.engineconfigurable.parameter-framework.plugin.Strategy.h'
p72
sg15
(lp73
sg17
(lp74
sg19
(lp75
sg21
I0
sbasg29
(lp76
g65
ag72
asg21
I0
sg31
S'services.audiopolicy.engineconfigurable.parameter-framework.plugin.Strategy.ch'
p77
sba(iArchitecture
Cluster
p78
(dp79
g7
(lp80
(iArchitecture
Entity
p81
(dp82
g11
(lp83
sg13
S'services.audiopolicy.engineconfigurable.parameter-framework.plugin.Usage.c'
p84
sg15
(lp85
sg17
(lp86
sg19
(lp87
sg21
I0
sba(iArchitecture
Entity
p88
(dp89
g11
(lp90
sg13
S'services.audiopolicy.engineconfigurable.parameter-framework.plugin.Usage.h'
p91
sg15
(lp92
sg17
(lp93
sg19
(lp94
sg21
I0
sbasg29
(lp95
g84
ag91
asg21
I0
sg31
S'services.audiopolicy.engineconfigurable.parameter-framework.plugin.Usage.ch'
p96
sba(iArchitecture
Cluster
p97
(dp98
g7
(lp99
(iArchitecture
Entity
p100
(dp101
g11
(lp102
sg13
S'services.audiopolicy.engineconfigurable.parameter-framework.plugin.PolicyMappingKeys.h'
p103
sg15
(lp104
sg17
(lp105
sg19
(lp106
sg21
I0
sba(iArchitecture
Entity
p107
(dp108
g11
(lp109
sg13
S'services.audiopolicy.engineconfigurable.parameter-framework.plugin.VolumeProfile.c'
p110
sg15
(lp111
sg17
(lp112
sg19
(lp113
sg21
I0
sba(iArchitecture
Entity
p114
(dp115
g11
(lp116
sg13
S'services.audiopolicy.engineconfigurable.parameter-framework.plugin.VolumeProfile.h'
p117
sg15
(lp118
sg17
(lp119
sg19
(lp120
sg21
I0
sbasg29
(lp121
g103
ag110
ag117
asg21
I0
sg31
S'services.audiopolicy.engineconfigurable.parameter-framework.plugin.VolumeProfile.ch'
p122
sba(iArchitecture
Cluster
p123
(dp124
g7
(lp125
(iArchitecture
Entity
p126
(dp127
g11
(lp128
sg13
S'services.audiopolicy.engineconfigurable.include.EngineDefinition.h'
p129
sg15
(lp130
sg17
(lp131
sg19
(lp132
sg21
I0
sba(iArchitecture
Entity
p133
(dp134
g11
(lp135
sg13
S'services.audiopolicy.engineconfigurable.interface.AudioPolicyPluginInterface.h'
p136
sg15
(lp137
sg17
(lp138
sg19
(lp139
sg21
I0
sba(iArchitecture
Entity
p140
(dp141
g11
(lp142
sg13
S'services.audiopolicy.engineconfigurable.src.Collection.h'
p143
sg15
(lp144
sg17
(lp145
sg19
(lp146
sg21
I0
sba(iArchitecture
Entity
p147
(dp148
g11
(lp149
sg13
S'services.audiopolicy.engineconfigurable.src.Element.h'
p150
sg15
(lp151
sg17
(lp152
sg19
(lp153
sg21
I0
sba(iArchitecture
Entity
p154
(dp155
g11
(lp156
sg13
S'services.audiopolicy.engineconfigurable.src.Engine.c'
p157
sg15
(lp158
sg17
(lp159
sg19
(lp160
sg21
I0
sba(iArchitecture
Entity
p161
(dp162
g11
(lp163
sg13
S'services.audiopolicy.engineconfigurable.src.Engine.h'
p164
sg15
(lp165
sg17
(lp166
sg19
(lp167
sg21
I0
sbasg29
(lp168
g129
ag136
ag143
ag150
ag157
ag164
asg21
I0
sg31
S'services.audiopolicy.engineconfigurable.src.Engine.ch'
p169
sba(iArchitecture
Cluster
p170
(dp171
g7
(lp172
(iArchitecture
Entity
p173
(dp174
g11
(lp175
sg13
S'services.audiopolicy.engineconfigurable.wrapper.ParameterManagerWrapper.c'
p176
sg15
(lp177
sg17
(lp178
sg19
(lp179
sg21
I0
sba(iArchitecture
Entity
p180
(dp181
g11
(lp182
sg13
S'services.audiopolicy.engineconfigurable.wrapper.audio_policy_criteria_conf.h'
p183
sg15
(lp184
sg17
(lp185
sg19
(lp186
sg21
I0
sba(iArchitecture
Entity
p187
(dp188
g11
(lp189
sg13
S'services.audiopolicy.engineconfigurable.wrapper.include.ParameterManagerWrapper.h'
p190
sg15
(lp191
sg17
(lp192
sg19
(lp193
sg21
I0
sba(iArchitecture
Entity
p194
(dp195
g11
(lp196
sg13
S'services.audiopolicy.utilities.convert.convert.h'
p197
sg15
(lp198
sg17
(lp199
sg19
(lp200
sg21
I0
sbasg29
(lp201
g176
ag183
ag190
ag197
asg21
I0
sg31
S'services.audiopolicy.engineconfigurable.wrapper.ParameterManagerWrapper.ss'
p202
sba(iArchitecture
Cluster
p203
(dp204
g7
(lp205
(iArchitecture
Entity
p206
(dp207
g11
(lp208
sg13
S'services.audiopolicy.enginedefault.src.Gains.c'
p209
sg15
(lp210
sg17
(lp211
sg19
(lp212
sg21
I0
sba(iArchitecture
Entity
p213
(dp214
g11
(lp215
sg13
S'services.audiopolicy.enginedefault.src.Gains.h'
p216
sg15
(lp217
sg17
(lp218
sg19
(lp219
sg21
I0
sbasg29
(lp220
g209
ag216
asg21
I0
sg31
S'services.audiopolicy.enginedefault.src.Gains.ch'
p221
sba(iArchitecture
Cluster
p222
(dp223
g7
(lp224
(iArchitecture
Entity
p225
(dp226
g11
(lp227
sg13
S'services.audiopolicy.common.include.policy.h'
p228
sg15
(lp229
sg17
(lp230
sg19
(lp231
sg21
I0
sba(iArchitecture
Entity
p232
(dp233
g11
(lp234
sg13
S'services.audiopolicy.engineconfigurable.include.AudioPolicyEngineInstance.h'
p235
sg15
(lp236
sg17
(lp237
sg19
(lp238
sg21
I0
sba(iArchitecture
Entity
p239
(dp240
g11
(lp241
sg13
S'services.audiopolicy.managerdefault.AudioPolicyManager.c'
p242
sg15
(lp243
sg17
(lp244
sg19
(lp245
sg21
I0
sba(iArchitecture
Entity
p246
(dp247
g11
(lp248
sg13
S'services.audiopolicy.managerdefault.AudioPolicyManager.h'
p249
sg15
(lp250
sg17
(lp251
sg19
(lp252
sg21
I0
sbasg29
(lp253
g228
ag235
ag242
ag249
asg21
I0
sg31
S'services.audiopolicy.managerdefault.AudioPolicyManager.ch'
p254
sba(iArchitecture
Cluster
p255
(dp256
g7
(lp257
(iArchitecture
Entity
p258
(dp259
g11
(lp260
sg13
S'services.audiopolicy.service.AudioPolicyClientImplLegacy.c'
p261
sg15
(lp262
sg17
(lp263
sg19
(lp264
sg21
I0
sbasg29
(lp265
g261
asg21
I0
sg31
S'services.audiopolicy.service.AudioPolicyClientImplLegacy.ss'
p266
sba(iArchitecture
Cluster
p267
(dp268
g7
(lp269
(iArchitecture
Entity
p270
(dp271
g11
(lp272
sg13
S'services.audiopolicy.service.AudioPolicyEffects.c'
p273
sg15
(lp274
sg17
(lp275
sg19
(lp276
sg21
I0
sba(iArchitecture
Entity
p277
(dp278
g11
(lp279
sg13
S'services.audiopolicy.service.AudioPolicyEffects.h'
p280
sg15
(lp281
sg17
(lp282
sg19
(lp283
sg21
I0
sbasg29
(lp284
g273
ag280
asg21
I0
sg31
S'services.audiopolicy.service.AudioPolicyEffects.ch'
p285
sba(iArchitecture
Cluster
p286
(dp287
g7
(lp288
(iArchitecture
Entity
p289
(dp290
g11
(lp291
sg13
S'services.audiopolicy.AudioPolicyInterface.h'
p292
sg15
(lp293
sg17
(lp294
sg19
(lp295
sg21
I0
sba(iArchitecture
Entity
p296
(dp297
g11
(lp298
sg13
S'services.audiopolicy.common.include.RoutingStrategy.h'
p299
sg15
(lp300
sg17
(lp301
sg19
(lp302
sg21
I0
sba(iArchitecture
Entity
p303
(dp304
g11
(lp305
sg13
S'services.audiopolicy.common.include.Volume.h'
p306
sg15
(lp307
sg17
(lp308
sg19
(lp309
sg21
I0
sba(iArchitecture
Entity
p310
(dp311
g11
(lp312
sg13
S'services.audiopolicy.common.managerdefinitions.include.AudioGain.h'
p313
sg15
(lp314
sg17
(lp315
sg19
(lp316
sg21
I0
sba(iArchitecture
Entity
p317
(dp318
g11
(lp319
sg13
S'services.audiopolicy.common.managerdefinitions.include.AudioInputDescriptor.h'
p320
sg15
(lp321
sg17
(lp322
sg19
(lp323
sg21
I0
sba(iArchitecture
Entity
p324
(dp325
g11
(lp326
sg13
S'services.audiopolicy.common.managerdefinitions.include.AudioOutputDescriptor.h'
p327
sg15
(lp328
sg17
(lp329
sg19
(lp330
sg21
I0
sba(iArchitecture
Entity
p331
(dp332
g11
(lp333
sg13
S'services.audiopolicy.common.managerdefinitions.include.AudioPatch.h'
p334
sg15
(lp335
sg17
(lp336
sg19
(lp337
sg21
I0
sba(iArchitecture
Entity
p338
(dp339
g11
(lp340
sg13
S'services.audiopolicy.common.managerdefinitions.include.AudioPolicyMix.h'
p341
sg15
(lp342
sg17
(lp343
sg19
(lp344
sg21
I0
sba(iArchitecture
Entity
p345
(dp346
g11
(lp347
sg13
S'services.audiopolicy.common.managerdefinitions.include.AudioPort.h'
p348
sg15
(lp349
sg17
(lp350
sg19
(lp351
sg21
I0
sba(iArchitecture
Entity
p352
(dp353
g11
(lp354
sg13
S'services.audiopolicy.common.managerdefinitions.include.ConfigParsingUtils.h'
p355
sg15
(lp356
sg17
(lp357
sg19
(lp358
sg21
I0
sba(iArchitecture
Entity
p359
(dp360
g11
(lp361
sg13
S'services.audiopolicy.common.managerdefinitions.include.DeviceDescriptor.h'
p362
sg15
(lp363
sg17
(lp364
sg19
(lp365
sg21
I0
sba(iArchitecture
Entity
p366
(dp367
g11
(lp368
sg13
S'services.audiopolicy.common.managerdefinitions.include.EffectDescriptor.h'
p369
sg15
(lp370
sg17
(lp371
sg19
(lp372
sg21
I0
sba(iArchitecture
Entity
p373
(dp374
g11
(lp375
sg13
S'services.audiopolicy.common.managerdefinitions.include.HwModule.h'
p376
sg15
(lp377
sg17
(lp378
sg19
(lp379
sg21
I0
sba(iArchitecture
Entity
p380
(dp381
g11
(lp382
sg13
S'services.audiopolicy.common.managerdefinitions.include.IOProfile.h'
p383
sg15
(lp384
sg17
(lp385
sg19
(lp386
sg21
I0
sba(iArchitecture
Entity
p387
(dp388
g11
(lp389
sg13
S'services.audiopolicy.common.managerdefinitions.include.SessionRoute.h'
p390
sg15
(lp391
sg17
(lp392
sg19
(lp393
sg21
I0
sba(iArchitecture
Entity
p394
(dp395
g11
(lp396
sg13
S'services.audiopolicy.common.managerdefinitions.include.SoundTriggerSession.h'
p397
sg15
(lp398
sg17
(lp399
sg19
(lp400
sg21
I0
sba(iArchitecture
Entity
p401
(dp402
g11
(lp403
sg13
S'services.audiopolicy.common.managerdefinitions.include.StreamDescriptor.h'
p404
sg15
(lp405
sg17
(lp406
sg19
(lp407
sg21
I0
sba(iArchitecture
Entity
p408
(dp409
g11
(lp410
sg13
S'services.audiopolicy.common.managerdefinitions.include.audio_policy_conf.h'
p411
sg15
(lp412
sg17
(lp413
sg19
(lp414
sg21
I0
sba(iArchitecture
Entity
p415
(dp416
g11
(lp417
sg13
S'services.audiopolicy.common.managerdefinitions.src.AudioGain.c'
p418
sg15
(lp419
sg17
(lp420
sg19
(lp421
sg21
I0
sba(iArchitecture
Entity
p422
(dp423
g11
(lp424
sg13
S'services.audiopolicy.common.managerdefinitions.src.AudioInputDescriptor.c'
p425
sg15
(lp426
sg17
(lp427
sg19
(lp428
sg21
I0
sba(iArchitecture
Entity
p429
(dp430
g11
(lp431
sg13
S'services.audiopolicy.common.managerdefinitions.src.AudioOutputDescriptor.c'
p432
sg15
(lp433
sg17
(lp434
sg19
(lp435
sg21
I0
sba(iArchitecture
Entity
p436
(dp437
g11
(lp438
sg13
S'services.audiopolicy.common.managerdefinitions.src.AudioPatch.c'
p439
sg15
(lp440
sg17
(lp441
sg19
(lp442
sg21
I0
sba(iArchitecture
Entity
p443
(dp444
g11
(lp445
sg13
S'services.audiopolicy.common.managerdefinitions.src.AudioPolicyMix.c'
p446
sg15
(lp447
sg17
(lp448
sg19
(lp449
sg21
I0
sba(iArchitecture
Entity
p450
(dp451
g11
(lp452
sg13
S'services.audiopolicy.common.managerdefinitions.src.AudioPort.c'
p453
sg15
(lp454
sg17
(lp455
sg19
(lp456
sg21
I0
sba(iArchitecture
Entity
p457
(dp458
g11
(lp459
sg13
S'services.audiopolicy.common.managerdefinitions.src.ConfigParsingUtils.c'
p460
sg15
(lp461
sg17
(lp462
sg19
(lp463
sg21
I0
sba(iArchitecture
Entity
p464
(dp465
g11
(lp466
sg13
S'services.audiopolicy.common.managerdefinitions.src.DeviceDescriptor.c'
p467
sg15
(lp468
sg17
(lp469
sg19
(lp470
sg21
I0
sba(iArchitecture
Entity
p471
(dp472
g11
(lp473
sg13
S'services.audiopolicy.common.managerdefinitions.src.EffectDescriptor.c'
p474
sg15
(lp475
sg17
(lp476
sg19
(lp477
sg21
I0
sba(iArchitecture
Entity
p478
(dp479
g11
(lp480
sg13
S'services.audiopolicy.common.managerdefinitions.src.HwModule.c'
p481
sg15
(lp482
sg17
(lp483
sg19
(lp484
sg21
I0
sba(iArchitecture
Entity
p485
(dp486
g11
(lp487
sg13
S'services.audiopolicy.common.managerdefinitions.src.IOProfile.c'
p488
sg15
(lp489
sg17
(lp490
sg19
(lp491
sg21
I0
sba(iArchitecture
Entity
p492
(dp493
g11
(lp494
sg13
S'services.audiopolicy.common.managerdefinitions.src.SessionRoute.c'
p495
sg15
(lp496
sg17
(lp497
sg19
(lp498
sg21
I0
sba(iArchitecture
Entity
p499
(dp500
g11
(lp501
sg13
S'services.audiopolicy.common.managerdefinitions.src.SoundTriggerSession.c'
p502
sg15
(lp503
sg17
(lp504
sg19
(lp505
sg21
I0
sba(iArchitecture
Entity
p506
(dp507
g11
(lp508
sg13
S'services.audiopolicy.engine.interface.AudioPolicyManagerInterface.h'
p509
sg15
(lp510
sg17
(lp511
sg19
(lp512
sg21
I0
sba(iArchitecture
Entity
p513
(dp514
g11
(lp515
sg13
S'services.audiopolicy.engine.interface.AudioPolicyManagerObserver.h'
p516
sg15
(lp517
sg17
(lp518
sg19
(lp519
sg21
I0
sba(iArchitecture
Entity
p520
(dp521
g11
(lp522
sg13
S'services.audiopolicy.engineconfigurable.src.EngineInstance.c'
p523
sg15
(lp524
sg17
(lp525
sg19
(lp526
sg21
I0
sba(iArchitecture
Entity
p527
(dp528
g11
(lp529
sg13
S'services.audiopolicy.enginedefault.src.Engine.c'
p530
sg15
(lp531
sg17
(lp532
sg19
(lp533
sg21
I0
sba(iArchitecture
Entity
p534
(dp535
g11
(lp536
sg13
S'services.audiopolicy.enginedefault.src.EngineInstance.c'
p537
sg15
(lp538
sg17
(lp539
sg19
(lp540
sg21
I0
sba(iArchitecture
Entity
p541
(dp542
g11
(lp543
sg13
S'services.audiopolicy.manager.AudioPolicyFactory.c'
p544
sg15
(lp545
sg17
(lp546
sg19
(lp547
sg21
I0
sba(iArchitecture
Entity
p548
(dp549
g11
(lp550
sg13
S'services.audiopolicy.service.AudioPolicyClientImpl.c'
p551
sg15
(lp552
sg17
(lp553
sg19
(lp554
sg21
I0
sba(iArchitecture
Entity
p555
(dp556
g11
(lp557
sg13
S'services.audiopolicy.service.AudioPolicyInterfaceImpl.c'
p558
sg15
(lp559
sg17
(lp560
sg19
(lp561
sg21
I0
sba(iArchitecture
Entity
p562
(dp563
g11
(lp564
sg13
S'services.audiopolicy.service.AudioPolicyInterfaceImplLegacy.c'
p565
sg15
(lp566
sg17
(lp567
sg19
(lp568
sg21
I0
sba(iArchitecture
Entity
p569
(dp570
g11
(lp571
sg13
S'services.audiopolicy.service.AudioPolicyService.c'
p572
sg15
(lp573
sg17
(lp574
sg19
(lp575
sg21
I0
sba(iArchitecture
Entity
p576
(dp577
g11
(lp578
sg13
S'services.audiopolicy.service.AudioPolicyService.h'
p579
sg15
(lp580
sg17
(lp581
sg19
(lp582
sg21
I0
sbasg29
(lp583
g292
ag299
ag306
ag313
ag320
ag327
ag334
ag341
ag348
ag355
ag362
ag369
ag376
ag383
ag390
ag397
ag404
ag411
ag418
ag425
ag432
ag439
ag446
ag453
ag460
ag467
ag474
ag481
ag488
ag495
ag502
ag509
ag516
ag523
ag530
ag537
ag544
ag551
ag558
ag565
ag572
ag579
asg21
I0
sg31
S'services.audiopolicy.service.AudioPolicyService.ch'
p584
sba(iArchitecture
Cluster
p585
(dp586
g7
(lp587
(iArchitecture
Entity
p588
(dp589
g11
(lp590
sg13
S'services.audiopolicy.engineconfigurable.parameter-framework.plugin.Stream.c'
p591
sg15
(lp592
sg17
(lp593
sg19
(lp594
sg21
I0
sba(iArchitecture
Entity
p595
(dp596
g11
(lp597
sg13
S'services.audiopolicy.engineconfigurable.src.Stream.c'
p598
sg15
(lp599
sg17
(lp600
sg19
(lp601
sg21
I0
sbasg29
(lp602
g591
ag598
asg21
I0
sg31
S'services.camera.libcameraservice.CameraService.ch'
p603
sba(iArchitecture
Cluster
p604
(dp605
g7
(lp606
(iArchitecture
Entity
p607
(dp608
g11
(lp609
sg13
S'services.audiopolicy.common.managerdefinitions.src.StreamDescriptor.c'
p610
sg15
(lp611
sg17
(lp612
sg19
(lp613
sg21
I0
sba(iArchitecture
Entity
p614
(dp615
g11
(lp616
sg13
S'services.audiopolicy.engineconfigurable.src.InputSource.c'
p617
sg15
(lp618
sg17
(lp619
sg19
(lp620
sg21
I0
sba(iArchitecture
Entity
p621
(dp622
g11
(lp623
sg13
S'services.audiopolicy.engineconfigurable.src.Strategy.c'
p624
sg15
(lp625
sg17
(lp626
sg19
(lp627
sg21
I0
sba(iArchitecture
Entity
p628
(dp629
g11
(lp630
sg13
S'services.audiopolicy.engineconfigurable.src.Usage.c'
p631
sg15
(lp632
sg17
(lp633
sg19
(lp634
sg21
I0
sbasg29
(lp635
g610
ag617
ag624
ag631
asg21
I0
sg31
S'services.soundtrigger.SoundTriggerHwService.ch'
p636
sbasS'target_sub'
p637
S'services.audiopolicy'
p638
sg29
(lp639
sS'is_component_arch'
p640
I00
sg31
S'6.0.0_r1'
p641
sba(iArchitecture
Architecture
p642
(dp643
g3
(lp644
(iArchitecture
Cluster
p645
(dp646
g7
(lp647
(iArchitecture
Entity
p648
(dp649
g11
(lp650
sg13
S'services.audiopolicy.common.managerdefinitions.include.ConfigParsingUtils.h'
p651
sg15
(lp652
sg17
(lp653
sg19
(lp654
sg21
I0
sba(iArchitecture
Entity
p655
(dp656
g11
(lp657
sg13
S'services.audiopolicy.common.managerdefinitions.include.audio_policy_conf.h'
p658
sg15
(lp659
sg17
(lp660
sg19
(lp661
sg21
I0
sba(iArchitecture
Entity
p662
(dp663
g11
(lp664
sg13
S'services.audiopolicy.common.managerdefinitions.src.ConfigParsingUtils.c'
p665
sg15
(lp666
sg17
(lp667
sg19
(lp668
sg21
I0
sbasg29
(lp669
g651
ag658
ag665
asg21
I0
sg31
S'services.audiopolicy.common.managerdefinitions.src.ConfigParsingUtils.ss'
p670
sba(iArchitecture
Cluster
p671
(dp672
g7
(lp673
(iArchitecture
Entity
p674
(dp675
g11
(lp676
sg13
S'services.audiopolicy.common.managerdefinitions.include.Serializer.h'
p677
sg15
(lp678
sg17
(lp679
sg19
(lp680
sg21
I0
sba(iArchitecture
Entity
p681
(dp682
g11
(lp683
sg13
S'services.audiopolicy.common.managerdefinitions.src.Serializer.c'
p684
sg15
(lp685
sg17
(lp686
sg19
(lp687
sg21
I0
sbasg29
(lp688
g677
ag684
asg21
I0
sg31
S'services.audiopolicy.common.managerdefinitions.src.Serializer.ss'
p689
sba(iArchitecture
Cluster
p690
(dp691
g7
(lp692
(iArchitecture
Entity
p693
(dp694
g11
(lp695
sg13
S'services.audiopolicy.engineconfigurable.parameter-framework.plugin.InputSource.c'
p696
sg15
(lp697
sg17
(lp698
sg19
(lp699
sg21
I0
sba(iArchitecture
Entity
p700
(dp701
g11
(lp702
sg13
S'services.audiopolicy.engineconfigurable.parameter-framework.plugin.InputSource.h'
p703
sg15
(lp704
sg17
(lp705
sg19
(lp706
sg21
I0
sbasg29
(lp707
g696
ag703
asg21
I0
sg31
S'services.audiopolicy.engineconfigurable.parameter-framework.plugin.InputSource.ch'
p708
sba(iArchitecture
Cluster
p709
(dp710
g7
(lp711
(iArchitecture
Entity
p712
(dp713
g11
(lp714
sg13
S'services.audiopolicy.engineconfigurable.parameter-framework.plugin.PolicySubsystem.c'
p715
sg15
(lp716
sg17
(lp717
sg19
(lp718
sg21
I0
sba(iArchitecture
Entity
p719
(dp720
g11
(lp721
sg13
S'services.audiopolicy.engineconfigurable.parameter-framework.plugin.PolicySubsystem.h'
p722
sg15
(lp723
sg17
(lp724
sg19
(lp725
sg21
I0
sba(iArchitecture
Entity
p726
(dp727
g11
(lp728
sg13
S'services.audiopolicy.engineconfigurable.parameter-framework.plugin.PolicySubsystemBuilder.c'
p729
sg15
(lp730
sg17
(lp731
sg19
(lp732
sg21
I0
sbasg29
(lp733
g715
ag722
ag729
asg21
I0
sg31
S'services.audiopolicy.engineconfigurable.parameter-framework.plugin.PolicySubsystem.ch'
p734
sba(iArchitecture
Cluster
p735
(dp736
g7
(lp737
(iArchitecture
Entity
p738
(dp739
g11
(lp740
sg13
S'services.audiopolicy.engineconfigurable.parameter-framework.plugin.Strategy.c'
p741
sg15
(lp742
sg17
(lp743
sg19
(lp744
sg21
I0
sba(iArchitecture
Entity
p745
(dp746
g11
(lp747
sg13
S'services.audiopolicy.engineconfigurable.parameter-framework.plugin.Strategy.h'
p748
sg15
(lp749
sg17
(lp750
sg19
(lp751
sg21
I0
sbasg29
(lp752
g741
ag748
asg21
I0
sg31
S'services.audiopolicy.engineconfigurable.parameter-framework.plugin.Strategy.ch'
p753
sba(iArchitecture
Cluster
p754
(dp755
g7
(lp756
(iArchitecture
Entity
p757
(dp758
g11
(lp759
sg13
S'services.audiopolicy.engineconfigurable.parameter-framework.plugin.PolicyMappingKeys.h'
p760
sg15
(lp761
sg17
(lp762
sg19
(lp763
sg21
I0
sba(iArchitecture
Entity
p764
(dp765
g11
(lp766
sg13
S'services.audiopolicy.engineconfigurable.parameter-framework.plugin.Usage.c'
p767
sg15
(lp768
sg17
(lp769
sg19
(lp770
sg21
I0
sba(iArchitecture
Entity
p771
(dp772
g11
(lp773
sg13
S'services.audiopolicy.engineconfigurable.parameter-framework.plugin.Usage.h'
p774
sg15
(lp775
sg17
(lp776
sg19
(lp777
sg21
I0
sbasg29
(lp778
g760
ag767
ag774
asg21
I0
sg31
S'services.audiopolicy.engineconfigurable.parameter-framework.plugin.Usage.ch'
p779
sba(iArchitecture
Cluster
p780
(dp781
g7
(lp782
(iArchitecture
Entity
p783
(dp784
g11
(lp785
sg13
S'services.audiopolicy.engineconfigurable.include.EngineDefinition.h'
p786
sg15
(lp787
sg17
(lp788
sg19
(lp789
sg21
I0
sba(iArchitecture
Entity
p790
(dp791
g11
(lp792
sg13
S'services.audiopolicy.engineconfigurable.interface.AudioPolicyPluginInterface.h'
p793
sg15
(lp794
sg17
(lp795
sg19
(lp796
sg21
I0
sba(iArchitecture
Entity
p797
(dp798
g11
(lp799
sg13
S'services.audiopolicy.engineconfigurable.src.Collection.h'
p800
sg15
(lp801
sg17
(lp802
sg19
(lp803
sg21
I0
sba(iArchitecture
Entity
p804
(dp805
g11
(lp806
sg13
S'services.audiopolicy.engineconfigurable.src.Element.h'
p807
sg15
(lp808
sg17
(lp809
sg19
(lp810
sg21
I0
sba(iArchitecture
Entity
p811
(dp812
g11
(lp813
sg13
S'services.audiopolicy.engineconfigurable.src.Engine.c'
p814
sg15
(lp815
sg17
(lp816
sg19
(lp817
sg21
I0
sba(iArchitecture
Entity
p818
(dp819
g11
(lp820
sg13
S'services.audiopolicy.engineconfigurable.src.Engine.h'
p821
sg15
(lp822
sg17
(lp823
sg19
(lp824
sg21
I0
sbasg29
(lp825
g786
ag793
ag800
ag807
ag814
ag821
asg21
I0
sg31
S'services.audiopolicy.engineconfigurable.src.Engine.ch'
p826
sba(iArchitecture
Cluster
p827
(dp828
g7
(lp829
(iArchitecture
Entity
p830
(dp831
g11
(lp832
sg13
S'services.audiopolicy.engineconfigurable.wrapper.ParameterManagerWrapper.c'
p833
sg15
(lp834
sg17
(lp835
sg19
(lp836
sg21
I0
sba(iArchitecture
Entity
p837
(dp838
g11
(lp839
sg13
S'services.audiopolicy.engineconfigurable.wrapper.audio_policy_criteria_conf.h'
p840
sg15
(lp841
sg17
(lp842
sg19
(lp843
sg21
I0
sba(iArchitecture
Entity
p844
(dp845
g11
(lp846
sg13
S'services.audiopolicy.engineconfigurable.wrapper.include.ParameterManagerWrapper.h'
p847
sg15
(lp848
sg17
(lp849
sg19
(lp850
sg21
I0
sbasg29
(lp851
g833
ag840
ag847
asg21
I0
sg31
S'services.audiopolicy.engineconfigurable.wrapper.ParameterManagerWrapper.ss'
p852
sba(iArchitecture
Cluster
p853
(dp854
g7
(lp855
(iArchitecture
Entity
p856
(dp857
g11
(lp858
sg13
S'services.audiopolicy.common.managerdefinitions.include.AudioPolicyConfig.h'
p859
sg15
(lp860
sg17
(lp861
sg19
(lp862
sg21
I0
sba(iArchitecture
Entity
p863
(dp864
g11
(lp865
sg13
S'services.audiopolicy.common.managerdefinitions.include.StreamDescriptor.h'
p866
sg15
(lp867
sg17
(lp868
sg19
(lp869
sg21
I0
sba(iArchitecture
Entity
p870
(dp871
g11
(lp872
sg13
S'services.audiopolicy.common.managerdefinitions.include.TypeConverter.h'
p873
sg15
(lp874
sg17
(lp875
sg19
(lp876
sg21
I0
sba(iArchitecture
Entity
p877
(dp878
g11
(lp879
sg13
S'services.audiopolicy.engineconfigurable.include.AudioPolicyEngineInstance.h'
p880
sg15
(lp881
sg17
(lp882
sg19
(lp883
sg21
I0
sba(iArchitecture
Entity
p884
(dp885
g11
(lp886
sg13
S'services.audiopolicy.managerdefault.AudioPolicyManager.c'
p887
sg15
(lp888
sg17
(lp889
sg19
(lp890
sg21
I0
sba(iArchitecture
Entity
p891
(dp892
g11
(lp893
sg13
S'services.audiopolicy.managerdefault.AudioPolicyManager.h'
p894
sg15
(lp895
sg17
(lp896
sg19
(lp897
sg21
I0
sba(iArchitecture
Entity
p898
(dp899
g11
(lp900
sg13
S'services.audiopolicy.utilities.convert.convert.h'
p901
sg15
(lp902
sg17
(lp903
sg19
(lp904
sg21
I0
sbasg29
(lp905
g859
ag866
ag873
ag880
ag887
ag894
ag901
asg21
I0
sg31
S'services.audiopolicy.managerdefault.AudioPolicyManager.ch'
p906
sba(iArchitecture
Cluster
p907
(dp908
g7
(lp909
(iArchitecture
Entity
p910
(dp911
g11
(lp912
sg13
S'services.audiopolicy.service.AudioPolicyClientImplLegacy.c'
p913
sg15
(lp914
sg17
(lp915
sg19
(lp916
sg21
I0
sbasg29
(lp917
g913
asg21
I0
sg31
S'services.audiopolicy.service.AudioPolicyClientImplLegacy.ss'
p918
sba(iArchitecture
Cluster
p919
(dp920
g7
(lp921
(iArchitecture
Entity
p922
(dp923
g11
(lp924
sg13
S'services.audiopolicy.service.AudioPolicyEffects.c'
p925
sg15
(lp926
sg17
(lp927
sg19
(lp928
sg21
I0
sba(iArchitecture
Entity
p929
(dp930
g11
(lp931
sg13
S'services.audiopolicy.service.AudioPolicyEffects.h'
p932
sg15
(lp933
sg17
(lp934
sg19
(lp935
sg21
I0
sbasg29
(lp936
g925
ag932
asg21
I0
sg31
S'services.audiopolicy.service.AudioPolicyEffects.ch'
p937
sba(iArchitecture
Cluster
p938
(dp939
g7
(lp940
(iArchitecture
Entity
p941
(dp942
g11
(lp943
sg13
S'services.audiopolicy.AudioPolicyInterface.h'
p944
sg15
(lp945
sg17
(lp946
sg19
(lp947
sg21
I0
sba(iArchitecture
Entity
p948
(dp949
g11
(lp950
sg13
S'services.audiopolicy.common.include.RoutingStrategy.h'
p951
sg15
(lp952
sg17
(lp953
sg19
(lp954
sg21
I0
sba(iArchitecture
Entity
p955
(dp956
g11
(lp957
sg13
S'services.audiopolicy.common.include.Volume.h'
p958
sg15
(lp959
sg17
(lp960
sg19
(lp961
sg21
I0
sba(iArchitecture
Entity
p962
(dp963
g11
(lp964
sg13
S'services.audiopolicy.common.include.policy.h'
p965
sg15
(lp966
sg17
(lp967
sg19
(lp968
sg21
I0
sba(iArchitecture
Entity
p969
(dp970
g11
(lp971
sg13
S'services.audiopolicy.common.managerdefinitions.include.AudioCollections.h'
p972
sg15
(lp973
sg17
(lp974
sg19
(lp975
sg21
I0
sba(iArchitecture
Entity
p976
(dp977
g11
(lp978
sg13
S'services.audiopolicy.common.managerdefinitions.include.AudioGain.h'
p979
sg15
(lp980
sg17
(lp981
sg19
(lp982
sg21
I0
sba(iArchitecture
Entity
p983
(dp984
g11
(lp985
sg13
S'services.audiopolicy.common.managerdefinitions.include.AudioInputDescriptor.h'
p986
sg15
(lp987
sg17
(lp988
sg19
(lp989
sg21
I0
sba(iArchitecture
Entity
p990
(dp991
g11
(lp992
sg13
S'services.audiopolicy.common.managerdefinitions.include.AudioOutputDescriptor.h'
p993
sg15
(lp994
sg17
(lp995
sg19
(lp996
sg21
I0
sba(iArchitecture
Entity
p997
(dp998
g11
(lp999
sg13
S'services.audiopolicy.common.managerdefinitions.include.AudioPatch.h'
p1000
sg15
(lp1001
sg17
(lp1002
sg19
(lp1003
sg21
I0
sba(iArchitecture
Entity
p1004
(dp1005
g11
(lp1006
sg13
S'services.audiopolicy.common.managerdefinitions.include.AudioPolicyMix.h'
p1007
sg15
(lp1008
sg17
(lp1009
sg19
(lp1010
sg21
I0
sba(iArchitecture
Entity
p1011
(dp1012
g11
(lp1013
sg13
S'services.audiopolicy.common.managerdefinitions.include.AudioPort.h'
p1014
sg15
(lp1015
sg17
(lp1016
sg19
(lp1017
sg21
I0
sba(iArchitecture
Entity
p1018
(dp1019
g11
(lp1020
sg13
S'services.audiopolicy.common.managerdefinitions.include.AudioProfile.h'
p1021
sg15
(lp1022
sg17
(lp1023
sg19
(lp1024
sg21
I0
sba(iArchitecture
Entity
p1025
(dp1026
g11
(lp1027
sg13
S'services.audiopolicy.common.managerdefinitions.include.AudioRoute.h'
p1028
sg15
(lp1029
sg17
(lp1030
sg19
(lp1031
sg21
I0
sba(iArchitecture
Entity
p1032
(dp1033
g11
(lp1034
sg13
S'services.audiopolicy.common.managerdefinitions.include.AudioSession.h'
p1035
sg15
(lp1036
sg17
(lp1037
sg19
(lp1038
sg21
I0
sba(iArchitecture
Entity
p1039
(dp1040
g11
(lp1041
sg13
S'services.audiopolicy.common.managerdefinitions.include.AudioSessionInfoProvider.h'
p1042
sg15
(lp1043
sg17
(lp1044
sg19
(lp1045
sg21
I0
sba(iArchitecture
Entity
p1046
(dp1047
g11
(lp1048
sg13
S'services.audiopolicy.common.managerdefinitions.include.AudioSourceDescriptor.h'
p1049
sg15
(lp1050
sg17
(lp1051
sg19
(lp1052
sg21
I0
sba(iArchitecture
Entity
p1053
(dp1054
g11
(lp1055
sg13
S'services.audiopolicy.common.managerdefinitions.include.DeviceDescriptor.h'
p1056
sg15
(lp1057
sg17
(lp1058
sg19
(lp1059
sg21
I0
sba(iArchitecture
Entity
p1060
(dp1061
g11
(lp1062
sg13
S'services.audiopolicy.common.managerdefinitions.include.EffectDescriptor.h'
p1063
sg15
(lp1064
sg17
(lp1065
sg19
(lp1066
sg21
I0
sba(iArchitecture
Entity
p1067
(dp1068
g11
(lp1069
sg13
S'services.audiopolicy.common.managerdefinitions.include.Gains.h'
p1070
sg15
(lp1071
sg17
(lp1072
sg19
(lp1073
sg21
I0
sba(iArchitecture
Entity
p1074
(dp1075
g11
(lp1076
sg13
S'services.audiopolicy.common.managerdefinitions.include.HwModule.h'
p1077
sg15
(lp1078
sg17
(lp1079
sg19
(lp1080
sg21
I0
sba(iArchitecture
Entity
p1081
(dp1082
g11
(lp1083
sg13
S'services.audiopolicy.common.managerdefinitions.include.IOProfile.h'
p1084
sg15
(lp1085
sg17
(lp1086
sg19
(lp1087
sg21
I0
sba(iArchitecture
Entity
p1088
(dp1089
g11
(lp1090
sg13
S'services.audiopolicy.common.managerdefinitions.include.IVolumeCurvesCollection.h'
p1091
sg15
(lp1092
sg17
(lp1093
sg19
(lp1094
sg21
I0
sba(iArchitecture
Entity
p1095
(dp1096
g11
(lp1097
sg13
S'services.audiopolicy.common.managerdefinitions.include.SessionRoute.h'
p1098
sg15
(lp1099
sg17
(lp1100
sg19
(lp1101
sg21
I0
sba(iArchitecture
Entity
p1102
(dp1103
g11
(lp1104
sg13
S'services.audiopolicy.common.managerdefinitions.include.SoundTriggerSession.h'
p1105
sg15
(lp1106
sg17
(lp1107
sg19
(lp1108
sg21
I0
sba(iArchitecture
Entity
p1109
(dp1110
g11
(lp1111
sg13
S'services.audiopolicy.common.managerdefinitions.include.VolumeCurve.h'
p1112
sg15
(lp1113
sg17
(lp1114
sg19
(lp1115
sg21
I0
sba(iArchitecture
Entity
p1116
(dp1117
g11
(lp1118
sg13
S'services.audiopolicy.common.managerdefinitions.src.AudioCollections.c'
p1119
sg15
(lp1120
sg17
(lp1121
sg19
(lp1122
sg21
I0
sba(iArchitecture
Entity
p1123
(dp1124
g11
(lp1125
sg13
S'services.audiopolicy.common.managerdefinitions.src.AudioInputDescriptor.c'
p1126
sg15
(lp1127
sg17
(lp1128
sg19
(lp1129
sg21
I0
sba(iArchitecture
Entity
p1130
(dp1131
g11
(lp1132
sg13
S'services.audiopolicy.common.managerdefinitions.src.AudioOutputDescriptor.c'
p1133
sg15
(lp1134
sg17
(lp1135
sg19
(lp1136
sg21
I0
sba(iArchitecture
Entity
p1137
(dp1138
g11
(lp1139
sg13
S'services.audiopolicy.common.managerdefinitions.src.AudioPatch.c'
p1140
sg15
(lp1141
sg17
(lp1142
sg19
(lp1143
sg21
I0
sba(iArchitecture
Entity
p1144
(dp1145
g11
(lp1146
sg13
S'services.audiopolicy.common.managerdefinitions.src.AudioPolicyMix.c'
p1147
sg15
(lp1148
sg17
(lp1149
sg19
(lp1150
sg21
I0
sba(iArchitecture
Entity
p1151
(dp1152
g11
(lp1153
sg13
S'services.audiopolicy.common.managerdefinitions.src.AudioPort.c'
p1154
sg15
(lp1155
sg17
(lp1156
sg19
(lp1157
sg21
I0
sba(iArchitecture
Entity
p1158
(dp1159
g11
(lp1160
sg13
S'services.audiopolicy.common.managerdefinitions.src.AudioProfile.c'
p1161
sg15
(lp1162
sg17
(lp1163
sg19
(lp1164
sg21
I0
sba(iArchitecture
Entity
p1165
(dp1166
g11
(lp1167
sg13
S'services.audiopolicy.common.managerdefinitions.src.AudioRoute.c'
p1168
sg15
(lp1169
sg17
(lp1170
sg19
(lp1171
sg21
I0
sba(iArchitecture
Entity
p1172
(dp1173
g11
(lp1174
sg13
S'services.audiopolicy.common.managerdefinitions.src.AudioSourceDescriptor.c'
p1175
sg15
(lp1176
sg17
(lp1177
sg19
(lp1178
sg21
I0
sba(iArchitecture
Entity
p1179
(dp1180
g11
(lp1181
sg13
S'services.audiopolicy.common.managerdefinitions.src.DeviceDescriptor.c'
p1182
sg15
(lp1183
sg17
(lp1184
sg19
(lp1185
sg21
I0
sba(iArchitecture
Entity
p1186
(dp1187
g11
(lp1188
sg13
S'services.audiopolicy.common.managerdefinitions.src.EffectDescriptor.c'
p1189
sg15
(lp1190
sg17
(lp1191
sg19
(lp1192
sg21
I0
sba(iArchitecture
Entity
p1193
(dp1194
g11
(lp1195
sg13
S'services.audiopolicy.common.managerdefinitions.src.HwModule.c'
p1196
sg15
(lp1197
sg17
(lp1198
sg19
(lp1199
sg21
I0
sba(iArchitecture
Entity
p1200
(dp1201
g11
(lp1202
sg13
S'services.audiopolicy.common.managerdefinitions.src.IOProfile.c'
p1203
sg15
(lp1204
sg17
(lp1205
sg19
(lp1206
sg21
I0
sba(iArchitecture
Entity
p1207
(dp1208
g11
(lp1209
sg13
S'services.audiopolicy.common.managerdefinitions.src.SessionRoute.c'
p1210
sg15
(lp1211
sg17
(lp1212
sg19
(lp1213
sg21
I0
sba(iArchitecture
Entity
p1214
(dp1215
g11
(lp1216
sg13
S'services.audiopolicy.common.managerdefinitions.src.SoundTriggerSession.c'
p1217
sg15
(lp1218
sg17
(lp1219
sg19
(lp1220
sg21
I0
sba(iArchitecture
Entity
p1221
(dp1222
g11
(lp1223
sg13
S'services.audiopolicy.common.managerdefinitions.src.StreamDescriptor.c'
p1224
sg15
(lp1225
sg17
(lp1226
sg19
(lp1227
sg21
I0
sba(iArchitecture
Entity
p1228
(dp1229
g11
(lp1230
sg13
S'services.audiopolicy.common.managerdefinitions.src.VolumeCurve.c'
p1231
sg15
(lp1232
sg17
(lp1233
sg19
(lp1234
sg21
I0
sba(iArchitecture
Entity
p1235
(dp1236
g11
(lp1237
sg13
S'services.audiopolicy.engine.interface.AudioPolicyManagerInterface.h'
p1238
sg15
(lp1239
sg17
(lp1240
sg19
(lp1241
sg21
I0
sba(iArchitecture
Entity
p1242
(dp1243
g11
(lp1244
sg13
S'services.audiopolicy.engine.interface.AudioPolicyManagerObserver.h'
p1245
sg15
(lp1246
sg17
(lp1247
sg19
(lp1248
sg21
I0
sba(iArchitecture
Entity
p1249
(dp1250
g11
(lp1251
sg13
S'services.audiopolicy.engineconfigurable.src.EngineInstance.c'
p1252
sg15
(lp1253
sg17
(lp1254
sg19
(lp1255
sg21
I0
sba(iArchitecture
Entity
p1256
(dp1257
g11
(lp1258
sg13
S'services.audiopolicy.enginedefault.src.Engine.c'
p1259
sg15
(lp1260
sg17
(lp1261
sg19
(lp1262
sg21
I0
sba(iArchitecture
Entity
p1263
(dp1264
g11
(lp1265
sg13
S'services.audiopolicy.enginedefault.src.EngineInstance.c'
p1266
sg15
(lp1267
sg17
(lp1268
sg19
(lp1269
sg21
I0
sba(iArchitecture
Entity
p1270
(dp1271
g11
(lp1272
sg13
S'services.audiopolicy.manager.AudioPolicyFactory.c'
p1273
sg15
(lp1274
sg17
(lp1275
sg19
(lp1276
sg21
I0
sba(iArchitecture
Entity
p1277
(dp1278
g11
(lp1279
sg13
S'services.audiopolicy.service.AudioPolicyClientImpl.c'
p1280
sg15
(lp1281
sg17
(lp1282
sg19
(lp1283
sg21
I0
sba(iArchitecture
Entity
p1284
(dp1285
g11
(lp1286
sg13
S'services.audiopolicy.service.AudioPolicyInterfaceImpl.c'
p1287
sg15
(lp1288
sg17
(lp1289
sg19
(lp1290
sg21
I0
sba(iArchitecture
Entity
p1291
(dp1292
g11
(lp1293
sg13
S'services.audiopolicy.service.AudioPolicyInterfaceImplLegacy.c'
p1294
sg15
(lp1295
sg17
(lp1296
sg19
(lp1297
sg21
I0
sba(iArchitecture
Entity
p1298
(dp1299
g11
(lp1300
sg13
S'services.audiopolicy.service.AudioPolicyService.c'
p1301
sg15
(lp1302
sg17
(lp1303
sg19
(lp1304
sg21
I0
sba(iArchitecture
Entity
p1305
(dp1306
g11
(lp1307
sg13
S'services.audiopolicy.service.AudioPolicyService.h'
p1308
sg15
(lp1309
sg17
(lp1310
sg19
(lp1311
sg21
I0
sbasg29
(lp1312
g944
ag951
ag958
ag965
ag972
ag979
ag986
ag993
ag1000
ag1007
ag1014
ag1021
ag1028
ag1035
ag1042
ag1049
ag1056
ag1063
ag1070
ag1077
ag1084
ag1091
ag1098
ag1105
ag1112
ag1119
ag1126
ag1133
ag1140
ag1147
ag1154
ag1161
ag1168
ag1175
ag1182
ag1189
ag1196
ag1203
ag1210
ag1217
ag1224
ag1231
ag1238
ag1245
ag1252
ag1259
ag1266
ag1273
ag1280
ag1287
ag1294
ag1301
ag1308
asg21
I0
sg31
S'services.audiopolicy.service.AudioPolicyService.ch'
p1313
sba(iArchitecture
Cluster
p1314
(dp1315
g7
(lp1316
(iArchitecture
Entity
p1317
(dp1318
g11
(lp1319
sg13
S'services.audiopolicy.engineconfigurable.parameter-framework.plugin.Stream.c'
p1320
sg15
(lp1321
sg17
(lp1322
sg19
(lp1323
sg21
I0
sba(iArchitecture
Entity
p1324
(dp1325
g11
(lp1326
sg13
S'services.audiopolicy.engineconfigurable.src.Stream.c'
p1327
sg15
(lp1328
sg17
(lp1329
sg19
(lp1330
sg21
I0
sbasg29
(lp1331
g1320
ag1327
asg21
I0
sg31
S'services.camera.libcameraservice.CameraService.ch'
p1332
sba(iArchitecture
Cluster
p1333
(dp1334
g7
(lp1335
(iArchitecture
Entity
p1336
(dp1337
g11
(lp1338
sg13
S'services.audiopolicy.common.managerdefinitions.src.AudioGain.c'
p1339
sg15
(lp1340
sg17
(lp1341
sg19
(lp1342
sg21
I0
sba(iArchitecture
Entity
p1343
(dp1344
g11
(lp1345
sg13
S'services.audiopolicy.common.managerdefinitions.src.AudioSession.c'
p1346
sg15
(lp1347
sg17
(lp1348
sg19
(lp1349
sg21
I0
sba(iArchitecture
Entity
p1350
(dp1351
g11
(lp1352
sg13
S'services.audiopolicy.common.managerdefinitions.src.Gains.c'
p1353
sg15
(lp1354
sg17
(lp1355
sg19
(lp1356
sg21
I0
sba(iArchitecture
Entity
p1357
(dp1358
g11
(lp1359
sg13
S'services.audiopolicy.common.managerdefinitions.src.TypeConverter.c'
p1360
sg15
(lp1361
sg17
(lp1362
sg19
(lp1363
sg21
I0
sba(iArchitecture
Entity
p1364
(dp1365
g11
(lp1366
sg13
S'services.audiopolicy.engineconfigurable.src.InputSource.c'
p1367
sg15
(lp1368
sg17
(lp1369
sg19
(lp1370
sg21
I0
sba(iArchitecture
Entity
p1371
(dp1372
g11
(lp1373
sg13
S'services.audiopolicy.engineconfigurable.src.Strategy.c'
p1374
sg15
(lp1375
sg17
(lp1376
sg19
(lp1377
sg21
I0
sba(iArchitecture
Entity
p1378
(dp1379
g11
(lp1380
sg13
S'services.audiopolicy.engineconfigurable.src.Usage.c'
p1381
sg15
(lp1382
sg17
(lp1383
sg19
(lp1384
sg21
I0
sbasg29
(lp1385
g1339
ag1346
ag1353
ag1360
ag1367
ag1374
ag1381
asg21
I0
sg31
S'services.soundtrigger.SoundTriggerHwService.ch'
p1386
sbasg637
g638
sg29
(lp1387
sg640
I00
sg31
S'7.0.0_r1'
p1388
sba.