(lp0
(iArchitecture
Architecture
p1
(dp2
S'clusters'
p3
(lp4
(iArchitecture
Cluster
p5
(dp6
S'entities'
p7
(lp8
(iArchitecture
Entity
p9
(dp10
S'issue_ids'
p11
(lp12
sS'name'
p13
S'drm.mediadrm.plugins.clearkey.AesCtrDecryptor.c'
p14
sS'descs'
p15
(lp16
sS'labels'
p17
(lp18
sS'titles'
p19
(lp20
sS'change'
p21
I0
sba(iArchitecture
Entity
p22
(dp23
g11
(lp24
sg13
S'drm.mediadrm.plugins.clearkey.AesCtrDecryptor.h'
p25
sg15
(lp26
sg17
(lp27
sg19
(lp28
sg21
I0
sbasS'classes'
p29
(lp30
g14
ag25
asg21
I0
sS'label'
p31
S'drm.mediadrm.plugins.clearkey.AesCtrDecryptor.ch'
p32
sba(iArchitecture
Cluster
p33
(dp34
g7
(lp35
(iArchitecture
Entity
p36
(dp37
g11
(lp38
sg13
S'drm.mediadrm.plugins.clearkey.ClearKeyUUID.c'
p39
sg15
(lp40
sg17
(lp41
sg19
(lp42
sg21
I0
sba(iArchitecture
Entity
p43
(dp44
g11
(lp45
sg13
S'drm.mediadrm.plugins.clearkey.ClearKeyUUID.h'
p46
sg15
(lp47
sg17
(lp48
sg19
(lp49
sg21
I0
sbasg29
(lp50
g39
ag46
asg21
I0
sg31
S'drm.mediadrm.plugins.clearkey.ClearKeyUUID.ch'
p51
sba(iArchitecture
Cluster
p52
(dp53
g7
(lp54
(iArchitecture
Entity
p55
(dp56
g11
(lp57
sg13
S'drm.mediadrm.plugins.clearkey.CreatePluginFactories.c'
p58
sg15
(lp59
sg17
(lp60
sg19
(lp61
sg21
I0
sba(iArchitecture
Entity
p62
(dp63
g11
(lp64
sg13
S'drm.mediadrm.plugins.clearkey.CreatePluginFactories.h'
p65
sg15
(lp66
sg17
(lp67
sg19
(lp68
sg21
I0
sbasg29
(lp69
g58
ag65
asg21
I0
sg31
S'drm.mediadrm.plugins.clearkey.CreatePluginFactories.ch'
p70
sba(iArchitecture
Cluster
p71
(dp72
g7
(lp73
(iArchitecture
Entity
p74
(dp75
g11
(lp76
sg13
S'drm.mediadrm.plugins.clearkey.CryptoFactory.c'
p77
sg15
(lp78
sg17
(lp79
sg19
(lp80
sg21
I0
sba(iArchitecture
Entity
p81
(dp82
g11
(lp83
sg13
S'drm.mediadrm.plugins.clearkey.CryptoFactory.h'
p84
sg15
(lp85
sg17
(lp86
sg19
(lp87
sg21
I0
sbasg29
(lp88
g77
ag84
asg21
I0
sg31
S'drm.mediadrm.plugins.clearkey.CryptoFactory.ch'
p89
sba(iArchitecture
Cluster
p90
(dp91
g7
(lp92
(iArchitecture
Entity
p93
(dp94
g11
(lp95
sg13
S'drm.mediadrm.plugins.clearkey.CryptoPlugin.c'
p96
sg15
(lp97
sg17
(lp98
sg19
(lp99
sg21
I0
sba(iArchitecture
Entity
p100
(dp101
g11
(lp102
sg13
S'drm.mediadrm.plugins.clearkey.CryptoPlugin.h'
p103
sg15
(lp104
sg17
(lp105
sg19
(lp106
sg21
I0
sbasg29
(lp107
g96
ag103
asg21
I0
sg31
S'drm.mediadrm.plugins.clearkey.CryptoPlugin.ch'
p108
sba(iArchitecture
Cluster
p109
(dp110
g7
(lp111
(iArchitecture
Entity
p112
(dp113
g11
(lp114
sg13
S'drm.mediadrm.plugins.clearkey.DrmFactory.c'
p115
sg15
(lp116
sg17
(lp117
sg19
(lp118
sg21
I0
sba(iArchitecture
Entity
p119
(dp120
g11
(lp121
sg13
S'drm.mediadrm.plugins.clearkey.DrmFactory.h'
p122
sg15
(lp123
sg17
(lp124
sg19
(lp125
sg21
I0
sbasg29
(lp126
g115
ag122
asg21
I0
sg31
S'drm.mediadrm.plugins.clearkey.DrmFactory.ch'
p127
sba(iArchitecture
Cluster
p128
(dp129
g7
(lp130
(iArchitecture
Entity
p131
(dp132
g11
(lp133
sg13
S'drm.mediadrm.plugins.clearkey.DrmPlugin.c'
p134
sg15
(lp135
sg17
(lp136
sg19
(lp137
sg21
I0
sba(iArchitecture
Entity
p138
(dp139
g11
(lp140
sg13
S'drm.mediadrm.plugins.clearkey.DrmPlugin.h'
p141
sg15
(lp142
sg17
(lp143
sg19
(lp144
sg21
I0
sbasg29
(lp145
g134
ag141
asg21
I0
sg31
S'drm.mediadrm.plugins.clearkey.DrmPlugin.ch'
p146
sba(iArchitecture
Cluster
p147
(dp148
g7
(lp149
(iArchitecture
Entity
p150
(dp151
g11
(lp152
sg13
S'drm.mediadrm.plugins.clearkey.InitDataParser.c'
p153
sg15
(lp154
sg17
(lp155
sg19
(lp156
sg21
I0
sba(iArchitecture
Entity
p157
(dp158
g11
(lp159
sg13
S'drm.mediadrm.plugins.clearkey.InitDataParser.h'
p160
sg15
(lp161
sg17
(lp162
sg19
(lp163
sg21
I0
sbasg29
(lp164
g153
ag160
asg21
I0
sg31
S'drm.mediadrm.plugins.clearkey.InitDataParser.ch'
p165
sba(iArchitecture
Cluster
p166
(dp167
g7
(lp168
(iArchitecture
Entity
p169
(dp170
g11
(lp171
sg13
S'drm.mediadrm.plugins.clearkey.JsonWebKey.c'
p172
sg15
(lp173
sg17
(lp174
sg19
(lp175
sg21
I0
sba(iArchitecture
Entity
p176
(dp177
g11
(lp178
sg13
S'drm.mediadrm.plugins.clearkey.JsonWebKey.h'
p179
sg15
(lp180
sg17
(lp181
sg19
(lp182
sg21
I0
sbasg29
(lp183
g172
ag179
asg21
I0
sg31
S'drm.mediadrm.plugins.clearkey.JsonWebKey.ch'
p184
sba(iArchitecture
Cluster
p185
(dp186
g7
(lp187
(iArchitecture
Entity
p188
(dp189
g11
(lp190
sg13
S'drm.mediadrm.plugins.clearkey.Session.c'
p191
sg15
(lp192
sg17
(lp193
sg19
(lp194
sg21
I0
sba(iArchitecture
Entity
p195
(dp196
g11
(lp197
sg13
S'drm.mediadrm.plugins.clearkey.Session.h'
p198
sg15
(lp199
sg17
(lp200
sg19
(lp201
sg21
I0
sbasg29
(lp202
g191
ag198
asg21
I0
sg31
S'drm.mediadrm.plugins.clearkey.Session.ch'
p203
sba(iArchitecture
Cluster
p204
(dp205
g7
(lp206
(iArchitecture
Entity
p207
(dp208
g11
(lp209
sg13
S'drm.mediadrm.plugins.clearkey.ClearKeyTypes.h'
p210
sg15
(lp211
sg17
(lp212
sg19
(lp213
sg21
I0
sba(iArchitecture
Entity
p214
(dp215
g11
(lp216
sg13
S'drm.mediadrm.plugins.clearkey.SessionLibrary.c'
p217
sg15
(lp218
sg17
(lp219
sg19
(lp220
sg21
I0
sba(iArchitecture
Entity
p221
(dp222
g11
(lp223
sg13
S'drm.mediadrm.plugins.clearkey.SessionLibrary.h'
p224
sg15
(lp225
sg17
(lp226
sg19
(lp227
sg21
I0
sbasg29
(lp228
g210
ag217
ag224
asg21
I0
sg31
S'drm.mediadrm.plugins.clearkey.SessionLibrary.ch'
p229
sba(iArchitecture
Cluster
p230
(dp231
g7
(lp232
(iArchitecture
Entity
p233
(dp234
g11
(lp235
sg13
S'drm.mediadrm.plugins.clearkey.Utils.c'
p236
sg15
(lp237
sg17
(lp238
sg19
(lp239
sg21
I0
sba(iArchitecture
Entity
p240
(dp241
g11
(lp242
sg13
S'drm.mediadrm.plugins.clearkey.Utils.h'
p243
sg15
(lp244
sg17
(lp245
sg19
(lp246
sg21
I0
sbasg29
(lp247
g236
ag243
asg21
I0
sg31
S'drm.mediadrm.plugins.clearkey.Utils.ch'
p248
sba(iArchitecture
Cluster
p249
(dp250
g7
(lp251
(iArchitecture
Entity
p252
(dp253
g11
(lp254
sg13
S'drm.mediadrm.plugins.mock.MockDrmCryptoPlugin.c'
p255
sg15
(lp256
sg17
(lp257
sg19
(lp258
sg21
I0
sba(iArchitecture
Entity
p259
(dp260
g11
(lp261
sg13
S'drm.mediadrm.plugins.mock.MockDrmCryptoPlugin.h'
p262
sg15
(lp263
sg17
(lp264
sg19
(lp265
sg21
I0
sbasg29
(lp266
g255
ag262
asg21
I0
sg31
S'drm.mediadrm.plugins.mock.MockDrmCryptoPlugin.ch'
p267
sba(iArchitecture
Cluster
p268
(dp269
g7
(lp270
(iArchitecture
Entity
p271
(dp272
g11
(lp273
sg13
S'drm.mediadrm.plugins.clearkey.tests.AesCtrDecryptorUnittest.c'
p274
sg15
(lp275
sg17
(lp276
sg19
(lp277
sg21
I0
sba(iArchitecture
Entity
p278
(dp279
g11
(lp280
sg13
S'drm.mediadrm.plugins.clearkey.tests.JsonWebKeyUnittest.c'
p281
sg15
(lp282
sg17
(lp283
sg19
(lp284
sg21
I0
sbasg29
(lp285
g274
ag281
asg21
I0
sg31
S'services.mediaresourcemanager.ResourceManagerService.ch'
p286
sba(iArchitecture
Cluster
p287
(dp288
g7
(lp289
(iArchitecture
Entity
p290
(dp291
g11
(lp292
sg13
S'drm.mediadrm.plugins.clearkey.tests.InitDataParserUnittest.c'
p293
sg15
(lp294
sg17
(lp295
sg19
(lp296
sg21
I0
sbasg29
(lp297
g293
asg21
I0
sg31
S'services.soundtrigger.SoundTriggerHwService.ch'
p298
sbasS'target_sub'
p299
S'drm.mediadrm'
p300
sg29
(lp301
sS'is_component_arch'
p302
I00
sg31
S'6.0.0_r1'
p303
sba(iArchitecture
Architecture
p304
(dp305
g3
(lp306
(iArchitecture
Cluster
p307
(dp308
g7
(lp309
(iArchitecture
Entity
p310
(dp311
g11
(lp312
sg13
S'drm.mediadrm.plugins.clearkey.AesCtrDecryptor.c'
p313
sg15
(lp314
sg17
(lp315
sg19
(lp316
sg21
I0
sba(iArchitecture
Entity
p317
(dp318
g11
(lp319
sg13
S'drm.mediadrm.plugins.clearkey.AesCtrDecryptor.h'
p320
sg15
(lp321
sg17
(lp322
sg19
(lp323
sg21
I0
sbasg29
(lp324
g313
ag320
asg21
I0
sg31
S'drm.mediadrm.plugins.clearkey.AesCtrDecryptor.ch'
p325
sba(iArchitecture
Cluster
p326
(dp327
g7
(lp328
(iArchitecture
Entity
p329
(dp330
g11
(lp331
sg13
S'drm.mediadrm.plugins.clearkey.ClearKeyUUID.c'
p332
sg15
(lp333
sg17
(lp334
sg19
(lp335
sg21
I0
sba(iArchitecture
Entity
p336
(dp337
g11
(lp338
sg13
S'drm.mediadrm.plugins.clearkey.ClearKeyUUID.h'
p339
sg15
(lp340
sg17
(lp341
sg19
(lp342
sg21
I0
sbasg29
(lp343
g332
ag339
asg21
I0
sg31
S'drm.mediadrm.plugins.clearkey.ClearKeyUUID.ch'
p344
sba(iArchitecture
Cluster
p345
(dp346
g7
(lp347
(iArchitecture
Entity
p348
(dp349
g11
(lp350
sg13
S'drm.mediadrm.plugins.clearkey.CreatePluginFactories.c'
p351
sg15
(lp352
sg17
(lp353
sg19
(lp354
sg21
I0
sba(iArchitecture
Entity
p355
(dp356
g11
(lp357
sg13
S'drm.mediadrm.plugins.clearkey.CreatePluginFactories.h'
p358
sg15
(lp359
sg17
(lp360
sg19
(lp361
sg21
I0
sbasg29
(lp362
g351
ag358
asg21
I0
sg31
S'drm.mediadrm.plugins.clearkey.CreatePluginFactories.ch'
p363
sba(iArchitecture
Cluster
p364
(dp365
g7
(lp366
(iArchitecture
Entity
p367
(dp368
g11
(lp369
sg13
S'drm.mediadrm.plugins.clearkey.CryptoFactory.c'
p370
sg15
(lp371
sg17
(lp372
sg19
(lp373
sg21
I0
sba(iArchitecture
Entity
p374
(dp375
g11
(lp376
sg13
S'drm.mediadrm.plugins.clearkey.CryptoFactory.h'
p377
sg15
(lp378
sg17
(lp379
sg19
(lp380
sg21
I0
sbasg29
(lp381
g370
ag377
asg21
I0
sg31
S'drm.mediadrm.plugins.clearkey.CryptoFactory.ch'
p382
sba(iArchitecture
Cluster
p383
(dp384
g7
(lp385
(iArchitecture
Entity
p386
(dp387
g11
(lp388
sg13
S'drm.mediadrm.plugins.clearkey.CryptoPlugin.c'
p389
sg15
(lp390
sg17
(lp391
sg19
(lp392
sg21
I0
sba(iArchitecture
Entity
p393
(dp394
g11
(lp395
sg13
S'drm.mediadrm.plugins.clearkey.CryptoPlugin.h'
p396
sg15
(lp397
sg17
(lp398
sg19
(lp399
sg21
I0
sbasg29
(lp400
g389
ag396
asg21
I0
sg31
S'drm.mediadrm.plugins.clearkey.CryptoPlugin.ch'
p401
sba(iArchitecture
Cluster
p402
(dp403
g7
(lp404
(iArchitecture
Entity
p405
(dp406
g11
(lp407
sg13
S'drm.mediadrm.plugins.clearkey.DrmFactory.c'
p408
sg15
(lp409
sg17
(lp410
sg19
(lp411
sg21
I0
sba(iArchitecture
Entity
p412
(dp413
g11
(lp414
sg13
S'drm.mediadrm.plugins.clearkey.DrmFactory.h'
p415
sg15
(lp416
sg17
(lp417
sg19
(lp418
sg21
I0
sbasg29
(lp419
g408
ag415
asg21
I0
sg31
S'drm.mediadrm.plugins.clearkey.DrmFactory.ch'
p420
sba(iArchitecture
Cluster
p421
(dp422
g7
(lp423
(iArchitecture
Entity
p424
(dp425
g11
(lp426
sg13
S'drm.mediadrm.plugins.clearkey.DrmPlugin.c'
p427
sg15
(lp428
sg17
(lp429
sg19
(lp430
sg21
I0
sba(iArchitecture
Entity
p431
(dp432
g11
(lp433
sg13
S'drm.mediadrm.plugins.clearkey.DrmPlugin.h'
p434
sg15
(lp435
sg17
(lp436
sg19
(lp437
sg21
I0
sbasg29
(lp438
g427
ag434
asg21
I0
sg31
S'drm.mediadrm.plugins.clearkey.DrmPlugin.ch'
p439
sba(iArchitecture
Cluster
p440
(dp441
g7
(lp442
(iArchitecture
Entity
p443
(dp444
g11
(lp445
sg13
S'drm.mediadrm.plugins.clearkey.InitDataParser.c'
p446
sg15
(lp447
sg17
(lp448
sg19
(lp449
sg21
I0
sba(iArchitecture
Entity
p450
(dp451
g11
(lp452
sg13
S'drm.mediadrm.plugins.clearkey.InitDataParser.h'
p453
sg15
(lp454
sg17
(lp455
sg19
(lp456
sg21
I0
sbasg29
(lp457
g446
ag453
asg21
I0
sg31
S'drm.mediadrm.plugins.clearkey.InitDataParser.ch'
p458
sba(iArchitecture
Cluster
p459
(dp460
g7
(lp461
(iArchitecture
Entity
p462
(dp463
g11
(lp464
sg13
S'drm.mediadrm.plugins.clearkey.JsonWebKey.c'
p465
sg15
(lp466
sg17
(lp467
sg19
(lp468
sg21
I0
sba(iArchitecture
Entity
p469
(dp470
g11
(lp471
sg13
S'drm.mediadrm.plugins.clearkey.JsonWebKey.h'
p472
sg15
(lp473
sg17
(lp474
sg19
(lp475
sg21
I0
sbasg29
(lp476
g465
ag472
asg21
I0
sg31
S'drm.mediadrm.plugins.clearkey.JsonWebKey.ch'
p477
sba(iArchitecture
Cluster
p478
(dp479
g7
(lp480
(iArchitecture
Entity
p481
(dp482
g11
(lp483
sg13
S'drm.mediadrm.plugins.clearkey.Session.c'
p484
sg15
(lp485
sg17
(lp486
sg19
(lp487
sg21
I0
sba(iArchitecture
Entity
p488
(dp489
g11
(lp490
sg13
S'drm.mediadrm.plugins.clearkey.Session.h'
p491
sg15
(lp492
sg17
(lp493
sg19
(lp494
sg21
I0
sbasg29
(lp495
g484
ag491
asg21
I0
sg31
S'drm.mediadrm.plugins.clearkey.Session.ch'
p496
sba(iArchitecture
Cluster
p497
(dp498
g7
(lp499
(iArchitecture
Entity
p500
(dp501
g11
(lp502
sg13
S'drm.mediadrm.plugins.clearkey.ClearKeyTypes.h'
p503
sg15
(lp504
sg17
(lp505
sg19
(lp506
sg21
I0
sba(iArchitecture
Entity
p507
(dp508
g11
(lp509
sg13
S'drm.mediadrm.plugins.clearkey.SessionLibrary.c'
p510
sg15
(lp511
sg17
(lp512
sg19
(lp513
sg21
I0
sba(iArchitecture
Entity
p514
(dp515
g11
(lp516
sg13
S'drm.mediadrm.plugins.clearkey.SessionLibrary.h'
p517
sg15
(lp518
sg17
(lp519
sg19
(lp520
sg21
I0
sbasg29
(lp521
g503
ag510
ag517
asg21
I0
sg31
S'drm.mediadrm.plugins.clearkey.SessionLibrary.ch'
p522
sba(iArchitecture
Cluster
p523
(dp524
g7
(lp525
(iArchitecture
Entity
p526
(dp527
g11
(lp528
sg13
S'drm.mediadrm.plugins.clearkey.Utils.c'
p529
sg15
(lp530
sg17
(lp531
sg19
(lp532
sg21
I0
sba(iArchitecture
Entity
p533
(dp534
g11
(lp535
sg13
S'drm.mediadrm.plugins.clearkey.Utils.h'
p536
sg15
(lp537
sg17
(lp538
sg19
(lp539
sg21
I0
sbasg29
(lp540
g529
ag536
asg21
I0
sg31
S'drm.mediadrm.plugins.clearkey.Utils.ch'
p541
sba(iArchitecture
Cluster
p542
(dp543
g7
(lp544
(iArchitecture
Entity
p545
(dp546
g11
(lp547
sg13
S'drm.mediadrm.plugins.mock.MockDrmCryptoPlugin.c'
p548
sg15
(lp549
sg17
(lp550
sg19
(lp551
sg21
I0
sba(iArchitecture
Entity
p552
(dp553
g11
(lp554
sg13
S'drm.mediadrm.plugins.mock.MockDrmCryptoPlugin.h'
p555
sg15
(lp556
sg17
(lp557
sg19
(lp558
sg21
I0
sbasg29
(lp559
g548
ag555
asg21
I0
sg31
S'drm.mediadrm.plugins.mock.MockDrmCryptoPlugin.ch'
p560
sba(iArchitecture
Cluster
p561
(dp562
g7
(lp563
(iArchitecture
Entity
p564
(dp565
g11
(lp566
sg13
S'drm.mediadrm.plugins.clearkey.tests.AesCtrDecryptorUnittest.c'
p567
sg15
(lp568
sg17
(lp569
sg19
(lp570
sg21
I0
sba(iArchitecture
Entity
p571
(dp572
g11
(lp573
sg13
S'drm.mediadrm.plugins.clearkey.tests.JsonWebKeyUnittest.c'
p574
sg15
(lp575
sg17
(lp576
sg19
(lp577
sg21
I0
sbasg29
(lp578
g567
ag574
asg21
I0
sg31
S'services.mediaresourcemanager.ResourceManagerService.ch'
p579
sba(iArchitecture
Cluster
p580
(dp581
g7
(lp582
(iArchitecture
Entity
p583
(dp584
g11
(lp585
sg13
S'drm.mediadrm.plugins.clearkey.tests.InitDataParserUnittest.c'
p586
sg15
(lp587
sg17
(lp588
sg19
(lp589
sg21
I0
sbasg29
(lp590
g586
asg21
I0
sg31
S'services.soundtrigger.SoundTriggerHwService.ch'
p591
sbasg299
g300
sg29
(lp592
sg302
I00
sg31
S'7.0.0_r1'
p593
sba.