(lp0
(iArchitecture
Architecture
p1
(dp2
S'clusters'
p3
(lp4
sS'target_sub'
p5
S'camera.ndk'
p6
sS'classes'
p7
(lp8
sS'is_component_arch'
p9
I00
sS'label'
p10
S'6.0.0_r1'
p11
sba(iArchitecture
Architecture
p12
(dp13
g3
(lp14
(iArchitecture
Cluster
p15
(dp16
S'entities'
p17
(lp18
(iArchitecture
Entity
p19
(dp20
S'issue_ids'
p21
(lp22
sS'name'
p23
S'camera.ndk.NdkCameraManager.c'
p24
sS'descs'
p25
(lp26
sS'labels'
p27
(lp28
sS'titles'
p29
(lp30
sS'change'
p31
I0
sba(iArchitecture
Entity
p32
(dp33
g21
(lp34
sg23
S'include.camera.ndk.NdkCameraManager.h'
p35
sg25
(lp36
sg27
(lp37
sg29
(lp38
sg31
I0
sbasg7
(lp39
g24
ag35
asg31
I0
sg10
S'camera.ndk.NdkCameraManager.ss'
p40
sba(iArchitecture
Cluster
p41
(dp42
g17
(lp43
(iArchitecture
Entity
p44
(dp45
g21
(lp46
sg23
S'camera.ndk.NdkCaptureRequest.c'
p47
sg25
(lp48
sg27
(lp49
sg29
(lp50
sg31
I0
sba(iArchitecture
Entity
p51
(dp52
g21
(lp53
sg23
S'camera.ndk.impl.ACaptureRequest.h'
p54
sg25
(lp55
sg27
(lp56
sg29
(lp57
sg31
I0
sbasg7
(lp58
g47
ag54
asg31
I0
sg10
S'camera.ndk.NdkCaptureRequest.ss'
p59
sba(iArchitecture
Cluster
p60
(dp61
g17
(lp62
(iArchitecture
Entity
p63
(dp64
g21
(lp65
sg23
S'camera.ndk.impl.ACameraCaptureSession.c'
p66
sg25
(lp67
sg27
(lp68
sg29
(lp69
sg31
I0
sba(iArchitecture
Entity
p70
(dp71
g21
(lp72
sg23
S'camera.ndk.impl.ACameraCaptureSession.h'
p73
sg25
(lp74
sg27
(lp75
sg29
(lp76
sg31
I0
sbasg7
(lp77
g66
ag73
asg31
I0
sg10
S'camera.ndk.impl.ACameraCaptureSession.ch'
p78
sba(iArchitecture
Cluster
p79
(dp80
g17
(lp81
(iArchitecture
Entity
p82
(dp83
g21
(lp84
sg23
S'camera.ndk.impl.ACameraDevice.c'
p85
sg25
(lp86
sg27
(lp87
sg29
(lp88
sg31
I0
sba(iArchitecture
Entity
p89
(dp90
g21
(lp91
sg23
S'camera.ndk.impl.ACameraDevice.h'
p92
sg25
(lp93
sg27
(lp94
sg29
(lp95
sg31
I0
sbasg7
(lp96
g85
ag92
asg31
I0
sg10
S'camera.ndk.impl.ACameraDevice.ch'
p97
sba(iArchitecture
Cluster
p98
(dp99
g17
(lp100
(iArchitecture
Entity
p101
(dp102
g21
(lp103
sg23
S'camera.ndk.impl.ACameraManager.c'
p104
sg25
(lp105
sg27
(lp106
sg29
(lp107
sg31
I0
sba(iArchitecture
Entity
p108
(dp109
g21
(lp110
sg23
S'camera.ndk.impl.ACameraManager.h'
p111
sg25
(lp112
sg27
(lp113
sg29
(lp114
sg31
I0
sba(iArchitecture
Entity
p115
(dp116
g21
(lp117
sg23
S'include.camera.ndk.NdkCameraCaptureSession.h'
p118
sg25
(lp119
sg27
(lp120
sg29
(lp121
sg31
I0
sba(iArchitecture
Entity
p122
(dp123
g21
(lp124
sg23
S'include.camera.ndk.NdkCameraDevice.h'
p125
sg25
(lp126
sg27
(lp127
sg29
(lp128
sg31
I0
sba(iArchitecture
Entity
p129
(dp130
g21
(lp131
sg23
S'include.camera.ndk.NdkCaptureRequest.h'
p132
sg25
(lp133
sg27
(lp134
sg29
(lp135
sg31
I0
sbasg7
(lp136
g104
ag111
ag118
ag125
ag132
asg31
I0
sg10
S'camera.ndk.impl.ACameraManager.ch'
p137
sba(iArchitecture
Cluster
p138
(dp139
g17
(lp140
(iArchitecture
Entity
p141
(dp142
g21
(lp143
sg23
S'camera.ndk.NdkCameraCaptureSession.c'
p144
sg25
(lp145
sg27
(lp146
sg29
(lp147
sg31
I0
sba(iArchitecture
Entity
p148
(dp149
g21
(lp150
sg23
S'camera.ndk.NdkCameraDevice.c'
p151
sg25
(lp152
sg27
(lp153
sg29
(lp154
sg31
I0
sba(iArchitecture
Entity
p155
(dp156
g21
(lp157
sg23
S'camera.ndk.NdkCameraMetadata.c'
p158
sg25
(lp159
sg27
(lp160
sg29
(lp161
sg31
I0
sba(iArchitecture
Entity
p162
(dp163
g21
(lp164
sg23
S'camera.ndk.impl.ACameraMetadata.c'
p165
sg25
(lp166
sg27
(lp167
sg29
(lp168
sg31
I0
sba(iArchitecture
Entity
p169
(dp170
g21
(lp171
sg23
S'camera.ndk.impl.ACameraMetadata.h'
p172
sg25
(lp173
sg27
(lp174
sg29
(lp175
sg31
I0
sba(iArchitecture
Entity
p176
(dp177
g21
(lp178
sg23
S'include.camera.ndk.NdkCameraError.h'
p179
sg25
(lp180
sg27
(lp181
sg29
(lp182
sg31
I0
sba(iArchitecture
Entity
p183
(dp184
g21
(lp185
sg23
S'include.camera.ndk.NdkCameraMetadata.h'
p186
sg25
(lp187
sg27
(lp188
sg29
(lp189
sg31
I0
sba(iArchitecture
Entity
p190
(dp191
g21
(lp192
sg23
S'include.camera.ndk.NdkCameraMetadataTags.h'
p193
sg25
(lp194
sg27
(lp195
sg29
(lp196
sg31
I0
sbasg7
(lp197
g144
ag151
ag158
ag165
ag172
ag179
ag186
ag193
asg31
I0
sg10
S'camera.ndk.impl.ACameraMetadata.ch'
p198
sbasg5
g6
sg7
(lp199
sg9
I00
sg10
S'7.0.0_r1'
p200
sba.