(lp0
(iArchitecture
Architecture
p1
(dp2
S'clusters'
p3
(lp4
(iArchitecture
Cluster
p5
(dp6
S'entities'
p7
(lp8
(iArchitecture
Entity
p9
(dp10
S'issue_ids'
p11
(lp12
sS'name'
p13
S'android.net.wifi.WifiEnterpriseConfig'
p14
sS'descs'
p15
(lp16
sS'labels'
p17
(lp18
sS'titles'
p19
(lp20
sS'change'
p21
I0
sba(iArchitecture
Entity
p22
(dp23
g11
(lp24
sg13
S'android.net.wifi.WifiEnterpriseConfig$1'
p25
sg15
(lp26
sg17
(lp27
sg19
(lp28
sg21
I0
sba(iArchitecture
Entity
p29
(dp30
g11
(lp31
sg13
S'android.net.wifi.WifiEnterpriseConfig$Eap'
p32
sg15
(lp33
sg17
(lp34
sg19
(lp35
sg21
I0
sba(iArchitecture
Entity
p36
(dp37
g11
(lp38
sg13
S'android.net.wifi.WifiEnterpriseConfig$Phase2'
p39
sg15
(lp40
sg17
(lp41
sg19
(lp42
sg21
I0
sba(iArchitecture
Entity
p43
(dp44
g11
(lp45
sg13
S'android.net.wifi.WifiEnterpriseConfig$SupplicantLoader'
p46
sg15
(lp47
sg17
(lp48
sg19
(lp49
sg21
I0
sba(iArchitecture
Entity
p50
(dp51
g11
(lp52
sg13
S'android.net.wifi.WifiEnterpriseConfig$SupplicantSaver'
p53
sg15
(lp54
sg17
(lp55
sg19
(lp56
sg21
I0
sbasS'classes'
p57
(lp58
g14
ag25
ag32
ag39
ag46
ag53
asg21
I0
sS'label'
p59
S'1084'
p60
sba(iArchitecture
Cluster
p61
(dp62
g7
(lp63
(iArchitecture
Entity
p64
(dp65
g11
(lp66
sg13
S'android.widget.ActivityChooserModel'
p67
sg15
(lp68
sg17
(lp69
sg19
(lp70
sg21
I0
sba(iArchitecture
Entity
p71
(dp72
g11
(lp73
sg13
S'android.widget.ActivityChooserModel$ActivityChooserModelClient'
p74
sg15
(lp75
sg17
(lp76
sg19
(lp77
sg21
I0
sba(iArchitecture
Entity
p78
(dp79
g11
(lp80
sg13
S'android.widget.ActivityChooserModel$ActivityResolveInfo'
p81
sg15
(lp82
sg17
(lp83
sg19
(lp84
sg21
I0
sba(iArchitecture
Entity
p85
(dp86
g11
(lp87
sg13
S'android.widget.ActivityChooserModel$ActivitySorter'
p88
sg15
(lp89
sg17
(lp90
sg19
(lp91
sg21
I0
sba(iArchitecture
Entity
p92
(dp93
g11
(lp94
sg13
S'android.widget.ActivityChooserModel$DataModelPackageMonitor'
p95
sg15
(lp96
sg17
(lp97
sg19
(lp98
sg21
I0
sba(iArchitecture
Entity
p99
(dp100
g11
(lp101
sg13
S'android.widget.ActivityChooserModel$DefaultSorter'
p102
sg15
(lp103
sg17
(lp104
sg19
(lp105
sg21
I0
sba(iArchitecture
Entity
p106
(dp107
g11
(lp108
sg13
S'android.widget.ActivityChooserModel$HistoricalRecord'
p109
sg15
(lp110
sg17
(lp111
sg19
(lp112
sg21
I0
sba(iArchitecture
Entity
p113
(dp114
g11
(lp115
sg13
S'android.widget.ActivityChooserModel$OnChooseActivityListener'
p116
sg15
(lp117
sg17
(lp118
sg19
(lp119
sg21
I0
sba(iArchitecture
Entity
p120
(dp121
g11
(lp122
sg13
S'android.widget.ActivityChooserModel$PersistHistoryAsyncTask'
p123
sg15
(lp124
sg17
(lp125
sg19
(lp126
sg21
I0
sbasg57
(lp127
g67
ag74
ag81
ag88
ag95
ag102
ag109
ag116
ag123
asg21
I0
sg59
S'1184'
p128
sba(iArchitecture
Cluster
p129
(dp130
g7
(lp131
(iArchitecture
Entity
p132
(dp133
g11
(lp134
sg13
S'android.content.res.ColorStateList'
p135
sg15
(lp136
sg17
(lp137
sg19
(lp138
sg21
I0
sba(iArchitecture
Entity
p139
(dp140
g11
(lp141
sg13
S'android.content.res.ColorStateList$1'
p142
sg15
(lp143
sg17
(lp144
sg19
(lp145
sg21
I0
sba(iArchitecture
Entity
p146
(dp147
g11
(lp148
sg13
S'android.content.res.ColorStateList$ColorStateListFactory'
p149
sg15
(lp150
sg17
(lp151
sg19
(lp152
sg21
I0
sba(iArchitecture
Entity
p153
(dp154
g11
(lp155
sg13
S'android.content.res.GradientColor'
p156
sg15
(lp157
sg17
(lp158
sg19
(lp159
sg21
I0
sba(iArchitecture
Entity
p160
(dp161
g11
(lp162
sg13
S'android.content.res.GradientColor$GradientColorFactory'
p163
sg15
(lp164
sg17
(lp165
sg19
(lp166
sg21
I0
sbasg57
(lp167
g135
ag142
ag149
ag156
ag163
asg21
I0
sg59
S'1284'
p168
sba(iArchitecture
Cluster
p169
(dp170
g7
(lp171
(iArchitecture
Entity
p172
(dp173
g11
(lp174
sg13
S'android.animation.FloatArrayEvaluator'
p175
sg15
(lp176
sg17
(lp177
sg19
(lp178
sg21
I0
sba(iArchitecture
Entity
p179
(dp180
g11
(lp181
sg13
S'android.animation.IntArrayEvaluator'
p182
sg15
(lp183
sg17
(lp184
sg19
(lp185
sg21
I0
sba(iArchitecture
Entity
p186
(dp187
g11
(lp188
sg13
S'android.animation.RectEvaluator'
p189
sg15
(lp190
sg17
(lp191
sg19
(lp192
sg21
I0
sba(iArchitecture
Entity
p193
(dp194
g11
(lp195
sg13
S'android.app.ActivityManagerInternal'
p196
sg15
(lp197
sg17
(lp198
sg19
(lp199
sg21
I0
sba(iArchitecture
Entity
p200
(dp201
g11
(lp202
sg13
S'android.app.ActivityManagerInternal$SleepToken'
p203
sg15
(lp204
sg17
(lp205
sg19
(lp206
sg21
I0
sba(iArchitecture
Entity
p207
(dp208
g11
(lp209
sg13
S'android.app.JobSchedulerImpl'
p210
sg15
(lp211
sg17
(lp212
sg19
(lp213
sg21
I0
sba(iArchitecture
Entity
p214
(dp215
g11
(lp216
sg13
S'android.app.ProfilerInfo'
p217
sg15
(lp218
sg17
(lp219
sg19
(lp220
sg21
I0
sba(iArchitecture
Entity
p221
(dp222
g11
(lp223
sg13
S'android.app.ProfilerInfo$1'
p224
sg15
(lp225
sg17
(lp226
sg19
(lp227
sg21
I0
sba(iArchitecture
Entity
p228
(dp229
g11
(lp230
sg13
S'android.app.ResultInfo'
p231
sg15
(lp232
sg17
(lp233
sg19
(lp234
sg21
I0
sba(iArchitecture
Entity
p235
(dp236
g11
(lp237
sg13
S'android.app.ResultInfo$1'
p238
sg15
(lp239
sg17
(lp240
sg19
(lp241
sg21
I0
sba(iArchitecture
Entity
p242
(dp243
g11
(lp244
sg13
S'android.app.admin.DevicePolicyManagerInternal'
p245
sg15
(lp246
sg17
(lp247
sg19
(lp248
sg21
I0
sba(iArchitecture
Entity
p249
(dp250
g11
(lp251
sg13
S'android.app.admin.DevicePolicyManagerInternal$OnCrossProfileWidgetProvidersChangeListener'
p252
sg15
(lp253
sg17
(lp254
sg19
(lp255
sg21
I0
sba(iArchitecture
Entity
p256
(dp257
g11
(lp258
sg13
S'android.app.backup.RestoreDescription'
p259
sg15
(lp260
sg17
(lp261
sg19
(lp262
sg21
I0
sba(iArchitecture
Entity
p263
(dp264
g11
(lp265
sg13
S'android.app.backup.RestoreDescription$1'
p266
sg15
(lp267
sg17
(lp268
sg19
(lp269
sg21
I0
sba(iArchitecture
Entity
p270
(dp271
g11
(lp272
sg13
S'android.app.backup.RestoreObserver'
p273
sg15
(lp274
sg17
(lp275
sg19
(lp276
sg21
I0
sba(iArchitecture
Entity
p277
(dp278
g11
(lp279
sg13
S'android.app.backup.RestoreSet'
p280
sg15
(lp281
sg17
(lp282
sg19
(lp283
sg21
I0
sba(iArchitecture
Entity
p284
(dp285
g11
(lp286
sg13
S'android.app.backup.RestoreSet$1'
p287
sg15
(lp288
sg17
(lp289
sg19
(lp290
sg21
I0
sba(iArchitecture
Entity
p291
(dp292
g11
(lp293
sg13
S'android.bluetooth.BluetoothMasInstance'
p294
sg15
(lp295
sg17
(lp296
sg19
(lp297
sg21
I0
sba(iArchitecture
Entity
p298
(dp299
g11
(lp300
sg13
S'android.bluetooth.BluetoothMasInstance$1'
p301
sg15
(lp302
sg17
(lp303
sg19
(lp304
sg21
I0
sba(iArchitecture
Entity
p305
(dp306
g11
(lp307
sg13
S'android.bluetooth.BluetoothMasInstance$MessageType'
p308
sg15
(lp309
sg17
(lp310
sg19
(lp311
sg21
I0
sba(iArchitecture
Entity
p312
(dp313
g11
(lp314
sg13
S'android.bluetooth.SdpRecord'
p315
sg15
(lp316
sg17
(lp317
sg19
(lp318
sg21
I0
sba(iArchitecture
Entity
p319
(dp320
g11
(lp321
sg13
S'android.bluetooth.SdpRecord$1'
p322
sg15
(lp323
sg17
(lp324
sg19
(lp325
sg21
I0
sba(iArchitecture
Entity
p326
(dp327
g11
(lp328
sg13
S'android.bluetooth.le.ResultStorageDescriptor'
p329
sg15
(lp330
sg17
(lp331
sg19
(lp332
sg21
I0
sba(iArchitecture
Entity
p333
(dp334
g11
(lp335
sg13
S'android.bluetooth.le.ResultStorageDescriptor$1'
p336
sg15
(lp337
sg17
(lp338
sg19
(lp339
sg21
I0
sba(iArchitecture
Entity
p340
(dp341
g11
(lp342
sg13
S'android.content.ComponentCallbacks'
p343
sg15
(lp344
sg17
(lp345
sg19
(lp346
sg21
I0
sba(iArchitecture
Entity
p347
(dp348
g11
(lp349
sg13
S'android.content.ContentProviderResult'
p350
sg15
(lp351
sg17
(lp352
sg19
(lp353
sg21
I0
sba(iArchitecture
Entity
p354
(dp355
g11
(lp356
sg13
S'android.content.ContentProviderResult$1'
p357
sg15
(lp358
sg17
(lp359
sg19
(lp360
sg21
I0
sba(iArchitecture
Entity
p361
(dp362
g11
(lp363
sg13
S'android.content.ContentQueryMap'
p364
sg15
(lp365
sg17
(lp366
sg19
(lp367
sg21
I0
sba(iArchitecture
Entity
p368
(dp369
g11
(lp370
sg13
S'android.content.ContentQueryMap$1'
p371
sg15
(lp372
sg17
(lp373
sg19
(lp374
sg21
I0
sba(iArchitecture
Entity
p375
(dp376
g11
(lp377
sg13
S'android.content.ContentUris'
p378
sg15
(lp379
sg17
(lp380
sg19
(lp381
sg21
I0
sba(iArchitecture
Entity
p382
(dp383
g11
(lp384
sg13
S'android.content.Entity'
p385
sg15
(lp386
sg17
(lp387
sg19
(lp388
sg21
I0
sba(iArchitecture
Entity
p389
(dp390
g11
(lp391
sg13
S'android.content.Entity$NamedContentValues'
p392
sg15
(lp393
sg17
(lp394
sg19
(lp395
sg21
I0
sba(iArchitecture
Entity
p396
(dp397
g11
(lp398
sg13
S'android.content.OperationApplicationException'
p399
sg15
(lp400
sg17
(lp401
sg19
(lp402
sg21
I0
sba(iArchitecture
Entity
p403
(dp404
g11
(lp405
sg13
S'android.content.UndoOperation'
p406
sg15
(lp407
sg17
(lp408
sg19
(lp409
sg21
I0
sba(iArchitecture
Entity
p410
(dp411
g11
(lp412
sg13
S'android.content.pm.FeatureInfo'
p413
sg15
(lp414
sg17
(lp415
sg19
(lp416
sg21
I0
sba(iArchitecture
Entity
p417
(dp418
g11
(lp419
sg13
S'android.content.pm.FeatureInfo$1'
p420
sg15
(lp421
sg17
(lp422
sg19
(lp423
sg21
I0
sba(iArchitecture
Entity
p424
(dp425
g11
(lp426
sg13
S'android.content.pm.KeySet'
p427
sg15
(lp428
sg17
(lp429
sg19
(lp430
sg21
I0
sba(iArchitecture
Entity
p431
(dp432
g11
(lp433
sg13
S'android.content.pm.KeySet$1'
p434
sg15
(lp435
sg17
(lp436
sg19
(lp437
sg21
I0
sba(iArchitecture
Entity
p438
(dp439
g11
(lp440
sg13
S'android.content.pm.PackageCleanItem'
p441
sg15
(lp442
sg17
(lp443
sg19
(lp444
sg21
I0
sba(iArchitecture
Entity
p445
(dp446
g11
(lp447
sg13
S'android.content.pm.PackageCleanItem$1'
p448
sg15
(lp449
sg17
(lp450
sg19
(lp451
sg21
I0
sba(iArchitecture
Entity
p452
(dp453
g11
(lp454
sg13
S'android.content.pm.VerifierInfo'
p455
sg15
(lp456
sg17
(lp457
sg19
(lp458
sg21
I0
sba(iArchitecture
Entity
p459
(dp460
g11
(lp461
sg13
S'android.content.pm.VerifierInfo$1'
p462
sg15
(lp463
sg17
(lp464
sg19
(lp465
sg21
I0
sba(iArchitecture
Entity
p466
(dp467
g11
(lp468
sg13
S'android.content.pm.permission.RuntimePermissionPresenter'
p469
sg15
(lp470
sg17
(lp471
sg19
(lp472
sg21
I0
sba(iArchitecture
Entity
p473
(dp474
g11
(lp475
sg13
S'android.content.pm.permission.RuntimePermissionPresenter$OnResultCallback'
p476
sg15
(lp477
sg17
(lp478
sg19
(lp479
sg21
I0
sba(iArchitecture
Entity
p480
(dp481
g11
(lp482
sg13
S'android.content.pm.permission.RuntimePermissionPresenter$RemoteService'
p483
sg15
(lp484
sg17
(lp485
sg19
(lp486
sg21
I0
sba(iArchitecture
Entity
p487
(dp488
g11
(lp489
sg13
S'android.content.pm.permission.RuntimePermissionPresenter$RemoteService$1'
p490
sg15
(lp491
sg17
(lp492
sg19
(lp493
sg21
I0
sba(iArchitecture
Entity
p494
(dp495
g11
(lp496
sg13
S'android.content.pm.permission.RuntimePermissionPresenter$RemoteService$1$1'
p497
sg15
(lp498
sg17
(lp499
sg19
(lp500
sg21
I0
sba(iArchitecture
Entity
p501
(dp502
g11
(lp503
sg13
S'android.content.pm.permission.RuntimePermissionPresenter$RemoteService$2'
p504
sg15
(lp505
sg17
(lp506
sg19
(lp507
sg21
I0
sba(iArchitecture
Entity
p508
(dp509
g11
(lp510
sg13
S'android.content.pm.permission.RuntimePermissionPresenter$RemoteService$2$1'
p511
sg15
(lp512
sg17
(lp513
sg19
(lp514
sg21
I0
sba(iArchitecture
Entity
p515
(dp516
g11
(lp517
sg13
S'android.content.res.ComplexColor'
p518
sg15
(lp519
sg17
(lp520
sg19
(lp521
sg21
I0
sba(iArchitecture
Entity
p522
(dp523
g11
(lp524
sg13
S'android.content.res.ObbInfo'
p525
sg15
(lp526
sg17
(lp527
sg19
(lp528
sg21
I0
sba(iArchitecture
Entity
p529
(dp530
g11
(lp531
sg13
S'android.content.res.ObbInfo$1'
p532
sg15
(lp533
sg17
(lp534
sg19
(lp535
sg21
I0
sba(iArchitecture
Entity
p536
(dp537
g11
(lp538
sg13
S'android.content.res.ObbScanner'
p539
sg15
(lp540
sg17
(lp541
sg19
(lp542
sg21
I0
sba(iArchitecture
Entity
p543
(dp544
g11
(lp545
sg13
S'android.database.AbstractCursor'
p546
sg15
(lp547
sg17
(lp548
sg19
(lp549
sg21
I0
sba(iArchitecture
Entity
p550
(dp551
g11
(lp552
sg13
S'android.database.AbstractCursor$SelfContentObserver'
p553
sg15
(lp554
sg17
(lp555
sg19
(lp556
sg21
I0
sba(iArchitecture
Entity
p557
(dp558
g11
(lp559
sg13
S'android.database.Cursor'
p560
sg15
(lp561
sg17
(lp562
sg19
(lp563
sg21
I0
sba(iArchitecture
Entity
p564
(dp565
g11
(lp566
sg13
S'android.database.CursorWrapper'
p567
sg15
(lp568
sg17
(lp569
sg19
(lp570
sg21
I0
sba(iArchitecture
Entity
p571
(dp572
g11
(lp573
sg13
S'android.database.sqlite.SQLiteGlobal'
p574
sg15
(lp575
sg17
(lp576
sg19
(lp577
sg21
I0
sba(iArchitecture
Entity
p578
(dp579
g11
(lp580
sg13
S'android.drm.DrmErrorEvent'
p581
sg15
(lp582
sg17
(lp583
sg19
(lp584
sg21
I0
sba(iArchitecture
Entity
p585
(dp586
g11
(lp587
sg13
S'android.drm.DrmEvent'
p588
sg15
(lp589
sg17
(lp590
sg19
(lp591
sg21
I0
sba(iArchitecture
Entity
p592
(dp593
g11
(lp594
sg13
S'android.drm.DrmInfoEvent'
p595
sg15
(lp596
sg17
(lp597
sg19
(lp598
sg21
I0
sba(iArchitecture
Entity
p599
(dp600
g11
(lp601
sg13
S'android.filterfw.core.Frame'
p602
sg15
(lp603
sg17
(lp604
sg19
(lp605
sg21
I0
sba(iArchitecture
Entity
p606
(dp607
g11
(lp608
sg13
S'android.filterfw.core.GLFrame'
p609
sg15
(lp610
sg17
(lp611
sg19
(lp612
sg21
I0
sba(iArchitecture
Entity
p613
(dp614
g11
(lp615
sg13
S'android.filterfw.core.NativeFrame'
p616
sg15
(lp617
sg17
(lp618
sg19
(lp619
sg21
I0
sba(iArchitecture
Entity
p620
(dp621
g11
(lp622
sg13
S'android.filterfw.core.SimpleFrame'
p623
sg15
(lp624
sg17
(lp625
sg19
(lp626
sg21
I0
sba(iArchitecture
Entity
p627
(dp628
g11
(lp629
sg13
S'android.filterfw.format.ImageFormat'
p630
sg15
(lp631
sg17
(lp632
sg19
(lp633
sg21
I0
sba(iArchitecture
Entity
p634
(dp635
g11
(lp636
sg13
S'android.filterfw.format.ObjectFormat'
p637
sg15
(lp638
sg17
(lp639
sg19
(lp640
sg21
I0
sba(iArchitecture
Entity
p641
(dp642
g11
(lp643
sg13
S'android.filterfw.io.GraphReader'
p644
sg15
(lp645
sg17
(lp646
sg19
(lp647
sg21
I0
sba(iArchitecture
Entity
p648
(dp649
g11
(lp650
sg13
S'android.gesture.InstanceLearner'
p651
sg15
(lp652
sg17
(lp653
sg19
(lp654
sg21
I0
sba(iArchitecture
Entity
p655
(dp656
g11
(lp657
sg13
S'android.gesture.InstanceLearner$1'
p658
sg15
(lp659
sg17
(lp660
sg19
(lp661
sg21
I0
sba(iArchitecture
Entity
p662
(dp663
g11
(lp664
sg13
S'android.gesture.Learner'
p665
sg15
(lp666
sg17
(lp667
sg19
(lp668
sg21
I0
sba(iArchitecture
Entity
p669
(dp670
g11
(lp671
sg13
S'android.gesture.OrientedBoundingBox'
p672
sg15
(lp673
sg17
(lp674
sg19
(lp675
sg21
I0
sba(iArchitecture
Entity
p676
(dp677
g11
(lp678
sg13
S'android.graphics.AvoidXfermode'
p679
sg15
(lp680
sg17
(lp681
sg19
(lp682
sg21
I0
sba(iArchitecture
Entity
p683
(dp684
g11
(lp685
sg13
S'android.graphics.AvoidXfermode$Mode'
p686
sg15
(lp687
sg17
(lp688
sg19
(lp689
sg21
I0
sba(iArchitecture
Entity
p690
(dp691
g11
(lp692
sg13
S'android.graphics.BlurMaskFilter'
p693
sg15
(lp694
sg17
(lp695
sg19
(lp696
sg21
I0
sba(iArchitecture
Entity
p697
(dp698
g11
(lp699
sg13
S'android.graphics.BlurMaskFilter$Blur'
p700
sg15
(lp701
sg17
(lp702
sg19
(lp703
sg21
I0
sba(iArchitecture
Entity
p704
(dp705
g11
(lp706
sg13
S'android.graphics.PathDashPathEffect'
p707
sg15
(lp708
sg17
(lp709
sg19
(lp710
sg21
I0
sba(iArchitecture
Entity
p711
(dp712
g11
(lp713
sg13
S'android.graphics.PathDashPathEffect$Style'
p714
sg15
(lp715
sg17
(lp716
sg19
(lp717
sg21
I0
sba(iArchitecture
Entity
p718
(dp719
g11
(lp720
sg13
S'android.graphics.TableMaskFilter'
p721
sg15
(lp722
sg17
(lp723
sg19
(lp724
sg21
I0
sba(iArchitecture
Entity
p725
(dp726
g11
(lp727
sg13
S'android.graphics.drawable.PictureDrawable'
p728
sg15
(lp729
sg17
(lp730
sg19
(lp731
sg21
I0
sba(iArchitecture
Entity
p732
(dp733
g11
(lp734
sg13
S'android.hardware.SerialManager'
p735
sg15
(lp736
sg17
(lp737
sg19
(lp738
sg21
I0
sba(iArchitecture
Entity
p739
(dp740
g11
(lp741
sg13
S'android.hardware.camera2.impl.CameraCaptureSessionCore'
p742
sg15
(lp743
sg17
(lp744
sg19
(lp745
sg21
I0
sba(iArchitecture
Entity
p746
(dp747
g11
(lp748
sg13
S'android.hardware.camera2.impl.GetCommand'
p749
sg15
(lp750
sg17
(lp751
sg19
(lp752
sg21
I0
sba(iArchitecture
Entity
p753
(dp754
g11
(lp755
sg13
S'android.hardware.camera2.utils.LongParcelable'
p756
sg15
(lp757
sg17
(lp758
sg19
(lp759
sg21
I0
sba(iArchitecture
Entity
p760
(dp761
g11
(lp762
sg13
S'android.hardware.camera2.utils.LongParcelable$1'
p763
sg15
(lp764
sg17
(lp765
sg19
(lp766
sg21
I0
sba(iArchitecture
Entity
p767
(dp768
g11
(lp769
sg13
S'android.hardware.camera2.utils.SubmitInfo'
p770
sg15
(lp771
sg17
(lp772
sg19
(lp773
sg21
I0
sba(iArchitecture
Entity
p774
(dp775
g11
(lp776
sg13
S'android.hardware.camera2.utils.SubmitInfo$1'
p777
sg15
(lp778
sg17
(lp779
sg19
(lp780
sg21
I0
sba(iArchitecture
Entity
p781
(dp782
g11
(lp783
sg13
S'android.hardware.fingerprint.Fingerprint'
p784
sg15
(lp785
sg17
(lp786
sg19
(lp787
sg21
I0
sba(iArchitecture
Entity
p788
(dp789
g11
(lp790
sg13
S'android.hardware.fingerprint.Fingerprint$1'
p791
sg15
(lp792
sg17
(lp793
sg19
(lp794
sg21
I0
sba(iArchitecture
Entity
p795
(dp796
g11
(lp797
sg13
S'android.hardware.input.KeyboardLayout'
p798
sg15
(lp799
sg17
(lp800
sg19
(lp801
sg21
I0
sba(iArchitecture
Entity
p802
(dp803
g11
(lp804
sg13
S'android.hardware.input.KeyboardLayout$1'
p805
sg15
(lp806
sg17
(lp807
sg19
(lp808
sg21
I0
sba(iArchitecture
Entity
p809
(dp810
g11
(lp811
sg13
S'android.hardware.location.MemoryRegion'
p812
sg15
(lp813
sg17
(lp814
sg19
(lp815
sg21
I0
sba(iArchitecture
Entity
p816
(dp817
g11
(lp818
sg13
S'android.hardware.location.MemoryRegion$1'
p819
sg15
(lp820
sg17
(lp821
sg19
(lp822
sg21
I0
sba(iArchitecture
Entity
p823
(dp824
g11
(lp825
sg13
S'android.location.CountryDetector'
p826
sg15
(lp827
sg17
(lp828
sg19
(lp829
sg21
I0
sba(iArchitecture
Entity
p830
(dp831
g11
(lp832
sg13
S'android.location.CountryDetector$ListenerTransport'
p833
sg15
(lp834
sg17
(lp835
sg19
(lp836
sg21
I0
sba(iArchitecture
Entity
p837
(dp838
g11
(lp839
sg13
S'android.location.CountryDetector$ListenerTransport$1'
p840
sg15
(lp841
sg17
(lp842
sg19
(lp843
sg21
I0
sba(iArchitecture
Entity
p844
(dp845
g11
(lp846
sg13
S'android.location.GpsNavigationMessageEvent'
p847
sg15
(lp848
sg17
(lp849
sg19
(lp850
sg21
I0
sba(iArchitecture
Entity
p851
(dp852
g11
(lp853
sg13
S'android.location.GpsNavigationMessageEvent$1'
p854
sg15
(lp855
sg17
(lp856
sg19
(lp857
sg21
I0
sba(iArchitecture
Entity
p858
(dp859
g11
(lp860
sg13
S'android.location.GpsNavigationMessageEvent$Listener'
p861
sg15
(lp862
sg17
(lp863
sg19
(lp864
sg21
I0
sba(iArchitecture
Entity
p865
(dp866
g11
(lp867
sg13
S'android.location.LocalListenerHelper'
p868
sg15
(lp869
sg17
(lp870
sg19
(lp871
sg21
I0
sba(iArchitecture
Entity
p872
(dp873
g11
(lp874
sg13
S'android.location.LocalListenerHelper$1'
p875
sg15
(lp876
sg17
(lp877
sg19
(lp878
sg21
I0
sba(iArchitecture
Entity
p879
(dp880
g11
(lp881
sg13
S'android.location.LocalListenerHelper$ListenerOperation'
p882
sg15
(lp883
sg17
(lp884
sg19
(lp885
sg21
I0
sba(iArchitecture
Entity
p886
(dp887
g11
(lp888
sg13
S'android.media.AudioDeviceCallback'
p889
sg15
(lp890
sg17
(lp891
sg19
(lp892
sg21
I0
sba(iArchitecture
Entity
p893
(dp894
g11
(lp895
sg13
S'android.media.DrmInitData'
p896
sg15
(lp897
sg17
(lp898
sg19
(lp899
sg21
I0
sba(iArchitecture
Entity
p900
(dp901
g11
(lp902
sg13
S'android.media.DrmInitData$SchemeInitData'
p903
sg15
(lp904
sg17
(lp905
sg19
(lp906
sg21
I0
sba(iArchitecture
Entity
p907
(dp908
g11
(lp909
sg13
S'android.media.midi.MidiInputPort'
p910
sg15
(lp911
sg17
(lp912
sg19
(lp913
sg21
I0
sba(iArchitecture
Entity
p914
(dp915
g11
(lp916
sg13
S'android.media.midi.MidiOutputPort'
p917
sg15
(lp918
sg17
(lp919
sg19
(lp920
sg21
I0
sba(iArchitecture
Entity
p921
(dp922
g11
(lp923
sg13
S'android.media.midi.MidiOutputPort$1'
p924
sg15
(lp925
sg17
(lp926
sg19
(lp927
sg21
I0
sba(iArchitecture
Entity
p928
(dp929
g11
(lp930
sg13
S'android.media.projection.MediaProjectionManager'
p931
sg15
(lp932
sg17
(lp933
sg19
(lp934
sg21
I0
sba(iArchitecture
Entity
p935
(dp936
g11
(lp937
sg13
S'android.media.projection.MediaProjectionManager$Callback'
p938
sg15
(lp939
sg17
(lp940
sg19
(lp941
sg21
I0
sba(iArchitecture
Entity
p942
(dp943
g11
(lp944
sg13
S'android.media.projection.MediaProjectionManager$CallbackDelegate'
p945
sg15
(lp946
sg17
(lp947
sg19
(lp948
sg21
I0
sba(iArchitecture
Entity
p949
(dp950
g11
(lp951
sg13
S'android.media.projection.MediaProjectionManager$CallbackDelegate$1'
p952
sg15
(lp953
sg17
(lp954
sg19
(lp955
sg21
I0
sba(iArchitecture
Entity
p956
(dp957
g11
(lp958
sg13
S'android.media.projection.MediaProjectionManager$CallbackDelegate$2'
p959
sg15
(lp960
sg17
(lp961
sg19
(lp962
sg21
I0
sba(iArchitecture
Entity
p963
(dp964
g11
(lp965
sg13
S'android.media.tv.DvbDeviceInfo'
p966
sg15
(lp967
sg17
(lp968
sg19
(lp969
sg21
I0
sba(iArchitecture
Entity
p970
(dp971
g11
(lp972
sg13
S'android.media.tv.DvbDeviceInfo$1'
p973
sg15
(lp974
sg17
(lp975
sg19
(lp976
sg21
I0
sba(iArchitecture
Entity
p977
(dp978
g11
(lp979
sg13
S'android.media.tv.TvContentRatingSystemInfo'
p980
sg15
(lp981
sg17
(lp982
sg19
(lp983
sg21
I0
sba(iArchitecture
Entity
p984
(dp985
g11
(lp986
sg13
S'android.media.tv.TvContentRatingSystemInfo$1'
p987
sg15
(lp988
sg17
(lp989
sg19
(lp990
sg21
I0
sba(iArchitecture
Entity
p991
(dp992
g11
(lp993
sg13
S'android.net.ConnectivityMetricsEvent'
p994
sg15
(lp995
sg17
(lp996
sg19
(lp997
sg21
I0
sba(iArchitecture
Entity
p998
(dp999
g11
(lp1000
sg13
S'android.net.ConnectivityMetricsEvent$1'
p1001
sg15
(lp1002
sg17
(lp1003
sg19
(lp1004
sg21
I0
sba(iArchitecture
Entity
p1005
(dp1006
g11
(lp1007
sg13
S'android.net.ConnectivityMetricsEvent$Reference'
p1008
sg15
(lp1009
sg17
(lp1010
sg19
(lp1011
sg21
I0
sba(iArchitecture
Entity
p1012
(dp1013
g11
(lp1014
sg13
S'android.net.ConnectivityMetricsEvent$Reference$1'
p1015
sg15
(lp1016
sg17
(lp1017
sg19
(lp1018
sg21
I0
sba(iArchitecture
Entity
p1019
(dp1020
g11
(lp1021
sg13
S'android.net.ConnectivityThread'
p1022
sg15
(lp1023
sg17
(lp1024
sg19
(lp1025
sg21
I0
sba(iArchitecture
Entity
p1026
(dp1027
g11
(lp1028
sg13
S'android.net.EthernetManager'
p1029
sg15
(lp1030
sg17
(lp1031
sg19
(lp1032
sg21
I0
sba(iArchitecture
Entity
p1033
(dp1034
g11
(lp1035
sg13
S'android.net.EthernetManager$1'
p1036
sg15
(lp1037
sg17
(lp1038
sg19
(lp1039
sg21
I0
sba(iArchitecture
Entity
p1040
(dp1041
g11
(lp1042
sg13
S'android.net.EthernetManager$2'
p1043
sg15
(lp1044
sg17
(lp1045
sg19
(lp1046
sg21
I0
sba(iArchitecture
Entity
p1047
(dp1048
g11
(lp1049
sg13
S'android.net.EthernetManager$Listener'
p1050
sg15
(lp1051
sg17
(lp1052
sg19
(lp1053
sg21
I0
sba(iArchitecture
Entity
p1054
(dp1055
g11
(lp1056
sg13
S'android.net.NetworkQuotaInfo'
p1057
sg15
(lp1058
sg17
(lp1059
sg19
(lp1060
sg21
I0
sba(iArchitecture
Entity
p1061
(dp1062
g11
(lp1063
sg13
S'android.net.NetworkQuotaInfo$1'
p1064
sg15
(lp1065
sg17
(lp1066
sg19
(lp1067
sg21
I0
sba(iArchitecture
Entity
p1068
(dp1069
g11
(lp1070
sg13
S'android.net.netlink.NetlinkErrorMessage'
p1071
sg15
(lp1072
sg17
(lp1073
sg19
(lp1074
sg21
I0
sba(iArchitecture
Entity
p1075
(dp1076
g11
(lp1077
sg13
S'android.net.wifi.RssiPacketCountInfo'
p1078
sg15
(lp1079
sg17
(lp1080
sg19
(lp1081
sg21
I0
sba(iArchitecture
Entity
p1082
(dp1083
g11
(lp1084
sg13
S'android.net.wifi.RssiPacketCountInfo$1'
p1085
sg15
(lp1086
sg17
(lp1087
sg19
(lp1088
sg21
I0
sba(iArchitecture
Entity
p1089
(dp1090
g11
(lp1091
sg13
S'android.opengl.EGLConfig'
p1092
sg15
(lp1093
sg17
(lp1094
sg19
(lp1095
sg21
I0
sba(iArchitecture
Entity
p1096
(dp1097
g11
(lp1098
sg13
S'android.os.Parcelable'
p1099
sg15
(lp1100
sg17
(lp1101
sg19
(lp1102
sg21
I0
sba(iArchitecture
Entity
p1103
(dp1104
g11
(lp1105
sg13
S'android.os.Parcelable$ClassLoaderCreator'
p1106
sg15
(lp1107
sg17
(lp1108
sg19
(lp1109
sg21
I0
sba(iArchitecture
Entity
p1110
(dp1111
g11
(lp1112
sg13
S'android.os.Parcelable$Creator'
p1113
sg15
(lp1114
sg17
(lp1115
sg19
(lp1116
sg21
I0
sba(iArchitecture
Entity
p1117
(dp1118
g11
(lp1119
sg13
S'android.os.RemoteCallback'
p1120
sg15
(lp1121
sg17
(lp1122
sg19
(lp1123
sg21
I0
sba(iArchitecture
Entity
p1124
(dp1125
g11
(lp1126
sg13
S'android.os.RemoteCallback$1'
p1127
sg15
(lp1128
sg17
(lp1129
sg19
(lp1130
sg21
I0
sba(iArchitecture
Entity
p1131
(dp1132
g11
(lp1133
sg13
S'android.os.RemoteCallback$2'
p1134
sg15
(lp1135
sg17
(lp1136
sg19
(lp1137
sg21
I0
sba(iArchitecture
Entity
p1138
(dp1139
g11
(lp1140
sg13
S'android.os.RemoteCallback$3'
p1141
sg15
(lp1142
sg17
(lp1143
sg19
(lp1144
sg21
I0
sba(iArchitecture
Entity
p1145
(dp1146
g11
(lp1147
sg13
S'android.os.RemoteCallback$OnResultListener'
p1148
sg15
(lp1149
sg17
(lp1150
sg19
(lp1151
sg21
I0
sba(iArchitecture
Entity
p1152
(dp1153
g11
(lp1154
sg13
S'android.os.UpdateEngine'
p1155
sg15
(lp1156
sg17
(lp1157
sg19
(lp1158
sg21
I0
sba(iArchitecture
Entity
p1159
(dp1160
g11
(lp1161
sg13
S'android.os.UpdateEngine$1'
p1162
sg15
(lp1163
sg17
(lp1164
sg19
(lp1165
sg21
I0
sba(iArchitecture
Entity
p1166
(dp1167
g11
(lp1168
sg13
S'android.os.UpdateEngine$1$1'
p1169
sg15
(lp1170
sg17
(lp1171
sg19
(lp1172
sg21
I0
sba(iArchitecture
Entity
p1173
(dp1174
g11
(lp1175
sg13
S'android.os.UpdateEngine$1$2'
p1176
sg15
(lp1177
sg17
(lp1178
sg19
(lp1179
sg21
I0
sba(iArchitecture
Entity
p1180
(dp1181
g11
(lp1182
sg13
S'android.os.UpdateEngine$ErrorCodeConstants'
p1183
sg15
(lp1184
sg17
(lp1185
sg19
(lp1186
sg21
I0
sba(iArchitecture
Entity
p1187
(dp1188
g11
(lp1189
sg13
S'android.os.UpdateEngine$UpdateStatusConstants'
p1190
sg15
(lp1191
sg17
(lp1192
sg19
(lp1193
sg21
I0
sba(iArchitecture
Entity
p1194
(dp1195
g11
(lp1196
sg13
S'android.permissionpresenterservice.RuntimePermissionPresenterService'
p1197
sg15
(lp1198
sg17
(lp1199
sg19
(lp1200
sg21
I0
sba(iArchitecture
Entity
p1201
(dp1202
g11
(lp1203
sg13
S'android.permissionpresenterservice.RuntimePermissionPresenterService$1'
p1204
sg15
(lp1205
sg17
(lp1206
sg19
(lp1207
sg21
I0
sba(iArchitecture
Entity
p1208
(dp1209
g11
(lp1210
sg13
S'android.permissionpresenterservice.RuntimePermissionPresenterService$MyHandler'
p1211
sg15
(lp1212
sg17
(lp1213
sg19
(lp1214
sg21
I0
sba(iArchitecture
Entity
p1215
(dp1216
g11
(lp1217
sg13
S'android.sax.Children'
p1218
sg15
(lp1219
sg17
(lp1220
sg19
(lp1221
sg21
I0
sba(iArchitecture
Entity
p1222
(dp1223
g11
(lp1224
sg13
S'android.sax.Children$Child'
p1225
sg15
(lp1226
sg17
(lp1227
sg19
(lp1228
sg21
I0
sba(iArchitecture
Entity
p1229
(dp1230
g11
(lp1231
sg13
S'android.security.GateKeeper'
p1232
sg15
(lp1233
sg17
(lp1234
sg19
(lp1235
sg21
I0
sba(iArchitecture
Entity
p1236
(dp1237
g11
(lp1238
sg13
S'android.security.KeystoreArguments'
p1239
sg15
(lp1240
sg17
(lp1241
sg19
(lp1242
sg21
I0
sba(iArchitecture
Entity
p1243
(dp1244
g11
(lp1245
sg13
S'android.security.KeystoreArguments$1'
p1246
sg15
(lp1247
sg17
(lp1248
sg19
(lp1249
sg21
I0
sba(iArchitecture
Entity
p1250
(dp1251
g11
(lp1252
sg13
S'android.security.keymaster.KeymasterBlobArgument'
p1253
sg15
(lp1254
sg17
(lp1255
sg19
(lp1256
sg21
I0
sba(iArchitecture
Entity
p1257
(dp1258
g11
(lp1259
sg13
S'android.security.keymaster.KeymasterBooleanArgument'
p1260
sg15
(lp1261
sg17
(lp1262
sg19
(lp1263
sg21
I0
sba(iArchitecture
Entity
p1264
(dp1265
g11
(lp1266
sg13
S'android.security.keymaster.KeymasterDateArgument'
p1267
sg15
(lp1268
sg17
(lp1269
sg19
(lp1270
sg21
I0
sba(iArchitecture
Entity
p1271
(dp1272
g11
(lp1273
sg13
S'android.security.keymaster.KeymasterIntArgument'
p1274
sg15
(lp1275
sg17
(lp1276
sg19
(lp1277
sg21
I0
sba(iArchitecture
Entity
p1278
(dp1279
g11
(lp1280
sg13
S'android.security.keymaster.KeymasterLongArgument'
p1281
sg15
(lp1282
sg17
(lp1283
sg19
(lp1284
sg21
I0
sba(iArchitecture
Entity
p1285
(dp1286
g11
(lp1287
sg13
S'android.security.keymaster.OperationResult'
p1288
sg15
(lp1289
sg17
(lp1290
sg19
(lp1291
sg21
I0
sba(iArchitecture
Entity
p1292
(dp1293
g11
(lp1294
sg13
S'android.security.keymaster.OperationResult$1'
p1295
sg15
(lp1296
sg17
(lp1297
sg19
(lp1298
sg21
I0
sba(iArchitecture
Entity
p1299
(dp1300
g11
(lp1301
sg13
S'android.security.net.config.ConfigNetworkSecurityPolicy'
p1302
sg15
(lp1303
sg17
(lp1304
sg19
(lp1305
sg21
I0
sba(iArchitecture
Entity
p1306
(dp1307
g11
(lp1308
sg13
S'android.service.restrictions.RestrictionsReceiver'
p1309
sg15
(lp1310
sg17
(lp1311
sg19
(lp1312
sg21
I0
sba(iArchitecture
Entity
p1313
(dp1314
g11
(lp1315
sg13
S'android.service.voice.VoiceInteractionSessionService'
p1316
sg15
(lp1317
sg17
(lp1318
sg19
(lp1319
sg21
I0
sba(iArchitecture
Entity
p1320
(dp1321
g11
(lp1322
sg13
S'android.service.voice.VoiceInteractionSessionService$1'
p1323
sg15
(lp1324
sg17
(lp1325
sg19
(lp1326
sg21
I0
sba(iArchitecture
Entity
p1327
(dp1328
g11
(lp1329
sg13
S'android.service.voice.VoiceInteractionSessionService$2'
p1330
sg15
(lp1331
sg17
(lp1332
sg19
(lp1333
sg21
I0
sba(iArchitecture
Entity
p1334
(dp1335
g11
(lp1336
sg13
S'android.speech.tts.AudioPlaybackHandler'
p1337
sg15
(lp1338
sg17
(lp1339
sg19
(lp1340
sg21
I0
sba(iArchitecture
Entity
p1341
(dp1342
g11
(lp1343
sg13
S'android.speech.tts.AudioPlaybackHandler$MessageLoop'
p1344
sg15
(lp1345
sg17
(lp1346
sg19
(lp1347
sg21
I0
sba(iArchitecture
Entity
p1348
(dp1349
g11
(lp1350
sg13
S'android.telephony.CellLocation'
p1351
sg15
(lp1352
sg17
(lp1353
sg19
(lp1354
sg21
I0
sba(iArchitecture
Entity
p1355
(dp1356
g11
(lp1357
sg13
S'android.text.Emoji'
p1358
sg15
(lp1359
sg17
(lp1360
sg19
(lp1361
sg21
I0
sba(iArchitecture
Entity
p1362
(dp1363
g11
(lp1364
sg13
S'android.text.GraphicsOperations'
p1365
sg15
(lp1366
sg17
(lp1367
sg19
(lp1368
sg21
I0
sba(iArchitecture
Entity
p1369
(dp1370
g11
(lp1371
sg13
S'android.text.LoginFilter'
p1372
sg15
(lp1373
sg17
(lp1374
sg19
(lp1375
sg21
I0
sba(iArchitecture
Entity
p1376
(dp1377
g11
(lp1378
sg13
S'android.text.LoginFilter$PasswordFilterGMail'
p1379
sg15
(lp1380
sg17
(lp1381
sg19
(lp1382
sg21
I0
sba(iArchitecture
Entity
p1383
(dp1384
g11
(lp1385
sg13
S'android.text.LoginFilter$UsernameFilterGMail'
p1386
sg15
(lp1387
sg17
(lp1388
sg19
(lp1389
sg21
I0
sba(iArchitecture
Entity
p1390
(dp1391
g11
(lp1392
sg13
S'android.text.LoginFilter$UsernameFilterGeneric'
p1393
sg15
(lp1394
sg17
(lp1395
sg19
(lp1396
sg21
I0
sba(iArchitecture
Entity
p1397
(dp1398
g11
(lp1399
sg13
S'android.text.ParcelableSpan'
p1400
sg15
(lp1401
sg17
(lp1402
sg19
(lp1403
sg21
I0
sba(iArchitecture
Entity
p1404
(dp1405
g11
(lp1406
sg13
S'android.text.style.CharacterStyle'
p1407
sg15
(lp1408
sg17
(lp1409
sg19
(lp1410
sg21
I0
sba(iArchitecture
Entity
p1411
(dp1412
g11
(lp1413
sg13
S'android.text.style.CharacterStyle$Passthrough'
p1414
sg15
(lp1415
sg17
(lp1416
sg19
(lp1417
sg21
I0
sba(iArchitecture
Entity
p1418
(dp1419
g11
(lp1420
sg13
S'android.text.style.DrawableMarginSpan'
p1421
sg15
(lp1422
sg17
(lp1423
sg19
(lp1424
sg21
I0
sba(iArchitecture
Entity
p1425
(dp1426
g11
(lp1427
sg13
S'android.text.style.DynamicDrawableSpan'
p1428
sg15
(lp1429
sg17
(lp1430
sg19
(lp1431
sg21
I0
sba(iArchitecture
Entity
p1432
(dp1433
g11
(lp1434
sg13
S'android.text.style.IconMarginSpan'
p1435
sg15
(lp1436
sg17
(lp1437
sg19
(lp1438
sg21
I0
sba(iArchitecture
Entity
p1439
(dp1440
g11
(lp1441
sg13
S'android.text.style.MetricAffectingSpan'
p1442
sg15
(lp1443
sg17
(lp1444
sg19
(lp1445
sg21
I0
sba(iArchitecture
Entity
p1446
(dp1447
g11
(lp1448
sg13
S'android.text.style.MetricAffectingSpan$Passthrough'
p1449
sg15
(lp1450
sg17
(lp1451
sg19
(lp1452
sg21
I0
sba(iArchitecture
Entity
p1453
(dp1454
g11
(lp1455
sg13
S'android.text.style.RasterizerSpan'
p1456
sg15
(lp1457
sg17
(lp1458
sg19
(lp1459
sg21
I0
sba(iArchitecture
Entity
p1460
(dp1461
g11
(lp1462
sg13
S'android.util.LocalLog'
p1463
sg15
(lp1464
sg17
(lp1465
sg19
(lp1466
sg21
I0
sba(iArchitecture
Entity
p1467
(dp1468
g11
(lp1469
sg13
S'android.util.LocalLog$ReadOnlyLocalLog'
p1470
sg15
(lp1471
sg17
(lp1472
sg19
(lp1473
sg21
I0
sba(iArchitecture
Entity
p1474
(dp1475
g11
(lp1476
sg13
S'android.util.LogPrinter'
p1477
sg15
(lp1478
sg17
(lp1479
sg19
(lp1480
sg21
I0
sba(iArchitecture
Entity
p1481
(dp1482
g11
(lp1483
sg13
S'android.util.LogWriter'
p1484
sg15
(lp1485
sg17
(lp1486
sg19
(lp1487
sg21
I0
sba(iArchitecture
Entity
p1488
(dp1489
g11
(lp1490
sg13
S'android.util.Pair'
p1491
sg15
(lp1492
sg17
(lp1493
sg19
(lp1494
sg21
I0
sba(iArchitecture
Entity
p1495
(dp1496
g11
(lp1497
sg13
S'android.view.DisplayAdjustments'
p1498
sg15
(lp1499
sg17
(lp1500
sg19
(lp1501
sg21
I0
sba(iArchitecture
Entity
p1502
(dp1503
g11
(lp1504
sg13
S'android.view.MagnificationSpec'
p1505
sg15
(lp1506
sg17
(lp1507
sg19
(lp1508
sg21
I0
sba(iArchitecture
Entity
p1509
(dp1510
g11
(lp1511
sg13
S'android.view.MagnificationSpec$1'
p1512
sg15
(lp1513
sg17
(lp1514
sg19
(lp1515
sg21
I0
sba(iArchitecture
Entity
p1516
(dp1517
g11
(lp1518
sg13
S'android.view.WindowManagerInternal'
p1519
sg15
(lp1520
sg17
(lp1521
sg19
(lp1522
sg21
I0
sba(iArchitecture
Entity
p1523
(dp1524
g11
(lp1525
sg13
S'android.view.WindowManagerInternal$AppTransitionListener'
p1526
sg15
(lp1527
sg17
(lp1528
sg19
(lp1529
sg21
I0
sba(iArchitecture
Entity
p1530
(dp1531
g11
(lp1532
sg13
S'android.view.WindowManagerInternal$MagnificationCallbacks'
p1533
sg15
(lp1534
sg17
(lp1535
sg19
(lp1536
sg21
I0
sba(iArchitecture
Entity
p1537
(dp1538
g11
(lp1539
sg13
S'android.view.WindowManagerInternal$OnHardKeyboardStatusChangeListener'
p1540
sg15
(lp1541
sg17
(lp1542
sg19
(lp1543
sg21
I0
sba(iArchitecture
Entity
p1544
(dp1545
g11
(lp1546
sg13
S'android.view.WindowManagerInternal$WindowsForAccessibilityCallback'
p1547
sg15
(lp1548
sg17
(lp1549
sg19
(lp1550
sg21
I0
sba(iArchitecture
Entity
p1551
(dp1552
g11
(lp1553
sg13
S'android.view.inputmethod.CorrectionInfo'
p1554
sg15
(lp1555
sg17
(lp1556
sg19
(lp1557
sg21
I0
sba(iArchitecture
Entity
p1558
(dp1559
g11
(lp1560
sg13
S'android.view.inputmethod.CorrectionInfo$1'
p1561
sg15
(lp1562
sg17
(lp1563
sg19
(lp1564
sg21
I0
sba(iArchitecture
Entity
p1565
(dp1566
g11
(lp1567
sg13
S'android.view.textservice.SpellCheckerInfo'
p1568
sg15
(lp1569
sg17
(lp1570
sg19
(lp1571
sg21
I0
sba(iArchitecture
Entity
p1572
(dp1573
g11
(lp1574
sg13
S'android.view.textservice.SpellCheckerInfo$1'
p1575
sg15
(lp1576
sg17
(lp1577
sg19
(lp1578
sg21
I0
sba(iArchitecture
Entity
p1579
(dp1580
g11
(lp1581
sg13
S'android.webkit.WebViewProviderInfo'
p1582
sg15
(lp1583
sg17
(lp1584
sg19
(lp1585
sg21
I0
sba(iArchitecture
Entity
p1586
(dp1587
g11
(lp1588
sg13
S'android.webkit.WebViewProviderInfo$1'
p1589
sg15
(lp1590
sg17
(lp1591
sg19
(lp1592
sg21
I0
sba(iArchitecture
Entity
p1593
(dp1594
g11
(lp1595
sg13
S'android.widget.CursorFilter'
p1596
sg15
(lp1597
sg17
(lp1598
sg19
(lp1599
sg21
I0
sba(iArchitecture
Entity
p1600
(dp1601
g11
(lp1602
sg13
S'android.widget.CursorFilter$CursorFilterClient'
p1603
sg15
(lp1604
sg17
(lp1605
sg19
(lp1606
sg21
I0
sba(iArchitecture
Entity
p1607
(dp1608
g11
(lp1609
sg13
S'com.android.ims.ImsCallForwardInfo'
p1610
sg15
(lp1611
sg17
(lp1612
sg19
(lp1613
sg21
I0
sba(iArchitecture
Entity
p1614
(dp1615
g11
(lp1616
sg13
S'com.android.ims.ImsCallForwardInfo$1'
p1617
sg15
(lp1618
sg17
(lp1619
sg19
(lp1620
sg21
I0
sba(iArchitecture
Entity
p1621
(dp1622
g11
(lp1623
sg13
S'com.android.ims.ImsSsInfo'
p1624
sg15
(lp1625
sg17
(lp1626
sg19
(lp1627
sg21
I0
sba(iArchitecture
Entity
p1628
(dp1629
g11
(lp1630
sg13
S'com.android.ims.ImsSsInfo$1'
p1631
sg15
(lp1632
sg17
(lp1633
sg19
(lp1634
sg21
I0
sba(iArchitecture
Entity
p1635
(dp1636
g11
(lp1637
sg13
S'com.android.internal.app.ResolverTargetActionsDialogFragment'
p1638
sg15
(lp1639
sg17
(lp1640
sg19
(lp1641
sg21
I0
sba(iArchitecture
Entity
p1642
(dp1643
g11
(lp1644
sg13
S'com.android.internal.inputmethod.LocaleUtils'
p1645
sg15
(lp1646
sg17
(lp1647
sg19
(lp1648
sg21
I0
sba(iArchitecture
Entity
p1649
(dp1650
g11
(lp1651
sg13
S'com.android.internal.inputmethod.LocaleUtils$LocaleExtractor'
p1652
sg15
(lp1653
sg17
(lp1654
sg19
(lp1655
sg21
I0
sba(iArchitecture
Entity
p1656
(dp1657
g11
(lp1658
sg13
S'com.android.internal.inputmethod.LocaleUtils$ScoreEntry'
p1659
sg15
(lp1660
sg17
(lp1661
sg19
(lp1662
sg21
I0
sba(iArchitecture
Entity
p1663
(dp1664
g11
(lp1665
sg13
S'com.android.internal.location.ProviderRequest'
p1666
sg15
(lp1667
sg17
(lp1668
sg19
(lp1669
sg21
I0
sba(iArchitecture
Entity
p1670
(dp1671
g11
(lp1672
sg13
S'com.android.internal.location.ProviderRequest$1'
p1673
sg15
(lp1674
sg17
(lp1675
sg19
(lp1676
sg21
I0
sba(iArchitecture
Entity
p1677
(dp1678
g11
(lp1679
sg13
S'com.android.internal.net.LegacyVpnInfo'
p1680
sg15
(lp1681
sg17
(lp1682
sg19
(lp1683
sg21
I0
sba(iArchitecture
Entity
p1684
(dp1685
g11
(lp1686
sg13
S'com.android.internal.net.LegacyVpnInfo$1'
p1687
sg15
(lp1688
sg17
(lp1689
sg19
(lp1690
sg21
I0
sba(iArchitecture
Entity
p1691
(dp1692
g11
(lp1693
sg13
S'com.android.internal.net.VpnInfo'
p1694
sg15
(lp1695
sg17
(lp1696
sg19
(lp1697
sg21
I0
sba(iArchitecture
Entity
p1698
(dp1699
g11
(lp1700
sg13
S'com.android.internal.net.VpnInfo$1'
p1701
sg15
(lp1702
sg17
(lp1703
sg19
(lp1704
sg21
I0
sba(iArchitecture
Entity
p1705
(dp1706
g11
(lp1707
sg13
S'com.android.internal.os.BackgroundThread'
p1708
sg15
(lp1709
sg17
(lp1710
sg19
(lp1711
sg21
I0
sba(iArchitecture
Entity
p1712
(dp1713
g11
(lp1714
sg13
S'com.android.internal.os.BinderInternal'
p1715
sg15
(lp1716
sg17
(lp1717
sg19
(lp1718
sg21
I0
sba(iArchitecture
Entity
p1719
(dp1720
g11
(lp1721
sg13
S'com.android.internal.os.BinderInternal$GcWatcher'
p1722
sg15
(lp1723
sg17
(lp1724
sg19
(lp1725
sg21
I0
sba(iArchitecture
Entity
p1726
(dp1727
g11
(lp1728
sg13
S'com.android.internal.os.PathClassLoaderFactory'
p1729
sg15
(lp1730
sg17
(lp1731
sg19
(lp1732
sg21
I0
sba(iArchitecture
Entity
p1733
(dp1734
g11
(lp1735
sg13
S'com.android.internal.telephony.SmsRawData'
p1736
sg15
(lp1737
sg17
(lp1738
sg19
(lp1739
sg21
I0
sba(iArchitecture
Entity
p1740
(dp1741
g11
(lp1742
sg13
S'com.android.internal.telephony.SmsRawData$1'
p1743
sg15
(lp1744
sg17
(lp1745
sg19
(lp1746
sg21
I0
sba(iArchitecture
Entity
p1747
(dp1748
g11
(lp1749
sg13
S'com.android.internal.util.HexDump'
p1750
sg15
(lp1751
sg17
(lp1752
sg19
(lp1753
sg21
I0
sba(iArchitecture
Entity
p1754
(dp1755
g11
(lp1756
sg13
S'com.android.internal.view.WindowManagerPolicyThread'
p1757
sg15
(lp1758
sg17
(lp1759
sg19
(lp1760
sg21
I0
sba(iArchitecture
Entity
p1761
(dp1762
g11
(lp1763
sg13
S'com.android.internal.widget.ScrollBarUtils'
p1764
sg15
(lp1765
sg17
(lp1766
sg19
(lp1767
sg21
I0
sba(iArchitecture
Entity
p1768
(dp1769
g11
(lp1770
sg13
S'com.android.server.CountryDetectorService'
p1771
sg15
(lp1772
sg17
(lp1773
sg19
(lp1774
sg21
I0
sba(iArchitecture
Entity
p1775
(dp1776
g11
(lp1777
sg13
S'com.android.server.CountryDetectorService$1'
p1778
sg15
(lp1779
sg17
(lp1780
sg19
(lp1781
sg21
I0
sba(iArchitecture
Entity
p1782
(dp1783
g11
(lp1784
sg13
S'com.android.server.CountryDetectorService$1$1'
p1785
sg15
(lp1786
sg17
(lp1787
sg19
(lp1788
sg21
I0
sba(iArchitecture
Entity
p1789
(dp1790
g11
(lp1791
sg13
S'com.android.server.CountryDetectorService$2'
p1792
sg15
(lp1793
sg17
(lp1794
sg19
(lp1795
sg21
I0
sba(iArchitecture
Entity
p1796
(dp1797
g11
(lp1798
sg13
S'com.android.server.CountryDetectorService$Receiver'
p1799
sg15
(lp1800
sg17
(lp1801
sg19
(lp1802
sg21
I0
sba(iArchitecture
Entity
p1803
(dp1804
g11
(lp1805
sg13
S'com.android.server.DisplayThread'
p1806
sg15
(lp1807
sg17
(lp1808
sg19
(lp1809
sg21
I0
sba(iArchitecture
Entity
p1810
(dp1811
g11
(lp1812
sg13
S'com.android.server.FgThread'
p1813
sg15
(lp1814
sg17
(lp1815
sg19
(lp1816
sg21
I0
sba(iArchitecture
Entity
p1817
(dp1818
g11
(lp1819
sg13
S'com.android.server.IoThread'
p1820
sg15
(lp1821
sg17
(lp1822
sg19
(lp1823
sg21
I0
sba(iArchitecture
Entity
p1824
(dp1825
g11
(lp1826
sg13
S'com.android.server.SerialService'
p1827
sg15
(lp1828
sg17
(lp1829
sg19
(lp1830
sg21
I0
sba(iArchitecture
Entity
p1831
(dp1832
g11
(lp1833
sg13
S'com.android.server.UiThread'
p1834
sg15
(lp1835
sg17
(lp1836
sg19
(lp1837
sg21
I0
sba(iArchitecture
Entity
p1838
(dp1839
g11
(lp1840
sg13
S'com.android.server.am.ContentProviderConnection'
p1841
sg15
(lp1842
sg17
(lp1843
sg19
(lp1844
sg21
I0
sba(iArchitecture
Entity
p1845
(dp1846
g11
(lp1847
sg13
S'com.android.server.display.DisplayAdapter'
p1848
sg15
(lp1849
sg17
(lp1850
sg19
(lp1851
sg21
I0
sba(iArchitecture
Entity
p1852
(dp1853
g11
(lp1854
sg13
S'com.android.server.display.DisplayAdapter$1'
p1855
sg15
(lp1856
sg17
(lp1857
sg19
(lp1858
sg21
I0
sba(iArchitecture
Entity
p1859
(dp1860
g11
(lp1861
sg13
S'com.android.server.display.DisplayAdapter$2'
p1862
sg15
(lp1863
sg17
(lp1864
sg19
(lp1865
sg21
I0
sba(iArchitecture
Entity
p1866
(dp1867
g11
(lp1868
sg13
S'com.android.server.display.DisplayAdapter$Listener'
p1869
sg15
(lp1870
sg17
(lp1871
sg19
(lp1872
sg21
I0
sba(iArchitecture
Entity
p1873
(dp1874
g11
(lp1875
sg13
S'com.android.server.location.CountryDetectorBase'
p1876
sg15
(lp1877
sg17
(lp1878
sg19
(lp1879
sg21
I0
sba(iArchitecture
Entity
p1880
(dp1881
g11
(lp1882
sg13
S'com.android.server.location.RemoteListenerHelper'
p1883
sg15
(lp1884
sg17
(lp1885
sg19
(lp1886
sg21
I0
sba(iArchitecture
Entity
p1887
(dp1888
g11
(lp1889
sg13
S'com.android.server.location.RemoteListenerHelper$HandlerRunnable'
p1890
sg15
(lp1891
sg17
(lp1892
sg19
(lp1893
sg21
I0
sba(iArchitecture
Entity
p1894
(dp1895
g11
(lp1896
sg13
S'com.android.server.location.RemoteListenerHelper$LinkedListener'
p1897
sg15
(lp1898
sg17
(lp1899
sg19
(lp1900
sg21
I0
sba(iArchitecture
Entity
p1901
(dp1902
g11
(lp1903
sg13
S'com.android.server.location.RemoteListenerHelper$ListenerOperation'
p1904
sg15
(lp1905
sg17
(lp1906
sg19
(lp1907
sg21
I0
sba(iArchitecture
Entity
p1908
(dp1909
g11
(lp1910
sg13
S'com.android.server.pm.PackageManagerServiceCompilerMapping'
p1911
sg15
(lp1912
sg17
(lp1913
sg19
(lp1914
sg21
I0
sba(iArchitecture
Entity
p1915
(dp1916
g11
(lp1917
sg13
S'com.android.server.pm.ProtectedPackages'
p1918
sg15
(lp1919
sg17
(lp1920
sg19
(lp1921
sg21
I0
sba(iArchitecture
Entity
p1922
(dp1923
g11
(lp1924
sg13
S'com.android.server.statusbar.StatusBarManagerInternal'
p1925
sg15
(lp1926
sg17
(lp1927
sg19
(lp1928
sg21
I0
sba(iArchitecture
Entity
p1929
(dp1930
g11
(lp1931
sg13
S'com.android.server.twilight.TwilightManager'
p1932
sg15
(lp1933
sg17
(lp1934
sg19
(lp1935
sg21
I0
sba(iArchitecture
Entity
p1936
(dp1937
g11
(lp1938
sg13
S'com.android.server.wm.WindowManagerDebugConfig'
p1939
sg15
(lp1940
sg17
(lp1941
sg19
(lp1942
sg21
I0
sba(iArchitecture
Entity
p1943
(dp1944
g11
(lp1945
sg13
S'com.google.android.collect.Lists'
p1946
sg15
(lp1947
sg17
(lp1948
sg19
(lp1949
sg21
I0
sba(iArchitecture
Entity
p1950
(dp1951
g11
(lp1952
sg13
S'com.google.android.gles_jni.EGLConfigImpl'
p1953
sg15
(lp1954
sg17
(lp1955
sg19
(lp1956
sg21
I0
sbasg57
(lp1957
g175
ag182
ag189
ag196
ag203
ag210
ag217
ag224
ag231
ag238
ag245
ag252
ag259
ag266
ag273
ag280
ag287
ag294
ag301
ag308
ag315
ag322
ag329
ag336
ag343
ag350
ag357
ag364
ag371
ag378
ag385
ag392
ag399
ag406
ag413
ag420
ag427
ag434
ag441
ag448
ag455
ag462
ag469
ag476
ag483
ag490
ag497
ag504
ag511
ag518
ag525
ag532
ag539
ag546
ag553
ag560
ag567
ag574
ag581
ag588
ag595
ag602
ag609
ag616
ag623
ag630
ag637
ag644
ag651
ag658
ag665
ag672
ag679
ag686
ag693
ag700
ag707
ag714
ag721
ag728
ag735
ag742
ag749
ag756
ag763
ag770
ag777
ag784
ag791
ag798
ag805
ag812
ag819
ag826
ag833
ag840
ag847
ag854
ag861
ag868
ag875
ag882
ag889
ag896
ag903
ag910
ag917
ag924
ag931
ag938
ag945
ag952
ag959
ag966
ag973
ag980
ag987
ag994
ag1001
ag1008
ag1015
ag1022
ag1029
ag1036
ag1043
ag1050
ag1057
ag1064
ag1071
ag1078
ag1085
ag1092
ag1099
ag1106
ag1113
ag1120
ag1127
ag1134
ag1141
ag1148
ag1155
ag1162
ag1169
ag1176
ag1183
ag1190
ag1197
ag1204
ag1211
ag1218
ag1225
ag1232
ag1239
ag1246
ag1253
ag1260
ag1267
ag1274
ag1281
ag1288
ag1295
ag1302
ag1309
ag1316
ag1323
ag1330
ag1337
ag1344
ag1351
ag1358
ag1365
ag1372
ag1379
ag1386
ag1393
ag1400
ag1407
ag1414
ag1421
ag1428
ag1435
ag1442
ag1449
ag1456
ag1463
ag1470
ag1477
ag1484
ag1491
ag1498
ag1505
ag1512
ag1519
ag1526
ag1533
ag1540
ag1547
ag1554
ag1561
ag1568
ag1575
ag1582
ag1589
ag1596
ag1603
ag1610
ag1617
ag1624
ag1631
ag1638
ag1645
ag1652
ag1659
ag1666
ag1673
ag1680
ag1687
ag1694
ag1701
ag1708
ag1715
ag1722
ag1729
ag1736
ag1743
ag1750
ag1757
ag1764
ag1771
ag1778
ag1785
ag1792
ag1799
ag1806
ag1813
ag1820
ag1827
ag1834
ag1841
ag1848
ag1855
ag1862
ag1869
ag1876
ag1883
ag1890
ag1897
ag1904
ag1911
ag1918
ag1925
ag1932
ag1939
ag1946
ag1953
asg21
I0
sg59
S'1384'
p1958
sba(iArchitecture
Cluster
p1959
(dp1960
g7
(lp1961
(iArchitecture
Entity
p1962
(dp1963
g11
(lp1964
sg13
S'com.android.internal.util.GrowingArrayUtils'
p1965
sg15
(lp1966
sg17
(lp1967
sg19
(lp1968
sg21
I0
sbasg57
(lp1969
g1965
asg21
I0
sg59
S'184'
p1970
sba(iArchitecture
Cluster
p1971
(dp1972
g7
(lp1973
(iArchitecture
Entity
p1974
(dp1975
g11
(lp1976
sg13
S'com.android.server.wm.WindowToken'
p1977
sg15
(lp1978
sg17
(lp1979
sg19
(lp1980
sg21
I0
sbasg57
(lp1981
g1977
asg21
I0
sg59
S'284'
p1982
sba(iArchitecture
Cluster
p1983
(dp1984
g7
(lp1985
(iArchitecture
Entity
p1986
(dp1987
g11
(lp1988
sg13
S'android.appwidget.AppWidgetManager'
p1989
sg15
(lp1990
sg17
(lp1991
sg19
(lp1992
sg21
I0
sbasg57
(lp1993
g1989
asg21
I0
sg59
S'384'
p1994
sba(iArchitecture
Cluster
p1995
(dp1996
g7
(lp1997
(iArchitecture
Entity
p1998
(dp1999
g11
(lp2000
sg13
S'com.android.server.net.NetworkPolicyManagerShellCommand'
p2001
sg15
(lp2002
sg17
(lp2003
sg19
(lp2004
sg21
I0
sbasg57
(lp2005
g2001
asg21
I0
sg59
S'484'
p2006
sba(iArchitecture
Cluster
p2007
(dp2008
g7
(lp2009
(iArchitecture
Entity
p2010
(dp2011
g11
(lp2012
sg13
S'android.telephony.SubscriptionInfo'
p2013
sg15
(lp2014
sg17
(lp2015
sg19
(lp2016
sg21
I0
sba(iArchitecture
Entity
p2017
(dp2018
g11
(lp2019
sg13
S'android.telephony.SubscriptionInfo$1'
p2020
sg15
(lp2021
sg17
(lp2022
sg19
(lp2023
sg21
I0
sbasg57
(lp2024
g2013
ag2020
asg21
I0
sg59
S'584'
p2025
sba(iArchitecture
Cluster
p2026
(dp2027
g7
(lp2028
(iArchitecture
Entity
p2029
(dp2030
g11
(lp2031
sg13
S'android.telephony.CellInfoWcdma'
p2032
sg15
(lp2033
sg17
(lp2034
sg19
(lp2035
sg21
I0
sba(iArchitecture
Entity
p2036
(dp2037
g11
(lp2038
sg13
S'android.telephony.CellInfoWcdma$1'
p2039
sg15
(lp2040
sg17
(lp2041
sg19
(lp2042
sg21
I0
sbasg57
(lp2043
g2032
ag2039
asg21
I0
sg59
S'684'
p2044
sba(iArchitecture
Cluster
p2045
(dp2046
g7
(lp2047
(iArchitecture
Entity
p2048
(dp2049
g11
(lp2050
sg13
S'android.text.format.Time'
p2051
sg15
(lp2052
sg17
(lp2053
sg19
(lp2054
sg21
I0
sba(iArchitecture
Entity
p2055
(dp2056
g11
(lp2057
sg13
S'android.text.format.Time$TimeCalculator'
p2058
sg15
(lp2059
sg17
(lp2060
sg19
(lp2061
sg21
I0
sbasg57
(lp2062
g2051
ag2058
asg21
I0
sg59
S'784'
p2063
sba(iArchitecture
Cluster
p2064
(dp2065
g7
(lp2066
(iArchitecture
Entity
p2067
(dp2068
g11
(lp2069
sg13
S'android.graphics.Movie'
p2070
sg15
(lp2071
sg17
(lp2072
sg19
(lp2073
sg21
I0
sbasg57
(lp2074
g2070
asg21
I0
sg59
S'84'
p2075
sba(iArchitecture
Cluster
p2076
(dp2077
g7
(lp2078
(iArchitecture
Entity
p2079
(dp2080
g11
(lp2081
sg13
S'android.bluetooth.le.ScanFilter'
p2082
sg15
(lp2083
sg17
(lp2084
sg19
(lp2085
sg21
I0
sba(iArchitecture
Entity
p2086
(dp2087
g11
(lp2088
sg13
S'android.bluetooth.le.ScanFilter$1'
p2089
sg15
(lp2090
sg17
(lp2091
sg19
(lp2092
sg21
I0
sba(iArchitecture
Entity
p2093
(dp2094
g11
(lp2095
sg13
S'android.bluetooth.le.ScanFilter$Builder'
p2096
sg15
(lp2097
sg17
(lp2098
sg19
(lp2099
sg21
I0
sbasg57
(lp2100
g2082
ag2089
ag2096
asg21
I0
sg59
S'840'
p2101
sba(iArchitecture
Cluster
p2102
(dp2103
g7
(lp2104
(iArchitecture
Entity
p2105
(dp2106
g11
(lp2107
sg13
S'android.media.AudioAttributes'
p2108
sg15
(lp2109
sg17
(lp2110
sg19
(lp2111
sg21
I0
sba(iArchitecture
Entity
p2112
(dp2113
g11
(lp2114
sg13
S'android.media.AudioAttributes$1'
p2115
sg15
(lp2116
sg17
(lp2117
sg19
(lp2118
sg21
I0
sba(iArchitecture
Entity
p2119
(dp2120
g11
(lp2121
sg13
S'android.media.AudioAttributes$Builder'
p2122
sg15
(lp2123
sg17
(lp2124
sg19
(lp2125
sg21
I0
sbasg57
(lp2126
g2108
ag2115
ag2122
asg21
I0
sg59
S'841'
p2127
sba(iArchitecture
Cluster
p2128
(dp2129
g7
(lp2130
(iArchitecture
Entity
p2131
(dp2132
g11
(lp2133
sg13
S'android.view.inputmethod.InputMethodSubtype'
p2134
sg15
(lp2135
sg17
(lp2136
sg19
(lp2137
sg21
I0
sba(iArchitecture
Entity
p2138
(dp2139
g11
(lp2140
sg13
S'android.view.inputmethod.InputMethodSubtype$1'
p2141
sg15
(lp2142
sg17
(lp2143
sg19
(lp2144
sg21
I0
sba(iArchitecture
Entity
p2145
(dp2146
g11
(lp2147
sg13
S'android.view.inputmethod.InputMethodSubtype$InputMethodSubtypeBuilder'
p2148
sg15
(lp2149
sg17
(lp2150
sg19
(lp2151
sg21
I0
sbasg57
(lp2152
g2134
ag2141
ag2148
asg21
I0
sg59
S'842'
p2153
sba(iArchitecture
Cluster
p2154
(dp2155
g7
(lp2156
(iArchitecture
Entity
p2157
(dp2158
g11
(lp2159
sg13
S'android.content.SharedPreferences'
p2160
sg15
(lp2161
sg17
(lp2162
sg19
(lp2163
sg21
I0
sba(iArchitecture
Entity
p2164
(dp2165
g11
(lp2166
sg13
S'android.content.SharedPreferences$Editor'
p2167
sg15
(lp2168
sg17
(lp2169
sg19
(lp2170
sg21
I0
sba(iArchitecture
Entity
p2171
(dp2172
g11
(lp2173
sg13
S'android.content.SharedPreferences$OnSharedPreferenceChangeListener'
p2174
sg15
(lp2175
sg17
(lp2176
sg19
(lp2177
sg21
I0
sbasg57
(lp2178
g2160
ag2167
ag2174
asg21
I0
sg59
S'843'
p2179
sba(iArchitecture
Cluster
p2180
(dp2181
g7
(lp2182
(iArchitecture
Entity
p2183
(dp2184
g11
(lp2185
sg13
S'android.content.ContentProviderClient'
p2186
sg15
(lp2187
sg17
(lp2188
sg19
(lp2189
sg21
I0
sba(iArchitecture
Entity
p2190
(dp2191
g11
(lp2192
sg13
S'android.content.ContentProviderClient$CursorWrapperInner'
p2193
sg15
(lp2194
sg17
(lp2195
sg19
(lp2196
sg21
I0
sba(iArchitecture
Entity
p2197
(dp2198
g11
(lp2199
sg13
S'android.content.ContentProviderClient$NotRespondingRunnable'
p2200
sg15
(lp2201
sg17
(lp2202
sg19
(lp2203
sg21
I0
sbasg57
(lp2204
g2186
ag2193
ag2200
asg21
I0
sg59
S'844'
p2205
sba(iArchitecture
Cluster
p2206
(dp2207
g7
(lp2208
(iArchitecture
Entity
p2209
(dp2210
g11
(lp2211
sg13
S'com.android.internal.app.procstats.ProcessState'
p2212
sg15
(lp2213
sg17
(lp2214
sg19
(lp2215
sg21
I0
sba(iArchitecture
Entity
p2216
(dp2217
g11
(lp2218
sg13
S'com.android.internal.app.procstats.ProcessState$1'
p2219
sg15
(lp2220
sg17
(lp2221
sg19
(lp2222
sg21
I0
sba(iArchitecture
Entity
p2223
(dp2224
g11
(lp2225
sg13
S'com.android.internal.app.procstats.ProcessState$PssAggr'
p2226
sg15
(lp2227
sg17
(lp2228
sg19
(lp2229
sg21
I0
sbasg57
(lp2230
g2212
ag2219
ag2226
asg21
I0
sg59
S'845'
p2231
sba(iArchitecture
Cluster
p2232
(dp2233
g7
(lp2234
(iArchitecture
Entity
p2235
(dp2236
g11
(lp2237
sg13
S'android.media.AudioFormat'
p2238
sg15
(lp2239
sg17
(lp2240
sg19
(lp2241
sg21
I0
sba(iArchitecture
Entity
p2242
(dp2243
g11
(lp2244
sg13
S'android.media.AudioFormat$1'
p2245
sg15
(lp2246
sg17
(lp2247
sg19
(lp2248
sg21
I0
sba(iArchitecture
Entity
p2249
(dp2250
g11
(lp2251
sg13
S'android.media.AudioFormat$Builder'
p2252
sg15
(lp2253
sg17
(lp2254
sg19
(lp2255
sg21
I0
sbasg57
(lp2256
g2238
ag2245
ag2252
asg21
I0
sg59
S'846'
p2257
sba(iArchitecture
Cluster
p2258
(dp2259
g7
(lp2260
(iArchitecture
Entity
p2261
(dp2262
g11
(lp2263
sg13
S'android.widget.DigitalClock'
p2264
sg15
(lp2265
sg17
(lp2266
sg19
(lp2267
sg21
I0
sba(iArchitecture
Entity
p2268
(dp2269
g11
(lp2270
sg13
S'android.widget.DigitalClock$1'
p2271
sg15
(lp2272
sg17
(lp2273
sg19
(lp2274
sg21
I0
sba(iArchitecture
Entity
p2275
(dp2276
g11
(lp2277
sg13
S'android.widget.DigitalClock$FormatChangeObserver'
p2278
sg15
(lp2279
sg17
(lp2280
sg19
(lp2281
sg21
I0
sbasg57
(lp2282
g2264
ag2271
ag2278
asg21
I0
sg59
S'847'
p2283
sba(iArchitecture
Cluster
p2284
(dp2285
g7
(lp2286
(iArchitecture
Entity
p2287
(dp2288
g11
(lp2289
sg13
S'com.android.internal.widget.PointerLocationView'
p2290
sg15
(lp2291
sg17
(lp2292
sg19
(lp2293
sg21
I0
sba(iArchitecture
Entity
p2294
(dp2295
g11
(lp2296
sg13
S'com.android.internal.widget.PointerLocationView$FasterStringBuilder'
p2297
sg15
(lp2298
sg17
(lp2299
sg19
(lp2300
sg21
I0
sba(iArchitecture
Entity
p2301
(dp2302
g11
(lp2303
sg13
S'com.android.internal.widget.PointerLocationView$PointerState'
p2304
sg15
(lp2305
sg17
(lp2306
sg19
(lp2307
sg21
I0
sbasg57
(lp2308
g2290
ag2297
ag2304
asg21
I0
sg59
S'848'
p2309
sba(iArchitecture
Cluster
p2310
(dp2311
g7
(lp2312
(iArchitecture
Entity
p2313
(dp2314
g11
(lp2315
sg13
S'android.preference.PreferenceGroupAdapter'
p2316
sg15
(lp2317
sg17
(lp2318
sg19
(lp2319
sg21
I0
sba(iArchitecture
Entity
p2320
(dp2321
g11
(lp2322
sg13
S'android.preference.PreferenceGroupAdapter$1'
p2323
sg15
(lp2324
sg17
(lp2325
sg19
(lp2326
sg21
I0
sba(iArchitecture
Entity
p2327
(dp2328
g11
(lp2329
sg13
S'android.preference.PreferenceGroupAdapter$PreferenceLayout'
p2330
sg15
(lp2331
sg17
(lp2332
sg19
(lp2333
sg21
I0
sbasg57
(lp2334
g2316
ag2323
ag2330
asg21
I0
sg59
S'849'
p2335
sba(iArchitecture
Cluster
p2336
(dp2337
g7
(lp2338
(iArchitecture
Entity
p2339
(dp2340
g11
(lp2341
sg13
S'android.hardware.soundtrigger.SoundTriggerModule'
p2342
sg15
(lp2343
sg17
(lp2344
sg19
(lp2345
sg21
I0
sba(iArchitecture
Entity
p2346
(dp2347
g11
(lp2348
sg13
S'android.hardware.soundtrigger.SoundTriggerModule$NativeEventHandlerDelegate'
p2349
sg15
(lp2350
sg17
(lp2351
sg19
(lp2352
sg21
I0
sba(iArchitecture
Entity
p2353
(dp2354
g11
(lp2355
sg13
S'android.hardware.soundtrigger.SoundTriggerModule$NativeEventHandlerDelegate$1'
p2356
sg15
(lp2357
sg17
(lp2358
sg19
(lp2359
sg21
I0
sbasg57
(lp2360
g2342
ag2349
ag2356
asg21
I0
sg59
S'884'
p2361
sba(iArchitecture
Cluster
p2362
(dp2363
g7
(lp2364
(iArchitecture
Entity
p2365
(dp2366
g11
(lp2367
sg13
S'android.widget.CheckedTextView'
p2368
sg15
(lp2369
sg17
(lp2370
sg19
(lp2371
sg21
I0
sba(iArchitecture
Entity
p2372
(dp2373
g11
(lp2374
sg13
S'android.widget.CheckedTextView$SavedState'
p2375
sg15
(lp2376
sg17
(lp2377
sg19
(lp2378
sg21
I0
sba(iArchitecture
Entity
p2379
(dp2380
g11
(lp2381
sg13
S'android.widget.CheckedTextView$SavedState$1'
p2382
sg15
(lp2383
sg17
(lp2384
sg19
(lp2385
sg21
I0
sbasg57
(lp2386
g2368
ag2375
ag2382
asg21
I0
sg59
S'984'
p2387
sbasS'target_sub'
p2388
S'84'
p2389
sg57
(lp2390
sS'is_component_arch'
p2391
I01
sg59
S'7.0.0_r1'
p2392
sba.