(lp0
(iArchitecture
Architecture
p1
(dp2
S'clusters'
p3
(lp4
(iArchitecture
Cluster
p5
(dp6
S'entities'
p7
(lp8
(iArchitecture
Entity
p9
(dp10
S'issue_ids'
p11
(lp12
sS'name'
p13
S'com.android.server.GestureLauncherService'
p14
sS'descs'
p15
(lp16
sS'labels'
p17
(lp18
sS'titles'
p19
(lp20
sS'change'
p21
I0
sba(iArchitecture
Entity
p22
(dp23
g11
(lp24
sg13
S'com.android.server.GestureLauncherService$1'
p25
sg15
(lp26
sg17
(lp27
sg19
(lp28
sg21
I0
sba(iArchitecture
Entity
p29
(dp30
g11
(lp31
sg13
S'com.android.server.GestureLauncherService$2'
p32
sg15
(lp33
sg17
(lp34
sg19
(lp35
sg21
I0
sba(iArchitecture
Entity
p36
(dp37
g11
(lp38
sg13
S'com.android.server.GestureLauncherService$GestureEventListener'
p39
sg15
(lp40
sg17
(lp41
sg19
(lp42
sg21
I0
sbasS'classes'
p43
(lp44
g14
ag25
ag32
ag39
asg21
I0
sS'label'
p45
S'1022'
p46
sba(iArchitecture
Cluster
p47
(dp48
g7
(lp49
(iArchitecture
Entity
p50
(dp51
g11
(lp52
sg13
S'android.hardware.display.DisplayManagerGlobal'
p53
sg15
(lp54
sg17
(lp55
sg19
(lp56
sg21
I0
sba(iArchitecture
Entity
p57
(dp58
g11
(lp59
sg13
S'android.hardware.display.DisplayManagerGlobal$DisplayListenerDelegate'
p60
sg15
(lp61
sg17
(lp62
sg19
(lp63
sg21
I0
sba(iArchitecture
Entity
p64
(dp65
g11
(lp66
sg13
S'android.hardware.display.DisplayManagerGlobal$DisplayManagerCallback'
p67
sg15
(lp68
sg17
(lp69
sg19
(lp70
sg21
I0
sba(iArchitecture
Entity
p71
(dp72
g11
(lp73
sg13
S'android.hardware.display.DisplayManagerGlobal$VirtualDisplayCallback'
p74
sg15
(lp75
sg17
(lp76
sg19
(lp77
sg21
I0
sba(iArchitecture
Entity
p78
(dp79
g11
(lp80
sg13
S'android.hardware.display.DisplayManagerGlobal$VirtualDisplayCallbackDelegate'
p81
sg15
(lp82
sg17
(lp83
sg19
(lp84
sg21
I0
sbasg43
(lp85
g53
ag60
ag67
ag74
ag81
asg21
I0
sg45
S'1122'
p86
sba(iArchitecture
Cluster
p87
(dp88
g7
(lp89
(iArchitecture
Entity
p90
(dp91
g11
(lp92
sg13
S'android.telecom.DefaultDialerManager'
p93
sg15
(lp94
sg17
(lp95
sg19
(lp96
sg21
I0
sbasg43
(lp97
g93
asg21
I0
sg45
S'122'
p98
sba(iArchitecture
Cluster
p99
(dp100
g7
(lp101
(iArchitecture
Entity
p102
(dp103
g11
(lp104
sg13
S'com.android.server.print.RemotePrintSpooler'
p105
sg15
(lp106
sg17
(lp107
sg19
(lp108
sg21
I0
sba(iArchitecture
Entity
p109
(dp110
g11
(lp111
sg13
S'com.android.server.print.RemotePrintSpooler$BasePrintSpoolerServiceCallbacks'
p112
sg15
(lp113
sg17
(lp114
sg19
(lp115
sg21
I0
sba(iArchitecture
Entity
p116
(dp117
g11
(lp118
sg13
S'com.android.server.print.RemotePrintSpooler$ClearCustomPrinterIconCacheCaller'
p119
sg15
(lp120
sg17
(lp121
sg19
(lp122
sg21
I0
sba(iArchitecture
Entity
p123
(dp124
g11
(lp125
sg13
S'com.android.server.print.RemotePrintSpooler$ClearCustomPrinterIconCacheCaller$1'
p126
sg15
(lp127
sg17
(lp128
sg19
(lp129
sg21
I0
sba(iArchitecture
Entity
p130
(dp131
g11
(lp132
sg13
S'com.android.server.print.RemotePrintSpooler$GetCustomPrinterIconCaller'
p133
sg15
(lp134
sg17
(lp135
sg19
(lp136
sg21
I0
sba(iArchitecture
Entity
p137
(dp138
g11
(lp139
sg13
S'com.android.server.print.RemotePrintSpooler$GetCustomPrinterIconCaller$1'
p140
sg15
(lp141
sg17
(lp142
sg19
(lp143
sg21
I0
sba(iArchitecture
Entity
p144
(dp145
g11
(lp146
sg13
S'com.android.server.print.RemotePrintSpooler$GetPrintJobInfoCaller'
p147
sg15
(lp148
sg17
(lp149
sg19
(lp150
sg21
I0
sba(iArchitecture
Entity
p151
(dp152
g11
(lp153
sg13
S'com.android.server.print.RemotePrintSpooler$GetPrintJobInfoCaller$1'
p154
sg15
(lp155
sg17
(lp156
sg19
(lp157
sg21
I0
sba(iArchitecture
Entity
p158
(dp159
g11
(lp160
sg13
S'com.android.server.print.RemotePrintSpooler$GetPrintJobInfosCaller'
p161
sg15
(lp162
sg17
(lp163
sg19
(lp164
sg21
I0
sba(iArchitecture
Entity
p165
(dp166
g11
(lp167
sg13
S'com.android.server.print.RemotePrintSpooler$GetPrintJobInfosCaller$1'
p168
sg15
(lp169
sg17
(lp170
sg19
(lp171
sg21
I0
sba(iArchitecture
Entity
p172
(dp173
g11
(lp174
sg13
S'com.android.server.print.RemotePrintSpooler$MyServiceConnection'
p175
sg15
(lp176
sg17
(lp177
sg19
(lp178
sg21
I0
sba(iArchitecture
Entity
p179
(dp180
g11
(lp181
sg13
S'com.android.server.print.RemotePrintSpooler$OnCustomPrinterIconLoadedCaller'
p182
sg15
(lp183
sg17
(lp184
sg19
(lp185
sg21
I0
sba(iArchitecture
Entity
p186
(dp187
g11
(lp188
sg13
S'com.android.server.print.RemotePrintSpooler$OnCustomPrinterIconLoadedCaller$1'
p189
sg15
(lp190
sg17
(lp191
sg19
(lp192
sg21
I0
sba(iArchitecture
Entity
p193
(dp194
g11
(lp195
sg13
S'com.android.server.print.RemotePrintSpooler$PrintSpoolerCallbacks'
p196
sg15
(lp197
sg17
(lp198
sg19
(lp199
sg21
I0
sba(iArchitecture
Entity
p200
(dp201
g11
(lp202
sg13
S'com.android.server.print.RemotePrintSpooler$PrintSpoolerClient'
p203
sg15
(lp204
sg17
(lp205
sg19
(lp206
sg21
I0
sba(iArchitecture
Entity
p207
(dp208
g11
(lp209
sg13
S'com.android.server.print.RemotePrintSpooler$SetPrintJobStateCaller'
p210
sg15
(lp211
sg17
(lp212
sg19
(lp213
sg21
I0
sba(iArchitecture
Entity
p214
(dp215
g11
(lp216
sg13
S'com.android.server.print.RemotePrintSpooler$SetPrintJobStateCaller$1'
p217
sg15
(lp218
sg17
(lp219
sg19
(lp220
sg21
I0
sba(iArchitecture
Entity
p221
(dp222
g11
(lp223
sg13
S'com.android.server.print.RemotePrintSpooler$SetPrintJobTagCaller'
p224
sg15
(lp225
sg17
(lp226
sg19
(lp227
sg21
I0
sba(iArchitecture
Entity
p228
(dp229
g11
(lp230
sg13
S'com.android.server.print.RemotePrintSpooler$SetPrintJobTagCaller$1'
p231
sg15
(lp232
sg17
(lp233
sg19
(lp234
sg21
I0
sbasg43
(lp235
g105
ag112
ag119
ag126
ag133
ag140
ag147
ag154
ag161
ag168
ag175
ag182
ag189
ag196
ag203
ag210
ag217
ag224
ag231
asg21
I0
sg45
S'1220'
p236
sba(iArchitecture
Cluster
p237
(dp238
g7
(lp239
(iArchitecture
Entity
p240
(dp241
g11
(lp242
sg13
S'com.android.server.firewall.StringFilter'
p243
sg15
(lp244
sg17
(lp245
sg19
(lp246
sg21
I0
sba(iArchitecture
Entity
p247
(dp248
g11
(lp249
sg13
S'com.android.server.firewall.StringFilter$1'
p250
sg15
(lp251
sg17
(lp252
sg19
(lp253
sg21
I0
sba(iArchitecture
Entity
p254
(dp255
g11
(lp256
sg13
S'com.android.server.firewall.StringFilter$10'
p257
sg15
(lp258
sg17
(lp259
sg19
(lp260
sg21
I0
sba(iArchitecture
Entity
p261
(dp262
g11
(lp263
sg13
S'com.android.server.firewall.StringFilter$2'
p264
sg15
(lp265
sg17
(lp266
sg19
(lp267
sg21
I0
sba(iArchitecture
Entity
p268
(dp269
g11
(lp270
sg13
S'com.android.server.firewall.StringFilter$3'
p271
sg15
(lp272
sg17
(lp273
sg19
(lp274
sg21
I0
sba(iArchitecture
Entity
p275
(dp276
g11
(lp277
sg13
S'com.android.server.firewall.StringFilter$4'
p278
sg15
(lp279
sg17
(lp280
sg19
(lp281
sg21
I0
sba(iArchitecture
Entity
p282
(dp283
g11
(lp284
sg13
S'com.android.server.firewall.StringFilter$5'
p285
sg15
(lp286
sg17
(lp287
sg19
(lp288
sg21
I0
sba(iArchitecture
Entity
p289
(dp290
g11
(lp291
sg13
S'com.android.server.firewall.StringFilter$6'
p292
sg15
(lp293
sg17
(lp294
sg19
(lp295
sg21
I0
sba(iArchitecture
Entity
p296
(dp297
g11
(lp298
sg13
S'com.android.server.firewall.StringFilter$7'
p299
sg15
(lp300
sg17
(lp301
sg19
(lp302
sg21
I0
sba(iArchitecture
Entity
p303
(dp304
g11
(lp305
sg13
S'com.android.server.firewall.StringFilter$8'
p306
sg15
(lp307
sg17
(lp308
sg19
(lp309
sg21
I0
sba(iArchitecture
Entity
p310
(dp311
g11
(lp312
sg13
S'com.android.server.firewall.StringFilter$9'
p313
sg15
(lp314
sg17
(lp315
sg19
(lp316
sg21
I0
sba(iArchitecture
Entity
p317
(dp318
g11
(lp319
sg13
S'com.android.server.firewall.StringFilter$ContainsFilter'
p320
sg15
(lp321
sg17
(lp322
sg19
(lp323
sg21
I0
sba(iArchitecture
Entity
p324
(dp325
g11
(lp326
sg13
S'com.android.server.firewall.StringFilter$EqualsFilter'
p327
sg15
(lp328
sg17
(lp329
sg19
(lp330
sg21
I0
sba(iArchitecture
Entity
p331
(dp332
g11
(lp333
sg13
S'com.android.server.firewall.StringFilter$IsNullFilter'
p334
sg15
(lp335
sg17
(lp336
sg19
(lp337
sg21
I0
sba(iArchitecture
Entity
p338
(dp339
g11
(lp340
sg13
S'com.android.server.firewall.StringFilter$PatternStringFilter'
p341
sg15
(lp342
sg17
(lp343
sg19
(lp344
sg21
I0
sba(iArchitecture
Entity
p345
(dp346
g11
(lp347
sg13
S'com.android.server.firewall.StringFilter$RegexFilter'
p348
sg15
(lp349
sg17
(lp350
sg19
(lp351
sg21
I0
sba(iArchitecture
Entity
p352
(dp353
g11
(lp354
sg13
S'com.android.server.firewall.StringFilter$StartsWithFilter'
p355
sg15
(lp356
sg17
(lp357
sg19
(lp358
sg21
I0
sba(iArchitecture
Entity
p359
(dp360
g11
(lp361
sg13
S'com.android.server.firewall.StringFilter$ValueProvider'
p362
sg15
(lp363
sg17
(lp364
sg19
(lp365
sg21
I0
sbasg43
(lp366
g243
ag250
ag257
ag264
ag271
ag278
ag285
ag292
ag299
ag306
ag313
ag320
ag327
ag334
ag341
ag348
ag355
ag362
asg21
I0
sg45
S'1221'
p367
sba(iArchitecture
Cluster
p368
(dp369
g7
(lp370
(iArchitecture
Entity
p371
(dp372
g11
(lp373
sg13
S'android.view.ViewDebug'
p374
sg15
(lp375
sg17
(lp376
sg19
(lp377
sg21
I0
sba(iArchitecture
Entity
p378
(dp379
g11
(lp380
sg13
S'android.view.ViewDebug$1'
p381
sg15
(lp382
sg17
(lp383
sg19
(lp384
sg21
I0
sba(iArchitecture
Entity
p385
(dp386
g11
(lp387
sg13
S'android.view.ViewDebug$10'
p388
sg15
(lp389
sg17
(lp390
sg19
(lp391
sg21
I0
sba(iArchitecture
Entity
p392
(dp393
g11
(lp394
sg13
S'android.view.ViewDebug$2'
p395
sg15
(lp396
sg17
(lp397
sg19
(lp398
sg21
I0
sba(iArchitecture
Entity
p399
(dp400
g11
(lp401
sg13
S'android.view.ViewDebug$3'
p402
sg15
(lp403
sg17
(lp404
sg19
(lp405
sg21
I0
sba(iArchitecture
Entity
p406
(dp407
g11
(lp408
sg13
S'android.view.ViewDebug$4'
p409
sg15
(lp410
sg17
(lp411
sg19
(lp412
sg21
I0
sba(iArchitecture
Entity
p413
(dp414
g11
(lp415
sg13
S'android.view.ViewDebug$5'
p416
sg15
(lp417
sg17
(lp418
sg19
(lp419
sg21
I0
sba(iArchitecture
Entity
p420
(dp421
g11
(lp422
sg13
S'android.view.ViewDebug$6'
p423
sg15
(lp424
sg17
(lp425
sg19
(lp426
sg21
I0
sba(iArchitecture
Entity
p427
(dp428
g11
(lp429
sg13
S'android.view.ViewDebug$7'
p430
sg15
(lp431
sg17
(lp432
sg19
(lp433
sg21
I0
sba(iArchitecture
Entity
p434
(dp435
g11
(lp436
sg13
S'android.view.ViewDebug$8'
p437
sg15
(lp438
sg17
(lp439
sg19
(lp440
sg21
I0
sba(iArchitecture
Entity
p441
(dp442
g11
(lp443
sg13
S'android.view.ViewDebug$9'
p444
sg15
(lp445
sg17
(lp446
sg19
(lp447
sg21
I0
sba(iArchitecture
Entity
p448
(dp449
g11
(lp450
sg13
S'android.view.ViewDebug$CapturedViewProperty'
p451
sg15
(lp452
sg17
(lp453
sg19
(lp454
sg21
I0
sba(iArchitecture
Entity
p455
(dp456
g11
(lp457
sg13
S'android.view.ViewDebug$ExportedProperty'
p458
sg15
(lp459
sg17
(lp460
sg19
(lp461
sg21
I0
sba(iArchitecture
Entity
p462
(dp463
g11
(lp464
sg13
S'android.view.ViewDebug$FlagToString'
p465
sg15
(lp466
sg17
(lp467
sg19
(lp468
sg21
I0
sba(iArchitecture
Entity
p469
(dp470
g11
(lp471
sg13
S'android.view.ViewDebug$HierarchyHandler'
p472
sg15
(lp473
sg17
(lp474
sg19
(lp475
sg21
I0
sba(iArchitecture
Entity
p476
(dp477
g11
(lp478
sg13
S'android.view.ViewDebug$HierarchyTraceType'
p479
sg15
(lp480
sg17
(lp481
sg19
(lp482
sg21
I0
sba(iArchitecture
Entity
p483
(dp484
g11
(lp485
sg13
S'android.view.ViewDebug$IntToString'
p486
sg15
(lp487
sg17
(lp488
sg19
(lp489
sg21
I0
sba(iArchitecture
Entity
p490
(dp491
g11
(lp492
sg13
S'android.view.ViewDebug$RecyclerTraceType'
p493
sg15
(lp494
sg17
(lp495
sg19
(lp496
sg21
I0
sba(iArchitecture
Entity
p497
(dp498
g11
(lp499
sg13
S'android.view.ViewDebug$ViewOperation'
p500
sg15
(lp501
sg17
(lp502
sg19
(lp503
sg21
I0
sbasg43
(lp504
g374
ag381
ag388
ag395
ag402
ag409
ag416
ag423
ag430
ag437
ag444
ag451
ag458
ag465
ag472
ag479
ag486
ag493
ag500
asg21
I0
sg45
S'1222'
p505
sba(iArchitecture
Cluster
p506
(dp507
g7
(lp508
(iArchitecture
Entity
p509
(dp510
g11
(lp511
sg13
S'com.android.server.connectivity.Tethering'
p512
sg15
(lp513
sg17
(lp514
sg19
(lp515
sg21
I0
sba(iArchitecture
Entity
p516
(dp517
g11
(lp518
sg13
S'com.android.server.connectivity.Tethering$1'
p519
sg15
(lp520
sg17
(lp521
sg19
(lp522
sg21
I0
sba(iArchitecture
Entity
p523
(dp524
g11
(lp525
sg13
S'com.android.server.connectivity.Tethering$2'
p526
sg15
(lp527
sg17
(lp528
sg19
(lp529
sg21
I0
sba(iArchitecture
Entity
p530
(dp531
g11
(lp532
sg13
S'com.android.server.connectivity.Tethering$StateReceiver'
p533
sg15
(lp534
sg17
(lp535
sg19
(lp536
sg21
I0
sba(iArchitecture
Entity
p537
(dp538
g11
(lp539
sg13
S'com.android.server.connectivity.Tethering$TetherInterfaceSM'
p540
sg15
(lp541
sg17
(lp542
sg19
(lp543
sg21
I0
sba(iArchitecture
Entity
p544
(dp545
g11
(lp546
sg13
S'com.android.server.connectivity.Tethering$TetherInterfaceSM$InitialState'
p547
sg15
(lp548
sg17
(lp549
sg19
(lp550
sg21
I0
sba(iArchitecture
Entity
p551
(dp552
g11
(lp553
sg13
S'com.android.server.connectivity.Tethering$TetherInterfaceSM$StartingState'
p554
sg15
(lp555
sg17
(lp556
sg19
(lp557
sg21
I0
sba(iArchitecture
Entity
p558
(dp559
g11
(lp560
sg13
S'com.android.server.connectivity.Tethering$TetherInterfaceSM$TetheredState'
p561
sg15
(lp562
sg17
(lp563
sg19
(lp564
sg21
I0
sba(iArchitecture
Entity
p565
(dp566
g11
(lp567
sg13
S'com.android.server.connectivity.Tethering$TetherInterfaceSM$UnavailableState'
p568
sg15
(lp569
sg17
(lp570
sg19
(lp571
sg21
I0
sba(iArchitecture
Entity
p572
(dp573
g11
(lp574
sg13
S'com.android.server.connectivity.Tethering$TetherMasterSM'
p575
sg15
(lp576
sg17
(lp577
sg19
(lp578
sg21
I0
sba(iArchitecture
Entity
p579
(dp580
g11
(lp581
sg13
S'com.android.server.connectivity.Tethering$TetherMasterSM$ErrorState'
p582
sg15
(lp583
sg17
(lp584
sg19
(lp585
sg21
I0
sba(iArchitecture
Entity
p586
(dp587
g11
(lp588
sg13
S'com.android.server.connectivity.Tethering$TetherMasterSM$InitialState'
p589
sg15
(lp590
sg17
(lp591
sg19
(lp592
sg21
I0
sba(iArchitecture
Entity
p593
(dp594
g11
(lp595
sg13
S'com.android.server.connectivity.Tethering$TetherMasterSM$SetDnsForwardersErrorState'
p596
sg15
(lp597
sg17
(lp598
sg19
(lp599
sg21
I0
sba(iArchitecture
Entity
p600
(dp601
g11
(lp602
sg13
S'com.android.server.connectivity.Tethering$TetherMasterSM$SetIpForwardingDisabledErrorState'
p603
sg15
(lp604
sg17
(lp605
sg19
(lp606
sg21
I0
sba(iArchitecture
Entity
p607
(dp608
g11
(lp609
sg13
S'com.android.server.connectivity.Tethering$TetherMasterSM$SetIpForwardingEnabledErrorState'
p610
sg15
(lp611
sg17
(lp612
sg19
(lp613
sg21
I0
sba(iArchitecture
Entity
p614
(dp615
g11
(lp616
sg13
S'com.android.server.connectivity.Tethering$TetherMasterSM$SimChangeBroadcastReceiver'
p617
sg15
(lp618
sg17
(lp619
sg19
(lp620
sg21
I0
sba(iArchitecture
Entity
p621
(dp622
g11
(lp623
sg13
S'com.android.server.connectivity.Tethering$TetherMasterSM$StartTetheringErrorState'
p624
sg15
(lp625
sg17
(lp626
sg19
(lp627
sg21
I0
sba(iArchitecture
Entity
p628
(dp629
g11
(lp630
sg13
S'com.android.server.connectivity.Tethering$TetherMasterSM$StopTetheringErrorState'
p631
sg15
(lp632
sg17
(lp633
sg19
(lp634
sg21
I0
sba(iArchitecture
Entity
p635
(dp636
g11
(lp637
sg13
S'com.android.server.connectivity.Tethering$TetherMasterSM$TetherMasterUtilState'
p638
sg15
(lp639
sg17
(lp640
sg19
(lp641
sg21
I0
sba(iArchitecture
Entity
p642
(dp643
g11
(lp644
sg13
S'com.android.server.connectivity.Tethering$TetherMasterSM$TetherModeAliveState'
p645
sg15
(lp646
sg17
(lp647
sg19
(lp648
sg21
I0
sba(iArchitecture
Entity
p649
(dp650
g11
(lp651
sg13
S'com.android.server.connectivity.Tethering$UpstreamNetworkCallback'
p652
sg15
(lp653
sg17
(lp654
sg19
(lp655
sg21
I0
sba(iArchitecture
Entity
p656
(dp657
g11
(lp658
sg13
S'com.android.server.connectivity.Tethering$UpstreamNetworkMonitor'
p659
sg15
(lp660
sg17
(lp661
sg19
(lp662
sg21
I0
sbasg43
(lp663
g512
ag519
ag526
ag533
ag540
ag547
ag554
ag561
ag568
ag575
ag582
ag589
ag596
ag603
ag610
ag617
ag624
ag631
ag638
ag645
ag652
ag659
asg21
I0
sg45
S'1223'
p664
sba(iArchitecture
Cluster
p665
(dp666
g7
(lp667
(iArchitecture
Entity
p668
(dp669
g11
(lp670
sg13
S'com.android.server.policy.GlobalActions'
p671
sg15
(lp672
sg17
(lp673
sg19
(lp674
sg21
I0
sba(iArchitecture
Entity
p675
(dp676
g11
(lp677
sg13
S'com.android.server.policy.GlobalActions$1'
p678
sg15
(lp679
sg17
(lp680
sg19
(lp681
sg21
I0
sba(iArchitecture
Entity
p682
(dp683
g11
(lp684
sg13
S'com.android.server.policy.GlobalActions$10'
p685
sg15
(lp686
sg17
(lp687
sg19
(lp688
sg21
I0
sba(iArchitecture
Entity
p689
(dp690
g11
(lp691
sg13
S'com.android.server.policy.GlobalActions$11'
p692
sg15
(lp693
sg17
(lp694
sg19
(lp695
sg21
I0
sba(iArchitecture
Entity
p696
(dp697
g11
(lp698
sg13
S'com.android.server.policy.GlobalActions$12'
p699
sg15
(lp700
sg17
(lp701
sg19
(lp702
sg21
I0
sba(iArchitecture
Entity
p703
(dp704
g11
(lp705
sg13
S'com.android.server.policy.GlobalActions$2'
p706
sg15
(lp707
sg17
(lp708
sg19
(lp709
sg21
I0
sba(iArchitecture
Entity
p710
(dp711
g11
(lp712
sg13
S'com.android.server.policy.GlobalActions$3'
p713
sg15
(lp714
sg17
(lp715
sg19
(lp716
sg21
I0
sba(iArchitecture
Entity
p717
(dp718
g11
(lp719
sg13
S'com.android.server.policy.GlobalActions$4'
p720
sg15
(lp721
sg17
(lp722
sg19
(lp723
sg21
I0
sba(iArchitecture
Entity
p724
(dp725
g11
(lp726
sg13
S'com.android.server.policy.GlobalActions$5'
p727
sg15
(lp728
sg17
(lp729
sg19
(lp730
sg21
I0
sba(iArchitecture
Entity
p731
(dp732
g11
(lp733
sg13
S'com.android.server.policy.GlobalActions$6'
p734
sg15
(lp735
sg17
(lp736
sg19
(lp737
sg21
I0
sba(iArchitecture
Entity
p738
(dp739
g11
(lp740
sg13
S'com.android.server.policy.GlobalActions$7'
p741
sg15
(lp742
sg17
(lp743
sg19
(lp744
sg21
I0
sba(iArchitecture
Entity
p745
(dp746
g11
(lp747
sg13
S'com.android.server.policy.GlobalActions$8'
p748
sg15
(lp749
sg17
(lp750
sg19
(lp751
sg21
I0
sba(iArchitecture
Entity
p752
(dp753
g11
(lp754
sg13
S'com.android.server.policy.GlobalActions$9'
p755
sg15
(lp756
sg17
(lp757
sg19
(lp758
sg21
I0
sba(iArchitecture
Entity
p759
(dp760
g11
(lp761
sg13
S'com.android.server.policy.GlobalActions$Action'
p762
sg15
(lp763
sg17
(lp764
sg19
(lp765
sg21
I0
sba(iArchitecture
Entity
p766
(dp767
g11
(lp768
sg13
S'com.android.server.policy.GlobalActions$BugReportAction'
p769
sg15
(lp770
sg17
(lp771
sg19
(lp772
sg21
I0
sba(iArchitecture
Entity
p773
(dp774
g11
(lp775
sg13
S'com.android.server.policy.GlobalActions$BugReportAction$1'
p776
sg15
(lp777
sg17
(lp778
sg19
(lp779
sg21
I0
sba(iArchitecture
Entity
p780
(dp781
g11
(lp782
sg13
S'com.android.server.policy.GlobalActions$GlobalActionsDialog'
p783
sg15
(lp784
sg17
(lp785
sg19
(lp786
sg21
I0
sba(iArchitecture
Entity
p787
(dp788
g11
(lp789
sg13
S'com.android.server.policy.GlobalActions$GlobalActionsDialog$1'
p790
sg15
(lp791
sg17
(lp792
sg19
(lp793
sg21
I0
sba(iArchitecture
Entity
p794
(dp795
g11
(lp796
sg13
S'com.android.server.policy.GlobalActions$LongPressAction'
p797
sg15
(lp798
sg17
(lp799
sg19
(lp800
sg21
I0
sba(iArchitecture
Entity
p801
(dp802
g11
(lp803
sg13
S'com.android.server.policy.GlobalActions$MyAdapter'
p804
sg15
(lp805
sg17
(lp806
sg19
(lp807
sg21
I0
sba(iArchitecture
Entity
p808
(dp809
g11
(lp810
sg13
S'com.android.server.policy.GlobalActions$PowerAction'
p811
sg15
(lp812
sg17
(lp813
sg19
(lp814
sg21
I0
sba(iArchitecture
Entity
p815
(dp816
g11
(lp817
sg13
S'com.android.server.policy.GlobalActions$SilentModeToggleAction'
p818
sg15
(lp819
sg17
(lp820
sg19
(lp821
sg21
I0
sba(iArchitecture
Entity
p822
(dp823
g11
(lp824
sg13
S'com.android.server.policy.GlobalActions$SilentModeTriStateAction'
p825
sg15
(lp826
sg17
(lp827
sg19
(lp828
sg21
I0
sba(iArchitecture
Entity
p829
(dp830
g11
(lp831
sg13
S'com.android.server.policy.GlobalActions$SinglePressAction'
p832
sg15
(lp833
sg17
(lp834
sg19
(lp835
sg21
I0
sba(iArchitecture
Entity
p836
(dp837
g11
(lp838
sg13
S'com.android.server.policy.GlobalActions$ToggleAction'
p839
sg15
(lp840
sg17
(lp841
sg19
(lp842
sg21
I0
sba(iArchitecture
Entity
p843
(dp844
g11
(lp845
sg13
S'com.android.server.policy.GlobalActions$ToggleAction$State'
p846
sg15
(lp847
sg17
(lp848
sg19
(lp849
sg21
I0
sbasg43
(lp850
g671
ag678
ag685
ag692
ag699
ag706
ag713
ag720
ag727
ag734
ag741
ag748
ag755
ag762
ag769
ag776
ag783
ag790
ag797
ag804
ag811
ag818
ag825
ag832
ag839
ag846
asg21
I0
sg45
S'1224'
p851
sba(iArchitecture
Cluster
p852
(dp853
g7
(lp854
(iArchitecture
Entity
p855
(dp856
g11
(lp857
sg13
S'android.telecom.RemoteConnection'
p858
sg15
(lp859
sg17
(lp860
sg19
(lp861
sg21
I0
sba(iArchitecture
Entity
p862
(dp863
g11
(lp864
sg13
S'android.telecom.RemoteConnection$1'
p865
sg15
(lp866
sg17
(lp867
sg19
(lp868
sg21
I0
sba(iArchitecture
Entity
p869
(dp870
g11
(lp871
sg13
S'android.telecom.RemoteConnection$10'
p872
sg15
(lp873
sg17
(lp874
sg19
(lp875
sg21
I0
sba(iArchitecture
Entity
p876
(dp877
g11
(lp878
sg13
S'android.telecom.RemoteConnection$11'
p879
sg15
(lp880
sg17
(lp881
sg19
(lp882
sg21
I0
sba(iArchitecture
Entity
p883
(dp884
g11
(lp885
sg13
S'android.telecom.RemoteConnection$12'
p886
sg15
(lp887
sg17
(lp888
sg19
(lp889
sg21
I0
sba(iArchitecture
Entity
p890
(dp891
g11
(lp892
sg13
S'android.telecom.RemoteConnection$13'
p893
sg15
(lp894
sg17
(lp895
sg19
(lp896
sg21
I0
sba(iArchitecture
Entity
p897
(dp898
g11
(lp899
sg13
S'android.telecom.RemoteConnection$14'
p900
sg15
(lp901
sg17
(lp902
sg19
(lp903
sg21
I0
sba(iArchitecture
Entity
p904
(dp905
g11
(lp906
sg13
S'android.telecom.RemoteConnection$15'
p907
sg15
(lp908
sg17
(lp909
sg19
(lp910
sg21
I0
sba(iArchitecture
Entity
p911
(dp912
g11
(lp913
sg13
S'android.telecom.RemoteConnection$16'
p914
sg15
(lp915
sg17
(lp916
sg19
(lp917
sg21
I0
sba(iArchitecture
Entity
p918
(dp919
g11
(lp920
sg13
S'android.telecom.RemoteConnection$17'
p921
sg15
(lp922
sg17
(lp923
sg19
(lp924
sg21
I0
sba(iArchitecture
Entity
p925
(dp926
g11
(lp927
sg13
S'android.telecom.RemoteConnection$18'
p928
sg15
(lp929
sg17
(lp930
sg19
(lp931
sg21
I0
sba(iArchitecture
Entity
p932
(dp933
g11
(lp934
sg13
S'android.telecom.RemoteConnection$2'
p935
sg15
(lp936
sg17
(lp937
sg19
(lp938
sg21
I0
sba(iArchitecture
Entity
p939
(dp940
g11
(lp941
sg13
S'android.telecom.RemoteConnection$3'
p942
sg15
(lp943
sg17
(lp944
sg19
(lp945
sg21
I0
sba(iArchitecture
Entity
p946
(dp947
g11
(lp948
sg13
S'android.telecom.RemoteConnection$4'
p949
sg15
(lp950
sg17
(lp951
sg19
(lp952
sg21
I0
sba(iArchitecture
Entity
p953
(dp954
g11
(lp955
sg13
S'android.telecom.RemoteConnection$5'
p956
sg15
(lp957
sg17
(lp958
sg19
(lp959
sg21
I0
sba(iArchitecture
Entity
p960
(dp961
g11
(lp962
sg13
S'android.telecom.RemoteConnection$6'
p963
sg15
(lp964
sg17
(lp965
sg19
(lp966
sg21
I0
sba(iArchitecture
Entity
p967
(dp968
g11
(lp969
sg13
S'android.telecom.RemoteConnection$7'
p970
sg15
(lp971
sg17
(lp972
sg19
(lp973
sg21
I0
sba(iArchitecture
Entity
p974
(dp975
g11
(lp976
sg13
S'android.telecom.RemoteConnection$8'
p977
sg15
(lp978
sg17
(lp979
sg19
(lp980
sg21
I0
sba(iArchitecture
Entity
p981
(dp982
g11
(lp983
sg13
S'android.telecom.RemoteConnection$9'
p984
sg15
(lp985
sg17
(lp986
sg19
(lp987
sg21
I0
sba(iArchitecture
Entity
p988
(dp989
g11
(lp990
sg13
S'android.telecom.RemoteConnection$Callback'
p991
sg15
(lp992
sg17
(lp993
sg19
(lp994
sg21
I0
sba(iArchitecture
Entity
p995
(dp996
g11
(lp997
sg13
S'android.telecom.RemoteConnection$CallbackRecord'
p998
sg15
(lp999
sg17
(lp1000
sg19
(lp1001
sg21
I0
sba(iArchitecture
Entity
p1002
(dp1003
g11
(lp1004
sg13
S'android.telecom.RemoteConnection$VideoProvider'
p1005
sg15
(lp1006
sg17
(lp1007
sg19
(lp1008
sg21
I0
sba(iArchitecture
Entity
p1009
(dp1010
g11
(lp1011
sg13
S'android.telecom.RemoteConnection$VideoProvider$1'
p1012
sg15
(lp1013
sg17
(lp1014
sg19
(lp1015
sg21
I0
sba(iArchitecture
Entity
p1016
(dp1017
g11
(lp1018
sg13
S'android.telecom.RemoteConnection$VideoProvider$Callback'
p1019
sg15
(lp1020
sg17
(lp1021
sg19
(lp1022
sg21
I0
sbasg43
(lp1023
g858
ag865
ag872
ag879
ag886
ag893
ag900
ag907
ag914
ag921
ag928
ag935
ag942
ag949
ag956
ag963
ag970
ag977
ag984
ag991
ag998
ag1005
ag1012
ag1019
asg21
I0
sg45
S'1225'
p1024
sba(iArchitecture
Cluster
p1025
(dp1026
g7
(lp1027
(iArchitecture
Entity
p1028
(dp1029
g11
(lp1030
sg13
S'android.net.wifi.WifiScanner'
p1031
sg15
(lp1032
sg17
(lp1033
sg19
(lp1034
sg21
I0
sba(iArchitecture
Entity
p1035
(dp1036
g11
(lp1037
sg13
S'android.net.wifi.WifiScanner$ActionListener'
p1038
sg15
(lp1039
sg17
(lp1040
sg19
(lp1041
sg21
I0
sba(iArchitecture
Entity
p1042
(dp1043
g11
(lp1044
sg13
S'android.net.wifi.WifiScanner$BssidInfo'
p1045
sg15
(lp1046
sg17
(lp1047
sg19
(lp1048
sg21
I0
sba(iArchitecture
Entity
p1049
(dp1050
g11
(lp1051
sg13
S'android.net.wifi.WifiScanner$BssidListener'
p1052
sg15
(lp1053
sg17
(lp1054
sg19
(lp1055
sg21
I0
sba(iArchitecture
Entity
p1056
(dp1057
g11
(lp1058
sg13
S'android.net.wifi.WifiScanner$ChannelSpec'
p1059
sg15
(lp1060
sg17
(lp1061
sg19
(lp1062
sg21
I0
sba(iArchitecture
Entity
p1063
(dp1064
g11
(lp1065
sg13
S'android.net.wifi.WifiScanner$HotlistSettings'
p1066
sg15
(lp1067
sg17
(lp1068
sg19
(lp1069
sg21
I0
sba(iArchitecture
Entity
p1070
(dp1071
g11
(lp1072
sg13
S'android.net.wifi.WifiScanner$HotlistSettings$1'
p1073
sg15
(lp1074
sg17
(lp1075
sg19
(lp1076
sg21
I0
sba(iArchitecture
Entity
p1077
(dp1078
g11
(lp1079
sg13
S'android.net.wifi.WifiScanner$OperationResult'
p1080
sg15
(lp1081
sg17
(lp1082
sg19
(lp1083
sg21
I0
sba(iArchitecture
Entity
p1084
(dp1085
g11
(lp1086
sg13
S'android.net.wifi.WifiScanner$OperationResult$1'
p1087
sg15
(lp1088
sg17
(lp1089
sg19
(lp1090
sg21
I0
sba(iArchitecture
Entity
p1091
(dp1092
g11
(lp1093
sg13
S'android.net.wifi.WifiScanner$ParcelableScanData'
p1094
sg15
(lp1095
sg17
(lp1096
sg19
(lp1097
sg21
I0
sba(iArchitecture
Entity
p1098
(dp1099
g11
(lp1100
sg13
S'android.net.wifi.WifiScanner$ParcelableScanData$1'
p1101
sg15
(lp1102
sg17
(lp1103
sg19
(lp1104
sg21
I0
sba(iArchitecture
Entity
p1105
(dp1106
g11
(lp1107
sg13
S'android.net.wifi.WifiScanner$ParcelableScanResults'
p1108
sg15
(lp1109
sg17
(lp1110
sg19
(lp1111
sg21
I0
sba(iArchitecture
Entity
p1112
(dp1113
g11
(lp1114
sg13
S'android.net.wifi.WifiScanner$ParcelableScanResults$1'
p1115
sg15
(lp1116
sg17
(lp1117
sg19
(lp1118
sg21
I0
sba(iArchitecture
Entity
p1119
(dp1120
g11
(lp1121
sg13
S'android.net.wifi.WifiScanner$PnoScanListener'
p1122
sg15
(lp1123
sg17
(lp1124
sg19
(lp1125
sg21
I0
sba(iArchitecture
Entity
p1126
(dp1127
g11
(lp1128
sg13
S'android.net.wifi.WifiScanner$PnoSettings'
p1129
sg15
(lp1130
sg17
(lp1131
sg19
(lp1132
sg21
I0
sba(iArchitecture
Entity
p1133
(dp1134
g11
(lp1135
sg13
S'android.net.wifi.WifiScanner$PnoSettings$1'
p1136
sg15
(lp1137
sg17
(lp1138
sg19
(lp1139
sg21
I0
sba(iArchitecture
Entity
p1140
(dp1141
g11
(lp1142
sg13
S'android.net.wifi.WifiScanner$PnoSettings$PnoNetwork'
p1143
sg15
(lp1144
sg17
(lp1145
sg19
(lp1146
sg21
I0
sba(iArchitecture
Entity
p1147
(dp1148
g11
(lp1149
sg13
S'android.net.wifi.WifiScanner$ScanData'
p1150
sg15
(lp1151
sg17
(lp1152
sg19
(lp1153
sg21
I0
sba(iArchitecture
Entity
p1154
(dp1155
g11
(lp1156
sg13
S'android.net.wifi.WifiScanner$ScanData$1'
p1157
sg15
(lp1158
sg17
(lp1159
sg19
(lp1160
sg21
I0
sba(iArchitecture
Entity
p1161
(dp1162
g11
(lp1163
sg13
S'android.net.wifi.WifiScanner$ScanListener'
p1164
sg15
(lp1165
sg17
(lp1166
sg19
(lp1167
sg21
I0
sba(iArchitecture
Entity
p1168
(dp1169
g11
(lp1170
sg13
S'android.net.wifi.WifiScanner$ScanSettings'
p1171
sg15
(lp1172
sg17
(lp1173
sg19
(lp1174
sg21
I0
sba(iArchitecture
Entity
p1175
(dp1176
g11
(lp1177
sg13
S'android.net.wifi.WifiScanner$ScanSettings$1'
p1178
sg15
(lp1179
sg17
(lp1180
sg19
(lp1181
sg21
I0
sba(iArchitecture
Entity
p1182
(dp1183
g11
(lp1184
sg13
S'android.net.wifi.WifiScanner$ServiceHandler'
p1185
sg15
(lp1186
sg17
(lp1187
sg19
(lp1188
sg21
I0
sba(iArchitecture
Entity
p1189
(dp1190
g11
(lp1191
sg13
S'android.net.wifi.WifiScanner$WifiChangeListener'
p1192
sg15
(lp1193
sg17
(lp1194
sg19
(lp1195
sg21
I0
sba(iArchitecture
Entity
p1196
(dp1197
g11
(lp1198
sg13
S'android.net.wifi.WifiScanner$WifiChangeSettings'
p1199
sg15
(lp1200
sg17
(lp1201
sg19
(lp1202
sg21
I0
sba(iArchitecture
Entity
p1203
(dp1204
g11
(lp1205
sg13
S'android.net.wifi.WifiScanner$WifiChangeSettings$1'
p1206
sg15
(lp1207
sg17
(lp1208
sg19
(lp1209
sg21
I0
sbasg43
(lp1210
g1031
ag1038
ag1045
ag1052
ag1059
ag1066
ag1073
ag1080
ag1087
ag1094
ag1101
ag1108
ag1115
ag1122
ag1129
ag1136
ag1143
ag1150
ag1157
ag1164
ag1171
ag1178
ag1185
ag1192
ag1199
ag1206
asg21
I0
sg45
S'1226'
p1211
sba(iArchitecture
Cluster
p1212
(dp1213
g7
(lp1214
(iArchitecture
Entity
p1215
(dp1216
g11
(lp1217
sg13
S'android.provider.CalendarContract'
p1218
sg15
(lp1219
sg17
(lp1220
sg19
(lp1221
sg21
I0
sba(iArchitecture
Entity
p1222
(dp1223
g11
(lp1224
sg13
S'android.provider.CalendarContract$Attendees'
p1225
sg15
(lp1226
sg17
(lp1227
sg19
(lp1228
sg21
I0
sba(iArchitecture
Entity
p1229
(dp1230
g11
(lp1231
sg13
S'android.provider.CalendarContract$AttendeesColumns'
p1232
sg15
(lp1233
sg17
(lp1234
sg19
(lp1235
sg21
I0
sba(iArchitecture
Entity
p1236
(dp1237
g11
(lp1238
sg13
S'android.provider.CalendarContract$CalendarAlerts'
p1239
sg15
(lp1240
sg17
(lp1241
sg19
(lp1242
sg21
I0
sba(iArchitecture
Entity
p1243
(dp1244
g11
(lp1245
sg13
S'android.provider.CalendarContract$CalendarAlertsColumns'
p1246
sg15
(lp1247
sg17
(lp1248
sg19
(lp1249
sg21
I0
sba(iArchitecture
Entity
p1250
(dp1251
g11
(lp1252
sg13
S'android.provider.CalendarContract$CalendarCache'
p1253
sg15
(lp1254
sg17
(lp1255
sg19
(lp1256
sg21
I0
sba(iArchitecture
Entity
p1257
(dp1258
g11
(lp1259
sg13
S'android.provider.CalendarContract$CalendarCacheColumns'
p1260
sg15
(lp1261
sg17
(lp1262
sg19
(lp1263
sg21
I0
sba(iArchitecture
Entity
p1264
(dp1265
g11
(lp1266
sg13
S'android.provider.CalendarContract$CalendarColumns'
p1267
sg15
(lp1268
sg17
(lp1269
sg19
(lp1270
sg21
I0
sba(iArchitecture
Entity
p1271
(dp1272
g11
(lp1273
sg13
S'android.provider.CalendarContract$CalendarEntity'
p1274
sg15
(lp1275
sg17
(lp1276
sg19
(lp1277
sg21
I0
sba(iArchitecture
Entity
p1278
(dp1279
g11
(lp1280
sg13
S'android.provider.CalendarContract$CalendarEntity$EntityIteratorImpl'
p1281
sg15
(lp1282
sg17
(lp1283
sg19
(lp1284
sg21
I0
sba(iArchitecture
Entity
p1285
(dp1286
g11
(lp1287
sg13
S'android.provider.CalendarContract$CalendarMetaData'
p1288
sg15
(lp1289
sg17
(lp1290
sg19
(lp1291
sg21
I0
sba(iArchitecture
Entity
p1292
(dp1293
g11
(lp1294
sg13
S'android.provider.CalendarContract$CalendarMetaDataColumns'
p1295
sg15
(lp1296
sg17
(lp1297
sg19
(lp1298
sg21
I0
sba(iArchitecture
Entity
p1299
(dp1300
g11
(lp1301
sg13
S'android.provider.CalendarContract$CalendarSyncColumns'
p1302
sg15
(lp1303
sg17
(lp1304
sg19
(lp1305
sg21
I0
sba(iArchitecture
Entity
p1306
(dp1307
g11
(lp1308
sg13
S'android.provider.CalendarContract$Calendars'
p1309
sg15
(lp1310
sg17
(lp1311
sg19
(lp1312
sg21
I0
sba(iArchitecture
Entity
p1313
(dp1314
g11
(lp1315
sg13
S'android.provider.CalendarContract$Colors'
p1316
sg15
(lp1317
sg17
(lp1318
sg19
(lp1319
sg21
I0
sba(iArchitecture
Entity
p1320
(dp1321
g11
(lp1322
sg13
S'android.provider.CalendarContract$ColorsColumns'
p1323
sg15
(lp1324
sg17
(lp1325
sg19
(lp1326
sg21
I0
sba(iArchitecture
Entity
p1327
(dp1328
g11
(lp1329
sg13
S'android.provider.CalendarContract$EventDays'
p1330
sg15
(lp1331
sg17
(lp1332
sg19
(lp1333
sg21
I0
sba(iArchitecture
Entity
p1334
(dp1335
g11
(lp1336
sg13
S'android.provider.CalendarContract$EventDaysColumns'
p1337
sg15
(lp1338
sg17
(lp1339
sg19
(lp1340
sg21
I0
sba(iArchitecture
Entity
p1341
(dp1342
g11
(lp1343
sg13
S'android.provider.CalendarContract$Events'
p1344
sg15
(lp1345
sg17
(lp1346
sg19
(lp1347
sg21
I0
sba(iArchitecture
Entity
p1348
(dp1349
g11
(lp1350
sg13
S'android.provider.CalendarContract$EventsColumns'
p1351
sg15
(lp1352
sg17
(lp1353
sg19
(lp1354
sg21
I0
sba(iArchitecture
Entity
p1355
(dp1356
g11
(lp1357
sg13
S'android.provider.CalendarContract$EventsEntity'
p1358
sg15
(lp1359
sg17
(lp1360
sg19
(lp1361
sg21
I0
sba(iArchitecture
Entity
p1362
(dp1363
g11
(lp1364
sg13
S'android.provider.CalendarContract$EventsEntity$EntityIteratorImpl'
p1365
sg15
(lp1366
sg17
(lp1367
sg19
(lp1368
sg21
I0
sba(iArchitecture
Entity
p1369
(dp1370
g11
(lp1371
sg13
S'android.provider.CalendarContract$EventsRawTimes'
p1372
sg15
(lp1373
sg17
(lp1374
sg19
(lp1375
sg21
I0
sba(iArchitecture
Entity
p1376
(dp1377
g11
(lp1378
sg13
S'android.provider.CalendarContract$EventsRawTimesColumns'
p1379
sg15
(lp1380
sg17
(lp1381
sg19
(lp1382
sg21
I0
sba(iArchitecture
Entity
p1383
(dp1384
g11
(lp1385
sg13
S'android.provider.CalendarContract$ExtendedProperties'
p1386
sg15
(lp1387
sg17
(lp1388
sg19
(lp1389
sg21
I0
sba(iArchitecture
Entity
p1390
(dp1391
g11
(lp1392
sg13
S'android.provider.CalendarContract$ExtendedPropertiesColumns'
p1393
sg15
(lp1394
sg17
(lp1395
sg19
(lp1396
sg21
I0
sba(iArchitecture
Entity
p1397
(dp1398
g11
(lp1399
sg13
S'android.provider.CalendarContract$Instances'
p1400
sg15
(lp1401
sg17
(lp1402
sg19
(lp1403
sg21
I0
sba(iArchitecture
Entity
p1404
(dp1405
g11
(lp1406
sg13
S'android.provider.CalendarContract$Reminders'
p1407
sg15
(lp1408
sg17
(lp1409
sg19
(lp1410
sg21
I0
sba(iArchitecture
Entity
p1411
(dp1412
g11
(lp1413
sg13
S'android.provider.CalendarContract$RemindersColumns'
p1414
sg15
(lp1415
sg17
(lp1416
sg19
(lp1417
sg21
I0
sba(iArchitecture
Entity
p1418
(dp1419
g11
(lp1420
sg13
S'android.provider.CalendarContract$SyncColumns'
p1421
sg15
(lp1422
sg17
(lp1423
sg19
(lp1424
sg21
I0
sba(iArchitecture
Entity
p1425
(dp1426
g11
(lp1427
sg13
S'android.provider.CalendarContract$SyncState'
p1428
sg15
(lp1429
sg17
(lp1430
sg19
(lp1431
sg21
I0
sbasg43
(lp1432
g1218
ag1225
ag1232
ag1239
ag1246
ag1253
ag1260
ag1267
ag1274
ag1281
ag1288
ag1295
ag1302
ag1309
ag1316
ag1323
ag1330
ag1337
ag1344
ag1351
ag1358
ag1365
ag1372
ag1379
ag1386
ag1393
ag1400
ag1407
ag1414
ag1421
ag1428
asg21
I0
sg45
S'1227'
p1433
sba(iArchitecture
Cluster
p1434
(dp1435
g7
(lp1436
(iArchitecture
Entity
p1437
(dp1438
g11
(lp1439
sg13
S'android.provider.Contacts'
p1440
sg15
(lp1441
sg17
(lp1442
sg19
(lp1443
sg21
I0
sba(iArchitecture
Entity
p1444
(dp1445
g11
(lp1446
sg13
S'android.provider.Contacts$ContactMethods'
p1447
sg15
(lp1448
sg17
(lp1449
sg19
(lp1450
sg21
I0
sba(iArchitecture
Entity
p1451
(dp1452
g11
(lp1453
sg13
S'android.provider.Contacts$ContactMethods$ProviderNames'
p1454
sg15
(lp1455
sg17
(lp1456
sg19
(lp1457
sg21
I0
sba(iArchitecture
Entity
p1458
(dp1459
g11
(lp1460
sg13
S'android.provider.Contacts$ContactMethodsColumns'
p1461
sg15
(lp1462
sg17
(lp1463
sg19
(lp1464
sg21
I0
sba(iArchitecture
Entity
p1465
(dp1466
g11
(lp1467
sg13
S'android.provider.Contacts$Extensions'
p1468
sg15
(lp1469
sg17
(lp1470
sg19
(lp1471
sg21
I0
sba(iArchitecture
Entity
p1472
(dp1473
g11
(lp1474
sg13
S'android.provider.Contacts$ExtensionsColumns'
p1475
sg15
(lp1476
sg17
(lp1477
sg19
(lp1478
sg21
I0
sba(iArchitecture
Entity
p1479
(dp1480
g11
(lp1481
sg13
S'android.provider.Contacts$GroupMembership'
p1482
sg15
(lp1483
sg17
(lp1484
sg19
(lp1485
sg21
I0
sba(iArchitecture
Entity
p1486
(dp1487
g11
(lp1488
sg13
S'android.provider.Contacts$Groups'
p1489
sg15
(lp1490
sg17
(lp1491
sg19
(lp1492
sg21
I0
sba(iArchitecture
Entity
p1493
(dp1494
g11
(lp1495
sg13
S'android.provider.Contacts$GroupsColumns'
p1496
sg15
(lp1497
sg17
(lp1498
sg19
(lp1499
sg21
I0
sba(iArchitecture
Entity
p1500
(dp1501
g11
(lp1502
sg13
S'android.provider.Contacts$Intents'
p1503
sg15
(lp1504
sg17
(lp1505
sg19
(lp1506
sg21
I0
sba(iArchitecture
Entity
p1507
(dp1508
g11
(lp1509
sg13
S'android.provider.Contacts$Intents$Insert'
p1510
sg15
(lp1511
sg17
(lp1512
sg19
(lp1513
sg21
I0
sba(iArchitecture
Entity
p1514
(dp1515
g11
(lp1516
sg13
S'android.provider.Contacts$Intents$UI'
p1517
sg15
(lp1518
sg17
(lp1519
sg19
(lp1520
sg21
I0
sba(iArchitecture
Entity
p1521
(dp1522
g11
(lp1523
sg13
S'android.provider.Contacts$OrganizationColumns'
p1524
sg15
(lp1525
sg17
(lp1526
sg19
(lp1527
sg21
I0
sba(iArchitecture
Entity
p1528
(dp1529
g11
(lp1530
sg13
S'android.provider.Contacts$Organizations'
p1531
sg15
(lp1532
sg17
(lp1533
sg19
(lp1534
sg21
I0
sba(iArchitecture
Entity
p1535
(dp1536
g11
(lp1537
sg13
S'android.provider.Contacts$People'
p1538
sg15
(lp1539
sg17
(lp1540
sg19
(lp1541
sg21
I0
sba(iArchitecture
Entity
p1542
(dp1543
g11
(lp1544
sg13
S'android.provider.Contacts$People$ContactMethods'
p1545
sg15
(lp1546
sg17
(lp1547
sg19
(lp1548
sg21
I0
sba(iArchitecture
Entity
p1549
(dp1550
g11
(lp1551
sg13
S'android.provider.Contacts$People$Extensions'
p1552
sg15
(lp1553
sg17
(lp1554
sg19
(lp1555
sg21
I0
sba(iArchitecture
Entity
p1556
(dp1557
g11
(lp1558
sg13
S'android.provider.Contacts$People$Phones'
p1559
sg15
(lp1560
sg17
(lp1561
sg19
(lp1562
sg21
I0
sba(iArchitecture
Entity
p1563
(dp1564
g11
(lp1565
sg13
S'android.provider.Contacts$PeopleColumns'
p1566
sg15
(lp1567
sg17
(lp1568
sg19
(lp1569
sg21
I0
sba(iArchitecture
Entity
p1570
(dp1571
g11
(lp1572
sg13
S'android.provider.Contacts$Phones'
p1573
sg15
(lp1574
sg17
(lp1575
sg19
(lp1576
sg21
I0
sba(iArchitecture
Entity
p1577
(dp1578
g11
(lp1579
sg13
S'android.provider.Contacts$PhonesColumns'
p1580
sg15
(lp1581
sg17
(lp1582
sg19
(lp1583
sg21
I0
sba(iArchitecture
Entity
p1584
(dp1585
g11
(lp1586
sg13
S'android.provider.Contacts$Photos'
p1587
sg15
(lp1588
sg17
(lp1589
sg19
(lp1590
sg21
I0
sba(iArchitecture
Entity
p1591
(dp1592
g11
(lp1593
sg13
S'android.provider.Contacts$PhotosColumns'
p1594
sg15
(lp1595
sg17
(lp1596
sg19
(lp1597
sg21
I0
sba(iArchitecture
Entity
p1598
(dp1599
g11
(lp1600
sg13
S'android.provider.Contacts$Presence'
p1601
sg15
(lp1602
sg17
(lp1603
sg19
(lp1604
sg21
I0
sba(iArchitecture
Entity
p1605
(dp1606
g11
(lp1607
sg13
S'android.provider.Contacts$PresenceColumns'
p1608
sg15
(lp1609
sg17
(lp1610
sg19
(lp1611
sg21
I0
sba(iArchitecture
Entity
p1612
(dp1613
g11
(lp1614
sg13
S'android.provider.Contacts$Settings'
p1615
sg15
(lp1616
sg17
(lp1617
sg19
(lp1618
sg21
I0
sba(iArchitecture
Entity
p1619
(dp1620
g11
(lp1621
sg13
S'android.provider.Contacts$SettingsColumns'
p1622
sg15
(lp1623
sg17
(lp1624
sg19
(lp1625
sg21
I0
sbasg43
(lp1626
g1440
ag1447
ag1454
ag1461
ag1468
ag1475
ag1482
ag1489
ag1496
ag1503
ag1510
ag1517
ag1524
ag1531
ag1538
ag1545
ag1552
ag1559
ag1566
ag1573
ag1580
ag1587
ag1594
ag1601
ag1608
ag1615
ag1622
asg21
I0
sg45
S'1228'
p1627
sba(iArchitecture
Cluster
p1628
(dp1629
g7
(lp1630
(iArchitecture
Entity
p1631
(dp1632
g11
(lp1633
sg13
S'android.hardware.soundtrigger.SoundTrigger'
p1634
sg15
(lp1635
sg17
(lp1636
sg19
(lp1637
sg21
I0
sba(iArchitecture
Entity
p1638
(dp1639
g11
(lp1640
sg13
S'android.hardware.soundtrigger.SoundTrigger$ConfidenceLevel'
p1641
sg15
(lp1642
sg17
(lp1643
sg19
(lp1644
sg21
I0
sba(iArchitecture
Entity
p1645
(dp1646
g11
(lp1647
sg13
S'android.hardware.soundtrigger.SoundTrigger$ConfidenceLevel$1'
p1648
sg15
(lp1649
sg17
(lp1650
sg19
(lp1651
sg21
I0
sba(iArchitecture
Entity
p1652
(dp1653
g11
(lp1654
sg13
S'android.hardware.soundtrigger.SoundTrigger$GenericRecognitionEvent'
p1655
sg15
(lp1656
sg17
(lp1657
sg19
(lp1658
sg21
I0
sba(iArchitecture
Entity
p1659
(dp1660
g11
(lp1661
sg13
S'android.hardware.soundtrigger.SoundTrigger$GenericRecognitionEvent$1'
p1662
sg15
(lp1663
sg17
(lp1664
sg19
(lp1665
sg21
I0
sba(iArchitecture
Entity
p1666
(dp1667
g11
(lp1668
sg13
S'android.hardware.soundtrigger.SoundTrigger$GenericSoundModel'
p1669
sg15
(lp1670
sg17
(lp1671
sg19
(lp1672
sg21
I0
sba(iArchitecture
Entity
p1673
(dp1674
g11
(lp1675
sg13
S'android.hardware.soundtrigger.SoundTrigger$GenericSoundModel$1'
p1676
sg15
(lp1677
sg17
(lp1678
sg19
(lp1679
sg21
I0
sba(iArchitecture
Entity
p1680
(dp1681
g11
(lp1682
sg13
S'android.hardware.soundtrigger.SoundTrigger$Keyphrase'
p1683
sg15
(lp1684
sg17
(lp1685
sg19
(lp1686
sg21
I0
sba(iArchitecture
Entity
p1687
(dp1688
g11
(lp1689
sg13
S'android.hardware.soundtrigger.SoundTrigger$Keyphrase$1'
p1690
sg15
(lp1691
sg17
(lp1692
sg19
(lp1693
sg21
I0
sba(iArchitecture
Entity
p1694
(dp1695
g11
(lp1696
sg13
S'android.hardware.soundtrigger.SoundTrigger$KeyphraseRecognitionEvent'
p1697
sg15
(lp1698
sg17
(lp1699
sg19
(lp1700
sg21
I0
sba(iArchitecture
Entity
p1701
(dp1702
g11
(lp1703
sg13
S'android.hardware.soundtrigger.SoundTrigger$KeyphraseRecognitionEvent$1'
p1704
sg15
(lp1705
sg17
(lp1706
sg19
(lp1707
sg21
I0
sba(iArchitecture
Entity
p1708
(dp1709
g11
(lp1710
sg13
S'android.hardware.soundtrigger.SoundTrigger$KeyphraseRecognitionExtra'
p1711
sg15
(lp1712
sg17
(lp1713
sg19
(lp1714
sg21
I0
sba(iArchitecture
Entity
p1715
(dp1716
g11
(lp1717
sg13
S'android.hardware.soundtrigger.SoundTrigger$KeyphraseRecognitionExtra$1'
p1718
sg15
(lp1719
sg17
(lp1720
sg19
(lp1721
sg21
I0
sba(iArchitecture
Entity
p1722
(dp1723
g11
(lp1724
sg13
S'android.hardware.soundtrigger.SoundTrigger$KeyphraseSoundModel'
p1725
sg15
(lp1726
sg17
(lp1727
sg19
(lp1728
sg21
I0
sba(iArchitecture
Entity
p1729
(dp1730
g11
(lp1731
sg13
S'android.hardware.soundtrigger.SoundTrigger$KeyphraseSoundModel$1'
p1732
sg15
(lp1733
sg17
(lp1734
sg19
(lp1735
sg21
I0
sba(iArchitecture
Entity
p1736
(dp1737
g11
(lp1738
sg13
S'android.hardware.soundtrigger.SoundTrigger$ModuleProperties'
p1739
sg15
(lp1740
sg17
(lp1741
sg19
(lp1742
sg21
I0
sba(iArchitecture
Entity
p1743
(dp1744
g11
(lp1745
sg13
S'android.hardware.soundtrigger.SoundTrigger$ModuleProperties$1'
p1746
sg15
(lp1747
sg17
(lp1748
sg19
(lp1749
sg21
I0
sba(iArchitecture
Entity
p1750
(dp1751
g11
(lp1752
sg13
S'android.hardware.soundtrigger.SoundTrigger$RecognitionConfig'
p1753
sg15
(lp1754
sg17
(lp1755
sg19
(lp1756
sg21
I0
sba(iArchitecture
Entity
p1757
(dp1758
g11
(lp1759
sg13
S'android.hardware.soundtrigger.SoundTrigger$RecognitionConfig$1'
p1760
sg15
(lp1761
sg17
(lp1762
sg19
(lp1763
sg21
I0
sba(iArchitecture
Entity
p1764
(dp1765
g11
(lp1766
sg13
S'android.hardware.soundtrigger.SoundTrigger$RecognitionEvent'
p1767
sg15
(lp1768
sg17
(lp1769
sg19
(lp1770
sg21
I0
sba(iArchitecture
Entity
p1771
(dp1772
g11
(lp1773
sg13
S'android.hardware.soundtrigger.SoundTrigger$RecognitionEvent$1'
p1774
sg15
(lp1775
sg17
(lp1776
sg19
(lp1777
sg21
I0
sba(iArchitecture
Entity
p1778
(dp1779
g11
(lp1780
sg13
S'android.hardware.soundtrigger.SoundTrigger$SoundModel'
p1781
sg15
(lp1782
sg17
(lp1783
sg19
(lp1784
sg21
I0
sba(iArchitecture
Entity
p1785
(dp1786
g11
(lp1787
sg13
S'android.hardware.soundtrigger.SoundTrigger$SoundModelEvent'
p1788
sg15
(lp1789
sg17
(lp1790
sg19
(lp1791
sg21
I0
sba(iArchitecture
Entity
p1792
(dp1793
g11
(lp1794
sg13
S'android.hardware.soundtrigger.SoundTrigger$SoundModelEvent$1'
p1795
sg15
(lp1796
sg17
(lp1797
sg19
(lp1798
sg21
I0
sba(iArchitecture
Entity
p1799
(dp1800
g11
(lp1801
sg13
S'android.hardware.soundtrigger.SoundTrigger$StatusListener'
p1802
sg15
(lp1803
sg17
(lp1804
sg19
(lp1805
sg21
I0
sbasg43
(lp1806
g1634
ag1641
ag1648
ag1655
ag1662
ag1669
ag1676
ag1683
ag1690
ag1697
ag1704
ag1711
ag1718
ag1725
ag1732
ag1739
ag1746
ag1753
ag1760
ag1767
ag1774
ag1781
ag1788
ag1795
ag1802
asg21
I0
sg45
S'1229'
p1807
sba(iArchitecture
Cluster
p1808
(dp1809
g7
(lp1810
(iArchitecture
Entity
p1811
(dp1812
g11
(lp1813
sg13
S'android.media.MediaRouterClientState'
p1814
sg15
(lp1815
sg17
(lp1816
sg19
(lp1817
sg21
I0
sba(iArchitecture
Entity
p1818
(dp1819
g11
(lp1820
sg13
S'android.media.MediaRouterClientState$1'
p1821
sg15
(lp1822
sg17
(lp1823
sg19
(lp1824
sg21
I0
sba(iArchitecture
Entity
p1825
(dp1826
g11
(lp1827
sg13
S'android.media.MediaRouterClientState$RouteInfo'
p1828
sg15
(lp1829
sg17
(lp1830
sg19
(lp1831
sg21
I0
sba(iArchitecture
Entity
p1832
(dp1833
g11
(lp1834
sg13
S'android.media.MediaRouterClientState$RouteInfo$1'
p1835
sg15
(lp1836
sg17
(lp1837
sg19
(lp1838
sg21
I0
sba(iArchitecture
Entity
p1839
(dp1840
g11
(lp1841
sg13
S'android.media.RemoteDisplayState'
p1842
sg15
(lp1843
sg17
(lp1844
sg19
(lp1845
sg21
I0
sba(iArchitecture
Entity
p1846
(dp1847
g11
(lp1848
sg13
S'android.media.RemoteDisplayState$1'
p1849
sg15
(lp1850
sg17
(lp1851
sg19
(lp1852
sg21
I0
sba(iArchitecture
Entity
p1853
(dp1854
g11
(lp1855
sg13
S'android.media.RemoteDisplayState$RemoteDisplayInfo'
p1856
sg15
(lp1857
sg17
(lp1858
sg19
(lp1859
sg21
I0
sba(iArchitecture
Entity
p1860
(dp1861
g11
(lp1862
sg13
S'android.media.RemoteDisplayState$RemoteDisplayInfo$1'
p1863
sg15
(lp1864
sg17
(lp1865
sg19
(lp1866
sg21
I0
sbasg43
(lp1867
g1814
ag1821
ag1828
ag1835
ag1842
ag1849
ag1856
ag1863
asg21
I0
sg45
S'1322'
p1868
sba(iArchitecture
Cluster
p1869
(dp1870
g7
(lp1871
(iArchitecture
Entity
p1872
(dp1873
g11
(lp1874
sg13
S'com.android.server.pm.ShortcutPackageItem'
p1875
sg15
(lp1876
sg17
(lp1877
sg19
(lp1878
sg21
I0
sbasg43
(lp1879
g1875
asg21
I0
sg45
S'22'
p1880
sba(iArchitecture
Cluster
p1881
(dp1882
g7
(lp1883
(iArchitecture
Entity
p1884
(dp1885
g11
(lp1886
sg13
S'android.view.inputmethod.InputConnectionWrapper'
p1887
sg15
(lp1888
sg17
(lp1889
sg19
(lp1890
sg21
I0
sbasg43
(lp1891
g1887
asg21
I0
sg45
S'220'
p1892
sba(iArchitecture
Cluster
p1893
(dp1894
g7
(lp1895
(iArchitecture
Entity
p1896
(dp1897
g11
(lp1898
sg13
S'android.graphics.YuvImage'
p1899
sg15
(lp1900
sg17
(lp1901
sg19
(lp1902
sg21
I0
sbasg43
(lp1903
g1899
asg21
I0
sg45
S'221'
p1904
sba(iArchitecture
Cluster
p1905
(dp1906
g7
(lp1907
(iArchitecture
Entity
p1908
(dp1909
g11
(lp1910
sg13
S'android.view.animation.AnimationUtils'
p1911
sg15
(lp1912
sg17
(lp1913
sg19
(lp1914
sg21
I0
sbasg43
(lp1915
g1911
asg21
I0
sg45
S'222'
p1916
sba(iArchitecture
Cluster
p1917
(dp1918
g7
(lp1919
(iArchitecture
Entity
p1920
(dp1921
g11
(lp1922
sg13
S'android.gesture.Instance'
p1923
sg15
(lp1924
sg17
(lp1925
sg19
(lp1926
sg21
I0
sbasg43
(lp1927
g1923
asg21
I0
sg45
S'223'
p1928
sba(iArchitecture
Cluster
p1929
(dp1930
g7
(lp1931
(iArchitecture
Entity
p1932
(dp1933
g11
(lp1934
sg13
S'com.android.internal.util.Preconditions'
p1935
sg15
(lp1936
sg17
(lp1937
sg19
(lp1938
sg21
I0
sbasg43
(lp1939
g1935
asg21
I0
sg45
S'224'
p1940
sba(iArchitecture
Cluster
p1941
(dp1942
g7
(lp1943
(iArchitecture
Entity
p1944
(dp1945
g11
(lp1946
sg13
S'com.android.server.os.SchedulingPolicyService'
p1947
sg15
(lp1948
sg17
(lp1949
sg19
(lp1950
sg21
I0
sbasg43
(lp1951
g1947
asg21
I0
sg45
S'225'
p1952
sba(iArchitecture
Cluster
p1953
(dp1954
g7
(lp1955
(iArchitecture
Entity
p1956
(dp1957
g11
(lp1958
sg13
S'android.app.QueuedWork'
p1959
sg15
(lp1960
sg17
(lp1961
sg19
(lp1962
sg21
I0
sbasg43
(lp1963
g1959
asg21
I0
sg45
S'226'
p1964
sba(iArchitecture
Cluster
p1965
(dp1966
g7
(lp1967
(iArchitecture
Entity
p1968
(dp1969
g11
(lp1970
sg13
S'android.media.MediaMetadataRetriever'
p1971
sg15
(lp1972
sg17
(lp1973
sg19
(lp1974
sg21
I0
sbasg43
(lp1975
g1971
asg21
I0
sg45
S'227'
p1976
sba(iArchitecture
Cluster
p1977
(dp1978
g7
(lp1979
(iArchitecture
Entity
p1980
(dp1981
g11
(lp1982
sg13
S'com.android.server.media.MediaSessionStack'
p1983
sg15
(lp1984
sg17
(lp1985
sg19
(lp1986
sg21
I0
sbasg43
(lp1987
g1983
asg21
I0
sg45
S'228'
p1988
sba(iArchitecture
Cluster
p1989
(dp1990
g7
(lp1991
(iArchitecture
Entity
p1992
(dp1993
g11
(lp1994
sg13
S'com.android.server.am.ProcessList'
p1995
sg15
(lp1996
sg17
(lp1997
sg19
(lp1998
sg21
I0
sbasg43
(lp1999
g1995
asg21
I0
sg45
S'229'
p2000
sba(iArchitecture
Cluster
p2001
(dp2002
g7
(lp2003
(iArchitecture
Entity
p2004
(dp2005
g11
(lp2006
sg13
S'android.security.keymaster.KeymasterDefs'
p2007
sg15
(lp2008
sg17
(lp2009
sg19
(lp2010
sg21
I0
sbasg43
(lp2011
g2007
asg21
I0
sg45
S'322'
p2012
sba(iArchitecture
Cluster
p2013
(dp2014
g7
(lp2015
(iArchitecture
Entity
p2016
(dp2017
g11
(lp2018
sg13
S'android.webkit.WebHistoryItem'
p2019
sg15
(lp2020
sg17
(lp2021
sg19
(lp2022
sg21
I0
sbasg43
(lp2023
g2019
asg21
I0
sg45
S'422'
p2024
sba(iArchitecture
Cluster
p2025
(dp2026
g7
(lp2027
(iArchitecture
Entity
p2028
(dp2029
g11
(lp2030
sg13
S'com.android.ims.ImsStreamMediaProfile'
p2031
sg15
(lp2032
sg17
(lp2033
sg19
(lp2034
sg21
I0
sba(iArchitecture
Entity
p2035
(dp2036
g11
(lp2037
sg13
S'com.android.ims.ImsStreamMediaProfile$1'
p2038
sg15
(lp2039
sg17
(lp2040
sg19
(lp2041
sg21
I0
sbasg43
(lp2042
g2031
ag2038
asg21
I0
sg45
S'522'
p2043
sba(iArchitecture
Cluster
p2044
(dp2045
g7
(lp2046
(iArchitecture
Entity
p2047
(dp2048
g11
(lp2049
sg13
S'android.app.NativeActivity'
p2050
sg15
(lp2051
sg17
(lp2052
sg19
(lp2053
sg21
I0
sba(iArchitecture
Entity
p2054
(dp2055
g11
(lp2056
sg13
S'android.app.NativeActivity$NativeContentView'
p2057
sg15
(lp2058
sg17
(lp2059
sg19
(lp2060
sg21
I0
sbasg43
(lp2061
g2050
ag2057
asg21
I0
sg45
S'622'
p2062
sba(iArchitecture
Cluster
p2063
(dp2064
g7
(lp2065
(iArchitecture
Entity
p2066
(dp2067
g11
(lp2068
sg13
S'android.database.MatrixCursor'
p2069
sg15
(lp2070
sg17
(lp2071
sg19
(lp2072
sg21
I0
sba(iArchitecture
Entity
p2073
(dp2074
g11
(lp2075
sg13
S'android.database.MatrixCursor$RowBuilder'
p2076
sg15
(lp2077
sg17
(lp2078
sg19
(lp2079
sg21
I0
sbasg43
(lp2080
g2069
ag2076
asg21
I0
sg45
S'722'
p2081
sba(iArchitecture
Cluster
p2082
(dp2083
g7
(lp2084
(iArchitecture
Entity
p2085
(dp2086
g11
(lp2087
sg13
S'com.android.server.wm.AppWindowAnimator'
p2088
sg15
(lp2089
sg17
(lp2090
sg19
(lp2091
sg21
I0
sba(iArchitecture
Entity
p2092
(dp2093
g11
(lp2094
sg13
S'com.android.server.wm.AppWindowAnimator$DummyAnimation'
p2095
sg15
(lp2096
sg17
(lp2097
sg19
(lp2098
sg21
I0
sbasg43
(lp2099
g2088
ag2095
asg21
I0
sg45
S'822'
p2100
sba(iArchitecture
Cluster
p2101
(dp2102
g7
(lp2103
(iArchitecture
Entity
p2104
(dp2105
g11
(lp2106
sg13
S'android.print.PrinterInfo'
p2107
sg15
(lp2108
sg17
(lp2109
sg19
(lp2110
sg21
I0
sba(iArchitecture
Entity
p2111
(dp2112
g11
(lp2113
sg13
S'android.print.PrinterInfo$1'
p2114
sg15
(lp2115
sg17
(lp2116
sg19
(lp2117
sg21
I0
sba(iArchitecture
Entity
p2118
(dp2119
g11
(lp2120
sg13
S'android.print.PrinterInfo$Builder'
p2121
sg15
(lp2122
sg17
(lp2123
sg19
(lp2124
sg21
I0
sbasg43
(lp2125
g2107
ag2114
ag2121
asg21
I0
sg45
S'922'
p2126
sbasS'target_sub'
p2127
S'22'
p2128
sg43
(lp2129
sS'is_component_arch'
p2130
I01
sg45
S'7.0.0_r1'
p2131
sba.