(lp0
(iArchitecture
Architecture
p1
(dp2
S'clusters'
p3
(lp4
(iArchitecture
Cluster
p5
(dp6
S'entities'
p7
(lp8
(iArchitecture
Entity
p9
(dp10
S'issue_ids'
p11
(lp12
sS'name'
p13
S'android.preference.SeekBarVolumizer'
p14
sS'descs'
p15
(lp16
sS'labels'
p17
(lp18
sS'titles'
p19
(lp20
sS'change'
p21
I0
sba(iArchitecture
Entity
p22
(dp23
g11
(lp24
sg13
S'android.preference.SeekBarVolumizer$Callback'
p25
sg15
(lp26
sg17
(lp27
sg19
(lp28
sg21
I0
sba(iArchitecture
Entity
p29
(dp30
g11
(lp31
sg13
S'android.preference.SeekBarVolumizer$H'
p32
sg15
(lp33
sg17
(lp34
sg19
(lp35
sg21
I0
sba(iArchitecture
Entity
p36
(dp37
g11
(lp38
sg13
S'android.preference.SeekBarVolumizer$Observer'
p39
sg15
(lp40
sg17
(lp41
sg19
(lp42
sg21
I0
sba(iArchitecture
Entity
p43
(dp44
g11
(lp45
sg13
S'android.preference.SeekBarVolumizer$Receiver'
p46
sg15
(lp47
sg17
(lp48
sg19
(lp49
sg21
I0
sbasS'classes'
p50
(lp51
g14
ag25
ag32
ag39
ag46
asg21
I0
sS'label'
p52
S'1066'
p53
sba(iArchitecture
Cluster
p54
(dp55
g7
(lp56
(iArchitecture
Entity
p57
(dp58
g11
(lp59
sg13
S'android.widget.ProgressBar'
p60
sg15
(lp61
sg17
(lp62
sg19
(lp63
sg21
I0
sba(iArchitecture
Entity
p64
(dp65
g11
(lp66
sg13
S'android.widget.ProgressBar$1'
p67
sg15
(lp68
sg17
(lp69
sg19
(lp70
sg21
I0
sba(iArchitecture
Entity
p71
(dp72
g11
(lp73
sg13
S'android.widget.ProgressBar$AccessibilityEventSender'
p74
sg15
(lp75
sg17
(lp76
sg19
(lp77
sg21
I0
sba(iArchitecture
Entity
p78
(dp79
g11
(lp80
sg13
S'android.widget.ProgressBar$ProgressTintInfo'
p81
sg15
(lp82
sg17
(lp83
sg19
(lp84
sg21
I0
sba(iArchitecture
Entity
p85
(dp86
g11
(lp87
sg13
S'android.widget.ProgressBar$RefreshData'
p88
sg15
(lp89
sg17
(lp90
sg19
(lp91
sg21
I0
sba(iArchitecture
Entity
p92
(dp93
g11
(lp94
sg13
S'android.widget.ProgressBar$RefreshProgressRunnable'
p95
sg15
(lp96
sg17
(lp97
sg19
(lp98
sg21
I0
sba(iArchitecture
Entity
p99
(dp100
g11
(lp101
sg13
S'android.widget.ProgressBar$SavedState'
p102
sg15
(lp103
sg17
(lp104
sg19
(lp105
sg21
I0
sba(iArchitecture
Entity
p106
(dp107
g11
(lp108
sg13
S'android.widget.ProgressBar$SavedState$1'
p109
sg15
(lp110
sg17
(lp111
sg19
(lp112
sg21
I0
sbasg50
(lp113
g60
ag67
ag74
ag81
ag88
ag95
ag102
ag109
asg21
I0
sg52
S'1166'
p114
sba(iArchitecture
Cluster
p115
(dp116
g7
(lp117
(iArchitecture
Entity
p118
(dp119
g11
(lp120
sg13
S'android.media.MediaMetadata'
p121
sg15
(lp122
sg17
(lp123
sg19
(lp124
sg21
I0
sba(iArchitecture
Entity
p125
(dp126
g11
(lp127
sg13
S'android.media.MediaMetadata$1'
p128
sg15
(lp129
sg17
(lp130
sg19
(lp131
sg21
I0
sba(iArchitecture
Entity
p132
(dp133
g11
(lp134
sg13
S'android.media.MediaMetadata$Builder'
p135
sg15
(lp136
sg17
(lp137
sg19
(lp138
sg21
I0
sba(iArchitecture
Entity
p139
(dp140
g11
(lp141
sg13
S'android.media.MediaMetadataEditor'
p142
sg15
(lp143
sg17
(lp144
sg19
(lp145
sg21
I0
sbasg50
(lp146
g121
ag128
ag135
ag142
asg21
I0
sg52
S'1266'
p147
sba(iArchitecture
Cluster
p148
(dp149
g7
(lp150
(iArchitecture
Entity
p151
(dp152
g11
(lp153
sg13
S'com.android.server.am.PreBootBroadcaster'
p154
sg15
(lp155
sg17
(lp156
sg19
(lp157
sg21
I0
sba(iArchitecture
Entity
p158
(dp159
g11
(lp160
sg13
S'com.android.server.usb.MtpNotificationManager'
p161
sg15
(lp162
sg17
(lp163
sg19
(lp164
sg21
I0
sba(iArchitecture
Entity
p165
(dp166
g11
(lp167
sg13
S'com.android.server.usb.MtpNotificationManager$OnOpenInAppListener'
p168
sg15
(lp169
sg17
(lp170
sg19
(lp171
sg21
I0
sba(iArchitecture
Entity
p172
(dp173
g11
(lp174
sg13
S'com.android.server.usb.MtpNotificationManager$Receiver'
p175
sg15
(lp176
sg17
(lp177
sg19
(lp178
sg21
I0
sbasg50
(lp179
g154
ag161
ag168
ag175
asg21
I0
sg52
S'1366'
p180
sba(iArchitecture
Cluster
p181
(dp182
g7
(lp183
(iArchitecture
Entity
p184
(dp185
g11
(lp186
sg13
S'android.net.NetworkPolicyManager'
p187
sg15
(lp188
sg17
(lp189
sg19
(lp190
sg21
I0
sbasg50
(lp191
g187
asg21
I0
sg52
S'166'
p192
sba(iArchitecture
Cluster
p193
(dp194
g7
(lp195
(iArchitecture
Entity
p196
(dp197
g11
(lp198
sg13
S'android.location.OnNmeaMessageListener'
p199
sg15
(lp200
sg17
(lp201
sg19
(lp202
sg21
I0
sbasg50
(lp203
g199
asg21
I0
sg52
S'266'
p204
sba(iArchitecture
Cluster
p205
(dp206
g7
(lp207
(iArchitecture
Entity
p208
(dp209
g11
(lp210
sg13
S'android.hardware.camera2.params.LensShadingMap'
p211
sg15
(lp212
sg17
(lp213
sg19
(lp214
sg21
I0
sbasg50
(lp215
g211
asg21
I0
sg52
S'366'
p216
sba(iArchitecture
Cluster
p217
(dp218
g7
(lp219
(iArchitecture
Entity
p220
(dp221
g11
(lp222
sg13
S'android.security.keystore.KeyPermanentlyInvalidatedException'
p223
sg15
(lp224
sg17
(lp225
sg19
(lp226
sg21
I0
sbasg50
(lp227
g223
asg21
I0
sg52
S'466'
p228
sba(iArchitecture
Cluster
p229
(dp230
g7
(lp231
(iArchitecture
Entity
p232
(dp233
g11
(lp234
sg13
S'android.view.inputmethod.InputBinding'
p235
sg15
(lp236
sg17
(lp237
sg19
(lp238
sg21
I0
sba(iArchitecture
Entity
p239
(dp240
g11
(lp241
sg13
S'android.view.inputmethod.InputBinding$1'
p242
sg15
(lp243
sg17
(lp244
sg19
(lp245
sg21
I0
sbasg50
(lp246
g235
ag242
asg21
I0
sg52
S'566'
p247
sba(iArchitecture
Cluster
p248
(dp249
g7
(lp250
(iArchitecture
Entity
p251
(dp252
g11
(lp253
sg13
S'com.android.internal.util.ImageUtils'
p254
sg15
(lp255
sg17
(lp256
sg19
(lp257
sg21
I0
sbasg50
(lp258
g254
asg21
I0
sg52
S'66'
p259
sba(iArchitecture
Cluster
p260
(dp261
g7
(lp262
(iArchitecture
Entity
p263
(dp264
g11
(lp265
sg13
S'android.security.KeyStore'
p266
sg15
(lp267
sg17
(lp268
sg19
(lp269
sg21
I0
sba(iArchitecture
Entity
p270
(dp271
g11
(lp272
sg13
S'android.security.KeyStore$State'
p273
sg15
(lp274
sg17
(lp275
sg19
(lp276
sg21
I0
sbasg50
(lp277
g266
ag273
asg21
I0
sg52
S'660'
p278
sba(iArchitecture
Cluster
p279
(dp280
g7
(lp281
(iArchitecture
Entity
p282
(dp283
g11
(lp284
sg13
S'android.service.gatekeeper.GateKeeperResponse'
p285
sg15
(lp286
sg17
(lp287
sg19
(lp288
sg21
I0
sba(iArchitecture
Entity
p289
(dp290
g11
(lp291
sg13
S'android.service.gatekeeper.GateKeeperResponse$1'
p292
sg15
(lp293
sg17
(lp294
sg19
(lp295
sg21
I0
sbasg50
(lp296
g285
ag292
asg21
I0
sg52
S'661'
p297
sba(iArchitecture
Cluster
p298
(dp299
g7
(lp300
(iArchitecture
Entity
p301
(dp302
g11
(lp303
sg13
S'com.android.server.net.IpConfigStore'
p304
sg15
(lp305
sg17
(lp306
sg19
(lp307
sg21
I0
sba(iArchitecture
Entity
p308
(dp309
g11
(lp310
sg13
S'com.android.server.net.IpConfigStore$1'
p311
sg15
(lp312
sg17
(lp313
sg19
(lp314
sg21
I0
sbasg50
(lp315
g304
ag311
asg21
I0
sg52
S'662'
p316
sba(iArchitecture
Cluster
p317
(dp318
g7
(lp319
(iArchitecture
Entity
p320
(dp321
g11
(lp322
sg13
S'android.app.admin.SystemUpdatePolicy'
p323
sg15
(lp324
sg17
(lp325
sg19
(lp326
sg21
I0
sba(iArchitecture
Entity
p327
(dp328
g11
(lp329
sg13
S'android.app.admin.SystemUpdatePolicy$1'
p330
sg15
(lp331
sg17
(lp332
sg19
(lp333
sg21
I0
sbasg50
(lp334
g323
ag330
asg21
I0
sg52
S'663'
p335
sba(iArchitecture
Cluster
p336
(dp337
g7
(lp338
(iArchitecture
Entity
p339
(dp340
g11
(lp341
sg13
S'android.printservice.recommendation.RecommendationInfo'
p342
sg15
(lp343
sg17
(lp344
sg19
(lp345
sg21
I0
sba(iArchitecture
Entity
p346
(dp347
g11
(lp348
sg13
S'android.printservice.recommendation.RecommendationInfo$1'
p349
sg15
(lp350
sg17
(lp351
sg19
(lp352
sg21
I0
sbasg50
(lp353
g342
ag349
asg21
I0
sg52
S'664'
p354
sba(iArchitecture
Cluster
p355
(dp356
g7
(lp357
(iArchitecture
Entity
p358
(dp359
g11
(lp360
sg13
S'android.view.animation.GridLayoutAnimationController'
p361
sg15
(lp362
sg17
(lp363
sg19
(lp364
sg21
I0
sba(iArchitecture
Entity
p365
(dp366
g11
(lp367
sg13
S'android.view.animation.GridLayoutAnimationController$AnimationParameters'
p368
sg15
(lp369
sg17
(lp370
sg19
(lp371
sg21
I0
sbasg50
(lp372
g361
ag368
asg21
I0
sg52
S'665'
p373
sba(iArchitecture
Cluster
p374
(dp375
g7
(lp376
(iArchitecture
Entity
p377
(dp378
g11
(lp379
sg13
S'android.hardware.GeomagneticField'
p380
sg15
(lp381
sg17
(lp382
sg19
(lp383
sg21
I0
sba(iArchitecture
Entity
p384
(dp385
g11
(lp386
sg13
S'android.hardware.GeomagneticField$LegendreTable'
p387
sg15
(lp388
sg17
(lp389
sg19
(lp390
sg21
I0
sbasg50
(lp391
g380
ag387
asg21
I0
sg52
S'666'
p392
sba(iArchitecture
Cluster
p393
(dp394
g7
(lp395
(iArchitecture
Entity
p396
(dp397
g11
(lp398
sg13
S'android.os.PerformanceCollector'
p399
sg15
(lp400
sg17
(lp401
sg19
(lp402
sg21
I0
sba(iArchitecture
Entity
p403
(dp404
g11
(lp405
sg13
S'android.os.PerformanceCollector$PerformanceResultsWriter'
p406
sg15
(lp407
sg17
(lp408
sg19
(lp409
sg21
I0
sbasg50
(lp410
g399
ag406
asg21
I0
sg52
S'667'
p411
sba(iArchitecture
Cluster
p412
(dp413
g7
(lp414
(iArchitecture
Entity
p415
(dp416
g11
(lp417
sg13
S'android.net.wifi.SupplicantState'
p418
sg15
(lp419
sg17
(lp420
sg19
(lp421
sg21
I0
sba(iArchitecture
Entity
p422
(dp423
g11
(lp424
sg13
S'android.net.wifi.SupplicantState$1'
p425
sg15
(lp426
sg17
(lp427
sg19
(lp428
sg21
I0
sbasg50
(lp429
g418
ag425
asg21
I0
sg52
S'668'
p430
sba(iArchitecture
Cluster
p431
(dp432
g7
(lp433
(iArchitecture
Entity
p434
(dp435
g11
(lp436
sg13
S'android.speech.tts.UtteranceProgressListener'
p437
sg15
(lp438
sg17
(lp439
sg19
(lp440
sg21
I0
sba(iArchitecture
Entity
p441
(dp442
g11
(lp443
sg13
S'android.speech.tts.UtteranceProgressListener$1'
p444
sg15
(lp445
sg17
(lp446
sg19
(lp447
sg21
I0
sbasg50
(lp448
g437
ag444
asg21
I0
sg52
S'669'
p449
sba(iArchitecture
Cluster
p450
(dp451
g7
(lp452
(iArchitecture
Entity
p453
(dp454
g11
(lp455
sg13
S'android.inputmethodservice.SoftInputWindow'
p456
sg15
(lp457
sg17
(lp458
sg19
(lp459
sg21
I0
sba(iArchitecture
Entity
p460
(dp461
g11
(lp462
sg13
S'android.inputmethodservice.SoftInputWindow$Callback'
p463
sg15
(lp464
sg17
(lp465
sg19
(lp466
sg21
I0
sbasg50
(lp467
g456
ag463
asg21
I0
sg52
S'766'
p468
sba(iArchitecture
Cluster
p469
(dp470
g7
(lp471
(iArchitecture
Entity
p472
(dp473
g11
(lp474
sg13
S'com.android.server.net.DelayedDiskWrite'
p475
sg15
(lp476
sg17
(lp477
sg19
(lp478
sg21
I0
sba(iArchitecture
Entity
p479
(dp480
g11
(lp481
sg13
S'com.android.server.net.DelayedDiskWrite$1'
p482
sg15
(lp483
sg17
(lp484
sg19
(lp485
sg21
I0
sba(iArchitecture
Entity
p486
(dp487
g11
(lp488
sg13
S'com.android.server.net.DelayedDiskWrite$Writer'
p489
sg15
(lp490
sg17
(lp491
sg19
(lp492
sg21
I0
sbasg50
(lp493
g475
ag482
ag489
asg21
I0
sg52
S'866'
p494
sba(iArchitecture
Cluster
p495
(dp496
g7
(lp497
(iArchitecture
Entity
p498
(dp499
g11
(lp500
sg13
S'android.filterfw.core.SerializedFrame'
p501
sg15
(lp502
sg17
(lp503
sg19
(lp504
sg21
I0
sba(iArchitecture
Entity
p505
(dp506
g11
(lp507
sg13
S'android.filterfw.core.SerializedFrame$DirectByteInputStream'
p508
sg15
(lp509
sg17
(lp510
sg19
(lp511
sg21
I0
sba(iArchitecture
Entity
p512
(dp513
g11
(lp514
sg13
S'android.filterfw.core.SerializedFrame$DirectByteOutputStream'
p515
sg15
(lp516
sg17
(lp517
sg19
(lp518
sg21
I0
sbasg50
(lp519
g501
ag508
ag515
asg21
I0
sg52
S'966'
p520
sbasS'target_sub'
p521
S'66'
p522
sg50
(lp523
sS'is_component_arch'
p524
I01
sg52
S'7.0.0_r1'
p525
sba.