(lp0
(iArchitecture
Architecture
p1
(dp2
S'clusters'
p3
(lp4
(iArchitecture
Cluster
p5
(dp6
S'entities'
p7
(lp8
(iArchitecture
Entity
p9
(dp10
S'issue_ids'
p11
(lp12
sS'name'
p13
S'android.view.animation.Transformation'
p14
sS'descs'
p15
(lp16
sS'labels'
p17
(lp18
sS'titles'
p19
(lp20
sS'change'
p21
I0
sbasS'classes'
p22
(lp23
g14
asg21
I0
sS'label'
p24
S'108'
p25
sba(iArchitecture
Cluster
p26
(dp27
g7
(lp28
(iArchitecture
Entity
p29
(dp30
g11
(lp31
sg13
S'com.android.server.LockSettingsStorage'
p32
sg15
(lp33
sg17
(lp34
sg19
(lp35
sg21
I0
sba(iArchitecture
Entity
p36
(dp37
g11
(lp38
sg13
S'com.android.server.LockSettingsStorage$Cache'
p39
sg15
(lp40
sg17
(lp41
sg19
(lp42
sg21
I0
sba(iArchitecture
Entity
p43
(dp44
g11
(lp45
sg13
S'com.android.server.LockSettingsStorage$Cache$CacheKey'
p46
sg15
(lp47
sg17
(lp48
sg19
(lp49
sg21
I0
sba(iArchitecture
Entity
p50
(dp51
g11
(lp52
sg13
S'com.android.server.LockSettingsStorage$Callback'
p53
sg15
(lp54
sg17
(lp55
sg19
(lp56
sg21
I0
sba(iArchitecture
Entity
p57
(dp58
g11
(lp59
sg13
S'com.android.server.LockSettingsStorage$CredentialHash'
p60
sg15
(lp61
sg17
(lp62
sg19
(lp63
sg21
I0
sba(iArchitecture
Entity
p64
(dp65
g11
(lp66
sg13
S'com.android.server.LockSettingsStorage$DatabaseHelper'
p67
sg15
(lp68
sg17
(lp69
sg19
(lp70
sg21
I0
sbasg22
(lp71
g32
ag39
ag46
ag53
ag60
ag67
asg21
I0
sg24
S'1080'
p72
sba(iArchitecture
Cluster
p73
(dp74
g7
(lp75
(iArchitecture
Entity
p76
(dp77
g11
(lp78
sg13
S'android.service.voice.AlwaysOnHotwordDetector'
p79
sg15
(lp80
sg17
(lp81
sg19
(lp82
sg21
I0
sba(iArchitecture
Entity
p83
(dp84
g11
(lp85
sg13
S'android.service.voice.AlwaysOnHotwordDetector$Callback'
p86
sg15
(lp87
sg17
(lp88
sg19
(lp89
sg21
I0
sba(iArchitecture
Entity
p90
(dp91
g11
(lp92
sg13
S'android.service.voice.AlwaysOnHotwordDetector$EventPayload'
p93
sg15
(lp94
sg17
(lp95
sg19
(lp96
sg21
I0
sba(iArchitecture
Entity
p97
(dp98
g11
(lp99
sg13
S'android.service.voice.AlwaysOnHotwordDetector$MyHandler'
p100
sg15
(lp101
sg17
(lp102
sg19
(lp103
sg21
I0
sba(iArchitecture
Entity
p104
(dp105
g11
(lp106
sg13
S'android.service.voice.AlwaysOnHotwordDetector$RefreshAvailabiltyTask'
p107
sg15
(lp108
sg17
(lp109
sg19
(lp110
sg21
I0
sba(iArchitecture
Entity
p111
(dp112
g11
(lp113
sg13
S'android.service.voice.AlwaysOnHotwordDetector$SoundTriggerListener'
p114
sg15
(lp115
sg17
(lp116
sg19
(lp117
sg21
I0
sbasg22
(lp118
g79
ag86
ag93
ag100
ag107
ag114
asg21
I0
sg24
S'1081'
p119
sba(iArchitecture
Cluster
p120
(dp121
g7
(lp122
(iArchitecture
Entity
p123
(dp124
g11
(lp125
sg13
S'com.android.server.display.DisplayPowerState'
p126
sg15
(lp127
sg17
(lp128
sg19
(lp129
sg21
I0
sba(iArchitecture
Entity
p130
(dp131
g11
(lp132
sg13
S'com.android.server.display.DisplayPowerState$1'
p133
sg15
(lp134
sg17
(lp135
sg19
(lp136
sg21
I0
sba(iArchitecture
Entity
p137
(dp138
g11
(lp139
sg13
S'com.android.server.display.DisplayPowerState$2'
p140
sg15
(lp141
sg17
(lp142
sg19
(lp143
sg21
I0
sba(iArchitecture
Entity
p144
(dp145
g11
(lp146
sg13
S'com.android.server.display.DisplayPowerState$3'
p147
sg15
(lp148
sg17
(lp149
sg19
(lp150
sg21
I0
sba(iArchitecture
Entity
p151
(dp152
g11
(lp153
sg13
S'com.android.server.display.DisplayPowerState$4'
p154
sg15
(lp155
sg17
(lp156
sg19
(lp157
sg21
I0
sba(iArchitecture
Entity
p158
(dp159
g11
(lp160
sg13
S'com.android.server.display.DisplayPowerState$PhotonicModulator'
p161
sg15
(lp162
sg17
(lp163
sg19
(lp164
sg21
I0
sbasg22
(lp165
g126
ag133
ag140
ag147
ag154
ag161
asg21
I0
sg24
S'1082'
p166
sba(iArchitecture
Cluster
p167
(dp168
g7
(lp169
(iArchitecture
Entity
p170
(dp171
g11
(lp172
sg13
S'com.android.server.print.PrintManagerService'
p173
sg15
(lp174
sg17
(lp175
sg19
(lp176
sg21
I0
sba(iArchitecture
Entity
p177
(dp178
g11
(lp179
sg13
S'com.android.server.print.PrintManagerService$PrintManagerImpl'
p180
sg15
(lp181
sg17
(lp182
sg19
(lp183
sg21
I0
sba(iArchitecture
Entity
p184
(dp185
g11
(lp186
sg13
S'com.android.server.print.PrintManagerService$PrintManagerImpl$1'
p187
sg15
(lp188
sg17
(lp189
sg19
(lp190
sg21
I0
sba(iArchitecture
Entity
p191
(dp192
g11
(lp193
sg13
S'com.android.server.print.PrintManagerService$PrintManagerImpl$2'
p194
sg15
(lp195
sg17
(lp196
sg19
(lp197
sg21
I0
sba(iArchitecture
Entity
p198
(dp199
g11
(lp200
sg13
S'com.android.server.print.PrintManagerService$PrintManagerImpl$3'
p201
sg15
(lp202
sg17
(lp203
sg19
(lp204
sg21
I0
sba(iArchitecture
Entity
p205
(dp206
g11
(lp207
sg13
S'com.android.server.print.PrintManagerService$PrintManagerImpl$4'
p208
sg15
(lp209
sg17
(lp210
sg19
(lp211
sg21
I0
sbasg22
(lp212
g173
ag180
ag187
ag194
ag201
ag208
asg21
I0
sg24
S'1083'
p213
sba(iArchitecture
Cluster
p214
(dp215
g7
(lp216
(iArchitecture
Entity
p217
(dp218
g11
(lp219
sg13
S'android.net.wifi.WifiEnterpriseConfig'
p220
sg15
(lp221
sg17
(lp222
sg19
(lp223
sg21
I0
sba(iArchitecture
Entity
p224
(dp225
g11
(lp226
sg13
S'android.net.wifi.WifiEnterpriseConfig$1'
p227
sg15
(lp228
sg17
(lp229
sg19
(lp230
sg21
I0
sba(iArchitecture
Entity
p231
(dp232
g11
(lp233
sg13
S'android.net.wifi.WifiEnterpriseConfig$Eap'
p234
sg15
(lp235
sg17
(lp236
sg19
(lp237
sg21
I0
sba(iArchitecture
Entity
p238
(dp239
g11
(lp240
sg13
S'android.net.wifi.WifiEnterpriseConfig$Phase2'
p241
sg15
(lp242
sg17
(lp243
sg19
(lp244
sg21
I0
sba(iArchitecture
Entity
p245
(dp246
g11
(lp247
sg13
S'android.net.wifi.WifiEnterpriseConfig$SupplicantLoader'
p248
sg15
(lp249
sg17
(lp250
sg19
(lp251
sg21
I0
sba(iArchitecture
Entity
p252
(dp253
g11
(lp254
sg13
S'android.net.wifi.WifiEnterpriseConfig$SupplicantSaver'
p255
sg15
(lp256
sg17
(lp257
sg19
(lp258
sg21
I0
sbasg22
(lp259
g220
ag227
ag234
ag241
ag248
ag255
asg21
I0
sg24
S'1084'
p260
sba(iArchitecture
Cluster
p261
(dp262
g7
(lp263
(iArchitecture
Entity
p264
(dp265
g11
(lp266
sg13
S'android.widget.YearPickerView'
p267
sg15
(lp268
sg17
(lp269
sg19
(lp270
sg21
I0
sba(iArchitecture
Entity
p271
(dp272
g11
(lp273
sg13
S'android.widget.YearPickerView$1'
p274
sg15
(lp275
sg17
(lp276
sg19
(lp277
sg21
I0
sba(iArchitecture
Entity
p278
(dp279
g11
(lp280
sg13
S'android.widget.YearPickerView$2'
p281
sg15
(lp282
sg17
(lp283
sg19
(lp284
sg21
I0
sba(iArchitecture
Entity
p285
(dp286
g11
(lp287
sg13
S'android.widget.YearPickerView$OnYearSelectedListener'
p288
sg15
(lp289
sg17
(lp290
sg19
(lp291
sg21
I0
sba(iArchitecture
Entity
p292
(dp293
g11
(lp294
sg13
S'android.widget.YearPickerView$YearAdapter'
p295
sg15
(lp296
sg17
(lp297
sg19
(lp298
sg21
I0
sbasg22
(lp299
g267
ag274
ag281
ag288
ag295
asg21
I0
sg24
S'1085'
p300
sba(iArchitecture
Cluster
p301
(dp302
g7
(lp303
(iArchitecture
Entity
p304
(dp305
g11
(lp306
sg13
S'android.view.accessibility.CaptioningManager'
p307
sg15
(lp308
sg17
(lp309
sg19
(lp310
sg21
I0
sba(iArchitecture
Entity
p311
(dp312
g11
(lp313
sg13
S'android.view.accessibility.CaptioningManager$1'
p314
sg15
(lp315
sg17
(lp316
sg19
(lp317
sg21
I0
sba(iArchitecture
Entity
p318
(dp319
g11
(lp320
sg13
S'android.view.accessibility.CaptioningManager$CaptionStyle'
p321
sg15
(lp322
sg17
(lp323
sg19
(lp324
sg21
I0
sba(iArchitecture
Entity
p325
(dp326
g11
(lp327
sg13
S'android.view.accessibility.CaptioningManager$CaptioningChangeListener'
p328
sg15
(lp329
sg17
(lp330
sg19
(lp331
sg21
I0
sba(iArchitecture
Entity
p332
(dp333
g11
(lp334
sg13
S'android.view.accessibility.CaptioningManager$MyContentObserver'
p335
sg15
(lp336
sg17
(lp337
sg19
(lp338
sg21
I0
sbasg22
(lp339
g307
ag314
ag321
ag328
ag335
asg21
I0
sg24
S'1086'
p340
sba(iArchitecture
Cluster
p341
(dp342
g7
(lp343
(iArchitecture
Entity
p344
(dp345
g11
(lp346
sg13
S'com.android.server.tv.TvRemoteProviderProxy'
p347
sg15
(lp348
sg17
(lp349
sg19
(lp350
sg21
I0
sba(iArchitecture
Entity
p351
(dp352
g11
(lp353
sg13
S'com.android.server.tv.TvRemoteProviderProxy$Connection'
p354
sg15
(lp355
sg17
(lp356
sg19
(lp357
sg21
I0
sba(iArchitecture
Entity
p358
(dp359
g11
(lp360
sg13
S'com.android.server.tv.TvRemoteProviderProxy$Connection$1'
p361
sg15
(lp362
sg17
(lp363
sg19
(lp364
sg21
I0
sba(iArchitecture
Entity
p365
(dp366
g11
(lp367
sg13
S'com.android.server.tv.TvRemoteProviderProxy$Connection$2'
p368
sg15
(lp369
sg17
(lp370
sg19
(lp371
sg21
I0
sba(iArchitecture
Entity
p372
(dp373
g11
(lp374
sg13
S'com.android.server.tv.TvRemoteProviderProxy$ProviderMethods'
p375
sg15
(lp376
sg17
(lp377
sg19
(lp378
sg21
I0
sba(iArchitecture
Entity
p379
(dp380
g11
(lp381
sg13
S'com.android.server.tv.TvRemoteProviderProxy$RemoteServiceInputProvider'
p382
sg15
(lp383
sg17
(lp384
sg19
(lp385
sg21
I0
sbasg22
(lp386
g347
ag354
ag361
ag368
ag375
ag382
asg21
I0
sg24
S'1087'
p387
sba(iArchitecture
Cluster
p388
(dp389
g7
(lp390
(iArchitecture
Entity
p391
(dp392
g11
(lp393
sg13
S'android.hardware.hdmi.HdmiPlaybackClient'
p394
sg15
(lp395
sg17
(lp396
sg19
(lp397
sg21
I0
sba(iArchitecture
Entity
p398
(dp399
g11
(lp400
sg13
S'android.hardware.hdmi.HdmiPlaybackClient$1'
p401
sg15
(lp402
sg17
(lp403
sg19
(lp404
sg21
I0
sba(iArchitecture
Entity
p405
(dp406
g11
(lp407
sg13
S'android.hardware.hdmi.HdmiPlaybackClient$2'
p408
sg15
(lp409
sg17
(lp410
sg19
(lp411
sg21
I0
sba(iArchitecture
Entity
p412
(dp413
g11
(lp414
sg13
S'android.hardware.hdmi.HdmiPlaybackClient$DisplayStatusCallback'
p415
sg15
(lp416
sg17
(lp417
sg19
(lp418
sg21
I0
sba(iArchitecture
Entity
p419
(dp420
g11
(lp421
sg13
S'android.hardware.hdmi.HdmiPlaybackClient$OneTouchPlayCallback'
p422
sg15
(lp423
sg17
(lp424
sg19
(lp425
sg21
I0
sbasg22
(lp426
g394
ag401
ag408
ag415
ag422
asg21
I0
sg24
S'1088'
p427
sba(iArchitecture
Cluster
p428
(dp429
g7
(lp430
(iArchitecture
Entity
p431
(dp432
g11
(lp433
sg13
S'android.net.NetworkStatsHistory'
p434
sg15
(lp435
sg17
(lp436
sg19
(lp437
sg21
I0
sba(iArchitecture
Entity
p438
(dp439
g11
(lp440
sg13
S'android.net.NetworkStatsHistory$1'
p441
sg15
(lp442
sg17
(lp443
sg19
(lp444
sg21
I0
sba(iArchitecture
Entity
p445
(dp446
g11
(lp447
sg13
S'android.net.NetworkStatsHistory$DataStreamUtils'
p448
sg15
(lp449
sg17
(lp450
sg19
(lp451
sg21
I0
sba(iArchitecture
Entity
p452
(dp453
g11
(lp454
sg13
S'android.net.NetworkStatsHistory$Entry'
p455
sg15
(lp456
sg17
(lp457
sg19
(lp458
sg21
I0
sba(iArchitecture
Entity
p459
(dp460
g11
(lp461
sg13
S'android.net.NetworkStatsHistory$ParcelUtils'
p462
sg15
(lp463
sg17
(lp464
sg19
(lp465
sg21
I0
sbasg22
(lp466
g434
ag441
ag448
ag455
ag462
asg21
I0
sg24
S'1089'
p467
sba(iArchitecture
Cluster
p468
(dp469
g7
(lp470
(iArchitecture
Entity
p471
(dp472
g11
(lp473
sg13
S'com.android.server.display.AutomaticBrightnessController'
p474
sg15
(lp475
sg17
(lp476
sg19
(lp477
sg21
I0
sba(iArchitecture
Entity
p478
(dp479
g11
(lp480
sg13
S'com.android.server.display.AutomaticBrightnessController$1'
p481
sg15
(lp482
sg17
(lp483
sg19
(lp484
sg21
I0
sba(iArchitecture
Entity
p485
(dp486
g11
(lp487
sg13
S'com.android.server.display.AutomaticBrightnessController$2'
p488
sg15
(lp489
sg17
(lp490
sg19
(lp491
sg21
I0
sba(iArchitecture
Entity
p492
(dp493
g11
(lp494
sg13
S'com.android.server.display.AutomaticBrightnessController$AmbientLightRingBuffer'
p495
sg15
(lp496
sg17
(lp497
sg19
(lp498
sg21
I0
sba(iArchitecture
Entity
p499
(dp500
g11
(lp501
sg13
S'com.android.server.display.AutomaticBrightnessController$AutomaticBrightnessHandler'
p502
sg15
(lp503
sg17
(lp504
sg19
(lp505
sg21
I0
sba(iArchitecture
Entity
p506
(dp507
g11
(lp508
sg13
S'com.android.server.display.AutomaticBrightnessController$Callbacks'
p509
sg15
(lp510
sg17
(lp511
sg19
(lp512
sg21
I0
sbasg22
(lp513
g474
ag481
ag488
ag495
ag502
ag509
asg21
I0
sg24
S'1108'
p514
sbasS'target_sub'
p515
S'108'
p516
sg22
(lp517
sS'is_component_arch'
p518
I01
sg24
S'7.0.0_r1'
p519
sba.