(lp0
(iArchitecture
Architecture
p1
(dp2
S'clusters'
p3
(lp4
(iArchitecture
Cluster
p5
(dp6
S'entities'
p7
(lp8
(iArchitecture
Entity
p9
(dp10
S'issue_ids'
p11
(lp12
sS'name'
p13
S'com.android.server.usb.UsbPortManager'
p14
sS'descs'
p15
(lp16
sS'labels'
p17
(lp18
sS'titles'
p19
(lp20
sS'change'
p21
I0
sba(iArchitecture
Entity
p22
(dp23
g11
(lp24
sg13
S'com.android.server.usb.UsbPortManager$1'
p25
sg15
(lp26
sg17
(lp27
sg19
(lp28
sg21
I0
sba(iArchitecture
Entity
p29
(dp30
g11
(lp31
sg13
S'com.android.server.usb.UsbPortManager$2'
p32
sg15
(lp33
sg17
(lp34
sg19
(lp35
sg21
I0
sba(iArchitecture
Entity
p36
(dp37
g11
(lp38
sg13
S'com.android.server.usb.UsbPortManager$3'
p39
sg15
(lp40
sg17
(lp41
sg19
(lp42
sg21
I0
sba(iArchitecture
Entity
p43
(dp44
g11
(lp45
sg13
S'com.android.server.usb.UsbPortManager$PortInfo'
p46
sg15
(lp47
sg17
(lp48
sg19
(lp49
sg21
I0
sba(iArchitecture
Entity
p50
(dp51
g11
(lp52
sg13
S'com.android.server.usb.UsbPortManager$SimulatedPortInfo'
p53
sg15
(lp54
sg17
(lp55
sg19
(lp56
sg21
I0
sbasS'classes'
p57
(lp58
g14
ag25
ag32
ag39
ag46
ag53
asg21
I0
sS'label'
p59
S'1120'
p60
sba(iArchitecture
Cluster
p61
(dp62
g7
(lp63
(iArchitecture
Entity
p64
(dp65
g11
(lp66
sg13
S'android.net.netlink.NetlinkMessage'
p67
sg15
(lp68
sg17
(lp69
sg19
(lp70
sg21
I0
sbasg57
(lp71
g67
asg21
I0
sg59
S'120'
p72
sba(iArchitecture
Cluster
p73
(dp74
g7
(lp75
(iArchitecture
Entity
p76
(dp77
g11
(lp78
sg13
S'com.android.server.policy.ImmersiveModeConfirmation'
p79
sg15
(lp80
sg17
(lp81
sg19
(lp82
sg21
I0
sba(iArchitecture
Entity
p83
(dp84
g11
(lp85
sg13
S'com.android.server.policy.ImmersiveModeConfirmation$1'
p86
sg15
(lp87
sg17
(lp88
sg19
(lp89
sg21
I0
sba(iArchitecture
Entity
p90
(dp91
g11
(lp92
sg13
S'com.android.server.policy.ImmersiveModeConfirmation$2'
p93
sg15
(lp94
sg17
(lp95
sg19
(lp96
sg21
I0
sba(iArchitecture
Entity
p97
(dp98
g11
(lp99
sg13
S'com.android.server.policy.ImmersiveModeConfirmation$ClingWindowView'
p100
sg15
(lp101
sg17
(lp102
sg19
(lp103
sg21
I0
sba(iArchitecture
Entity
p104
(dp105
g11
(lp106
sg13
S'com.android.server.policy.ImmersiveModeConfirmation$ClingWindowView$1'
p107
sg15
(lp108
sg17
(lp109
sg19
(lp110
sg21
I0
sba(iArchitecture
Entity
p111
(dp112
g11
(lp113
sg13
S'com.android.server.policy.ImmersiveModeConfirmation$ClingWindowView$2'
p114
sg15
(lp115
sg17
(lp116
sg19
(lp117
sg21
I0
sba(iArchitecture
Entity
p118
(dp119
g11
(lp120
sg13
S'com.android.server.policy.ImmersiveModeConfirmation$ClingWindowView$3'
p121
sg15
(lp122
sg17
(lp123
sg19
(lp124
sg21
I0
sba(iArchitecture
Entity
p125
(dp126
g11
(lp127
sg13
S'com.android.server.policy.ImmersiveModeConfirmation$ClingWindowView$4'
p128
sg15
(lp129
sg17
(lp130
sg19
(lp131
sg21
I0
sba(iArchitecture
Entity
p132
(dp133
g11
(lp134
sg13
S'com.android.server.policy.ImmersiveModeConfirmation$ClingWindowView$5'
p135
sg15
(lp136
sg17
(lp137
sg19
(lp138
sg21
I0
sba(iArchitecture
Entity
p139
(dp140
g11
(lp141
sg13
S'com.android.server.policy.ImmersiveModeConfirmation$ClingWindowView$5$1'
p142
sg15
(lp143
sg17
(lp144
sg19
(lp145
sg21
I0
sba(iArchitecture
Entity
p146
(dp147
g11
(lp148
sg13
S'com.android.server.policy.ImmersiveModeConfirmation$H'
p149
sg15
(lp150
sg17
(lp151
sg19
(lp152
sg21
I0
sbasg57
(lp153
g79
ag86
ag93
ag100
ag107
ag114
ag121
ag128
ag135
ag142
ag149
asg21
I0
sg59
S'1200'
p154
sba(iArchitecture
Cluster
p155
(dp156
g7
(lp157
(iArchitecture
Entity
p158
(dp159
g11
(lp160
sg13
S'android.hardware.camera2.legacy.CameraDeviceState'
p161
sg15
(lp162
sg17
(lp163
sg19
(lp164
sg21
I0
sba(iArchitecture
Entity
p165
(dp166
g11
(lp167
sg13
S'android.hardware.camera2.legacy.CameraDeviceState$1'
p168
sg15
(lp169
sg17
(lp170
sg19
(lp171
sg21
I0
sba(iArchitecture
Entity
p172
(dp173
g11
(lp174
sg13
S'android.hardware.camera2.legacy.CameraDeviceState$2'
p175
sg15
(lp176
sg17
(lp177
sg19
(lp178
sg21
I0
sba(iArchitecture
Entity
p179
(dp180
g11
(lp181
sg13
S'android.hardware.camera2.legacy.CameraDeviceState$3'
p182
sg15
(lp183
sg17
(lp184
sg19
(lp185
sg21
I0
sba(iArchitecture
Entity
p186
(dp187
g11
(lp188
sg13
S'android.hardware.camera2.legacy.CameraDeviceState$4'
p189
sg15
(lp190
sg17
(lp191
sg19
(lp192
sg21
I0
sba(iArchitecture
Entity
p193
(dp194
g11
(lp195
sg13
S'android.hardware.camera2.legacy.CameraDeviceState$5'
p196
sg15
(lp197
sg17
(lp198
sg19
(lp199
sg21
I0
sba(iArchitecture
Entity
p200
(dp201
g11
(lp202
sg13
S'android.hardware.camera2.legacy.CameraDeviceState$6'
p203
sg15
(lp204
sg17
(lp205
sg19
(lp206
sg21
I0
sba(iArchitecture
Entity
p207
(dp208
g11
(lp209
sg13
S'android.hardware.camera2.legacy.CameraDeviceState$7'
p210
sg15
(lp211
sg17
(lp212
sg19
(lp213
sg21
I0
sba(iArchitecture
Entity
p214
(dp215
g11
(lp216
sg13
S'android.hardware.camera2.legacy.CameraDeviceState$8'
p217
sg15
(lp218
sg17
(lp219
sg19
(lp220
sg21
I0
sba(iArchitecture
Entity
p221
(dp222
g11
(lp223
sg13
S'android.hardware.camera2.legacy.CameraDeviceState$9'
p224
sg15
(lp225
sg17
(lp226
sg19
(lp227
sg21
I0
sba(iArchitecture
Entity
p228
(dp229
g11
(lp230
sg13
S'android.hardware.camera2.legacy.CameraDeviceState$CameraDeviceStateListener'
p231
sg15
(lp232
sg17
(lp233
sg19
(lp234
sg21
I0
sbasg57
(lp235
g161
ag168
ag175
ag182
ag189
ag196
ag203
ag210
ag217
ag224
ag231
asg21
I0
sg59
S'1201'
p236
sba(iArchitecture
Cluster
p237
(dp238
g7
(lp239
(iArchitecture
Entity
p240
(dp241
g11
(lp242
sg13
S'android.app.Instrumentation'
p243
sg15
(lp244
sg17
(lp245
sg19
(lp246
sg21
I0
sba(iArchitecture
Entity
p247
(dp248
g11
(lp249
sg13
S'android.app.Instrumentation$1ContextMenuRunnable'
p250
sg15
(lp251
sg17
(lp252
sg19
(lp253
sg21
I0
sba(iArchitecture
Entity
p254
(dp255
g11
(lp256
sg13
S'android.app.Instrumentation$1MenuRunnable'
p257
sg15
(lp258
sg17
(lp259
sg19
(lp260
sg21
I0
sba(iArchitecture
Entity
p261
(dp262
g11
(lp263
sg13
S'android.app.Instrumentation$ActivityGoing'
p264
sg15
(lp265
sg17
(lp266
sg19
(lp267
sg21
I0
sba(iArchitecture
Entity
p268
(dp269
g11
(lp270
sg13
S'android.app.Instrumentation$ActivityMonitor'
p271
sg15
(lp272
sg17
(lp273
sg19
(lp274
sg21
I0
sba(iArchitecture
Entity
p275
(dp276
g11
(lp277
sg13
S'android.app.Instrumentation$ActivityResult'
p278
sg15
(lp279
sg17
(lp280
sg19
(lp281
sg21
I0
sba(iArchitecture
Entity
p282
(dp283
g11
(lp284
sg13
S'android.app.Instrumentation$ActivityWaiter'
p285
sg15
(lp286
sg17
(lp287
sg19
(lp288
sg21
I0
sba(iArchitecture
Entity
p289
(dp290
g11
(lp291
sg13
S'android.app.Instrumentation$EmptyRunnable'
p292
sg15
(lp293
sg17
(lp294
sg19
(lp295
sg21
I0
sba(iArchitecture
Entity
p296
(dp297
g11
(lp298
sg13
S'android.app.Instrumentation$Idler'
p299
sg15
(lp300
sg17
(lp301
sg19
(lp302
sg21
I0
sba(iArchitecture
Entity
p303
(dp304
g11
(lp305
sg13
S'android.app.Instrumentation$InstrumentationThread'
p306
sg15
(lp307
sg17
(lp308
sg19
(lp309
sg21
I0
sba(iArchitecture
Entity
p310
(dp311
g11
(lp312
sg13
S'android.app.Instrumentation$SyncRunnable'
p313
sg15
(lp314
sg17
(lp315
sg19
(lp316
sg21
I0
sbasg57
(lp317
g243
ag250
ag257
ag264
ag271
ag278
ag285
ag292
ag299
ag306
ag313
asg21
I0
sg59
S'1202'
p318
sba(iArchitecture
Cluster
p319
(dp320
g7
(lp321
(iArchitecture
Entity
p322
(dp323
g11
(lp324
sg13
S'android.widget.PopupWindow'
p325
sg15
(lp326
sg17
(lp327
sg19
(lp328
sg21
I0
sba(iArchitecture
Entity
p329
(dp330
g11
(lp331
sg13
S'android.widget.PopupWindow$1'
p332
sg15
(lp333
sg17
(lp334
sg19
(lp335
sg21
I0
sba(iArchitecture
Entity
p336
(dp337
g11
(lp338
sg13
S'android.widget.PopupWindow$2'
p339
sg15
(lp340
sg17
(lp341
sg19
(lp342
sg21
I0
sba(iArchitecture
Entity
p343
(dp344
g11
(lp345
sg13
S'android.widget.PopupWindow$3'
p346
sg15
(lp347
sg17
(lp348
sg19
(lp349
sg21
I0
sba(iArchitecture
Entity
p350
(dp351
g11
(lp352
sg13
S'android.widget.PopupWindow$4'
p353
sg15
(lp354
sg17
(lp355
sg19
(lp356
sg21
I0
sba(iArchitecture
Entity
p357
(dp358
g11
(lp359
sg13
S'android.widget.PopupWindow$OnDismissListener'
p360
sg15
(lp361
sg17
(lp362
sg19
(lp363
sg21
I0
sba(iArchitecture
Entity
p364
(dp365
g11
(lp366
sg13
S'android.widget.PopupWindow$PopupBackgroundView'
p367
sg15
(lp368
sg17
(lp369
sg19
(lp370
sg21
I0
sba(iArchitecture
Entity
p371
(dp372
g11
(lp373
sg13
S'android.widget.PopupWindow$PopupDecorView'
p374
sg15
(lp375
sg17
(lp376
sg19
(lp377
sg21
I0
sba(iArchitecture
Entity
p378
(dp379
g11
(lp380
sg13
S'android.widget.PopupWindow$PopupDecorView$1'
p381
sg15
(lp382
sg17
(lp383
sg19
(lp384
sg21
I0
sba(iArchitecture
Entity
p385
(dp386
g11
(lp387
sg13
S'android.widget.PopupWindow$PopupDecorView$2'
p388
sg15
(lp389
sg17
(lp390
sg19
(lp391
sg21
I0
sba(iArchitecture
Entity
p392
(dp393
g11
(lp394
sg13
S'android.widget.PopupWindow$PopupDecorView$2$1'
p395
sg15
(lp396
sg17
(lp397
sg19
(lp398
sg21
I0
sba(iArchitecture
Entity
p399
(dp400
g11
(lp401
sg13
S'android.widget.PopupWindow$PopupDecorView$3'
p402
sg15
(lp403
sg17
(lp404
sg19
(lp405
sg21
I0
sbasg57
(lp406
g325
ag332
ag339
ag346
ag353
ag360
ag367
ag374
ag381
ag388
ag395
ag402
asg21
I0
sg59
S'1203'
p407
sba(iArchitecture
Cluster
p408
(dp409
g7
(lp410
(iArchitecture
Entity
p411
(dp412
g11
(lp413
sg13
S'android.hardware.fingerprint.FingerprintManager'
p414
sg15
(lp415
sg17
(lp416
sg19
(lp417
sg21
I0
sba(iArchitecture
Entity
p418
(dp419
g11
(lp420
sg13
S'android.hardware.fingerprint.FingerprintManager$1'
p421
sg15
(lp422
sg17
(lp423
sg19
(lp424
sg21
I0
sba(iArchitecture
Entity
p425
(dp426
g11
(lp427
sg13
S'android.hardware.fingerprint.FingerprintManager$2'
p428
sg15
(lp429
sg17
(lp430
sg19
(lp431
sg21
I0
sba(iArchitecture
Entity
p432
(dp433
g11
(lp434
sg13
S'android.hardware.fingerprint.FingerprintManager$2$1'
p435
sg15
(lp436
sg17
(lp437
sg19
(lp438
sg21
I0
sba(iArchitecture
Entity
p439
(dp440
g11
(lp441
sg13
S'android.hardware.fingerprint.FingerprintManager$AuthenticationCallback'
p442
sg15
(lp443
sg17
(lp444
sg19
(lp445
sg21
I0
sba(iArchitecture
Entity
p446
(dp447
g11
(lp448
sg13
S'android.hardware.fingerprint.FingerprintManager$AuthenticationResult'
p449
sg15
(lp450
sg17
(lp451
sg19
(lp452
sg21
I0
sba(iArchitecture
Entity
p453
(dp454
g11
(lp455
sg13
S'android.hardware.fingerprint.FingerprintManager$CryptoObject'
p456
sg15
(lp457
sg17
(lp458
sg19
(lp459
sg21
I0
sba(iArchitecture
Entity
p460
(dp461
g11
(lp462
sg13
S'android.hardware.fingerprint.FingerprintManager$EnrollmentCallback'
p463
sg15
(lp464
sg17
(lp465
sg19
(lp466
sg21
I0
sba(iArchitecture
Entity
p467
(dp468
g11
(lp469
sg13
S'android.hardware.fingerprint.FingerprintManager$LockoutResetCallback'
p470
sg15
(lp471
sg17
(lp472
sg19
(lp473
sg21
I0
sba(iArchitecture
Entity
p474
(dp475
g11
(lp476
sg13
S'android.hardware.fingerprint.FingerprintManager$MyHandler'
p477
sg15
(lp478
sg17
(lp479
sg19
(lp480
sg21
I0
sba(iArchitecture
Entity
p481
(dp482
g11
(lp483
sg13
S'android.hardware.fingerprint.FingerprintManager$OnAuthenticationCancelListener'
p484
sg15
(lp485
sg17
(lp486
sg19
(lp487
sg21
I0
sba(iArchitecture
Entity
p488
(dp489
g11
(lp490
sg13
S'android.hardware.fingerprint.FingerprintManager$OnEnrollCancelListener'
p491
sg15
(lp492
sg17
(lp493
sg19
(lp494
sg21
I0
sba(iArchitecture
Entity
p495
(dp496
g11
(lp497
sg13
S'android.hardware.fingerprint.FingerprintManager$RemovalCallback'
p498
sg15
(lp499
sg17
(lp500
sg19
(lp501
sg21
I0
sbasg57
(lp502
g414
ag421
ag428
ag435
ag442
ag449
ag456
ag463
ag470
ag477
ag484
ag491
ag498
asg21
I0
sg59
S'1204'
p503
sba(iArchitecture
Cluster
p504
(dp505
g7
(lp506
(iArchitecture
Entity
p507
(dp508
g11
(lp509
sg13
S'com.android.server.content.SyncStorageEngine'
p510
sg15
(lp511
sg17
(lp512
sg19
(lp513
sg21
I0
sba(iArchitecture
Entity
p514
(dp515
g11
(lp516
sg13
S'com.android.server.content.SyncStorageEngine$AccountInfo'
p517
sg15
(lp518
sg17
(lp519
sg19
(lp520
sg21
I0
sba(iArchitecture
Entity
p521
(dp522
g11
(lp523
sg13
S'com.android.server.content.SyncStorageEngine$AuthorityInfo'
p524
sg15
(lp525
sg17
(lp526
sg19
(lp527
sg21
I0
sba(iArchitecture
Entity
p528
(dp529
g11
(lp530
sg13
S'com.android.server.content.SyncStorageEngine$DayStats'
p531
sg15
(lp532
sg17
(lp533
sg19
(lp534
sg21
I0
sba(iArchitecture
Entity
p535
(dp536
g11
(lp537
sg13
S'com.android.server.content.SyncStorageEngine$EndPoint'
p538
sg15
(lp539
sg17
(lp540
sg19
(lp541
sg21
I0
sba(iArchitecture
Entity
p542
(dp543
g11
(lp544
sg13
S'com.android.server.content.SyncStorageEngine$OnAuthorityRemovedListener'
p545
sg15
(lp546
sg17
(lp547
sg19
(lp548
sg21
I0
sba(iArchitecture
Entity
p549
(dp550
g11
(lp551
sg13
S'com.android.server.content.SyncStorageEngine$OnSyncRequestListener'
p552
sg15
(lp553
sg17
(lp554
sg19
(lp555
sg21
I0
sba(iArchitecture
Entity
p556
(dp557
g11
(lp558
sg13
S'com.android.server.content.SyncStorageEngine$PeriodicSyncAddedListener'
p559
sg15
(lp560
sg17
(lp561
sg19
(lp562
sg21
I0
sba(iArchitecture
Entity
p563
(dp564
g11
(lp565
sg13
S'com.android.server.content.SyncStorageEngine$SyncHistoryItem'
p566
sg15
(lp567
sg17
(lp568
sg19
(lp569
sg21
I0
sbasg57
(lp570
g510
ag517
ag524
ag531
ag538
ag545
ag552
ag559
ag566
asg21
I0
sg59
S'1205'
p571
sba(iArchitecture
Cluster
p572
(dp573
g7
(lp574
(iArchitecture
Entity
p575
(dp576
g11
(lp577
sg13
S'android.service.carrier.CarrierMessagingService'
p578
sg15
(lp579
sg17
(lp580
sg19
(lp581
sg21
I0
sba(iArchitecture
Entity
p582
(dp583
g11
(lp584
sg13
S'android.service.carrier.CarrierMessagingService$1'
p585
sg15
(lp586
sg17
(lp587
sg19
(lp588
sg21
I0
sba(iArchitecture
Entity
p589
(dp590
g11
(lp591
sg13
S'android.service.carrier.CarrierMessagingService$ICarrierMessagingWrapper'
p592
sg15
(lp593
sg17
(lp594
sg19
(lp595
sg21
I0
sba(iArchitecture
Entity
p596
(dp597
g11
(lp598
sg13
S'android.service.carrier.CarrierMessagingService$ICarrierMessagingWrapper$1'
p599
sg15
(lp600
sg17
(lp601
sg19
(lp602
sg21
I0
sba(iArchitecture
Entity
p603
(dp604
g11
(lp605
sg13
S'android.service.carrier.CarrierMessagingService$ICarrierMessagingWrapper$2'
p606
sg15
(lp607
sg17
(lp608
sg19
(lp609
sg21
I0
sba(iArchitecture
Entity
p610
(dp611
g11
(lp612
sg13
S'android.service.carrier.CarrierMessagingService$ICarrierMessagingWrapper$3'
p613
sg15
(lp614
sg17
(lp615
sg19
(lp616
sg21
I0
sba(iArchitecture
Entity
p617
(dp618
g11
(lp619
sg13
S'android.service.carrier.CarrierMessagingService$ICarrierMessagingWrapper$4'
p620
sg15
(lp621
sg17
(lp622
sg19
(lp623
sg21
I0
sba(iArchitecture
Entity
p624
(dp625
g11
(lp626
sg13
S'android.service.carrier.CarrierMessagingService$ICarrierMessagingWrapper$5'
p627
sg15
(lp628
sg17
(lp629
sg19
(lp630
sg21
I0
sba(iArchitecture
Entity
p631
(dp632
g11
(lp633
sg13
S'android.service.carrier.CarrierMessagingService$ICarrierMessagingWrapper$6'
p634
sg15
(lp635
sg17
(lp636
sg19
(lp637
sg21
I0
sba(iArchitecture
Entity
p638
(dp639
g11
(lp640
sg13
S'android.service.carrier.CarrierMessagingService$ResultCallback'
p641
sg15
(lp642
sg17
(lp643
sg19
(lp644
sg21
I0
sba(iArchitecture
Entity
p645
(dp646
g11
(lp647
sg13
S'android.service.carrier.CarrierMessagingService$SendMmsResult'
p648
sg15
(lp649
sg17
(lp650
sg19
(lp651
sg21
I0
sba(iArchitecture
Entity
p652
(dp653
g11
(lp654
sg13
S'android.service.carrier.CarrierMessagingService$SendMultipartSmsResult'
p655
sg15
(lp656
sg17
(lp657
sg19
(lp658
sg21
I0
sba(iArchitecture
Entity
p659
(dp660
g11
(lp661
sg13
S'android.service.carrier.CarrierMessagingService$SendSmsResult'
p662
sg15
(lp663
sg17
(lp664
sg19
(lp665
sg21
I0
sbasg57
(lp666
g578
ag585
ag592
ag599
ag606
ag613
ag620
ag627
ag634
ag641
ag648
ag655
ag662
asg21
I0
sg59
S'1206'
p667
sba(iArchitecture
Cluster
p668
(dp669
g7
(lp670
(iArchitecture
Entity
p671
(dp672
g11
(lp673
sg13
S'android.media.MediaDrm'
p674
sg15
(lp675
sg17
(lp676
sg19
(lp677
sg21
I0
sba(iArchitecture
Entity
p678
(dp679
g11
(lp680
sg13
S'android.media.MediaDrm$Certificate'
p681
sg15
(lp682
sg17
(lp683
sg19
(lp684
sg21
I0
sba(iArchitecture
Entity
p685
(dp686
g11
(lp687
sg13
S'android.media.MediaDrm$CertificateRequest'
p688
sg15
(lp689
sg17
(lp690
sg19
(lp691
sg21
I0
sba(iArchitecture
Entity
p692
(dp693
g11
(lp694
sg13
S'android.media.MediaDrm$CryptoSession'
p695
sg15
(lp696
sg17
(lp697
sg19
(lp698
sg21
I0
sba(iArchitecture
Entity
p699
(dp700
g11
(lp701
sg13
S'android.media.MediaDrm$EventHandler'
p702
sg15
(lp703
sg17
(lp704
sg19
(lp705
sg21
I0
sba(iArchitecture
Entity
p706
(dp707
g11
(lp708
sg13
S'android.media.MediaDrm$KeyRequest'
p709
sg15
(lp710
sg17
(lp711
sg19
(lp712
sg21
I0
sba(iArchitecture
Entity
p713
(dp714
g11
(lp715
sg13
S'android.media.MediaDrm$KeyStatus'
p716
sg15
(lp717
sg17
(lp718
sg19
(lp719
sg21
I0
sba(iArchitecture
Entity
p720
(dp721
g11
(lp722
sg13
S'android.media.MediaDrm$MediaDrmStateException'
p723
sg15
(lp724
sg17
(lp725
sg19
(lp726
sg21
I0
sba(iArchitecture
Entity
p727
(dp728
g11
(lp729
sg13
S'android.media.MediaDrm$OnEventListener'
p730
sg15
(lp731
sg17
(lp732
sg19
(lp733
sg21
I0
sba(iArchitecture
Entity
p734
(dp735
g11
(lp736
sg13
S'android.media.MediaDrm$OnExpirationUpdateListener'
p737
sg15
(lp738
sg17
(lp739
sg19
(lp740
sg21
I0
sba(iArchitecture
Entity
p741
(dp742
g11
(lp743
sg13
S'android.media.MediaDrm$OnKeyStatusChangeListener'
p744
sg15
(lp745
sg17
(lp746
sg19
(lp747
sg21
I0
sba(iArchitecture
Entity
p748
(dp749
g11
(lp750
sg13
S'android.media.MediaDrm$ProvisionRequest'
p751
sg15
(lp752
sg17
(lp753
sg19
(lp754
sg21
I0
sbasg57
(lp755
g674
ag681
ag688
ag695
ag702
ag709
ag716
ag723
ag730
ag737
ag744
ag751
asg21
I0
sg59
S'1207'
p756
sba(iArchitecture
Cluster
p757
(dp758
g7
(lp759
(iArchitecture
Entity
p760
(dp761
g11
(lp762
sg13
S'android.app.ActivityView'
p763
sg15
(lp764
sg17
(lp765
sg19
(lp766
sg21
I0
sba(iArchitecture
Entity
p767
(dp768
g11
(lp769
sg13
S'android.app.ActivityView$1'
p770
sg15
(lp771
sg17
(lp772
sg19
(lp773
sg21
I0
sba(iArchitecture
Entity
p774
(dp775
g11
(lp776
sg13
S'android.app.ActivityView$2'
p777
sg15
(lp778
sg17
(lp779
sg19
(lp780
sg21
I0
sba(iArchitecture
Entity
p781
(dp782
g11
(lp783
sg13
S'android.app.ActivityView$2$1'
p784
sg15
(lp785
sg17
(lp786
sg19
(lp787
sg21
I0
sba(iArchitecture
Entity
p788
(dp789
g11
(lp790
sg13
S'android.app.ActivityView$ActivityContainerCallback'
p791
sg15
(lp792
sg17
(lp793
sg19
(lp794
sg21
I0
sba(iArchitecture
Entity
p795
(dp796
g11
(lp797
sg13
S'android.app.ActivityView$ActivityContainerCallback$1'
p798
sg15
(lp799
sg17
(lp800
sg19
(lp801
sg21
I0
sba(iArchitecture
Entity
p802
(dp803
g11
(lp804
sg13
S'android.app.ActivityView$ActivityContainerWrapper'
p805
sg15
(lp806
sg17
(lp807
sg19
(lp808
sg21
I0
sba(iArchitecture
Entity
p809
(dp810
g11
(lp811
sg13
S'android.app.ActivityView$ActivityViewCallback'
p812
sg15
(lp813
sg17
(lp814
sg19
(lp815
sg21
I0
sba(iArchitecture
Entity
p816
(dp817
g11
(lp818
sg13
S'android.app.ActivityView$ActivityViewSurfaceTextureListener'
p819
sg15
(lp820
sg17
(lp821
sg19
(lp822
sg21
I0
sba(iArchitecture
Entity
p823
(dp824
g11
(lp825
sg13
S'android.app.ActivityView$SerialExecutor'
p826
sg15
(lp827
sg17
(lp828
sg19
(lp829
sg21
I0
sba(iArchitecture
Entity
p830
(dp831
g11
(lp832
sg13
S'android.app.ActivityView$SerialExecutor$1'
p833
sg15
(lp834
sg17
(lp835
sg19
(lp836
sg21
I0
sbasg57
(lp837
g763
ag770
ag777
ag784
ag791
ag798
ag805
ag812
ag819
ag826
ag833
asg21
I0
sg59
S'1208'
p838
sba(iArchitecture
Cluster
p839
(dp840
g7
(lp841
(iArchitecture
Entity
p842
(dp843
g11
(lp844
sg13
S'com.android.server.LockSettingsService'
p845
sg15
(lp846
sg17
(lp847
sg19
(lp848
sg21
I0
sba(iArchitecture
Entity
p849
(dp850
g11
(lp851
sg13
S'com.android.server.LockSettingsService$1'
p852
sg15
(lp853
sg17
(lp854
sg19
(lp855
sg21
I0
sba(iArchitecture
Entity
p856
(dp857
g11
(lp858
sg13
S'com.android.server.LockSettingsService$2'
p859
sg15
(lp860
sg17
(lp861
sg19
(lp862
sg21
I0
sba(iArchitecture
Entity
p863
(dp864
g11
(lp865
sg13
S'com.android.server.LockSettingsService$3'
p866
sg15
(lp867
sg17
(lp868
sg19
(lp869
sg21
I0
sba(iArchitecture
Entity
p870
(dp871
g11
(lp872
sg13
S'com.android.server.LockSettingsService$4'
p873
sg15
(lp874
sg17
(lp875
sg19
(lp876
sg21
I0
sba(iArchitecture
Entity
p877
(dp878
g11
(lp879
sg13
S'com.android.server.LockSettingsService$5'
p880
sg15
(lp881
sg17
(lp882
sg19
(lp883
sg21
I0
sba(iArchitecture
Entity
p884
(dp885
g11
(lp886
sg13
S'com.android.server.LockSettingsService$6'
p887
sg15
(lp888
sg17
(lp889
sg19
(lp890
sg21
I0
sba(iArchitecture
Entity
p891
(dp892
g11
(lp893
sg13
S'com.android.server.LockSettingsService$CredentialUtil'
p894
sg15
(lp895
sg17
(lp896
sg19
(lp897
sg21
I0
sba(iArchitecture
Entity
p898
(dp899
g11
(lp900
sg13
S'com.android.server.LockSettingsService$GateKeeperDiedRecipient'
p901
sg15
(lp902
sg17
(lp903
sg19
(lp904
sg21
I0
sba(iArchitecture
Entity
p905
(dp906
g11
(lp907
sg13
S'com.android.server.LockSettingsService$Lifecycle'
p908
sg15
(lp909
sg17
(lp910
sg19
(lp911
sg21
I0
sba(iArchitecture
Entity
p912
(dp913
g11
(lp914
sg13
S'com.android.server.LockSettingsService$SynchronizedStrongAuthTracker'
p915
sg15
(lp916
sg17
(lp917
sg19
(lp918
sg21
I0
sbasg57
(lp919
g845
ag852
ag859
ag866
ag873
ag880
ag887
ag894
ag901
ag908
ag915
asg21
I0
sg59
S'1209'
p920
sbasS'target_sub'
p921
S'120'
p922
sg57
(lp923
sS'is_component_arch'
p924
I01
sg59
S'7.0.0_r1'
p925
sba.