(lp0
(iArchitecture
Architecture
p1
(dp2
S'clusters'
p3
(lp4
(iArchitecture
Cluster
p5
(dp6
S'entities'
p7
(lp8
(iArchitecture
Entity
p9
(dp10
S'issue_ids'
p11
(lp12
sS'name'
p13
S'android.drm.DrmManagerClient'
p14
sS'descs'
p15
(lp16
sS'labels'
p17
(lp18
sS'titles'
p19
(lp20
sS'change'
p21
I0
sba(iArchitecture
Entity
p22
(dp23
g11
(lp24
sg13
S'android.drm.DrmManagerClient$EventHandler'
p25
sg15
(lp26
sg17
(lp27
sg19
(lp28
sg21
I0
sba(iArchitecture
Entity
p29
(dp30
g11
(lp31
sg13
S'android.drm.DrmManagerClient$InfoHandler'
p32
sg15
(lp33
sg17
(lp34
sg19
(lp35
sg21
I0
sba(iArchitecture
Entity
p36
(dp37
g11
(lp38
sg13
S'android.drm.DrmManagerClient$OnErrorListener'
p39
sg15
(lp40
sg17
(lp41
sg19
(lp42
sg21
I0
sba(iArchitecture
Entity
p43
(dp44
g11
(lp45
sg13
S'android.drm.DrmManagerClient$OnEventListener'
p46
sg15
(lp47
sg17
(lp48
sg19
(lp49
sg21
I0
sba(iArchitecture
Entity
p50
(dp51
g11
(lp52
sg13
S'android.drm.DrmManagerClient$OnInfoListener'
p53
sg15
(lp54
sg17
(lp55
sg19
(lp56
sg21
I0
sbasS'classes'
p57
(lp58
g14
ag25
ag32
ag39
ag46
ag53
asg21
I0
sS'label'
p59
S'1131'
p60
sba(iArchitecture
Cluster
p61
(dp62
g7
(lp63
(iArchitecture
Entity
p64
(dp65
g11
(lp66
sg13
S'android.graphics.ColorMatrix'
p67
sg15
(lp68
sg17
(lp69
sg19
(lp70
sg21
I0
sbasg57
(lp71
g67
asg21
I0
sg59
S'131'
p72
sba(iArchitecture
Cluster
p73
(dp74
g7
(lp75
(iArchitecture
Entity
p76
(dp77
g11
(lp78
sg13
S'android.view.ContextMenu'
p79
sg15
(lp80
sg17
(lp81
sg19
(lp82
sg21
I0
sba(iArchitecture
Entity
p83
(dp84
g11
(lp85
sg13
S'android.view.ContextMenu$ContextMenuInfo'
p86
sg15
(lp87
sg17
(lp88
sg19
(lp89
sg21
I0
sba(iArchitecture
Entity
p90
(dp91
g11
(lp92
sg13
S'android.view.SubMenu'
p93
sg15
(lp94
sg17
(lp95
sg19
(lp96
sg21
I0
sba(iArchitecture
Entity
p97
(dp98
g11
(lp99
sg13
S'com.android.internal.view.StandaloneActionMode'
p100
sg15
(lp101
sg17
(lp102
sg19
(lp103
sg21
I0
sba(iArchitecture
Entity
p104
(dp105
g11
(lp106
sg13
S'com.android.internal.view.menu.ContextMenuBuilder'
p107
sg15
(lp108
sg17
(lp109
sg19
(lp110
sg21
I0
sba(iArchitecture
Entity
p111
(dp112
g11
(lp113
sg13
S'com.android.internal.view.menu.MenuDialogHelper'
p114
sg15
(lp115
sg17
(lp116
sg19
(lp117
sg21
I0
sba(iArchitecture
Entity
p118
(dp119
g11
(lp120
sg13
S'com.android.internal.view.menu.MenuView'
p121
sg15
(lp122
sg17
(lp123
sg19
(lp124
sg21
I0
sba(iArchitecture
Entity
p125
(dp126
g11
(lp127
sg13
S'com.android.internal.view.menu.MenuView$ItemView'
p128
sg15
(lp129
sg17
(lp130
sg19
(lp131
sg21
I0
sba(iArchitecture
Entity
p132
(dp133
g11
(lp134
sg13
S'com.android.internal.view.menu.SubMenuBuilder'
p135
sg15
(lp136
sg17
(lp137
sg19
(lp138
sg21
I0
sbasg57
(lp139
g79
ag86
ag93
ag100
ag107
ag114
ag121
ag128
ag135
asg21
I0
sg59
S'1310'
p140
sba(iArchitecture
Cluster
p141
(dp142
g7
(lp143
(iArchitecture
Entity
p144
(dp145
g11
(lp146
sg13
S'android.database.sqlite.SQLiteDatabaseConfiguration'
p147
sg15
(lp148
sg17
(lp149
sg19
(lp150
sg21
I0
sba(iArchitecture
Entity
p151
(dp152
g11
(lp153
sg13
S'android.speech.tts.Voice'
p154
sg15
(lp155
sg17
(lp156
sg19
(lp157
sg21
I0
sba(iArchitecture
Entity
p158
(dp159
g11
(lp160
sg13
S'android.speech.tts.Voice$1'
p161
sg15
(lp162
sg17
(lp163
sg19
(lp164
sg21
I0
sbasg57
(lp165
g147
ag154
ag161
asg21
I0
sg59
S'1311'
p166
sba(iArchitecture
Cluster
p167
(dp168
g7
(lp169
(iArchitecture
Entity
p170
(dp171
g11
(lp172
sg13
S'android.app.UiModeManager'
p173
sg15
(lp174
sg17
(lp175
sg19
(lp176
sg21
I0
sba(iArchitecture
Entity
p177
(dp178
g11
(lp179
sg13
S'com.android.server.UiModeManagerService'
p180
sg15
(lp181
sg17
(lp182
sg19
(lp183
sg21
I0
sba(iArchitecture
Entity
p184
(dp185
g11
(lp186
sg13
S'com.android.server.UiModeManagerService$1'
p187
sg15
(lp188
sg17
(lp189
sg19
(lp190
sg21
I0
sba(iArchitecture
Entity
p191
(dp192
g11
(lp193
sg13
S'com.android.server.UiModeManagerService$2'
p194
sg15
(lp195
sg17
(lp196
sg19
(lp197
sg21
I0
sba(iArchitecture
Entity
p198
(dp199
g11
(lp200
sg13
S'com.android.server.UiModeManagerService$3'
p201
sg15
(lp202
sg17
(lp203
sg19
(lp204
sg21
I0
sba(iArchitecture
Entity
p205
(dp206
g11
(lp207
sg13
S'com.android.server.UiModeManagerService$4'
p208
sg15
(lp209
sg17
(lp210
sg19
(lp211
sg21
I0
sba(iArchitecture
Entity
p212
(dp213
g11
(lp214
sg13
S'com.android.server.UiModeManagerService$5'
p215
sg15
(lp216
sg17
(lp217
sg19
(lp218
sg21
I0
sbasg57
(lp219
g173
ag180
ag187
ag194
ag201
ag208
ag215
asg21
I0
sg59
S'1312'
p220
sba(iArchitecture
Cluster
p221
(dp222
g7
(lp223
(iArchitecture
Entity
p224
(dp225
g11
(lp226
sg13
S'android.animation.ArgbEvaluator'
p227
sg15
(lp228
sg17
(lp229
sg19
(lp230
sg21
I0
sba(iArchitecture
Entity
p231
(dp232
g11
(lp233
sg13
S'android.animation.PointFEvaluator'
p234
sg15
(lp235
sg17
(lp236
sg19
(lp237
sg21
I0
sba(iArchitecture
Entity
p238
(dp239
g11
(lp240
sg13
S'android.transition.PathMotion'
p241
sg15
(lp242
sg17
(lp243
sg19
(lp244
sg21
I0
sbasg57
(lp245
g227
ag234
ag241
asg21
I0
sg59
S'1313'
p246
sba(iArchitecture
Cluster
p247
(dp248
g7
(lp249
(iArchitecture
Entity
p250
(dp251
g11
(lp252
sg13
S'android.service.trust.TrustAgentService'
p253
sg15
(lp254
sg17
(lp255
sg19
(lp256
sg21
I0
sba(iArchitecture
Entity
p257
(dp258
g11
(lp259
sg13
S'android.service.trust.TrustAgentService$1'
p260
sg15
(lp261
sg17
(lp262
sg19
(lp263
sg21
I0
sba(iArchitecture
Entity
p264
(dp265
g11
(lp266
sg13
S'android.service.trust.TrustAgentService$2'
p267
sg15
(lp268
sg17
(lp269
sg19
(lp270
sg21
I0
sba(iArchitecture
Entity
p271
(dp272
g11
(lp273
sg13
S'android.service.trust.TrustAgentService$ConfigurationData'
p274
sg15
(lp275
sg17
(lp276
sg19
(lp277
sg21
I0
sba(iArchitecture
Entity
p278
(dp279
g11
(lp280
sg13
S'android.service.trust.TrustAgentService$TrustAgentServiceWrapper'
p281
sg15
(lp282
sg17
(lp283
sg19
(lp284
sg21
I0
sba(iArchitecture
Entity
p285
(dp286
g11
(lp287
sg13
S'com.android.server.trust.TrustAgentWrapper'
p288
sg15
(lp289
sg17
(lp290
sg19
(lp291
sg21
I0
sba(iArchitecture
Entity
p292
(dp293
g11
(lp294
sg13
S'com.android.server.trust.TrustAgentWrapper$1'
p295
sg15
(lp296
sg17
(lp297
sg19
(lp298
sg21
I0
sba(iArchitecture
Entity
p299
(dp300
g11
(lp301
sg13
S'com.android.server.trust.TrustAgentWrapper$2'
p302
sg15
(lp303
sg17
(lp304
sg19
(lp305
sg21
I0
sba(iArchitecture
Entity
p306
(dp307
g11
(lp308
sg13
S'com.android.server.trust.TrustAgentWrapper$3'
p309
sg15
(lp310
sg17
(lp311
sg19
(lp312
sg21
I0
sba(iArchitecture
Entity
p313
(dp314
g11
(lp315
sg13
S'com.android.server.trust.TrustAgentWrapper$4'
p316
sg15
(lp317
sg17
(lp318
sg19
(lp319
sg21
I0
sba(iArchitecture
Entity
p320
(dp321
g11
(lp322
sg13
S'com.android.server.utils.ManagedApplicationService'
p323
sg15
(lp324
sg17
(lp325
sg19
(lp326
sg21
I0
sba(iArchitecture
Entity
p327
(dp328
g11
(lp329
sg13
S'com.android.server.utils.ManagedApplicationService$1'
p330
sg15
(lp331
sg17
(lp332
sg19
(lp333
sg21
I0
sba(iArchitecture
Entity
p334
(dp335
g11
(lp336
sg13
S'com.android.server.utils.ManagedApplicationService$2'
p337
sg15
(lp338
sg17
(lp339
sg19
(lp340
sg21
I0
sba(iArchitecture
Entity
p341
(dp342
g11
(lp343
sg13
S'com.android.server.utils.ManagedApplicationService$BinderChecker'
p344
sg15
(lp345
sg17
(lp346
sg19
(lp347
sg21
I0
sba(iArchitecture
Entity
p348
(dp349
g11
(lp350
sg13
S'com.android.server.utils.ManagedApplicationService$PendingEvent'
p351
sg15
(lp352
sg17
(lp353
sg19
(lp354
sg21
I0
sbasg57
(lp355
g253
ag260
ag267
ag274
ag281
ag288
ag295
ag302
ag309
ag316
ag323
ag330
ag337
ag344
ag351
asg21
I0
sg59
S'1314'
p356
sba(iArchitecture
Cluster
p357
(dp358
g7
(lp359
(iArchitecture
Entity
p360
(dp361
g11
(lp362
sg13
S'android.net.dhcp.DhcpClient'
p363
sg15
(lp364
sg17
(lp365
sg19
(lp366
sg21
I0
sba(iArchitecture
Entity
p367
(dp368
g11
(lp369
sg13
S'android.net.dhcp.DhcpClient$ConfiguringInterfaceState'
p370
sg15
(lp371
sg17
(lp372
sg19
(lp373
sg21
I0
sba(iArchitecture
Entity
p374
(dp375
g11
(lp376
sg13
S'android.net.dhcp.DhcpClient$DhcpBoundState'
p377
sg15
(lp378
sg17
(lp379
sg19
(lp380
sg21
I0
sba(iArchitecture
Entity
p381
(dp382
g11
(lp383
sg13
S'android.net.dhcp.DhcpClient$DhcpHaveLeaseState'
p384
sg15
(lp385
sg17
(lp386
sg19
(lp387
sg21
I0
sba(iArchitecture
Entity
p388
(dp389
g11
(lp390
sg13
S'android.net.dhcp.DhcpClient$DhcpInitRebootState'
p391
sg15
(lp392
sg17
(lp393
sg19
(lp394
sg21
I0
sba(iArchitecture
Entity
p395
(dp396
g11
(lp397
sg13
S'android.net.dhcp.DhcpClient$DhcpInitState'
p398
sg15
(lp399
sg17
(lp400
sg19
(lp401
sg21
I0
sba(iArchitecture
Entity
p402
(dp403
g11
(lp404
sg13
S'android.net.dhcp.DhcpClient$DhcpReacquiringState'
p405
sg15
(lp406
sg17
(lp407
sg19
(lp408
sg21
I0
sba(iArchitecture
Entity
p409
(dp410
g11
(lp411
sg13
S'android.net.dhcp.DhcpClient$DhcpRebindingState'
p412
sg15
(lp413
sg17
(lp414
sg19
(lp415
sg21
I0
sba(iArchitecture
Entity
p416
(dp417
g11
(lp418
sg13
S'android.net.dhcp.DhcpClient$DhcpRebootingState'
p419
sg15
(lp420
sg17
(lp421
sg19
(lp422
sg21
I0
sba(iArchitecture
Entity
p423
(dp424
g11
(lp425
sg13
S'android.net.dhcp.DhcpClient$DhcpRenewingState'
p426
sg15
(lp427
sg17
(lp428
sg19
(lp429
sg21
I0
sba(iArchitecture
Entity
p430
(dp431
g11
(lp432
sg13
S'android.net.dhcp.DhcpClient$DhcpRequestingState'
p433
sg15
(lp434
sg17
(lp435
sg19
(lp436
sg21
I0
sba(iArchitecture
Entity
p437
(dp438
g11
(lp439
sg13
S'android.net.dhcp.DhcpClient$DhcpSelectingState'
p440
sg15
(lp441
sg17
(lp442
sg19
(lp443
sg21
I0
sba(iArchitecture
Entity
p444
(dp445
g11
(lp446
sg13
S'android.net.dhcp.DhcpClient$DhcpState'
p447
sg15
(lp448
sg17
(lp449
sg19
(lp450
sg21
I0
sba(iArchitecture
Entity
p451
(dp452
g11
(lp453
sg13
S'android.net.dhcp.DhcpClient$LoggingState'
p454
sg15
(lp455
sg17
(lp456
sg19
(lp457
sg21
I0
sba(iArchitecture
Entity
p458
(dp459
g11
(lp460
sg13
S'android.net.dhcp.DhcpClient$PacketRetransmittingState'
p461
sg15
(lp462
sg17
(lp463
sg19
(lp464
sg21
I0
sba(iArchitecture
Entity
p465
(dp466
g11
(lp467
sg13
S'android.net.dhcp.DhcpClient$ReceiveThread'
p468
sg15
(lp469
sg17
(lp470
sg19
(lp471
sg21
I0
sba(iArchitecture
Entity
p472
(dp473
g11
(lp474
sg13
S'android.net.dhcp.DhcpClient$StoppedState'
p475
sg15
(lp476
sg17
(lp477
sg19
(lp478
sg21
I0
sba(iArchitecture
Entity
p479
(dp480
g11
(lp481
sg13
S'android.net.dhcp.DhcpClient$WaitBeforeOtherState'
p482
sg15
(lp483
sg17
(lp484
sg19
(lp485
sg21
I0
sba(iArchitecture
Entity
p486
(dp487
g11
(lp488
sg13
S'android.net.dhcp.DhcpClient$WaitBeforeRenewalState'
p489
sg15
(lp490
sg17
(lp491
sg19
(lp492
sg21
I0
sba(iArchitecture
Entity
p493
(dp494
g11
(lp495
sg13
S'android.net.dhcp.DhcpClient$WaitBeforeStartState'
p496
sg15
(lp497
sg17
(lp498
sg19
(lp499
sg21
I0
sba(iArchitecture
Entity
p500
(dp501
g11
(lp502
sg13
S'android.net.dhcp.DhcpPacket'
p503
sg15
(lp504
sg17
(lp505
sg19
(lp506
sg21
I0
sba(iArchitecture
Entity
p507
(dp508
g11
(lp509
sg13
S'android.net.dhcp.DhcpPacket$ParseException'
p510
sg15
(lp511
sg17
(lp512
sg19
(lp513
sg21
I0
sbasg57
(lp514
g363
ag370
ag377
ag384
ag391
ag398
ag405
ag412
ag419
ag426
ag433
ag440
ag447
ag454
ag461
ag468
ag475
ag482
ag489
ag496
ag503
ag510
asg21
I0
sg59
S'1315'
p515
sba(iArchitecture
Cluster
p516
(dp517
g7
(lp518
(iArchitecture
Entity
p519
(dp520
g11
(lp521
sg13
S'android.security.net.config.CertificatesEntryRef'
p522
sg15
(lp523
sg17
(lp524
sg19
(lp525
sg21
I0
sba(iArchitecture
Entity
p526
(dp527
g11
(lp528
sg13
S'android.security.net.config.DirectoryCertificateSource'
p529
sg15
(lp530
sg17
(lp531
sg19
(lp532
sg21
I0
sba(iArchitecture
Entity
p533
(dp534
g11
(lp535
sg13
S'android.security.net.config.DirectoryCertificateSource$1'
p536
sg15
(lp537
sg17
(lp538
sg19
(lp539
sg21
I0
sba(iArchitecture
Entity
p540
(dp541
g11
(lp542
sg13
S'android.security.net.config.DirectoryCertificateSource$2'
p543
sg15
(lp544
sg17
(lp545
sg19
(lp546
sg21
I0
sba(iArchitecture
Entity
p547
(dp548
g11
(lp549
sg13
S'android.security.net.config.DirectoryCertificateSource$3'
p550
sg15
(lp551
sg17
(lp552
sg19
(lp553
sg21
I0
sba(iArchitecture
Entity
p554
(dp555
g11
(lp556
sg13
S'android.security.net.config.DirectoryCertificateSource$CertSelector'
p557
sg15
(lp558
sg17
(lp559
sg19
(lp560
sg21
I0
sba(iArchitecture
Entity
p561
(dp562
g11
(lp563
sg13
S'android.security.net.config.KeyStoreCertificateSource'
p564
sg15
(lp565
sg17
(lp566
sg19
(lp567
sg21
I0
sba(iArchitecture
Entity
p568
(dp569
g11
(lp570
sg13
S'android.security.net.config.ResourceCertificateSource'
p571
sg15
(lp572
sg17
(lp573
sg19
(lp574
sg21
I0
sba(iArchitecture
Entity
p575
(dp576
g11
(lp577
sg13
S'android.security.net.config.TrustedCertificateStoreAdapter'
p578
sg15
(lp579
sg17
(lp580
sg19
(lp581
sg21
I0
sbasg57
(lp582
g522
ag529
ag536
ag543
ag550
ag557
ag564
ag571
ag578
asg21
I0
sg59
S'1316'
p583
sba(iArchitecture
Cluster
p584
(dp585
g7
(lp586
(iArchitecture
Entity
p587
(dp588
g11
(lp589
sg13
S'android.nfc.cardemulation.HostApduService'
p590
sg15
(lp591
sg17
(lp592
sg19
(lp593
sg21
I0
sba(iArchitecture
Entity
p594
(dp595
g11
(lp596
sg13
S'android.nfc.cardemulation.HostApduService$MsgHandler'
p597
sg15
(lp598
sg17
(lp599
sg19
(lp600
sg21
I0
sba(iArchitecture
Entity
p601
(dp602
g11
(lp603
sg13
S'android.nfc.cardemulation.HostNfcFService'
p604
sg15
(lp605
sg17
(lp606
sg19
(lp607
sg21
I0
sba(iArchitecture
Entity
p608
(dp609
g11
(lp610
sg13
S'android.nfc.cardemulation.HostNfcFService$MsgHandler'
p611
sg15
(lp612
sg17
(lp613
sg19
(lp614
sg21
I0
sba(iArchitecture
Entity
p615
(dp616
g11
(lp617
sg13
S'android.nfc.cardemulation.OffHostApduService'
p618
sg15
(lp619
sg17
(lp620
sg19
(lp621
sg21
I0
sbasg57
(lp622
g590
ag597
ag604
ag611
ag618
asg21
I0
sg59
S'1317'
p623
sba(iArchitecture
Cluster
p624
(dp625
g7
(lp626
(iArchitecture
Entity
p627
(dp628
g11
(lp629
sg13
S'com.android.internal.app.MediaRouteChooserDialogFragment'
p630
sg15
(lp631
sg17
(lp632
sg19
(lp633
sg21
I0
sba(iArchitecture
Entity
p634
(dp635
g11
(lp636
sg13
S'com.android.internal.app.MediaRouteDialogPresenter'
p637
sg15
(lp638
sg17
(lp639
sg19
(lp640
sg21
I0
sbasg57
(lp641
g630
ag637
asg21
I0
sg59
S'1318'
p642
sba(iArchitecture
Cluster
p643
(dp644
g7
(lp645
(iArchitecture
Entity
p646
(dp647
g11
(lp648
sg13
S'android.filterfw.core.ProgramVariable'
p649
sg15
(lp650
sg17
(lp651
sg19
(lp652
sg21
I0
sba(iArchitecture
Entity
p653
(dp654
g11
(lp655
sg13
S'android.filterpacks.imageproc.AlphaBlendFilter'
p656
sg15
(lp657
sg17
(lp658
sg19
(lp659
sg21
I0
sba(iArchitecture
Entity
p660
(dp661
g11
(lp662
sg13
S'android.filterpacks.imageproc.BlendFilter'
p663
sg15
(lp664
sg17
(lp665
sg19
(lp666
sg21
I0
sba(iArchitecture
Entity
p667
(dp668
g11
(lp669
sg13
S'android.filterpacks.imageproc.BrightnessFilter'
p670
sg15
(lp671
sg17
(lp672
sg19
(lp673
sg21
I0
sba(iArchitecture
Entity
p674
(dp675
g11
(lp676
sg13
S'android.filterpacks.imageproc.ContrastFilter'
p677
sg15
(lp678
sg17
(lp679
sg19
(lp680
sg21
I0
sba(iArchitecture
Entity
p681
(dp682
g11
(lp683
sg13
S'android.filterpacks.imageproc.Invert'
p684
sg15
(lp685
sg17
(lp686
sg19
(lp687
sg21
I0
sba(iArchitecture
Entity
p688
(dp689
g11
(lp690
sg13
S'android.opengl.EGLContext'
p691
sg15
(lp692
sg17
(lp693
sg19
(lp694
sg21
I0
sba(iArchitecture
Entity
p695
(dp696
g11
(lp697
sg13
S'android.opengl.EGLDisplay'
p698
sg15
(lp699
sg17
(lp700
sg19
(lp701
sg21
I0
sba(iArchitecture
Entity
p702
(dp703
g11
(lp704
sg13
S'android.opengl.EGLExt'
p705
sg15
(lp706
sg17
(lp707
sg19
(lp708
sg21
I0
sba(iArchitecture
Entity
p709
(dp710
g11
(lp711
sg13
S'android.opengl.EGLSurface'
p712
sg15
(lp713
sg17
(lp714
sg19
(lp715
sg21
I0
sba(iArchitecture
Entity
p716
(dp717
g11
(lp718
sg13
S'com.google.android.gles_jni.EGLContextImpl'
p719
sg15
(lp720
sg17
(lp721
sg19
(lp722
sg21
I0
sba(iArchitecture
Entity
p723
(dp724
g11
(lp725
sg13
S'com.google.android.gles_jni.EGLDisplayImpl'
p726
sg15
(lp727
sg17
(lp728
sg19
(lp729
sg21
I0
sba(iArchitecture
Entity
p730
(dp731
g11
(lp732
sg13
S'com.google.android.gles_jni.EGLSurfaceImpl'
p733
sg15
(lp734
sg17
(lp735
sg19
(lp736
sg21
I0
sbasg57
(lp737
g649
ag656
ag663
ag670
ag677
ag684
ag691
ag698
ag705
ag712
ag719
ag726
ag733
asg21
I0
sg59
S'1319'
p738
sbasS'target_sub'
p739
S'131'
p740
sg57
(lp741
sS'is_component_arch'
p742
I01
sg59
S'7.0.0_r1'
p743
sba.