(lp0
(iArchitecture
Architecture
p1
(dp2
S'clusters'
p3
(lp4
(iArchitecture
Cluster
p5
(dp6
S'entities'
p7
(lp8
(iArchitecture
Entity
p9
(dp10
S'issue_ids'
p11
(lp12
sS'name'
p13
S'com.android.internal.util.AsyncChannel'
p14
sS'descs'
p15
(lp16
sS'labels'
p17
(lp18
sS'titles'
p19
(lp20
sS'change'
p21
I0
sba(iArchitecture
Entity
p22
(dp23
g11
(lp24
sg13
S'com.android.internal.util.AsyncChannel$1ConnectAsync'
p25
sg15
(lp26
sg17
(lp27
sg19
(lp28
sg21
I0
sba(iArchitecture
Entity
p29
(dp30
g11
(lp31
sg13
S'com.android.internal.util.AsyncChannel$AsyncChannelConnection'
p32
sg15
(lp33
sg17
(lp34
sg19
(lp35
sg21
I0
sba(iArchitecture
Entity
p36
(dp37
g11
(lp38
sg13
S'com.android.internal.util.AsyncChannel$DeathMonitor'
p39
sg15
(lp40
sg17
(lp41
sg19
(lp42
sg21
I0
sba(iArchitecture
Entity
p43
(dp44
g11
(lp45
sg13
S'com.android.internal.util.AsyncChannel$SyncMessenger'
p46
sg15
(lp47
sg17
(lp48
sg19
(lp49
sg21
I0
sba(iArchitecture
Entity
p50
(dp51
g11
(lp52
sg13
S'com.android.internal.util.AsyncChannel$SyncMessenger$SyncHandler'
p53
sg15
(lp54
sg17
(lp55
sg19
(lp56
sg21
I0
sbasS'classes'
p57
(lp58
g14
ag25
ag32
ag39
ag46
ag53
asg21
I0
sS'label'
p59
S'1093'
p60
sba(iArchitecture
Cluster
p61
(dp62
g7
(lp63
(iArchitecture
Entity
p64
(dp65
g11
(lp66
sg13
S'com.android.server.NsdService'
p67
sg15
(lp68
sg17
(lp69
sg19
(lp70
sg21
I0
sba(iArchitecture
Entity
p71
(dp72
g11
(lp73
sg13
S'com.android.server.NsdService$ClientInfo'
p74
sg15
(lp75
sg17
(lp76
sg19
(lp77
sg21
I0
sba(iArchitecture
Entity
p78
(dp79
g11
(lp80
sg13
S'com.android.server.NsdService$NativeCallbackReceiver'
p81
sg15
(lp82
sg17
(lp83
sg19
(lp84
sg21
I0
sba(iArchitecture
Entity
p85
(dp86
g11
(lp87
sg13
S'com.android.server.NsdService$NativeEvent'
p88
sg15
(lp89
sg17
(lp90
sg19
(lp91
sg21
I0
sba(iArchitecture
Entity
p92
(dp93
g11
(lp94
sg13
S'com.android.server.NsdService$NativeResponseCode'
p95
sg15
(lp96
sg17
(lp97
sg19
(lp98
sg21
I0
sba(iArchitecture
Entity
p99
(dp100
g11
(lp101
sg13
S'com.android.server.NsdService$NsdStateMachine'
p102
sg15
(lp103
sg17
(lp104
sg19
(lp105
sg21
I0
sba(iArchitecture
Entity
p106
(dp107
g11
(lp108
sg13
S'com.android.server.NsdService$NsdStateMachine$1'
p109
sg15
(lp110
sg17
(lp111
sg19
(lp112
sg21
I0
sba(iArchitecture
Entity
p113
(dp114
g11
(lp115
sg13
S'com.android.server.NsdService$NsdStateMachine$DefaultState'
p116
sg15
(lp117
sg17
(lp118
sg19
(lp119
sg21
I0
sba(iArchitecture
Entity
p120
(dp121
g11
(lp122
sg13
S'com.android.server.NsdService$NsdStateMachine$DisabledState'
p123
sg15
(lp124
sg17
(lp125
sg19
(lp126
sg21
I0
sba(iArchitecture
Entity
p127
(dp128
g11
(lp129
sg13
S'com.android.server.NsdService$NsdStateMachine$EnabledState'
p130
sg15
(lp131
sg17
(lp132
sg19
(lp133
sg21
I0
sbasg57
(lp134
g67
ag74
ag81
ag88
ag95
ag102
ag109
ag116
ag123
ag130
asg21
I0
sg59
S'1193'
p135
sba(iArchitecture
Cluster
p136
(dp137
g7
(lp138
(iArchitecture
Entity
p139
(dp140
g11
(lp141
sg13
S'com.android.internal.app.procstats.DurationsTable'
p142
sg15
(lp143
sg17
(lp144
sg19
(lp145
sg21
I0
sba(iArchitecture
Entity
p146
(dp147
g11
(lp148
sg13
S'com.android.server.pm.KeySetHandle'
p149
sg15
(lp150
sg17
(lp151
sg19
(lp152
sg21
I0
sbasg57
(lp153
g142
ag149
asg21
I0
sg59
S'1293'
p154
sba(iArchitecture
Cluster
p155
(dp156
g7
(lp157
(iArchitecture
Entity
p158
(dp159
g11
(lp160
sg13
S'android.app.BackStackRecord'
p161
sg15
(lp162
sg17
(lp163
sg19
(lp164
sg21
I0
sba(iArchitecture
Entity
p165
(dp166
g11
(lp167
sg13
S'android.app.BackStackRecord$1'
p168
sg15
(lp169
sg17
(lp170
sg19
(lp171
sg21
I0
sba(iArchitecture
Entity
p172
(dp173
g11
(lp174
sg13
S'android.app.BackStackRecord$2'
p175
sg15
(lp176
sg17
(lp177
sg19
(lp178
sg21
I0
sba(iArchitecture
Entity
p179
(dp180
g11
(lp181
sg13
S'android.app.BackStackRecord$3'
p182
sg15
(lp183
sg17
(lp184
sg19
(lp185
sg21
I0
sba(iArchitecture
Entity
p186
(dp187
g11
(lp188
sg13
S'android.app.BackStackRecord$4'
p189
sg15
(lp190
sg17
(lp191
sg19
(lp192
sg21
I0
sba(iArchitecture
Entity
p193
(dp194
g11
(lp195
sg13
S'android.app.BackStackRecord$Op'
p196
sg15
(lp197
sg17
(lp198
sg19
(lp199
sg21
I0
sba(iArchitecture
Entity
p200
(dp201
g11
(lp202
sg13
S'android.app.BackStackRecord$TransitionState'
p203
sg15
(lp204
sg17
(lp205
sg19
(lp206
sg21
I0
sba(iArchitecture
Entity
p207
(dp208
g11
(lp209
sg13
S'android.app.DialogFragment'
p210
sg15
(lp211
sg17
(lp212
sg19
(lp213
sg21
I0
sba(iArchitecture
Entity
p214
(dp215
g11
(lp216
sg13
S'android.app.Fragment'
p217
sg15
(lp218
sg17
(lp219
sg19
(lp220
sg21
I0
sba(iArchitecture
Entity
p221
(dp222
g11
(lp223
sg13
S'android.app.Fragment$1'
p224
sg15
(lp225
sg17
(lp226
sg19
(lp227
sg21
I0
sba(iArchitecture
Entity
p228
(dp229
g11
(lp230
sg13
S'android.app.Fragment$InstantiationException'
p231
sg15
(lp232
sg17
(lp233
sg19
(lp234
sg21
I0
sba(iArchitecture
Entity
p235
(dp236
g11
(lp237
sg13
S'android.app.Fragment$SavedState'
p238
sg15
(lp239
sg17
(lp240
sg19
(lp241
sg21
I0
sba(iArchitecture
Entity
p242
(dp243
g11
(lp244
sg13
S'android.app.Fragment$SavedState$1'
p245
sg15
(lp246
sg17
(lp247
sg19
(lp248
sg21
I0
sba(iArchitecture
Entity
p249
(dp250
g11
(lp251
sg13
S'android.app.FragmentBreadCrumbs'
p252
sg15
(lp253
sg17
(lp254
sg19
(lp255
sg21
I0
sba(iArchitecture
Entity
p256
(dp257
g11
(lp258
sg13
S'android.app.FragmentBreadCrumbs$1'
p259
sg15
(lp260
sg17
(lp261
sg19
(lp262
sg21
I0
sba(iArchitecture
Entity
p263
(dp264
g11
(lp265
sg13
S'android.app.FragmentBreadCrumbs$OnBreadCrumbClickListener'
p266
sg15
(lp267
sg17
(lp268
sg19
(lp269
sg21
I0
sba(iArchitecture
Entity
p270
(dp271
g11
(lp272
sg13
S'android.app.FragmentManager'
p273
sg15
(lp274
sg17
(lp275
sg19
(lp276
sg21
I0
sba(iArchitecture
Entity
p277
(dp278
g11
(lp279
sg13
S'android.app.FragmentManager$BackStackEntry'
p280
sg15
(lp281
sg17
(lp282
sg19
(lp283
sg21
I0
sba(iArchitecture
Entity
p284
(dp285
g11
(lp286
sg13
S'android.app.FragmentManager$OnBackStackChangedListener'
p287
sg15
(lp288
sg17
(lp289
sg19
(lp290
sg21
I0
sba(iArchitecture
Entity
p291
(dp292
g11
(lp293
sg13
S'android.app.FragmentTransaction'
p294
sg15
(lp295
sg17
(lp296
sg19
(lp297
sg21
I0
sba(iArchitecture
Entity
p298
(dp299
g11
(lp300
sg13
S'android.preference.PreferenceActivity'
p301
sg15
(lp302
sg17
(lp303
sg19
(lp304
sg21
I0
sba(iArchitecture
Entity
p305
(dp306
g11
(lp307
sg13
S'android.preference.PreferenceActivity$1'
p308
sg15
(lp309
sg17
(lp310
sg19
(lp311
sg21
I0
sba(iArchitecture
Entity
p312
(dp313
g11
(lp314
sg13
S'android.preference.PreferenceActivity$2'
p315
sg15
(lp316
sg17
(lp317
sg19
(lp318
sg21
I0
sba(iArchitecture
Entity
p319
(dp320
g11
(lp321
sg13
S'android.preference.PreferenceActivity$3'
p322
sg15
(lp323
sg17
(lp324
sg19
(lp325
sg21
I0
sba(iArchitecture
Entity
p326
(dp327
g11
(lp328
sg13
S'android.preference.PreferenceActivity$4'
p329
sg15
(lp330
sg17
(lp331
sg19
(lp332
sg21
I0
sba(iArchitecture
Entity
p333
(dp334
g11
(lp335
sg13
S'android.preference.PreferenceActivity$Header'
p336
sg15
(lp337
sg17
(lp338
sg19
(lp339
sg21
I0
sba(iArchitecture
Entity
p340
(dp341
g11
(lp342
sg13
S'android.preference.PreferenceActivity$Header$1'
p343
sg15
(lp344
sg17
(lp345
sg19
(lp346
sg21
I0
sba(iArchitecture
Entity
p347
(dp348
g11
(lp349
sg13
S'android.preference.PreferenceActivity$HeaderAdapter'
p350
sg15
(lp351
sg17
(lp352
sg19
(lp353
sg21
I0
sba(iArchitecture
Entity
p354
(dp355
g11
(lp356
sg13
S'android.preference.PreferenceActivity$HeaderAdapter$HeaderViewHolder'
p357
sg15
(lp358
sg17
(lp359
sg19
(lp360
sg21
I0
sbasg57
(lp361
g161
ag168
ag175
ag182
ag189
ag196
ag203
ag210
ag217
ag224
ag231
ag238
ag245
ag252
ag259
ag266
ag273
ag280
ag287
ag294
ag301
ag308
ag315
ag322
ag329
ag336
ag343
ag350
ag357
asg21
I0
sg59
S'1393'
p362
sba(iArchitecture
Cluster
p363
(dp364
g7
(lp365
(iArchitecture
Entity
p366
(dp367
g11
(lp368
sg13
S'com.android.server.pm.IntentFilterVerificationState'
p369
sg15
(lp370
sg17
(lp371
sg19
(lp372
sg21
I0
sbasg57
(lp373
g369
asg21
I0
sg59
S'193'
p374
sba(iArchitecture
Cluster
p375
(dp376
g7
(lp377
(iArchitecture
Entity
p378
(dp379
g11
(lp380
sg13
S'android.media.MiniThumbFile'
p381
sg15
(lp382
sg17
(lp383
sg19
(lp384
sg21
I0
sbasg57
(lp385
g381
asg21
I0
sg59
S'293'
p386
sba(iArchitecture
Cluster
p387
(dp388
g7
(lp389
(iArchitecture
Entity
p390
(dp391
g11
(lp392
sg13
S'android.drm.DrmRights'
p393
sg15
(lp394
sg17
(lp395
sg19
(lp396
sg21
I0
sbasg57
(lp397
g393
asg21
I0
sg59
S'393'
p398
sba(iArchitecture
Cluster
p399
(dp400
g7
(lp401
(iArchitecture
Entity
p402
(dp403
g11
(lp404
sg13
S'android.view.InputChannel'
p405
sg15
(lp406
sg17
(lp407
sg19
(lp408
sg21
I0
sba(iArchitecture
Entity
p409
(dp410
g11
(lp411
sg13
S'android.view.InputChannel$1'
p412
sg15
(lp413
sg17
(lp414
sg19
(lp415
sg21
I0
sbasg57
(lp416
g405
ag412
asg21
I0
sg59
S'493'
p417
sba(iArchitecture
Cluster
p418
(dp419
g7
(lp420
(iArchitecture
Entity
p421
(dp422
g11
(lp423
sg13
S'com.android.internal.os.PowerProfile'
p424
sg15
(lp425
sg17
(lp426
sg19
(lp427
sg21
I0
sba(iArchitecture
Entity
p428
(dp429
g11
(lp430
sg13
S'com.android.internal.os.PowerProfile$CpuClusterKey'
p431
sg15
(lp432
sg17
(lp433
sg19
(lp434
sg21
I0
sbasg57
(lp435
g424
ag431
asg21
I0
sg59
S'593'
p436
sba(iArchitecture
Cluster
p437
(dp438
g7
(lp439
(iArchitecture
Entity
p440
(dp441
g11
(lp442
sg13
S'android.location.Criteria'
p443
sg15
(lp444
sg17
(lp445
sg19
(lp446
sg21
I0
sba(iArchitecture
Entity
p447
(dp448
g11
(lp449
sg13
S'android.location.Criteria$1'
p450
sg15
(lp451
sg17
(lp452
sg19
(lp453
sg21
I0
sbasg57
(lp454
g443
ag450
asg21
I0
sg59
S'693'
p455
sba(iArchitecture
Cluster
p456
(dp457
g7
(lp458
(iArchitecture
Entity
p459
(dp460
g11
(lp461
sg13
S'android.widget.RatingBar'
p462
sg15
(lp463
sg17
(lp464
sg19
(lp465
sg21
I0
sba(iArchitecture
Entity
p466
(dp467
g11
(lp468
sg13
S'android.widget.RatingBar$OnRatingBarChangeListener'
p469
sg15
(lp470
sg17
(lp471
sg19
(lp472
sg21
I0
sbasg57
(lp473
g462
ag469
asg21
I0
sg59
S'793'
p474
sba(iArchitecture
Cluster
p475
(dp476
g7
(lp477
(iArchitecture
Entity
p478
(dp479
g11
(lp480
sg13
S'android.util.Spline'
p481
sg15
(lp482
sg17
(lp483
sg19
(lp484
sg21
I0
sba(iArchitecture
Entity
p485
(dp486
g11
(lp487
sg13
S'android.util.Spline$LinearSpline'
p488
sg15
(lp489
sg17
(lp490
sg19
(lp491
sg21
I0
sba(iArchitecture
Entity
p492
(dp493
g11
(lp494
sg13
S'android.util.Spline$MonotoneCubicSpline'
p495
sg15
(lp496
sg17
(lp497
sg19
(lp498
sg21
I0
sbasg57
(lp499
g481
ag488
ag495
asg21
I0
sg59
S'893'
p500
sba(iArchitecture
Cluster
p501
(dp502
g7
(lp503
(iArchitecture
Entity
p504
(dp505
g11
(lp506
sg13
S'android.view.HardwareLayer'
p507
sg15
(lp508
sg17
(lp509
sg19
(lp510
sg21
I0
sbasg57
(lp511
g507
asg21
I0
sg59
S'93'
p512
sba(iArchitecture
Cluster
p513
(dp514
g7
(lp515
(iArchitecture
Entity
p516
(dp517
g11
(lp518
sg13
S'android.renderscript.Type'
p519
sg15
(lp520
sg17
(lp521
sg19
(lp522
sg21
I0
sba(iArchitecture
Entity
p523
(dp524
g11
(lp525
sg13
S'android.renderscript.Type$Builder'
p526
sg15
(lp527
sg17
(lp528
sg19
(lp529
sg21
I0
sba(iArchitecture
Entity
p530
(dp531
g11
(lp532
sg13
S'android.renderscript.Type$CubemapFace'
p533
sg15
(lp534
sg17
(lp535
sg19
(lp536
sg21
I0
sbasg57
(lp537
g519
ag526
ag533
asg21
I0
sg59
S'930'
p538
sba(iArchitecture
Cluster
p539
(dp540
g7
(lp541
(iArchitecture
Entity
p542
(dp543
g11
(lp544
sg13
S'com.android.server.wm.WindowAnimator'
p545
sg15
(lp546
sg17
(lp547
sg19
(lp548
sg21
I0
sba(iArchitecture
Entity
p549
(dp550
g11
(lp551
sg13
S'com.android.server.wm.WindowAnimator$1'
p552
sg15
(lp553
sg17
(lp554
sg19
(lp555
sg21
I0
sba(iArchitecture
Entity
p556
(dp557
g11
(lp558
sg13
S'com.android.server.wm.WindowAnimator$DisplayContentsAnimator'
p559
sg15
(lp560
sg17
(lp561
sg19
(lp562
sg21
I0
sbasg57
(lp563
g545
ag552
ag559
asg21
I0
sg59
S'931'
p564
sba(iArchitecture
Cluster
p565
(dp566
g7
(lp567
(iArchitecture
Entity
p568
(dp569
g11
(lp570
sg13
S'com.android.server.location.GeofenceProxy'
p571
sg15
(lp572
sg17
(lp573
sg19
(lp574
sg21
I0
sba(iArchitecture
Entity
p575
(dp576
g11
(lp577
sg13
S'com.android.server.location.GeofenceProxy$1'
p578
sg15
(lp579
sg17
(lp580
sg19
(lp581
sg21
I0
sba(iArchitecture
Entity
p582
(dp583
g11
(lp584
sg13
S'com.android.server.location.GeofenceProxy$2'
p585
sg15
(lp586
sg17
(lp587
sg19
(lp588
sg21
I0
sba(iArchitecture
Entity
p589
(dp590
g11
(lp591
sg13
S'com.android.server.location.GeofenceProxy$3'
p592
sg15
(lp593
sg17
(lp594
sg19
(lp595
sg21
I0
sbasg57
(lp596
g571
ag578
ag585
ag592
asg21
I0
sg59
S'932'
p597
sba(iArchitecture
Cluster
p598
(dp599
g7
(lp600
(iArchitecture
Entity
p601
(dp602
g11
(lp603
sg13
S'android.content.ContentProviderOperation'
p604
sg15
(lp605
sg17
(lp606
sg19
(lp607
sg21
I0
sba(iArchitecture
Entity
p608
(dp609
g11
(lp610
sg13
S'android.content.ContentProviderOperation$1'
p611
sg15
(lp612
sg17
(lp613
sg19
(lp614
sg21
I0
sba(iArchitecture
Entity
p615
(dp616
g11
(lp617
sg13
S'android.content.ContentProviderOperation$Builder'
p618
sg15
(lp619
sg17
(lp620
sg19
(lp621
sg21
I0
sbasg57
(lp622
g604
ag611
ag618
asg21
I0
sg59
S'933'
p623
sba(iArchitecture
Cluster
p624
(dp625
g7
(lp626
(iArchitecture
Entity
p627
(dp628
g11
(lp629
sg13
S'com.android.server.wm.WindowSurfaceController'
p630
sg15
(lp631
sg17
(lp632
sg19
(lp633
sg21
I0
sba(iArchitecture
Entity
p634
(dp635
g11
(lp636
sg13
S'com.android.server.wm.WindowSurfaceController$SurfaceControlWithBackground'
p637
sg15
(lp638
sg17
(lp639
sg19
(lp640
sg21
I0
sba(iArchitecture
Entity
p641
(dp642
g11
(lp643
sg13
S'com.android.server.wm.WindowSurfaceController$SurfaceTrace'
p644
sg15
(lp645
sg17
(lp646
sg19
(lp647
sg21
I0
sbasg57
(lp648
g630
ag637
ag644
asg21
I0
sg59
S'934'
p649
sba(iArchitecture
Cluster
p650
(dp651
g7
(lp652
(iArchitecture
Entity
p653
(dp654
g11
(lp655
sg13
S'android.os.storage.VolumeInfo'
p656
sg15
(lp657
sg17
(lp658
sg19
(lp659
sg21
I0
sba(iArchitecture
Entity
p660
(dp661
g11
(lp662
sg13
S'android.os.storage.VolumeInfo$1'
p663
sg15
(lp664
sg17
(lp665
sg19
(lp666
sg21
I0
sba(iArchitecture
Entity
p667
(dp668
g11
(lp669
sg13
S'android.os.storage.VolumeInfo$2'
p670
sg15
(lp671
sg17
(lp672
sg19
(lp673
sg21
I0
sbasg57
(lp674
g656
ag663
ag670
asg21
I0
sg59
S'935'
p675
sba(iArchitecture
Cluster
p676
(dp677
g7
(lp678
(iArchitecture
Entity
p679
(dp680
g11
(lp681
sg13
S'android.print.PrintJobInfo'
p682
sg15
(lp683
sg17
(lp684
sg19
(lp685
sg21
I0
sba(iArchitecture
Entity
p686
(dp687
g11
(lp688
sg13
S'android.print.PrintJobInfo$1'
p689
sg15
(lp690
sg17
(lp691
sg19
(lp692
sg21
I0
sba(iArchitecture
Entity
p693
(dp694
g11
(lp695
sg13
S'android.print.PrintJobInfo$Builder'
p696
sg15
(lp697
sg17
(lp698
sg19
(lp699
sg21
I0
sbasg57
(lp700
g682
ag689
ag696
asg21
I0
sg59
S'936'
p701
sba(iArchitecture
Cluster
p702
(dp703
g7
(lp704
(iArchitecture
Entity
p705
(dp706
g11
(lp707
sg13
S'android.content.pm.EphemeralResolveInfo'
p708
sg15
(lp709
sg17
(lp710
sg19
(lp711
sg21
I0
sba(iArchitecture
Entity
p712
(dp713
g11
(lp714
sg13
S'android.content.pm.EphemeralResolveInfo$1'
p715
sg15
(lp716
sg17
(lp717
sg19
(lp718
sg21
I0
sba(iArchitecture
Entity
p719
(dp720
g11
(lp721
sg13
S'android.content.pm.EphemeralResolveInfo$EphemeralResolveIntentInfo'
p722
sg15
(lp723
sg17
(lp724
sg19
(lp725
sg21
I0
sbasg57
(lp726
g708
ag715
ag722
asg21
I0
sg59
S'937'
p727
sba(iArchitecture
Cluster
p728
(dp729
g7
(lp730
(iArchitecture
Entity
p731
(dp732
g11
(lp733
sg13
S'com.android.server.job.controllers.ContentObserverController'
p734
sg15
(lp735
sg17
(lp736
sg19
(lp737
sg21
I0
sba(iArchitecture
Entity
p738
(dp739
g11
(lp740
sg13
S'com.android.server.job.controllers.ContentObserverController$JobInstance'
p741
sg15
(lp742
sg17
(lp743
sg19
(lp744
sg21
I0
sba(iArchitecture
Entity
p745
(dp746
g11
(lp747
sg13
S'com.android.server.job.controllers.ContentObserverController$ObserverInstance'
p748
sg15
(lp749
sg17
(lp750
sg19
(lp751
sg21
I0
sba(iArchitecture
Entity
p752
(dp753
g11
(lp754
sg13
S'com.android.server.job.controllers.ContentObserverController$TriggerRunnable'
p755
sg15
(lp756
sg17
(lp757
sg19
(lp758
sg21
I0
sbasg57
(lp759
g734
ag741
ag748
ag755
asg21
I0
sg59
S'938'
p760
sba(iArchitecture
Cluster
p761
(dp762
g7
(lp763
(iArchitecture
Entity
p764
(dp765
g11
(lp766
sg13
S'android.transition.Visibility'
p767
sg15
(lp768
sg17
(lp769
sg19
(lp770
sg21
I0
sba(iArchitecture
Entity
p771
(dp772
g11
(lp773
sg13
S'android.transition.Visibility$1'
p774
sg15
(lp775
sg17
(lp776
sg19
(lp777
sg21
I0
sba(iArchitecture
Entity
p778
(dp779
g11
(lp780
sg13
S'android.transition.Visibility$DisappearListener'
p781
sg15
(lp782
sg17
(lp783
sg19
(lp784
sg21
I0
sba(iArchitecture
Entity
p785
(dp786
g11
(lp787
sg13
S'android.transition.Visibility$VisibilityInfo'
p788
sg15
(lp789
sg17
(lp790
sg19
(lp791
sg21
I0
sbasg57
(lp792
g767
ag774
ag781
ag788
asg21
I0
sg59
S'939'
p793
sba(iArchitecture
Cluster
p794
(dp795
g7
(lp796
(iArchitecture
Entity
p797
(dp798
g11
(lp799
sg13
S'android.media.session.MediaSessionLegacyHelper'
p800
sg15
(lp801
sg17
(lp802
sg19
(lp803
sg21
I0
sba(iArchitecture
Entity
p804
(dp805
g11
(lp806
sg13
S'android.media.session.MediaSessionLegacyHelper$MediaButtonListener'
p807
sg15
(lp808
sg17
(lp809
sg19
(lp810
sg21
I0
sba(iArchitecture
Entity
p811
(dp812
g11
(lp813
sg13
S'android.media.session.MediaSessionLegacyHelper$SessionHolder'
p814
sg15
(lp815
sg17
(lp816
sg19
(lp817
sg21
I0
sba(iArchitecture
Entity
p818
(dp819
g11
(lp820
sg13
S'android.media.session.MediaSessionLegacyHelper$SessionHolder$SessionCallback'
p821
sg15
(lp822
sg17
(lp823
sg19
(lp824
sg21
I0
sbasg57
(lp825
g800
ag807
ag814
ag821
asg21
I0
sg59
S'993'
p826
sbasS'target_sub'
p827
S'93'
p828
sg57
(lp829
sS'is_component_arch'
p830
I01
sg59
S'7.0.0_r1'
p831
sba.