(lp0
(iArchitecture
Architecture
p1
(dp2
S'clusters'
p3
(lp4
(iArchitecture
Cluster
p5
(dp6
S'entities'
p7
(lp8
(iArchitecture
Entity
p9
(dp10
S'issue_ids'
p11
(lp12
sS'name'
p13
S'android.renderscript.ProgramStore'
p14
sS'descs'
p15
(lp16
sS'labels'
p17
(lp18
sS'titles'
p19
(lp20
sS'change'
p21
I0
sba(iArchitecture
Entity
p22
(dp23
g11
(lp24
sg13
S'android.renderscript.ProgramStore$BlendDstFunc'
p25
sg15
(lp26
sg17
(lp27
sg19
(lp28
sg21
I0
sba(iArchitecture
Entity
p29
(dp30
g11
(lp31
sg13
S'android.renderscript.ProgramStore$BlendSrcFunc'
p32
sg15
(lp33
sg17
(lp34
sg19
(lp35
sg21
I0
sba(iArchitecture
Entity
p36
(dp37
g11
(lp38
sg13
S'android.renderscript.ProgramStore$Builder'
p39
sg15
(lp40
sg17
(lp41
sg19
(lp42
sg21
I0
sba(iArchitecture
Entity
p43
(dp44
g11
(lp45
sg13
S'android.renderscript.ProgramStore$DepthFunc'
p46
sg15
(lp47
sg17
(lp48
sg19
(lp49
sg21
I0
sbasS'classes'
p50
(lp51
g14
ag25
ag32
ag39
ag46
asg21
I0
sS'label'
p52
S'1055'
p53
sba(iArchitecture
Cluster
p54
(dp55
g7
(lp56
(iArchitecture
Entity
p57
(dp58
g11
(lp59
sg13
S'android.app.ActionBar'
p60
sg15
(lp61
sg17
(lp62
sg19
(lp63
sg21
I0
sba(iArchitecture
Entity
p64
(dp65
g11
(lp66
sg13
S'android.app.ActionBar$FollowOutOfActionBar'
p67
sg15
(lp68
sg17
(lp69
sg19
(lp70
sg21
I0
sba(iArchitecture
Entity
p71
(dp72
g11
(lp73
sg13
S'android.app.ActionBar$LayoutParams'
p74
sg15
(lp75
sg17
(lp76
sg19
(lp77
sg21
I0
sba(iArchitecture
Entity
p78
(dp79
g11
(lp80
sg13
S'android.app.ActionBar$OnMenuVisibilityListener'
p81
sg15
(lp82
sg17
(lp83
sg19
(lp84
sg21
I0
sba(iArchitecture
Entity
p85
(dp86
g11
(lp87
sg13
S'android.app.ActionBar$OnNavigationListener'
p88
sg15
(lp89
sg17
(lp90
sg19
(lp91
sg21
I0
sba(iArchitecture
Entity
p92
(dp93
g11
(lp94
sg13
S'android.app.ActionBar$Tab'
p95
sg15
(lp96
sg17
(lp97
sg19
(lp98
sg21
I0
sba(iArchitecture
Entity
p99
(dp100
g11
(lp101
sg13
S'android.app.ActionBar$TabListener'
p102
sg15
(lp103
sg17
(lp104
sg19
(lp105
sg21
I0
sbasg50
(lp106
g60
ag67
ag74
ag81
ag88
ag95
ag102
asg21
I0
sg52
S'1155'
p107
sba(iArchitecture
Cluster
p108
(dp109
g7
(lp110
(iArchitecture
Entity
p111
(dp112
g11
(lp113
sg13
S'android.telephony.SmsMessage'
p114
sg15
(lp115
sg17
(lp116
sg19
(lp117
sg21
I0
sba(iArchitecture
Entity
p118
(dp119
g11
(lp120
sg13
S'com.android.internal.telephony.SmsMessageBase'
p121
sg15
(lp122
sg17
(lp123
sg19
(lp124
sg21
I0
sbasg50
(lp125
g114
ag121
asg21
I0
sg52
S'1255'
p126
sba(iArchitecture
Cluster
p127
(dp128
g7
(lp129
(iArchitecture
Entity
p130
(dp131
g11
(lp132
sg13
S'android.media.audiofx.AudioEffect'
p133
sg15
(lp134
sg17
(lp135
sg19
(lp136
sg21
I0
sba(iArchitecture
Entity
p137
(dp138
g11
(lp139
sg13
S'android.media.audiofx.AudioEffect$Descriptor'
p140
sg15
(lp141
sg17
(lp142
sg19
(lp143
sg21
I0
sba(iArchitecture
Entity
p144
(dp145
g11
(lp146
sg13
S'android.media.audiofx.AudioEffect$NativeEventHandler'
p147
sg15
(lp148
sg17
(lp149
sg19
(lp150
sg21
I0
sba(iArchitecture
Entity
p151
(dp152
g11
(lp153
sg13
S'android.media.audiofx.AudioEffect$OnControlStatusChangeListener'
p154
sg15
(lp155
sg17
(lp156
sg19
(lp157
sg21
I0
sba(iArchitecture
Entity
p158
(dp159
g11
(lp160
sg13
S'android.media.audiofx.AudioEffect$OnEnableStatusChangeListener'
p161
sg15
(lp162
sg17
(lp163
sg19
(lp164
sg21
I0
sba(iArchitecture
Entity
p165
(dp166
g11
(lp167
sg13
S'android.media.audiofx.AudioEffect$OnParameterChangeListener'
p168
sg15
(lp169
sg17
(lp170
sg19
(lp171
sg21
I0
sba(iArchitecture
Entity
p172
(dp173
g11
(lp174
sg13
S'android.media.audiofx.BassBoost'
p175
sg15
(lp176
sg17
(lp177
sg19
(lp178
sg21
I0
sba(iArchitecture
Entity
p179
(dp180
g11
(lp181
sg13
S'android.media.audiofx.BassBoost$BaseParameterListener'
p182
sg15
(lp183
sg17
(lp184
sg19
(lp185
sg21
I0
sba(iArchitecture
Entity
p186
(dp187
g11
(lp188
sg13
S'android.media.audiofx.BassBoost$OnParameterChangeListener'
p189
sg15
(lp190
sg17
(lp191
sg19
(lp192
sg21
I0
sba(iArchitecture
Entity
p193
(dp194
g11
(lp195
sg13
S'android.media.audiofx.BassBoost$Settings'
p196
sg15
(lp197
sg17
(lp198
sg19
(lp199
sg21
I0
sba(iArchitecture
Entity
p200
(dp201
g11
(lp202
sg13
S'android.media.audiofx.EnvironmentalReverb'
p203
sg15
(lp204
sg17
(lp205
sg19
(lp206
sg21
I0
sba(iArchitecture
Entity
p207
(dp208
g11
(lp209
sg13
S'android.media.audiofx.EnvironmentalReverb$BaseParameterListener'
p210
sg15
(lp211
sg17
(lp212
sg19
(lp213
sg21
I0
sba(iArchitecture
Entity
p214
(dp215
g11
(lp216
sg13
S'android.media.audiofx.EnvironmentalReverb$OnParameterChangeListener'
p217
sg15
(lp218
sg17
(lp219
sg19
(lp220
sg21
I0
sba(iArchitecture
Entity
p221
(dp222
g11
(lp223
sg13
S'android.media.audiofx.EnvironmentalReverb$Settings'
p224
sg15
(lp225
sg17
(lp226
sg19
(lp227
sg21
I0
sba(iArchitecture
Entity
p228
(dp229
g11
(lp230
sg13
S'android.media.audiofx.Equalizer'
p231
sg15
(lp232
sg17
(lp233
sg19
(lp234
sg21
I0
sba(iArchitecture
Entity
p235
(dp236
g11
(lp237
sg13
S'android.media.audiofx.Equalizer$BaseParameterListener'
p238
sg15
(lp239
sg17
(lp240
sg19
(lp241
sg21
I0
sba(iArchitecture
Entity
p242
(dp243
g11
(lp244
sg13
S'android.media.audiofx.Equalizer$OnParameterChangeListener'
p245
sg15
(lp246
sg17
(lp247
sg19
(lp248
sg21
I0
sba(iArchitecture
Entity
p249
(dp250
g11
(lp251
sg13
S'android.media.audiofx.Equalizer$Settings'
p252
sg15
(lp253
sg17
(lp254
sg19
(lp255
sg21
I0
sba(iArchitecture
Entity
p256
(dp257
g11
(lp258
sg13
S'android.media.audiofx.LoudnessEnhancer'
p259
sg15
(lp260
sg17
(lp261
sg19
(lp262
sg21
I0
sba(iArchitecture
Entity
p263
(dp264
g11
(lp265
sg13
S'android.media.audiofx.LoudnessEnhancer$BaseParameterListener'
p266
sg15
(lp267
sg17
(lp268
sg19
(lp269
sg21
I0
sba(iArchitecture
Entity
p270
(dp271
g11
(lp272
sg13
S'android.media.audiofx.LoudnessEnhancer$OnParameterChangeListener'
p273
sg15
(lp274
sg17
(lp275
sg19
(lp276
sg21
I0
sba(iArchitecture
Entity
p277
(dp278
g11
(lp279
sg13
S'android.media.audiofx.LoudnessEnhancer$Settings'
p280
sg15
(lp281
sg17
(lp282
sg19
(lp283
sg21
I0
sba(iArchitecture
Entity
p284
(dp285
g11
(lp286
sg13
S'android.media.audiofx.PresetReverb'
p287
sg15
(lp288
sg17
(lp289
sg19
(lp290
sg21
I0
sba(iArchitecture
Entity
p291
(dp292
g11
(lp293
sg13
S'android.media.audiofx.PresetReverb$BaseParameterListener'
p294
sg15
(lp295
sg17
(lp296
sg19
(lp297
sg21
I0
sba(iArchitecture
Entity
p298
(dp299
g11
(lp300
sg13
S'android.media.audiofx.PresetReverb$OnParameterChangeListener'
p301
sg15
(lp302
sg17
(lp303
sg19
(lp304
sg21
I0
sba(iArchitecture
Entity
p305
(dp306
g11
(lp307
sg13
S'android.media.audiofx.PresetReverb$Settings'
p308
sg15
(lp309
sg17
(lp310
sg19
(lp311
sg21
I0
sba(iArchitecture
Entity
p312
(dp313
g11
(lp314
sg13
S'android.media.audiofx.Virtualizer'
p315
sg15
(lp316
sg17
(lp317
sg19
(lp318
sg21
I0
sba(iArchitecture
Entity
p319
(dp320
g11
(lp321
sg13
S'android.media.audiofx.Virtualizer$BaseParameterListener'
p322
sg15
(lp323
sg17
(lp324
sg19
(lp325
sg21
I0
sba(iArchitecture
Entity
p326
(dp327
g11
(lp328
sg13
S'android.media.audiofx.Virtualizer$OnParameterChangeListener'
p329
sg15
(lp330
sg17
(lp331
sg19
(lp332
sg21
I0
sba(iArchitecture
Entity
p333
(dp334
g11
(lp335
sg13
S'android.media.audiofx.Virtualizer$Settings'
p336
sg15
(lp337
sg17
(lp338
sg19
(lp339
sg21
I0
sbasg50
(lp340
g133
ag140
ag147
ag154
ag161
ag168
ag175
ag182
ag189
ag196
ag203
ag210
ag217
ag224
ag231
ag238
ag245
ag252
ag259
ag266
ag273
ag280
ag287
ag294
ag301
ag308
ag315
ag322
ag329
ag336
asg21
I0
sg52
S'1355'
p341
sba(iArchitecture
Cluster
p342
(dp343
g7
(lp344
(iArchitecture
Entity
p345
(dp346
g11
(lp347
sg13
S'android.security.NetworkSecurityPolicy'
p348
sg15
(lp349
sg17
(lp350
sg19
(lp351
sg21
I0
sbasg50
(lp352
g348
asg21
I0
sg52
S'155'
p353
sba(iArchitecture
Cluster
p354
(dp355
g7
(lp356
(iArchitecture
Entity
p357
(dp358
g11
(lp359
sg13
S'android.filterfw.core.FilterGraph'
p360
sg15
(lp361
sg17
(lp362
sg19
(lp363
sg21
I0
sbasg50
(lp364
g360
asg21
I0
sg52
S'255'
p365
sba(iArchitecture
Cluster
p366
(dp367
g7
(lp368
(iArchitecture
Entity
p369
(dp370
g11
(lp371
sg13
S'android.bluetooth.BluetoothHealthCallback'
p372
sg15
(lp373
sg17
(lp374
sg19
(lp375
sg21
I0
sbasg50
(lp376
g372
asg21
I0
sg52
S'355'
p377
sba(iArchitecture
Cluster
p378
(dp379
g7
(lp380
(iArchitecture
Entity
p381
(dp382
g11
(lp383
sg13
S'android.database.sqlite.SQLiteOpenHelper'
p384
sg15
(lp385
sg17
(lp386
sg19
(lp387
sg21
I0
sbasg50
(lp388
g384
asg21
I0
sg52
S'455'
p389
sba(iArchitecture
Cluster
p390
(dp391
g7
(lp392
(iArchitecture
Entity
p393
(dp394
g11
(lp395
sg13
S'android.hardware.camera2.params.BlackLevelPattern'
p396
sg15
(lp397
sg17
(lp398
sg19
(lp399
sg21
I0
sbasg50
(lp400
g396
asg21
I0
sg52
S'55'
p401
sba(iArchitecture
Cluster
p402
(dp403
g7
(lp404
(iArchitecture
Entity
p405
(dp406
g11
(lp407
sg13
S'android.graphics.drawable.RippleDrawable'
p408
sg15
(lp409
sg17
(lp410
sg19
(lp411
sg21
I0
sba(iArchitecture
Entity
p412
(dp413
g11
(lp414
sg13
S'android.graphics.drawable.RippleDrawable$RippleState'
p415
sg15
(lp416
sg17
(lp417
sg19
(lp418
sg21
I0
sbasg50
(lp419
g408
ag415
asg21
I0
sg52
S'550'
p420
sba(iArchitecture
Cluster
p421
(dp422
g7
(lp423
(iArchitecture
Entity
p424
(dp425
g11
(lp426
sg13
S'com.android.server.PinnerService'
p427
sg15
(lp428
sg17
(lp429
sg19
(lp430
sg21
I0
sba(iArchitecture
Entity
p431
(dp432
g11
(lp433
sg13
S'com.android.server.PinnerService$BinderService'
p434
sg15
(lp435
sg17
(lp436
sg19
(lp437
sg21
I0
sbasg50
(lp438
g427
ag434
asg21
I0
sg52
S'551'
p439
sba(iArchitecture
Cluster
p440
(dp441
g7
(lp442
(iArchitecture
Entity
p443
(dp444
g11
(lp445
sg13
S'android.telecom.ParcelableCallAnalytics'
p446
sg15
(lp447
sg17
(lp448
sg19
(lp449
sg21
I0
sba(iArchitecture
Entity
p450
(dp451
g11
(lp452
sg13
S'android.telecom.ParcelableCallAnalytics$1'
p453
sg15
(lp454
sg17
(lp455
sg19
(lp456
sg21
I0
sbasg50
(lp457
g446
ag453
asg21
I0
sg52
S'552'
p458
sba(iArchitecture
Cluster
p459
(dp460
g7
(lp461
(iArchitecture
Entity
p462
(dp463
g11
(lp464
sg13
S'android.telephony.CellInfoLte'
p465
sg15
(lp466
sg17
(lp467
sg19
(lp468
sg21
I0
sba(iArchitecture
Entity
p469
(dp470
g11
(lp471
sg13
S'android.telephony.CellInfoLte$1'
p472
sg15
(lp473
sg17
(lp474
sg19
(lp475
sg21
I0
sbasg50
(lp476
g465
ag472
asg21
I0
sg52
S'553'
p477
sba(iArchitecture
Cluster
p478
(dp479
g7
(lp480
(iArchitecture
Entity
p481
(dp482
g11
(lp483
sg13
S'android.telephony.DataConnectionRealTimeInfo'
p484
sg15
(lp485
sg17
(lp486
sg19
(lp487
sg21
I0
sba(iArchitecture
Entity
p488
(dp489
g11
(lp490
sg13
S'android.telephony.DataConnectionRealTimeInfo$1'
p491
sg15
(lp492
sg17
(lp493
sg19
(lp494
sg21
I0
sbasg50
(lp495
g484
ag491
asg21
I0
sg52
S'554'
p496
sba(iArchitecture
Cluster
p497
(dp498
g7
(lp499
(iArchitecture
Entity
p500
(dp501
g11
(lp502
sg13
S'android.graphics.drawable.RotateDrawable'
p503
sg15
(lp504
sg17
(lp505
sg19
(lp506
sg21
I0
sba(iArchitecture
Entity
p507
(dp508
g11
(lp509
sg13
S'android.graphics.drawable.RotateDrawable$RotateState'
p510
sg15
(lp511
sg17
(lp512
sg19
(lp513
sg21
I0
sbasg50
(lp514
g503
ag510
asg21
I0
sg52
S'555'
p515
sba(iArchitecture
Cluster
p516
(dp517
g7
(lp518
(iArchitecture
Entity
p519
(dp520
g11
(lp521
sg13
S'android.preference.PreferenceFrameLayout'
p522
sg15
(lp523
sg17
(lp524
sg19
(lp525
sg21
I0
sba(iArchitecture
Entity
p526
(dp527
g11
(lp528
sg13
S'android.preference.PreferenceFrameLayout$LayoutParams'
p529
sg15
(lp530
sg17
(lp531
sg19
(lp532
sg21
I0
sbasg50
(lp533
g522
ag529
asg21
I0
sg52
S'556'
p534
sba(iArchitecture
Cluster
p535
(dp536
g7
(lp537
(iArchitecture
Entity
p538
(dp539
g11
(lp540
sg13
S'android.graphics.drawable.BitmapDrawable'
p541
sg15
(lp542
sg17
(lp543
sg19
(lp544
sg21
I0
sba(iArchitecture
Entity
p545
(dp546
g11
(lp547
sg13
S'android.graphics.drawable.BitmapDrawable$BitmapState'
p548
sg15
(lp549
sg17
(lp550
sg19
(lp551
sg21
I0
sbasg50
(lp552
g541
ag548
asg21
I0
sg52
S'557'
p553
sba(iArchitecture
Cluster
p554
(dp555
g7
(lp556
(iArchitecture
Entity
p557
(dp558
g11
(lp559
sg13
S'android.service.chooser.ChooserTarget'
p560
sg15
(lp561
sg17
(lp562
sg19
(lp563
sg21
I0
sba(iArchitecture
Entity
p564
(dp565
g11
(lp566
sg13
S'android.service.chooser.ChooserTarget$1'
p567
sg15
(lp568
sg17
(lp569
sg19
(lp570
sg21
I0
sbasg50
(lp571
g560
ag567
asg21
I0
sg52
S'558'
p572
sba(iArchitecture
Cluster
p573
(dp574
g7
(lp575
(iArchitecture
Entity
p576
(dp577
g11
(lp578
sg13
S'android.app.AlertDialog'
p579
sg15
(lp580
sg17
(lp581
sg19
(lp582
sg21
I0
sba(iArchitecture
Entity
p583
(dp584
g11
(lp585
sg13
S'android.app.AlertDialog$Builder'
p586
sg15
(lp587
sg17
(lp588
sg19
(lp589
sg21
I0
sbasg50
(lp590
g579
ag586
asg21
I0
sg52
S'559'
p591
sba(iArchitecture
Cluster
p592
(dp593
g7
(lp594
(iArchitecture
Entity
p595
(dp596
g11
(lp597
sg13
S'android.telecom.Log'
p598
sg15
(lp599
sg17
(lp600
sg19
(lp601
sg21
I0
sba(iArchitecture
Entity
p602
(dp603
g11
(lp604
sg13
S'android.telecom.Log$1'
p605
sg15
(lp606
sg17
(lp607
sg19
(lp608
sg21
I0
sbasg50
(lp609
g598
ag605
asg21
I0
sg52
S'655'
p610
sba(iArchitecture
Cluster
p611
(dp612
g7
(lp613
(iArchitecture
Entity
p614
(dp615
g11
(lp616
sg13
S'android.media.Rating'
p617
sg15
(lp618
sg17
(lp619
sg19
(lp620
sg21
I0
sba(iArchitecture
Entity
p621
(dp622
g11
(lp623
sg13
S'android.media.Rating$1'
p624
sg15
(lp625
sg17
(lp626
sg19
(lp627
sg21
I0
sbasg50
(lp628
g617
ag624
asg21
I0
sg52
S'755'
p629
sba(iArchitecture
Cluster
p630
(dp631
g7
(lp632
(iArchitecture
Entity
p633
(dp634
g11
(lp635
sg13
S'com.android.server.job.JobPackageTracker'
p636
sg15
(lp637
sg17
(lp638
sg19
(lp639
sg21
I0
sba(iArchitecture
Entity
p640
(dp641
g11
(lp642
sg13
S'com.android.server.job.JobPackageTracker$DataSet'
p643
sg15
(lp644
sg17
(lp645
sg19
(lp646
sg21
I0
sba(iArchitecture
Entity
p647
(dp648
g11
(lp649
sg13
S'com.android.server.job.JobPackageTracker$PackageEntry'
p650
sg15
(lp651
sg17
(lp652
sg19
(lp653
sg21
I0
sbasg50
(lp654
g636
ag643
ag650
asg21
I0
sg52
S'855'
p655
sba(iArchitecture
Cluster
p656
(dp657
g7
(lp658
(iArchitecture
Entity
p659
(dp660
g11
(lp661
sg13
S'com.android.internal.util.TypedProperties'
p662
sg15
(lp663
sg17
(lp664
sg19
(lp665
sg21
I0
sba(iArchitecture
Entity
p666
(dp667
g11
(lp668
sg13
S'com.android.internal.util.TypedProperties$ParseException'
p669
sg15
(lp670
sg17
(lp671
sg19
(lp672
sg21
I0
sba(iArchitecture
Entity
p673
(dp674
g11
(lp675
sg13
S'com.android.internal.util.TypedProperties$TypeException'
p676
sg15
(lp677
sg17
(lp678
sg19
(lp679
sg21
I0
sbasg50
(lp680
g662
ag669
ag676
asg21
I0
sg52
S'955'
p681
sbasS'target_sub'
p682
S'55'
p683
sg50
(lp684
sS'is_component_arch'
p685
I01
sg52
S'7.0.0_r1'
p686
sba.