(lp0
(iArchitecture
Architecture
p1
(dp2
S'clusters'
p3
(lp4
(iArchitecture
Cluster
p5
(dp6
S'entities'
p7
(lp8
(iArchitecture
Entity
p9
(dp10
S'issue_ids'
p11
(lp12
sS'name'
p13
S'android.animation.LayoutTransition'
p14
sS'descs'
p15
(lp16
sS'labels'
p17
(lp18
sS'titles'
p19
(lp20
sS'change'
p21
I0
sba(iArchitecture
Entity
p22
(dp23
g11
(lp24
sg13
S'android.animation.LayoutTransition$1'
p25
sg15
(lp26
sg17
(lp27
sg19
(lp28
sg21
I0
sba(iArchitecture
Entity
p29
(dp30
g11
(lp31
sg13
S'android.animation.LayoutTransition$2'
p32
sg15
(lp33
sg17
(lp34
sg19
(lp35
sg21
I0
sba(iArchitecture
Entity
p36
(dp37
g11
(lp38
sg13
S'android.animation.LayoutTransition$3'
p39
sg15
(lp40
sg17
(lp41
sg19
(lp42
sg21
I0
sba(iArchitecture
Entity
p43
(dp44
g11
(lp45
sg13
S'android.animation.LayoutTransition$4'
p46
sg15
(lp47
sg17
(lp48
sg19
(lp49
sg21
I0
sba(iArchitecture
Entity
p50
(dp51
g11
(lp52
sg13
S'android.animation.LayoutTransition$5'
p53
sg15
(lp54
sg17
(lp55
sg19
(lp56
sg21
I0
sba(iArchitecture
Entity
p57
(dp58
g11
(lp59
sg13
S'android.animation.LayoutTransition$CleanupCallback'
p60
sg15
(lp61
sg17
(lp62
sg19
(lp63
sg21
I0
sba(iArchitecture
Entity
p64
(dp65
g11
(lp66
sg13
S'android.animation.LayoutTransition$TransitionListener'
p67
sg15
(lp68
sg17
(lp69
sg19
(lp70
sg21
I0
sbasS'classes'
p71
(lp72
g14
ag25
ag32
ag39
ag46
ag53
ag60
ag67
asg21
I0
sS'label'
p73
S'1068'
p74
sba(iArchitecture
Cluster
p75
(dp76
g7
(lp77
(iArchitecture
Entity
p78
(dp79
g11
(lp80
sg13
S'android.widget.ExpandableListView'
p81
sg15
(lp82
sg17
(lp83
sg19
(lp84
sg21
I0
sba(iArchitecture
Entity
p85
(dp86
g11
(lp87
sg13
S'android.widget.ExpandableListView$ExpandableListContextMenuInfo'
p88
sg15
(lp89
sg17
(lp90
sg19
(lp91
sg21
I0
sba(iArchitecture
Entity
p92
(dp93
g11
(lp94
sg13
S'android.widget.ExpandableListView$OnChildClickListener'
p95
sg15
(lp96
sg17
(lp97
sg19
(lp98
sg21
I0
sba(iArchitecture
Entity
p99
(dp100
g11
(lp101
sg13
S'android.widget.ExpandableListView$OnGroupClickListener'
p102
sg15
(lp103
sg17
(lp104
sg19
(lp105
sg21
I0
sba(iArchitecture
Entity
p106
(dp107
g11
(lp108
sg13
S'android.widget.ExpandableListView$OnGroupCollapseListener'
p109
sg15
(lp110
sg17
(lp111
sg19
(lp112
sg21
I0
sba(iArchitecture
Entity
p113
(dp114
g11
(lp115
sg13
S'android.widget.ExpandableListView$OnGroupExpandListener'
p116
sg15
(lp117
sg17
(lp118
sg19
(lp119
sg21
I0
sba(iArchitecture
Entity
p120
(dp121
g11
(lp122
sg13
S'android.widget.ExpandableListView$SavedState'
p123
sg15
(lp124
sg17
(lp125
sg19
(lp126
sg21
I0
sba(iArchitecture
Entity
p127
(dp128
g11
(lp129
sg13
S'android.widget.ExpandableListView$SavedState$1'
p130
sg15
(lp131
sg17
(lp132
sg19
(lp133
sg21
I0
sbasg71
(lp134
g81
ag88
ag95
ag102
ag109
ag116
ag123
ag130
asg21
I0
sg73
S'1168'
p135
sba(iArchitecture
Cluster
p136
(dp137
g7
(lp138
(iArchitecture
Entity
p139
(dp140
g11
(lp141
sg13
S'android.animation.AnimationHandler'
p142
sg15
(lp143
sg17
(lp144
sg19
(lp145
sg21
I0
sba(iArchitecture
Entity
p146
(dp147
g11
(lp148
sg13
S'android.animation.AnimationHandler$1'
p149
sg15
(lp150
sg17
(lp151
sg19
(lp152
sg21
I0
sba(iArchitecture
Entity
p153
(dp154
g11
(lp155
sg13
S'android.animation.AnimationHandler$2'
p156
sg15
(lp157
sg17
(lp158
sg19
(lp159
sg21
I0
sba(iArchitecture
Entity
p160
(dp161
g11
(lp162
sg13
S'android.animation.AnimationHandler$AnimationFrameCallback'
p163
sg15
(lp164
sg17
(lp165
sg19
(lp166
sg21
I0
sba(iArchitecture
Entity
p167
(dp168
g11
(lp169
sg13
S'android.animation.AnimationHandler$AnimationFrameCallbackProvider'
p170
sg15
(lp171
sg17
(lp172
sg19
(lp173
sg21
I0
sba(iArchitecture
Entity
p174
(dp175
g11
(lp176
sg13
S'android.animation.AnimationHandler$MyFrameCallbackProvider'
p177
sg15
(lp178
sg17
(lp179
sg19
(lp180
sg21
I0
sba(iArchitecture
Entity
p181
(dp182
g11
(lp183
sg13
S'android.view.Choreographer'
p184
sg15
(lp185
sg17
(lp186
sg19
(lp187
sg21
I0
sba(iArchitecture
Entity
p188
(dp189
g11
(lp190
sg13
S'android.view.Choreographer$1'
p191
sg15
(lp192
sg17
(lp193
sg19
(lp194
sg21
I0
sba(iArchitecture
Entity
p195
(dp196
g11
(lp197
sg13
S'android.view.Choreographer$2'
p198
sg15
(lp199
sg17
(lp200
sg19
(lp201
sg21
I0
sba(iArchitecture
Entity
p202
(dp203
g11
(lp204
sg13
S'android.view.Choreographer$CallbackQueue'
p205
sg15
(lp206
sg17
(lp207
sg19
(lp208
sg21
I0
sba(iArchitecture
Entity
p209
(dp210
g11
(lp211
sg13
S'android.view.Choreographer$CallbackRecord'
p212
sg15
(lp213
sg17
(lp214
sg19
(lp215
sg21
I0
sba(iArchitecture
Entity
p216
(dp217
g11
(lp218
sg13
S'android.view.Choreographer$FrameCallback'
p219
sg15
(lp220
sg17
(lp221
sg19
(lp222
sg21
I0
sba(iArchitecture
Entity
p223
(dp224
g11
(lp225
sg13
S'android.view.Choreographer$FrameDisplayEventReceiver'
p226
sg15
(lp227
sg17
(lp228
sg19
(lp229
sg21
I0
sba(iArchitecture
Entity
p230
(dp231
g11
(lp232
sg13
S'android.view.Choreographer$FrameHandler'
p233
sg15
(lp234
sg17
(lp235
sg19
(lp236
sg21
I0
sbasg71
(lp237
g142
ag149
ag156
ag163
ag170
ag177
ag184
ag191
ag198
ag205
ag212
ag219
ag226
ag233
asg21
I0
sg73
S'1268'
p238
sba(iArchitecture
Cluster
p239
(dp240
g7
(lp241
(iArchitecture
Entity
p242
(dp243
g11
(lp244
sg13
S'android.app.WallpaperManager'
p245
sg15
(lp246
sg17
(lp247
sg19
(lp248
sg21
I0
sba(iArchitecture
Entity
p249
(dp250
g11
(lp251
sg13
S'android.app.WallpaperManager$FastBitmapDrawable'
p252
sg15
(lp253
sg17
(lp254
sg19
(lp255
sg21
I0
sba(iArchitecture
Entity
p256
(dp257
g11
(lp258
sg13
S'android.app.WallpaperManager$Globals'
p259
sg15
(lp260
sg17
(lp261
sg19
(lp262
sg21
I0
sba(iArchitecture
Entity
p263
(dp264
g11
(lp265
sg13
S'android.app.WallpaperManager$WallpaperSetCompletion'
p266
sg15
(lp267
sg17
(lp268
sg19
(lp269
sg21
I0
sba(iArchitecture
Entity
p270
(dp271
g11
(lp272
sg13
S'android.graphics.Rect'
p273
sg15
(lp274
sg17
(lp275
sg19
(lp276
sg21
I0
sba(iArchitecture
Entity
p277
(dp278
g11
(lp279
sg13
S'android.graphics.Rect$1'
p280
sg15
(lp281
sg17
(lp282
sg19
(lp283
sg21
I0
sba(iArchitecture
Entity
p284
(dp285
g11
(lp286
sg13
S'android.graphics.Rect$UnflattenHelper'
p287
sg15
(lp288
sg17
(lp289
sg19
(lp290
sg21
I0
sba(iArchitecture
Entity
p291
(dp292
g11
(lp293
sg13
S'android.graphics.RectF'
p294
sg15
(lp295
sg17
(lp296
sg19
(lp297
sg21
I0
sba(iArchitecture
Entity
p298
(dp299
g11
(lp300
sg13
S'android.graphics.RectF$1'
p301
sg15
(lp302
sg17
(lp303
sg19
(lp304
sg21
I0
sba(iArchitecture
Entity
p305
(dp306
g11
(lp307
sg13
S'android.graphics.Region'
p308
sg15
(lp309
sg17
(lp310
sg19
(lp311
sg21
I0
sba(iArchitecture
Entity
p312
(dp313
g11
(lp314
sg13
S'android.graphics.Region$1'
p315
sg15
(lp316
sg17
(lp317
sg19
(lp318
sg21
I0
sba(iArchitecture
Entity
p319
(dp320
g11
(lp321
sg13
S'android.graphics.Region$Op'
p322
sg15
(lp323
sg17
(lp324
sg19
(lp325
sg21
I0
sba(iArchitecture
Entity
p326
(dp327
g11
(lp328
sg13
S'com.android.server.wallpaper.WallpaperManagerService'
p329
sg15
(lp330
sg17
(lp331
sg19
(lp332
sg21
I0
sba(iArchitecture
Entity
p333
(dp334
g11
(lp335
sg13
S'com.android.server.wallpaper.WallpaperManagerService$1'
p336
sg15
(lp337
sg17
(lp338
sg19
(lp339
sg21
I0
sba(iArchitecture
Entity
p340
(dp341
g11
(lp342
sg13
S'com.android.server.wallpaper.WallpaperManagerService$2'
p343
sg15
(lp344
sg17
(lp345
sg19
(lp346
sg21
I0
sba(iArchitecture
Entity
p347
(dp348
g11
(lp349
sg13
S'com.android.server.wallpaper.WallpaperManagerService$Lifecycle'
p350
sg15
(lp351
sg17
(lp352
sg19
(lp353
sg21
I0
sba(iArchitecture
Entity
p354
(dp355
g11
(lp356
sg13
S'com.android.server.wallpaper.WallpaperManagerService$MyPackageMonitor'
p357
sg15
(lp358
sg17
(lp359
sg19
(lp360
sg21
I0
sba(iArchitecture
Entity
p361
(dp362
g11
(lp363
sg13
S'com.android.server.wallpaper.WallpaperManagerService$WallpaperConnection'
p364
sg15
(lp365
sg17
(lp366
sg19
(lp367
sg21
I0
sba(iArchitecture
Entity
p368
(dp369
g11
(lp370
sg13
S'com.android.server.wallpaper.WallpaperManagerService$WallpaperData'
p371
sg15
(lp372
sg17
(lp373
sg19
(lp374
sg21
I0
sba(iArchitecture
Entity
p375
(dp376
g11
(lp377
sg13
S'com.android.server.wallpaper.WallpaperManagerService$WallpaperObserver'
p378
sg15
(lp379
sg17
(lp380
sg19
(lp381
sg21
I0
sbasg71
(lp382
g245
ag252
ag259
ag266
ag273
ag280
ag287
ag294
ag301
ag308
ag315
ag322
ag329
ag336
ag343
ag350
ag357
ag364
ag371
ag378
asg21
I0
sg73
S'1368'
p383
sba(iArchitecture
Cluster
p384
(dp385
g7
(lp386
(iArchitecture
Entity
p387
(dp388
g11
(lp389
sg13
S'android.graphics.PorterDuffColorFilter'
p390
sg15
(lp391
sg17
(lp392
sg19
(lp393
sg21
I0
sbasg71
(lp394
g390
asg21
I0
sg73
S'168'
p395
sba(iArchitecture
Cluster
p396
(dp397
g7
(lp398
(iArchitecture
Entity
p399
(dp400
g11
(lp401
sg13
S'android.app.BroadcastOptions'
p402
sg15
(lp403
sg17
(lp404
sg19
(lp405
sg21
I0
sbasg71
(lp406
g402
asg21
I0
sg73
S'268'
p407
sba(iArchitecture
Cluster
p408
(dp409
g7
(lp410
(iArchitecture
Entity
p411
(dp412
g11
(lp413
sg13
S'android.hardware.usb.UsbConstants'
p414
sg15
(lp415
sg17
(lp416
sg19
(lp417
sg21
I0
sbasg71
(lp418
g414
asg21
I0
sg73
S'368'
p419
sba(iArchitecture
Cluster
p420
(dp421
g7
(lp422
(iArchitecture
Entity
p423
(dp424
g11
(lp425
sg13
S'android.location.Geocoder'
p426
sg15
(lp427
sg17
(lp428
sg19
(lp429
sg21
I0
sbasg71
(lp430
g426
asg21
I0
sg73
S'468'
p431
sba(iArchitecture
Cluster
p432
(dp433
g7
(lp434
(iArchitecture
Entity
p435
(dp436
g11
(lp437
sg13
S'android.telephony.ModemActivityInfo'
p438
sg15
(lp439
sg17
(lp440
sg19
(lp441
sg21
I0
sba(iArchitecture
Entity
p442
(dp443
g11
(lp444
sg13
S'android.telephony.ModemActivityInfo$1'
p445
sg15
(lp446
sg17
(lp447
sg19
(lp448
sg21
I0
sbasg71
(lp449
g438
ag445
asg21
I0
sg73
S'568'
p450
sba(iArchitecture
Cluster
p451
(dp452
g7
(lp453
(iArchitecture
Entity
p454
(dp455
g11
(lp456
sg13
S'android.net.wifi.SupplicantState'
p457
sg15
(lp458
sg17
(lp459
sg19
(lp460
sg21
I0
sba(iArchitecture
Entity
p461
(dp462
g11
(lp463
sg13
S'android.net.wifi.SupplicantState$1'
p464
sg15
(lp465
sg17
(lp466
sg19
(lp467
sg21
I0
sbasg71
(lp468
g457
ag464
asg21
I0
sg73
S'668'
p469
sba(iArchitecture
Cluster
p470
(dp471
g7
(lp472
(iArchitecture
Entity
p473
(dp474
g11
(lp475
sg13
S'android.os.SystemVibrator'
p476
sg15
(lp477
sg17
(lp478
sg19
(lp479
sg21
I0
sbasg71
(lp480
g476
asg21
I0
sg73
S'68'
p481
sba(iArchitecture
Cluster
p482
(dp483
g7
(lp484
(iArchitecture
Entity
p485
(dp486
g11
(lp487
sg13
S'android.opengl.ETC1Util'
p488
sg15
(lp489
sg17
(lp490
sg19
(lp491
sg21
I0
sba(iArchitecture
Entity
p492
(dp493
g11
(lp494
sg13
S'android.opengl.ETC1Util$ETC1Texture'
p495
sg15
(lp496
sg17
(lp497
sg19
(lp498
sg21
I0
sbasg71
(lp499
g488
ag495
asg21
I0
sg73
S'680'
p500
sba(iArchitecture
Cluster
p501
(dp502
g7
(lp503
(iArchitecture
Entity
p504
(dp505
g11
(lp506
sg13
S'com.android.server.wm.BlackFrame'
p507
sg15
(lp508
sg17
(lp509
sg19
(lp510
sg21
I0
sba(iArchitecture
Entity
p511
(dp512
g11
(lp513
sg13
S'com.android.server.wm.BlackFrame$BlackSurface'
p514
sg15
(lp515
sg17
(lp516
sg19
(lp517
sg21
I0
sbasg71
(lp518
g507
ag514
asg21
I0
sg73
S'681'
p519
sba(iArchitecture
Cluster
p520
(dp521
g7
(lp522
(iArchitecture
Entity
p523
(dp524
g11
(lp525
sg13
S'android.location.GpsClock'
p526
sg15
(lp527
sg17
(lp528
sg19
(lp529
sg21
I0
sba(iArchitecture
Entity
p530
(dp531
g11
(lp532
sg13
S'android.location.GpsClock$1'
p533
sg15
(lp534
sg17
(lp535
sg19
(lp536
sg21
I0
sbasg71
(lp537
g526
ag533
asg21
I0
sg73
S'682'
p538
sba(iArchitecture
Cluster
p539
(dp540
g7
(lp541
(iArchitecture
Entity
p542
(dp543
g11
(lp544
sg13
S'android.content.pm.PermissionInfo'
p545
sg15
(lp546
sg17
(lp547
sg19
(lp548
sg21
I0
sba(iArchitecture
Entity
p549
(dp550
g11
(lp551
sg13
S'android.content.pm.PermissionInfo$1'
p552
sg15
(lp553
sg17
(lp554
sg19
(lp555
sg21
I0
sbasg71
(lp556
g545
ag552
asg21
I0
sg73
S'683'
p557
sba(iArchitecture
Cluster
p558
(dp559
g7
(lp560
(iArchitecture
Entity
p561
(dp562
g11
(lp563
sg13
S'android.telephony.CellInfoWcdma'
p564
sg15
(lp565
sg17
(lp566
sg19
(lp567
sg21
I0
sba(iArchitecture
Entity
p568
(dp569
g11
(lp570
sg13
S'android.telephony.CellInfoWcdma$1'
p571
sg15
(lp572
sg17
(lp573
sg19
(lp574
sg21
I0
sbasg71
(lp575
g564
ag571
asg21
I0
sg73
S'684'
p576
sba(iArchitecture
Cluster
p577
(dp578
g7
(lp579
(iArchitecture
Entity
p580
(dp581
g11
(lp582
sg13
S'android.service.notification.NotificationRankingUpdate'
p583
sg15
(lp584
sg17
(lp585
sg19
(lp586
sg21
I0
sba(iArchitecture
Entity
p587
(dp588
g11
(lp589
sg13
S'android.service.notification.NotificationRankingUpdate$1'
p590
sg15
(lp591
sg17
(lp592
sg19
(lp593
sg21
I0
sbasg71
(lp594
g583
ag590
asg21
I0
sg73
S'685'
p595
sba(iArchitecture
Cluster
p596
(dp597
g7
(lp598
(iArchitecture
Entity
p599
(dp600
g11
(lp601
sg13
S'android.telephony.ServiceState'
p602
sg15
(lp603
sg17
(lp604
sg19
(lp605
sg21
I0
sba(iArchitecture
Entity
p606
(dp607
g11
(lp608
sg13
S'android.telephony.ServiceState$1'
p609
sg15
(lp610
sg17
(lp611
sg19
(lp612
sg21
I0
sbasg71
(lp613
g602
ag609
asg21
I0
sg73
S'686'
p614
sba(iArchitecture
Cluster
p615
(dp616
g7
(lp617
(iArchitecture
Entity
p618
(dp619
g11
(lp620
sg13
S'com.android.server.LockSettingsStrongAuth'
p621
sg15
(lp622
sg17
(lp623
sg19
(lp624
sg21
I0
sba(iArchitecture
Entity
p625
(dp626
g11
(lp627
sg13
S'com.android.server.LockSettingsStrongAuth$1'
p628
sg15
(lp629
sg17
(lp630
sg19
(lp631
sg21
I0
sbasg71
(lp632
g621
ag628
asg21
I0
sg73
S'687'
p633
sba(iArchitecture
Cluster
p634
(dp635
g7
(lp636
(iArchitecture
Entity
p637
(dp638
g11
(lp639
sg13
S'android.mtp.MtpEvent'
p640
sg15
(lp641
sg17
(lp642
sg19
(lp643
sg21
I0
sba(iArchitecture
Entity
p644
(dp645
g11
(lp646
sg13
S'android.mtp.MtpEvent$IllegalParameterAccess'
p647
sg15
(lp648
sg17
(lp649
sg19
(lp650
sg21
I0
sbasg71
(lp651
g640
ag647
asg21
I0
sg73
S'688'
p652
sba(iArchitecture
Cluster
p653
(dp654
g7
(lp655
(iArchitecture
Entity
p656
(dp657
g11
(lp658
sg13
S'android.app.LocalActivityManager'
p659
sg15
(lp660
sg17
(lp661
sg19
(lp662
sg21
I0
sba(iArchitecture
Entity
p663
(dp664
g11
(lp665
sg13
S'android.app.LocalActivityManager$LocalActivityRecord'
p666
sg15
(lp667
sg17
(lp668
sg19
(lp669
sg21
I0
sbasg71
(lp670
g659
ag666
asg21
I0
sg73
S'689'
p671
sba(iArchitecture
Cluster
p672
(dp673
g7
(lp674
(iArchitecture
Entity
p675
(dp676
g11
(lp677
sg13
S'com.android.server.search.Searchables'
p678
sg15
(lp679
sg17
(lp680
sg19
(lp681
sg21
I0
sba(iArchitecture
Entity
p682
(dp683
g11
(lp684
sg13
S'com.android.server.search.Searchables$1'
p685
sg15
(lp686
sg17
(lp687
sg19
(lp688
sg21
I0
sbasg71
(lp689
g678
ag685
asg21
I0
sg73
S'768'
p690
sba(iArchitecture
Cluster
p691
(dp692
g7
(lp693
(iArchitecture
Entity
p694
(dp695
g11
(lp696
sg13
S'android.media.MediaDescription'
p697
sg15
(lp698
sg17
(lp699
sg19
(lp700
sg21
I0
sba(iArchitecture
Entity
p701
(dp702
g11
(lp703
sg13
S'android.media.MediaDescription$1'
p704
sg15
(lp705
sg17
(lp706
sg19
(lp707
sg21
I0
sba(iArchitecture
Entity
p708
(dp709
g11
(lp710
sg13
S'android.media.MediaDescription$Builder'
p711
sg15
(lp712
sg17
(lp713
sg19
(lp714
sg21
I0
sbasg71
(lp715
g697
ag704
ag711
asg21
I0
sg73
S'868'
p716
sba(iArchitecture
Cluster
p717
(dp718
g7
(lp719
(iArchitecture
Entity
p720
(dp721
g11
(lp722
sg13
S'com.android.server.pm.PermissionsState'
p723
sg15
(lp724
sg17
(lp725
sg19
(lp726
sg21
I0
sba(iArchitecture
Entity
p727
(dp728
g11
(lp729
sg13
S'com.android.server.pm.PermissionsState$PermissionData'
p730
sg15
(lp731
sg17
(lp732
sg19
(lp733
sg21
I0
sba(iArchitecture
Entity
p734
(dp735
g11
(lp736
sg13
S'com.android.server.pm.PermissionsState$PermissionState'
p737
sg15
(lp738
sg17
(lp739
sg19
(lp740
sg21
I0
sbasg71
(lp741
g723
ag730
ag737
asg21
I0
sg73
S'968'
p742
sbasS'target_sub'
p743
S'68'
p744
sg71
(lp745
sS'is_component_arch'
p746
I01
sg73
S'7.0.0_r1'
p747
sba.