(lp0
(iArchitecture
Architecture
p1
(dp2
S'clusters'
p3
(lp4
(iArchitecture
Cluster
p5
(dp6
S'entities'
p7
(lp8
(iArchitecture
Entity
p9
(dp10
S'issue_ids'
p11
(lp12
sS'name'
p13
S'com.android.server.usb.UsbSettingsManager'
p14
sS'descs'
p15
(lp16
sS'labels'
p17
(lp18
sS'titles'
p19
(lp20
sS'change'
p21
I0
sba(iArchitecture
Entity
p22
(dp23
g11
(lp24
sg13
S'com.android.server.usb.UsbSettingsManager$1'
p25
sg15
(lp26
sg17
(lp27
sg19
(lp28
sg21
I0
sba(iArchitecture
Entity
p29
(dp30
g11
(lp31
sg13
S'com.android.server.usb.UsbSettingsManager$AccessoryFilter'
p32
sg15
(lp33
sg17
(lp34
sg19
(lp35
sg21
I0
sba(iArchitecture
Entity
p36
(dp37
g11
(lp38
sg13
S'com.android.server.usb.UsbSettingsManager$DeviceFilter'
p39
sg15
(lp40
sg17
(lp41
sg19
(lp42
sg21
I0
sba(iArchitecture
Entity
p43
(dp44
g11
(lp45
sg13
S'com.android.server.usb.UsbSettingsManager$MyPackageMonitor'
p46
sg15
(lp47
sg17
(lp48
sg19
(lp49
sg21
I0
sbasS'classes'
p50
(lp51
g14
ag25
ag32
ag39
ag46
asg21
I0
sS'label'
p52
S'1041'
p53
sba(iArchitecture
Cluster
p54
(dp55
g7
(lp56
(iArchitecture
Entity
p57
(dp58
g11
(lp59
sg13
S'android.renderscript.Mesh'
p60
sg15
(lp61
sg17
(lp62
sg19
(lp63
sg21
I0
sba(iArchitecture
Entity
p64
(dp65
g11
(lp66
sg13
S'android.renderscript.Mesh$AllocationBuilder'
p67
sg15
(lp68
sg17
(lp69
sg19
(lp70
sg21
I0
sba(iArchitecture
Entity
p71
(dp72
g11
(lp73
sg13
S'android.renderscript.Mesh$AllocationBuilder$Entry'
p74
sg15
(lp75
sg17
(lp76
sg19
(lp77
sg21
I0
sba(iArchitecture
Entity
p78
(dp79
g11
(lp80
sg13
S'android.renderscript.Mesh$Builder'
p81
sg15
(lp82
sg17
(lp83
sg19
(lp84
sg21
I0
sba(iArchitecture
Entity
p85
(dp86
g11
(lp87
sg13
S'android.renderscript.Mesh$Builder$Entry'
p88
sg15
(lp89
sg17
(lp90
sg19
(lp91
sg21
I0
sba(iArchitecture
Entity
p92
(dp93
g11
(lp94
sg13
S'android.renderscript.Mesh$Primitive'
p95
sg15
(lp96
sg17
(lp97
sg19
(lp98
sg21
I0
sba(iArchitecture
Entity
p99
(dp100
g11
(lp101
sg13
S'android.renderscript.Mesh$TriangleMeshBuilder'
p102
sg15
(lp103
sg17
(lp104
sg19
(lp105
sg21
I0
sbasg50
(lp106
g60
ag67
ag74
ag81
ag88
ag95
ag102
asg21
I0
sg52
S'1141'
p107
sba(iArchitecture
Cluster
p108
(dp109
g7
(lp110
(iArchitecture
Entity
p111
(dp112
g11
(lp113
sg13
S'android.hardware.camera2.legacy.SizeAreaComparator'
p114
sg15
(lp115
sg17
(lp116
sg19
(lp117
sg21
I0
sba(iArchitecture
Entity
p118
(dp119
g11
(lp120
sg13
S'android.hardware.camera2.utils.SizeAreaComparator'
p121
sg15
(lp122
sg17
(lp123
sg19
(lp124
sg21
I0
sbasg50
(lp125
g114
ag121
asg21
I0
sg52
S'1241'
p126
sba(iArchitecture
Cluster
p127
(dp128
g7
(lp129
(iArchitecture
Entity
p130
(dp131
g11
(lp132
sg13
S'android.content.SyncAdapterType'
p133
sg15
(lp134
sg17
(lp135
sg19
(lp136
sg21
I0
sba(iArchitecture
Entity
p137
(dp138
g11
(lp139
sg13
S'android.content.SyncAdapterType$1'
p140
sg15
(lp141
sg17
(lp142
sg19
(lp143
sg21
I0
sba(iArchitecture
Entity
p144
(dp145
g11
(lp146
sg13
S'android.content.SyncAdaptersCache'
p147
sg15
(lp148
sg17
(lp149
sg19
(lp150
sg21
I0
sba(iArchitecture
Entity
p151
(dp152
g11
(lp153
sg13
S'android.content.SyncAdaptersCache$MySerializer'
p154
sg15
(lp155
sg17
(lp156
sg19
(lp157
sg21
I0
sbasg50
(lp158
g133
ag140
ag147
ag154
asg21
I0
sg52
S'1341'
p159
sba(iArchitecture
Cluster
p160
(dp161
g7
(lp162
(iArchitecture
Entity
p163
(dp164
g11
(lp165
sg13
S'com.android.internal.telephony.RILConstants'
p166
sg15
(lp167
sg17
(lp168
sg19
(lp169
sg21
I0
sbasg50
(lp170
g166
asg21
I0
sg52
S'141'
p171
sba(iArchitecture
Cluster
p172
(dp173
g7
(lp174
(iArchitecture
Entity
p175
(dp176
g11
(lp177
sg13
S'android.media.soundtrigger.SoundTriggerManager'
p178
sg15
(lp179
sg17
(lp180
sg19
(lp181
sg21
I0
sba(iArchitecture
Entity
p182
(dp183
g11
(lp184
sg13
S'android.media.soundtrigger.SoundTriggerManager$Model'
p185
sg15
(lp186
sg17
(lp187
sg19
(lp188
sg21
I0
sba(iArchitecture
Entity
p189
(dp190
g11
(lp191
sg13
S'com.android.server.soundtrigger.SoundTriggerService'
p192
sg15
(lp193
sg17
(lp194
sg19
(lp195
sg21
I0
sba(iArchitecture
Entity
p196
(dp197
g11
(lp198
sg13
S'com.android.server.soundtrigger.SoundTriggerService$LocalSoundTriggerService'
p199
sg15
(lp200
sg17
(lp201
sg19
(lp202
sg21
I0
sba(iArchitecture
Entity
p203
(dp204
g11
(lp205
sg13
S'com.android.server.soundtrigger.SoundTriggerService$SoundTriggerServiceStub'
p206
sg15
(lp207
sg17
(lp208
sg19
(lp209
sg21
I0
sbasg50
(lp210
g178
ag185
ag192
ag199
ag206
asg21
I0
sg52
S'1410'
p211
sba(iArchitecture
Cluster
p212
(dp213
g7
(lp214
(iArchitecture
Entity
p215
(dp216
g11
(lp217
sg13
S'android.text.Editable'
p218
sg15
(lp219
sg17
(lp220
sg19
(lp221
sg21
I0
sba(iArchitecture
Entity
p222
(dp223
g11
(lp224
sg13
S'android.text.Editable$Factory'
p225
sg15
(lp226
sg17
(lp227
sg19
(lp228
sg21
I0
sba(iArchitecture
Entity
p229
(dp230
g11
(lp231
sg13
S'android.transition.Rotate'
p232
sg15
(lp233
sg17
(lp234
sg19
(lp235
sg21
I0
sba(iArchitecture
Entity
p236
(dp237
g11
(lp238
sg13
S'android.view.ViewGroupOverlay'
p239
sg15
(lp240
sg17
(lp241
sg19
(lp242
sg21
I0
sba(iArchitecture
Entity
p243
(dp244
g11
(lp245
sg13
S'android.webkit.WebViewFragment'
p246
sg15
(lp247
sg17
(lp248
sg19
(lp249
sg21
I0
sba(iArchitecture
Entity
p250
(dp251
g11
(lp252
sg13
S'android.webkit.WebViewProviderResponse'
p253
sg15
(lp254
sg17
(lp255
sg19
(lp256
sg21
I0
sba(iArchitecture
Entity
p257
(dp258
g11
(lp259
sg13
S'android.webkit.WebViewProviderResponse$1'
p260
sg15
(lp261
sg17
(lp262
sg19
(lp263
sg21
I0
sba(iArchitecture
Entity
p264
(dp265
g11
(lp266
sg13
S'android.widget.BaseExpandableListAdapter'
p267
sg15
(lp268
sg17
(lp269
sg19
(lp270
sg21
I0
sba(iArchitecture
Entity
p271
(dp272
g11
(lp273
sg13
S'android.widget.HeterogeneousExpandableList'
p274
sg15
(lp275
sg17
(lp276
sg19
(lp277
sg21
I0
sba(iArchitecture
Entity
p278
(dp279
g11
(lp280
sg13
S'android.widget.ImageSwitcher'
p281
sg15
(lp282
sg17
(lp283
sg19
(lp284
sg21
I0
sba(iArchitecture
Entity
p285
(dp286
g11
(lp287
sg13
S'android.widget.TextSwitcher'
p288
sg15
(lp289
sg17
(lp290
sg19
(lp291
sg21
I0
sba(iArchitecture
Entity
p292
(dp293
g11
(lp294
sg13
S'android.widget.ViewSwitcher'
p295
sg15
(lp296
sg17
(lp297
sg19
(lp298
sg21
I0
sba(iArchitecture
Entity
p299
(dp300
g11
(lp301
sg13
S'android.widget.ViewSwitcher$ViewFactory'
p302
sg15
(lp303
sg17
(lp304
sg19
(lp305
sg21
I0
sba(iArchitecture
Entity
p306
(dp307
g11
(lp308
sg13
S'com.android.internal.app.NavItemSelectedListener'
p309
sg15
(lp310
sg17
(lp311
sg19
(lp312
sg21
I0
sbasg50
(lp313
g218
ag225
ag232
ag239
ag246
ag253
ag260
ag267
ag274
ag281
ag288
ag295
ag302
ag309
asg21
I0
sg52
S'1411'
p314
sba(iArchitecture
Cluster
p315
(dp316
g7
(lp317
(iArchitecture
Entity
p318
(dp319
g11
(lp320
sg13
S'android.view.ActionProvider'
p321
sg15
(lp322
sg17
(lp323
sg19
(lp324
sg21
I0
sba(iArchitecture
Entity
p325
(dp326
g11
(lp327
sg13
S'android.view.ActionProvider$SubUiVisibilityListener'
p328
sg15
(lp329
sg17
(lp330
sg19
(lp331
sg21
I0
sba(iArchitecture
Entity
p332
(dp333
g11
(lp334
sg13
S'android.view.ActionProvider$VisibilityListener'
p335
sg15
(lp336
sg17
(lp337
sg19
(lp338
sg21
I0
sba(iArchitecture
Entity
p339
(dp340
g11
(lp341
sg13
S'android.widget.CursorAdapter'
p342
sg15
(lp343
sg17
(lp344
sg19
(lp345
sg21
I0
sba(iArchitecture
Entity
p346
(dp347
g11
(lp348
sg13
S'android.widget.CursorAdapter$ChangeObserver'
p349
sg15
(lp350
sg17
(lp351
sg19
(lp352
sg21
I0
sba(iArchitecture
Entity
p353
(dp354
g11
(lp355
sg13
S'android.widget.CursorAdapter$MyDataSetObserver'
p356
sg15
(lp357
sg17
(lp358
sg19
(lp359
sg21
I0
sba(iArchitecture
Entity
p360
(dp361
g11
(lp362
sg13
S'android.widget.CursorTreeAdapter'
p363
sg15
(lp364
sg17
(lp365
sg19
(lp366
sg21
I0
sba(iArchitecture
Entity
p367
(dp368
g11
(lp369
sg13
S'android.widget.CursorTreeAdapter$MyCursorHelper'
p370
sg15
(lp371
sg17
(lp372
sg19
(lp373
sg21
I0
sba(iArchitecture
Entity
p374
(dp375
g11
(lp376
sg13
S'android.widget.CursorTreeAdapter$MyCursorHelper$MyContentObserver'
p377
sg15
(lp378
sg17
(lp379
sg19
(lp380
sg21
I0
sba(iArchitecture
Entity
p381
(dp382
g11
(lp383
sg13
S'android.widget.CursorTreeAdapter$MyCursorHelper$MyDataSetObserver'
p384
sg15
(lp385
sg17
(lp386
sg19
(lp387
sg21
I0
sba(iArchitecture
Entity
p388
(dp389
g11
(lp390
sg13
S'android.widget.SimpleCursorAdapter'
p391
sg15
(lp392
sg17
(lp393
sg19
(lp394
sg21
I0
sba(iArchitecture
Entity
p395
(dp396
g11
(lp397
sg13
S'android.widget.SimpleCursorAdapter$CursorToStringConverter'
p398
sg15
(lp399
sg17
(lp400
sg19
(lp401
sg21
I0
sba(iArchitecture
Entity
p402
(dp403
g11
(lp404
sg13
S'android.widget.SimpleCursorAdapter$ViewBinder'
p405
sg15
(lp406
sg17
(lp407
sg19
(lp408
sg21
I0
sbasg50
(lp409
g321
ag328
ag335
ag342
ag349
ag356
ag363
ag370
ag377
ag384
ag391
ag398
ag405
asg21
I0
sg52
S'1412'
p410
sba(iArchitecture
Cluster
p411
(dp412
g7
(lp413
(iArchitecture
Entity
p414
(dp415
g11
(lp416
sg13
S'android.view.inputmethod.SparseRectFArray'
p417
sg15
(lp418
sg17
(lp419
sg19
(lp420
sg21
I0
sba(iArchitecture
Entity
p421
(dp422
g11
(lp423
sg13
S'android.view.inputmethod.SparseRectFArray$1'
p424
sg15
(lp425
sg17
(lp426
sg19
(lp427
sg21
I0
sba(iArchitecture
Entity
p428
(dp429
g11
(lp430
sg13
S'android.view.inputmethod.SparseRectFArray$SparseRectFArrayBuilder'
p431
sg15
(lp432
sg17
(lp433
sg19
(lp434
sg21
I0
sba(iArchitecture
Entity
p435
(dp436
g11
(lp437
sg13
S'com.android.server.policy.GlobalKeyManager'
p438
sg15
(lp439
sg17
(lp440
sg19
(lp441
sg21
I0
sbasg50
(lp442
g417
ag424
ag431
ag438
asg21
I0
sg52
S'1413'
p443
sba(iArchitecture
Cluster
p444
(dp445
g7
(lp446
(iArchitecture
Entity
p447
(dp448
g11
(lp449
sg13
S'android.accounts.AccountAuthenticatorActivity'
p450
sg15
(lp451
sg17
(lp452
sg19
(lp453
sg21
I0
sba(iArchitecture
Entity
p454
(dp455
g11
(lp456
sg13
S'android.accounts.AccountAuthenticatorResponse'
p457
sg15
(lp458
sg17
(lp459
sg19
(lp460
sg21
I0
sba(iArchitecture
Entity
p461
(dp462
g11
(lp463
sg13
S'android.accounts.AccountAuthenticatorResponse$1'
p464
sg15
(lp465
sg17
(lp466
sg19
(lp467
sg21
I0
sba(iArchitecture
Entity
p468
(dp469
g11
(lp470
sg13
S'android.telecom.AuthenticatorService'
p471
sg15
(lp472
sg17
(lp473
sg19
(lp474
sg21
I0
sba(iArchitecture
Entity
p475
(dp476
g11
(lp477
sg13
S'android.telecom.AuthenticatorService$Authenticator'
p478
sg15
(lp479
sg17
(lp480
sg19
(lp481
sg21
I0
sba(iArchitecture
Entity
p482
(dp483
g11
(lp484
sg13
S'com.android.internal.widget.VerifyCredentialResponse'
p485
sg15
(lp486
sg17
(lp487
sg19
(lp488
sg21
I0
sba(iArchitecture
Entity
p489
(dp490
g11
(lp491
sg13
S'com.android.internal.widget.VerifyCredentialResponse$1'
p492
sg15
(lp493
sg17
(lp494
sg19
(lp495
sg21
I0
sbasg50
(lp496
g450
ag457
ag464
ag471
ag478
ag485
ag492
asg21
I0
sg52
S'1414'
p497
sba(iArchitecture
Cluster
p498
(dp499
g7
(lp500
(iArchitecture
Entity
p501
(dp502
g11
(lp503
sg13
S'android.widget.CalendarViewMaterialDelegate'
p504
sg15
(lp505
sg17
(lp506
sg19
(lp507
sg21
I0
sba(iArchitecture
Entity
p508
(dp509
g11
(lp510
sg13
S'android.widget.CalendarViewMaterialDelegate$1'
p511
sg15
(lp512
sg17
(lp513
sg19
(lp514
sg21
I0
sba(iArchitecture
Entity
p515
(dp516
g11
(lp517
sg13
S'android.widget.DayPickerPagerAdapter'
p518
sg15
(lp519
sg17
(lp520
sg19
(lp521
sg21
I0
sba(iArchitecture
Entity
p522
(dp523
g11
(lp524
sg13
S'android.widget.DayPickerPagerAdapter$1'
p525
sg15
(lp526
sg17
(lp527
sg19
(lp528
sg21
I0
sba(iArchitecture
Entity
p529
(dp530
g11
(lp531
sg13
S'android.widget.DayPickerPagerAdapter$OnDaySelectedListener'
p532
sg15
(lp533
sg17
(lp534
sg19
(lp535
sg21
I0
sba(iArchitecture
Entity
p536
(dp537
g11
(lp538
sg13
S'android.widget.DayPickerPagerAdapter$ViewHolder'
p539
sg15
(lp540
sg17
(lp541
sg19
(lp542
sg21
I0
sbasg50
(lp543
g504
ag511
ag518
ag525
ag532
ag539
asg21
I0
sg52
S'1415'
p544
sba(iArchitecture
Cluster
p545
(dp546
g7
(lp547
(iArchitecture
Entity
p548
(dp549
g11
(lp550
sg13
S'android.database.sqlite.SQLiteDebug'
p551
sg15
(lp552
sg17
(lp553
sg19
(lp554
sg21
I0
sba(iArchitecture
Entity
p555
(dp556
g11
(lp557
sg13
S'android.database.sqlite.SQLiteDebug$DbStats'
p558
sg15
(lp559
sg17
(lp560
sg19
(lp561
sg21
I0
sba(iArchitecture
Entity
p562
(dp563
g11
(lp564
sg13
S'android.database.sqlite.SQLiteDebug$PagerStats'
p565
sg15
(lp566
sg17
(lp567
sg19
(lp568
sg21
I0
sba(iArchitecture
Entity
p569
(dp570
g11
(lp571
sg13
S'android.drm.DrmUtils'
p572
sg15
(lp573
sg17
(lp574
sg19
(lp575
sg21
I0
sba(iArchitecture
Entity
p576
(dp577
g11
(lp578
sg13
S'android.drm.DrmUtils$ExtendedMetadataParser'
p579
sg15
(lp580
sg17
(lp581
sg19
(lp582
sg21
I0
sba(iArchitecture
Entity
p583
(dp584
g11
(lp585
sg13
S'android.filterfw.core.KeyValueMap'
p586
sg15
(lp587
sg17
(lp588
sg19
(lp589
sg21
I0
sba(iArchitecture
Entity
p590
(dp591
g11
(lp592
sg13
S'android.hardware.camera2.impl.CaptureResultExtras'
p593
sg15
(lp594
sg17
(lp595
sg19
(lp596
sg21
I0
sba(iArchitecture
Entity
p597
(dp598
g11
(lp599
sg13
S'android.hardware.camera2.impl.CaptureResultExtras$1'
p600
sg15
(lp601
sg17
(lp602
sg19
(lp603
sg21
I0
sba(iArchitecture
Entity
p604
(dp605
g11
(lp606
sg13
S'android.hardware.camera2.marshal.impl.MarshalQueryableStreamConfiguration'
p607
sg15
(lp608
sg17
(lp609
sg19
(lp610
sg21
I0
sba(iArchitecture
Entity
p611
(dp612
g11
(lp613
sg13
S'android.hardware.camera2.marshal.impl.MarshalQueryableStreamConfiguration$MarshalerStreamConfiguration'
p614
sg15
(lp615
sg17
(lp616
sg19
(lp617
sg21
I0
sba(iArchitecture
Entity
p618
(dp619
g11
(lp620
sg13
S'android.hardware.camera2.marshal.impl.MarshalQueryableStreamConfigurationDuration'
p621
sg15
(lp622
sg17
(lp623
sg19
(lp624
sg21
I0
sba(iArchitecture
Entity
p625
(dp626
g11
(lp627
sg13
S'android.hardware.camera2.marshal.impl.MarshalQueryableStreamConfigurationDuration$MarshalerStreamConfigurationDuration'
p628
sg15
(lp629
sg17
(lp630
sg19
(lp631
sg21
I0
sba(iArchitecture
Entity
p632
(dp633
g11
(lp634
sg13
S'android.media.midi.MidiDevice'
p635
sg15
(lp636
sg17
(lp637
sg19
(lp638
sg21
I0
sba(iArchitecture
Entity
p639
(dp640
g11
(lp641
sg13
S'android.media.midi.MidiDevice$MidiConnection'
p642
sg15
(lp643
sg17
(lp644
sg19
(lp645
sg21
I0
sba(iArchitecture
Entity
p646
(dp647
g11
(lp648
sg13
S'android.media.midi.MidiDeviceInfo'
p649
sg15
(lp650
sg17
(lp651
sg19
(lp652
sg21
I0
sba(iArchitecture
Entity
p653
(dp654
g11
(lp655
sg13
S'android.media.midi.MidiDeviceInfo$1'
p656
sg15
(lp657
sg17
(lp658
sg19
(lp659
sg21
I0
sba(iArchitecture
Entity
p660
(dp661
g11
(lp662
sg13
S'android.media.midi.MidiDeviceInfo$PortInfo'
p663
sg15
(lp664
sg17
(lp665
sg19
(lp666
sg21
I0
sba(iArchitecture
Entity
p667
(dp668
g11
(lp669
sg13
S'android.media.midi.MidiDeviceServer'
p670
sg15
(lp671
sg17
(lp672
sg19
(lp673
sg21
I0
sba(iArchitecture
Entity
p674
(dp675
g11
(lp676
sg13
S'android.media.midi.MidiDeviceServer$1'
p677
sg15
(lp678
sg17
(lp679
sg19
(lp680
sg21
I0
sba(iArchitecture
Entity
p681
(dp682
g11
(lp683
sg13
S'android.media.midi.MidiDeviceServer$Callback'
p684
sg15
(lp685
sg17
(lp686
sg19
(lp687
sg21
I0
sba(iArchitecture
Entity
p688
(dp689
g11
(lp690
sg13
S'android.media.midi.MidiDeviceServer$InputPortClient'
p691
sg15
(lp692
sg17
(lp693
sg19
(lp694
sg21
I0
sba(iArchitecture
Entity
p695
(dp696
g11
(lp697
sg13
S'android.media.midi.MidiDeviceServer$OutputPortClient'
p698
sg15
(lp699
sg17
(lp700
sg19
(lp701
sg21
I0
sba(iArchitecture
Entity
p702
(dp703
g11
(lp704
sg13
S'android.media.midi.MidiDeviceServer$PortClient'
p705
sg15
(lp706
sg17
(lp707
sg19
(lp708
sg21
I0
sba(iArchitecture
Entity
p709
(dp710
g11
(lp711
sg13
S'android.media.midi.MidiDeviceService'
p712
sg15
(lp713
sg17
(lp714
sg19
(lp715
sg21
I0
sba(iArchitecture
Entity
p716
(dp717
g11
(lp718
sg13
S'android.media.midi.MidiDeviceService$1'
p719
sg15
(lp720
sg17
(lp721
sg19
(lp722
sg21
I0
sba(iArchitecture
Entity
p723
(dp724
g11
(lp725
sg13
S'android.media.midi.MidiDeviceStatus'
p726
sg15
(lp727
sg17
(lp728
sg19
(lp729
sg21
I0
sba(iArchitecture
Entity
p730
(dp731
g11
(lp732
sg13
S'android.media.midi.MidiDeviceStatus$1'
p733
sg15
(lp734
sg17
(lp735
sg19
(lp736
sg21
I0
sba(iArchitecture
Entity
p737
(dp738
g11
(lp739
sg13
S'android.security.SystemKeyStore'
p740
sg15
(lp741
sg17
(lp742
sg19
(lp743
sg21
I0
sba(iArchitecture
Entity
p744
(dp745
g11
(lp746
sg13
S'android.view.inputmethod.ExtractedText'
p747
sg15
(lp748
sg17
(lp749
sg19
(lp750
sg21
I0
sba(iArchitecture
Entity
p751
(dp752
g11
(lp753
sg13
S'android.view.inputmethod.ExtractedText$1'
p754
sg15
(lp755
sg17
(lp756
sg19
(lp757
sg21
I0
sba(iArchitecture
Entity
p758
(dp759
g11
(lp760
sg13
S'android.webkit.CacheManager'
p761
sg15
(lp762
sg17
(lp763
sg19
(lp764
sg21
I0
sba(iArchitecture
Entity
p765
(dp766
g11
(lp767
sg13
S'android.webkit.CacheManager$CacheResult'
p768
sg15
(lp769
sg17
(lp770
sg19
(lp771
sg21
I0
sba(iArchitecture
Entity
p772
(dp773
g11
(lp774
sg13
S'com.android.internal.midi.MidiEventScheduler'
p775
sg15
(lp776
sg17
(lp777
sg19
(lp778
sg21
I0
sba(iArchitecture
Entity
p779
(dp780
g11
(lp781
sg13
S'com.android.internal.midi.MidiEventScheduler$MidiEvent'
p782
sg15
(lp783
sg17
(lp784
sg19
(lp785
sg21
I0
sba(iArchitecture
Entity
p786
(dp787
g11
(lp788
sg13
S'com.android.internal.midi.MidiEventScheduler$SchedulingReceiver'
p789
sg15
(lp790
sg17
(lp791
sg19
(lp792
sg21
I0
sba(iArchitecture
Entity
p793
(dp794
g11
(lp795
sg13
S'com.android.internal.midi.MidiFramer'
p796
sg15
(lp797
sg17
(lp798
sg19
(lp799
sg21
I0
sba(iArchitecture
Entity
p800
(dp801
g11
(lp802
sg13
S'com.android.internal.statusbar.NotificationVisibility'
p803
sg15
(lp804
sg17
(lp805
sg19
(lp806
sg21
I0
sba(iArchitecture
Entity
p807
(dp808
g11
(lp809
sg13
S'com.android.internal.statusbar.NotificationVisibility$1'
p810
sg15
(lp811
sg17
(lp812
sg19
(lp813
sg21
I0
sba(iArchitecture
Entity
p814
(dp815
g11
(lp816
sg13
S'com.android.server.hdmi.ActiveSourceHandler'
p817
sg15
(lp818
sg17
(lp819
sg19
(lp820
sg21
I0
sba(iArchitecture
Entity
p821
(dp822
g11
(lp823
sg13
S'com.android.server.hdmi.SelectRequestBuffer'
p824
sg15
(lp825
sg17
(lp826
sg19
(lp827
sg21
I0
sba(iArchitecture
Entity
p828
(dp829
g11
(lp830
sg13
S'com.android.server.hdmi.SelectRequestBuffer$1'
p831
sg15
(lp832
sg17
(lp833
sg19
(lp834
sg21
I0
sba(iArchitecture
Entity
p835
(dp836
g11
(lp837
sg13
S'com.android.server.hdmi.SelectRequestBuffer$DeviceSelectRequest'
p838
sg15
(lp839
sg17
(lp840
sg19
(lp841
sg21
I0
sba(iArchitecture
Entity
p842
(dp843
g11
(lp844
sg13
S'com.android.server.hdmi.SelectRequestBuffer$PortSelectRequest'
p845
sg15
(lp846
sg17
(lp847
sg19
(lp848
sg21
I0
sba(iArchitecture
Entity
p849
(dp850
g11
(lp851
sg13
S'com.android.server.hdmi.SelectRequestBuffer$SelectRequest'
p852
sg15
(lp853
sg17
(lp854
sg19
(lp855
sg21
I0
sba(iArchitecture
Entity
p856
(dp857
g11
(lp858
sg13
S'com.android.server.usb.UsbMidiDevice'
p859
sg15
(lp860
sg17
(lp861
sg19
(lp862
sg21
I0
sba(iArchitecture
Entity
p863
(dp864
g11
(lp865
sg13
S'com.android.server.usb.UsbMidiDevice$1'
p866
sg15
(lp867
sg17
(lp868
sg19
(lp869
sg21
I0
sba(iArchitecture
Entity
p870
(dp871
g11
(lp872
sg13
S'com.android.server.usb.UsbMidiDevice$2'
p873
sg15
(lp874
sg17
(lp875
sg19
(lp876
sg21
I0
sba(iArchitecture
Entity
p877
(dp878
g11
(lp879
sg13
S'com.android.server.usb.UsbMidiDevice$3'
p880
sg15
(lp881
sg17
(lp882
sg19
(lp883
sg21
I0
sba(iArchitecture
Entity
p884
(dp885
g11
(lp886
sg13
S'com.android.server.usb.UsbMidiDevice$InputReceiverProxy'
p887
sg15
(lp888
sg17
(lp889
sg19
(lp890
sg21
I0
sbasg50
(lp891
g551
ag558
ag565
ag572
ag579
ag586
ag593
ag600
ag607
ag614
ag621
ag628
ag635
ag642
ag649
ag656
ag663
ag670
ag677
ag684
ag691
ag698
ag705
ag712
ag719
ag726
ag733
ag740
ag747
ag754
ag761
ag768
ag775
ag782
ag789
ag796
ag803
ag810
ag817
ag824
ag831
ag838
ag845
ag852
ag859
ag866
ag873
ag880
ag887
asg21
I0
sg52
S'1416'
p892
sba(iArchitecture
Cluster
p893
(dp894
g7
(lp895
(iArchitecture
Entity
p896
(dp897
g11
(lp898
sg13
S'android.telephony.CellSignalStrengthCdma'
p899
sg15
(lp900
sg17
(lp901
sg19
(lp902
sg21
I0
sba(iArchitecture
Entity
p903
(dp904
g11
(lp905
sg13
S'android.telephony.CellSignalStrengthCdma$1'
p906
sg15
(lp907
sg17
(lp908
sg19
(lp909
sg21
I0
sba(iArchitecture
Entity
p910
(dp911
g11
(lp912
sg13
S'android.telephony.CellSignalStrengthLte'
p913
sg15
(lp914
sg17
(lp915
sg19
(lp916
sg21
I0
sba(iArchitecture
Entity
p917
(dp918
g11
(lp919
sg13
S'android.telephony.CellSignalStrengthLte$1'
p920
sg15
(lp921
sg17
(lp922
sg19
(lp923
sg21
I0
sba(iArchitecture
Entity
p924
(dp925
g11
(lp926
sg13
S'android.telephony.SignalStrength'
p927
sg15
(lp928
sg17
(lp929
sg19
(lp930
sg21
I0
sba(iArchitecture
Entity
p931
(dp932
g11
(lp933
sg13
S'android.telephony.SignalStrength$1'
p934
sg15
(lp935
sg17
(lp936
sg19
(lp937
sg21
I0
sbasg50
(lp938
g899
ag906
ag913
ag920
ag927
ag934
asg21
I0
sg52
S'1417'
p939
sba(iArchitecture
Cluster
p940
(dp941
g7
(lp942
(iArchitecture
Entity
p943
(dp944
g11
(lp945
sg13
S'com.android.internal.net.VpnProfile'
p946
sg15
(lp947
sg17
(lp948
sg19
(lp949
sg21
I0
sba(iArchitecture
Entity
p950
(dp951
g11
(lp952
sg13
S'com.android.internal.net.VpnProfile$1'
p953
sg15
(lp954
sg17
(lp955
sg19
(lp956
sg21
I0
sba(iArchitecture
Entity
p957
(dp958
g11
(lp959
sg13
S'com.android.server.am.NativeCrashListener'
p960
sg15
(lp961
sg17
(lp962
sg19
(lp963
sg21
I0
sba(iArchitecture
Entity
p964
(dp965
g11
(lp966
sg13
S'com.android.server.am.NativeCrashListener$NativeCrashReporter'
p967
sg15
(lp968
sg17
(lp969
sg19
(lp970
sg21
I0
sba(iArchitecture
Entity
p971
(dp972
g11
(lp973
sg13
S'com.android.server.usb.UsbDebuggingManager'
p974
sg15
(lp975
sg17
(lp976
sg19
(lp977
sg21
I0
sba(iArchitecture
Entity
p978
(dp979
g11
(lp980
sg13
S'com.android.server.usb.UsbDebuggingManager$UsbDebuggingHandler'
p981
sg15
(lp982
sg17
(lp983
sg19
(lp984
sg21
I0
sba(iArchitecture
Entity
p985
(dp986
g11
(lp987
sg13
S'com.android.server.usb.UsbDebuggingManager$UsbDebuggingThread'
p988
sg15
(lp989
sg17
(lp990
sg19
(lp991
sg21
I0
sbasg50
(lp992
g946
ag953
ag960
ag967
ag974
ag981
ag988
asg21
I0
sg52
S'1418'
p993
sba(iArchitecture
Cluster
p994
(dp995
g7
(lp996
(iArchitecture
Entity
p997
(dp998
g11
(lp999
sg13
S'android.telecom.StatusHints'
p1000
sg15
(lp1001
sg17
(lp1002
sg19
(lp1003
sg21
I0
sba(iArchitecture
Entity
p1004
(dp1005
g11
(lp1006
sg13
S'android.telecom.StatusHints$1'
p1007
sg15
(lp1008
sg17
(lp1009
sg19
(lp1010
sg21
I0
sba(iArchitecture
Entity
p1011
(dp1012
g11
(lp1013
sg13
S'com.android.server.policy.WakeGestureListener'
p1014
sg15
(lp1015
sg17
(lp1016
sg19
(lp1017
sg21
I0
sba(iArchitecture
Entity
p1018
(dp1019
g11
(lp1020
sg13
S'com.android.server.policy.WakeGestureListener$1'
p1021
sg15
(lp1022
sg17
(lp1023
sg19
(lp1024
sg21
I0
sba(iArchitecture
Entity
p1025
(dp1026
g11
(lp1027
sg13
S'com.android.server.policy.WakeGestureListener$2'
p1028
sg15
(lp1029
sg17
(lp1030
sg19
(lp1031
sg21
I0
sbasg50
(lp1032
g1000
ag1007
ag1014
ag1021
ag1028
asg21
I0
sg52
S'1419'
p1033
sba(iArchitecture
Cluster
p1034
(dp1035
g7
(lp1036
(iArchitecture
Entity
p1037
(dp1038
g11
(lp1039
sg13
S'android.security.Credentials'
p1040
sg15
(lp1041
sg17
(lp1042
sg19
(lp1043
sg21
I0
sbasg50
(lp1044
g1040
asg21
I0
sg52
S'241'
p1045
sba(iArchitecture
Cluster
p1046
(dp1047
g7
(lp1048
(iArchitecture
Entity
p1049
(dp1050
g11
(lp1051
sg13
S'com.android.server.notification.GlobalSortKeyComparator'
p1052
sg15
(lp1053
sg17
(lp1054
sg19
(lp1055
sg21
I0
sbasg50
(lp1056
g1052
asg21
I0
sg52
S'341'
p1057
sba(iArchitecture
Cluster
p1058
(dp1059
g7
(lp1060
(iArchitecture
Entity
p1061
(dp1062
g11
(lp1063
sg13
S'com.android.internal.app.IntentForwarderActivity'
p1064
sg15
(lp1065
sg17
(lp1066
sg19
(lp1067
sg21
I0
sbasg50
(lp1068
g1064
asg21
I0
sg52
S'41'
p1069
sba(iArchitecture
Cluster
p1070
(dp1071
g7
(lp1072
(iArchitecture
Entity
p1073
(dp1074
g11
(lp1075
sg13
S'android.content.ContentInsertHandler'
p1076
sg15
(lp1077
sg17
(lp1078
sg19
(lp1079
sg21
I0
sbasg50
(lp1080
g1076
asg21
I0
sg52
S'410'
p1081
sba(iArchitecture
Cluster
p1082
(dp1083
g7
(lp1084
(iArchitecture
Entity
p1085
(dp1086
g11
(lp1087
sg13
S'com.android.server.accessibility.DisplayAdjustmentUtils'
p1088
sg15
(lp1089
sg17
(lp1090
sg19
(lp1091
sg21
I0
sbasg50
(lp1092
g1088
asg21
I0
sg52
S'411'
p1093
sba(iArchitecture
Cluster
p1094
(dp1095
g7
(lp1096
(iArchitecture
Entity
p1097
(dp1098
g11
(lp1099
sg13
S'android.text.util.Rfc822Token'
p1100
sg15
(lp1101
sg17
(lp1102
sg19
(lp1103
sg21
I0
sbasg50
(lp1104
g1100
asg21
I0
sg52
S'412'
p1105
sba(iArchitecture
Cluster
p1106
(dp1107
g7
(lp1108
(iArchitecture
Entity
p1109
(dp1110
g11
(lp1111
sg13
S'android.gesture.GestureLibrary'
p1112
sg15
(lp1113
sg17
(lp1114
sg19
(lp1115
sg21
I0
sbasg50
(lp1116
g1112
asg21
I0
sg52
S'413'
p1117
sba(iArchitecture
Cluster
p1118
(dp1119
g7
(lp1120
(iArchitecture
Entity
p1121
(dp1122
g11
(lp1123
sg13
S'android.app.SynchronousUserSwitchObserver'
p1124
sg15
(lp1125
sg17
(lp1126
sg19
(lp1127
sg21
I0
sbasg50
(lp1128
g1124
asg21
I0
sg52
S'414'
p1129
sba(iArchitecture
Cluster
p1130
(dp1131
g7
(lp1132
(iArchitecture
Entity
p1133
(dp1134
g11
(lp1135
sg13
S'android.opengl.GLWrapperBase'
p1136
sg15
(lp1137
sg17
(lp1138
sg19
(lp1139
sg21
I0
sbasg50
(lp1140
g1136
asg21
I0
sg52
S'415'
p1141
sba(iArchitecture
Cluster
p1142
(dp1143
g7
(lp1144
(iArchitecture
Entity
p1145
(dp1146
g11
(lp1147
sg13
S'android.util.AttributeSet'
p1148
sg15
(lp1149
sg17
(lp1150
sg19
(lp1151
sg21
I0
sbasg50
(lp1152
g1148
asg21
I0
sg52
S'416'
p1153
sba(iArchitecture
Cluster
p1154
(dp1155
g7
(lp1156
(iArchitecture
Entity
p1157
(dp1158
g11
(lp1159
sg13
S'android.net.wifi.AnqpInformationElement'
p1160
sg15
(lp1161
sg17
(lp1162
sg19
(lp1163
sg21
I0
sbasg50
(lp1164
g1160
asg21
I0
sg52
S'417'
p1165
sba(iArchitecture
Cluster
p1166
(dp1167
g7
(lp1168
(iArchitecture
Entity
p1169
(dp1170
g11
(lp1171
sg13
S'android.content.ContentProviderNative'
p1172
sg15
(lp1173
sg17
(lp1174
sg19
(lp1175
sg21
I0
sbasg50
(lp1176
g1172
asg21
I0
sg52
S'418'
p1177
sba(iArchitecture
Cluster
p1178
(dp1179
g7
(lp1180
(iArchitecture
Entity
p1181
(dp1182
g11
(lp1183
sg13
S'com.android.internal.inputmethod.InputMethodSubtypeHandle'
p1184
sg15
(lp1185
sg17
(lp1186
sg19
(lp1187
sg21
I0
sbasg50
(lp1188
g1184
asg21
I0
sg52
S'419'
p1189
sba(iArchitecture
Cluster
p1190
(dp1191
g7
(lp1192
(iArchitecture
Entity
p1193
(dp1194
g11
(lp1195
sg13
S'android.content.CursorLoader'
p1196
sg15
(lp1197
sg17
(lp1198
sg19
(lp1199
sg21
I0
sbasg50
(lp1200
g1196
asg21
I0
sg52
S'441'
p1201
sba(iArchitecture
Cluster
p1202
(dp1203
g7
(lp1204
(iArchitecture
Entity
p1205
(dp1206
g11
(lp1207
sg13
S'android.provider.UserDictionary'
p1208
sg15
(lp1209
sg17
(lp1210
sg19
(lp1211
sg21
I0
sba(iArchitecture
Entity
p1212
(dp1213
g11
(lp1214
sg13
S'android.provider.UserDictionary$Words'
p1215
sg15
(lp1216
sg17
(lp1217
sg19
(lp1218
sg21
I0
sbasg50
(lp1219
g1208
ag1215
asg21
I0
sg52
S'541'
p1220
sba(iArchitecture
Cluster
p1221
(dp1222
g7
(lp1223
(iArchitecture
Entity
p1224
(dp1225
g11
(lp1226
sg13
S'android.graphics.drawable.ColorDrawable'
p1227
sg15
(lp1228
sg17
(lp1229
sg19
(lp1230
sg21
I0
sba(iArchitecture
Entity
p1231
(dp1232
g11
(lp1233
sg13
S'android.graphics.drawable.ColorDrawable$ColorState'
p1234
sg15
(lp1235
sg17
(lp1236
sg19
(lp1237
sg21
I0
sbasg50
(lp1238
g1227
ag1234
asg21
I0
sg52
S'641'
p1239
sba(iArchitecture
Cluster
p1240
(dp1241
g7
(lp1242
(iArchitecture
Entity
p1243
(dp1244
g11
(lp1245
sg13
S'android.media.AudioRouting'
p1246
sg15
(lp1247
sg17
(lp1248
sg19
(lp1249
sg21
I0
sba(iArchitecture
Entity
p1250
(dp1251
g11
(lp1252
sg13
S'android.media.AudioRouting$OnRoutingChangedListener'
p1253
sg15
(lp1254
sg17
(lp1255
sg19
(lp1256
sg21
I0
sbasg50
(lp1257
g1246
ag1253
asg21
I0
sg52
S'741'
p1258
sba(iArchitecture
Cluster
p1259
(dp1260
g7
(lp1261
(iArchitecture
Entity
p1262
(dp1263
g11
(lp1264
sg13
S'android.media.AudioAttributes'
p1265
sg15
(lp1266
sg17
(lp1267
sg19
(lp1268
sg21
I0
sba(iArchitecture
Entity
p1269
(dp1270
g11
(lp1271
sg13
S'android.media.AudioAttributes$1'
p1272
sg15
(lp1273
sg17
(lp1274
sg19
(lp1275
sg21
I0
sba(iArchitecture
Entity
p1276
(dp1277
g11
(lp1278
sg13
S'android.media.AudioAttributes$Builder'
p1279
sg15
(lp1280
sg17
(lp1281
sg19
(lp1282
sg21
I0
sbasg50
(lp1283
g1265
ag1272
ag1279
asg21
I0
sg52
S'841'
p1284
sba(iArchitecture
Cluster
p1285
(dp1286
g7
(lp1287
(iArchitecture
Entity
p1288
(dp1289
g11
(lp1290
sg13
S'android.text.style.LeadingMarginSpan'
p1291
sg15
(lp1292
sg17
(lp1293
sg19
(lp1294
sg21
I0
sba(iArchitecture
Entity
p1295
(dp1296
g11
(lp1297
sg13
S'android.text.style.LeadingMarginSpan$LeadingMarginSpan2'
p1298
sg15
(lp1299
sg17
(lp1300
sg19
(lp1301
sg21
I0
sba(iArchitecture
Entity
p1302
(dp1303
g11
(lp1304
sg13
S'android.text.style.LeadingMarginSpan$Standard'
p1305
sg15
(lp1306
sg17
(lp1307
sg19
(lp1308
sg21
I0
sbasg50
(lp1309
g1291
ag1298
ag1305
asg21
I0
sg52
S'941'
p1310
sbasS'target_sub'
p1311
S'41'
p1312
sg50
(lp1313
sS'is_component_arch'
p1314
I01
sg52
S'7.0.0_r1'
p1315
sba.