(lp0
(iArchitecture
Architecture
p1
(dp2
S'clusters'
p3
(lp4
(iArchitecture
Cluster
p5
(dp6
S'entities'
p7
(lp8
(iArchitecture
Entity
p9
(dp10
S'issue_ids'
p11
(lp12
sS'name'
p13
S'android.media.MediaScannerConnection'
p14
sS'descs'
p15
(lp16
sS'labels'
p17
(lp18
sS'titles'
p19
(lp20
sS'change'
p21
I0
sba(iArchitecture
Entity
p22
(dp23
g11
(lp24
sg13
S'android.media.MediaScannerConnection$1'
p25
sg15
(lp26
sg17
(lp27
sg19
(lp28
sg21
I0
sba(iArchitecture
Entity
p29
(dp30
g11
(lp31
sg13
S'android.media.MediaScannerConnection$ClientProxy'
p32
sg15
(lp33
sg17
(lp34
sg19
(lp35
sg21
I0
sba(iArchitecture
Entity
p36
(dp37
g11
(lp38
sg13
S'android.media.MediaScannerConnection$MediaScannerConnectionClient'
p39
sg15
(lp40
sg17
(lp41
sg19
(lp42
sg21
I0
sba(iArchitecture
Entity
p43
(dp44
g11
(lp45
sg13
S'android.media.MediaScannerConnection$OnScanCompletedListener'
p46
sg15
(lp47
sg17
(lp48
sg19
(lp49
sg21
I0
sbasS'classes'
p50
(lp51
g14
ag25
ag32
ag39
ag46
asg21
I0
sS'label'
p52
S'1091'
p53
sba(iArchitecture
Cluster
p54
(dp55
g7
(lp56
(iArchitecture
Entity
p57
(dp58
g11
(lp59
sg13
S'com.android.server.accessibility.MagnificationController'
p60
sg15
(lp61
sg17
(lp62
sg19
(lp63
sg21
I0
sba(iArchitecture
Entity
p64
(dp65
g11
(lp66
sg13
S'com.android.server.accessibility.MagnificationController$1'
p67
sg15
(lp68
sg17
(lp69
sg19
(lp70
sg21
I0
sba(iArchitecture
Entity
p71
(dp72
g11
(lp73
sg13
S'com.android.server.accessibility.MagnificationController$ScreenStateObserver'
p74
sg15
(lp75
sg17
(lp76
sg19
(lp77
sg21
I0
sba(iArchitecture
Entity
p78
(dp79
g11
(lp80
sg13
S'com.android.server.accessibility.MagnificationController$ScreenStateObserver$StateChangeHandler'
p81
sg15
(lp82
sg17
(lp83
sg19
(lp84
sg21
I0
sba(iArchitecture
Entity
p85
(dp86
g11
(lp87
sg13
S'com.android.server.accessibility.MagnificationController$SpecAnimationBridge'
p88
sg15
(lp89
sg17
(lp90
sg19
(lp91
sg21
I0
sba(iArchitecture
Entity
p92
(dp93
g11
(lp94
sg13
S'com.android.server.accessibility.MagnificationController$SpecAnimationBridge$MagnificationSpecEvaluator'
p95
sg15
(lp96
sg17
(lp97
sg19
(lp98
sg21
I0
sba(iArchitecture
Entity
p99
(dp100
g11
(lp101
sg13
S'com.android.server.accessibility.MagnificationController$SpecAnimationBridge$MagnificationSpecProperty'
p102
sg15
(lp103
sg17
(lp104
sg19
(lp105
sg21
I0
sba(iArchitecture
Entity
p106
(dp107
g11
(lp108
sg13
S'com.android.server.accessibility.MagnificationController$SpecAnimationBridge$UpdateHandler'
p109
sg15
(lp110
sg17
(lp111
sg19
(lp112
sg21
I0
sba(iArchitecture
Entity
p113
(dp114
g11
(lp115
sg13
S'com.android.server.accessibility.MagnificationController$WindowStateObserver'
p116
sg15
(lp117
sg17
(lp118
sg19
(lp119
sg21
I0
sba(iArchitecture
Entity
p120
(dp121
g11
(lp122
sg13
S'com.android.server.accessibility.MagnificationController$WindowStateObserver$CallbackHandler'
p123
sg15
(lp124
sg17
(lp125
sg19
(lp126
sg21
I0
sbasg50
(lp127
g60
ag67
ag74
ag81
ag88
ag95
ag102
ag109
ag116
ag123
asg21
I0
sg52
S'1191'
p128
sba(iArchitecture
Cluster
p129
(dp130
g7
(lp131
(iArchitecture
Entity
p132
(dp133
g11
(lp134
sg13
S'com.android.server.display.WifiDisplayAdapter'
p135
sg15
(lp136
sg17
(lp137
sg19
(lp138
sg21
I0
sba(iArchitecture
Entity
p139
(dp140
g11
(lp141
sg13
S'com.android.server.display.WifiDisplayAdapter$1'
p142
sg15
(lp143
sg17
(lp144
sg19
(lp145
sg21
I0
sba(iArchitecture
Entity
p146
(dp147
g11
(lp148
sg13
S'com.android.server.display.WifiDisplayAdapter$2'
p149
sg15
(lp150
sg17
(lp151
sg19
(lp152
sg21
I0
sba(iArchitecture
Entity
p153
(dp154
g11
(lp155
sg13
S'com.android.server.display.WifiDisplayAdapter$3'
p156
sg15
(lp157
sg17
(lp158
sg19
(lp159
sg21
I0
sba(iArchitecture
Entity
p160
(dp161
g11
(lp162
sg13
S'com.android.server.display.WifiDisplayAdapter$4'
p163
sg15
(lp164
sg17
(lp165
sg19
(lp166
sg21
I0
sba(iArchitecture
Entity
p167
(dp168
g11
(lp169
sg13
S'com.android.server.display.WifiDisplayAdapter$5'
p170
sg15
(lp171
sg17
(lp172
sg19
(lp173
sg21
I0
sba(iArchitecture
Entity
p174
(dp175
g11
(lp176
sg13
S'com.android.server.display.WifiDisplayAdapter$6'
p177
sg15
(lp178
sg17
(lp179
sg19
(lp180
sg21
I0
sba(iArchitecture
Entity
p181
(dp182
g11
(lp183
sg13
S'com.android.server.display.WifiDisplayAdapter$7'
p184
sg15
(lp185
sg17
(lp186
sg19
(lp187
sg21
I0
sba(iArchitecture
Entity
p188
(dp189
g11
(lp190
sg13
S'com.android.server.display.WifiDisplayAdapter$8'
p191
sg15
(lp192
sg17
(lp193
sg19
(lp194
sg21
I0
sba(iArchitecture
Entity
p195
(dp196
g11
(lp197
sg13
S'com.android.server.display.WifiDisplayAdapter$9'
p198
sg15
(lp199
sg17
(lp200
sg19
(lp201
sg21
I0
sba(iArchitecture
Entity
p202
(dp203
g11
(lp204
sg13
S'com.android.server.display.WifiDisplayAdapter$WifiDisplayDevice'
p205
sg15
(lp206
sg17
(lp207
sg19
(lp208
sg21
I0
sba(iArchitecture
Entity
p209
(dp210
g11
(lp211
sg13
S'com.android.server.display.WifiDisplayAdapter$WifiDisplayHandler'
p212
sg15
(lp213
sg17
(lp214
sg19
(lp215
sg21
I0
sba(iArchitecture
Entity
p216
(dp217
g11
(lp218
sg13
S'com.android.server.display.WifiDisplayController'
p219
sg15
(lp220
sg17
(lp221
sg19
(lp222
sg21
I0
sba(iArchitecture
Entity
p223
(dp224
g11
(lp225
sg13
S'com.android.server.display.WifiDisplayController$1'
p226
sg15
(lp227
sg17
(lp228
sg19
(lp229
sg21
I0
sba(iArchitecture
Entity
p230
(dp231
g11
(lp232
sg13
S'com.android.server.display.WifiDisplayController$10'
p233
sg15
(lp234
sg17
(lp235
sg19
(lp236
sg21
I0
sba(iArchitecture
Entity
p237
(dp238
g11
(lp239
sg13
S'com.android.server.display.WifiDisplayController$11'
p240
sg15
(lp241
sg17
(lp242
sg19
(lp243
sg21
I0
sba(iArchitecture
Entity
p244
(dp245
g11
(lp246
sg13
S'com.android.server.display.WifiDisplayController$12'
p247
sg15
(lp248
sg17
(lp249
sg19
(lp250
sg21
I0
sba(iArchitecture
Entity
p251
(dp252
g11
(lp253
sg13
S'com.android.server.display.WifiDisplayController$13'
p254
sg15
(lp255
sg17
(lp256
sg19
(lp257
sg21
I0
sba(iArchitecture
Entity
p258
(dp259
g11
(lp260
sg13
S'com.android.server.display.WifiDisplayController$14'
p261
sg15
(lp262
sg17
(lp263
sg19
(lp264
sg21
I0
sba(iArchitecture
Entity
p265
(dp266
g11
(lp267
sg13
S'com.android.server.display.WifiDisplayController$15'
p268
sg15
(lp269
sg17
(lp270
sg19
(lp271
sg21
I0
sba(iArchitecture
Entity
p272
(dp273
g11
(lp274
sg13
S'com.android.server.display.WifiDisplayController$16'
p275
sg15
(lp276
sg17
(lp277
sg19
(lp278
sg21
I0
sba(iArchitecture
Entity
p279
(dp280
g11
(lp281
sg13
S'com.android.server.display.WifiDisplayController$17'
p282
sg15
(lp283
sg17
(lp284
sg19
(lp285
sg21
I0
sba(iArchitecture
Entity
p286
(dp287
g11
(lp288
sg13
S'com.android.server.display.WifiDisplayController$18'
p289
sg15
(lp290
sg17
(lp291
sg19
(lp292
sg21
I0
sba(iArchitecture
Entity
p293
(dp294
g11
(lp295
sg13
S'com.android.server.display.WifiDisplayController$19'
p296
sg15
(lp297
sg17
(lp298
sg19
(lp299
sg21
I0
sba(iArchitecture
Entity
p300
(dp301
g11
(lp302
sg13
S'com.android.server.display.WifiDisplayController$2'
p303
sg15
(lp304
sg17
(lp305
sg19
(lp306
sg21
I0
sba(iArchitecture
Entity
p307
(dp308
g11
(lp309
sg13
S'com.android.server.display.WifiDisplayController$20'
p310
sg15
(lp311
sg17
(lp312
sg19
(lp313
sg21
I0
sba(iArchitecture
Entity
p314
(dp315
g11
(lp316
sg13
S'com.android.server.display.WifiDisplayController$21'
p317
sg15
(lp318
sg17
(lp319
sg19
(lp320
sg21
I0
sba(iArchitecture
Entity
p321
(dp322
g11
(lp323
sg13
S'com.android.server.display.WifiDisplayController$3'
p324
sg15
(lp325
sg17
(lp326
sg19
(lp327
sg21
I0
sba(iArchitecture
Entity
p328
(dp329
g11
(lp330
sg13
S'com.android.server.display.WifiDisplayController$4'
p331
sg15
(lp332
sg17
(lp333
sg19
(lp334
sg21
I0
sba(iArchitecture
Entity
p335
(dp336
g11
(lp337
sg13
S'com.android.server.display.WifiDisplayController$5'
p338
sg15
(lp339
sg17
(lp340
sg19
(lp341
sg21
I0
sba(iArchitecture
Entity
p342
(dp343
g11
(lp344
sg13
S'com.android.server.display.WifiDisplayController$6'
p345
sg15
(lp346
sg17
(lp347
sg19
(lp348
sg21
I0
sba(iArchitecture
Entity
p349
(dp350
g11
(lp351
sg13
S'com.android.server.display.WifiDisplayController$7'
p352
sg15
(lp353
sg17
(lp354
sg19
(lp355
sg21
I0
sba(iArchitecture
Entity
p356
(dp357
g11
(lp358
sg13
S'com.android.server.display.WifiDisplayController$8'
p359
sg15
(lp360
sg17
(lp361
sg19
(lp362
sg21
I0
sba(iArchitecture
Entity
p363
(dp364
g11
(lp365
sg13
S'com.android.server.display.WifiDisplayController$9'
p366
sg15
(lp367
sg17
(lp368
sg19
(lp369
sg21
I0
sba(iArchitecture
Entity
p370
(dp371
g11
(lp372
sg13
S'com.android.server.display.WifiDisplayController$Listener'
p373
sg15
(lp374
sg17
(lp375
sg19
(lp376
sg21
I0
sbasg50
(lp377
g135
ag142
ag149
ag156
ag163
ag170
ag177
ag184
ag191
ag198
ag205
ag212
ag219
ag226
ag233
ag240
ag247
ag254
ag261
ag268
ag275
ag282
ag289
ag296
ag303
ag310
ag317
ag324
ag331
ag338
ag345
ag352
ag359
ag366
ag373
asg21
I0
sg52
S'1291'
p378
sba(iArchitecture
Cluster
p379
(dp380
g7
(lp381
(iArchitecture
Entity
p382
(dp383
g11
(lp384
sg13
S'android.view.Surface'
p385
sg15
(lp386
sg17
(lp387
sg19
(lp388
sg21
I0
sba(iArchitecture
Entity
p389
(dp390
g11
(lp391
sg13
S'android.view.Surface$1'
p392
sg15
(lp393
sg17
(lp394
sg19
(lp395
sg21
I0
sba(iArchitecture
Entity
p396
(dp397
g11
(lp398
sg13
S'android.view.Surface$CompatibleCanvas'
p399
sg15
(lp400
sg17
(lp401
sg19
(lp402
sg21
I0
sba(iArchitecture
Entity
p403
(dp404
g11
(lp405
sg13
S'android.view.Surface$HwuiContext'
p406
sg15
(lp407
sg17
(lp408
sg19
(lp409
sg21
I0
sba(iArchitecture
Entity
p410
(dp411
g11
(lp412
sg13
S'android.view.Surface$OutOfResourcesException'
p413
sg15
(lp414
sg17
(lp415
sg19
(lp416
sg21
I0
sba(iArchitecture
Entity
p417
(dp418
g11
(lp419
sg13
S'android.view.SurfaceControl'
p420
sg15
(lp421
sg17
(lp422
sg19
(lp423
sg21
I0
sba(iArchitecture
Entity
p424
(dp425
g11
(lp426
sg13
S'android.view.SurfaceControl$PhysicalDisplayInfo'
p427
sg15
(lp428
sg17
(lp429
sg19
(lp430
sg21
I0
sba(iArchitecture
Entity
p431
(dp432
g11
(lp433
sg13
S'android.view.SurfaceHolder'
p434
sg15
(lp435
sg17
(lp436
sg19
(lp437
sg21
I0
sba(iArchitecture
Entity
p438
(dp439
g11
(lp440
sg13
S'android.view.SurfaceHolder$BadSurfaceTypeException'
p441
sg15
(lp442
sg17
(lp443
sg19
(lp444
sg21
I0
sba(iArchitecture
Entity
p445
(dp446
g11
(lp447
sg13
S'android.view.SurfaceHolder$Callback'
p448
sg15
(lp449
sg17
(lp450
sg19
(lp451
sg21
I0
sba(iArchitecture
Entity
p452
(dp453
g11
(lp454
sg13
S'android.view.SurfaceHolder$Callback2'
p455
sg15
(lp456
sg17
(lp457
sg19
(lp458
sg21
I0
sba(iArchitecture
Entity
p459
(dp460
g11
(lp461
sg13
S'android.view.SurfaceView'
p462
sg15
(lp463
sg17
(lp464
sg19
(lp465
sg21
I0
sba(iArchitecture
Entity
p466
(dp467
g11
(lp468
sg13
S'android.view.SurfaceView$1'
p469
sg15
(lp470
sg17
(lp471
sg19
(lp472
sg21
I0
sba(iArchitecture
Entity
p473
(dp474
g11
(lp475
sg13
S'android.view.SurfaceView$2'
p476
sg15
(lp477
sg17
(lp478
sg19
(lp479
sg21
I0
sba(iArchitecture
Entity
p480
(dp481
g11
(lp482
sg13
S'android.view.SurfaceView$3'
p483
sg15
(lp484
sg17
(lp485
sg19
(lp486
sg21
I0
sba(iArchitecture
Entity
p487
(dp488
g11
(lp489
sg13
S'android.view.SurfaceView$4'
p490
sg15
(lp491
sg17
(lp492
sg19
(lp493
sg21
I0
sba(iArchitecture
Entity
p494
(dp495
g11
(lp496
sg13
S'android.view.SurfaceView$MyWindow'
p497
sg15
(lp498
sg17
(lp499
sg19
(lp500
sg21
I0
sba(iArchitecture
Entity
p501
(dp502
g11
(lp503
sg13
S'android.view.TextureView'
p504
sg15
(lp505
sg17
(lp506
sg19
(lp507
sg21
I0
sba(iArchitecture
Entity
p508
(dp509
g11
(lp510
sg13
S'android.view.TextureView$1'
p511
sg15
(lp512
sg17
(lp513
sg19
(lp514
sg21
I0
sba(iArchitecture
Entity
p515
(dp516
g11
(lp517
sg13
S'android.view.TextureView$SurfaceTextureListener'
p518
sg15
(lp519
sg17
(lp520
sg19
(lp521
sg21
I0
sbasg50
(lp522
g385
ag392
ag399
ag406
ag413
ag420
ag427
ag434
ag441
ag448
ag455
ag462
ag469
ag476
ag483
ag490
ag497
ag504
ag511
ag518
asg21
I0
sg52
S'1391'
p523
sba(iArchitecture
Cluster
p524
(dp525
g7
(lp526
(iArchitecture
Entity
p527
(dp528
g11
(lp529
sg13
S'com.android.internal.util.WakeupMessage'
p530
sg15
(lp531
sg17
(lp532
sg19
(lp533
sg21
I0
sbasg50
(lp534
g530
asg21
I0
sg52
S'191'
p535
sba(iArchitecture
Cluster
p536
(dp537
g7
(lp538
(iArchitecture
Entity
p539
(dp540
g11
(lp541
sg13
S'com.android.server.wm.InputMonitor'
p542
sg15
(lp543
sg17
(lp544
sg19
(lp545
sg21
I0
sbasg50
(lp546
g542
asg21
I0
sg52
S'291'
p547
sba(iArchitecture
Cluster
p548
(dp549
g7
(lp550
(iArchitecture
Entity
p551
(dp552
g11
(lp553
sg13
S'com.android.server.wm.DragResizeMode'
p554
sg15
(lp555
sg17
(lp556
sg19
(lp557
sg21
I0
sbasg50
(lp558
g554
asg21
I0
sg52
S'391'
p559
sba(iArchitecture
Cluster
p560
(dp561
g7
(lp562
(iArchitecture
Entity
p563
(dp564
g11
(lp565
sg13
S'com.android.internal.telephony.CarrierAppUtils'
p566
sg15
(lp567
sg17
(lp568
sg19
(lp569
sg21
I0
sbasg50
(lp570
g566
asg21
I0
sg52
S'491'
p571
sba(iArchitecture
Cluster
p572
(dp573
g7
(lp574
(iArchitecture
Entity
p575
(dp576
g11
(lp577
sg13
S'com.android.server.wm.WallpaperController'
p578
sg15
(lp579
sg17
(lp580
sg19
(lp581
sg21
I0
sba(iArchitecture
Entity
p582
(dp583
g11
(lp584
sg13
S'com.android.server.wm.WallpaperController$FindWallpaperTargetResult'
p585
sg15
(lp586
sg17
(lp587
sg19
(lp588
sg21
I0
sbasg50
(lp589
g578
ag585
asg21
I0
sg52
S'591'
p590
sba(iArchitecture
Cluster
p591
(dp592
g7
(lp593
(iArchitecture
Entity
p594
(dp595
g11
(lp596
sg13
S'android.hardware.radio.RadioTuner'
p597
sg15
(lp598
sg17
(lp599
sg19
(lp600
sg21
I0
sba(iArchitecture
Entity
p601
(dp602
g11
(lp603
sg13
S'android.hardware.radio.RadioTuner$Callback'
p604
sg15
(lp605
sg17
(lp606
sg19
(lp607
sg21
I0
sbasg50
(lp608
g597
ag604
asg21
I0
sg52
S'691'
p609
sba(iArchitecture
Cluster
p610
(dp611
g7
(lp612
(iArchitecture
Entity
p613
(dp614
g11
(lp615
sg13
S'com.android.server.am.ContentProviderRecord'
p616
sg15
(lp617
sg17
(lp618
sg19
(lp619
sg21
I0
sba(iArchitecture
Entity
p620
(dp621
g11
(lp622
sg13
S'com.android.server.am.ContentProviderRecord$ExternalProcessHandle'
p623
sg15
(lp624
sg17
(lp625
sg19
(lp626
sg21
I0
sbasg50
(lp627
g616
ag623
asg21
I0
sg52
S'791'
p628
sba(iArchitecture
Cluster
p629
(dp630
g7
(lp631
(iArchitecture
Entity
p632
(dp633
g11
(lp634
sg13
S'com.android.server.CertBlacklister'
p635
sg15
(lp636
sg17
(lp637
sg19
(lp638
sg21
I0
sba(iArchitecture
Entity
p639
(dp640
g11
(lp641
sg13
S'com.android.server.CertBlacklister$BlacklistObserver'
p642
sg15
(lp643
sg17
(lp644
sg19
(lp645
sg21
I0
sba(iArchitecture
Entity
p646
(dp647
g11
(lp648
sg13
S'com.android.server.CertBlacklister$BlacklistObserver$1'
p649
sg15
(lp650
sg17
(lp651
sg19
(lp652
sg21
I0
sbasg50
(lp653
g635
ag642
ag649
asg21
I0
sg52
S'891'
p654
sba(iArchitecture
Cluster
p655
(dp656
g7
(lp657
(iArchitecture
Entity
p658
(dp659
g11
(lp660
sg13
S'android.util.Range'
p661
sg15
(lp662
sg17
(lp663
sg19
(lp664
sg21
I0
sbasg50
(lp665
g661
asg21
I0
sg52
S'91'
p666
sba(iArchitecture
Cluster
p667
(dp668
g7
(lp669
(iArchitecture
Entity
p670
(dp671
g11
(lp672
sg13
S'android.os.CancellationSignal'
p673
sg15
(lp674
sg17
(lp675
sg19
(lp676
sg21
I0
sba(iArchitecture
Entity
p677
(dp678
g11
(lp679
sg13
S'android.os.CancellationSignal$OnCancelListener'
p680
sg15
(lp681
sg17
(lp682
sg19
(lp683
sg21
I0
sba(iArchitecture
Entity
p684
(dp685
g11
(lp686
sg13
S'android.os.CancellationSignal$Transport'
p687
sg15
(lp688
sg17
(lp689
sg19
(lp690
sg21
I0
sbasg50
(lp691
g673
ag680
ag687
asg21
I0
sg52
S'910'
p692
sba(iArchitecture
Cluster
p693
(dp694
g7
(lp695
(iArchitecture
Entity
p696
(dp697
g11
(lp698
sg13
S'android.content.pm.ActivityInfo'
p699
sg15
(lp700
sg17
(lp701
sg19
(lp702
sg21
I0
sba(iArchitecture
Entity
p703
(dp704
g11
(lp705
sg13
S'android.content.pm.ActivityInfo$1'
p706
sg15
(lp707
sg17
(lp708
sg19
(lp709
sg21
I0
sba(iArchitecture
Entity
p710
(dp711
g11
(lp712
sg13
S'android.content.pm.ActivityInfo$WindowLayout'
p713
sg15
(lp714
sg17
(lp715
sg19
(lp716
sg21
I0
sbasg50
(lp717
g699
ag706
ag713
asg21
I0
sg52
S'911'
p718
sba(iArchitecture
Cluster
p719
(dp720
g7
(lp721
(iArchitecture
Entity
p722
(dp723
g11
(lp724
sg13
S'com.android.server.tv.TvRemoteService'
p725
sg15
(lp726
sg17
(lp727
sg19
(lp728
sg21
I0
sba(iArchitecture
Entity
p729
(dp730
g11
(lp731
sg13
S'com.android.server.tv.TvRemoteService$UserHandler'
p732
sg15
(lp733
sg17
(lp734
sg19
(lp735
sg21
I0
sba(iArchitecture
Entity
p736
(dp737
g11
(lp738
sg13
S'com.android.server.tv.TvRemoteService$UserProvider'
p739
sg15
(lp740
sg17
(lp741
sg19
(lp742
sg21
I0
sbasg50
(lp743
g725
ag732
ag739
asg21
I0
sg52
S'912'
p744
sba(iArchitecture
Cluster
p745
(dp746
g7
(lp747
(iArchitecture
Entity
p748
(dp749
g11
(lp750
sg13
S'com.android.internal.telephony.GsmAlphabet'
p751
sg15
(lp752
sg17
(lp753
sg19
(lp754
sg21
I0
sba(iArchitecture
Entity
p755
(dp756
g11
(lp757
sg13
S'com.android.internal.telephony.GsmAlphabet$LanguagePairCount'
p758
sg15
(lp759
sg17
(lp760
sg19
(lp761
sg21
I0
sba(iArchitecture
Entity
p762
(dp763
g11
(lp764
sg13
S'com.android.internal.telephony.GsmAlphabet$TextEncodingDetails'
p765
sg15
(lp766
sg17
(lp767
sg19
(lp768
sg21
I0
sbasg50
(lp769
g751
ag758
ag765
asg21
I0
sg52
S'913'
p770
sba(iArchitecture
Cluster
p771
(dp772
g7
(lp773
(iArchitecture
Entity
p774
(dp775
g11
(lp776
sg13
S'android.app.ResourcesManager'
p777
sg15
(lp778
sg17
(lp779
sg19
(lp780
sg21
I0
sba(iArchitecture
Entity
p781
(dp782
g11
(lp783
sg13
S'android.app.ResourcesManager$1'
p784
sg15
(lp785
sg17
(lp786
sg19
(lp787
sg21
I0
sba(iArchitecture
Entity
p788
(dp789
g11
(lp790
sg13
S'android.app.ResourcesManager$ActivityResources'
p791
sg15
(lp792
sg17
(lp793
sg19
(lp794
sg21
I0
sbasg50
(lp795
g777
ag784
ag791
asg21
I0
sg52
S'914'
p796
sba(iArchitecture
Cluster
p797
(dp798
g7
(lp799
(iArchitecture
Entity
p800
(dp801
g11
(lp802
sg13
S'android.media.tv.TvTrackInfo'
p803
sg15
(lp804
sg17
(lp805
sg19
(lp806
sg21
I0
sba(iArchitecture
Entity
p807
(dp808
g11
(lp809
sg13
S'android.media.tv.TvTrackInfo$1'
p810
sg15
(lp811
sg17
(lp812
sg19
(lp813
sg21
I0
sba(iArchitecture
Entity
p814
(dp815
g11
(lp816
sg13
S'android.media.tv.TvTrackInfo$Builder'
p817
sg15
(lp818
sg17
(lp819
sg19
(lp820
sg21
I0
sbasg50
(lp821
g803
ag810
ag817
asg21
I0
sg52
S'915'
p822
sba(iArchitecture
Cluster
p823
(dp824
g7
(lp825
(iArchitecture
Entity
p826
(dp827
g11
(lp828
sg13
S'android.content.ClipData'
p829
sg15
(lp830
sg17
(lp831
sg19
(lp832
sg21
I0
sba(iArchitecture
Entity
p833
(dp834
g11
(lp835
sg13
S'android.content.ClipData$1'
p836
sg15
(lp837
sg17
(lp838
sg19
(lp839
sg21
I0
sba(iArchitecture
Entity
p840
(dp841
g11
(lp842
sg13
S'android.content.ClipData$Item'
p843
sg15
(lp844
sg17
(lp845
sg19
(lp846
sg21
I0
sbasg50
(lp847
g829
ag836
ag843
asg21
I0
sg52
S'916'
p848
sba(iArchitecture
Cluster
p849
(dp850
g7
(lp851
(iArchitecture
Entity
p852
(dp853
g11
(lp854
sg13
S'android.net.wifi.ScanResult'
p855
sg15
(lp856
sg17
(lp857
sg19
(lp858
sg21
I0
sba(iArchitecture
Entity
p859
(dp860
g11
(lp861
sg13
S'android.net.wifi.ScanResult$1'
p862
sg15
(lp863
sg17
(lp864
sg19
(lp865
sg21
I0
sba(iArchitecture
Entity
p866
(dp867
g11
(lp868
sg13
S'android.net.wifi.ScanResult$InformationElement'
p869
sg15
(lp870
sg17
(lp871
sg19
(lp872
sg21
I0
sbasg50
(lp873
g855
ag862
ag869
asg21
I0
sg52
S'917'
p874
sba(iArchitecture
Cluster
p875
(dp876
g7
(lp877
(iArchitecture
Entity
p878
(dp879
g11
(lp880
sg13
S'android.test.InstrumentationTestCase'
p881
sg15
(lp882
sg17
(lp883
sg19
(lp884
sg21
I0
sba(iArchitecture
Entity
p885
(dp886
g11
(lp887
sg13
S'android.test.InstrumentationTestCase$1'
p888
sg15
(lp889
sg17
(lp890
sg19
(lp891
sg21
I0
sba(iArchitecture
Entity
p892
(dp893
g11
(lp894
sg13
S'android.test.InstrumentationTestCase$2'
p895
sg15
(lp896
sg17
(lp897
sg19
(lp898
sg21
I0
sbasg50
(lp899
g881
ag888
ag895
asg21
I0
sg52
S'918'
p900
sba(iArchitecture
Cluster
p901
(dp902
g7
(lp903
(iArchitecture
Entity
p904
(dp905
g11
(lp906
sg13
S'android.hardware.camera2.utils.TypeReference'
p907
sg15
(lp908
sg17
(lp909
sg19
(lp910
sg21
I0
sba(iArchitecture
Entity
p911
(dp912
g11
(lp913
sg13
S'android.hardware.camera2.utils.TypeReference$SpecializedBaseTypeReference'
p914
sg15
(lp915
sg17
(lp916
sg19
(lp917
sg21
I0
sba(iArchitecture
Entity
p918
(dp919
g11
(lp920
sg13
S'android.hardware.camera2.utils.TypeReference$SpecializedTypeReference'
p921
sg15
(lp922
sg17
(lp923
sg19
(lp924
sg21
I0
sbasg50
(lp925
g907
ag914
ag921
asg21
I0
sg52
S'919'
p926
sba(iArchitecture
Cluster
p927
(dp928
g7
(lp929
(iArchitecture
Entity
p930
(dp931
g11
(lp932
sg13
S'android.hardware.display.DisplayManagerInternal'
p933
sg15
(lp934
sg17
(lp935
sg19
(lp936
sg21
I0
sba(iArchitecture
Entity
p937
(dp938
g11
(lp939
sg13
S'android.hardware.display.DisplayManagerInternal$DisplayPowerCallbacks'
p940
sg15
(lp941
sg17
(lp942
sg19
(lp943
sg21
I0
sba(iArchitecture
Entity
p944
(dp945
g11
(lp946
sg13
S'android.hardware.display.DisplayManagerInternal$DisplayPowerRequest'
p947
sg15
(lp948
sg17
(lp949
sg19
(lp950
sg21
I0
sba(iArchitecture
Entity
p951
(dp952
g11
(lp953
sg13
S'android.hardware.display.DisplayManagerInternal$DisplayTransactionListener'
p954
sg15
(lp955
sg17
(lp956
sg19
(lp957
sg21
I0
sbasg50
(lp958
g933
ag940
ag947
ag954
asg21
I0
sg52
S'991'
p959
sbasS'target_sub'
p960
S'91'
p961
sg50
(lp962
sS'is_component_arch'
p963
I01
sg52
S'7.0.0_r1'
p964
sba.