(lp0
(iArchitecture
Architecture
p1
(dp2
S'clusters'
p3
(lp4
(iArchitecture
Cluster
p5
(dp6
S'entities'
p7
(lp8
(iArchitecture
Entity
p9
(dp10
S'issue_ids'
p11
(lp12
sS'name'
p13
S'android.content.pm.permission.RuntimePermissionPresentationInfo'
p14
sS'descs'
p15
(lp16
sS'labels'
p17
(lp18
sS'titles'
p19
(lp20
sS'change'
p21
I0
sba(iArchitecture
Entity
p22
(dp23
g11
(lp24
sg13
S'android.content.pm.permission.RuntimePermissionPresentationInfo$1'
p25
sg15
(lp26
sg17
(lp27
sg19
(lp28
sg21
I0
sba(iArchitecture
Entity
p29
(dp30
g11
(lp31
sg13
S'android.hardware.location.ContextHubMessage'
p32
sg15
(lp33
sg17
(lp34
sg19
(lp35
sg21
I0
sba(iArchitecture
Entity
p36
(dp37
g11
(lp38
sg13
S'android.hardware.location.ContextHubMessage$1'
p39
sg15
(lp40
sg17
(lp41
sg19
(lp42
sg21
I0
sba(iArchitecture
Entity
p43
(dp44
g11
(lp45
sg13
S'android.location.GeocoderParams'
p46
sg15
(lp47
sg17
(lp48
sg19
(lp49
sg21
I0
sba(iArchitecture
Entity
p50
(dp51
g11
(lp52
sg13
S'android.location.GeocoderParams$1'
p53
sg15
(lp54
sg17
(lp55
sg19
(lp56
sg21
I0
sba(iArchitecture
Entity
p57
(dp58
g11
(lp59
sg13
S'com.android.ims.ImsSuppServiceNotification'
p60
sg15
(lp61
sg17
(lp62
sg19
(lp63
sg21
I0
sba(iArchitecture
Entity
p64
(dp65
g11
(lp66
sg13
S'com.android.ims.ImsSuppServiceNotification$1'
p67
sg15
(lp68
sg17
(lp69
sg19
(lp70
sg21
I0
sbasS'classes'
p71
(lp72
g14
ag25
ag32
ag39
ag46
ag53
ag60
ag67
asg21
I0
sS'label'
p73
S'1399'
p74
sba(iArchitecture
Cluster
p75
(dp76
g7
(lp77
(iArchitecture
Entity
p78
(dp79
g11
(lp80
sg13
S'android.content.SyncActivityTooManyDeletes'
p81
sg15
(lp82
sg17
(lp83
sg19
(lp84
sg21
I0
sbasg71
(lp85
g81
asg21
I0
sg73
S'399'
p86
sbasS'target_sub'
p87
S'399'
p88
sg71
(lp89
sS'is_component_arch'
p90
I01
sg73
S'7.0.0_r1'
p91
sba.