(lp0
(iArchitecture
Architecture
p1
(dp2
S'clusters'
p3
(lp4
(iArchitecture
Cluster
p5
(dp6
S'entities'
p7
(lp8
(iArchitecture
Entity
p9
(dp10
S'issue_ids'
p11
(lp12
sS'name'
p13
S'android.widget.FastScroller'
p14
sS'descs'
p15
(lp16
sS'labels'
p17
(lp18
sS'titles'
p19
(lp20
sS'change'
p21
I0
sba(iArchitecture
Entity
p22
(dp23
g11
(lp24
sg13
S'android.widget.FastScroller$1'
p25
sg15
(lp26
sg17
(lp27
sg19
(lp28
sg21
I0
sba(iArchitecture
Entity
p29
(dp30
g11
(lp31
sg13
S'android.widget.FastScroller$2'
p32
sg15
(lp33
sg17
(lp34
sg19
(lp35
sg21
I0
sba(iArchitecture
Entity
p36
(dp37
g11
(lp38
sg13
S'android.widget.FastScroller$3'
p39
sg15
(lp40
sg17
(lp41
sg19
(lp42
sg21
I0
sba(iArchitecture
Entity
p43
(dp44
g11
(lp45
sg13
S'android.widget.FastScroller$4'
p46
sg15
(lp47
sg17
(lp48
sg19
(lp49
sg21
I0
sba(iArchitecture
Entity
p50
(dp51
g11
(lp52
sg13
S'android.widget.FastScroller$5'
p53
sg15
(lp54
sg17
(lp55
sg19
(lp56
sg21
I0
sba(iArchitecture
Entity
p57
(dp58
g11
(lp59
sg13
S'android.widget.FastScroller$6'
p60
sg15
(lp61
sg17
(lp62
sg19
(lp63
sg21
I0
sbasS'classes'
p64
(lp65
g14
ag25
ag32
ag39
ag46
ag53
ag60
asg21
I0
sS'label'
p66
S'1042'
p67
sba(iArchitecture
Cluster
p68
(dp69
g7
(lp70
(iArchitecture
Entity
p71
(dp72
g11
(lp73
sg13
S'android.service.textservice.SpellCheckerService'
p74
sg15
(lp75
sg17
(lp76
sg19
(lp77
sg21
I0
sba(iArchitecture
Entity
p78
(dp79
g11
(lp80
sg13
S'android.service.textservice.SpellCheckerService$InternalISpellCheckerSession'
p81
sg15
(lp82
sg17
(lp83
sg19
(lp84
sg21
I0
sba(iArchitecture
Entity
p85
(dp86
g11
(lp87
sg13
S'android.service.textservice.SpellCheckerService$SentenceLevelAdapter'
p88
sg15
(lp89
sg17
(lp90
sg19
(lp91
sg21
I0
sba(iArchitecture
Entity
p92
(dp93
g11
(lp94
sg13
S'android.service.textservice.SpellCheckerService$SentenceLevelAdapter$SentenceTextInfoParams'
p95
sg15
(lp96
sg17
(lp97
sg19
(lp98
sg21
I0
sba(iArchitecture
Entity
p99
(dp100
g11
(lp101
sg13
S'android.service.textservice.SpellCheckerService$SentenceLevelAdapter$SentenceWordItem'
p102
sg15
(lp103
sg17
(lp104
sg19
(lp105
sg21
I0
sba(iArchitecture
Entity
p106
(dp107
g11
(lp108
sg13
S'android.service.textservice.SpellCheckerService$Session'
p109
sg15
(lp110
sg17
(lp111
sg19
(lp112
sg21
I0
sba(iArchitecture
Entity
p113
(dp114
g11
(lp115
sg13
S'android.service.textservice.SpellCheckerService$SpellCheckerServiceBinder'
p116
sg15
(lp117
sg17
(lp118
sg19
(lp119
sg21
I0
sbasg64
(lp120
g74
ag81
ag88
ag95
ag102
ag109
ag116
asg21
I0
sg66
S'1142'
p121
sba(iArchitecture
Cluster
p122
(dp123
g7
(lp124
(iArchitecture
Entity
p125
(dp126
g11
(lp127
sg13
S'android.widget.OverScroller'
p128
sg15
(lp129
sg17
(lp130
sg19
(lp131
sg21
I0
sba(iArchitecture
Entity
p132
(dp133
g11
(lp134
sg13
S'android.widget.OverScroller$SplineOverScroller'
p135
sg15
(lp136
sg17
(lp137
sg19
(lp138
sg21
I0
sba(iArchitecture
Entity
p139
(dp140
g11
(lp141
sg13
S'android.widget.Scroller'
p142
sg15
(lp143
sg17
(lp144
sg19
(lp145
sg21
I0
sba(iArchitecture
Entity
p146
(dp147
g11
(lp148
sg13
S'android.widget.Scroller$ViscousFluidInterpolator'
p149
sg15
(lp150
sg17
(lp151
sg19
(lp152
sg21
I0
sbasg64
(lp153
g128
ag135
ag142
ag149
asg21
I0
sg66
S'1242'
p154
sba(iArchitecture
Cluster
p155
(dp156
g7
(lp157
(iArchitecture
Entity
p158
(dp159
g11
(lp160
sg13
S'android.hardware.camera2.marshal.impl.MarshalQueryableHighSpeedVideoConfiguration'
p161
sg15
(lp162
sg17
(lp163
sg19
(lp164
sg21
I0
sba(iArchitecture
Entity
p165
(dp166
g11
(lp167
sg13
S'android.hardware.camera2.marshal.impl.MarshalQueryableHighSpeedVideoConfiguration$MarshalerHighSpeedVideoConfiguration'
p168
sg15
(lp169
sg17
(lp170
sg19
(lp171
sg21
I0
sba(iArchitecture
Entity
p172
(dp173
g11
(lp174
sg13
S'android.hardware.camera2.params.HighSpeedVideoConfiguration'
p175
sg15
(lp176
sg17
(lp177
sg19
(lp178
sg21
I0
sbasg64
(lp179
g161
ag168
ag175
asg21
I0
sg66
S'1342'
p180
sba(iArchitecture
Cluster
p181
(dp182
g7
(lp183
(iArchitecture
Entity
p184
(dp185
g11
(lp186
sg13
S'android.graphics.BitmapShader'
p187
sg15
(lp188
sg17
(lp189
sg19
(lp190
sg21
I0
sbasg64
(lp191
g187
asg21
I0
sg66
S'142'
p192
sba(iArchitecture
Cluster
p193
(dp194
g7
(lp195
(iArchitecture
Entity
p196
(dp197
g11
(lp198
sg13
S'com.android.internal.app.AssistUtils'
p199
sg15
(lp200
sg17
(lp201
sg19
(lp202
sg21
I0
sbasg64
(lp203
g199
asg21
I0
sg66
S'242'
p204
sba(iArchitecture
Cluster
p205
(dp206
g7
(lp207
(iArchitecture
Entity
p208
(dp209
g11
(lp210
sg13
S'com.android.internal.widget.SubtitleView'
p211
sg15
(lp212
sg17
(lp213
sg19
(lp214
sg21
I0
sbasg64
(lp215
g211
asg21
I0
sg66
S'342'
p216
sba(iArchitecture
Cluster
p217
(dp218
g7
(lp219
(iArchitecture
Entity
p220
(dp221
g11
(lp222
sg13
S'android.os.SELinux'
p223
sg15
(lp224
sg17
(lp225
sg19
(lp226
sg21
I0
sbasg64
(lp227
g223
asg21
I0
sg66
S'42'
p228
sba(iArchitecture
Cluster
p229
(dp230
g7
(lp231
(iArchitecture
Entity
p232
(dp233
g11
(lp234
sg13
S'android.telephony.DisconnectCause'
p235
sg15
(lp236
sg17
(lp237
sg19
(lp238
sg21
I0
sbasg64
(lp239
g235
asg21
I0
sg66
S'420'
p240
sba(iArchitecture
Cluster
p241
(dp242
g7
(lp243
(iArchitecture
Entity
p244
(dp245
g11
(lp246
sg13
S'com.android.server.hdmi.HdmiMhlLocalDeviceStub'
p247
sg15
(lp248
sg17
(lp249
sg19
(lp250
sg21
I0
sbasg64
(lp251
g247
asg21
I0
sg66
S'421'
p252
sba(iArchitecture
Cluster
p253
(dp254
g7
(lp255
(iArchitecture
Entity
p256
(dp257
g11
(lp258
sg13
S'android.webkit.WebHistoryItem'
p259
sg15
(lp260
sg17
(lp261
sg19
(lp262
sg21
I0
sbasg64
(lp263
g259
asg21
I0
sg66
S'422'
p264
sba(iArchitecture
Cluster
p265
(dp266
g7
(lp267
(iArchitecture
Entity
p268
(dp269
g11
(lp270
sg13
S'com.android.server.fingerprint.FingerprintUtils'
p271
sg15
(lp272
sg17
(lp273
sg19
(lp274
sg21
I0
sbasg64
(lp275
g271
asg21
I0
sg66
S'423'
p276
sba(iArchitecture
Cluster
p277
(dp278
g7
(lp279
(iArchitecture
Entity
p280
(dp281
g11
(lp282
sg13
S'android.widget.EdgeEffect'
p283
sg15
(lp284
sg17
(lp285
sg19
(lp286
sg21
I0
sbasg64
(lp287
g283
asg21
I0
sg66
S'424'
p288
sba(iArchitecture
Cluster
p289
(dp290
g7
(lp291
(iArchitecture
Entity
p292
(dp293
g11
(lp294
sg13
S'com.android.server.pm.PackageKeySetData'
p295
sg15
(lp296
sg17
(lp297
sg19
(lp298
sg21
I0
sbasg64
(lp299
g295
asg21
I0
sg66
S'425'
p300
sba(iArchitecture
Cluster
p301
(dp302
g7
(lp303
(iArchitecture
Entity
p304
(dp305
g11
(lp306
sg13
S'com.android.internal.content.PackageMonitor'
p307
sg15
(lp308
sg17
(lp309
sg19
(lp310
sg21
I0
sbasg64
(lp311
g307
asg21
I0
sg66
S'426'
p312
sba(iArchitecture
Cluster
p313
(dp314
g7
(lp315
(iArchitecture
Entity
p316
(dp317
g11
(lp318
sg13
S'android.net.NetworkAgent'
p319
sg15
(lp320
sg17
(lp321
sg19
(lp322
sg21
I0
sbasg64
(lp323
g319
asg21
I0
sg66
S'427'
p324
sba(iArchitecture
Cluster
p325
(dp326
g7
(lp327
(iArchitecture
Entity
p328
(dp329
g11
(lp330
sg13
S'android.view.ContextThemeWrapper'
p331
sg15
(lp332
sg17
(lp333
sg19
(lp334
sg21
I0
sbasg64
(lp335
g331
asg21
I0
sg66
S'428'
p336
sba(iArchitecture
Cluster
p337
(dp338
g7
(lp339
(iArchitecture
Entity
p340
(dp341
g11
(lp342
sg13
S'android.hardware.camera2.CameraAccessException'
p343
sg15
(lp344
sg17
(lp345
sg19
(lp346
sg21
I0
sbasg64
(lp347
g343
asg21
I0
sg66
S'429'
p348
sba(iArchitecture
Cluster
p349
(dp350
g7
(lp351
(iArchitecture
Entity
p352
(dp353
g11
(lp354
sg13
S'com.android.server.pm.InstructionSets'
p355
sg15
(lp356
sg17
(lp357
sg19
(lp358
sg21
I0
sbasg64
(lp359
g355
asg21
I0
sg66
S'442'
p360
sba(iArchitecture
Cluster
p361
(dp362
g7
(lp363
(iArchitecture
Entity
p364
(dp365
g11
(lp366
sg13
S'android.content.ClipDescription'
p367
sg15
(lp368
sg17
(lp369
sg19
(lp370
sg21
I0
sba(iArchitecture
Entity
p371
(dp372
g11
(lp373
sg13
S'android.content.ClipDescription$1'
p374
sg15
(lp375
sg17
(lp376
sg19
(lp377
sg21
I0
sbasg64
(lp378
g367
ag374
asg21
I0
sg66
S'542'
p379
sba(iArchitecture
Cluster
p380
(dp381
g7
(lp382
(iArchitecture
Entity
p383
(dp384
g11
(lp385
sg13
S'android.security.keymaster.KeyCharacteristics'
p386
sg15
(lp387
sg17
(lp388
sg19
(lp389
sg21
I0
sba(iArchitecture
Entity
p390
(dp391
g11
(lp392
sg13
S'android.security.keymaster.KeyCharacteristics$1'
p393
sg15
(lp394
sg17
(lp395
sg19
(lp396
sg21
I0
sbasg64
(lp397
g386
ag393
asg21
I0
sg66
S'642'
p398
sba(iArchitecture
Cluster
p399
(dp400
g7
(lp401
(iArchitecture
Entity
p402
(dp403
g11
(lp404
sg13
S'com.android.server.location.GeofenceManager'
p405
sg15
(lp406
sg17
(lp407
sg19
(lp408
sg21
I0
sba(iArchitecture
Entity
p409
(dp410
g11
(lp411
sg13
S'com.android.server.location.GeofenceManager$GeofenceHandler'
p412
sg15
(lp413
sg17
(lp414
sg19
(lp415
sg21
I0
sbasg64
(lp416
g405
ag412
asg21
I0
sg66
S'742'
p417
sba(iArchitecture
Cluster
p418
(dp419
g7
(lp420
(iArchitecture
Entity
p421
(dp422
g11
(lp423
sg13
S'android.view.inputmethod.InputMethodSubtype'
p424
sg15
(lp425
sg17
(lp426
sg19
(lp427
sg21
I0
sba(iArchitecture
Entity
p428
(dp429
g11
(lp430
sg13
S'android.view.inputmethod.InputMethodSubtype$1'
p431
sg15
(lp432
sg17
(lp433
sg19
(lp434
sg21
I0
sba(iArchitecture
Entity
p435
(dp436
g11
(lp437
sg13
S'android.view.inputmethod.InputMethodSubtype$InputMethodSubtypeBuilder'
p438
sg15
(lp439
sg17
(lp440
sg19
(lp441
sg21
I0
sbasg64
(lp442
g424
ag431
ag438
asg21
I0
sg66
S'842'
p443
sba(iArchitecture
Cluster
p444
(dp445
g7
(lp446
(iArchitecture
Entity
p447
(dp448
g11
(lp449
sg13
S'android.media.EncoderCapabilities'
p450
sg15
(lp451
sg17
(lp452
sg19
(lp453
sg21
I0
sba(iArchitecture
Entity
p454
(dp455
g11
(lp456
sg13
S'android.media.EncoderCapabilities$AudioEncoderCap'
p457
sg15
(lp458
sg17
(lp459
sg19
(lp460
sg21
I0
sba(iArchitecture
Entity
p461
(dp462
g11
(lp463
sg13
S'android.media.EncoderCapabilities$VideoEncoderCap'
p464
sg15
(lp465
sg17
(lp466
sg19
(lp467
sg21
I0
sbasg64
(lp468
g450
ag457
ag464
asg21
I0
sg66
S'942'
p469
sbasS'target_sub'
p470
S'42'
p471
sg64
(lp472
sS'is_component_arch'
p473
I01
sg66
S'7.0.0_r1'
p474
sba.