(lp0
(iArchitecture
Architecture
p1
(dp2
S'clusters'
p3
(lp4
(iArchitecture
Cluster
p5
(dp6
S'entities'
p7
(lp8
(iArchitecture
Entity
p9
(dp10
S'issue_ids'
p11
(lp12
sS'name'
p13
S'android.renderscript.Mesh'
p14
sS'descs'
p15
(lp16
sS'labels'
p17
(lp18
sS'titles'
p19
(lp20
sS'change'
p21
I0
sba(iArchitecture
Entity
p22
(dp23
g11
(lp24
sg13
S'android.renderscript.Mesh$AllocationBuilder'
p25
sg15
(lp26
sg17
(lp27
sg19
(lp28
sg21
I0
sba(iArchitecture
Entity
p29
(dp30
g11
(lp31
sg13
S'android.renderscript.Mesh$AllocationBuilder$Entry'
p32
sg15
(lp33
sg17
(lp34
sg19
(lp35
sg21
I0
sba(iArchitecture
Entity
p36
(dp37
g11
(lp38
sg13
S'android.renderscript.Mesh$Builder'
p39
sg15
(lp40
sg17
(lp41
sg19
(lp42
sg21
I0
sba(iArchitecture
Entity
p43
(dp44
g11
(lp45
sg13
S'android.renderscript.Mesh$Builder$Entry'
p46
sg15
(lp47
sg17
(lp48
sg19
(lp49
sg21
I0
sba(iArchitecture
Entity
p50
(dp51
g11
(lp52
sg13
S'android.renderscript.Mesh$Primitive'
p53
sg15
(lp54
sg17
(lp55
sg19
(lp56
sg21
I0
sba(iArchitecture
Entity
p57
(dp58
g11
(lp59
sg13
S'android.renderscript.Mesh$TriangleMeshBuilder'
p60
sg15
(lp61
sg17
(lp62
sg19
(lp63
sg21
I0
sbasS'classes'
p64
(lp65
g14
ag25
ag32
ag39
ag46
ag53
ag60
asg21
I0
sS'label'
p66
S'1141'
p67
sba(iArchitecture
Cluster
p68
(dp69
g7
(lp70
(iArchitecture
Entity
p71
(dp72
g11
(lp73
sg13
S'com.android.internal.telephony.RILConstants'
p74
sg15
(lp75
sg17
(lp76
sg19
(lp77
sg21
I0
sbasg64
(lp78
g74
asg21
I0
sg66
S'141'
p79
sba(iArchitecture
Cluster
p80
(dp81
g7
(lp82
(iArchitecture
Entity
p83
(dp84
g11
(lp85
sg13
S'android.media.soundtrigger.SoundTriggerManager'
p86
sg15
(lp87
sg17
(lp88
sg19
(lp89
sg21
I0
sba(iArchitecture
Entity
p90
(dp91
g11
(lp92
sg13
S'android.media.soundtrigger.SoundTriggerManager$Model'
p93
sg15
(lp94
sg17
(lp95
sg19
(lp96
sg21
I0
sba(iArchitecture
Entity
p97
(dp98
g11
(lp99
sg13
S'com.android.server.soundtrigger.SoundTriggerService'
p100
sg15
(lp101
sg17
(lp102
sg19
(lp103
sg21
I0
sba(iArchitecture
Entity
p104
(dp105
g11
(lp106
sg13
S'com.android.server.soundtrigger.SoundTriggerService$LocalSoundTriggerService'
p107
sg15
(lp108
sg17
(lp109
sg19
(lp110
sg21
I0
sba(iArchitecture
Entity
p111
(dp112
g11
(lp113
sg13
S'com.android.server.soundtrigger.SoundTriggerService$SoundTriggerServiceStub'
p114
sg15
(lp115
sg17
(lp116
sg19
(lp117
sg21
I0
sbasg64
(lp118
g86
ag93
ag100
ag107
ag114
asg21
I0
sg66
S'1410'
p119
sba(iArchitecture
Cluster
p120
(dp121
g7
(lp122
(iArchitecture
Entity
p123
(dp124
g11
(lp125
sg13
S'android.text.Editable'
p126
sg15
(lp127
sg17
(lp128
sg19
(lp129
sg21
I0
sba(iArchitecture
Entity
p130
(dp131
g11
(lp132
sg13
S'android.text.Editable$Factory'
p133
sg15
(lp134
sg17
(lp135
sg19
(lp136
sg21
I0
sba(iArchitecture
Entity
p137
(dp138
g11
(lp139
sg13
S'android.transition.Rotate'
p140
sg15
(lp141
sg17
(lp142
sg19
(lp143
sg21
I0
sba(iArchitecture
Entity
p144
(dp145
g11
(lp146
sg13
S'android.view.ViewGroupOverlay'
p147
sg15
(lp148
sg17
(lp149
sg19
(lp150
sg21
I0
sba(iArchitecture
Entity
p151
(dp152
g11
(lp153
sg13
S'android.webkit.WebViewFragment'
p154
sg15
(lp155
sg17
(lp156
sg19
(lp157
sg21
I0
sba(iArchitecture
Entity
p158
(dp159
g11
(lp160
sg13
S'android.webkit.WebViewProviderResponse'
p161
sg15
(lp162
sg17
(lp163
sg19
(lp164
sg21
I0
sba(iArchitecture
Entity
p165
(dp166
g11
(lp167
sg13
S'android.webkit.WebViewProviderResponse$1'
p168
sg15
(lp169
sg17
(lp170
sg19
(lp171
sg21
I0
sba(iArchitecture
Entity
p172
(dp173
g11
(lp174
sg13
S'android.widget.BaseExpandableListAdapter'
p175
sg15
(lp176
sg17
(lp177
sg19
(lp178
sg21
I0
sba(iArchitecture
Entity
p179
(dp180
g11
(lp181
sg13
S'android.widget.HeterogeneousExpandableList'
p182
sg15
(lp183
sg17
(lp184
sg19
(lp185
sg21
I0
sba(iArchitecture
Entity
p186
(dp187
g11
(lp188
sg13
S'android.widget.ImageSwitcher'
p189
sg15
(lp190
sg17
(lp191
sg19
(lp192
sg21
I0
sba(iArchitecture
Entity
p193
(dp194
g11
(lp195
sg13
S'android.widget.TextSwitcher'
p196
sg15
(lp197
sg17
(lp198
sg19
(lp199
sg21
I0
sba(iArchitecture
Entity
p200
(dp201
g11
(lp202
sg13
S'android.widget.ViewSwitcher'
p203
sg15
(lp204
sg17
(lp205
sg19
(lp206
sg21
I0
sba(iArchitecture
Entity
p207
(dp208
g11
(lp209
sg13
S'android.widget.ViewSwitcher$ViewFactory'
p210
sg15
(lp211
sg17
(lp212
sg19
(lp213
sg21
I0
sba(iArchitecture
Entity
p214
(dp215
g11
(lp216
sg13
S'com.android.internal.app.NavItemSelectedListener'
p217
sg15
(lp218
sg17
(lp219
sg19
(lp220
sg21
I0
sbasg64
(lp221
g126
ag133
ag140
ag147
ag154
ag161
ag168
ag175
ag182
ag189
ag196
ag203
ag210
ag217
asg21
I0
sg66
S'1411'
p222
sba(iArchitecture
Cluster
p223
(dp224
g7
(lp225
(iArchitecture
Entity
p226
(dp227
g11
(lp228
sg13
S'android.view.ActionProvider'
p229
sg15
(lp230
sg17
(lp231
sg19
(lp232
sg21
I0
sba(iArchitecture
Entity
p233
(dp234
g11
(lp235
sg13
S'android.view.ActionProvider$SubUiVisibilityListener'
p236
sg15
(lp237
sg17
(lp238
sg19
(lp239
sg21
I0
sba(iArchitecture
Entity
p240
(dp241
g11
(lp242
sg13
S'android.view.ActionProvider$VisibilityListener'
p243
sg15
(lp244
sg17
(lp245
sg19
(lp246
sg21
I0
sba(iArchitecture
Entity
p247
(dp248
g11
(lp249
sg13
S'android.widget.CursorAdapter'
p250
sg15
(lp251
sg17
(lp252
sg19
(lp253
sg21
I0
sba(iArchitecture
Entity
p254
(dp255
g11
(lp256
sg13
S'android.widget.CursorAdapter$ChangeObserver'
p257
sg15
(lp258
sg17
(lp259
sg19
(lp260
sg21
I0
sba(iArchitecture
Entity
p261
(dp262
g11
(lp263
sg13
S'android.widget.CursorAdapter$MyDataSetObserver'
p264
sg15
(lp265
sg17
(lp266
sg19
(lp267
sg21
I0
sba(iArchitecture
Entity
p268
(dp269
g11
(lp270
sg13
S'android.widget.CursorTreeAdapter'
p271
sg15
(lp272
sg17
(lp273
sg19
(lp274
sg21
I0
sba(iArchitecture
Entity
p275
(dp276
g11
(lp277
sg13
S'android.widget.CursorTreeAdapter$MyCursorHelper'
p278
sg15
(lp279
sg17
(lp280
sg19
(lp281
sg21
I0
sba(iArchitecture
Entity
p282
(dp283
g11
(lp284
sg13
S'android.widget.CursorTreeAdapter$MyCursorHelper$MyContentObserver'
p285
sg15
(lp286
sg17
(lp287
sg19
(lp288
sg21
I0
sba(iArchitecture
Entity
p289
(dp290
g11
(lp291
sg13
S'android.widget.CursorTreeAdapter$MyCursorHelper$MyDataSetObserver'
p292
sg15
(lp293
sg17
(lp294
sg19
(lp295
sg21
I0
sba(iArchitecture
Entity
p296
(dp297
g11
(lp298
sg13
S'android.widget.SimpleCursorAdapter'
p299
sg15
(lp300
sg17
(lp301
sg19
(lp302
sg21
I0
sba(iArchitecture
Entity
p303
(dp304
g11
(lp305
sg13
S'android.widget.SimpleCursorAdapter$CursorToStringConverter'
p306
sg15
(lp307
sg17
(lp308
sg19
(lp309
sg21
I0
sba(iArchitecture
Entity
p310
(dp311
g11
(lp312
sg13
S'android.widget.SimpleCursorAdapter$ViewBinder'
p313
sg15
(lp314
sg17
(lp315
sg19
(lp316
sg21
I0
sbasg64
(lp317
g229
ag236
ag243
ag250
ag257
ag264
ag271
ag278
ag285
ag292
ag299
ag306
ag313
asg21
I0
sg66
S'1412'
p318
sba(iArchitecture
Cluster
p319
(dp320
g7
(lp321
(iArchitecture
Entity
p322
(dp323
g11
(lp324
sg13
S'android.view.inputmethod.SparseRectFArray'
p325
sg15
(lp326
sg17
(lp327
sg19
(lp328
sg21
I0
sba(iArchitecture
Entity
p329
(dp330
g11
(lp331
sg13
S'android.view.inputmethod.SparseRectFArray$1'
p332
sg15
(lp333
sg17
(lp334
sg19
(lp335
sg21
I0
sba(iArchitecture
Entity
p336
(dp337
g11
(lp338
sg13
S'android.view.inputmethod.SparseRectFArray$SparseRectFArrayBuilder'
p339
sg15
(lp340
sg17
(lp341
sg19
(lp342
sg21
I0
sba(iArchitecture
Entity
p343
(dp344
g11
(lp345
sg13
S'com.android.server.policy.GlobalKeyManager'
p346
sg15
(lp347
sg17
(lp348
sg19
(lp349
sg21
I0
sbasg64
(lp350
g325
ag332
ag339
ag346
asg21
I0
sg66
S'1413'
p351
sba(iArchitecture
Cluster
p352
(dp353
g7
(lp354
(iArchitecture
Entity
p355
(dp356
g11
(lp357
sg13
S'android.accounts.AccountAuthenticatorActivity'
p358
sg15
(lp359
sg17
(lp360
sg19
(lp361
sg21
I0
sba(iArchitecture
Entity
p362
(dp363
g11
(lp364
sg13
S'android.accounts.AccountAuthenticatorResponse'
p365
sg15
(lp366
sg17
(lp367
sg19
(lp368
sg21
I0
sba(iArchitecture
Entity
p369
(dp370
g11
(lp371
sg13
S'android.accounts.AccountAuthenticatorResponse$1'
p372
sg15
(lp373
sg17
(lp374
sg19
(lp375
sg21
I0
sba(iArchitecture
Entity
p376
(dp377
g11
(lp378
sg13
S'android.telecom.AuthenticatorService'
p379
sg15
(lp380
sg17
(lp381
sg19
(lp382
sg21
I0
sba(iArchitecture
Entity
p383
(dp384
g11
(lp385
sg13
S'android.telecom.AuthenticatorService$Authenticator'
p386
sg15
(lp387
sg17
(lp388
sg19
(lp389
sg21
I0
sba(iArchitecture
Entity
p390
(dp391
g11
(lp392
sg13
S'com.android.internal.widget.VerifyCredentialResponse'
p393
sg15
(lp394
sg17
(lp395
sg19
(lp396
sg21
I0
sba(iArchitecture
Entity
p397
(dp398
g11
(lp399
sg13
S'com.android.internal.widget.VerifyCredentialResponse$1'
p400
sg15
(lp401
sg17
(lp402
sg19
(lp403
sg21
I0
sbasg64
(lp404
g358
ag365
ag372
ag379
ag386
ag393
ag400
asg21
I0
sg66
S'1414'
p405
sba(iArchitecture
Cluster
p406
(dp407
g7
(lp408
(iArchitecture
Entity
p409
(dp410
g11
(lp411
sg13
S'android.widget.CalendarViewMaterialDelegate'
p412
sg15
(lp413
sg17
(lp414
sg19
(lp415
sg21
I0
sba(iArchitecture
Entity
p416
(dp417
g11
(lp418
sg13
S'android.widget.CalendarViewMaterialDelegate$1'
p419
sg15
(lp420
sg17
(lp421
sg19
(lp422
sg21
I0
sba(iArchitecture
Entity
p423
(dp424
g11
(lp425
sg13
S'android.widget.DayPickerPagerAdapter'
p426
sg15
(lp427
sg17
(lp428
sg19
(lp429
sg21
I0
sba(iArchitecture
Entity
p430
(dp431
g11
(lp432
sg13
S'android.widget.DayPickerPagerAdapter$1'
p433
sg15
(lp434
sg17
(lp435
sg19
(lp436
sg21
I0
sba(iArchitecture
Entity
p437
(dp438
g11
(lp439
sg13
S'android.widget.DayPickerPagerAdapter$OnDaySelectedListener'
p440
sg15
(lp441
sg17
(lp442
sg19
(lp443
sg21
I0
sba(iArchitecture
Entity
p444
(dp445
g11
(lp446
sg13
S'android.widget.DayPickerPagerAdapter$ViewHolder'
p447
sg15
(lp448
sg17
(lp449
sg19
(lp450
sg21
I0
sbasg64
(lp451
g412
ag419
ag426
ag433
ag440
ag447
asg21
I0
sg66
S'1415'
p452
sba(iArchitecture
Cluster
p453
(dp454
g7
(lp455
(iArchitecture
Entity
p456
(dp457
g11
(lp458
sg13
S'android.database.sqlite.SQLiteDebug'
p459
sg15
(lp460
sg17
(lp461
sg19
(lp462
sg21
I0
sba(iArchitecture
Entity
p463
(dp464
g11
(lp465
sg13
S'android.database.sqlite.SQLiteDebug$DbStats'
p466
sg15
(lp467
sg17
(lp468
sg19
(lp469
sg21
I0
sba(iArchitecture
Entity
p470
(dp471
g11
(lp472
sg13
S'android.database.sqlite.SQLiteDebug$PagerStats'
p473
sg15
(lp474
sg17
(lp475
sg19
(lp476
sg21
I0
sba(iArchitecture
Entity
p477
(dp478
g11
(lp479
sg13
S'android.drm.DrmUtils'
p480
sg15
(lp481
sg17
(lp482
sg19
(lp483
sg21
I0
sba(iArchitecture
Entity
p484
(dp485
g11
(lp486
sg13
S'android.drm.DrmUtils$ExtendedMetadataParser'
p487
sg15
(lp488
sg17
(lp489
sg19
(lp490
sg21
I0
sba(iArchitecture
Entity
p491
(dp492
g11
(lp493
sg13
S'android.filterfw.core.KeyValueMap'
p494
sg15
(lp495
sg17
(lp496
sg19
(lp497
sg21
I0
sba(iArchitecture
Entity
p498
(dp499
g11
(lp500
sg13
S'android.hardware.camera2.impl.CaptureResultExtras'
p501
sg15
(lp502
sg17
(lp503
sg19
(lp504
sg21
I0
sba(iArchitecture
Entity
p505
(dp506
g11
(lp507
sg13
S'android.hardware.camera2.impl.CaptureResultExtras$1'
p508
sg15
(lp509
sg17
(lp510
sg19
(lp511
sg21
I0
sba(iArchitecture
Entity
p512
(dp513
g11
(lp514
sg13
S'android.hardware.camera2.marshal.impl.MarshalQueryableStreamConfiguration'
p515
sg15
(lp516
sg17
(lp517
sg19
(lp518
sg21
I0
sba(iArchitecture
Entity
p519
(dp520
g11
(lp521
sg13
S'android.hardware.camera2.marshal.impl.MarshalQueryableStreamConfiguration$MarshalerStreamConfiguration'
p522
sg15
(lp523
sg17
(lp524
sg19
(lp525
sg21
I0
sba(iArchitecture
Entity
p526
(dp527
g11
(lp528
sg13
S'android.hardware.camera2.marshal.impl.MarshalQueryableStreamConfigurationDuration'
p529
sg15
(lp530
sg17
(lp531
sg19
(lp532
sg21
I0
sba(iArchitecture
Entity
p533
(dp534
g11
(lp535
sg13
S'android.hardware.camera2.marshal.impl.MarshalQueryableStreamConfigurationDuration$MarshalerStreamConfigurationDuration'
p536
sg15
(lp537
sg17
(lp538
sg19
(lp539
sg21
I0
sba(iArchitecture
Entity
p540
(dp541
g11
(lp542
sg13
S'android.media.midi.MidiDevice'
p543
sg15
(lp544
sg17
(lp545
sg19
(lp546
sg21
I0
sba(iArchitecture
Entity
p547
(dp548
g11
(lp549
sg13
S'android.media.midi.MidiDevice$MidiConnection'
p550
sg15
(lp551
sg17
(lp552
sg19
(lp553
sg21
I0
sba(iArchitecture
Entity
p554
(dp555
g11
(lp556
sg13
S'android.media.midi.MidiDeviceInfo'
p557
sg15
(lp558
sg17
(lp559
sg19
(lp560
sg21
I0
sba(iArchitecture
Entity
p561
(dp562
g11
(lp563
sg13
S'android.media.midi.MidiDeviceInfo$1'
p564
sg15
(lp565
sg17
(lp566
sg19
(lp567
sg21
I0
sba(iArchitecture
Entity
p568
(dp569
g11
(lp570
sg13
S'android.media.midi.MidiDeviceInfo$PortInfo'
p571
sg15
(lp572
sg17
(lp573
sg19
(lp574
sg21
I0
sba(iArchitecture
Entity
p575
(dp576
g11
(lp577
sg13
S'android.media.midi.MidiDeviceServer'
p578
sg15
(lp579
sg17
(lp580
sg19
(lp581
sg21
I0
sba(iArchitecture
Entity
p582
(dp583
g11
(lp584
sg13
S'android.media.midi.MidiDeviceServer$1'
p585
sg15
(lp586
sg17
(lp587
sg19
(lp588
sg21
I0
sba(iArchitecture
Entity
p589
(dp590
g11
(lp591
sg13
S'android.media.midi.MidiDeviceServer$Callback'
p592
sg15
(lp593
sg17
(lp594
sg19
(lp595
sg21
I0
sba(iArchitecture
Entity
p596
(dp597
g11
(lp598
sg13
S'android.media.midi.MidiDeviceServer$InputPortClient'
p599
sg15
(lp600
sg17
(lp601
sg19
(lp602
sg21
I0
sba(iArchitecture
Entity
p603
(dp604
g11
(lp605
sg13
S'android.media.midi.MidiDeviceServer$OutputPortClient'
p606
sg15
(lp607
sg17
(lp608
sg19
(lp609
sg21
I0
sba(iArchitecture
Entity
p610
(dp611
g11
(lp612
sg13
S'android.media.midi.MidiDeviceServer$PortClient'
p613
sg15
(lp614
sg17
(lp615
sg19
(lp616
sg21
I0
sba(iArchitecture
Entity
p617
(dp618
g11
(lp619
sg13
S'android.media.midi.MidiDeviceService'
p620
sg15
(lp621
sg17
(lp622
sg19
(lp623
sg21
I0
sba(iArchitecture
Entity
p624
(dp625
g11
(lp626
sg13
S'android.media.midi.MidiDeviceService$1'
p627
sg15
(lp628
sg17
(lp629
sg19
(lp630
sg21
I0
sba(iArchitecture
Entity
p631
(dp632
g11
(lp633
sg13
S'android.media.midi.MidiDeviceStatus'
p634
sg15
(lp635
sg17
(lp636
sg19
(lp637
sg21
I0
sba(iArchitecture
Entity
p638
(dp639
g11
(lp640
sg13
S'android.media.midi.MidiDeviceStatus$1'
p641
sg15
(lp642
sg17
(lp643
sg19
(lp644
sg21
I0
sba(iArchitecture
Entity
p645
(dp646
g11
(lp647
sg13
S'android.security.SystemKeyStore'
p648
sg15
(lp649
sg17
(lp650
sg19
(lp651
sg21
I0
sba(iArchitecture
Entity
p652
(dp653
g11
(lp654
sg13
S'android.view.inputmethod.ExtractedText'
p655
sg15
(lp656
sg17
(lp657
sg19
(lp658
sg21
I0
sba(iArchitecture
Entity
p659
(dp660
g11
(lp661
sg13
S'android.view.inputmethod.ExtractedText$1'
p662
sg15
(lp663
sg17
(lp664
sg19
(lp665
sg21
I0
sba(iArchitecture
Entity
p666
(dp667
g11
(lp668
sg13
S'android.webkit.CacheManager'
p669
sg15
(lp670
sg17
(lp671
sg19
(lp672
sg21
I0
sba(iArchitecture
Entity
p673
(dp674
g11
(lp675
sg13
S'android.webkit.CacheManager$CacheResult'
p676
sg15
(lp677
sg17
(lp678
sg19
(lp679
sg21
I0
sba(iArchitecture
Entity
p680
(dp681
g11
(lp682
sg13
S'com.android.internal.midi.MidiEventScheduler'
p683
sg15
(lp684
sg17
(lp685
sg19
(lp686
sg21
I0
sba(iArchitecture
Entity
p687
(dp688
g11
(lp689
sg13
S'com.android.internal.midi.MidiEventScheduler$MidiEvent'
p690
sg15
(lp691
sg17
(lp692
sg19
(lp693
sg21
I0
sba(iArchitecture
Entity
p694
(dp695
g11
(lp696
sg13
S'com.android.internal.midi.MidiEventScheduler$SchedulingReceiver'
p697
sg15
(lp698
sg17
(lp699
sg19
(lp700
sg21
I0
sba(iArchitecture
Entity
p701
(dp702
g11
(lp703
sg13
S'com.android.internal.midi.MidiFramer'
p704
sg15
(lp705
sg17
(lp706
sg19
(lp707
sg21
I0
sba(iArchitecture
Entity
p708
(dp709
g11
(lp710
sg13
S'com.android.internal.statusbar.NotificationVisibility'
p711
sg15
(lp712
sg17
(lp713
sg19
(lp714
sg21
I0
sba(iArchitecture
Entity
p715
(dp716
g11
(lp717
sg13
S'com.android.internal.statusbar.NotificationVisibility$1'
p718
sg15
(lp719
sg17
(lp720
sg19
(lp721
sg21
I0
sba(iArchitecture
Entity
p722
(dp723
g11
(lp724
sg13
S'com.android.server.hdmi.ActiveSourceHandler'
p725
sg15
(lp726
sg17
(lp727
sg19
(lp728
sg21
I0
sba(iArchitecture
Entity
p729
(dp730
g11
(lp731
sg13
S'com.android.server.hdmi.SelectRequestBuffer'
p732
sg15
(lp733
sg17
(lp734
sg19
(lp735
sg21
I0
sba(iArchitecture
Entity
p736
(dp737
g11
(lp738
sg13
S'com.android.server.hdmi.SelectRequestBuffer$1'
p739
sg15
(lp740
sg17
(lp741
sg19
(lp742
sg21
I0
sba(iArchitecture
Entity
p743
(dp744
g11
(lp745
sg13
S'com.android.server.hdmi.SelectRequestBuffer$DeviceSelectRequest'
p746
sg15
(lp747
sg17
(lp748
sg19
(lp749
sg21
I0
sba(iArchitecture
Entity
p750
(dp751
g11
(lp752
sg13
S'com.android.server.hdmi.SelectRequestBuffer$PortSelectRequest'
p753
sg15
(lp754
sg17
(lp755
sg19
(lp756
sg21
I0
sba(iArchitecture
Entity
p757
(dp758
g11
(lp759
sg13
S'com.android.server.hdmi.SelectRequestBuffer$SelectRequest'
p760
sg15
(lp761
sg17
(lp762
sg19
(lp763
sg21
I0
sba(iArchitecture
Entity
p764
(dp765
g11
(lp766
sg13
S'com.android.server.usb.UsbMidiDevice'
p767
sg15
(lp768
sg17
(lp769
sg19
(lp770
sg21
I0
sba(iArchitecture
Entity
p771
(dp772
g11
(lp773
sg13
S'com.android.server.usb.UsbMidiDevice$1'
p774
sg15
(lp775
sg17
(lp776
sg19
(lp777
sg21
I0
sba(iArchitecture
Entity
p778
(dp779
g11
(lp780
sg13
S'com.android.server.usb.UsbMidiDevice$2'
p781
sg15
(lp782
sg17
(lp783
sg19
(lp784
sg21
I0
sba(iArchitecture
Entity
p785
(dp786
g11
(lp787
sg13
S'com.android.server.usb.UsbMidiDevice$3'
p788
sg15
(lp789
sg17
(lp790
sg19
(lp791
sg21
I0
sba(iArchitecture
Entity
p792
(dp793
g11
(lp794
sg13
S'com.android.server.usb.UsbMidiDevice$InputReceiverProxy'
p795
sg15
(lp796
sg17
(lp797
sg19
(lp798
sg21
I0
sbasg64
(lp799
g459
ag466
ag473
ag480
ag487
ag494
ag501
ag508
ag515
ag522
ag529
ag536
ag543
ag550
ag557
ag564
ag571
ag578
ag585
ag592
ag599
ag606
ag613
ag620
ag627
ag634
ag641
ag648
ag655
ag662
ag669
ag676
ag683
ag690
ag697
ag704
ag711
ag718
ag725
ag732
ag739
ag746
ag753
ag760
ag767
ag774
ag781
ag788
ag795
asg21
I0
sg66
S'1416'
p800
sba(iArchitecture
Cluster
p801
(dp802
g7
(lp803
(iArchitecture
Entity
p804
(dp805
g11
(lp806
sg13
S'android.telephony.CellSignalStrengthCdma'
p807
sg15
(lp808
sg17
(lp809
sg19
(lp810
sg21
I0
sba(iArchitecture
Entity
p811
(dp812
g11
(lp813
sg13
S'android.telephony.CellSignalStrengthCdma$1'
p814
sg15
(lp815
sg17
(lp816
sg19
(lp817
sg21
I0
sba(iArchitecture
Entity
p818
(dp819
g11
(lp820
sg13
S'android.telephony.CellSignalStrengthLte'
p821
sg15
(lp822
sg17
(lp823
sg19
(lp824
sg21
I0
sba(iArchitecture
Entity
p825
(dp826
g11
(lp827
sg13
S'android.telephony.CellSignalStrengthLte$1'
p828
sg15
(lp829
sg17
(lp830
sg19
(lp831
sg21
I0
sba(iArchitecture
Entity
p832
(dp833
g11
(lp834
sg13
S'android.telephony.SignalStrength'
p835
sg15
(lp836
sg17
(lp837
sg19
(lp838
sg21
I0
sba(iArchitecture
Entity
p839
(dp840
g11
(lp841
sg13
S'android.telephony.SignalStrength$1'
p842
sg15
(lp843
sg17
(lp844
sg19
(lp845
sg21
I0
sbasg64
(lp846
g807
ag814
ag821
ag828
ag835
ag842
asg21
I0
sg66
S'1417'
p847
sba(iArchitecture
Cluster
p848
(dp849
g7
(lp850
(iArchitecture
Entity
p851
(dp852
g11
(lp853
sg13
S'com.android.internal.net.VpnProfile'
p854
sg15
(lp855
sg17
(lp856
sg19
(lp857
sg21
I0
sba(iArchitecture
Entity
p858
(dp859
g11
(lp860
sg13
S'com.android.internal.net.VpnProfile$1'
p861
sg15
(lp862
sg17
(lp863
sg19
(lp864
sg21
I0
sba(iArchitecture
Entity
p865
(dp866
g11
(lp867
sg13
S'com.android.server.am.NativeCrashListener'
p868
sg15
(lp869
sg17
(lp870
sg19
(lp871
sg21
I0
sba(iArchitecture
Entity
p872
(dp873
g11
(lp874
sg13
S'com.android.server.am.NativeCrashListener$NativeCrashReporter'
p875
sg15
(lp876
sg17
(lp877
sg19
(lp878
sg21
I0
sba(iArchitecture
Entity
p879
(dp880
g11
(lp881
sg13
S'com.android.server.usb.UsbDebuggingManager'
p882
sg15
(lp883
sg17
(lp884
sg19
(lp885
sg21
I0
sba(iArchitecture
Entity
p886
(dp887
g11
(lp888
sg13
S'com.android.server.usb.UsbDebuggingManager$UsbDebuggingHandler'
p889
sg15
(lp890
sg17
(lp891
sg19
(lp892
sg21
I0
sba(iArchitecture
Entity
p893
(dp894
g11
(lp895
sg13
S'com.android.server.usb.UsbDebuggingManager$UsbDebuggingThread'
p896
sg15
(lp897
sg17
(lp898
sg19
(lp899
sg21
I0
sbasg64
(lp900
g854
ag861
ag868
ag875
ag882
ag889
ag896
asg21
I0
sg66
S'1418'
p901
sba(iArchitecture
Cluster
p902
(dp903
g7
(lp904
(iArchitecture
Entity
p905
(dp906
g11
(lp907
sg13
S'android.telecom.StatusHints'
p908
sg15
(lp909
sg17
(lp910
sg19
(lp911
sg21
I0
sba(iArchitecture
Entity
p912
(dp913
g11
(lp914
sg13
S'android.telecom.StatusHints$1'
p915
sg15
(lp916
sg17
(lp917
sg19
(lp918
sg21
I0
sba(iArchitecture
Entity
p919
(dp920
g11
(lp921
sg13
S'com.android.server.policy.WakeGestureListener'
p922
sg15
(lp923
sg17
(lp924
sg19
(lp925
sg21
I0
sba(iArchitecture
Entity
p926
(dp927
g11
(lp928
sg13
S'com.android.server.policy.WakeGestureListener$1'
p929
sg15
(lp930
sg17
(lp931
sg19
(lp932
sg21
I0
sba(iArchitecture
Entity
p933
(dp934
g11
(lp935
sg13
S'com.android.server.policy.WakeGestureListener$2'
p936
sg15
(lp937
sg17
(lp938
sg19
(lp939
sg21
I0
sbasg64
(lp940
g908
ag915
ag922
ag929
ag936
asg21
I0
sg66
S'1419'
p941
sbasS'target_sub'
p942
S'141'
p943
sg64
(lp944
sS'is_component_arch'
p945
I01
sg66
S'7.0.0_r1'
p946
sba.