(lp0
(iArchitecture
Architecture
p1
(dp2
S'clusters'
p3
(lp4
(iArchitecture
Cluster
p5
(dp6
S'entities'
p7
(lp8
(iArchitecture
Entity
p9
(dp10
S'issue_ids'
p11
(lp12
sS'name'
p13
S'com.android.internal.widget.NotificationExpandButton'
p14
sS'descs'
p15
(lp16
sS'labels'
p17
(lp18
sS'titles'
p19
(lp20
sS'change'
p21
I0
sbasS'classes'
p22
(lp23
g14
asg21
I0
sS'label'
p24
S'100'
p25
sba(iArchitecture
Cluster
p26
(dp27
g7
(lp28
(iArchitecture
Entity
p29
(dp30
g11
(lp31
sg13
S'android.telephony.PhoneStateListener'
p32
sg15
(lp33
sg17
(lp34
sg19
(lp35
sg21
I0
sba(iArchitecture
Entity
p36
(dp37
g11
(lp38
sg13
S'android.telephony.PhoneStateListener$1'
p39
sg15
(lp40
sg17
(lp41
sg19
(lp42
sg21
I0
sba(iArchitecture
Entity
p43
(dp44
g11
(lp45
sg13
S'android.telephony.PhoneStateListener$IPhoneStateListenerStub'
p46
sg15
(lp47
sg17
(lp48
sg19
(lp49
sg21
I0
sbasg22
(lp50
g32
ag39
ag46
asg21
I0
sg24
S'1000'
p51
sba(iArchitecture
Cluster
p52
(dp53
g7
(lp54
(iArchitecture
Entity
p55
(dp56
g11
(lp57
sg13
S'android.telecom.ConnectionServiceAdapterServant'
p58
sg15
(lp59
sg17
(lp60
sg19
(lp61
sg21
I0
sba(iArchitecture
Entity
p62
(dp63
g11
(lp64
sg13
S'android.telecom.ConnectionServiceAdapterServant$1'
p65
sg15
(lp66
sg17
(lp67
sg19
(lp68
sg21
I0
sba(iArchitecture
Entity
p69
(dp70
g11
(lp71
sg13
S'android.telecom.ConnectionServiceAdapterServant$2'
p72
sg15
(lp73
sg17
(lp74
sg19
(lp75
sg21
I0
sbasg22
(lp76
g58
ag65
ag72
asg21
I0
sg24
S'1001'
p77
sba(iArchitecture
Cluster
p78
(dp79
g7
(lp80
(iArchitecture
Entity
p81
(dp82
g11
(lp83
sg13
S'android.net.apf.ApfFilter'
p84
sg15
(lp85
sg17
(lp86
sg19
(lp87
sg21
I0
sba(iArchitecture
Entity
p88
(dp89
g11
(lp90
sg13
S'android.net.apf.ApfFilter$Ra'
p91
sg15
(lp92
sg17
(lp93
sg19
(lp94
sg21
I0
sba(iArchitecture
Entity
p95
(dp96
g11
(lp97
sg13
S'android.net.apf.ApfFilter$ReceiveThread'
p98
sg15
(lp99
sg17
(lp100
sg19
(lp101
sg21
I0
sbasg22
(lp102
g84
ag91
ag98
asg21
I0
sg24
S'1002'
p103
sba(iArchitecture
Cluster
p104
(dp105
g7
(lp106
(iArchitecture
Entity
p107
(dp108
g11
(lp109
sg13
S'android.location.FusedBatchOptions'
p110
sg15
(lp111
sg17
(lp112
sg19
(lp113
sg21
I0
sba(iArchitecture
Entity
p114
(dp115
g11
(lp116
sg13
S'android.location.FusedBatchOptions$1'
p117
sg15
(lp118
sg17
(lp119
sg19
(lp120
sg21
I0
sba(iArchitecture
Entity
p121
(dp122
g11
(lp123
sg13
S'android.location.FusedBatchOptions$BatchFlags'
p124
sg15
(lp125
sg17
(lp126
sg19
(lp127
sg21
I0
sba(iArchitecture
Entity
p128
(dp129
g11
(lp130
sg13
S'android.location.FusedBatchOptions$SourceTechnologies'
p131
sg15
(lp132
sg17
(lp133
sg19
(lp134
sg21
I0
sbasg22
(lp135
g110
ag117
ag124
ag131
asg21
I0
sg24
S'1003'
p136
sba(iArchitecture
Cluster
p137
(dp138
g7
(lp139
(iArchitecture
Entity
p140
(dp141
g11
(lp142
sg13
S'android.location.Location'
p143
sg15
(lp144
sg17
(lp145
sg19
(lp146
sg21
I0
sba(iArchitecture
Entity
p147
(dp148
g11
(lp149
sg13
S'android.location.Location$1'
p150
sg15
(lp151
sg17
(lp152
sg19
(lp153
sg21
I0
sba(iArchitecture
Entity
p154
(dp155
g11
(lp156
sg13
S'android.location.Location$2'
p157
sg15
(lp158
sg17
(lp159
sg19
(lp160
sg21
I0
sba(iArchitecture
Entity
p161
(dp162
g11
(lp163
sg13
S'android.location.Location$BearingDistanceCache'
p164
sg15
(lp165
sg17
(lp166
sg19
(lp167
sg21
I0
sbasg22
(lp168
g143
ag150
ag157
ag164
asg21
I0
sg24
S'1004'
p169
sba(iArchitecture
Cluster
p170
(dp171
g7
(lp172
(iArchitecture
Entity
p173
(dp174
g11
(lp175
sg13
S'android.os.Handler'
p176
sg15
(lp177
sg17
(lp178
sg19
(lp179
sg21
I0
sba(iArchitecture
Entity
p180
(dp181
g11
(lp182
sg13
S'android.os.Handler$BlockingRunnable'
p183
sg15
(lp184
sg17
(lp185
sg19
(lp186
sg21
I0
sba(iArchitecture
Entity
p187
(dp188
g11
(lp189
sg13
S'android.os.Handler$Callback'
p190
sg15
(lp191
sg17
(lp192
sg19
(lp193
sg21
I0
sba(iArchitecture
Entity
p194
(dp195
g11
(lp196
sg13
S'android.os.Handler$MessengerImpl'
p197
sg15
(lp198
sg17
(lp199
sg19
(lp200
sg21
I0
sbasg22
(lp201
g176
ag183
ag190
ag197
asg21
I0
sg24
S'1005'
p202
sba(iArchitecture
Cluster
p203
(dp204
g7
(lp205
(iArchitecture
Entity
p206
(dp207
g11
(lp208
sg13
S'android.widget.CompoundButton'
p209
sg15
(lp210
sg17
(lp211
sg19
(lp212
sg21
I0
sba(iArchitecture
Entity
p213
(dp214
g11
(lp215
sg13
S'android.widget.CompoundButton$OnCheckedChangeListener'
p216
sg15
(lp217
sg17
(lp218
sg19
(lp219
sg21
I0
sba(iArchitecture
Entity
p220
(dp221
g11
(lp222
sg13
S'android.widget.CompoundButton$SavedState'
p223
sg15
(lp224
sg17
(lp225
sg19
(lp226
sg21
I0
sba(iArchitecture
Entity
p227
(dp228
g11
(lp229
sg13
S'android.widget.CompoundButton$SavedState$1'
p230
sg15
(lp231
sg17
(lp232
sg19
(lp233
sg21
I0
sbasg22
(lp234
g209
ag216
ag223
ag230
asg21
I0
sg24
S'1006'
p235
sba(iArchitecture
Cluster
p236
(dp237
g7
(lp238
(iArchitecture
Entity
p239
(dp240
g11
(lp241
sg13
S'android.view.AccessibilityInteractionController'
p242
sg15
(lp243
sg17
(lp244
sg19
(lp245
sg21
I0
sba(iArchitecture
Entity
p246
(dp247
g11
(lp248
sg13
S'android.view.AccessibilityInteractionController$AccessibilityNodePrefetcher'
p249
sg15
(lp250
sg17
(lp251
sg19
(lp252
sg21
I0
sba(iArchitecture
Entity
p253
(dp254
g11
(lp255
sg13
S'android.view.AccessibilityInteractionController$AddNodeInfosForViewId'
p256
sg15
(lp257
sg17
(lp258
sg19
(lp259
sg21
I0
sba(iArchitecture
Entity
p260
(dp261
g11
(lp262
sg13
S'android.view.AccessibilityInteractionController$PrivateHandler'
p263
sg15
(lp264
sg17
(lp265
sg19
(lp266
sg21
I0
sbasg22
(lp267
g242
ag249
ag256
ag263
asg21
I0
sg24
S'1007'
p268
sba(iArchitecture
Cluster
p269
(dp270
g7
(lp271
(iArchitecture
Entity
p272
(dp273
g11
(lp274
sg13
S'android.database.sqlite.SQLiteConnectionPool'
p275
sg15
(lp276
sg17
(lp277
sg19
(lp278
sg21
I0
sba(iArchitecture
Entity
p279
(dp280
g11
(lp281
sg13
S'android.database.sqlite.SQLiteConnectionPool$1'
p282
sg15
(lp283
sg17
(lp284
sg19
(lp285
sg21
I0
sba(iArchitecture
Entity
p286
(dp287
g11
(lp288
sg13
S'android.database.sqlite.SQLiteConnectionPool$AcquiredConnectionStatus'
p289
sg15
(lp290
sg17
(lp291
sg19
(lp292
sg21
I0
sba(iArchitecture
Entity
p293
(dp294
g11
(lp295
sg13
S'android.database.sqlite.SQLiteConnectionPool$ConnectionWaiter'
p296
sg15
(lp297
sg17
(lp298
sg19
(lp299
sg21
I0
sbasg22
(lp300
g275
ag282
ag289
ag296
asg21
I0
sg24
S'1008'
p301
sba(iArchitecture
Cluster
p302
(dp303
g7
(lp304
(iArchitecture
Entity
p305
(dp306
g11
(lp307
sg13
S'com.android.internal.view.RotationPolicy'
p308
sg15
(lp309
sg17
(lp310
sg19
(lp311
sg21
I0
sba(iArchitecture
Entity
p312
(dp313
g11
(lp314
sg13
S'com.android.internal.view.RotationPolicy$1'
p315
sg15
(lp316
sg17
(lp317
sg19
(lp318
sg21
I0
sba(iArchitecture
Entity
p319
(dp320
g11
(lp321
sg13
S'com.android.internal.view.RotationPolicy$RotationPolicyListener'
p322
sg15
(lp323
sg17
(lp324
sg19
(lp325
sg21
I0
sba(iArchitecture
Entity
p326
(dp327
g11
(lp328
sg13
S'com.android.internal.view.RotationPolicy$RotationPolicyListener$1'
p329
sg15
(lp330
sg17
(lp331
sg19
(lp332
sg21
I0
sbasg22
(lp333
g308
ag315
ag322
ag329
asg21
I0
sg24
S'1009'
p334
sba(iArchitecture
Cluster
p335
(dp336
g7
(lp337
(iArchitecture
Entity
p338
(dp339
g11
(lp340
sg13
S'android.text.util.Linkify'
p341
sg15
(lp342
sg17
(lp343
sg19
(lp344
sg21
I0
sba(iArchitecture
Entity
p345
(dp346
g11
(lp347
sg13
S'android.text.util.Linkify$1'
p348
sg15
(lp349
sg17
(lp350
sg19
(lp351
sg21
I0
sba(iArchitecture
Entity
p352
(dp353
g11
(lp354
sg13
S'android.text.util.Linkify$2'
p355
sg15
(lp356
sg17
(lp357
sg19
(lp358
sg21
I0
sba(iArchitecture
Entity
p359
(dp360
g11
(lp361
sg13
S'android.text.util.Linkify$3'
p362
sg15
(lp363
sg17
(lp364
sg19
(lp365
sg21
I0
sba(iArchitecture
Entity
p366
(dp367
g11
(lp368
sg13
S'android.text.util.Linkify$4'
p369
sg15
(lp370
sg17
(lp371
sg19
(lp372
sg21
I0
sba(iArchitecture
Entity
p373
(dp374
g11
(lp375
sg13
S'android.text.util.Linkify$MatchFilter'
p376
sg15
(lp377
sg17
(lp378
sg19
(lp379
sg21
I0
sba(iArchitecture
Entity
p380
(dp381
g11
(lp382
sg13
S'android.text.util.Linkify$TransformFilter'
p383
sg15
(lp384
sg17
(lp385
sg19
(lp386
sg21
I0
sbasg22
(lp387
g341
ag348
ag355
ag362
ag369
ag376
ag383
asg21
I0
sg24
S'1100'
p388
sbasS'target_sub'
p389
S'100'
p390
sg22
(lp391
sS'is_component_arch'
p392
I01
sg24
S'7.0.0_r1'
p393
sba.