(lp0
(iArchitecture
Architecture
p1
(dp2
S'clusters'
p3
(lp4
(iArchitecture
Cluster
p5
(dp6
S'entities'
p7
(lp8
(iArchitecture
Entity
p9
(dp10
S'issue_ids'
p11
(lp12
sS'name'
p13
S'android.widget.YearPickerView'
p14
sS'descs'
p15
(lp16
sS'labels'
p17
(lp18
sS'titles'
p19
(lp20
sS'change'
p21
I0
sba(iArchitecture
Entity
p22
(dp23
g11
(lp24
sg13
S'android.widget.YearPickerView$1'
p25
sg15
(lp26
sg17
(lp27
sg19
(lp28
sg21
I0
sba(iArchitecture
Entity
p29
(dp30
g11
(lp31
sg13
S'android.widget.YearPickerView$2'
p32
sg15
(lp33
sg17
(lp34
sg19
(lp35
sg21
I0
sba(iArchitecture
Entity
p36
(dp37
g11
(lp38
sg13
S'android.widget.YearPickerView$OnYearSelectedListener'
p39
sg15
(lp40
sg17
(lp41
sg19
(lp42
sg21
I0
sba(iArchitecture
Entity
p43
(dp44
g11
(lp45
sg13
S'android.widget.YearPickerView$YearAdapter'
p46
sg15
(lp47
sg17
(lp48
sg19
(lp49
sg21
I0
sbasS'classes'
p50
(lp51
g14
ag25
ag32
ag39
ag46
asg21
I0
sS'label'
p52
S'1085'
p53
sba(iArchitecture
Cluster
p54
(dp55
g7
(lp56
(iArchitecture
Entity
p57
(dp58
g11
(lp59
sg13
S'android.graphics.drawable.VectorDrawable'
p60
sg15
(lp61
sg17
(lp62
sg19
(lp63
sg21
I0
sba(iArchitecture
Entity
p64
(dp65
g11
(lp66
sg13
S'android.graphics.drawable.VectorDrawable$VClipPath'
p67
sg15
(lp68
sg17
(lp69
sg19
(lp70
sg21
I0
sba(iArchitecture
Entity
p71
(dp72
g11
(lp73
sg13
S'android.graphics.drawable.VectorDrawable$VFullPath'
p74
sg15
(lp75
sg17
(lp76
sg19
(lp77
sg21
I0
sba(iArchitecture
Entity
p78
(dp79
g11
(lp80
sg13
S'android.graphics.drawable.VectorDrawable$VFullPath$1'
p81
sg15
(lp82
sg17
(lp83
sg19
(lp84
sg21
I0
sba(iArchitecture
Entity
p85
(dp86
g11
(lp87
sg13
S'android.graphics.drawable.VectorDrawable$VGroup'
p88
sg15
(lp89
sg17
(lp90
sg19
(lp91
sg21
I0
sba(iArchitecture
Entity
p92
(dp93
g11
(lp94
sg13
S'android.graphics.drawable.VectorDrawable$VGroup$1'
p95
sg15
(lp96
sg17
(lp97
sg19
(lp98
sg21
I0
sba(iArchitecture
Entity
p99
(dp100
g11
(lp101
sg13
S'android.graphics.drawable.VectorDrawable$VObject'
p102
sg15
(lp103
sg17
(lp104
sg19
(lp105
sg21
I0
sba(iArchitecture
Entity
p106
(dp107
g11
(lp108
sg13
S'android.graphics.drawable.VectorDrawable$VPath'
p109
sg15
(lp110
sg17
(lp111
sg19
(lp112
sg21
I0
sba(iArchitecture
Entity
p113
(dp114
g11
(lp115
sg13
S'android.graphics.drawable.VectorDrawable$VectorDrawableState'
p116
sg15
(lp117
sg17
(lp118
sg19
(lp119
sg21
I0
sbasg50
(lp120
g60
ag67
ag74
ag81
ag88
ag95
ag102
ag109
ag116
asg21
I0
sg52
S'1185'
p121
sba(iArchitecture
Cluster
p122
(dp123
g7
(lp124
(iArchitecture
Entity
p125
(dp126
g11
(lp127
sg13
S'android.text.method.MultiTapKeyListener'
p128
sg15
(lp129
sg17
(lp130
sg19
(lp131
sg21
I0
sba(iArchitecture
Entity
p132
(dp133
g11
(lp134
sg13
S'android.text.method.MultiTapKeyListener$Timeout'
p135
sg15
(lp136
sg17
(lp137
sg19
(lp138
sg21
I0
sba(iArchitecture
Entity
p139
(dp140
g11
(lp141
sg13
S'android.text.method.QwertyKeyListener'
p142
sg15
(lp143
sg17
(lp144
sg19
(lp145
sg21
I0
sba(iArchitecture
Entity
p146
(dp147
g11
(lp148
sg13
S'android.text.method.QwertyKeyListener$Replaced'
p149
sg15
(lp150
sg17
(lp151
sg19
(lp152
sg21
I0
sbasg50
(lp153
g128
ag135
ag142
ag149
asg21
I0
sg52
S'1285'
p154
sba(iArchitecture
Cluster
p155
(dp156
g7
(lp157
(iArchitecture
Entity
p158
(dp159
g11
(lp160
sg13
S'android.view.ViewManager'
p161
sg15
(lp162
sg17
(lp163
sg19
(lp164
sg21
I0
sba(iArchitecture
Entity
p165
(dp166
g11
(lp167
sg13
S'android.view.WindowManagerImpl'
p168
sg15
(lp169
sg17
(lp170
sg19
(lp171
sg21
I0
sba(iArchitecture
Entity
p172
(dp173
g11
(lp174
sg13
S'android.view.WindowManagerImpl$1'
p175
sg15
(lp176
sg17
(lp177
sg19
(lp178
sg21
I0
sba(iArchitecture
Entity
p179
(dp180
g11
(lp181
sg13
S'android.widget.RemoteViewsListAdapter'
p182
sg15
(lp183
sg17
(lp184
sg19
(lp185
sg21
I0
sba(iArchitecture
Entity
p186
(dp187
g11
(lp188
sg13
S'com.android.server.am.UserSwitchingDialog'
p189
sg15
(lp190
sg17
(lp191
sg19
(lp192
sg21
I0
sba(iArchitecture
Entity
p193
(dp194
g11
(lp195
sg13
S'com.android.server.am.UserSwitchingDialog$1'
p196
sg15
(lp197
sg17
(lp198
sg19
(lp199
sg21
I0
sbasg50
(lp200
g161
ag168
ag175
ag182
ag189
ag196
asg21
I0
sg52
S'1385'
p201
sba(iArchitecture
Cluster
p202
(dp203
g7
(lp204
(iArchitecture
Entity
p205
(dp206
g11
(lp207
sg13
S'android.view.FocusFinderHelper'
p208
sg15
(lp209
sg17
(lp210
sg19
(lp211
sg21
I0
sbasg50
(lp212
g208
asg21
I0
sg52
S'185'
p213
sba(iArchitecture
Cluster
p214
(dp215
g7
(lp216
(iArchitecture
Entity
p217
(dp218
g11
(lp219
sg13
S'android.media.effect.Effect'
p220
sg15
(lp221
sg17
(lp222
sg19
(lp223
sg21
I0
sbasg50
(lp224
g220
asg21
I0
sg52
S'285'
p225
sba(iArchitecture
Cluster
p226
(dp227
g7
(lp228
(iArchitecture
Entity
p229
(dp230
g11
(lp231
sg13
S'android.webkit.MimeTypeMap'
p232
sg15
(lp233
sg17
(lp234
sg19
(lp235
sg21
I0
sbasg50
(lp236
g232
asg21
I0
sg52
S'385'
p237
sba(iArchitecture
Cluster
p238
(dp239
g7
(lp240
(iArchitecture
Entity
p241
(dp242
g11
(lp243
sg13
S'android.graphics.PaintFlagsDrawFilter'
p244
sg15
(lp245
sg17
(lp246
sg19
(lp247
sg21
I0
sbasg50
(lp248
g244
asg21
I0
sg52
S'485'
p249
sba(iArchitecture
Cluster
p250
(dp251
g7
(lp252
(iArchitecture
Entity
p253
(dp254
g11
(lp255
sg13
S'android.content.AsyncTaskLoader'
p256
sg15
(lp257
sg17
(lp258
sg19
(lp259
sg21
I0
sba(iArchitecture
Entity
p260
(dp261
g11
(lp262
sg13
S'android.content.AsyncTaskLoader$LoadTask'
p263
sg15
(lp264
sg17
(lp265
sg19
(lp266
sg21
I0
sbasg50
(lp267
g256
ag263
asg21
I0
sg52
S'585'
p268
sba(iArchitecture
Cluster
p269
(dp270
g7
(lp271
(iArchitecture
Entity
p272
(dp273
g11
(lp274
sg13
S'android.service.notification.NotificationRankingUpdate'
p275
sg15
(lp276
sg17
(lp277
sg19
(lp278
sg21
I0
sba(iArchitecture
Entity
p279
(dp280
g11
(lp281
sg13
S'android.service.notification.NotificationRankingUpdate$1'
p282
sg15
(lp283
sg17
(lp284
sg19
(lp285
sg21
I0
sbasg50
(lp286
g275
ag282
asg21
I0
sg52
S'685'
p287
sba(iArchitecture
Cluster
p288
(dp289
g7
(lp290
(iArchitecture
Entity
p291
(dp292
g11
(lp293
sg13
S'android.net.NetworkPolicy'
p294
sg15
(lp295
sg17
(lp296
sg19
(lp297
sg21
I0
sba(iArchitecture
Entity
p298
(dp299
g11
(lp300
sg13
S'android.net.NetworkPolicy$1'
p301
sg15
(lp302
sg17
(lp303
sg19
(lp304
sg21
I0
sbasg50
(lp305
g294
ag301
asg21
I0
sg52
S'785'
p306
sba(iArchitecture
Cluster
p307
(dp308
g7
(lp309
(iArchitecture
Entity
p310
(dp311
g11
(lp312
sg13
S'com.android.server.ConsumerIrService'
p313
sg15
(lp314
sg17
(lp315
sg19
(lp316
sg21
I0
sbasg50
(lp317
g313
asg21
I0
sg52
S'85'
p318
sba(iArchitecture
Cluster
p319
(dp320
g7
(lp321
(iArchitecture
Entity
p322
(dp323
g11
(lp324
sg13
S'com.android.server.am.UriPermission'
p325
sg15
(lp326
sg17
(lp327
sg19
(lp328
sg21
I0
sba(iArchitecture
Entity
p329
(dp330
g11
(lp331
sg13
S'com.android.server.am.UriPermission$PersistedTimeComparator'
p332
sg15
(lp333
sg17
(lp334
sg19
(lp335
sg21
I0
sba(iArchitecture
Entity
p336
(dp337
g11
(lp338
sg13
S'com.android.server.am.UriPermission$Snapshot'
p339
sg15
(lp340
sg17
(lp341
sg19
(lp342
sg21
I0
sbasg50
(lp343
g325
ag332
ag339
asg21
I0
sg52
S'850'
p344
sba(iArchitecture
Cluster
p345
(dp346
g7
(lp347
(iArchitecture
Entity
p348
(dp349
g11
(lp350
sg13
S'com.android.server.am.InstrumentationReporter'
p351
sg15
(lp352
sg17
(lp353
sg19
(lp354
sg21
I0
sba(iArchitecture
Entity
p355
(dp356
g11
(lp357
sg13
S'com.android.server.am.InstrumentationReporter$MyThread'
p358
sg15
(lp359
sg17
(lp360
sg19
(lp361
sg21
I0
sba(iArchitecture
Entity
p362
(dp363
g11
(lp364
sg13
S'com.android.server.am.InstrumentationReporter$Report'
p365
sg15
(lp366
sg17
(lp367
sg19
(lp368
sg21
I0
sbasg50
(lp369
g351
ag358
ag365
asg21
I0
sg52
S'851'
p370
sba(iArchitecture
Cluster
p371
(dp372
g7
(lp373
(iArchitecture
Entity
p374
(dp375
g11
(lp376
sg13
S'com.android.server.accessibility.AutoclickController'
p377
sg15
(lp378
sg17
(lp379
sg19
(lp380
sg21
I0
sba(iArchitecture
Entity
p381
(dp382
g11
(lp383
sg13
S'com.android.server.accessibility.AutoclickController$ClickDelayObserver'
p384
sg15
(lp385
sg17
(lp386
sg19
(lp387
sg21
I0
sba(iArchitecture
Entity
p388
(dp389
g11
(lp390
sg13
S'com.android.server.accessibility.AutoclickController$ClickScheduler'
p391
sg15
(lp392
sg17
(lp393
sg19
(lp394
sg21
I0
sbasg50
(lp395
g377
ag384
ag391
asg21
I0
sg52
S'852'
p396
sba(iArchitecture
Cluster
p397
(dp398
g7
(lp399
(iArchitecture
Entity
p400
(dp401
g11
(lp402
sg13
S'android.hardware.radio.RadioModule'
p403
sg15
(lp404
sg17
(lp405
sg19
(lp406
sg21
I0
sba(iArchitecture
Entity
p407
(dp408
g11
(lp409
sg13
S'android.hardware.radio.RadioModule$NativeEventHandlerDelegate'
p410
sg15
(lp411
sg17
(lp412
sg19
(lp413
sg21
I0
sba(iArchitecture
Entity
p414
(dp415
g11
(lp416
sg13
S'android.hardware.radio.RadioModule$NativeEventHandlerDelegate$1'
p417
sg15
(lp418
sg17
(lp419
sg19
(lp420
sg21
I0
sbasg50
(lp421
g403
ag410
ag417
asg21
I0
sg52
S'853'
p422
sba(iArchitecture
Cluster
p423
(dp424
g7
(lp425
(iArchitecture
Entity
p426
(dp427
g11
(lp428
sg13
S'android.graphics.drawable.GradientDrawable'
p429
sg15
(lp430
sg17
(lp431
sg19
(lp432
sg21
I0
sba(iArchitecture
Entity
p433
(dp434
g11
(lp435
sg13
S'android.graphics.drawable.GradientDrawable$GradientState'
p436
sg15
(lp437
sg17
(lp438
sg19
(lp439
sg21
I0
sba(iArchitecture
Entity
p440
(dp441
g11
(lp442
sg13
S'android.graphics.drawable.GradientDrawable$Orientation'
p443
sg15
(lp444
sg17
(lp445
sg19
(lp446
sg21
I0
sbasg50
(lp447
g429
ag436
ag443
asg21
I0
sg52
S'854'
p448
sba(iArchitecture
Cluster
p449
(dp450
g7
(lp451
(iArchitecture
Entity
p452
(dp453
g11
(lp454
sg13
S'com.android.server.job.JobPackageTracker'
p455
sg15
(lp456
sg17
(lp457
sg19
(lp458
sg21
I0
sba(iArchitecture
Entity
p459
(dp460
g11
(lp461
sg13
S'com.android.server.job.JobPackageTracker$DataSet'
p462
sg15
(lp463
sg17
(lp464
sg19
(lp465
sg21
I0
sba(iArchitecture
Entity
p466
(dp467
g11
(lp468
sg13
S'com.android.server.job.JobPackageTracker$PackageEntry'
p469
sg15
(lp470
sg17
(lp471
sg19
(lp472
sg21
I0
sbasg50
(lp473
g455
ag462
ag469
asg21
I0
sg52
S'855'
p474
sba(iArchitecture
Cluster
p475
(dp476
g7
(lp477
(iArchitecture
Entity
p478
(dp479
g11
(lp480
sg13
S'android.graphics.Matrix'
p481
sg15
(lp482
sg17
(lp483
sg19
(lp484
sg21
I0
sba(iArchitecture
Entity
p485
(dp486
g11
(lp487
sg13
S'android.graphics.Matrix$1'
p488
sg15
(lp489
sg17
(lp490
sg19
(lp491
sg21
I0
sba(iArchitecture
Entity
p492
(dp493
g11
(lp494
sg13
S'android.graphics.Matrix$ScaleToFit'
p495
sg15
(lp496
sg17
(lp497
sg19
(lp498
sg21
I0
sbasg50
(lp499
g481
ag488
ag495
asg21
I0
sg52
S'856'
p500
sba(iArchitecture
Cluster
p501
(dp502
g7
(lp503
(iArchitecture
Entity
p504
(dp505
g11
(lp506
sg13
S'android.media.audiopolicy.AudioMixingRule'
p507
sg15
(lp508
sg17
(lp509
sg19
(lp510
sg21
I0
sba(iArchitecture
Entity
p511
(dp512
g11
(lp513
sg13
S'android.media.audiopolicy.AudioMixingRule$AudioMixMatchCriterion'
p514
sg15
(lp515
sg17
(lp516
sg19
(lp517
sg21
I0
sba(iArchitecture
Entity
p518
(dp519
g11
(lp520
sg13
S'android.media.audiopolicy.AudioMixingRule$Builder'
p521
sg15
(lp522
sg17
(lp523
sg19
(lp524
sg21
I0
sbasg50
(lp525
g507
ag514
ag521
asg21
I0
sg52
S'857'
p526
sba(iArchitecture
Cluster
p527
(dp528
g7
(lp529
(iArchitecture
Entity
p530
(dp531
g11
(lp532
sg13
S'android.graphics.drawable.LayerDrawable'
p533
sg15
(lp534
sg17
(lp535
sg19
(lp536
sg21
I0
sba(iArchitecture
Entity
p537
(dp538
g11
(lp539
sg13
S'android.graphics.drawable.LayerDrawable$ChildDrawable'
p540
sg15
(lp541
sg17
(lp542
sg19
(lp543
sg21
I0
sba(iArchitecture
Entity
p544
(dp545
g11
(lp546
sg13
S'android.graphics.drawable.LayerDrawable$LayerState'
p547
sg15
(lp548
sg17
(lp549
sg19
(lp550
sg21
I0
sbasg50
(lp551
g533
ag540
ag547
asg21
I0
sg52
S'858'
p552
sba(iArchitecture
Cluster
p553
(dp554
g7
(lp555
(iArchitecture
Entity
p556
(dp557
g11
(lp558
sg13
S'android.view.WindowManagerGlobal'
p559
sg15
(lp560
sg17
(lp561
sg19
(lp562
sg21
I0
sba(iArchitecture
Entity
p563
(dp564
g11
(lp565
sg13
S'android.view.WindowManagerGlobal$1'
p566
sg15
(lp567
sg17
(lp568
sg19
(lp569
sg21
I0
sba(iArchitecture
Entity
p570
(dp571
g11
(lp572
sg13
S'android.view.WindowManagerGlobal$2'
p573
sg15
(lp574
sg17
(lp575
sg19
(lp576
sg21
I0
sbasg50
(lp577
g559
ag566
ag573
asg21
I0
sg52
S'859'
p578
sba(iArchitecture
Cluster
p579
(dp580
g7
(lp581
(iArchitecture
Entity
p582
(dp583
g11
(lp584
sg13
S'com.android.server.wm.TaskPositioner'
p585
sg15
(lp586
sg17
(lp587
sg19
(lp588
sg21
I0
sba(iArchitecture
Entity
p589
(dp590
g11
(lp591
sg13
S'com.android.server.wm.TaskPositioner$CtrlType'
p592
sg15
(lp593
sg17
(lp594
sg19
(lp595
sg21
I0
sba(iArchitecture
Entity
p596
(dp597
g11
(lp598
sg13
S'com.android.server.wm.TaskPositioner$WindowPositionerEventReceiver'
p599
sg15
(lp600
sg17
(lp601
sg19
(lp602
sg21
I0
sbasg50
(lp603
g585
ag592
ag599
asg21
I0
sg52
S'885'
p604
sba(iArchitecture
Cluster
p605
(dp606
g7
(lp607
(iArchitecture
Entity
p608
(dp609
g11
(lp610
sg13
S'com.android.server.pm.EphemeralResolverConnection'
p611
sg15
(lp612
sg17
(lp613
sg19
(lp614
sg21
I0
sba(iArchitecture
Entity
p615
(dp616
g11
(lp617
sg13
S'com.android.server.pm.EphemeralResolverConnection$GetEphemeralResolveInfoCaller'
p618
sg15
(lp619
sg17
(lp620
sg19
(lp621
sg21
I0
sba(iArchitecture
Entity
p622
(dp623
g11
(lp624
sg13
S'com.android.server.pm.EphemeralResolverConnection$GetEphemeralResolveInfoCaller$1'
p625
sg15
(lp626
sg17
(lp627
sg19
(lp628
sg21
I0
sba(iArchitecture
Entity
p629
(dp630
g11
(lp631
sg13
S'com.android.server.pm.EphemeralResolverConnection$MyServiceConnection'
p632
sg15
(lp633
sg17
(lp634
sg19
(lp635
sg21
I0
sbasg50
(lp636
g611
ag618
ag625
ag632
asg21
I0
sg52
S'985'
p637
sbasS'target_sub'
p638
S'85'
p639
sg50
(lp640
sS'is_component_arch'
p641
I01
sg52
S'7.0.0_r1'
p642
sba.