(lp0
(iArchitecture
Architecture
p1
(dp2
S'clusters'
p3
(lp4
(iArchitecture
Cluster
p5
(dp6
S'entities'
p7
(lp8
(iArchitecture
Entity
p9
(dp10
S'issue_ids'
p11
(lp12
sS'name'
p13
S'com.android.server.MmsServiceBroker'
p14
sS'descs'
p15
(lp16
sS'labels'
p17
(lp18
sS'titles'
p19
(lp20
sS'change'
p21
I0
sba(iArchitecture
Entity
p22
(dp23
g11
(lp24
sg13
S'com.android.server.MmsServiceBroker$1'
p25
sg15
(lp26
sg17
(lp27
sg19
(lp28
sg21
I0
sba(iArchitecture
Entity
p29
(dp30
g11
(lp31
sg13
S'com.android.server.MmsServiceBroker$2'
p32
sg15
(lp33
sg17
(lp34
sg19
(lp35
sg21
I0
sba(iArchitecture
Entity
p36
(dp37
g11
(lp38
sg13
S'com.android.server.MmsServiceBroker$3'
p39
sg15
(lp40
sg17
(lp41
sg19
(lp42
sg21
I0
sba(iArchitecture
Entity
p43
(dp44
g11
(lp45
sg13
S'com.android.server.MmsServiceBroker$BinderService'
p46
sg15
(lp47
sg17
(lp48
sg19
(lp49
sg21
I0
sbasS'classes'
p50
(lp51
g14
ag25
ag32
ag39
ag46
asg21
I0
sS'label'
p52
S'1095'
p53
sba(iArchitecture
Cluster
p54
(dp55
g7
(lp56
(iArchitecture
Entity
p57
(dp58
g11
(lp59
sg13
S'android.widget.MediaController'
p60
sg15
(lp61
sg17
(lp62
sg19
(lp63
sg21
I0
sba(iArchitecture
Entity
p64
(dp65
g11
(lp66
sg13
S'android.widget.MediaController$1'
p67
sg15
(lp68
sg17
(lp69
sg19
(lp70
sg21
I0
sba(iArchitecture
Entity
p71
(dp72
g11
(lp73
sg13
S'android.widget.MediaController$2'
p74
sg15
(lp75
sg17
(lp76
sg19
(lp77
sg21
I0
sba(iArchitecture
Entity
p78
(dp79
g11
(lp80
sg13
S'android.widget.MediaController$3'
p81
sg15
(lp82
sg17
(lp83
sg19
(lp84
sg21
I0
sba(iArchitecture
Entity
p85
(dp86
g11
(lp87
sg13
S'android.widget.MediaController$4'
p88
sg15
(lp89
sg17
(lp90
sg19
(lp91
sg21
I0
sba(iArchitecture
Entity
p92
(dp93
g11
(lp94
sg13
S'android.widget.MediaController$5'
p95
sg15
(lp96
sg17
(lp97
sg19
(lp98
sg21
I0
sba(iArchitecture
Entity
p99
(dp100
g11
(lp101
sg13
S'android.widget.MediaController$6'
p102
sg15
(lp103
sg17
(lp104
sg19
(lp105
sg21
I0
sba(iArchitecture
Entity
p106
(dp107
g11
(lp108
sg13
S'android.widget.MediaController$7'
p109
sg15
(lp110
sg17
(lp111
sg19
(lp112
sg21
I0
sba(iArchitecture
Entity
p113
(dp114
g11
(lp115
sg13
S'android.widget.MediaController$8'
p116
sg15
(lp117
sg17
(lp118
sg19
(lp119
sg21
I0
sba(iArchitecture
Entity
p120
(dp121
g11
(lp122
sg13
S'android.widget.MediaController$MediaPlayerControl'
p123
sg15
(lp124
sg17
(lp125
sg19
(lp126
sg21
I0
sbasg50
(lp127
g60
ag67
ag74
ag81
ag88
ag95
ag102
ag109
ag116
ag123
asg21
I0
sg52
S'1195'
p128
sba(iArchitecture
Cluster
p129
(dp130
g7
(lp131
(iArchitecture
Entity
p132
(dp133
g11
(lp134
sg13
S'android.hardware.location.NanoApp'
p135
sg15
(lp136
sg17
(lp137
sg19
(lp138
sg21
I0
sba(iArchitecture
Entity
p139
(dp140
g11
(lp141
sg13
S'android.hardware.location.NanoApp$1'
p142
sg15
(lp143
sg17
(lp144
sg19
(lp145
sg21
I0
sba(iArchitecture
Entity
p146
(dp147
g11
(lp148
sg13
S'android.hardware.location.NanoAppInstanceInfo'
p149
sg15
(lp150
sg17
(lp151
sg19
(lp152
sg21
I0
sba(iArchitecture
Entity
p153
(dp154
g11
(lp155
sg13
S'android.hardware.location.NanoAppInstanceInfo$1'
p156
sg15
(lp157
sg17
(lp158
sg19
(lp159
sg21
I0
sbasg50
(lp160
g135
ag142
ag149
ag156
asg21
I0
sg52
S'1295'
p161
sba(iArchitecture
Cluster
p162
(dp163
g7
(lp164
(iArchitecture
Entity
p165
(dp166
g11
(lp167
sg13
S'android.telecom.ParcelableCall'
p168
sg15
(lp169
sg17
(lp170
sg19
(lp171
sg21
I0
sba(iArchitecture
Entity
p172
(dp173
g11
(lp174
sg13
S'android.telecom.ParcelableCall$1'
p175
sg15
(lp176
sg17
(lp177
sg19
(lp178
sg21
I0
sba(iArchitecture
Entity
p179
(dp180
g11
(lp181
sg13
S'android.telecom.ParcelableConnection'
p182
sg15
(lp183
sg17
(lp184
sg19
(lp185
sg21
I0
sba(iArchitecture
Entity
p186
(dp187
g11
(lp188
sg13
S'android.telecom.ParcelableConnection$1'
p189
sg15
(lp190
sg17
(lp191
sg19
(lp192
sg21
I0
sbasg50
(lp193
g168
ag175
ag182
ag189
asg21
I0
sg52
S'1395'
p194
sba(iArchitecture
Cluster
p195
(dp196
g7
(lp197
(iArchitecture
Entity
p198
(dp199
g11
(lp200
sg13
S'android.net.util.IpUtils'
p201
sg15
(lp202
sg17
(lp203
sg19
(lp204
sg21
I0
sbasg50
(lp205
g201
asg21
I0
sg52
S'195'
p206
sba(iArchitecture
Cluster
p207
(dp208
g7
(lp209
(iArchitecture
Entity
p210
(dp211
g11
(lp212
sg13
S'android.net.wimax.WimaxManagerConstants'
p213
sg15
(lp214
sg17
(lp215
sg19
(lp216
sg21
I0
sbasg50
(lp217
g213
asg21
I0
sg52
S'295'
p218
sba(iArchitecture
Cluster
p219
(dp220
g7
(lp221
(iArchitecture
Entity
p222
(dp223
g11
(lp224
sg13
S'android.util.Patterns'
p225
sg15
(lp226
sg17
(lp227
sg19
(lp228
sg21
I0
sbasg50
(lp229
g225
asg21
I0
sg52
S'395'
p230
sba(iArchitecture
Cluster
p231
(dp232
g7
(lp233
(iArchitecture
Entity
p234
(dp235
g11
(lp236
sg13
S'org.apache.http.conn.ssl.SSLSocketFactory'
p237
sg15
(lp238
sg17
(lp239
sg19
(lp240
sg21
I0
sba(iArchitecture
Entity
p241
(dp242
g11
(lp243
sg13
S'org.apache.http.conn.ssl.SSLSocketFactory$NoPreloadHolder'
p244
sg15
(lp245
sg17
(lp246
sg19
(lp247
sg21
I0
sbasg50
(lp248
g237
ag244
asg21
I0
sg52
S'495'
p249
sba(iArchitecture
Cluster
p250
(dp251
g7
(lp252
(iArchitecture
Entity
p253
(dp254
g11
(lp255
sg13
S'android.renderscript.RenderScriptGL'
p256
sg15
(lp257
sg17
(lp258
sg19
(lp259
sg21
I0
sba(iArchitecture
Entity
p260
(dp261
g11
(lp262
sg13
S'android.renderscript.RenderScriptGL$SurfaceConfig'
p263
sg15
(lp264
sg17
(lp265
sg19
(lp266
sg21
I0
sbasg50
(lp267
g256
ag263
asg21
I0
sg52
S'595'
p268
sba(iArchitecture
Cluster
p269
(dp270
g7
(lp271
(iArchitecture
Entity
p272
(dp273
g11
(lp274
sg13
S'android.telecom.ParcelableConference'
p275
sg15
(lp276
sg17
(lp277
sg19
(lp278
sg21
I0
sba(iArchitecture
Entity
p279
(dp280
g11
(lp281
sg13
S'android.telecom.ParcelableConference$1'
p282
sg15
(lp283
sg17
(lp284
sg19
(lp285
sg21
I0
sbasg50
(lp286
g275
ag282
asg21
I0
sg52
S'695'
p287
sba(iArchitecture
Cluster
p288
(dp289
g7
(lp290
(iArchitecture
Entity
p291
(dp292
g11
(lp293
sg13
S'android.hardware.display.VirtualDisplay'
p294
sg15
(lp295
sg17
(lp296
sg19
(lp297
sg21
I0
sba(iArchitecture
Entity
p298
(dp299
g11
(lp300
sg13
S'android.hardware.display.VirtualDisplay$Callback'
p301
sg15
(lp302
sg17
(lp303
sg19
(lp304
sg21
I0
sbasg50
(lp305
g294
ag301
asg21
I0
sg52
S'795'
p306
sba(iArchitecture
Cluster
p307
(dp308
g7
(lp309
(iArchitecture
Entity
p310
(dp311
g11
(lp312
sg13
S'android.app.admin.DeviceAdminInfo'
p313
sg15
(lp314
sg17
(lp315
sg19
(lp316
sg21
I0
sba(iArchitecture
Entity
p317
(dp318
g11
(lp319
sg13
S'android.app.admin.DeviceAdminInfo$1'
p320
sg15
(lp321
sg17
(lp322
sg19
(lp323
sg21
I0
sba(iArchitecture
Entity
p324
(dp325
g11
(lp326
sg13
S'android.app.admin.DeviceAdminInfo$PolicyInfo'
p327
sg15
(lp328
sg17
(lp329
sg19
(lp330
sg21
I0
sbasg50
(lp331
g313
ag320
ag327
asg21
I0
sg52
S'895'
p332
sba(iArchitecture
Cluster
p333
(dp334
g7
(lp335
(iArchitecture
Entity
p336
(dp337
g11
(lp338
sg13
S'android.security.net.config.NetworkSecurityConfigProvider'
p339
sg15
(lp340
sg17
(lp341
sg19
(lp342
sg21
I0
sbasg50
(lp343
g339
asg21
I0
sg52
S'95'
p344
sba(iArchitecture
Cluster
p345
(dp346
g7
(lp347
(iArchitecture
Entity
p348
(dp349
g11
(lp350
sg13
S'android.net.UrlQuerySanitizer'
p351
sg15
(lp352
sg17
(lp353
sg19
(lp354
sg21
I0
sba(iArchitecture
Entity
p355
(dp356
g11
(lp357
sg13
S'android.net.UrlQuerySanitizer$IllegalCharacterValueSanitizer'
p358
sg15
(lp359
sg17
(lp360
sg19
(lp361
sg21
I0
sba(iArchitecture
Entity
p362
(dp363
g11
(lp364
sg13
S'android.net.UrlQuerySanitizer$ParameterValuePair'
p365
sg15
(lp366
sg17
(lp367
sg19
(lp368
sg21
I0
sba(iArchitecture
Entity
p369
(dp370
g11
(lp371
sg13
S'android.net.UrlQuerySanitizer$ValueSanitizer'
p372
sg15
(lp373
sg17
(lp374
sg19
(lp375
sg21
I0
sbasg50
(lp376
g351
ag358
ag365
ag372
asg21
I0
sg52
S'950'
p377
sba(iArchitecture
Cluster
p378
(dp379
g7
(lp380
(iArchitecture
Entity
p381
(dp382
g11
(lp383
sg13
S'android.content.SyncRequest'
p384
sg15
(lp385
sg17
(lp386
sg19
(lp387
sg21
I0
sba(iArchitecture
Entity
p388
(dp389
g11
(lp390
sg13
S'android.content.SyncRequest$1'
p391
sg15
(lp392
sg17
(lp393
sg19
(lp394
sg21
I0
sba(iArchitecture
Entity
p395
(dp396
g11
(lp397
sg13
S'android.content.SyncRequest$Builder'
p398
sg15
(lp399
sg17
(lp400
sg19
(lp401
sg21
I0
sbasg50
(lp402
g384
ag391
ag398
asg21
I0
sg52
S'951'
p403
sba(iArchitecture
Cluster
p404
(dp405
g7
(lp406
(iArchitecture
Entity
p407
(dp408
g11
(lp409
sg13
S'android.view.RenderNodeAnimator'
p410
sg15
(lp411
sg17
(lp412
sg19
(lp413
sg21
I0
sba(iArchitecture
Entity
p414
(dp415
g11
(lp416
sg13
S'android.view.RenderNodeAnimator$1'
p417
sg15
(lp418
sg17
(lp419
sg19
(lp420
sg21
I0
sba(iArchitecture
Entity
p421
(dp422
g11
(lp423
sg13
S'android.view.RenderNodeAnimator$DelayedAnimationHelper'
p424
sg15
(lp425
sg17
(lp426
sg19
(lp427
sg21
I0
sbasg50
(lp428
g410
ag417
ag424
asg21
I0
sg52
S'952'
p429
sba(iArchitecture
Cluster
p430
(dp431
g7
(lp432
(iArchitecture
Entity
p433
(dp434
g11
(lp435
sg13
S'com.android.internal.util.XmlUtils'
p436
sg15
(lp437
sg17
(lp438
sg19
(lp439
sg21
I0
sba(iArchitecture
Entity
p440
(dp441
g11
(lp442
sg13
S'com.android.internal.util.XmlUtils$ReadMapCallback'
p443
sg15
(lp444
sg17
(lp445
sg19
(lp446
sg21
I0
sba(iArchitecture
Entity
p447
(dp448
g11
(lp449
sg13
S'com.android.internal.util.XmlUtils$WriteMapCallback'
p450
sg15
(lp451
sg17
(lp452
sg19
(lp453
sg21
I0
sbasg50
(lp454
g436
ag443
ag450
asg21
I0
sg52
S'953'
p455
sba(iArchitecture
Cluster
p456
(dp457
g7
(lp458
(iArchitecture
Entity
p459
(dp460
g11
(lp461
sg13
S'android.webkit.JsDialogHelper'
p462
sg15
(lp463
sg17
(lp464
sg19
(lp465
sg21
I0
sba(iArchitecture
Entity
p466
(dp467
g11
(lp468
sg13
S'android.webkit.JsDialogHelper$CancelListener'
p469
sg15
(lp470
sg17
(lp471
sg19
(lp472
sg21
I0
sba(iArchitecture
Entity
p473
(dp474
g11
(lp475
sg13
S'android.webkit.JsDialogHelper$PositiveListener'
p476
sg15
(lp477
sg17
(lp478
sg19
(lp479
sg21
I0
sbasg50
(lp480
g462
ag469
ag476
asg21
I0
sg52
S'954'
p481
sba(iArchitecture
Cluster
p482
(dp483
g7
(lp484
(iArchitecture
Entity
p485
(dp486
g11
(lp487
sg13
S'com.android.internal.util.TypedProperties'
p488
sg15
(lp489
sg17
(lp490
sg19
(lp491
sg21
I0
sba(iArchitecture
Entity
p492
(dp493
g11
(lp494
sg13
S'com.android.internal.util.TypedProperties$ParseException'
p495
sg15
(lp496
sg17
(lp497
sg19
(lp498
sg21
I0
sba(iArchitecture
Entity
p499
(dp500
g11
(lp501
sg13
S'com.android.internal.util.TypedProperties$TypeException'
p502
sg15
(lp503
sg17
(lp504
sg19
(lp505
sg21
I0
sbasg50
(lp506
g488
ag495
ag502
asg21
I0
sg52
S'955'
p507
sba(iArchitecture
Cluster
p508
(dp509
g7
(lp510
(iArchitecture
Entity
p511
(dp512
g11
(lp513
sg13
S'android.text.Html'
p514
sg15
(lp515
sg17
(lp516
sg19
(lp517
sg21
I0
sba(iArchitecture
Entity
p518
(dp519
g11
(lp520
sg13
S'android.text.Html$HtmlParser'
p521
sg15
(lp522
sg17
(lp523
sg19
(lp524
sg21
I0
sba(iArchitecture
Entity
p525
(dp526
g11
(lp527
sg13
S'android.text.Html$ImageGetter'
p528
sg15
(lp529
sg17
(lp530
sg19
(lp531
sg21
I0
sba(iArchitecture
Entity
p532
(dp533
g11
(lp534
sg13
S'android.text.Html$TagHandler'
p535
sg15
(lp536
sg17
(lp537
sg19
(lp538
sg21
I0
sbasg50
(lp539
g514
ag521
ag528
ag535
asg21
I0
sg52
S'956'
p540
sba(iArchitecture
Cluster
p541
(dp542
g7
(lp543
(iArchitecture
Entity
p544
(dp545
g11
(lp546
sg13
S'android.graphics.Path'
p547
sg15
(lp548
sg17
(lp549
sg19
(lp550
sg21
I0
sba(iArchitecture
Entity
p551
(dp552
g11
(lp553
sg13
S'android.graphics.Path$Direction'
p554
sg15
(lp555
sg17
(lp556
sg19
(lp557
sg21
I0
sba(iArchitecture
Entity
p558
(dp559
g11
(lp560
sg13
S'android.graphics.Path$FillType'
p561
sg15
(lp562
sg17
(lp563
sg19
(lp564
sg21
I0
sba(iArchitecture
Entity
p565
(dp566
g11
(lp567
sg13
S'android.graphics.Path$Op'
p568
sg15
(lp569
sg17
(lp570
sg19
(lp571
sg21
I0
sbasg50
(lp572
g547
ag554
ag561
ag568
asg21
I0
sg52
S'957'
p573
sba(iArchitecture
Cluster
p574
(dp575
g7
(lp576
(iArchitecture
Entity
p577
(dp578
g11
(lp579
sg13
S'android.provider.SyncStateContract'
p580
sg15
(lp581
sg17
(lp582
sg19
(lp583
sg21
I0
sba(iArchitecture
Entity
p584
(dp585
g11
(lp586
sg13
S'android.provider.SyncStateContract$Columns'
p587
sg15
(lp588
sg17
(lp589
sg19
(lp590
sg21
I0
sba(iArchitecture
Entity
p591
(dp592
g11
(lp593
sg13
S'android.provider.SyncStateContract$Constants'
p594
sg15
(lp595
sg17
(lp596
sg19
(lp597
sg21
I0
sba(iArchitecture
Entity
p598
(dp599
g11
(lp600
sg13
S'android.provider.SyncStateContract$Helpers'
p601
sg15
(lp602
sg17
(lp603
sg19
(lp604
sg21
I0
sbasg50
(lp605
g580
ag587
ag594
ag601
asg21
I0
sg52
S'958'
p606
sba(iArchitecture
Cluster
p607
(dp608
g7
(lp609
(iArchitecture
Entity
p610
(dp611
g11
(lp612
sg13
S'android.graphics.drawable.RippleBackground'
p613
sg15
(lp614
sg17
(lp615
sg19
(lp616
sg21
I0
sba(iArchitecture
Entity
p617
(dp618
g11
(lp619
sg13
S'android.graphics.drawable.RippleBackground$1'
p620
sg15
(lp621
sg17
(lp622
sg19
(lp623
sg21
I0
sba(iArchitecture
Entity
p624
(dp625
g11
(lp626
sg13
S'android.graphics.drawable.RippleBackground$BackgroundProperty'
p627
sg15
(lp628
sg17
(lp629
sg19
(lp630
sg21
I0
sbasg50
(lp631
g613
ag620
ag627
asg21
I0
sg52
S'959'
p632
sba(iArchitecture
Cluster
p633
(dp634
g7
(lp635
(iArchitecture
Entity
p636
(dp637
g11
(lp638
sg13
S'android.content.ClipboardManager'
p639
sg15
(lp640
sg17
(lp641
sg19
(lp642
sg21
I0
sba(iArchitecture
Entity
p643
(dp644
g11
(lp645
sg13
S'android.content.ClipboardManager$1'
p646
sg15
(lp647
sg17
(lp648
sg19
(lp649
sg21
I0
sba(iArchitecture
Entity
p650
(dp651
g11
(lp652
sg13
S'android.content.ClipboardManager$2'
p653
sg15
(lp654
sg17
(lp655
sg19
(lp656
sg21
I0
sba(iArchitecture
Entity
p657
(dp658
g11
(lp659
sg13
S'android.content.ClipboardManager$OnPrimaryClipChangedListener'
p660
sg15
(lp661
sg17
(lp662
sg19
(lp663
sg21
I0
sbasg50
(lp664
g639
ag646
ag653
ag660
asg21
I0
sg52
S'995'
p665
sbasS'target_sub'
p666
S'95'
p667
sg50
(lp668
sS'is_component_arch'
p669
I01
sg52
S'7.0.0_r1'
p670
sba.