(lp0
(iArchitecture
Architecture
p1
(dp2
S'clusters'
p3
(lp4
(iArchitecture
Cluster
p5
(dp6
S'entities'
p7
(lp8
(iArchitecture
Entity
p9
(dp10
S'issue_ids'
p11
(lp12
sS'name'
p13
S'com.android.server.hdmi.HdmiCecStandbyModeHandler'
p14
sS'descs'
p15
(lp16
sS'labels'
p17
(lp18
sS'titles'
p19
(lp20
sS'change'
p21
I0
sba(iArchitecture
Entity
p22
(dp23
g11
(lp24
sg13
S'com.android.server.hdmi.HdmiCecStandbyModeHandler$Aborter'
p25
sg15
(lp26
sg17
(lp27
sg19
(lp28
sg21
I0
sba(iArchitecture
Entity
p29
(dp30
g11
(lp31
sg13
S'com.android.server.hdmi.HdmiCecStandbyModeHandler$AutoOnHandler'
p32
sg15
(lp33
sg17
(lp34
sg19
(lp35
sg21
I0
sba(iArchitecture
Entity
p36
(dp37
g11
(lp38
sg13
S'com.android.server.hdmi.HdmiCecStandbyModeHandler$Bypasser'
p39
sg15
(lp40
sg17
(lp41
sg19
(lp42
sg21
I0
sba(iArchitecture
Entity
p43
(dp44
g11
(lp45
sg13
S'com.android.server.hdmi.HdmiCecStandbyModeHandler$Bystander'
p46
sg15
(lp47
sg17
(lp48
sg19
(lp49
sg21
I0
sba(iArchitecture
Entity
p50
(dp51
g11
(lp52
sg13
S'com.android.server.hdmi.HdmiCecStandbyModeHandler$CecMessageHandler'
p53
sg15
(lp54
sg17
(lp55
sg19
(lp56
sg21
I0
sba(iArchitecture
Entity
p57
(dp58
g11
(lp59
sg13
S'com.android.server.hdmi.HdmiCecStandbyModeHandler$UserControlProcessedHandler'
p60
sg15
(lp61
sg17
(lp62
sg19
(lp63
sg21
I0
sbasS'classes'
p64
(lp65
g14
ag25
ag32
ag39
ag46
ag53
ag60
asg21
I0
sS'label'
p66
S'1094'
p67
sba(iArchitecture
Cluster
p68
(dp69
g7
(lp70
(iArchitecture
Entity
p71
(dp72
g11
(lp73
sg13
S'android.media.midi.MidiManager'
p74
sg15
(lp75
sg17
(lp76
sg19
(lp77
sg21
I0
sba(iArchitecture
Entity
p78
(dp79
g11
(lp80
sg13
S'android.media.midi.MidiManager$1'
p81
sg15
(lp82
sg17
(lp83
sg19
(lp84
sg21
I0
sba(iArchitecture
Entity
p85
(dp86
g11
(lp87
sg13
S'android.media.midi.MidiManager$2'
p88
sg15
(lp89
sg17
(lp90
sg19
(lp91
sg21
I0
sba(iArchitecture
Entity
p92
(dp93
g11
(lp94
sg13
S'android.media.midi.MidiManager$3'
p95
sg15
(lp96
sg17
(lp97
sg19
(lp98
sg21
I0
sba(iArchitecture
Entity
p99
(dp100
g11
(lp101
sg13
S'android.media.midi.MidiManager$DeviceCallback'
p102
sg15
(lp103
sg17
(lp104
sg19
(lp105
sg21
I0
sba(iArchitecture
Entity
p106
(dp107
g11
(lp108
sg13
S'android.media.midi.MidiManager$DeviceListener'
p109
sg15
(lp110
sg17
(lp111
sg19
(lp112
sg21
I0
sba(iArchitecture
Entity
p113
(dp114
g11
(lp115
sg13
S'android.media.midi.MidiManager$DeviceListener$1'
p116
sg15
(lp117
sg17
(lp118
sg19
(lp119
sg21
I0
sba(iArchitecture
Entity
p120
(dp121
g11
(lp122
sg13
S'android.media.midi.MidiManager$DeviceListener$2'
p123
sg15
(lp124
sg17
(lp125
sg19
(lp126
sg21
I0
sba(iArchitecture
Entity
p127
(dp128
g11
(lp129
sg13
S'android.media.midi.MidiManager$DeviceListener$3'
p130
sg15
(lp131
sg17
(lp132
sg19
(lp133
sg21
I0
sba(iArchitecture
Entity
p134
(dp135
g11
(lp136
sg13
S'android.media.midi.MidiManager$OnDeviceOpenedListener'
p137
sg15
(lp138
sg17
(lp139
sg19
(lp140
sg21
I0
sbasg64
(lp141
g74
ag81
ag88
ag95
ag102
ag109
ag116
ag123
ag130
ag137
asg21
I0
sg66
S'1194'
p142
sba(iArchitecture
Cluster
p143
(dp144
g7
(lp145
(iArchitecture
Entity
p146
(dp147
g11
(lp148
sg13
S'android.location.GnssMeasurementsEvent'
p149
sg15
(lp150
sg17
(lp151
sg19
(lp152
sg21
I0
sba(iArchitecture
Entity
p153
(dp154
g11
(lp155
sg13
S'android.location.GnssMeasurementsEvent$1'
p156
sg15
(lp157
sg17
(lp158
sg19
(lp159
sg21
I0
sba(iArchitecture
Entity
p160
(dp161
g11
(lp162
sg13
S'android.location.GnssMeasurementsEvent$Callback'
p163
sg15
(lp164
sg17
(lp165
sg19
(lp166
sg21
I0
sba(iArchitecture
Entity
p167
(dp168
g11
(lp169
sg13
S'android.location.GpsMeasurementsEvent'
p170
sg15
(lp171
sg17
(lp172
sg19
(lp173
sg21
I0
sba(iArchitecture
Entity
p174
(dp175
g11
(lp176
sg13
S'android.location.GpsMeasurementsEvent$1'
p177
sg15
(lp178
sg17
(lp179
sg19
(lp180
sg21
I0
sba(iArchitecture
Entity
p181
(dp182
g11
(lp183
sg13
S'android.location.GpsMeasurementsEvent$Listener'
p184
sg15
(lp185
sg17
(lp186
sg19
(lp187
sg21
I0
sbasg64
(lp188
g149
ag156
ag163
ag170
ag177
ag184
asg21
I0
sg66
S'1294'
p189
sba(iArchitecture
Cluster
p190
(dp191
g7
(lp192
(iArchitecture
Entity
p193
(dp194
g11
(lp195
sg13
S'android.content.DialogInterface'
p196
sg15
(lp197
sg17
(lp198
sg19
(lp199
sg21
I0
sba(iArchitecture
Entity
p200
(dp201
g11
(lp202
sg13
S'android.content.DialogInterface$OnCancelListener'
p203
sg15
(lp204
sg17
(lp205
sg19
(lp206
sg21
I0
sba(iArchitecture
Entity
p207
(dp208
g11
(lp209
sg13
S'android.content.DialogInterface$OnClickListener'
p210
sg15
(lp211
sg17
(lp212
sg19
(lp213
sg21
I0
sba(iArchitecture
Entity
p214
(dp215
g11
(lp216
sg13
S'android.content.DialogInterface$OnDismissListener'
p217
sg15
(lp218
sg17
(lp219
sg19
(lp220
sg21
I0
sba(iArchitecture
Entity
p221
(dp222
g11
(lp223
sg13
S'android.content.DialogInterface$OnKeyListener'
p224
sg15
(lp225
sg17
(lp226
sg19
(lp227
sg21
I0
sba(iArchitecture
Entity
p228
(dp229
g11
(lp230
sg13
S'android.content.DialogInterface$OnMultiChoiceClickListener'
p231
sg15
(lp232
sg17
(lp233
sg19
(lp234
sg21
I0
sba(iArchitecture
Entity
p235
(dp236
g11
(lp237
sg13
S'android.content.DialogInterface$OnShowListener'
p238
sg15
(lp239
sg17
(lp240
sg19
(lp241
sg21
I0
sba(iArchitecture
Entity
p242
(dp243
g11
(lp244
sg13
S'android.hardware.SensorListener'
p245
sg15
(lp246
sg17
(lp247
sg19
(lp248
sg21
I0
sba(iArchitecture
Entity
p249
(dp250
g11
(lp251
sg13
S'android.hardware.TriggerEventListener'
p252
sg15
(lp253
sg17
(lp254
sg19
(lp255
sg21
I0
sba(iArchitecture
Entity
p256
(dp257
g11
(lp258
sg13
S'android.webkit.ServiceWorkerWebSettings'
p259
sg15
(lp260
sg17
(lp261
sg19
(lp262
sg21
I0
sba(iArchitecture
Entity
p263
(dp264
g11
(lp265
sg13
S'org.apache.http.params.HttpParams'
p266
sg15
(lp267
sg17
(lp268
sg19
(lp269
sg21
I0
sbasg64
(lp270
g196
ag203
ag210
ag217
ag224
ag231
ag238
ag245
ag252
ag259
ag266
asg21
I0
sg66
S'1394'
p271
sba(iArchitecture
Cluster
p272
(dp273
g7
(lp274
(iArchitecture
Entity
p275
(dp276
g11
(lp277
sg13
S'com.android.server.wm.DragState'
p278
sg15
(lp279
sg17
(lp280
sg19
(lp281
sg21
I0
sbasg64
(lp282
g278
asg21
I0
sg66
S'194'
p283
sba(iArchitecture
Cluster
p284
(dp285
g7
(lp286
(iArchitecture
Entity
p287
(dp288
g11
(lp289
sg13
S'com.android.server.hdmi.DelayedMessageBuffer'
p290
sg15
(lp291
sg17
(lp292
sg19
(lp293
sg21
I0
sbasg64
(lp294
g290
asg21
I0
sg66
S'294'
p295
sba(iArchitecture
Cluster
p296
(dp297
g7
(lp298
(iArchitecture
Entity
p299
(dp300
g11
(lp301
sg13
S'android.hardware.camera2.DngCreator'
p302
sg15
(lp303
sg17
(lp304
sg19
(lp305
sg21
I0
sbasg64
(lp306
g302
asg21
I0
sg66
S'394'
p307
sba(iArchitecture
Cluster
p308
(dp309
g7
(lp310
(iArchitecture
Entity
p311
(dp312
g11
(lp313
sg13
S'android.view.accessibility.AccessibilityWindowInfo'
p314
sg15
(lp315
sg17
(lp316
sg19
(lp317
sg21
I0
sba(iArchitecture
Entity
p318
(dp319
g11
(lp320
sg13
S'android.view.accessibility.AccessibilityWindowInfo$1'
p321
sg15
(lp322
sg17
(lp323
sg19
(lp324
sg21
I0
sbasg64
(lp325
g314
ag321
asg21
I0
sg66
S'494'
p326
sba(iArchitecture
Cluster
p327
(dp328
g7
(lp329
(iArchitecture
Entity
p330
(dp331
g11
(lp332
sg13
S'android.security.net.config.XmlConfigSource'
p333
sg15
(lp334
sg17
(lp335
sg19
(lp336
sg21
I0
sba(iArchitecture
Entity
p337
(dp338
g11
(lp339
sg13
S'android.security.net.config.XmlConfigSource$ParserException'
p340
sg15
(lp341
sg17
(lp342
sg19
(lp343
sg21
I0
sbasg64
(lp344
g333
ag340
asg21
I0
sg66
S'594'
p345
sba(iArchitecture
Cluster
p346
(dp347
g7
(lp348
(iArchitecture
Entity
p349
(dp350
g11
(lp351
sg13
S'android.telephony.IccOpenLogicalChannelResponse'
p352
sg15
(lp353
sg17
(lp354
sg19
(lp355
sg21
I0
sba(iArchitecture
Entity
p356
(dp357
g11
(lp358
sg13
S'android.telephony.IccOpenLogicalChannelResponse$1'
p359
sg15
(lp360
sg17
(lp361
sg19
(lp362
sg21
I0
sbasg64
(lp363
g352
ag359
asg21
I0
sg66
S'694'
p364
sba(iArchitecture
Cluster
p365
(dp366
g7
(lp367
(iArchitecture
Entity
p368
(dp369
g11
(lp370
sg13
S'android.webkit.WebIconDatabase'
p371
sg15
(lp372
sg17
(lp373
sg19
(lp374
sg21
I0
sba(iArchitecture
Entity
p375
(dp376
g11
(lp377
sg13
S'android.webkit.WebIconDatabase$IconListener'
p378
sg15
(lp379
sg17
(lp380
sg19
(lp381
sg21
I0
sbasg64
(lp382
g371
ag378
asg21
I0
sg66
S'794'
p383
sba(iArchitecture
Cluster
p384
(dp385
g7
(lp386
(iArchitecture
Entity
p387
(dp388
g11
(lp389
sg13
S'android.app.Presentation'
p390
sg15
(lp391
sg17
(lp392
sg19
(lp393
sg21
I0
sba(iArchitecture
Entity
p394
(dp395
g11
(lp396
sg13
S'android.app.Presentation$1'
p397
sg15
(lp398
sg17
(lp399
sg19
(lp400
sg21
I0
sba(iArchitecture
Entity
p401
(dp402
g11
(lp403
sg13
S'android.app.Presentation$2'
p404
sg15
(lp405
sg17
(lp406
sg19
(lp407
sg21
I0
sba(iArchitecture
Entity
p408
(dp409
g11
(lp410
sg13
S'android.app.Presentation$3'
p411
sg15
(lp412
sg17
(lp413
sg19
(lp414
sg21
I0
sbasg64
(lp415
g390
ag397
ag404
ag411
asg21
I0
sg66
S'894'
p416
sba(iArchitecture
Cluster
p417
(dp418
g7
(lp419
(iArchitecture
Entity
p420
(dp421
g11
(lp422
sg13
S'android.database.DefaultDatabaseErrorHandler'
p423
sg15
(lp424
sg17
(lp425
sg19
(lp426
sg21
I0
sbasg64
(lp427
g423
asg21
I0
sg66
S'94'
p428
sba(iArchitecture
Cluster
p429
(dp430
g7
(lp431
(iArchitecture
Entity
p432
(dp433
g11
(lp434
sg13
S'android.app.NotificationManager'
p435
sg15
(lp436
sg17
(lp437
sg19
(lp438
sg21
I0
sba(iArchitecture
Entity
p439
(dp440
g11
(lp441
sg13
S'android.app.NotificationManager$Policy'
p442
sg15
(lp443
sg17
(lp444
sg19
(lp445
sg21
I0
sba(iArchitecture
Entity
p446
(dp447
g11
(lp448
sg13
S'android.app.NotificationManager$Policy$1'
p449
sg15
(lp450
sg17
(lp451
sg19
(lp452
sg21
I0
sbasg64
(lp453
g435
ag442
ag449
asg21
I0
sg66
S'940'
p454
sba(iArchitecture
Cluster
p455
(dp456
g7
(lp457
(iArchitecture
Entity
p458
(dp459
g11
(lp460
sg13
S'android.text.style.LeadingMarginSpan'
p461
sg15
(lp462
sg17
(lp463
sg19
(lp464
sg21
I0
sba(iArchitecture
Entity
p465
(dp466
g11
(lp467
sg13
S'android.text.style.LeadingMarginSpan$LeadingMarginSpan2'
p468
sg15
(lp469
sg17
(lp470
sg19
(lp471
sg21
I0
sba(iArchitecture
Entity
p472
(dp473
g11
(lp474
sg13
S'android.text.style.LeadingMarginSpan$Standard'
p475
sg15
(lp476
sg17
(lp477
sg19
(lp478
sg21
I0
sbasg64
(lp479
g461
ag468
ag475
asg21
I0
sg66
S'941'
p480
sba(iArchitecture
Cluster
p481
(dp482
g7
(lp483
(iArchitecture
Entity
p484
(dp485
g11
(lp486
sg13
S'android.media.EncoderCapabilities'
p487
sg15
(lp488
sg17
(lp489
sg19
(lp490
sg21
I0
sba(iArchitecture
Entity
p491
(dp492
g11
(lp493
sg13
S'android.media.EncoderCapabilities$AudioEncoderCap'
p494
sg15
(lp495
sg17
(lp496
sg19
(lp497
sg21
I0
sba(iArchitecture
Entity
p498
(dp499
g11
(lp500
sg13
S'android.media.EncoderCapabilities$VideoEncoderCap'
p501
sg15
(lp502
sg17
(lp503
sg19
(lp504
sg21
I0
sbasg64
(lp505
g487
ag494
ag501
asg21
I0
sg66
S'942'
p506
sba(iArchitecture
Cluster
p507
(dp508
g7
(lp509
(iArchitecture
Entity
p510
(dp511
g11
(lp512
sg13
S'com.android.internal.app.DumpHeapActivity'
p513
sg15
(lp514
sg17
(lp515
sg19
(lp516
sg21
I0
sba(iArchitecture
Entity
p517
(dp518
g11
(lp519
sg13
S'com.android.internal.app.DumpHeapActivity$1'
p520
sg15
(lp521
sg17
(lp522
sg19
(lp523
sg21
I0
sba(iArchitecture
Entity
p524
(dp525
g11
(lp526
sg13
S'com.android.internal.app.DumpHeapActivity$2'
p527
sg15
(lp528
sg17
(lp529
sg19
(lp530
sg21
I0
sbasg64
(lp531
g513
ag520
ag527
asg21
I0
sg66
S'943'
p532
sba(iArchitecture
Cluster
p533
(dp534
g7
(lp535
(iArchitecture
Entity
p536
(dp537
g11
(lp538
sg13
S'android.webkit.Plugin'
p539
sg15
(lp540
sg17
(lp541
sg19
(lp542
sg21
I0
sba(iArchitecture
Entity
p543
(dp544
g11
(lp545
sg13
S'android.webkit.Plugin$DefaultClickHandler'
p546
sg15
(lp547
sg17
(lp548
sg19
(lp549
sg21
I0
sba(iArchitecture
Entity
p550
(dp551
g11
(lp552
sg13
S'android.webkit.Plugin$PreferencesClickHandler'
p553
sg15
(lp554
sg17
(lp555
sg19
(lp556
sg21
I0
sbasg64
(lp557
g539
ag546
ag553
asg21
I0
sg66
S'944'
p558
sba(iArchitecture
Cluster
p559
(dp560
g7
(lp561
(iArchitecture
Entity
p562
(dp563
g11
(lp564
sg13
S'com.android.internal.midi.EventScheduler'
p565
sg15
(lp566
sg17
(lp567
sg19
(lp568
sg21
I0
sba(iArchitecture
Entity
p569
(dp570
g11
(lp571
sg13
S'com.android.internal.midi.EventScheduler$FastEventQueue'
p572
sg15
(lp573
sg17
(lp574
sg19
(lp575
sg21
I0
sba(iArchitecture
Entity
p576
(dp577
g11
(lp578
sg13
S'com.android.internal.midi.EventScheduler$SchedulableEvent'
p579
sg15
(lp580
sg17
(lp581
sg19
(lp582
sg21
I0
sbasg64
(lp583
g565
ag572
ag579
asg21
I0
sg66
S'945'
p584
sba(iArchitecture
Cluster
p585
(dp586
g7
(lp587
(iArchitecture
Entity
p588
(dp589
g11
(lp590
sg13
S'com.android.server.vr.EnabledComponentsObserver'
p591
sg15
(lp592
sg17
(lp593
sg19
(lp594
sg21
I0
sba(iArchitecture
Entity
p595
(dp596
g11
(lp597
sg13
S'com.android.server.vr.EnabledComponentsObserver$1'
p598
sg15
(lp599
sg17
(lp600
sg19
(lp601
sg21
I0
sba(iArchitecture
Entity
p602
(dp603
g11
(lp604
sg13
S'com.android.server.vr.EnabledComponentsObserver$EnabledComponentChangeListener'
p605
sg15
(lp606
sg17
(lp607
sg19
(lp608
sg21
I0
sbasg64
(lp609
g591
ag598
ag605
asg21
I0
sg66
S'946'
p610
sba(iArchitecture
Cluster
p611
(dp612
g7
(lp613
(iArchitecture
Entity
p614
(dp615
g11
(lp616
sg13
S'android.graphics.Canvas'
p617
sg15
(lp618
sg17
(lp619
sg19
(lp620
sg21
I0
sba(iArchitecture
Entity
p621
(dp622
g11
(lp623
sg13
S'android.graphics.Canvas$EdgeType'
p624
sg15
(lp625
sg17
(lp626
sg19
(lp627
sg21
I0
sba(iArchitecture
Entity
p628
(dp629
g11
(lp630
sg13
S'android.graphics.Canvas$NoImagePreloadHolder'
p631
sg15
(lp632
sg17
(lp633
sg19
(lp634
sg21
I0
sba(iArchitecture
Entity
p635
(dp636
g11
(lp637
sg13
S'android.graphics.Canvas$VertexMode'
p638
sg15
(lp639
sg17
(lp640
sg19
(lp641
sg21
I0
sbasg64
(lp642
g617
ag624
ag631
ag638
asg21
I0
sg66
S'947'
p643
sba(iArchitecture
Cluster
p644
(dp645
g7
(lp646
(iArchitecture
Entity
p647
(dp648
g11
(lp649
sg13
S'android.renderscript.Font'
p650
sg15
(lp651
sg17
(lp652
sg19
(lp653
sg21
I0
sba(iArchitecture
Entity
p654
(dp655
g11
(lp656
sg13
S'android.renderscript.Font$FontFamily'
p657
sg15
(lp658
sg17
(lp659
sg19
(lp660
sg21
I0
sba(iArchitecture
Entity
p661
(dp662
g11
(lp663
sg13
S'android.renderscript.Font$Style'
p664
sg15
(lp665
sg17
(lp666
sg19
(lp667
sg21
I0
sbasg64
(lp668
g650
ag657
ag664
asg21
I0
sg66
S'948'
p669
sba(iArchitecture
Cluster
p670
(dp671
g7
(lp672
(iArchitecture
Entity
p673
(dp674
g11
(lp675
sg13
S'android.app.DatePickerDialog'
p676
sg15
(lp677
sg17
(lp678
sg19
(lp679
sg21
I0
sba(iArchitecture
Entity
p680
(dp681
g11
(lp682
sg13
S'android.app.DatePickerDialog$1'
p683
sg15
(lp684
sg17
(lp685
sg19
(lp686
sg21
I0
sba(iArchitecture
Entity
p687
(dp688
g11
(lp689
sg13
S'android.app.DatePickerDialog$OnDateSetListener'
p690
sg15
(lp691
sg17
(lp692
sg19
(lp693
sg21
I0
sbasg64
(lp694
g676
ag683
ag690
asg21
I0
sg66
S'949'
p695
sba(iArchitecture
Cluster
p696
(dp697
g7
(lp698
(iArchitecture
Entity
p699
(dp700
g11
(lp701
sg13
S'android.security.keystore.KeyStoreCryptoOperationChunkedStreamer'
p702
sg15
(lp703
sg17
(lp704
sg19
(lp705
sg21
I0
sba(iArchitecture
Entity
p706
(dp707
g11
(lp708
sg13
S'android.security.keystore.KeyStoreCryptoOperationChunkedStreamer$MainDataStream'
p709
sg15
(lp710
sg17
(lp711
sg19
(lp712
sg21
I0
sba(iArchitecture
Entity
p713
(dp714
g11
(lp715
sg13
S'android.security.keystore.KeyStoreCryptoOperationChunkedStreamer$Stream'
p716
sg15
(lp717
sg17
(lp718
sg19
(lp719
sg21
I0
sbasg64
(lp720
g702
ag709
ag716
asg21
I0
sg66
S'994'
p721
sbasS'target_sub'
p722
S'94'
p723
sg64
(lp724
sS'is_component_arch'
p725
I01
sg66
S'7.0.0_r1'
p726
sba.