(lp0
(iArchitecture
Architecture
p1
(dp2
S'clusters'
p3
(lp4
(iArchitecture
Cluster
p5
(dp6
S'entities'
p7
(lp8
(iArchitecture
Entity
p9
(dp10
S'issue_ids'
p11
(lp12
sS'name'
p13
S'android.util.TimeUtils'
p14
sS'descs'
p15
(lp16
sS'labels'
p17
(lp18
sS'titles'
p19
(lp20
sS'change'
p21
I0
sbasS'classes'
p22
(lp23
g14
asg21
I0
sS'label'
p24
S'10'
p25
sba(iArchitecture
Cluster
p26
(dp27
g7
(lp28
(iArchitecture
Entity
p29
(dp30
g11
(lp31
sg13
S'com.android.internal.widget.NotificationExpandButton'
p32
sg15
(lp33
sg17
(lp34
sg19
(lp35
sg21
I0
sbasg22
(lp36
g32
asg21
I0
sg24
S'100'
p37
sba(iArchitecture
Cluster
p38
(dp39
g7
(lp40
(iArchitecture
Entity
p41
(dp42
g11
(lp43
sg13
S'android.telephony.PhoneStateListener'
p44
sg15
(lp45
sg17
(lp46
sg19
(lp47
sg21
I0
sba(iArchitecture
Entity
p48
(dp49
g11
(lp50
sg13
S'android.telephony.PhoneStateListener$1'
p51
sg15
(lp52
sg17
(lp53
sg19
(lp54
sg21
I0
sba(iArchitecture
Entity
p55
(dp56
g11
(lp57
sg13
S'android.telephony.PhoneStateListener$IPhoneStateListenerStub'
p58
sg15
(lp59
sg17
(lp60
sg19
(lp61
sg21
I0
sbasg22
(lp62
g44
ag51
ag58
asg21
I0
sg24
S'1000'
p63
sba(iArchitecture
Cluster
p64
(dp65
g7
(lp66
(iArchitecture
Entity
p67
(dp68
g11
(lp69
sg13
S'android.telecom.ConnectionServiceAdapterServant'
p70
sg15
(lp71
sg17
(lp72
sg19
(lp73
sg21
I0
sba(iArchitecture
Entity
p74
(dp75
g11
(lp76
sg13
S'android.telecom.ConnectionServiceAdapterServant$1'
p77
sg15
(lp78
sg17
(lp79
sg19
(lp80
sg21
I0
sba(iArchitecture
Entity
p81
(dp82
g11
(lp83
sg13
S'android.telecom.ConnectionServiceAdapterServant$2'
p84
sg15
(lp85
sg17
(lp86
sg19
(lp87
sg21
I0
sbasg22
(lp88
g70
ag77
ag84
asg21
I0
sg24
S'1001'
p89
sba(iArchitecture
Cluster
p90
(dp91
g7
(lp92
(iArchitecture
Entity
p93
(dp94
g11
(lp95
sg13
S'android.net.apf.ApfFilter'
p96
sg15
(lp97
sg17
(lp98
sg19
(lp99
sg21
I0
sba(iArchitecture
Entity
p100
(dp101
g11
(lp102
sg13
S'android.net.apf.ApfFilter$Ra'
p103
sg15
(lp104
sg17
(lp105
sg19
(lp106
sg21
I0
sba(iArchitecture
Entity
p107
(dp108
g11
(lp109
sg13
S'android.net.apf.ApfFilter$ReceiveThread'
p110
sg15
(lp111
sg17
(lp112
sg19
(lp113
sg21
I0
sbasg22
(lp114
g96
ag103
ag110
asg21
I0
sg24
S'1002'
p115
sba(iArchitecture
Cluster
p116
(dp117
g7
(lp118
(iArchitecture
Entity
p119
(dp120
g11
(lp121
sg13
S'android.location.FusedBatchOptions'
p122
sg15
(lp123
sg17
(lp124
sg19
(lp125
sg21
I0
sba(iArchitecture
Entity
p126
(dp127
g11
(lp128
sg13
S'android.location.FusedBatchOptions$1'
p129
sg15
(lp130
sg17
(lp131
sg19
(lp132
sg21
I0
sba(iArchitecture
Entity
p133
(dp134
g11
(lp135
sg13
S'android.location.FusedBatchOptions$BatchFlags'
p136
sg15
(lp137
sg17
(lp138
sg19
(lp139
sg21
I0
sba(iArchitecture
Entity
p140
(dp141
g11
(lp142
sg13
S'android.location.FusedBatchOptions$SourceTechnologies'
p143
sg15
(lp144
sg17
(lp145
sg19
(lp146
sg21
I0
sbasg22
(lp147
g122
ag129
ag136
ag143
asg21
I0
sg24
S'1003'
p148
sba(iArchitecture
Cluster
p149
(dp150
g7
(lp151
(iArchitecture
Entity
p152
(dp153
g11
(lp154
sg13
S'android.location.Location'
p155
sg15
(lp156
sg17
(lp157
sg19
(lp158
sg21
I0
sba(iArchitecture
Entity
p159
(dp160
g11
(lp161
sg13
S'android.location.Location$1'
p162
sg15
(lp163
sg17
(lp164
sg19
(lp165
sg21
I0
sba(iArchitecture
Entity
p166
(dp167
g11
(lp168
sg13
S'android.location.Location$2'
p169
sg15
(lp170
sg17
(lp171
sg19
(lp172
sg21
I0
sba(iArchitecture
Entity
p173
(dp174
g11
(lp175
sg13
S'android.location.Location$BearingDistanceCache'
p176
sg15
(lp177
sg17
(lp178
sg19
(lp179
sg21
I0
sbasg22
(lp180
g155
ag162
ag169
ag176
asg21
I0
sg24
S'1004'
p181
sba(iArchitecture
Cluster
p182
(dp183
g7
(lp184
(iArchitecture
Entity
p185
(dp186
g11
(lp187
sg13
S'android.os.Handler'
p188
sg15
(lp189
sg17
(lp190
sg19
(lp191
sg21
I0
sba(iArchitecture
Entity
p192
(dp193
g11
(lp194
sg13
S'android.os.Handler$BlockingRunnable'
p195
sg15
(lp196
sg17
(lp197
sg19
(lp198
sg21
I0
sba(iArchitecture
Entity
p199
(dp200
g11
(lp201
sg13
S'android.os.Handler$Callback'
p202
sg15
(lp203
sg17
(lp204
sg19
(lp205
sg21
I0
sba(iArchitecture
Entity
p206
(dp207
g11
(lp208
sg13
S'android.os.Handler$MessengerImpl'
p209
sg15
(lp210
sg17
(lp211
sg19
(lp212
sg21
I0
sbasg22
(lp213
g188
ag195
ag202
ag209
asg21
I0
sg24
S'1005'
p214
sba(iArchitecture
Cluster
p215
(dp216
g7
(lp217
(iArchitecture
Entity
p218
(dp219
g11
(lp220
sg13
S'android.widget.CompoundButton'
p221
sg15
(lp222
sg17
(lp223
sg19
(lp224
sg21
I0
sba(iArchitecture
Entity
p225
(dp226
g11
(lp227
sg13
S'android.widget.CompoundButton$OnCheckedChangeListener'
p228
sg15
(lp229
sg17
(lp230
sg19
(lp231
sg21
I0
sba(iArchitecture
Entity
p232
(dp233
g11
(lp234
sg13
S'android.widget.CompoundButton$SavedState'
p235
sg15
(lp236
sg17
(lp237
sg19
(lp238
sg21
I0
sba(iArchitecture
Entity
p239
(dp240
g11
(lp241
sg13
S'android.widget.CompoundButton$SavedState$1'
p242
sg15
(lp243
sg17
(lp244
sg19
(lp245
sg21
I0
sbasg22
(lp246
g221
ag228
ag235
ag242
asg21
I0
sg24
S'1006'
p247
sba(iArchitecture
Cluster
p248
(dp249
g7
(lp250
(iArchitecture
Entity
p251
(dp252
g11
(lp253
sg13
S'android.view.AccessibilityInteractionController'
p254
sg15
(lp255
sg17
(lp256
sg19
(lp257
sg21
I0
sba(iArchitecture
Entity
p258
(dp259
g11
(lp260
sg13
S'android.view.AccessibilityInteractionController$AccessibilityNodePrefetcher'
p261
sg15
(lp262
sg17
(lp263
sg19
(lp264
sg21
I0
sba(iArchitecture
Entity
p265
(dp266
g11
(lp267
sg13
S'android.view.AccessibilityInteractionController$AddNodeInfosForViewId'
p268
sg15
(lp269
sg17
(lp270
sg19
(lp271
sg21
I0
sba(iArchitecture
Entity
p272
(dp273
g11
(lp274
sg13
S'android.view.AccessibilityInteractionController$PrivateHandler'
p275
sg15
(lp276
sg17
(lp277
sg19
(lp278
sg21
I0
sbasg22
(lp279
g254
ag261
ag268
ag275
asg21
I0
sg24
S'1007'
p280
sba(iArchitecture
Cluster
p281
(dp282
g7
(lp283
(iArchitecture
Entity
p284
(dp285
g11
(lp286
sg13
S'android.database.sqlite.SQLiteConnectionPool'
p287
sg15
(lp288
sg17
(lp289
sg19
(lp290
sg21
I0
sba(iArchitecture
Entity
p291
(dp292
g11
(lp293
sg13
S'android.database.sqlite.SQLiteConnectionPool$1'
p294
sg15
(lp295
sg17
(lp296
sg19
(lp297
sg21
I0
sba(iArchitecture
Entity
p298
(dp299
g11
(lp300
sg13
S'android.database.sqlite.SQLiteConnectionPool$AcquiredConnectionStatus'
p301
sg15
(lp302
sg17
(lp303
sg19
(lp304
sg21
I0
sba(iArchitecture
Entity
p305
(dp306
g11
(lp307
sg13
S'android.database.sqlite.SQLiteConnectionPool$ConnectionWaiter'
p308
sg15
(lp309
sg17
(lp310
sg19
(lp311
sg21
I0
sbasg22
(lp312
g287
ag294
ag301
ag308
asg21
I0
sg24
S'1008'
p313
sba(iArchitecture
Cluster
p314
(dp315
g7
(lp316
(iArchitecture
Entity
p317
(dp318
g11
(lp319
sg13
S'com.android.internal.view.RotationPolicy'
p320
sg15
(lp321
sg17
(lp322
sg19
(lp323
sg21
I0
sba(iArchitecture
Entity
p324
(dp325
g11
(lp326
sg13
S'com.android.internal.view.RotationPolicy$1'
p327
sg15
(lp328
sg17
(lp329
sg19
(lp330
sg21
I0
sba(iArchitecture
Entity
p331
(dp332
g11
(lp333
sg13
S'com.android.internal.view.RotationPolicy$RotationPolicyListener'
p334
sg15
(lp335
sg17
(lp336
sg19
(lp337
sg21
I0
sba(iArchitecture
Entity
p338
(dp339
g11
(lp340
sg13
S'com.android.internal.view.RotationPolicy$RotationPolicyListener$1'
p341
sg15
(lp342
sg17
(lp343
sg19
(lp344
sg21
I0
sbasg22
(lp345
g320
ag327
ag334
ag341
asg21
I0
sg24
S'1009'
p346
sba(iArchitecture
Cluster
p347
(dp348
g7
(lp349
(iArchitecture
Entity
p350
(dp351
g11
(lp352
sg13
S'android.text.style.LocaleSpan'
p353
sg15
(lp354
sg17
(lp355
sg19
(lp356
sg21
I0
sbasg22
(lp357
g353
asg21
I0
sg24
S'101'
p358
sba(iArchitecture
Cluster
p359
(dp360
g7
(lp361
(iArchitecture
Entity
p362
(dp363
g11
(lp364
sg13
S'android.widget.TextClock'
p365
sg15
(lp366
sg17
(lp367
sg19
(lp368
sg21
I0
sba(iArchitecture
Entity
p369
(dp370
g11
(lp371
sg13
S'android.widget.TextClock$1'
p372
sg15
(lp373
sg17
(lp374
sg19
(lp375
sg21
I0
sba(iArchitecture
Entity
p376
(dp377
g11
(lp378
sg13
S'android.widget.TextClock$2'
p379
sg15
(lp380
sg17
(lp381
sg19
(lp382
sg21
I0
sba(iArchitecture
Entity
p383
(dp384
g11
(lp385
sg13
S'android.widget.TextClock$FormatChangeObserver'
p386
sg15
(lp387
sg17
(lp388
sg19
(lp389
sg21
I0
sbasg22
(lp390
g365
ag372
ag379
ag386
asg21
I0
sg24
S'1010'
p391
sba(iArchitecture
Cluster
p392
(dp393
g7
(lp394
(iArchitecture
Entity
p395
(dp396
g11
(lp397
sg13
S'android.view.MotionEvent'
p398
sg15
(lp399
sg17
(lp400
sg19
(lp401
sg21
I0
sba(iArchitecture
Entity
p402
(dp403
g11
(lp404
sg13
S'android.view.MotionEvent$1'
p405
sg15
(lp406
sg17
(lp407
sg19
(lp408
sg21
I0
sba(iArchitecture
Entity
p409
(dp410
g11
(lp411
sg13
S'android.view.MotionEvent$PointerCoords'
p412
sg15
(lp413
sg17
(lp414
sg19
(lp415
sg21
I0
sba(iArchitecture
Entity
p416
(dp417
g11
(lp418
sg13
S'android.view.MotionEvent$PointerProperties'
p419
sg15
(lp420
sg17
(lp421
sg19
(lp422
sg21
I0
sbasg22
(lp423
g398
ag405
ag412
ag419
asg21
I0
sg24
S'1011'
p424
sba(iArchitecture
Cluster
p425
(dp426
g7
(lp427
(iArchitecture
Entity
p428
(dp429
g11
(lp430
sg13
S'android.view.PixelCopy'
p431
sg15
(lp432
sg17
(lp433
sg19
(lp434
sg21
I0
sba(iArchitecture
Entity
p435
(dp436
g11
(lp437
sg13
S'android.view.PixelCopy$1'
p438
sg15
(lp439
sg17
(lp440
sg19
(lp441
sg21
I0
sba(iArchitecture
Entity
p442
(dp443
g11
(lp444
sg13
S'android.view.PixelCopy$OnPixelCopyFinishedListener'
p445
sg15
(lp446
sg17
(lp447
sg19
(lp448
sg21
I0
sbasg22
(lp449
g431
ag438
ag445
asg21
I0
sg24
S'1012'
p450
sba(iArchitecture
Cluster
p451
(dp452
g7
(lp453
(iArchitecture
Entity
p454
(dp455
g11
(lp456
sg13
S'android.util.Xml'
p457
sg15
(lp458
sg17
(lp459
sg19
(lp460
sg21
I0
sba(iArchitecture
Entity
p461
(dp462
g11
(lp463
sg13
S'android.util.Xml$Encoding'
p464
sg15
(lp465
sg17
(lp466
sg19
(lp467
sg21
I0
sba(iArchitecture
Entity
p468
(dp469
g11
(lp470
sg13
S'android.util.Xml$XmlSerializerFactory'
p471
sg15
(lp472
sg17
(lp473
sg19
(lp474
sg21
I0
sbasg22
(lp475
g457
ag464
ag471
asg21
I0
sg24
S'1013'
p476
sba(iArchitecture
Cluster
p477
(dp478
g7
(lp479
(iArchitecture
Entity
p480
(dp481
g11
(lp482
sg13
S'android.graphics.SurfaceTexture'
p483
sg15
(lp484
sg17
(lp485
sg19
(lp486
sg21
I0
sba(iArchitecture
Entity
p487
(dp488
g11
(lp489
sg13
S'android.graphics.SurfaceTexture$1'
p490
sg15
(lp491
sg17
(lp492
sg19
(lp493
sg21
I0
sba(iArchitecture
Entity
p494
(dp495
g11
(lp496
sg13
S'android.graphics.SurfaceTexture$OnFrameAvailableListener'
p497
sg15
(lp498
sg17
(lp499
sg19
(lp500
sg21
I0
sba(iArchitecture
Entity
p501
(dp502
g11
(lp503
sg13
S'android.graphics.SurfaceTexture$OutOfResourcesException'
p504
sg15
(lp505
sg17
(lp506
sg19
(lp507
sg21
I0
sbasg22
(lp508
g483
ag490
ag497
ag504
asg21
I0
sg24
S'1014'
p509
sba(iArchitecture
Cluster
p510
(dp511
g7
(lp512
(iArchitecture
Entity
p513
(dp514
g11
(lp515
sg13
S'android.security.KeyChain'
p516
sg15
(lp517
sg17
(lp518
sg19
(lp519
sg21
I0
sba(iArchitecture
Entity
p520
(dp521
g11
(lp522
sg13
S'android.security.KeyChain$1'
p523
sg15
(lp524
sg17
(lp525
sg19
(lp526
sg21
I0
sba(iArchitecture
Entity
p527
(dp528
g11
(lp529
sg13
S'android.security.KeyChain$AliasResponse'
p530
sg15
(lp531
sg17
(lp532
sg19
(lp533
sg21
I0
sba(iArchitecture
Entity
p534
(dp535
g11
(lp536
sg13
S'android.security.KeyChain$KeyChainConnection'
p537
sg15
(lp538
sg17
(lp539
sg19
(lp540
sg21
I0
sbasg22
(lp541
g516
ag523
ag530
ag537
asg21
I0
sg24
S'1015'
p542
sba(iArchitecture
Cluster
p543
(dp544
g7
(lp545
(iArchitecture
Entity
p546
(dp547
g11
(lp548
sg13
S'android.net.NetworkStats'
p549
sg15
(lp550
sg17
(lp551
sg19
(lp552
sg21
I0
sba(iArchitecture
Entity
p553
(dp554
g11
(lp555
sg13
S'android.net.NetworkStats$1'
p556
sg15
(lp557
sg17
(lp558
sg19
(lp559
sg21
I0
sba(iArchitecture
Entity
p560
(dp561
g11
(lp562
sg13
S'android.net.NetworkStats$Entry'
p563
sg15
(lp564
sg17
(lp565
sg19
(lp566
sg21
I0
sba(iArchitecture
Entity
p567
(dp568
g11
(lp569
sg13
S'android.net.NetworkStats$NonMonotonicObserver'
p570
sg15
(lp571
sg17
(lp572
sg19
(lp573
sg21
I0
sbasg22
(lp574
g549
ag556
ag563
ag570
asg21
I0
sg24
S'1016'
p575
sba(iArchitecture
Cluster
p576
(dp577
g7
(lp578
(iArchitecture
Entity
p579
(dp580
g11
(lp581
sg13
S'android.widget.ShareActionProvider'
p582
sg15
(lp583
sg17
(lp584
sg19
(lp585
sg21
I0
sba(iArchitecture
Entity
p586
(dp587
g11
(lp588
sg13
S'android.widget.ShareActionProvider$OnShareTargetSelectedListener'
p589
sg15
(lp590
sg17
(lp591
sg19
(lp592
sg21
I0
sba(iArchitecture
Entity
p593
(dp594
g11
(lp595
sg13
S'android.widget.ShareActionProvider$ShareActivityChooserModelPolicy'
p596
sg15
(lp597
sg17
(lp598
sg19
(lp599
sg21
I0
sba(iArchitecture
Entity
p600
(dp601
g11
(lp602
sg13
S'android.widget.ShareActionProvider$ShareMenuItemOnMenuItemClickListener'
p603
sg15
(lp604
sg17
(lp605
sg19
(lp606
sg21
I0
sbasg22
(lp607
g582
ag589
ag596
ag603
asg21
I0
sg24
S'1017'
p608
sba(iArchitecture
Cluster
p609
(dp610
g7
(lp611
(iArchitecture
Entity
p612
(dp613
g11
(lp614
sg13
S'android.os.MessageQueue'
p615
sg15
(lp616
sg17
(lp617
sg19
(lp618
sg21
I0
sba(iArchitecture
Entity
p619
(dp620
g11
(lp621
sg13
S'android.os.MessageQueue$FileDescriptorRecord'
p622
sg15
(lp623
sg17
(lp624
sg19
(lp625
sg21
I0
sba(iArchitecture
Entity
p626
(dp627
g11
(lp628
sg13
S'android.os.MessageQueue$IdleHandler'
p629
sg15
(lp630
sg17
(lp631
sg19
(lp632
sg21
I0
sba(iArchitecture
Entity
p633
(dp634
g11
(lp635
sg13
S'android.os.MessageQueue$OnFileDescriptorEventListener'
p636
sg15
(lp637
sg17
(lp638
sg19
(lp639
sg21
I0
sbasg22
(lp640
g615
ag622
ag629
ag636
asg21
I0
sg24
S'1018'
p641
sba(iArchitecture
Cluster
p642
(dp643
g7
(lp644
(iArchitecture
Entity
p645
(dp646
g11
(lp647
sg13
S'android.content.res.CompatibilityInfo'
p648
sg15
(lp649
sg17
(lp650
sg19
(lp651
sg21
I0
sba(iArchitecture
Entity
p652
(dp653
g11
(lp654
sg13
S'android.content.res.CompatibilityInfo$1'
p655
sg15
(lp656
sg17
(lp657
sg19
(lp658
sg21
I0
sba(iArchitecture
Entity
p659
(dp660
g11
(lp661
sg13
S'android.content.res.CompatibilityInfo$2'
p662
sg15
(lp663
sg17
(lp664
sg19
(lp665
sg21
I0
sba(iArchitecture
Entity
p666
(dp667
g11
(lp668
sg13
S'android.content.res.CompatibilityInfo$Translator'
p669
sg15
(lp670
sg17
(lp671
sg19
(lp672
sg21
I0
sbasg22
(lp673
g648
ag655
ag662
ag669
asg21
I0
sg24
S'1019'
p674
sba(iArchitecture
Cluster
p675
(dp676
g7
(lp677
(iArchitecture
Entity
p678
(dp679
g11
(lp680
sg13
S'android.view.WindowCallbacks'
p681
sg15
(lp682
sg17
(lp683
sg19
(lp684
sg21
I0
sbasg22
(lp685
g681
asg21
I0
sg24
S'102'
p686
sba(iArchitecture
Cluster
p687
(dp688
g7
(lp689
(iArchitecture
Entity
p690
(dp691
g11
(lp692
sg13
S'com.android.server.WiredAccessoryManager'
p693
sg15
(lp694
sg17
(lp695
sg19
(lp696
sg21
I0
sba(iArchitecture
Entity
p697
(dp698
g11
(lp699
sg13
S'com.android.server.WiredAccessoryManager$1'
p700
sg15
(lp701
sg17
(lp702
sg19
(lp703
sg21
I0
sba(iArchitecture
Entity
p704
(dp705
g11
(lp706
sg13
S'com.android.server.WiredAccessoryManager$WiredAccessoryObserver'
p707
sg15
(lp708
sg17
(lp709
sg19
(lp710
sg21
I0
sba(iArchitecture
Entity
p711
(dp712
g11
(lp713
sg13
S'com.android.server.WiredAccessoryManager$WiredAccessoryObserver$UEventInfo'
p714
sg15
(lp715
sg17
(lp716
sg19
(lp717
sg21
I0
sbasg22
(lp718
g693
ag700
ag707
ag714
asg21
I0
sg24
S'1020'
p719
sba(iArchitecture
Cluster
p720
(dp721
g7
(lp722
(iArchitecture
Entity
p723
(dp724
g11
(lp725
sg13
S'android.view.ScaleGestureDetector'
p726
sg15
(lp727
sg17
(lp728
sg19
(lp729
sg21
I0
sba(iArchitecture
Entity
p730
(dp731
g11
(lp732
sg13
S'android.view.ScaleGestureDetector$1'
p733
sg15
(lp734
sg17
(lp735
sg19
(lp736
sg21
I0
sba(iArchitecture
Entity
p737
(dp738
g11
(lp739
sg13
S'android.view.ScaleGestureDetector$OnScaleGestureListener'
p740
sg15
(lp741
sg17
(lp742
sg19
(lp743
sg21
I0
sba(iArchitecture
Entity
p744
(dp745
g11
(lp746
sg13
S'android.view.ScaleGestureDetector$SimpleOnScaleGestureListener'
p747
sg15
(lp748
sg17
(lp749
sg19
(lp750
sg21
I0
sbasg22
(lp751
g726
ag733
ag740
ag747
asg21
I0
sg24
S'1021'
p752
sba(iArchitecture
Cluster
p753
(dp754
g7
(lp755
(iArchitecture
Entity
p756
(dp757
g11
(lp758
sg13
S'com.android.server.GestureLauncherService'
p759
sg15
(lp760
sg17
(lp761
sg19
(lp762
sg21
I0
sba(iArchitecture
Entity
p763
(dp764
g11
(lp765
sg13
S'com.android.server.GestureLauncherService$1'
p766
sg15
(lp767
sg17
(lp768
sg19
(lp769
sg21
I0
sba(iArchitecture
Entity
p770
(dp771
g11
(lp772
sg13
S'com.android.server.GestureLauncherService$2'
p773
sg15
(lp774
sg17
(lp775
sg19
(lp776
sg21
I0
sba(iArchitecture
Entity
p777
(dp778
g11
(lp779
sg13
S'com.android.server.GestureLauncherService$GestureEventListener'
p780
sg15
(lp781
sg17
(lp782
sg19
(lp783
sg21
I0
sbasg22
(lp784
g759
ag766
ag773
ag780
asg21
I0
sg24
S'1022'
p785
sba(iArchitecture
Cluster
p786
(dp787
g7
(lp788
(iArchitecture
Entity
p789
(dp790
g11
(lp791
sg13
S'com.android.internal.inputmethod.InputMethodUtils'
p792
sg15
(lp793
sg17
(lp794
sg19
(lp795
sg21
I0
sba(iArchitecture
Entity
p796
(dp797
g11
(lp798
sg13
S'com.android.internal.inputmethod.InputMethodUtils$1'
p799
sg15
(lp800
sg17
(lp801
sg19
(lp802
sg21
I0
sba(iArchitecture
Entity
p803
(dp804
g11
(lp805
sg13
S'com.android.internal.inputmethod.InputMethodUtils$InputMethodListBuilder'
p806
sg15
(lp807
sg17
(lp808
sg19
(lp809
sg21
I0
sba(iArchitecture
Entity
p810
(dp811
g11
(lp812
sg13
S'com.android.internal.inputmethod.InputMethodUtils$InputMethodSettings'
p813
sg15
(lp814
sg17
(lp815
sg19
(lp816
sg21
I0
sbasg22
(lp817
g792
ag799
ag806
ag813
asg21
I0
sg24
S'1023'
p818
sba(iArchitecture
Cluster
p819
(dp820
g7
(lp821
(iArchitecture
Entity
p822
(dp823
g11
(lp824
sg13
S'android.view.ActionMode'
p825
sg15
(lp826
sg17
(lp827
sg19
(lp828
sg21
I0
sba(iArchitecture
Entity
p829
(dp830
g11
(lp831
sg13
S'android.view.ActionMode$Callback'
p832
sg15
(lp833
sg17
(lp834
sg19
(lp835
sg21
I0
sba(iArchitecture
Entity
p836
(dp837
g11
(lp838
sg13
S'android.view.ActionMode$Callback2'
p839
sg15
(lp840
sg17
(lp841
sg19
(lp842
sg21
I0
sbasg22
(lp843
g825
ag832
ag839
asg21
I0
sg24
S'1024'
p844
sba(iArchitecture
Cluster
p845
(dp846
g7
(lp847
(iArchitecture
Entity
p848
(dp849
g11
(lp850
sg13
S'android.hardware.LegacySensorManager'
p851
sg15
(lp852
sg17
(lp853
sg19
(lp854
sg21
I0
sba(iArchitecture
Entity
p855
(dp856
g11
(lp857
sg13
S'android.hardware.LegacySensorManager$1'
p858
sg15
(lp859
sg17
(lp860
sg19
(lp861
sg21
I0
sba(iArchitecture
Entity
p862
(dp863
g11
(lp864
sg13
S'android.hardware.LegacySensorManager$LegacyListener'
p865
sg15
(lp866
sg17
(lp867
sg19
(lp868
sg21
I0
sba(iArchitecture
Entity
p869
(dp870
g11
(lp871
sg13
S'android.hardware.LegacySensorManager$LmsFilter'
p872
sg15
(lp873
sg17
(lp874
sg19
(lp875
sg21
I0
sbasg22
(lp876
g851
ag858
ag865
ag872
asg21
I0
sg24
S'1025'
p877
sba(iArchitecture
Cluster
p878
(dp879
g7
(lp880
(iArchitecture
Entity
p881
(dp882
g11
(lp883
sg13
S'android.telephony.SubscriptionManager'
p884
sg15
(lp885
sg17
(lp886
sg19
(lp887
sg21
I0
sba(iArchitecture
Entity
p888
(dp889
g11
(lp890
sg13
S'android.telephony.SubscriptionManager$OnSubscriptionsChangedListener'
p891
sg15
(lp892
sg17
(lp893
sg19
(lp894
sg21
I0
sba(iArchitecture
Entity
p895
(dp896
g11
(lp897
sg13
S'android.telephony.SubscriptionManager$OnSubscriptionsChangedListener$1'
p898
sg15
(lp899
sg17
(lp900
sg19
(lp901
sg21
I0
sba(iArchitecture
Entity
p902
(dp903
g11
(lp904
sg13
S'android.telephony.SubscriptionManager$OnSubscriptionsChangedListener$2'
p905
sg15
(lp906
sg17
(lp907
sg19
(lp908
sg21
I0
sbasg22
(lp909
g884
ag891
ag898
ag905
asg21
I0
sg24
S'1026'
p910
sba(iArchitecture
Cluster
p911
(dp912
g7
(lp913
(iArchitecture
Entity
p914
(dp915
g11
(lp916
sg13
S'com.android.server.audio.RotationHelper'
p917
sg15
(lp918
sg17
(lp919
sg19
(lp920
sg21
I0
sba(iArchitecture
Entity
p921
(dp922
g11
(lp923
sg13
S'com.android.server.audio.RotationHelper$AudioOrientationListener'
p924
sg15
(lp925
sg17
(lp926
sg19
(lp927
sg21
I0
sba(iArchitecture
Entity
p928
(dp929
g11
(lp930
sg13
S'com.android.server.audio.RotationHelper$AudioWindowOrientationListener'
p931
sg15
(lp932
sg17
(lp933
sg19
(lp934
sg21
I0
sba(iArchitecture
Entity
p935
(dp936
g11
(lp937
sg13
S'com.android.server.audio.RotationHelper$RotationCheckThread'
p938
sg15
(lp939
sg17
(lp940
sg19
(lp941
sg21
I0
sbasg22
(lp942
g917
ag924
ag931
ag938
asg21
I0
sg24
S'1027'
p943
sba(iArchitecture
Cluster
p944
(dp945
g7
(lp946
(iArchitecture
Entity
p947
(dp948
g11
(lp949
sg13
S'android.text.method.ReplacementTransformationMethod'
p950
sg15
(lp951
sg17
(lp952
sg19
(lp953
sg21
I0
sba(iArchitecture
Entity
p954
(dp955
g11
(lp956
sg13
S'android.text.method.ReplacementTransformationMethod$ReplacementCharSequence'
p957
sg15
(lp958
sg17
(lp959
sg19
(lp960
sg21
I0
sba(iArchitecture
Entity
p961
(dp962
g11
(lp963
sg13
S'android.text.method.ReplacementTransformationMethod$SpannedReplacementCharSequence'
p964
sg15
(lp965
sg17
(lp966
sg19
(lp967
sg21
I0
sbasg22
(lp968
g950
ag957
ag964
asg21
I0
sg24
S'1028'
p969
sba(iArchitecture
Cluster
p970
(dp971
g7
(lp972
(iArchitecture
Entity
p973
(dp974
g11
(lp975
sg13
S'android.bluetooth.BluetoothA2dp'
p976
sg15
(lp977
sg17
(lp978
sg19
(lp979
sg21
I0
sba(iArchitecture
Entity
p980
(dp981
g11
(lp982
sg13
S'android.bluetooth.BluetoothA2dp$1'
p983
sg15
(lp984
sg17
(lp985
sg19
(lp986
sg21
I0
sba(iArchitecture
Entity
p987
(dp988
g11
(lp989
sg13
S'android.bluetooth.BluetoothA2dp$2'
p990
sg15
(lp991
sg17
(lp992
sg19
(lp993
sg21
I0
sbasg22
(lp994
g976
ag983
ag990
asg21
I0
sg24
S'1029'
p995
sba(iArchitecture
Cluster
p996
(dp997
g7
(lp998
(iArchitecture
Entity
p999
(dp1000
g11
(lp1001
sg13
S'android.hardware.location.GeofenceHardwareRequest'
p1002
sg15
(lp1003
sg17
(lp1004
sg19
(lp1005
sg21
I0
sbasg22
(lp1006
g1002
asg21
I0
sg24
S'103'
p1007
sba(iArchitecture
Cluster
p1008
(dp1009
g7
(lp1010
(iArchitecture
Entity
p1011
(dp1012
g11
(lp1013
sg13
S'com.android.internal.widget.AutoScrollHelper'
p1014
sg15
(lp1015
sg17
(lp1016
sg19
(lp1017
sg21
I0
sba(iArchitecture
Entity
p1018
(dp1019
g11
(lp1020
sg13
S'com.android.internal.widget.AutoScrollHelper$AbsListViewAutoScroller'
p1021
sg15
(lp1022
sg17
(lp1023
sg19
(lp1024
sg21
I0
sba(iArchitecture
Entity
p1025
(dp1026
g11
(lp1027
sg13
S'com.android.internal.widget.AutoScrollHelper$ClampedScroller'
p1028
sg15
(lp1029
sg17
(lp1030
sg19
(lp1031
sg21
I0
sba(iArchitecture
Entity
p1032
(dp1033
g11
(lp1034
sg13
S'com.android.internal.widget.AutoScrollHelper$ScrollAnimationRunnable'
p1035
sg15
(lp1036
sg17
(lp1037
sg19
(lp1038
sg21
I0
sbasg22
(lp1039
g1014
ag1021
ag1028
ag1035
asg21
I0
sg24
S'1030'
p1040
sba(iArchitecture
Cluster
p1041
(dp1042
g7
(lp1043
(iArchitecture
Entity
p1044
(dp1045
g11
(lp1046
sg13
S'com.android.server.display.VirtualDisplayAdapter'
p1047
sg15
(lp1048
sg17
(lp1049
sg19
(lp1050
sg21
I0
sba(iArchitecture
Entity
p1051
(dp1052
g11
(lp1053
sg13
S'com.android.server.display.VirtualDisplayAdapter$Callback'
p1054
sg15
(lp1055
sg17
(lp1056
sg19
(lp1057
sg21
I0
sba(iArchitecture
Entity
p1058
(dp1059
g11
(lp1060
sg13
S'com.android.server.display.VirtualDisplayAdapter$MediaProjectionCallback'
p1061
sg15
(lp1062
sg17
(lp1063
sg19
(lp1064
sg21
I0
sba(iArchitecture
Entity
p1065
(dp1066
g11
(lp1067
sg13
S'com.android.server.display.VirtualDisplayAdapter$VirtualDisplayDevice'
p1068
sg15
(lp1069
sg17
(lp1070
sg19
(lp1071
sg21
I0
sbasg22
(lp1072
g1047
ag1054
ag1061
ag1068
asg21
I0
sg24
S'1031'
p1073
sba(iArchitecture
Cluster
p1074
(dp1075
g7
(lp1076
(iArchitecture
Entity
p1077
(dp1078
g11
(lp1079
sg13
S'android.net.Network'
p1080
sg15
(lp1081
sg17
(lp1082
sg19
(lp1083
sg21
I0
sba(iArchitecture
Entity
p1084
(dp1085
g11
(lp1086
sg13
S'android.net.Network$1'
p1087
sg15
(lp1088
sg17
(lp1089
sg19
(lp1090
sg21
I0
sba(iArchitecture
Entity
p1091
(dp1092
g11
(lp1093
sg13
S'android.net.Network$2'
p1094
sg15
(lp1095
sg17
(lp1096
sg19
(lp1097
sg21
I0
sba(iArchitecture
Entity
p1098
(dp1099
g11
(lp1100
sg13
S'android.net.Network$NetworkBoundSocketFactory'
p1101
sg15
(lp1102
sg17
(lp1103
sg19
(lp1104
sg21
I0
sbasg22
(lp1105
g1080
ag1087
ag1094
ag1101
asg21
I0
sg24
S'1032'
p1106
sba(iArchitecture
Cluster
p1107
(dp1108
g7
(lp1109
(iArchitecture
Entity
p1110
(dp1111
g11
(lp1112
sg13
S'com.android.server.print.RemotePrintServiceRecommendationService'
p1113
sg15
(lp1114
sg17
(lp1115
sg19
(lp1116
sg21
I0
sba(iArchitecture
Entity
p1117
(dp1118
g11
(lp1119
sg13
S'com.android.server.print.RemotePrintServiceRecommendationService$Connection'
p1120
sg15
(lp1121
sg17
(lp1122
sg19
(lp1123
sg21
I0
sba(iArchitecture
Entity
p1124
(dp1125
g11
(lp1126
sg13
S'com.android.server.print.RemotePrintServiceRecommendationService$Connection$1'
p1127
sg15
(lp1128
sg17
(lp1129
sg19
(lp1130
sg21
I0
sba(iArchitecture
Entity
p1131
(dp1132
g11
(lp1133
sg13
S'com.android.server.print.RemotePrintServiceRecommendationService$RemotePrintServiceRecommendationServiceCallbacks'
p1134
sg15
(lp1135
sg17
(lp1136
sg19
(lp1137
sg21
I0
sbasg22
(lp1138
g1113
ag1120
ag1127
ag1134
asg21
I0
sg24
S'1033'
p1139
sba(iArchitecture
Cluster
p1140
(dp1141
g7
(lp1142
(iArchitecture
Entity
p1143
(dp1144
g11
(lp1145
sg13
S'android.net.LinkProperties'
p1146
sg15
(lp1147
sg17
(lp1148
sg19
(lp1149
sg21
I0
sba(iArchitecture
Entity
p1150
(dp1151
g11
(lp1152
sg13
S'android.net.LinkProperties$1'
p1153
sg15
(lp1154
sg17
(lp1155
sg19
(lp1156
sg21
I0
sba(iArchitecture
Entity
p1157
(dp1158
g11
(lp1159
sg13
S'android.net.LinkProperties$CompareResult'
p1160
sg15
(lp1161
sg17
(lp1162
sg19
(lp1163
sg21
I0
sba(iArchitecture
Entity
p1164
(dp1165
g11
(lp1166
sg13
S'android.net.LinkProperties$ProvisioningChange'
p1167
sg15
(lp1168
sg17
(lp1169
sg19
(lp1170
sg21
I0
sbasg22
(lp1171
g1146
ag1153
ag1160
ag1167
asg21
I0
sg24
S'1034'
p1172
sba(iArchitecture
Cluster
p1173
(dp1174
g7
(lp1175
(iArchitecture
Entity
p1176
(dp1177
g11
(lp1178
sg13
S'android.content.pm.PackageManagerInternal'
p1179
sg15
(lp1180
sg17
(lp1181
sg19
(lp1182
sg21
I0
sba(iArchitecture
Entity
p1183
(dp1184
g11
(lp1185
sg13
S'android.content.pm.PackageManagerInternal$PackagesProvider'
p1186
sg15
(lp1187
sg17
(lp1188
sg19
(lp1189
sg21
I0
sba(iArchitecture
Entity
p1190
(dp1191
g11
(lp1192
sg13
S'android.content.pm.PackageManagerInternal$SyncAdapterPackagesProvider'
p1193
sg15
(lp1194
sg17
(lp1195
sg19
(lp1196
sg21
I0
sbasg22
(lp1197
g1179
ag1186
ag1193
asg21
I0
sg24
S'1035'
p1198
sba(iArchitecture
Cluster
p1199
(dp1200
g7
(lp1201
(iArchitecture
Entity
p1202
(dp1203
g11
(lp1204
sg13
S'android.bluetooth.le.BluetoothLeAdvertiser'
p1205
sg15
(lp1206
sg17
(lp1207
sg19
(lp1208
sg21
I0
sba(iArchitecture
Entity
p1209
(dp1210
g11
(lp1211
sg13
S'android.bluetooth.le.BluetoothLeAdvertiser$1'
p1212
sg15
(lp1213
sg17
(lp1214
sg19
(lp1215
sg21
I0
sba(iArchitecture
Entity
p1216
(dp1217
g11
(lp1218
sg13
S'android.bluetooth.le.BluetoothLeAdvertiser$2'
p1219
sg15
(lp1220
sg17
(lp1221
sg19
(lp1222
sg21
I0
sba(iArchitecture
Entity
p1223
(dp1224
g11
(lp1225
sg13
S'android.bluetooth.le.BluetoothLeAdvertiser$AdvertiseCallbackWrapper'
p1226
sg15
(lp1227
sg17
(lp1228
sg19
(lp1229
sg21
I0
sbasg22
(lp1230
g1205
ag1212
ag1219
ag1226
asg21
I0
sg24
S'1036'
p1231
sba(iArchitecture
Cluster
p1232
(dp1233
g7
(lp1234
(iArchitecture
Entity
p1235
(dp1236
g11
(lp1237
sg13
S'android.net.IpConfiguration'
p1238
sg15
(lp1239
sg17
(lp1240
sg19
(lp1241
sg21
I0
sba(iArchitecture
Entity
p1242
(dp1243
g11
(lp1244
sg13
S'android.net.IpConfiguration$1'
p1245
sg15
(lp1246
sg17
(lp1247
sg19
(lp1248
sg21
I0
sba(iArchitecture
Entity
p1249
(dp1250
g11
(lp1251
sg13
S'android.net.IpConfiguration$IpAssignment'
p1252
sg15
(lp1253
sg17
(lp1254
sg19
(lp1255
sg21
I0
sba(iArchitecture
Entity
p1256
(dp1257
g11
(lp1258
sg13
S'android.net.IpConfiguration$ProxySettings'
p1259
sg15
(lp1260
sg17
(lp1261
sg19
(lp1262
sg21
I0
sbasg22
(lp1263
g1238
ag1245
ag1252
ag1259
asg21
I0
sg24
S'1037'
p1264
sba(iArchitecture
Cluster
p1265
(dp1266
g7
(lp1267
(iArchitecture
Entity
p1268
(dp1269
g11
(lp1270
sg13
S'android.security.net.config.NetworkSecurityConfig'
p1271
sg15
(lp1272
sg17
(lp1273
sg19
(lp1274
sg21
I0
sba(iArchitecture
Entity
p1275
(dp1276
g11
(lp1277
sg13
S'android.security.net.config.NetworkSecurityConfig$1'
p1278
sg15
(lp1279
sg17
(lp1280
sg19
(lp1281
sg21
I0
sba(iArchitecture
Entity
p1282
(dp1283
g11
(lp1284
sg13
S'android.security.net.config.NetworkSecurityConfig$Builder'
p1285
sg15
(lp1286
sg17
(lp1287
sg19
(lp1288
sg21
I0
sbasg22
(lp1289
g1271
ag1278
ag1285
asg21
I0
sg24
S'1038'
p1290
sba(iArchitecture
Cluster
p1291
(dp1292
g7
(lp1293
(iArchitecture
Entity
p1294
(dp1295
g11
(lp1296
sg13
S'com.android.server.vr.SettingsObserver'
p1297
sg15
(lp1298
sg17
(lp1299
sg19
(lp1300
sg21
I0
sba(iArchitecture
Entity
p1301
(dp1302
g11
(lp1303
sg13
S'com.android.server.vr.SettingsObserver$1'
p1304
sg15
(lp1305
sg17
(lp1306
sg19
(lp1307
sg21
I0
sba(iArchitecture
Entity
p1308
(dp1309
g11
(lp1310
sg13
S'com.android.server.vr.SettingsObserver$2'
p1311
sg15
(lp1312
sg17
(lp1313
sg19
(lp1314
sg21
I0
sba(iArchitecture
Entity
p1315
(dp1316
g11
(lp1317
sg13
S'com.android.server.vr.SettingsObserver$SettingChangeListener'
p1318
sg15
(lp1319
sg17
(lp1320
sg19
(lp1321
sg21
I0
sbasg22
(lp1322
g1297
ag1304
ag1311
ag1318
asg21
I0
sg24
S'1039'
p1323
sba(iArchitecture
Cluster
p1324
(dp1325
g7
(lp1326
(iArchitecture
Entity
p1327
(dp1328
g11
(lp1329
sg13
S'com.android.internal.widget.PreferenceImageView'
p1330
sg15
(lp1331
sg17
(lp1332
sg19
(lp1333
sg21
I0
sbasg22
(lp1334
g1330
asg21
I0
sg24
S'104'
p1335
sba(iArchitecture
Cluster
p1336
(dp1337
g7
(lp1338
(iArchitecture
Entity
p1339
(dp1340
g11
(lp1341
sg13
S'android.util.jar.StrictJarFile'
p1342
sg15
(lp1343
sg17
(lp1344
sg19
(lp1345
sg21
I0
sba(iArchitecture
Entity
p1346
(dp1347
g11
(lp1348
sg13
S'android.util.jar.StrictJarFile$EntryIterator'
p1349
sg15
(lp1350
sg17
(lp1351
sg19
(lp1352
sg21
I0
sba(iArchitecture
Entity
p1353
(dp1354
g11
(lp1355
sg13
S'android.util.jar.StrictJarFile$JarFileInputStream'
p1356
sg15
(lp1357
sg17
(lp1358
sg19
(lp1359
sg21
I0
sba(iArchitecture
Entity
p1360
(dp1361
g11
(lp1362
sg13
S'android.util.jar.StrictJarFile$RAFStream'
p1363
sg15
(lp1364
sg17
(lp1365
sg19
(lp1366
sg21
I0
sba(iArchitecture
Entity
p1367
(dp1368
g11
(lp1369
sg13
S'android.util.jar.StrictJarFile$ZipInflaterInputStream'
p1370
sg15
(lp1371
sg17
(lp1372
sg19
(lp1373
sg21
I0
sbasg22
(lp1374
g1342
ag1349
ag1356
ag1363
ag1370
asg21
I0
sg24
S'1040'
p1375
sba(iArchitecture
Cluster
p1376
(dp1377
g7
(lp1378
(iArchitecture
Entity
p1379
(dp1380
g11
(lp1381
sg13
S'com.android.server.usb.UsbSettingsManager'
p1382
sg15
(lp1383
sg17
(lp1384
sg19
(lp1385
sg21
I0
sba(iArchitecture
Entity
p1386
(dp1387
g11
(lp1388
sg13
S'com.android.server.usb.UsbSettingsManager$1'
p1389
sg15
(lp1390
sg17
(lp1391
sg19
(lp1392
sg21
I0
sba(iArchitecture
Entity
p1393
(dp1394
g11
(lp1395
sg13
S'com.android.server.usb.UsbSettingsManager$AccessoryFilter'
p1396
sg15
(lp1397
sg17
(lp1398
sg19
(lp1399
sg21
I0
sba(iArchitecture
Entity
p1400
(dp1401
g11
(lp1402
sg13
S'com.android.server.usb.UsbSettingsManager$DeviceFilter'
p1403
sg15
(lp1404
sg17
(lp1405
sg19
(lp1406
sg21
I0
sba(iArchitecture
Entity
p1407
(dp1408
g11
(lp1409
sg13
S'com.android.server.usb.UsbSettingsManager$MyPackageMonitor'
p1410
sg15
(lp1411
sg17
(lp1412
sg19
(lp1413
sg21
I0
sbasg22
(lp1414
g1382
ag1389
ag1396
ag1403
ag1410
asg21
I0
sg24
S'1041'
p1415
sba(iArchitecture
Cluster
p1416
(dp1417
g7
(lp1418
(iArchitecture
Entity
p1419
(dp1420
g11
(lp1421
sg13
S'android.widget.FastScroller'
p1422
sg15
(lp1423
sg17
(lp1424
sg19
(lp1425
sg21
I0
sba(iArchitecture
Entity
p1426
(dp1427
g11
(lp1428
sg13
S'android.widget.FastScroller$1'
p1429
sg15
(lp1430
sg17
(lp1431
sg19
(lp1432
sg21
I0
sba(iArchitecture
Entity
p1433
(dp1434
g11
(lp1435
sg13
S'android.widget.FastScroller$2'
p1436
sg15
(lp1437
sg17
(lp1438
sg19
(lp1439
sg21
I0
sba(iArchitecture
Entity
p1440
(dp1441
g11
(lp1442
sg13
S'android.widget.FastScroller$3'
p1443
sg15
(lp1444
sg17
(lp1445
sg19
(lp1446
sg21
I0
sba(iArchitecture
Entity
p1447
(dp1448
g11
(lp1449
sg13
S'android.widget.FastScroller$4'
p1450
sg15
(lp1451
sg17
(lp1452
sg19
(lp1453
sg21
I0
sba(iArchitecture
Entity
p1454
(dp1455
g11
(lp1456
sg13
S'android.widget.FastScroller$5'
p1457
sg15
(lp1458
sg17
(lp1459
sg19
(lp1460
sg21
I0
sba(iArchitecture
Entity
p1461
(dp1462
g11
(lp1463
sg13
S'android.widget.FastScroller$6'
p1464
sg15
(lp1465
sg17
(lp1466
sg19
(lp1467
sg21
I0
sbasg22
(lp1468
g1422
ag1429
ag1436
ag1443
ag1450
ag1457
ag1464
asg21
I0
sg24
S'1042'
p1469
sba(iArchitecture
Cluster
p1470
(dp1471
g7
(lp1472
(iArchitecture
Entity
p1473
(dp1474
g11
(lp1475
sg13
S'android.media.SoundPool'
p1476
sg15
(lp1477
sg17
(lp1478
sg19
(lp1479
sg21
I0
sba(iArchitecture
Entity
p1480
(dp1481
g11
(lp1482
sg13
S'android.media.SoundPool$1'
p1483
sg15
(lp1484
sg17
(lp1485
sg19
(lp1486
sg21
I0
sba(iArchitecture
Entity
p1487
(dp1488
g11
(lp1489
sg13
S'android.media.SoundPool$Builder'
p1490
sg15
(lp1491
sg17
(lp1492
sg19
(lp1493
sg21
I0
sba(iArchitecture
Entity
p1494
(dp1495
g11
(lp1496
sg13
S'android.media.SoundPool$EventHandler'
p1497
sg15
(lp1498
sg17
(lp1499
sg19
(lp1500
sg21
I0
sba(iArchitecture
Entity
p1501
(dp1502
g11
(lp1503
sg13
S'android.media.SoundPool$OnLoadCompleteListener'
p1504
sg15
(lp1505
sg17
(lp1506
sg19
(lp1507
sg21
I0
sbasg22
(lp1508
g1476
ag1483
ag1490
ag1497
ag1504
asg21
I0
sg24
S'1043'
p1509
sba(iArchitecture
Cluster
p1510
(dp1511
g7
(lp1512
(iArchitecture
Entity
p1513
(dp1514
g11
(lp1515
sg13
S'com.android.internal.widget.SlidingTab'
p1516
sg15
(lp1517
sg17
(lp1518
sg19
(lp1519
sg21
I0
sba(iArchitecture
Entity
p1520
(dp1521
g11
(lp1522
sg13
S'com.android.internal.widget.SlidingTab$1'
p1523
sg15
(lp1524
sg17
(lp1525
sg19
(lp1526
sg21
I0
sba(iArchitecture
Entity
p1527
(dp1528
g11
(lp1529
sg13
S'com.android.internal.widget.SlidingTab$2'
p1530
sg15
(lp1531
sg17
(lp1532
sg19
(lp1533
sg21
I0
sba(iArchitecture
Entity
p1534
(dp1535
g11
(lp1536
sg13
S'com.android.internal.widget.SlidingTab$OnTriggerListener'
p1537
sg15
(lp1538
sg17
(lp1539
sg19
(lp1540
sg21
I0
sba(iArchitecture
Entity
p1541
(dp1542
g11
(lp1543
sg13
S'com.android.internal.widget.SlidingTab$Slider'
p1544
sg15
(lp1545
sg17
(lp1546
sg19
(lp1547
sg21
I0
sbasg22
(lp1548
g1516
ag1523
ag1530
ag1537
ag1544
asg21
I0
sg24
S'1044'
p1549
sba(iArchitecture
Cluster
p1550
(dp1551
g7
(lp1552
(iArchitecture
Entity
p1553
(dp1554
g11
(lp1555
sg13
S'android.speech.SpeechRecognizer'
p1556
sg15
(lp1557
sg17
(lp1558
sg19
(lp1559
sg21
I0
sba(iArchitecture
Entity
p1560
(dp1561
g11
(lp1562
sg13
S'android.speech.SpeechRecognizer$1'
p1563
sg15
(lp1564
sg17
(lp1565
sg19
(lp1566
sg21
I0
sba(iArchitecture
Entity
p1567
(dp1568
g11
(lp1569
sg13
S'android.speech.SpeechRecognizer$Connection'
p1570
sg15
(lp1571
sg17
(lp1572
sg19
(lp1573
sg21
I0
sba(iArchitecture
Entity
p1574
(dp1575
g11
(lp1576
sg13
S'android.speech.SpeechRecognizer$InternalListener'
p1577
sg15
(lp1578
sg17
(lp1579
sg19
(lp1580
sg21
I0
sba(iArchitecture
Entity
p1581
(dp1582
g11
(lp1583
sg13
S'android.speech.SpeechRecognizer$InternalListener$1'
p1584
sg15
(lp1585
sg17
(lp1586
sg19
(lp1587
sg21
I0
sbasg22
(lp1588
g1556
ag1563
ag1570
ag1577
ag1584
asg21
I0
sg24
S'1045'
p1589
sba(iArchitecture
Cluster
p1590
(dp1591
g7
(lp1592
(iArchitecture
Entity
p1593
(dp1594
g11
(lp1595
sg13
S'android.widget.ExpandableListConnector'
p1596
sg15
(lp1597
sg17
(lp1598
sg19
(lp1599
sg21
I0
sba(iArchitecture
Entity
p1600
(dp1601
g11
(lp1602
sg13
S'android.widget.ExpandableListConnector$GroupMetadata'
p1603
sg15
(lp1604
sg17
(lp1605
sg19
(lp1606
sg21
I0
sba(iArchitecture
Entity
p1607
(dp1608
g11
(lp1609
sg13
S'android.widget.ExpandableListConnector$GroupMetadata$1'
p1610
sg15
(lp1611
sg17
(lp1612
sg19
(lp1613
sg21
I0
sba(iArchitecture
Entity
p1614
(dp1615
g11
(lp1616
sg13
S'android.widget.ExpandableListConnector$MyDataSetObserver'
p1617
sg15
(lp1618
sg17
(lp1619
sg19
(lp1620
sg21
I0
sba(iArchitecture
Entity
p1621
(dp1622
g11
(lp1623
sg13
S'android.widget.ExpandableListConnector$PositionMetadata'
p1624
sg15
(lp1625
sg17
(lp1626
sg19
(lp1627
sg21
I0
sbasg22
(lp1628
g1596
ag1603
ag1610
ag1617
ag1624
asg21
I0
sg24
S'1046'
p1629
sba(iArchitecture
Cluster
p1630
(dp1631
g7
(lp1632
(iArchitecture
Entity
p1633
(dp1634
g11
(lp1635
sg13
S'com.android.server.job.controllers.AppIdleController'
p1636
sg15
(lp1637
sg17
(lp1638
sg19
(lp1639
sg21
I0
sba(iArchitecture
Entity
p1640
(dp1641
g11
(lp1642
sg13
S'com.android.server.job.controllers.AppIdleController$1'
p1643
sg15
(lp1644
sg17
(lp1645
sg19
(lp1646
sg21
I0
sba(iArchitecture
Entity
p1647
(dp1648
g11
(lp1649
sg13
S'com.android.server.job.controllers.AppIdleController$AppIdleStateChangeListener'
p1650
sg15
(lp1651
sg17
(lp1652
sg19
(lp1653
sg21
I0
sba(iArchitecture
Entity
p1654
(dp1655
g11
(lp1656
sg13
S'com.android.server.job.controllers.AppIdleController$GlobalUpdateFunc'
p1657
sg15
(lp1658
sg17
(lp1659
sg19
(lp1660
sg21
I0
sba(iArchitecture
Entity
p1661
(dp1662
g11
(lp1663
sg13
S'com.android.server.job.controllers.AppIdleController$PackageUpdateFunc'
p1664
sg15
(lp1665
sg17
(lp1666
sg19
(lp1667
sg21
I0
sbasg22
(lp1668
g1636
ag1643
ag1650
ag1657
ag1664
asg21
I0
sg24
S'1047'
p1669
sba(iArchitecture
Cluster
p1670
(dp1671
g7
(lp1672
(iArchitecture
Entity
p1673
(dp1674
g11
(lp1675
sg13
S'com.android.internal.location.GpsNetInitiatedHandler'
p1676
sg15
(lp1677
sg17
(lp1678
sg19
(lp1679
sg21
I0
sba(iArchitecture
Entity
p1680
(dp1681
g11
(lp1682
sg13
S'com.android.internal.location.GpsNetInitiatedHandler$1'
p1683
sg15
(lp1684
sg17
(lp1685
sg19
(lp1686
sg21
I0
sba(iArchitecture
Entity
p1687
(dp1688
g11
(lp1689
sg13
S'com.android.internal.location.GpsNetInitiatedHandler$2'
p1690
sg15
(lp1691
sg17
(lp1692
sg19
(lp1693
sg21
I0
sba(iArchitecture
Entity
p1694
(dp1695
g11
(lp1696
sg13
S'com.android.internal.location.GpsNetInitiatedHandler$GpsNiNotification'
p1697
sg15
(lp1698
sg17
(lp1699
sg19
(lp1700
sg21
I0
sba(iArchitecture
Entity
p1701
(dp1702
g11
(lp1703
sg13
S'com.android.internal.location.GpsNetInitiatedHandler$GpsNiResponse'
p1704
sg15
(lp1705
sg17
(lp1706
sg19
(lp1707
sg21
I0
sbasg22
(lp1708
g1676
ag1683
ag1690
ag1697
ag1704
asg21
I0
sg24
S'1048'
p1709
sba(iArchitecture
Cluster
p1710
(dp1711
g7
(lp1712
(iArchitecture
Entity
p1713
(dp1714
g11
(lp1715
sg13
S'android.telecom.RemoteConnectionService'
p1716
sg15
(lp1717
sg17
(lp1718
sg19
(lp1719
sg21
I0
sba(iArchitecture
Entity
p1720
(dp1721
g11
(lp1722
sg13
S'android.telecom.RemoteConnectionService$1'
p1723
sg15
(lp1724
sg17
(lp1725
sg19
(lp1726
sg21
I0
sba(iArchitecture
Entity
p1727
(dp1728
g11
(lp1729
sg13
S'android.telecom.RemoteConnectionService$1$1'
p1730
sg15
(lp1731
sg17
(lp1732
sg19
(lp1733
sg21
I0
sba(iArchitecture
Entity
p1734
(dp1735
g11
(lp1736
sg13
S'android.telecom.RemoteConnectionService$2'
p1737
sg15
(lp1738
sg17
(lp1739
sg19
(lp1740
sg21
I0
sba(iArchitecture
Entity
p1741
(dp1742
g11
(lp1743
sg13
S'android.telecom.RemoteConnectionService$3'
p1744
sg15
(lp1745
sg17
(lp1746
sg19
(lp1747
sg21
I0
sbasg22
(lp1748
g1716
ag1723
ag1730
ag1737
ag1744
asg21
I0
sg24
S'1049'
p1749
sba(iArchitecture
Cluster
p1750
(dp1751
g7
(lp1752
(iArchitecture
Entity
p1753
(dp1754
g11
(lp1755
sg13
S'com.android.internal.os.KernelCpuSpeedReader'
p1756
sg15
(lp1757
sg17
(lp1758
sg19
(lp1759
sg21
I0
sbasg22
(lp1760
g1756
asg21
I0
sg24
S'105'
p1761
sba(iArchitecture
Cluster
p1762
(dp1763
g7
(lp1764
(iArchitecture
Entity
p1765
(dp1766
g11
(lp1767
sg13
S'android.util.Log'
p1768
sg15
(lp1769
sg17
(lp1770
sg19
(lp1771
sg21
I0
sba(iArchitecture
Entity
p1772
(dp1773
g11
(lp1774
sg13
S'android.util.Log$1'
p1775
sg15
(lp1776
sg17
(lp1777
sg19
(lp1778
sg21
I0
sba(iArchitecture
Entity
p1779
(dp1780
g11
(lp1781
sg13
S'android.util.Log$ImmediateLogWriter'
p1782
sg15
(lp1783
sg17
(lp1784
sg19
(lp1785
sg21
I0
sba(iArchitecture
Entity
p1786
(dp1787
g11
(lp1788
sg13
S'android.util.Log$NoPreloadHolder'
p1789
sg15
(lp1790
sg17
(lp1791
sg19
(lp1792
sg21
I0
sba(iArchitecture
Entity
p1793
(dp1794
g11
(lp1795
sg13
S'android.util.Log$TerribleFailure'
p1796
sg15
(lp1797
sg17
(lp1798
sg19
(lp1799
sg21
I0
sba(iArchitecture
Entity
p1800
(dp1801
g11
(lp1802
sg13
S'android.util.Log$TerribleFailureHandler'
p1803
sg15
(lp1804
sg17
(lp1805
sg19
(lp1806
sg21
I0
sbasg22
(lp1807
g1768
ag1775
ag1782
ag1789
ag1796
ag1803
asg21
I0
sg24
S'1050'
p1808
sba(iArchitecture
Cluster
p1809
(dp1810
g7
(lp1811
(iArchitecture
Entity
p1812
(dp1813
g11
(lp1814
sg13
S'android.media.projection.MediaProjection'
p1815
sg15
(lp1816
sg17
(lp1817
sg19
(lp1818
sg21
I0
sba(iArchitecture
Entity
p1819
(dp1820
g11
(lp1821
sg13
S'android.media.projection.MediaProjection$Callback'
p1822
sg15
(lp1823
sg17
(lp1824
sg19
(lp1825
sg21
I0
sba(iArchitecture
Entity
p1826
(dp1827
g11
(lp1828
sg13
S'android.media.projection.MediaProjection$CallbackRecord'
p1829
sg15
(lp1830
sg17
(lp1831
sg19
(lp1832
sg21
I0
sba(iArchitecture
Entity
p1833
(dp1834
g11
(lp1835
sg13
S'android.media.projection.MediaProjection$CallbackRecord$1'
p1836
sg15
(lp1837
sg17
(lp1838
sg19
(lp1839
sg21
I0
sba(iArchitecture
Entity
p1840
(dp1841
g11
(lp1842
sg13
S'android.media.projection.MediaProjection$MediaProjectionCallback'
p1843
sg15
(lp1844
sg17
(lp1845
sg19
(lp1846
sg21
I0
sbasg22
(lp1847
g1815
ag1822
ag1829
ag1836
ag1843
asg21
I0
sg24
S'1051'
p1848
sba(iArchitecture
Cluster
p1849
(dp1850
g7
(lp1851
(iArchitecture
Entity
p1852
(dp1853
g11
(lp1854
sg13
S'com.android.server.policy.StatusBarController'
p1855
sg15
(lp1856
sg17
(lp1857
sg19
(lp1858
sg21
I0
sba(iArchitecture
Entity
p1859
(dp1860
g11
(lp1861
sg13
S'com.android.server.policy.StatusBarController$1'
p1862
sg15
(lp1863
sg17
(lp1864
sg19
(lp1865
sg21
I0
sba(iArchitecture
Entity
p1866
(dp1867
g11
(lp1868
sg13
S'com.android.server.policy.StatusBarController$1$1'
p1869
sg15
(lp1870
sg17
(lp1871
sg19
(lp1872
sg21
I0
sba(iArchitecture
Entity
p1873
(dp1874
g11
(lp1875
sg13
S'com.android.server.policy.StatusBarController$1$2'
p1876
sg15
(lp1877
sg17
(lp1878
sg19
(lp1879
sg21
I0
sba(iArchitecture
Entity
p1880
(dp1881
g11
(lp1882
sg13
S'com.android.server.policy.StatusBarController$1$3'
p1883
sg15
(lp1884
sg17
(lp1885
sg19
(lp1886
sg21
I0
sba(iArchitecture
Entity
p1887
(dp1888
g11
(lp1889
sg13
S'com.android.server.policy.StatusBarController$1$4'
p1890
sg15
(lp1891
sg17
(lp1892
sg19
(lp1893
sg21
I0
sbasg22
(lp1894
g1855
ag1862
ag1869
ag1876
ag1883
ag1890
asg21
I0
sg24
S'1052'
p1895
sba(iArchitecture
Cluster
p1896
(dp1897
g7
(lp1898
(iArchitecture
Entity
p1899
(dp1900
g11
(lp1901
sg13
S'android.widget.PopupMenu'
p1902
sg15
(lp1903
sg17
(lp1904
sg19
(lp1905
sg21
I0
sba(iArchitecture
Entity
p1906
(dp1907
g11
(lp1908
sg13
S'android.widget.PopupMenu$1'
p1909
sg15
(lp1910
sg17
(lp1911
sg19
(lp1912
sg21
I0
sba(iArchitecture
Entity
p1913
(dp1914
g11
(lp1915
sg13
S'android.widget.PopupMenu$2'
p1916
sg15
(lp1917
sg17
(lp1918
sg19
(lp1919
sg21
I0
sba(iArchitecture
Entity
p1920
(dp1921
g11
(lp1922
sg13
S'android.widget.PopupMenu$3'
p1923
sg15
(lp1924
sg17
(lp1925
sg19
(lp1926
sg21
I0
sba(iArchitecture
Entity
p1927
(dp1928
g11
(lp1929
sg13
S'android.widget.PopupMenu$OnDismissListener'
p1930
sg15
(lp1931
sg17
(lp1932
sg19
(lp1933
sg21
I0
sba(iArchitecture
Entity
p1934
(dp1935
g11
(lp1936
sg13
S'android.widget.PopupMenu$OnMenuItemClickListener'
p1937
sg15
(lp1938
sg17
(lp1939
sg19
(lp1940
sg21
I0
sbasg22
(lp1941
g1902
ag1909
ag1916
ag1923
ag1930
ag1937
asg21
I0
sg24
S'1053'
p1942
sba(iArchitecture
Cluster
p1943
(dp1944
g7
(lp1945
(iArchitecture
Entity
p1946
(dp1947
g11
(lp1948
sg13
S'android.graphics.pdf.PdfDocument'
p1949
sg15
(lp1950
sg17
(lp1951
sg19
(lp1952
sg21
I0
sba(iArchitecture
Entity
p1953
(dp1954
g11
(lp1955
sg13
S'android.graphics.pdf.PdfDocument$Page'
p1956
sg15
(lp1957
sg17
(lp1958
sg19
(lp1959
sg21
I0
sba(iArchitecture
Entity
p1960
(dp1961
g11
(lp1962
sg13
S'android.graphics.pdf.PdfDocument$PageInfo'
p1963
sg15
(lp1964
sg17
(lp1965
sg19
(lp1966
sg21
I0
sba(iArchitecture
Entity
p1967
(dp1968
g11
(lp1969
sg13
S'android.graphics.pdf.PdfDocument$PageInfo$Builder'
p1970
sg15
(lp1971
sg17
(lp1972
sg19
(lp1973
sg21
I0
sba(iArchitecture
Entity
p1974
(dp1975
g11
(lp1976
sg13
S'android.graphics.pdf.PdfDocument$PdfCanvas'
p1977
sg15
(lp1978
sg17
(lp1979
sg19
(lp1980
sg21
I0
sbasg22
(lp1981
g1949
ag1956
ag1963
ag1970
ag1977
asg21
I0
sg24
S'1054'
p1982
sba(iArchitecture
Cluster
p1983
(dp1984
g7
(lp1985
(iArchitecture
Entity
p1986
(dp1987
g11
(lp1988
sg13
S'android.renderscript.ProgramStore'
p1989
sg15
(lp1990
sg17
(lp1991
sg19
(lp1992
sg21
I0
sba(iArchitecture
Entity
p1993
(dp1994
g11
(lp1995
sg13
S'android.renderscript.ProgramStore$BlendDstFunc'
p1996
sg15
(lp1997
sg17
(lp1998
sg19
(lp1999
sg21
I0
sba(iArchitecture
Entity
p2000
(dp2001
g11
(lp2002
sg13
S'android.renderscript.ProgramStore$BlendSrcFunc'
p2003
sg15
(lp2004
sg17
(lp2005
sg19
(lp2006
sg21
I0
sba(iArchitecture
Entity
p2007
(dp2008
g11
(lp2009
sg13
S'android.renderscript.ProgramStore$Builder'
p2010
sg15
(lp2011
sg17
(lp2012
sg19
(lp2013
sg21
I0
sba(iArchitecture
Entity
p2014
(dp2015
g11
(lp2016
sg13
S'android.renderscript.ProgramStore$DepthFunc'
p2017
sg15
(lp2018
sg17
(lp2019
sg19
(lp2020
sg21
I0
sbasg22
(lp2021
g1989
ag1996
ag2003
ag2010
ag2017
asg21
I0
sg24
S'1055'
p2022
sba(iArchitecture
Cluster
p2023
(dp2024
g7
(lp2025
(iArchitecture
Entity
p2026
(dp2027
g11
(lp2028
sg13
S'android.app.AlarmManager'
p2029
sg15
(lp2030
sg17
(lp2031
sg19
(lp2032
sg21
I0
sba(iArchitecture
Entity
p2033
(dp2034
g11
(lp2035
sg13
S'android.app.AlarmManager$AlarmClockInfo'
p2036
sg15
(lp2037
sg17
(lp2038
sg19
(lp2039
sg21
I0
sba(iArchitecture
Entity
p2040
(dp2041
g11
(lp2042
sg13
S'android.app.AlarmManager$AlarmClockInfo$1'
p2043
sg15
(lp2044
sg17
(lp2045
sg19
(lp2046
sg21
I0
sba(iArchitecture
Entity
p2047
(dp2048
g11
(lp2049
sg13
S'android.app.AlarmManager$ListenerWrapper'
p2050
sg15
(lp2051
sg17
(lp2052
sg19
(lp2053
sg21
I0
sba(iArchitecture
Entity
p2054
(dp2055
g11
(lp2056
sg13
S'android.app.AlarmManager$OnAlarmListener'
p2057
sg15
(lp2058
sg17
(lp2059
sg19
(lp2060
sg21
I0
sbasg22
(lp2061
g2029
ag2036
ag2043
ag2050
ag2057
asg21
I0
sg24
S'1056'
p2062
sba(iArchitecture
Cluster
p2063
(dp2064
g7
(lp2065
(iArchitecture
Entity
p2066
(dp2067
g11
(lp2068
sg13
S'com.android.internal.util.FileRotator'
p2069
sg15
(lp2070
sg17
(lp2071
sg19
(lp2072
sg21
I0
sba(iArchitecture
Entity
p2073
(dp2074
g11
(lp2075
sg13
S'com.android.internal.util.FileRotator$1'
p2076
sg15
(lp2077
sg17
(lp2078
sg19
(lp2079
sg21
I0
sba(iArchitecture
Entity
p2080
(dp2081
g11
(lp2082
sg13
S'com.android.internal.util.FileRotator$FileInfo'
p2083
sg15
(lp2084
sg17
(lp2085
sg19
(lp2086
sg21
I0
sba(iArchitecture
Entity
p2087
(dp2088
g11
(lp2089
sg13
S'com.android.internal.util.FileRotator$Reader'
p2090
sg15
(lp2091
sg17
(lp2092
sg19
(lp2093
sg21
I0
sba(iArchitecture
Entity
p2094
(dp2095
g11
(lp2096
sg13
S'com.android.internal.util.FileRotator$Rewriter'
p2097
sg15
(lp2098
sg17
(lp2099
sg19
(lp2100
sg21
I0
sba(iArchitecture
Entity
p2101
(dp2102
g11
(lp2103
sg13
S'com.android.internal.util.FileRotator$Writer'
p2104
sg15
(lp2105
sg17
(lp2106
sg19
(lp2107
sg21
I0
sbasg22
(lp2108
g2069
ag2076
ag2083
ag2090
ag2097
ag2104
asg21
I0
sg24
S'1057'
p2109
sba(iArchitecture
Cluster
p2110
(dp2111
g7
(lp2112
(iArchitecture
Entity
p2113
(dp2114
g11
(lp2115
sg13
S'android.view.WindowId'
p2116
sg15
(lp2117
sg17
(lp2118
sg19
(lp2119
sg21
I0
sba(iArchitecture
Entity
p2120
(dp2121
g11
(lp2122
sg13
S'android.view.WindowId$1'
p2123
sg15
(lp2124
sg17
(lp2125
sg19
(lp2126
sg21
I0
sba(iArchitecture
Entity
p2127
(dp2128
g11
(lp2129
sg13
S'android.view.WindowId$FocusObserver'
p2130
sg15
(lp2131
sg17
(lp2132
sg19
(lp2133
sg21
I0
sba(iArchitecture
Entity
p2134
(dp2135
g11
(lp2136
sg13
S'android.view.WindowId$FocusObserver$1'
p2137
sg15
(lp2138
sg17
(lp2139
sg19
(lp2140
sg21
I0
sba(iArchitecture
Entity
p2141
(dp2142
g11
(lp2143
sg13
S'android.view.WindowId$FocusObserver$H'
p2144
sg15
(lp2145
sg17
(lp2146
sg19
(lp2147
sg21
I0
sbasg22
(lp2148
g2116
ag2123
ag2130
ag2137
ag2144
asg21
I0
sg24
S'1058'
p2149
sba(iArchitecture
Cluster
p2150
(dp2151
g7
(lp2152
(iArchitecture
Entity
p2153
(dp2154
g11
(lp2155
sg13
S'android.media.audiofx.Visualizer'
p2156
sg15
(lp2157
sg17
(lp2158
sg19
(lp2159
sg21
I0
sba(iArchitecture
Entity
p2160
(dp2161
g11
(lp2162
sg13
S'android.media.audiofx.Visualizer$MeasurementPeakRms'
p2163
sg15
(lp2164
sg17
(lp2165
sg19
(lp2166
sg21
I0
sba(iArchitecture
Entity
p2167
(dp2168
g11
(lp2169
sg13
S'android.media.audiofx.Visualizer$NativeEventHandler'
p2170
sg15
(lp2171
sg17
(lp2172
sg19
(lp2173
sg21
I0
sba(iArchitecture
Entity
p2174
(dp2175
g11
(lp2176
sg13
S'android.media.audiofx.Visualizer$OnDataCaptureListener'
p2177
sg15
(lp2178
sg17
(lp2179
sg19
(lp2180
sg21
I0
sba(iArchitecture
Entity
p2181
(dp2182
g11
(lp2183
sg13
S'android.media.audiofx.Visualizer$OnServerDiedListener'
p2184
sg15
(lp2185
sg17
(lp2186
sg19
(lp2187
sg21
I0
sbasg22
(lp2188
g2156
ag2163
ag2170
ag2177
ag2184
asg21
I0
sg24
S'1059'
p2189
sba(iArchitecture
Cluster
p2190
(dp2191
g7
(lp2192
(iArchitecture
Entity
p2193
(dp2194
g11
(lp2195
sg13
S'com.android.internal.os.WifiPowerEstimator'
p2196
sg15
(lp2197
sg17
(lp2198
sg19
(lp2199
sg21
I0
sbasg22
(lp2200
g2196
asg21
I0
sg24
S'106'
p2201
sba(iArchitecture
Cluster
p2202
(dp2203
g7
(lp2204
(iArchitecture
Entity
p2205
(dp2206
g11
(lp2207
sg13
S'android.hardware.location.ContextHubManager'
p2208
sg15
(lp2209
sg17
(lp2210
sg19
(lp2211
sg21
I0
sba(iArchitecture
Entity
p2212
(dp2213
g11
(lp2214
sg13
S'android.hardware.location.ContextHubManager$1'
p2215
sg15
(lp2216
sg17
(lp2217
sg19
(lp2218
sg21
I0
sba(iArchitecture
Entity
p2219
(dp2220
g11
(lp2221
sg13
S'android.hardware.location.ContextHubManager$1$1'
p2222
sg15
(lp2223
sg17
(lp2224
sg19
(lp2225
sg21
I0
sba(iArchitecture
Entity
p2226
(dp2227
g11
(lp2228
sg13
S'android.hardware.location.ContextHubManager$Callback'
p2229
sg15
(lp2230
sg17
(lp2231
sg19
(lp2232
sg21
I0
sba(iArchitecture
Entity
p2233
(dp2234
g11
(lp2235
sg13
S'android.hardware.location.ContextHubManager$ICallback'
p2236
sg15
(lp2237
sg17
(lp2238
sg19
(lp2239
sg21
I0
sbasg22
(lp2240
g2208
ag2215
ag2222
ag2229
ag2236
asg21
I0
sg24
S'1060'
p2241
sba(iArchitecture
Cluster
p2242
(dp2243
g7
(lp2244
(iArchitecture
Entity
p2245
(dp2246
g11
(lp2247
sg13
S'android.os.storage.StorageManager'
p2248
sg15
(lp2249
sg17
(lp2250
sg19
(lp2251
sg21
I0
sba(iArchitecture
Entity
p2252
(dp2253
g11
(lp2254
sg13
S'android.os.storage.StorageManager$ObbActionListener'
p2255
sg15
(lp2256
sg17
(lp2257
sg19
(lp2258
sg21
I0
sba(iArchitecture
Entity
p2259
(dp2260
g11
(lp2261
sg13
S'android.os.storage.StorageManager$ObbListenerDelegate'
p2262
sg15
(lp2263
sg17
(lp2264
sg19
(lp2265
sg21
I0
sba(iArchitecture
Entity
p2266
(dp2267
g11
(lp2268
sg13
S'android.os.storage.StorageManager$ObbListenerDelegate$1'
p2269
sg15
(lp2270
sg17
(lp2271
sg19
(lp2272
sg21
I0
sba(iArchitecture
Entity
p2273
(dp2274
g11
(lp2275
sg13
S'android.os.storage.StorageManager$StorageEventListenerDelegate'
p2276
sg15
(lp2277
sg17
(lp2278
sg19
(lp2279
sg21
I0
sbasg22
(lp2280
g2248
ag2255
ag2262
ag2269
ag2276
asg21
I0
sg24
S'1061'
p2281
sba(iArchitecture
Cluster
p2282
(dp2283
g7
(lp2284
(iArchitecture
Entity
p2285
(dp2286
g11
(lp2287
sg13
S'android.view.AccessibilityIterators'
p2288
sg15
(lp2289
sg17
(lp2290
sg19
(lp2291
sg21
I0
sba(iArchitecture
Entity
p2292
(dp2293
g11
(lp2294
sg13
S'android.view.AccessibilityIterators$AbstractTextSegmentIterator'
p2295
sg15
(lp2296
sg17
(lp2297
sg19
(lp2298
sg21
I0
sba(iArchitecture
Entity
p2299
(dp2300
g11
(lp2301
sg13
S'android.view.AccessibilityIterators$CharacterTextSegmentIterator'
p2302
sg15
(lp2303
sg17
(lp2304
sg19
(lp2305
sg21
I0
sba(iArchitecture
Entity
p2306
(dp2307
g11
(lp2308
sg13
S'android.view.AccessibilityIterators$ParagraphTextSegmentIterator'
p2309
sg15
(lp2310
sg17
(lp2311
sg19
(lp2312
sg21
I0
sba(iArchitecture
Entity
p2313
(dp2314
g11
(lp2315
sg13
S'android.view.AccessibilityIterators$TextSegmentIterator'
p2316
sg15
(lp2317
sg17
(lp2318
sg19
(lp2319
sg21
I0
sba(iArchitecture
Entity
p2320
(dp2321
g11
(lp2322
sg13
S'android.view.AccessibilityIterators$WordTextSegmentIterator'
p2323
sg15
(lp2324
sg17
(lp2325
sg19
(lp2326
sg21
I0
sbasg22
(lp2327
g2288
ag2295
ag2302
ag2309
ag2316
ag2323
asg21
I0
sg24
S'1062'
p2328
sba(iArchitecture
Cluster
p2329
(dp2330
g7
(lp2331
(iArchitecture
Entity
p2332
(dp2333
g11
(lp2334
sg13
S'com.android.server.devicepolicy.Owners'
p2335
sg15
(lp2336
sg17
(lp2337
sg19
(lp2338
sg21
I0
sba(iArchitecture
Entity
p2339
(dp2340
g11
(lp2341
sg13
S'com.android.server.devicepolicy.Owners$DeviceOwnerReadWriter'
p2342
sg15
(lp2343
sg17
(lp2344
sg19
(lp2345
sg21
I0
sba(iArchitecture
Entity
p2346
(dp2347
g11
(lp2348
sg13
S'com.android.server.devicepolicy.Owners$FileReadWriter'
p2349
sg15
(lp2350
sg17
(lp2351
sg19
(lp2352
sg21
I0
sba(iArchitecture
Entity
p2353
(dp2354
g11
(lp2355
sg13
S'com.android.server.devicepolicy.Owners$OwnerInfo'
p2356
sg15
(lp2357
sg17
(lp2358
sg19
(lp2359
sg21
I0
sba(iArchitecture
Entity
p2360
(dp2361
g11
(lp2362
sg13
S'com.android.server.devicepolicy.Owners$ProfileOwnerReadWriter'
p2363
sg15
(lp2364
sg17
(lp2365
sg19
(lp2366
sg21
I0
sbasg22
(lp2367
g2335
ag2342
ag2349
ag2356
ag2363
asg21
I0
sg24
S'1063'
p2368
sba(iArchitecture
Cluster
p2369
(dp2370
g7
(lp2371
(iArchitecture
Entity
p2372
(dp2373
g11
(lp2374
sg13
S'com.android.server.accounts.TokenCache'
p2375
sg15
(lp2376
sg17
(lp2377
sg19
(lp2378
sg21
I0
sba(iArchitecture
Entity
p2379
(dp2380
g11
(lp2381
sg13
S'com.android.server.accounts.TokenCache$Key'
p2382
sg15
(lp2383
sg17
(lp2384
sg19
(lp2385
sg21
I0
sba(iArchitecture
Entity
p2386
(dp2387
g11
(lp2388
sg13
S'com.android.server.accounts.TokenCache$TokenLruCache'
p2389
sg15
(lp2390
sg17
(lp2391
sg19
(lp2392
sg21
I0
sba(iArchitecture
Entity
p2393
(dp2394
g11
(lp2395
sg13
S'com.android.server.accounts.TokenCache$TokenLruCache$Evictor'
p2396
sg15
(lp2397
sg17
(lp2398
sg19
(lp2399
sg21
I0
sba(iArchitecture
Entity
p2400
(dp2401
g11
(lp2402
sg13
S'com.android.server.accounts.TokenCache$Value'
p2403
sg15
(lp2404
sg17
(lp2405
sg19
(lp2406
sg21
I0
sbasg22
(lp2407
g2375
ag2382
ag2389
ag2396
ag2403
asg21
I0
sg24
S'1064'
p2408
sba(iArchitecture
Cluster
p2409
(dp2410
g7
(lp2411
(iArchitecture
Entity
p2412
(dp2413
g11
(lp2414
sg13
S'com.android.internal.transition.EpicenterTranslateClipReveal'
p2415
sg15
(lp2416
sg17
(lp2417
sg19
(lp2418
sg21
I0
sba(iArchitecture
Entity
p2419
(dp2420
g11
(lp2421
sg13
S'com.android.internal.transition.EpicenterTranslateClipReveal$1'
p2422
sg15
(lp2423
sg17
(lp2424
sg19
(lp2425
sg21
I0
sba(iArchitecture
Entity
p2426
(dp2427
g11
(lp2428
sg13
S'com.android.internal.transition.EpicenterTranslateClipReveal$State'
p2429
sg15
(lp2430
sg17
(lp2431
sg19
(lp2432
sg21
I0
sba(iArchitecture
Entity
p2433
(dp2434
g11
(lp2435
sg13
S'com.android.internal.transition.EpicenterTranslateClipReveal$StateEvaluator'
p2436
sg15
(lp2437
sg17
(lp2438
sg19
(lp2439
sg21
I0
sba(iArchitecture
Entity
p2440
(dp2441
g11
(lp2442
sg13
S'com.android.internal.transition.EpicenterTranslateClipReveal$StateProperty'
p2443
sg15
(lp2444
sg17
(lp2445
sg19
(lp2446
sg21
I0
sbasg22
(lp2447
g2415
ag2422
ag2429
ag2436
ag2443
asg21
I0
sg24
S'1065'
p2448
sba(iArchitecture
Cluster
p2449
(dp2450
g7
(lp2451
(iArchitecture
Entity
p2452
(dp2453
g11
(lp2454
sg13
S'android.preference.SeekBarVolumizer'
p2455
sg15
(lp2456
sg17
(lp2457
sg19
(lp2458
sg21
I0
sba(iArchitecture
Entity
p2459
(dp2460
g11
(lp2461
sg13
S'android.preference.SeekBarVolumizer$Callback'
p2462
sg15
(lp2463
sg17
(lp2464
sg19
(lp2465
sg21
I0
sba(iArchitecture
Entity
p2466
(dp2467
g11
(lp2468
sg13
S'android.preference.SeekBarVolumizer$H'
p2469
sg15
(lp2470
sg17
(lp2471
sg19
(lp2472
sg21
I0
sba(iArchitecture
Entity
p2473
(dp2474
g11
(lp2475
sg13
S'android.preference.SeekBarVolumizer$Observer'
p2476
sg15
(lp2477
sg17
(lp2478
sg19
(lp2479
sg21
I0
sba(iArchitecture
Entity
p2480
(dp2481
g11
(lp2482
sg13
S'android.preference.SeekBarVolumizer$Receiver'
p2483
sg15
(lp2484
sg17
(lp2485
sg19
(lp2486
sg21
I0
sbasg22
(lp2487
g2455
ag2462
ag2469
ag2476
ag2483
asg21
I0
sg24
S'1066'
p2488
sba(iArchitecture
Cluster
p2489
(dp2490
g7
(lp2491
(iArchitecture
Entity
p2492
(dp2493
g11
(lp2494
sg13
S'android.app.job.JobInfo'
p2495
sg15
(lp2496
sg17
(lp2497
sg19
(lp2498
sg21
I0
sba(iArchitecture
Entity
p2499
(dp2500
g11
(lp2501
sg13
S'android.app.job.JobInfo$1'
p2502
sg15
(lp2503
sg17
(lp2504
sg19
(lp2505
sg21
I0
sba(iArchitecture
Entity
p2506
(dp2507
g11
(lp2508
sg13
S'android.app.job.JobInfo$Builder'
p2509
sg15
(lp2510
sg17
(lp2511
sg19
(lp2512
sg21
I0
sba(iArchitecture
Entity
p2513
(dp2514
g11
(lp2515
sg13
S'android.app.job.JobInfo$TriggerContentUri'
p2516
sg15
(lp2517
sg17
(lp2518
sg19
(lp2519
sg21
I0
sba(iArchitecture
Entity
p2520
(dp2521
g11
(lp2522
sg13
S'android.app.job.JobInfo$TriggerContentUri$1'
p2523
sg15
(lp2524
sg17
(lp2525
sg19
(lp2526
sg21
I0
sbasg22
(lp2527
g2495
ag2502
ag2509
ag2516
ag2523
asg21
I0
sg24
S'1067'
p2528
sba(iArchitecture
Cluster
p2529
(dp2530
g7
(lp2531
(iArchitecture
Entity
p2532
(dp2533
g11
(lp2534
sg13
S'android.animation.LayoutTransition'
p2535
sg15
(lp2536
sg17
(lp2537
sg19
(lp2538
sg21
I0
sba(iArchitecture
Entity
p2539
(dp2540
g11
(lp2541
sg13
S'android.animation.LayoutTransition$1'
p2542
sg15
(lp2543
sg17
(lp2544
sg19
(lp2545
sg21
I0
sba(iArchitecture
Entity
p2546
(dp2547
g11
(lp2548
sg13
S'android.animation.LayoutTransition$2'
p2549
sg15
(lp2550
sg17
(lp2551
sg19
(lp2552
sg21
I0
sba(iArchitecture
Entity
p2553
(dp2554
g11
(lp2555
sg13
S'android.animation.LayoutTransition$3'
p2556
sg15
(lp2557
sg17
(lp2558
sg19
(lp2559
sg21
I0
sba(iArchitecture
Entity
p2560
(dp2561
g11
(lp2562
sg13
S'android.animation.LayoutTransition$4'
p2563
sg15
(lp2564
sg17
(lp2565
sg19
(lp2566
sg21
I0
sba(iArchitecture
Entity
p2567
(dp2568
g11
(lp2569
sg13
S'android.animation.LayoutTransition$5'
p2570
sg15
(lp2571
sg17
(lp2572
sg19
(lp2573
sg21
I0
sba(iArchitecture
Entity
p2574
(dp2575
g11
(lp2576
sg13
S'android.animation.LayoutTransition$CleanupCallback'
p2577
sg15
(lp2578
sg17
(lp2579
sg19
(lp2580
sg21
I0
sba(iArchitecture
Entity
p2581
(dp2582
g11
(lp2583
sg13
S'android.animation.LayoutTransition$TransitionListener'
p2584
sg15
(lp2585
sg17
(lp2586
sg19
(lp2587
sg21
I0
sbasg22
(lp2588
g2535
ag2542
ag2549
ag2556
ag2563
ag2570
ag2577
ag2584
asg21
I0
sg24
S'1068'
p2589
sba(iArchitecture
Cluster
p2590
(dp2591
g7
(lp2592
(iArchitecture
Entity
p2593
(dp2594
g11
(lp2595
sg13
S'com.android.server.pm.ShortcutUser'
p2596
sg15
(lp2597
sg17
(lp2598
sg19
(lp2599
sg21
I0
sba(iArchitecture
Entity
p2600
(dp2601
g11
(lp2602
sg13
S'com.android.server.pm.ShortcutUser$PackageWithUser'
p2603
sg15
(lp2604
sg17
(lp2605
sg19
(lp2606
sg21
I0
sba(iArchitecture
Entity
p2607
(dp2608
g11
(lp2609
sg13
S'com.android.server.pm.ShortcutUser$_void_attemptToRestoreIfNeededAndSave_com_android_server_pm_ShortcutService_s_java_lang_String_packageName_int_packageUserId_LambdaImpl0'
p2610
sg15
(lp2611
sg17
(lp2612
sg19
(lp2613
sg21
I0
sba(iArchitecture
Entity
p2614
(dp2615
g11
(lp2616
sg13
S'com.android.server.pm.ShortcutUser$_void_forPackageItem_java_lang_String_packageName_int_packageUserId_java_util_function_Consumer_callback_LambdaImpl0'
p2617
sg15
(lp2618
sg17
(lp2619
sg19
(lp2620
sg21
I0
sba(iArchitecture
Entity
p2621
(dp2622
g11
(lp2623
sg13
S'com.android.server.pm.ShortcutUser$_void_resetThrottlingIfNeeded_com_android_server_pm_ShortcutService_s_LambdaImpl0'
p2624
sg15
(lp2625
sg17
(lp2626
sg19
(lp2627
sg21
I0
sbasg22
(lp2628
g2596
ag2603
ag2610
ag2617
ag2624
asg21
I0
sg24
S'1069'
p2629
sba(iArchitecture
Cluster
p2630
(dp2631
g7
(lp2632
(iArchitecture
Entity
p2633
(dp2634
g11
(lp2635
sg13
S'android.print.PrintJob'
p2636
sg15
(lp2637
sg17
(lp2638
sg19
(lp2639
sg21
I0
sbasg22
(lp2640
g2636
asg21
I0
sg24
S'107'
p2641
sba(iArchitecture
Cluster
p2642
(dp2643
g7
(lp2644
(iArchitecture
Entity
p2645
(dp2646
g11
(lp2647
sg13
S'android.view.ViewPropertyAnimator'
p2648
sg15
(lp2649
sg17
(lp2650
sg19
(lp2651
sg21
I0
sba(iArchitecture
Entity
p2652
(dp2653
g11
(lp2654
sg13
S'android.view.ViewPropertyAnimator$1'
p2655
sg15
(lp2656
sg17
(lp2657
sg19
(lp2658
sg21
I0
sba(iArchitecture
Entity
p2659
(dp2660
g11
(lp2661
sg13
S'android.view.ViewPropertyAnimator$2'
p2662
sg15
(lp2663
sg17
(lp2664
sg19
(lp2665
sg21
I0
sba(iArchitecture
Entity
p2666
(dp2667
g11
(lp2668
sg13
S'android.view.ViewPropertyAnimator$3'
p2669
sg15
(lp2670
sg17
(lp2671
sg19
(lp2672
sg21
I0
sba(iArchitecture
Entity
p2673
(dp2674
g11
(lp2675
sg13
S'android.view.ViewPropertyAnimator$AnimatorEventListener'
p2676
sg15
(lp2677
sg17
(lp2678
sg19
(lp2679
sg21
I0
sba(iArchitecture
Entity
p2680
(dp2681
g11
(lp2682
sg13
S'android.view.ViewPropertyAnimator$NameValuesHolder'
p2683
sg15
(lp2684
sg17
(lp2685
sg19
(lp2686
sg21
I0
sba(iArchitecture
Entity
p2687
(dp2688
g11
(lp2689
sg13
S'android.view.ViewPropertyAnimator$PropertyBundle'
p2690
sg15
(lp2691
sg17
(lp2692
sg19
(lp2693
sg21
I0
sbasg22
(lp2694
g2648
ag2655
ag2662
ag2669
ag2676
ag2683
ag2690
asg21
I0
sg24
S'1070'
p2695
sba(iArchitecture
Cluster
p2696
(dp2697
g7
(lp2698
(iArchitecture
Entity
p2699
(dp2700
g11
(lp2701
sg13
S'android.location.GpsStatus'
p2702
sg15
(lp2703
sg17
(lp2704
sg19
(lp2705
sg21
I0
sba(iArchitecture
Entity
p2706
(dp2707
g11
(lp2708
sg13
S'android.location.GpsStatus$1'
p2709
sg15
(lp2710
sg17
(lp2711
sg19
(lp2712
sg21
I0
sba(iArchitecture
Entity
p2713
(dp2714
g11
(lp2715
sg13
S'android.location.GpsStatus$Listener'
p2716
sg15
(lp2717
sg17
(lp2718
sg19
(lp2719
sg21
I0
sba(iArchitecture
Entity
p2720
(dp2721
g11
(lp2722
sg13
S'android.location.GpsStatus$NmeaListener'
p2723
sg15
(lp2724
sg17
(lp2725
sg19
(lp2726
sg21
I0
sba(iArchitecture
Entity
p2727
(dp2728
g11
(lp2729
sg13
S'android.location.GpsStatus$SatelliteIterator'
p2730
sg15
(lp2731
sg17
(lp2732
sg19
(lp2733
sg21
I0
sbasg22
(lp2734
g2702
ag2709
ag2716
ag2723
ag2730
asg21
I0
sg24
S'1071'
p2735
sba(iArchitecture
Cluster
p2736
(dp2737
g7
(lp2738
(iArchitecture
Entity
p2739
(dp2740
g11
(lp2741
sg13
S'com.android.server.policy.WindowOrientationListener'
p2742
sg15
(lp2743
sg17
(lp2744
sg19
(lp2745
sg21
I0
sba(iArchitecture
Entity
p2746
(dp2747
g11
(lp2748
sg13
S'com.android.server.policy.WindowOrientationListener$AccelSensorJudge'
p2749
sg15
(lp2750
sg17
(lp2751
sg19
(lp2752
sg21
I0
sba(iArchitecture
Entity
p2753
(dp2754
g11
(lp2755
sg13
S'com.android.server.policy.WindowOrientationListener$OrientationJudge'
p2756
sg15
(lp2757
sg17
(lp2758
sg19
(lp2759
sg21
I0
sba(iArchitecture
Entity
p2760
(dp2761
g11
(lp2762
sg13
S'com.android.server.policy.WindowOrientationListener$OrientationSensorJudge'
p2763
sg15
(lp2764
sg17
(lp2765
sg19
(lp2766
sg21
I0
sba(iArchitecture
Entity
p2767
(dp2768
g11
(lp2769
sg13
S'com.android.server.policy.WindowOrientationListener$OrientationSensorJudge$1'
p2770
sg15
(lp2771
sg17
(lp2772
sg19
(lp2773
sg21
I0
sbasg22
(lp2774
g2742
ag2749
ag2756
ag2763
ag2770
asg21
I0
sg24
S'1072'
p2775
sba(iArchitecture
Cluster
p2776
(dp2777
g7
(lp2778
(iArchitecture
Entity
p2779
(dp2780
g11
(lp2781
sg13
S'android.telecom.CallScreeningService'
p2782
sg15
(lp2783
sg17
(lp2784
sg19
(lp2785
sg21
I0
sba(iArchitecture
Entity
p2786
(dp2787
g11
(lp2788
sg13
S'android.telecom.CallScreeningService$1'
p2789
sg15
(lp2790
sg17
(lp2791
sg19
(lp2792
sg21
I0
sba(iArchitecture
Entity
p2793
(dp2794
g11
(lp2795
sg13
S'android.telecom.CallScreeningService$CallResponse'
p2796
sg15
(lp2797
sg17
(lp2798
sg19
(lp2799
sg21
I0
sba(iArchitecture
Entity
p2800
(dp2801
g11
(lp2802
sg13
S'android.telecom.CallScreeningService$CallResponse$Builder'
p2803
sg15
(lp2804
sg17
(lp2805
sg19
(lp2806
sg21
I0
sba(iArchitecture
Entity
p2807
(dp2808
g11
(lp2809
sg13
S'android.telecom.CallScreeningService$CallScreeningBinder'
p2810
sg15
(lp2811
sg17
(lp2812
sg19
(lp2813
sg21
I0
sbasg22
(lp2814
g2782
ag2789
ag2796
ag2803
ag2810
asg21
I0
sg24
S'1073'
p2815
sba(iArchitecture
Cluster
p2816
(dp2817
g7
(lp2818
(iArchitecture
Entity
p2819
(dp2820
g11
(lp2821
sg13
S'android.preference.PreferenceManager'
p2822
sg15
(lp2823
sg17
(lp2824
sg19
(lp2825
sg21
I0
sba(iArchitecture
Entity
p2826
(dp2827
g11
(lp2828
sg13
S'android.preference.PreferenceManager$OnActivityDestroyListener'
p2829
sg15
(lp2830
sg17
(lp2831
sg19
(lp2832
sg21
I0
sba(iArchitecture
Entity
p2833
(dp2834
g11
(lp2835
sg13
S'android.preference.PreferenceManager$OnActivityResultListener'
p2836
sg15
(lp2837
sg17
(lp2838
sg19
(lp2839
sg21
I0
sba(iArchitecture
Entity
p2840
(dp2841
g11
(lp2842
sg13
S'android.preference.PreferenceManager$OnActivityStopListener'
p2843
sg15
(lp2844
sg17
(lp2845
sg19
(lp2846
sg21
I0
sba(iArchitecture
Entity
p2847
(dp2848
g11
(lp2849
sg13
S'android.preference.PreferenceManager$OnPreferenceTreeClickListener'
p2850
sg15
(lp2851
sg17
(lp2852
sg19
(lp2853
sg21
I0
sbasg22
(lp2854
g2822
ag2829
ag2836
ag2843
ag2850
asg21
I0
sg24
S'1074'
p2855
sba(iArchitecture
Cluster
p2856
(dp2857
g7
(lp2858
(iArchitecture
Entity
p2859
(dp2860
g11
(lp2861
sg13
S'com.android.server.net.NetworkStatsObservers'
p2862
sg15
(lp2863
sg17
(lp2864
sg19
(lp2865
sg21
I0
sba(iArchitecture
Entity
p2866
(dp2867
g11
(lp2868
sg13
S'com.android.server.net.NetworkStatsObservers$1'
p2869
sg15
(lp2870
sg17
(lp2871
sg19
(lp2872
sg21
I0
sba(iArchitecture
Entity
p2873
(dp2874
g11
(lp2875
sg13
S'com.android.server.net.NetworkStatsObservers$NetworkUsageRequestInfo'
p2876
sg15
(lp2877
sg17
(lp2878
sg19
(lp2879
sg21
I0
sba(iArchitecture
Entity
p2880
(dp2881
g11
(lp2882
sg13
S'com.android.server.net.NetworkStatsObservers$RequestInfo'
p2883
sg15
(lp2884
sg17
(lp2885
sg19
(lp2886
sg21
I0
sba(iArchitecture
Entity
p2887
(dp2888
g11
(lp2889
sg13
S'com.android.server.net.NetworkStatsObservers$StatsContext'
p2890
sg15
(lp2891
sg17
(lp2892
sg19
(lp2893
sg21
I0
sba(iArchitecture
Entity
p2894
(dp2895
g11
(lp2896
sg13
S'com.android.server.net.NetworkStatsObservers$UserUsageRequestInfo'
p2897
sg15
(lp2898
sg17
(lp2899
sg19
(lp2900
sg21
I0
sbasg22
(lp2901
g2862
ag2869
ag2876
ag2883
ag2890
ag2897
asg21
I0
sg24
S'1075'
p2902
sba(iArchitecture
Cluster
p2903
(dp2904
g7
(lp2905
(iArchitecture
Entity
p2906
(dp2907
g11
(lp2908
sg13
S'com.android.server.TelephonyRegistry'
p2909
sg15
(lp2910
sg17
(lp2911
sg19
(lp2912
sg21
I0
sba(iArchitecture
Entity
p2913
(dp2914
g11
(lp2915
sg13
S'com.android.server.TelephonyRegistry$1'
p2916
sg15
(lp2917
sg17
(lp2918
sg19
(lp2919
sg21
I0
sba(iArchitecture
Entity
p2920
(dp2921
g11
(lp2922
sg13
S'com.android.server.TelephonyRegistry$2'
p2923
sg15
(lp2924
sg17
(lp2925
sg19
(lp2926
sg21
I0
sba(iArchitecture
Entity
p2927
(dp2928
g11
(lp2929
sg13
S'com.android.server.TelephonyRegistry$LogSSC'
p2930
sg15
(lp2931
sg17
(lp2932
sg19
(lp2933
sg21
I0
sba(iArchitecture
Entity
p2934
(dp2935
g11
(lp2936
sg13
S'com.android.server.TelephonyRegistry$Record'
p2937
sg15
(lp2938
sg17
(lp2939
sg19
(lp2940
sg21
I0
sbasg22
(lp2941
g2909
ag2916
ag2923
ag2930
ag2937
asg21
I0
sg24
S'1076'
p2942
sba(iArchitecture
Cluster
p2943
(dp2944
g7
(lp2945
(iArchitecture
Entity
p2946
(dp2947
g11
(lp2948
sg13
S'android.provider.SearchIndexablesContract'
p2949
sg15
(lp2950
sg17
(lp2951
sg19
(lp2952
sg21
I0
sba(iArchitecture
Entity
p2953
(dp2954
g11
(lp2955
sg13
S'android.provider.SearchIndexablesContract$BaseColumns'
p2956
sg15
(lp2957
sg17
(lp2958
sg19
(lp2959
sg21
I0
sba(iArchitecture
Entity
p2960
(dp2961
g11
(lp2962
sg13
S'android.provider.SearchIndexablesContract$NonIndexableKey'
p2963
sg15
(lp2964
sg17
(lp2965
sg19
(lp2966
sg21
I0
sba(iArchitecture
Entity
p2967
(dp2968
g11
(lp2969
sg13
S'android.provider.SearchIndexablesContract$RawData'
p2970
sg15
(lp2971
sg17
(lp2972
sg19
(lp2973
sg21
I0
sba(iArchitecture
Entity
p2974
(dp2975
g11
(lp2976
sg13
S'android.provider.SearchIndexablesContract$XmlResource'
p2977
sg15
(lp2978
sg17
(lp2979
sg19
(lp2980
sg21
I0
sbasg22
(lp2981
g2949
ag2956
ag2963
ag2970
ag2977
asg21
I0
sg24
S'1077'
p2982
sba(iArchitecture
Cluster
p2983
(dp2984
g7
(lp2985
(iArchitecture
Entity
p2986
(dp2987
g11
(lp2988
sg13
S'android.drm.DrmStore'
p2989
sg15
(lp2990
sg17
(lp2991
sg19
(lp2992
sg21
I0
sba(iArchitecture
Entity
p2993
(dp2994
g11
(lp2995
sg13
S'android.drm.DrmStore$Action'
p2996
sg15
(lp2997
sg17
(lp2998
sg19
(lp2999
sg21
I0
sba(iArchitecture
Entity
p3000
(dp3001
g11
(lp3002
sg13
S'android.drm.DrmStore$ConstraintsColumns'
p3003
sg15
(lp3004
sg17
(lp3005
sg19
(lp3006
sg21
I0
sba(iArchitecture
Entity
p3007
(dp3008
g11
(lp3009
sg13
S'android.drm.DrmStore$DrmObjectType'
p3010
sg15
(lp3011
sg17
(lp3012
sg19
(lp3013
sg21
I0
sba(iArchitecture
Entity
p3014
(dp3015
g11
(lp3016
sg13
S'android.drm.DrmStore$Playback'
p3017
sg15
(lp3018
sg17
(lp3019
sg19
(lp3020
sg21
I0
sba(iArchitecture
Entity
p3021
(dp3022
g11
(lp3023
sg13
S'android.drm.DrmStore$RightsStatus'
p3024
sg15
(lp3025
sg17
(lp3026
sg19
(lp3027
sg21
I0
sbasg22
(lp3028
g2989
ag2996
ag3003
ag3010
ag3017
ag3024
asg21
I0
sg24
S'1078'
p3029
sba(iArchitecture
Cluster
p3030
(dp3031
g7
(lp3032
(iArchitecture
Entity
p3033
(dp3034
g11
(lp3035
sg13
S'android.accessibilityservice.GestureDescription'
p3036
sg15
(lp3037
sg17
(lp3038
sg19
(lp3039
sg21
I0
sba(iArchitecture
Entity
p3040
(dp3041
g11
(lp3042
sg13
S'android.accessibilityservice.GestureDescription$Builder'
p3043
sg15
(lp3044
sg17
(lp3045
sg19
(lp3046
sg21
I0
sba(iArchitecture
Entity
p3047
(dp3048
g11
(lp3049
sg13
S'android.accessibilityservice.GestureDescription$MotionEventGenerator'
p3050
sg15
(lp3051
sg17
(lp3052
sg19
(lp3053
sg21
I0
sba(iArchitecture
Entity
p3054
(dp3055
g11
(lp3056
sg13
S'android.accessibilityservice.GestureDescription$StrokeDescription'
p3057
sg15
(lp3058
sg17
(lp3059
sg19
(lp3060
sg21
I0
sba(iArchitecture
Entity
p3061
(dp3062
g11
(lp3063
sg13
S'android.accessibilityservice.GestureDescription$TouchPoint'
p3064
sg15
(lp3065
sg17
(lp3066
sg19
(lp3067
sg21
I0
sbasg22
(lp3068
g3036
ag3043
ag3050
ag3057
ag3064
asg21
I0
sg24
S'1079'
p3069
sba(iArchitecture
Cluster
p3070
(dp3071
g7
(lp3072
(iArchitecture
Entity
p3073
(dp3074
g11
(lp3075
sg13
S'android.view.animation.Transformation'
p3076
sg15
(lp3077
sg17
(lp3078
sg19
(lp3079
sg21
I0
sbasg22
(lp3080
g3076
asg21
I0
sg24
S'108'
p3081
sba(iArchitecture
Cluster
p3082
(dp3083
g7
(lp3084
(iArchitecture
Entity
p3085
(dp3086
g11
(lp3087
sg13
S'com.android.server.LockSettingsStorage'
p3088
sg15
(lp3089
sg17
(lp3090
sg19
(lp3091
sg21
I0
sba(iArchitecture
Entity
p3092
(dp3093
g11
(lp3094
sg13
S'com.android.server.LockSettingsStorage$Cache'
p3095
sg15
(lp3096
sg17
(lp3097
sg19
(lp3098
sg21
I0
sba(iArchitecture
Entity
p3099
(dp3100
g11
(lp3101
sg13
S'com.android.server.LockSettingsStorage$Cache$CacheKey'
p3102
sg15
(lp3103
sg17
(lp3104
sg19
(lp3105
sg21
I0
sba(iArchitecture
Entity
p3106
(dp3107
g11
(lp3108
sg13
S'com.android.server.LockSettingsStorage$Callback'
p3109
sg15
(lp3110
sg17
(lp3111
sg19
(lp3112
sg21
I0
sba(iArchitecture
Entity
p3113
(dp3114
g11
(lp3115
sg13
S'com.android.server.LockSettingsStorage$CredentialHash'
p3116
sg15
(lp3117
sg17
(lp3118
sg19
(lp3119
sg21
I0
sba(iArchitecture
Entity
p3120
(dp3121
g11
(lp3122
sg13
S'com.android.server.LockSettingsStorage$DatabaseHelper'
p3123
sg15
(lp3124
sg17
(lp3125
sg19
(lp3126
sg21
I0
sbasg22
(lp3127
g3088
ag3095
ag3102
ag3109
ag3116
ag3123
asg21
I0
sg24
S'1080'
p3128
sba(iArchitecture
Cluster
p3129
(dp3130
g7
(lp3131
(iArchitecture
Entity
p3132
(dp3133
g11
(lp3134
sg13
S'android.service.voice.AlwaysOnHotwordDetector'
p3135
sg15
(lp3136
sg17
(lp3137
sg19
(lp3138
sg21
I0
sba(iArchitecture
Entity
p3139
(dp3140
g11
(lp3141
sg13
S'android.service.voice.AlwaysOnHotwordDetector$Callback'
p3142
sg15
(lp3143
sg17
(lp3144
sg19
(lp3145
sg21
I0
sba(iArchitecture
Entity
p3146
(dp3147
g11
(lp3148
sg13
S'android.service.voice.AlwaysOnHotwordDetector$EventPayload'
p3149
sg15
(lp3150
sg17
(lp3151
sg19
(lp3152
sg21
I0
sba(iArchitecture
Entity
p3153
(dp3154
g11
(lp3155
sg13
S'android.service.voice.AlwaysOnHotwordDetector$MyHandler'
p3156
sg15
(lp3157
sg17
(lp3158
sg19
(lp3159
sg21
I0
sba(iArchitecture
Entity
p3160
(dp3161
g11
(lp3162
sg13
S'android.service.voice.AlwaysOnHotwordDetector$RefreshAvailabiltyTask'
p3163
sg15
(lp3164
sg17
(lp3165
sg19
(lp3166
sg21
I0
sba(iArchitecture
Entity
p3167
(dp3168
g11
(lp3169
sg13
S'android.service.voice.AlwaysOnHotwordDetector$SoundTriggerListener'
p3170
sg15
(lp3171
sg17
(lp3172
sg19
(lp3173
sg21
I0
sbasg22
(lp3174
g3135
ag3142
ag3149
ag3156
ag3163
ag3170
asg21
I0
sg24
S'1081'
p3175
sba(iArchitecture
Cluster
p3176
(dp3177
g7
(lp3178
(iArchitecture
Entity
p3179
(dp3180
g11
(lp3181
sg13
S'com.android.server.display.DisplayPowerState'
p3182
sg15
(lp3183
sg17
(lp3184
sg19
(lp3185
sg21
I0
sba(iArchitecture
Entity
p3186
(dp3187
g11
(lp3188
sg13
S'com.android.server.display.DisplayPowerState$1'
p3189
sg15
(lp3190
sg17
(lp3191
sg19
(lp3192
sg21
I0
sba(iArchitecture
Entity
p3193
(dp3194
g11
(lp3195
sg13
S'com.android.server.display.DisplayPowerState$2'
p3196
sg15
(lp3197
sg17
(lp3198
sg19
(lp3199
sg21
I0
sba(iArchitecture
Entity
p3200
(dp3201
g11
(lp3202
sg13
S'com.android.server.display.DisplayPowerState$3'
p3203
sg15
(lp3204
sg17
(lp3205
sg19
(lp3206
sg21
I0
sba(iArchitecture
Entity
p3207
(dp3208
g11
(lp3209
sg13
S'com.android.server.display.DisplayPowerState$4'
p3210
sg15
(lp3211
sg17
(lp3212
sg19
(lp3213
sg21
I0
sba(iArchitecture
Entity
p3214
(dp3215
g11
(lp3216
sg13
S'com.android.server.display.DisplayPowerState$PhotonicModulator'
p3217
sg15
(lp3218
sg17
(lp3219
sg19
(lp3220
sg21
I0
sbasg22
(lp3221
g3182
ag3189
ag3196
ag3203
ag3210
ag3217
asg21
I0
sg24
S'1082'
p3222
sba(iArchitecture
Cluster
p3223
(dp3224
g7
(lp3225
(iArchitecture
Entity
p3226
(dp3227
g11
(lp3228
sg13
S'com.android.server.print.PrintManagerService'
p3229
sg15
(lp3230
sg17
(lp3231
sg19
(lp3232
sg21
I0
sba(iArchitecture
Entity
p3233
(dp3234
g11
(lp3235
sg13
S'com.android.server.print.PrintManagerService$PrintManagerImpl'
p3236
sg15
(lp3237
sg17
(lp3238
sg19
(lp3239
sg21
I0
sba(iArchitecture
Entity
p3240
(dp3241
g11
(lp3242
sg13
S'com.android.server.print.PrintManagerService$PrintManagerImpl$1'
p3243
sg15
(lp3244
sg17
(lp3245
sg19
(lp3246
sg21
I0
sba(iArchitecture
Entity
p3247
(dp3248
g11
(lp3249
sg13
S'com.android.server.print.PrintManagerService$PrintManagerImpl$2'
p3250
sg15
(lp3251
sg17
(lp3252
sg19
(lp3253
sg21
I0
sba(iArchitecture
Entity
p3254
(dp3255
g11
(lp3256
sg13
S'com.android.server.print.PrintManagerService$PrintManagerImpl$3'
p3257
sg15
(lp3258
sg17
(lp3259
sg19
(lp3260
sg21
I0
sba(iArchitecture
Entity
p3261
(dp3262
g11
(lp3263
sg13
S'com.android.server.print.PrintManagerService$PrintManagerImpl$4'
p3264
sg15
(lp3265
sg17
(lp3266
sg19
(lp3267
sg21
I0
sbasg22
(lp3268
g3229
ag3236
ag3243
ag3250
ag3257
ag3264
asg21
I0
sg24
S'1083'
p3269
sba(iArchitecture
Cluster
p3270
(dp3271
g7
(lp3272
(iArchitecture
Entity
p3273
(dp3274
g11
(lp3275
sg13
S'android.net.wifi.WifiEnterpriseConfig'
p3276
sg15
(lp3277
sg17
(lp3278
sg19
(lp3279
sg21
I0
sba(iArchitecture
Entity
p3280
(dp3281
g11
(lp3282
sg13
S'android.net.wifi.WifiEnterpriseConfig$1'
p3283
sg15
(lp3284
sg17
(lp3285
sg19
(lp3286
sg21
I0
sba(iArchitecture
Entity
p3287
(dp3288
g11
(lp3289
sg13
S'android.net.wifi.WifiEnterpriseConfig$Eap'
p3290
sg15
(lp3291
sg17
(lp3292
sg19
(lp3293
sg21
I0
sba(iArchitecture
Entity
p3294
(dp3295
g11
(lp3296
sg13
S'android.net.wifi.WifiEnterpriseConfig$Phase2'
p3297
sg15
(lp3298
sg17
(lp3299
sg19
(lp3300
sg21
I0
sba(iArchitecture
Entity
p3301
(dp3302
g11
(lp3303
sg13
S'android.net.wifi.WifiEnterpriseConfig$SupplicantLoader'
p3304
sg15
(lp3305
sg17
(lp3306
sg19
(lp3307
sg21
I0
sba(iArchitecture
Entity
p3308
(dp3309
g11
(lp3310
sg13
S'android.net.wifi.WifiEnterpriseConfig$SupplicantSaver'
p3311
sg15
(lp3312
sg17
(lp3313
sg19
(lp3314
sg21
I0
sbasg22
(lp3315
g3276
ag3283
ag3290
ag3297
ag3304
ag3311
asg21
I0
sg24
S'1084'
p3316
sba(iArchitecture
Cluster
p3317
(dp3318
g7
(lp3319
(iArchitecture
Entity
p3320
(dp3321
g11
(lp3322
sg13
S'android.widget.YearPickerView'
p3323
sg15
(lp3324
sg17
(lp3325
sg19
(lp3326
sg21
I0
sba(iArchitecture
Entity
p3327
(dp3328
g11
(lp3329
sg13
S'android.widget.YearPickerView$1'
p3330
sg15
(lp3331
sg17
(lp3332
sg19
(lp3333
sg21
I0
sba(iArchitecture
Entity
p3334
(dp3335
g11
(lp3336
sg13
S'android.widget.YearPickerView$2'
p3337
sg15
(lp3338
sg17
(lp3339
sg19
(lp3340
sg21
I0
sba(iArchitecture
Entity
p3341
(dp3342
g11
(lp3343
sg13
S'android.widget.YearPickerView$OnYearSelectedListener'
p3344
sg15
(lp3345
sg17
(lp3346
sg19
(lp3347
sg21
I0
sba(iArchitecture
Entity
p3348
(dp3349
g11
(lp3350
sg13
S'android.widget.YearPickerView$YearAdapter'
p3351
sg15
(lp3352
sg17
(lp3353
sg19
(lp3354
sg21
I0
sbasg22
(lp3355
g3323
ag3330
ag3337
ag3344
ag3351
asg21
I0
sg24
S'1085'
p3356
sba(iArchitecture
Cluster
p3357
(dp3358
g7
(lp3359
(iArchitecture
Entity
p3360
(dp3361
g11
(lp3362
sg13
S'android.view.accessibility.CaptioningManager'
p3363
sg15
(lp3364
sg17
(lp3365
sg19
(lp3366
sg21
I0
sba(iArchitecture
Entity
p3367
(dp3368
g11
(lp3369
sg13
S'android.view.accessibility.CaptioningManager$1'
p3370
sg15
(lp3371
sg17
(lp3372
sg19
(lp3373
sg21
I0
sba(iArchitecture
Entity
p3374
(dp3375
g11
(lp3376
sg13
S'android.view.accessibility.CaptioningManager$CaptionStyle'
p3377
sg15
(lp3378
sg17
(lp3379
sg19
(lp3380
sg21
I0
sba(iArchitecture
Entity
p3381
(dp3382
g11
(lp3383
sg13
S'android.view.accessibility.CaptioningManager$CaptioningChangeListener'
p3384
sg15
(lp3385
sg17
(lp3386
sg19
(lp3387
sg21
I0
sba(iArchitecture
Entity
p3388
(dp3389
g11
(lp3390
sg13
S'android.view.accessibility.CaptioningManager$MyContentObserver'
p3391
sg15
(lp3392
sg17
(lp3393
sg19
(lp3394
sg21
I0
sbasg22
(lp3395
g3363
ag3370
ag3377
ag3384
ag3391
asg21
I0
sg24
S'1086'
p3396
sba(iArchitecture
Cluster
p3397
(dp3398
g7
(lp3399
(iArchitecture
Entity
p3400
(dp3401
g11
(lp3402
sg13
S'com.android.server.tv.TvRemoteProviderProxy'
p3403
sg15
(lp3404
sg17
(lp3405
sg19
(lp3406
sg21
I0
sba(iArchitecture
Entity
p3407
(dp3408
g11
(lp3409
sg13
S'com.android.server.tv.TvRemoteProviderProxy$Connection'
p3410
sg15
(lp3411
sg17
(lp3412
sg19
(lp3413
sg21
I0
sba(iArchitecture
Entity
p3414
(dp3415
g11
(lp3416
sg13
S'com.android.server.tv.TvRemoteProviderProxy$Connection$1'
p3417
sg15
(lp3418
sg17
(lp3419
sg19
(lp3420
sg21
I0
sba(iArchitecture
Entity
p3421
(dp3422
g11
(lp3423
sg13
S'com.android.server.tv.TvRemoteProviderProxy$Connection$2'
p3424
sg15
(lp3425
sg17
(lp3426
sg19
(lp3427
sg21
I0
sba(iArchitecture
Entity
p3428
(dp3429
g11
(lp3430
sg13
S'com.android.server.tv.TvRemoteProviderProxy$ProviderMethods'
p3431
sg15
(lp3432
sg17
(lp3433
sg19
(lp3434
sg21
I0
sba(iArchitecture
Entity
p3435
(dp3436
g11
(lp3437
sg13
S'com.android.server.tv.TvRemoteProviderProxy$RemoteServiceInputProvider'
p3438
sg15
(lp3439
sg17
(lp3440
sg19
(lp3441
sg21
I0
sbasg22
(lp3442
g3403
ag3410
ag3417
ag3424
ag3431
ag3438
asg21
I0
sg24
S'1087'
p3443
sba(iArchitecture
Cluster
p3444
(dp3445
g7
(lp3446
(iArchitecture
Entity
p3447
(dp3448
g11
(lp3449
sg13
S'android.hardware.hdmi.HdmiPlaybackClient'
p3450
sg15
(lp3451
sg17
(lp3452
sg19
(lp3453
sg21
I0
sba(iArchitecture
Entity
p3454
(dp3455
g11
(lp3456
sg13
S'android.hardware.hdmi.HdmiPlaybackClient$1'
p3457
sg15
(lp3458
sg17
(lp3459
sg19
(lp3460
sg21
I0
sba(iArchitecture
Entity
p3461
(dp3462
g11
(lp3463
sg13
S'android.hardware.hdmi.HdmiPlaybackClient$2'
p3464
sg15
(lp3465
sg17
(lp3466
sg19
(lp3467
sg21
I0
sba(iArchitecture
Entity
p3468
(dp3469
g11
(lp3470
sg13
S'android.hardware.hdmi.HdmiPlaybackClient$DisplayStatusCallback'
p3471
sg15
(lp3472
sg17
(lp3473
sg19
(lp3474
sg21
I0
sba(iArchitecture
Entity
p3475
(dp3476
g11
(lp3477
sg13
S'android.hardware.hdmi.HdmiPlaybackClient$OneTouchPlayCallback'
p3478
sg15
(lp3479
sg17
(lp3480
sg19
(lp3481
sg21
I0
sbasg22
(lp3482
g3450
ag3457
ag3464
ag3471
ag3478
asg21
I0
sg24
S'1088'
p3483
sba(iArchitecture
Cluster
p3484
(dp3485
g7
(lp3486
(iArchitecture
Entity
p3487
(dp3488
g11
(lp3489
sg13
S'android.net.NetworkStatsHistory'
p3490
sg15
(lp3491
sg17
(lp3492
sg19
(lp3493
sg21
I0
sba(iArchitecture
Entity
p3494
(dp3495
g11
(lp3496
sg13
S'android.net.NetworkStatsHistory$1'
p3497
sg15
(lp3498
sg17
(lp3499
sg19
(lp3500
sg21
I0
sba(iArchitecture
Entity
p3501
(dp3502
g11
(lp3503
sg13
S'android.net.NetworkStatsHistory$DataStreamUtils'
p3504
sg15
(lp3505
sg17
(lp3506
sg19
(lp3507
sg21
I0
sba(iArchitecture
Entity
p3508
(dp3509
g11
(lp3510
sg13
S'android.net.NetworkStatsHistory$Entry'
p3511
sg15
(lp3512
sg17
(lp3513
sg19
(lp3514
sg21
I0
sba(iArchitecture
Entity
p3515
(dp3516
g11
(lp3517
sg13
S'android.net.NetworkStatsHistory$ParcelUtils'
p3518
sg15
(lp3519
sg17
(lp3520
sg19
(lp3521
sg21
I0
sbasg22
(lp3522
g3490
ag3497
ag3504
ag3511
ag3518
asg21
I0
sg24
S'1089'
p3523
sba(iArchitecture
Cluster
p3524
(dp3525
g7
(lp3526
(iArchitecture
Entity
p3527
(dp3528
g11
(lp3529
sg13
S'com.android.internal.os.CameraPowerCalculator'
p3530
sg15
(lp3531
sg17
(lp3532
sg19
(lp3533
sg21
I0
sbasg22
(lp3534
g3530
asg21
I0
sg24
S'109'
p3535
sba(iArchitecture
Cluster
p3536
(dp3537
g7
(lp3538
(iArchitecture
Entity
p3539
(dp3540
g11
(lp3541
sg13
S'android.media.soundtrigger.SoundTriggerDetector'
p3542
sg15
(lp3543
sg17
(lp3544
sg19
(lp3545
sg21
I0
sba(iArchitecture
Entity
p3546
(dp3547
g11
(lp3548
sg13
S'android.media.soundtrigger.SoundTriggerDetector$Callback'
p3549
sg15
(lp3550
sg17
(lp3551
sg19
(lp3552
sg21
I0
sba(iArchitecture
Entity
p3553
(dp3554
g11
(lp3555
sg13
S'android.media.soundtrigger.SoundTriggerDetector$EventPayload'
p3556
sg15
(lp3557
sg17
(lp3558
sg19
(lp3559
sg21
I0
sba(iArchitecture
Entity
p3560
(dp3561
g11
(lp3562
sg13
S'android.media.soundtrigger.SoundTriggerDetector$MyHandler'
p3563
sg15
(lp3564
sg17
(lp3565
sg19
(lp3566
sg21
I0
sba(iArchitecture
Entity
p3567
(dp3568
g11
(lp3569
sg13
S'android.media.soundtrigger.SoundTriggerDetector$RecognitionCallback'
p3570
sg15
(lp3571
sg17
(lp3572
sg19
(lp3573
sg21
I0
sbasg22
(lp3574
g3542
ag3549
ag3556
ag3563
ag3570
asg21
I0
sg24
S'1090'
p3575
sba(iArchitecture
Cluster
p3576
(dp3577
g7
(lp3578
(iArchitecture
Entity
p3579
(dp3580
g11
(lp3581
sg13
S'android.media.MediaScannerConnection'
p3582
sg15
(lp3583
sg17
(lp3584
sg19
(lp3585
sg21
I0
sba(iArchitecture
Entity
p3586
(dp3587
g11
(lp3588
sg13
S'android.media.MediaScannerConnection$1'
p3589
sg15
(lp3590
sg17
(lp3591
sg19
(lp3592
sg21
I0
sba(iArchitecture
Entity
p3593
(dp3594
g11
(lp3595
sg13
S'android.media.MediaScannerConnection$ClientProxy'
p3596
sg15
(lp3597
sg17
(lp3598
sg19
(lp3599
sg21
I0
sba(iArchitecture
Entity
p3600
(dp3601
g11
(lp3602
sg13
S'android.media.MediaScannerConnection$MediaScannerConnectionClient'
p3603
sg15
(lp3604
sg17
(lp3605
sg19
(lp3606
sg21
I0
sba(iArchitecture
Entity
p3607
(dp3608
g11
(lp3609
sg13
S'android.media.MediaScannerConnection$OnScanCompletedListener'
p3610
sg15
(lp3611
sg17
(lp3612
sg19
(lp3613
sg21
I0
sbasg22
(lp3614
g3582
ag3589
ag3596
ag3603
ag3610
asg21
I0
sg24
S'1091'
p3615
sba(iArchitecture
Cluster
p3616
(dp3617
g7
(lp3618
(iArchitecture
Entity
p3619
(dp3620
g11
(lp3621
sg13
S'android.media.RemoteDisplay'
p3622
sg15
(lp3623
sg17
(lp3624
sg19
(lp3625
sg21
I0
sba(iArchitecture
Entity
p3626
(dp3627
g11
(lp3628
sg13
S'android.media.RemoteDisplay$1'
p3629
sg15
(lp3630
sg17
(lp3631
sg19
(lp3632
sg21
I0
sba(iArchitecture
Entity
p3633
(dp3634
g11
(lp3635
sg13
S'android.media.RemoteDisplay$2'
p3636
sg15
(lp3637
sg17
(lp3638
sg19
(lp3639
sg21
I0
sba(iArchitecture
Entity
p3640
(dp3641
g11
(lp3642
sg13
S'android.media.RemoteDisplay$3'
p3643
sg15
(lp3644
sg17
(lp3645
sg19
(lp3646
sg21
I0
sba(iArchitecture
Entity
p3647
(dp3648
g11
(lp3649
sg13
S'android.media.RemoteDisplay$Listener'
p3650
sg15
(lp3651
sg17
(lp3652
sg19
(lp3653
sg21
I0
sbasg22
(lp3654
g3622
ag3629
ag3636
ag3643
ag3650
asg21
I0
sg24
S'1092'
p3655
sba(iArchitecture
Cluster
p3656
(dp3657
g7
(lp3658
(iArchitecture
Entity
p3659
(dp3660
g11
(lp3661
sg13
S'com.android.internal.util.AsyncChannel'
p3662
sg15
(lp3663
sg17
(lp3664
sg19
(lp3665
sg21
I0
sba(iArchitecture
Entity
p3666
(dp3667
g11
(lp3668
sg13
S'com.android.internal.util.AsyncChannel$1ConnectAsync'
p3669
sg15
(lp3670
sg17
(lp3671
sg19
(lp3672
sg21
I0
sba(iArchitecture
Entity
p3673
(dp3674
g11
(lp3675
sg13
S'com.android.internal.util.AsyncChannel$AsyncChannelConnection'
p3676
sg15
(lp3677
sg17
(lp3678
sg19
(lp3679
sg21
I0
sba(iArchitecture
Entity
p3680
(dp3681
g11
(lp3682
sg13
S'com.android.internal.util.AsyncChannel$DeathMonitor'
p3683
sg15
(lp3684
sg17
(lp3685
sg19
(lp3686
sg21
I0
sba(iArchitecture
Entity
p3687
(dp3688
g11
(lp3689
sg13
S'com.android.internal.util.AsyncChannel$SyncMessenger'
p3690
sg15
(lp3691
sg17
(lp3692
sg19
(lp3693
sg21
I0
sba(iArchitecture
Entity
p3694
(dp3695
g11
(lp3696
sg13
S'com.android.internal.util.AsyncChannel$SyncMessenger$SyncHandler'
p3697
sg15
(lp3698
sg17
(lp3699
sg19
(lp3700
sg21
I0
sbasg22
(lp3701
g3662
ag3669
ag3676
ag3683
ag3690
ag3697
asg21
I0
sg24
S'1093'
p3702
sba(iArchitecture
Cluster
p3703
(dp3704
g7
(lp3705
(iArchitecture
Entity
p3706
(dp3707
g11
(lp3708
sg13
S'com.android.server.hdmi.HdmiCecStandbyModeHandler'
p3709
sg15
(lp3710
sg17
(lp3711
sg19
(lp3712
sg21
I0
sba(iArchitecture
Entity
p3713
(dp3714
g11
(lp3715
sg13
S'com.android.server.hdmi.HdmiCecStandbyModeHandler$Aborter'
p3716
sg15
(lp3717
sg17
(lp3718
sg19
(lp3719
sg21
I0
sba(iArchitecture
Entity
p3720
(dp3721
g11
(lp3722
sg13
S'com.android.server.hdmi.HdmiCecStandbyModeHandler$AutoOnHandler'
p3723
sg15
(lp3724
sg17
(lp3725
sg19
(lp3726
sg21
I0
sba(iArchitecture
Entity
p3727
(dp3728
g11
(lp3729
sg13
S'com.android.server.hdmi.HdmiCecStandbyModeHandler$Bypasser'
p3730
sg15
(lp3731
sg17
(lp3732
sg19
(lp3733
sg21
I0
sba(iArchitecture
Entity
p3734
(dp3735
g11
(lp3736
sg13
S'com.android.server.hdmi.HdmiCecStandbyModeHandler$Bystander'
p3737
sg15
(lp3738
sg17
(lp3739
sg19
(lp3740
sg21
I0
sba(iArchitecture
Entity
p3741
(dp3742
g11
(lp3743
sg13
S'com.android.server.hdmi.HdmiCecStandbyModeHandler$CecMessageHandler'
p3744
sg15
(lp3745
sg17
(lp3746
sg19
(lp3747
sg21
I0
sba(iArchitecture
Entity
p3748
(dp3749
g11
(lp3750
sg13
S'com.android.server.hdmi.HdmiCecStandbyModeHandler$UserControlProcessedHandler'
p3751
sg15
(lp3752
sg17
(lp3753
sg19
(lp3754
sg21
I0
sbasg22
(lp3755
g3709
ag3716
ag3723
ag3730
ag3737
ag3744
ag3751
asg21
I0
sg24
S'1094'
p3756
sba(iArchitecture
Cluster
p3757
(dp3758
g7
(lp3759
(iArchitecture
Entity
p3760
(dp3761
g11
(lp3762
sg13
S'com.android.server.MmsServiceBroker'
p3763
sg15
(lp3764
sg17
(lp3765
sg19
(lp3766
sg21
I0
sba(iArchitecture
Entity
p3767
(dp3768
g11
(lp3769
sg13
S'com.android.server.MmsServiceBroker$1'
p3770
sg15
(lp3771
sg17
(lp3772
sg19
(lp3773
sg21
I0
sba(iArchitecture
Entity
p3774
(dp3775
g11
(lp3776
sg13
S'com.android.server.MmsServiceBroker$2'
p3777
sg15
(lp3778
sg17
(lp3779
sg19
(lp3780
sg21
I0
sba(iArchitecture
Entity
p3781
(dp3782
g11
(lp3783
sg13
S'com.android.server.MmsServiceBroker$3'
p3784
sg15
(lp3785
sg17
(lp3786
sg19
(lp3787
sg21
I0
sba(iArchitecture
Entity
p3788
(dp3789
g11
(lp3790
sg13
S'com.android.server.MmsServiceBroker$BinderService'
p3791
sg15
(lp3792
sg17
(lp3793
sg19
(lp3794
sg21
I0
sbasg22
(lp3795
g3763
ag3770
ag3777
ag3784
ag3791
asg21
I0
sg24
S'1095'
p3796
sba(iArchitecture
Cluster
p3797
(dp3798
g7
(lp3799
(iArchitecture
Entity
p3800
(dp3801
g11
(lp3802
sg13
S'android.hardware.radio.RadioMetadata'
p3803
sg15
(lp3804
sg17
(lp3805
sg19
(lp3806
sg21
I0
sba(iArchitecture
Entity
p3807
(dp3808
g11
(lp3809
sg13
S'android.hardware.radio.RadioMetadata$1'
p3810
sg15
(lp3811
sg17
(lp3812
sg19
(lp3813
sg21
I0
sba(iArchitecture
Entity
p3814
(dp3815
g11
(lp3816
sg13
S'android.hardware.radio.RadioMetadata$Builder'
p3817
sg15
(lp3818
sg17
(lp3819
sg19
(lp3820
sg21
I0
sba(iArchitecture
Entity
p3821
(dp3822
g11
(lp3823
sg13
S'android.hardware.radio.RadioMetadata$Clock'
p3824
sg15
(lp3825
sg17
(lp3826
sg19
(lp3827
sg21
I0
sba(iArchitecture
Entity
p3828
(dp3829
g11
(lp3830
sg13
S'android.hardware.radio.RadioMetadata$Clock$1'
p3831
sg15
(lp3832
sg17
(lp3833
sg19
(lp3834
sg21
I0
sbasg22
(lp3835
g3803
ag3810
ag3817
ag3824
ag3831
asg21
I0
sg24
S'1096'
p3836
sba(iArchitecture
Cluster
p3837
(dp3838
g7
(lp3839
(iArchitecture
Entity
p3840
(dp3841
g11
(lp3842
sg13
S'android.media.session.MediaSessionManager'
p3843
sg15
(lp3844
sg17
(lp3845
sg19
(lp3846
sg21
I0
sba(iArchitecture
Entity
p3847
(dp3848
g11
(lp3849
sg13
S'android.media.session.MediaSessionManager$OnActiveSessionsChangedListener'
p3850
sg15
(lp3851
sg17
(lp3852
sg19
(lp3853
sg21
I0
sba(iArchitecture
Entity
p3854
(dp3855
g11
(lp3856
sg13
S'android.media.session.MediaSessionManager$SessionsChangedWrapper'
p3857
sg15
(lp3858
sg17
(lp3859
sg19
(lp3860
sg21
I0
sba(iArchitecture
Entity
p3861
(dp3862
g11
(lp3863
sg13
S'android.media.session.MediaSessionManager$SessionsChangedWrapper$1'
p3864
sg15
(lp3865
sg17
(lp3866
sg19
(lp3867
sg21
I0
sba(iArchitecture
Entity
p3868
(dp3869
g11
(lp3870
sg13
S'android.media.session.MediaSessionManager$SessionsChangedWrapper$1$1'
p3871
sg15
(lp3872
sg17
(lp3873
sg19
(lp3874
sg21
I0
sbasg22
(lp3875
g3843
ag3850
ag3857
ag3864
ag3871
asg21
I0
sg24
S'1097'
p3876
sba(iArchitecture
Cluster
p3877
(dp3878
g7
(lp3879
(iArchitecture
Entity
p3880
(dp3881
g11
(lp3882
sg13
S'android.gesture.GestureOverlayView'
p3883
sg15
(lp3884
sg17
(lp3885
sg19
(lp3886
sg21
I0
sba(iArchitecture
Entity
p3887
(dp3888
g11
(lp3889
sg13
S'android.gesture.GestureOverlayView$FadeOutRunnable'
p3890
sg15
(lp3891
sg17
(lp3892
sg19
(lp3893
sg21
I0
sba(iArchitecture
Entity
p3894
(dp3895
g11
(lp3896
sg13
S'android.gesture.GestureOverlayView$OnGestureListener'
p3897
sg15
(lp3898
sg17
(lp3899
sg19
(lp3900
sg21
I0
sba(iArchitecture
Entity
p3901
(dp3902
g11
(lp3903
sg13
S'android.gesture.GestureOverlayView$OnGesturePerformedListener'
p3904
sg15
(lp3905
sg17
(lp3906
sg19
(lp3907
sg21
I0
sba(iArchitecture
Entity
p3908
(dp3909
g11
(lp3910
sg13
S'android.gesture.GestureOverlayView$OnGesturingListener'
p3911
sg15
(lp3912
sg17
(lp3913
sg19
(lp3914
sg21
I0
sbasg22
(lp3915
g3883
ag3890
ag3897
ag3904
ag3911
asg21
I0
sg24
S'1098'
p3916
sba(iArchitecture
Cluster
p3917
(dp3918
g7
(lp3919
(iArchitecture
Entity
p3920
(dp3921
g11
(lp3922
sg13
S'android.media.session.PlaybackState'
p3923
sg15
(lp3924
sg17
(lp3925
sg19
(lp3926
sg21
I0
sba(iArchitecture
Entity
p3927
(dp3928
g11
(lp3929
sg13
S'android.media.session.PlaybackState$1'
p3930
sg15
(lp3931
sg17
(lp3932
sg19
(lp3933
sg21
I0
sba(iArchitecture
Entity
p3934
(dp3935
g11
(lp3936
sg13
S'android.media.session.PlaybackState$Builder'
p3937
sg15
(lp3938
sg17
(lp3939
sg19
(lp3940
sg21
I0
sba(iArchitecture
Entity
p3941
(dp3942
g11
(lp3943
sg13
S'android.media.session.PlaybackState$CustomAction'
p3944
sg15
(lp3945
sg17
(lp3946
sg19
(lp3947
sg21
I0
sba(iArchitecture
Entity
p3948
(dp3949
g11
(lp3950
sg13
S'android.media.session.PlaybackState$CustomAction$1'
p3951
sg15
(lp3952
sg17
(lp3953
sg19
(lp3954
sg21
I0
sba(iArchitecture
Entity
p3955
(dp3956
g11
(lp3957
sg13
S'android.media.session.PlaybackState$CustomAction$Builder'
p3958
sg15
(lp3959
sg17
(lp3960
sg19
(lp3961
sg21
I0
sbasg22
(lp3962
g3923
ag3930
ag3937
ag3944
ag3951
ag3958
asg21
I0
sg24
S'1099'
p3963
sba(iArchitecture
Cluster
p3964
(dp3965
g7
(lp3966
(iArchitecture
Entity
p3967
(dp3968
g11
(lp3969
sg13
S'android.security.keystore.AndroidKeyStoreBCWorkaroundProvider'
p3970
sg15
(lp3971
sg17
(lp3972
sg19
(lp3973
sg21
I0
sbasg22
(lp3974
g3970
asg21
I0
sg24
S'110'
p3975
sba(iArchitecture
Cluster
p3976
(dp3977
g7
(lp3978
(iArchitecture
Entity
p3979
(dp3980
g11
(lp3981
sg13
S'android.text.util.Linkify'
p3982
sg15
(lp3983
sg17
(lp3984
sg19
(lp3985
sg21
I0
sba(iArchitecture
Entity
p3986
(dp3987
g11
(lp3988
sg13
S'android.text.util.Linkify$1'
p3989
sg15
(lp3990
sg17
(lp3991
sg19
(lp3992
sg21
I0
sba(iArchitecture
Entity
p3993
(dp3994
g11
(lp3995
sg13
S'android.text.util.Linkify$2'
p3996
sg15
(lp3997
sg17
(lp3998
sg19
(lp3999
sg21
I0
sba(iArchitecture
Entity
p4000
(dp4001
g11
(lp4002
sg13
S'android.text.util.Linkify$3'
p4003
sg15
(lp4004
sg17
(lp4005
sg19
(lp4006
sg21
I0
sba(iArchitecture
Entity
p4007
(dp4008
g11
(lp4009
sg13
S'android.text.util.Linkify$4'
p4010
sg15
(lp4011
sg17
(lp4012
sg19
(lp4013
sg21
I0
sba(iArchitecture
Entity
p4014
(dp4015
g11
(lp4016
sg13
S'android.text.util.Linkify$MatchFilter'
p4017
sg15
(lp4018
sg17
(lp4019
sg19
(lp4020
sg21
I0
sba(iArchitecture
Entity
p4021
(dp4022
g11
(lp4023
sg13
S'android.text.util.Linkify$TransformFilter'
p4024
sg15
(lp4025
sg17
(lp4026
sg19
(lp4027
sg21
I0
sbasg22
(lp4028
g3982
ag3989
ag3996
ag4003
ag4010
ag4017
ag4024
asg21
I0
sg24
S'1100'
p4029
sba(iArchitecture
Cluster
p4030
(dp4031
g7
(lp4032
(iArchitecture
Entity
p4033
(dp4034
g11
(lp4035
sg13
S'android.os.CommonClock'
p4036
sg15
(lp4037
sg17
(lp4038
sg19
(lp4039
sg21
I0
sba(iArchitecture
Entity
p4040
(dp4041
g11
(lp4042
sg13
S'android.os.CommonClock$1'
p4043
sg15
(lp4044
sg17
(lp4045
sg19
(lp4046
sg21
I0
sba(iArchitecture
Entity
p4047
(dp4048
g11
(lp4049
sg13
S'android.os.CommonClock$OnServerDiedListener'
p4050
sg15
(lp4051
sg17
(lp4052
sg19
(lp4053
sg21
I0
sba(iArchitecture
Entity
p4054
(dp4055
g11
(lp4056
sg13
S'android.os.CommonClock$OnTimelineChangedListener'
p4057
sg15
(lp4058
sg17
(lp4059
sg19
(lp4060
sg21
I0
sba(iArchitecture
Entity
p4061
(dp4062
g11
(lp4063
sg13
S'android.os.CommonClock$TimelineChangedListener'
p4064
sg15
(lp4065
sg17
(lp4066
sg19
(lp4067
sg21
I0
sbasg22
(lp4068
g4036
ag4043
ag4050
ag4057
ag4064
asg21
I0
sg24
S'1101'
p4069
sba(iArchitecture
Cluster
p4070
(dp4071
g7
(lp4072
(iArchitecture
Entity
p4073
(dp4074
g11
(lp4075
sg13
S'com.android.internal.widget.LockPatternChecker'
p4076
sg15
(lp4077
sg17
(lp4078
sg19
(lp4079
sg21
I0
sba(iArchitecture
Entity
p4080
(dp4081
g11
(lp4082
sg13
S'com.android.internal.widget.LockPatternChecker$1'
p4083
sg15
(lp4084
sg17
(lp4085
sg19
(lp4086
sg21
I0
sba(iArchitecture
Entity
p4087
(dp4088
g11
(lp4089
sg13
S'com.android.internal.widget.LockPatternChecker$2'
p4090
sg15
(lp4091
sg17
(lp4092
sg19
(lp4093
sg21
I0
sba(iArchitecture
Entity
p4094
(dp4095
g11
(lp4096
sg13
S'com.android.internal.widget.LockPatternChecker$3'
p4097
sg15
(lp4098
sg17
(lp4099
sg19
(lp4100
sg21
I0
sba(iArchitecture
Entity
p4101
(dp4102
g11
(lp4103
sg13
S'com.android.internal.widget.LockPatternChecker$4'
p4104
sg15
(lp4105
sg17
(lp4106
sg19
(lp4107
sg21
I0
sba(iArchitecture
Entity
p4108
(dp4109
g11
(lp4110
sg13
S'com.android.internal.widget.LockPatternChecker$5'
p4111
sg15
(lp4112
sg17
(lp4113
sg19
(lp4114
sg21
I0
sba(iArchitecture
Entity
p4115
(dp4116
g11
(lp4117
sg13
S'com.android.internal.widget.LockPatternChecker$OnCheckCallback'
p4118
sg15
(lp4119
sg17
(lp4120
sg19
(lp4121
sg21
I0
sba(iArchitecture
Entity
p4122
(dp4123
g11
(lp4124
sg13
S'com.android.internal.widget.LockPatternChecker$OnVerifyCallback'
p4125
sg15
(lp4126
sg17
(lp4127
sg19
(lp4128
sg21
I0
sbasg22
(lp4129
g4076
ag4083
ag4090
ag4097
ag4104
ag4111
ag4118
ag4125
asg21
I0
sg24
S'1102'
p4130
sba(iArchitecture
Cluster
p4131
(dp4132
g7
(lp4133
(iArchitecture
Entity
p4134
(dp4135
g11
(lp4136
sg13
S'android.media.ExifInterface'
p4137
sg15
(lp4138
sg17
(lp4139
sg19
(lp4140
sg21
I0
sba(iArchitecture
Entity
p4141
(dp4142
g11
(lp4143
sg13
S'android.media.ExifInterface$ByteOrderAwarenessDataInputStream'
p4144
sg15
(lp4145
sg17
(lp4146
sg19
(lp4147
sg21
I0
sba(iArchitecture
Entity
p4148
(dp4149
g11
(lp4150
sg13
S'android.media.ExifInterface$ByteOrderAwarenessDataOutputStream'
p4151
sg15
(lp4152
sg17
(lp4153
sg19
(lp4154
sg21
I0
sba(iArchitecture
Entity
p4155
(dp4156
g11
(lp4157
sg13
S'android.media.ExifInterface$ExifAttribute'
p4158
sg15
(lp4159
sg17
(lp4160
sg19
(lp4161
sg21
I0
sba(iArchitecture
Entity
p4162
(dp4163
g11
(lp4164
sg13
S'android.media.ExifInterface$ExifTag'
p4165
sg15
(lp4166
sg17
(lp4167
sg19
(lp4168
sg21
I0
sba(iArchitecture
Entity
p4169
(dp4170
g11
(lp4171
sg13
S'android.media.ExifInterface$Rational'
p4172
sg15
(lp4173
sg17
(lp4174
sg19
(lp4175
sg21
I0
sbasg22
(lp4176
g4137
ag4144
ag4151
ag4158
ag4165
ag4172
asg21
I0
sg24
S'1103'
p4177
sba(iArchitecture
Cluster
p4178
(dp4179
g7
(lp4180
(iArchitecture
Entity
p4181
(dp4182
g11
(lp4183
sg13
S'com.android.server.display.LocalDisplayAdapter'
p4184
sg15
(lp4185
sg17
(lp4186
sg19
(lp4187
sg21
I0
sba(iArchitecture
Entity
p4188
(dp4189
g11
(lp4190
sg13
S'com.android.server.display.LocalDisplayAdapter$DisplayModeRecord'
p4191
sg15
(lp4192
sg17
(lp4193
sg19
(lp4194
sg21
I0
sba(iArchitecture
Entity
p4195
(dp4196
g11
(lp4197
sg13
S'com.android.server.display.LocalDisplayAdapter$HotplugDisplayEventReceiver'
p4198
sg15
(lp4199
sg17
(lp4200
sg19
(lp4201
sg21
I0
sba(iArchitecture
Entity
p4202
(dp4203
g11
(lp4204
sg13
S'com.android.server.display.LocalDisplayAdapter$LocalDisplayDevice'
p4205
sg15
(lp4206
sg17
(lp4207
sg19
(lp4208
sg21
I0
sba(iArchitecture
Entity
p4209
(dp4210
g11
(lp4211
sg13
S'com.android.server.display.LocalDisplayAdapter$LocalDisplayDevice$1'
p4212
sg15
(lp4213
sg17
(lp4214
sg19
(lp4215
sg21
I0
sbasg22
(lp4216
g4184
ag4191
ag4198
ag4205
ag4212
asg21
I0
sg24
S'1104'
p4217
sba(iArchitecture
Cluster
p4218
(dp4219
g7
(lp4220
(iArchitecture
Entity
p4221
(dp4222
g11
(lp4223
sg13
S'com.android.server.firewall.IntentFirewall'
p4224
sg15
(lp4225
sg17
(lp4226
sg19
(lp4227
sg21
I0
sba(iArchitecture
Entity
p4228
(dp4229
g11
(lp4230
sg13
S'com.android.server.firewall.IntentFirewall$AMSInterface'
p4231
sg15
(lp4232
sg17
(lp4233
sg19
(lp4234
sg21
I0
sba(iArchitecture
Entity
p4235
(dp4236
g11
(lp4237
sg13
S'com.android.server.firewall.IntentFirewall$FirewallHandler'
p4238
sg15
(lp4239
sg17
(lp4240
sg19
(lp4241
sg21
I0
sba(iArchitecture
Entity
p4242
(dp4243
g11
(lp4244
sg13
S'com.android.server.firewall.IntentFirewall$FirewallIntentFilter'
p4245
sg15
(lp4246
sg17
(lp4247
sg19
(lp4248
sg21
I0
sba(iArchitecture
Entity
p4249
(dp4250
g11
(lp4251
sg13
S'com.android.server.firewall.IntentFirewall$FirewallIntentResolver'
p4252
sg15
(lp4253
sg17
(lp4254
sg19
(lp4255
sg21
I0
sba(iArchitecture
Entity
p4256
(dp4257
g11
(lp4258
sg13
S'com.android.server.firewall.IntentFirewall$Rule'
p4259
sg15
(lp4260
sg17
(lp4261
sg19
(lp4262
sg21
I0
sba(iArchitecture
Entity
p4263
(dp4264
g11
(lp4265
sg13
S'com.android.server.firewall.IntentFirewall$RuleObserver'
p4266
sg15
(lp4267
sg17
(lp4268
sg19
(lp4269
sg21
I0
sbasg22
(lp4270
g4224
ag4231
ag4238
ag4245
ag4252
ag4259
ag4266
asg21
I0
sg24
S'1105'
p4271
sba(iArchitecture
Cluster
p4272
(dp4273
g7
(lp4274
(iArchitecture
Entity
p4275
(dp4276
g11
(lp4277
sg13
S'com.android.server.CommonTimeManagementService'
p4278
sg15
(lp4279
sg17
(lp4280
sg19
(lp4281
sg21
I0
sba(iArchitecture
Entity
p4282
(dp4283
g11
(lp4284
sg13
S'com.android.server.CommonTimeManagementService$1'
p4285
sg15
(lp4286
sg17
(lp4287
sg19
(lp4288
sg21
I0
sba(iArchitecture
Entity
p4289
(dp4290
g11
(lp4291
sg13
S'com.android.server.CommonTimeManagementService$2'
p4292
sg15
(lp4293
sg17
(lp4294
sg19
(lp4295
sg21
I0
sba(iArchitecture
Entity
p4296
(dp4297
g11
(lp4298
sg13
S'com.android.server.CommonTimeManagementService$3'
p4299
sg15
(lp4300
sg17
(lp4301
sg19
(lp4302
sg21
I0
sba(iArchitecture
Entity
p4303
(dp4304
g11
(lp4305
sg13
S'com.android.server.CommonTimeManagementService$4'
p4306
sg15
(lp4307
sg17
(lp4308
sg19
(lp4309
sg21
I0
sba(iArchitecture
Entity
p4310
(dp4311
g11
(lp4312
sg13
S'com.android.server.CommonTimeManagementService$5'
p4313
sg15
(lp4314
sg17
(lp4315
sg19
(lp4316
sg21
I0
sba(iArchitecture
Entity
p4317
(dp4318
g11
(lp4319
sg13
S'com.android.server.CommonTimeManagementService$InterfaceScoreRule'
p4320
sg15
(lp4321
sg17
(lp4322
sg19
(lp4323
sg21
I0
sbasg22
(lp4324
g4278
ag4285
ag4292
ag4299
ag4306
ag4313
ag4320
asg21
I0
sg24
S'1106'
p4325
sba(iArchitecture
Cluster
p4326
(dp4327
g7
(lp4328
(iArchitecture
Entity
p4329
(dp4330
g11
(lp4331
sg13
S'com.android.server.AnyMotionDetector'
p4332
sg15
(lp4333
sg17
(lp4334
sg19
(lp4335
sg21
I0
sba(iArchitecture
Entity
p4336
(dp4337
g11
(lp4338
sg13
S'com.android.server.AnyMotionDetector$1'
p4339
sg15
(lp4340
sg17
(lp4341
sg19
(lp4342
sg21
I0
sba(iArchitecture
Entity
p4343
(dp4344
g11
(lp4345
sg13
S'com.android.server.AnyMotionDetector$2'
p4346
sg15
(lp4347
sg17
(lp4348
sg19
(lp4349
sg21
I0
sba(iArchitecture
Entity
p4350
(dp4351
g11
(lp4352
sg13
S'com.android.server.AnyMotionDetector$3'
p4353
sg15
(lp4354
sg17
(lp4355
sg19
(lp4356
sg21
I0
sba(iArchitecture
Entity
p4357
(dp4358
g11
(lp4359
sg13
S'com.android.server.AnyMotionDetector$DeviceIdleCallback'
p4360
sg15
(lp4361
sg17
(lp4362
sg19
(lp4363
sg21
I0
sba(iArchitecture
Entity
p4364
(dp4365
g11
(lp4366
sg13
S'com.android.server.AnyMotionDetector$RunningSignalStats'
p4367
sg15
(lp4368
sg17
(lp4369
sg19
(lp4370
sg21
I0
sba(iArchitecture
Entity
p4371
(dp4372
g11
(lp4373
sg13
S'com.android.server.AnyMotionDetector$Vector3'
p4374
sg15
(lp4375
sg17
(lp4376
sg19
(lp4377
sg21
I0
sbasg22
(lp4378
g4332
ag4339
ag4346
ag4353
ag4360
ag4367
ag4374
asg21
I0
sg24
S'1107'
p4379
sba(iArchitecture
Cluster
p4380
(dp4381
g7
(lp4382
(iArchitecture
Entity
p4383
(dp4384
g11
(lp4385
sg13
S'com.android.server.display.AutomaticBrightnessController'
p4386
sg15
(lp4387
sg17
(lp4388
sg19
(lp4389
sg21
I0
sba(iArchitecture
Entity
p4390
(dp4391
g11
(lp4392
sg13
S'com.android.server.display.AutomaticBrightnessController$1'
p4393
sg15
(lp4394
sg17
(lp4395
sg19
(lp4396
sg21
I0
sba(iArchitecture
Entity
p4397
(dp4398
g11
(lp4399
sg13
S'com.android.server.display.AutomaticBrightnessController$2'
p4400
sg15
(lp4401
sg17
(lp4402
sg19
(lp4403
sg21
I0
sba(iArchitecture
Entity
p4404
(dp4405
g11
(lp4406
sg13
S'com.android.server.display.AutomaticBrightnessController$AmbientLightRingBuffer'
p4407
sg15
(lp4408
sg17
(lp4409
sg19
(lp4410
sg21
I0
sba(iArchitecture
Entity
p4411
(dp4412
g11
(lp4413
sg13
S'com.android.server.display.AutomaticBrightnessController$AutomaticBrightnessHandler'
p4414
sg15
(lp4415
sg17
(lp4416
sg19
(lp4417
sg21
I0
sba(iArchitecture
Entity
p4418
(dp4419
g11
(lp4420
sg13
S'com.android.server.display.AutomaticBrightnessController$Callbacks'
p4421
sg15
(lp4422
sg17
(lp4423
sg19
(lp4424
sg21
I0
sbasg22
(lp4425
g4386
ag4393
ag4400
ag4407
ag4414
ag4421
asg21
I0
sg24
S'1108'
p4426
sba(iArchitecture
Cluster
p4427
(dp4428
g7
(lp4429
(iArchitecture
Entity
p4430
(dp4431
g11
(lp4432
sg13
S'android.media.RemoteControlClient'
p4433
sg15
(lp4434
sg17
(lp4435
sg19
(lp4436
sg21
I0
sba(iArchitecture
Entity
p4437
(dp4438
g11
(lp4439
sg13
S'android.media.RemoteControlClient$1'
p4440
sg15
(lp4441
sg17
(lp4442
sg19
(lp4443
sg21
I0
sba(iArchitecture
Entity
p4444
(dp4445
g11
(lp4446
sg13
S'android.media.RemoteControlClient$MetadataEditor'
p4447
sg15
(lp4448
sg17
(lp4449
sg19
(lp4450
sg21
I0
sba(iArchitecture
Entity
p4451
(dp4452
g11
(lp4453
sg13
S'android.media.RemoteControlClient$OnGetPlaybackPositionListener'
p4454
sg15
(lp4455
sg17
(lp4456
sg19
(lp4457
sg21
I0
sba(iArchitecture
Entity
p4458
(dp4459
g11
(lp4460
sg13
S'android.media.RemoteControlClient$OnMetadataUpdateListener'
p4461
sg15
(lp4462
sg17
(lp4463
sg19
(lp4464
sg21
I0
sba(iArchitecture
Entity
p4465
(dp4466
g11
(lp4467
sg13
S'android.media.RemoteControlClient$OnPlaybackPositionUpdateListener'
p4468
sg15
(lp4469
sg17
(lp4470
sg19
(lp4471
sg21
I0
sbasg22
(lp4472
g4433
ag4440
ag4447
ag4454
ag4461
ag4468
asg21
I0
sg24
S'1109'
p4473
sba(iArchitecture
Cluster
p4474
(dp4475
g7
(lp4476
(iArchitecture
Entity
p4477
(dp4478
g11
(lp4479
sg13
S'android.bluetooth.BluetoothClass'
p4480
sg15
(lp4481
sg17
(lp4482
sg19
(lp4483
sg21
I0
sba(iArchitecture
Entity
p4484
(dp4485
g11
(lp4486
sg13
S'android.bluetooth.BluetoothClass$1'
p4487
sg15
(lp4488
sg17
(lp4489
sg19
(lp4490
sg21
I0
sba(iArchitecture
Entity
p4491
(dp4492
g11
(lp4493
sg13
S'android.bluetooth.BluetoothClass$Device'
p4494
sg15
(lp4495
sg17
(lp4496
sg19
(lp4497
sg21
I0
sba(iArchitecture
Entity
p4498
(dp4499
g11
(lp4500
sg13
S'android.bluetooth.BluetoothClass$Device$Major'
p4501
sg15
(lp4502
sg17
(lp4503
sg19
(lp4504
sg21
I0
sba(iArchitecture
Entity
p4505
(dp4506
g11
(lp4507
sg13
S'android.bluetooth.BluetoothClass$Service'
p4508
sg15
(lp4509
sg17
(lp4510
sg19
(lp4511
sg21
I0
sbasg22
(lp4512
g4480
ag4487
ag4494
ag4501
ag4508
asg21
I0
sg24
S'1110'
p4513
sba(iArchitecture
Cluster
p4514
(dp4515
g7
(lp4516
(iArchitecture
Entity
p4517
(dp4518
g11
(lp4519
sg13
S'android.telecom.RemoteConference'
p4520
sg15
(lp4521
sg17
(lp4522
sg19
(lp4523
sg21
I0
sba(iArchitecture
Entity
p4524
(dp4525
g11
(lp4526
sg13
S'android.telecom.RemoteConference$1'
p4527
sg15
(lp4528
sg17
(lp4529
sg19
(lp4530
sg21
I0
sba(iArchitecture
Entity
p4531
(dp4532
g11
(lp4533
sg13
S'android.telecom.RemoteConference$2'
p4534
sg15
(lp4535
sg17
(lp4536
sg19
(lp4537
sg21
I0
sba(iArchitecture
Entity
p4538
(dp4539
g11
(lp4540
sg13
S'android.telecom.RemoteConference$3'
p4541
sg15
(lp4542
sg17
(lp4543
sg19
(lp4544
sg21
I0
sba(iArchitecture
Entity
p4545
(dp4546
g11
(lp4547
sg13
S'android.telecom.RemoteConference$4'
p4548
sg15
(lp4549
sg17
(lp4550
sg19
(lp4551
sg21
I0
sba(iArchitecture
Entity
p4552
(dp4553
g11
(lp4554
sg13
S'android.telecom.RemoteConference$5'
p4555
sg15
(lp4556
sg17
(lp4557
sg19
(lp4558
sg21
I0
sba(iArchitecture
Entity
p4559
(dp4560
g11
(lp4561
sg13
S'android.telecom.RemoteConference$6'
p4562
sg15
(lp4563
sg17
(lp4564
sg19
(lp4565
sg21
I0
sba(iArchitecture
Entity
p4566
(dp4567
g11
(lp4568
sg13
S'android.telecom.RemoteConference$7'
p4569
sg15
(lp4570
sg17
(lp4571
sg19
(lp4572
sg21
I0
sba(iArchitecture
Entity
p4573
(dp4574
g11
(lp4575
sg13
S'android.telecom.RemoteConference$8'
p4576
sg15
(lp4577
sg17
(lp4578
sg19
(lp4579
sg21
I0
sba(iArchitecture
Entity
p4580
(dp4581
g11
(lp4582
sg13
S'android.telecom.RemoteConference$9'
p4583
sg15
(lp4584
sg17
(lp4585
sg19
(lp4586
sg21
I0
sba(iArchitecture
Entity
p4587
(dp4588
g11
(lp4589
sg13
S'android.telecom.RemoteConference$Callback'
p4590
sg15
(lp4591
sg17
(lp4592
sg19
(lp4593
sg21
I0
sbasg22
(lp4594
g4520
ag4527
ag4534
ag4541
ag4548
ag4555
ag4562
ag4569
ag4576
ag4583
ag4590
asg21
I0
sg24
S'1210'
p4595
sba(iArchitecture
Cluster
p4596
(dp4597
g7
(lp4598
(iArchitecture
Entity
p4599
(dp4600
g11
(lp4601
sg13
S'android.view.ContextMenu'
p4602
sg15
(lp4603
sg17
(lp4604
sg19
(lp4605
sg21
I0
sba(iArchitecture
Entity
p4606
(dp4607
g11
(lp4608
sg13
S'android.view.ContextMenu$ContextMenuInfo'
p4609
sg15
(lp4610
sg17
(lp4611
sg19
(lp4612
sg21
I0
sba(iArchitecture
Entity
p4613
(dp4614
g11
(lp4615
sg13
S'android.view.SubMenu'
p4616
sg15
(lp4617
sg17
(lp4618
sg19
(lp4619
sg21
I0
sba(iArchitecture
Entity
p4620
(dp4621
g11
(lp4622
sg13
S'com.android.internal.view.StandaloneActionMode'
p4623
sg15
(lp4624
sg17
(lp4625
sg19
(lp4626
sg21
I0
sba(iArchitecture
Entity
p4627
(dp4628
g11
(lp4629
sg13
S'com.android.internal.view.menu.ContextMenuBuilder'
p4630
sg15
(lp4631
sg17
(lp4632
sg19
(lp4633
sg21
I0
sba(iArchitecture
Entity
p4634
(dp4635
g11
(lp4636
sg13
S'com.android.internal.view.menu.MenuDialogHelper'
p4637
sg15
(lp4638
sg17
(lp4639
sg19
(lp4640
sg21
I0
sba(iArchitecture
Entity
p4641
(dp4642
g11
(lp4643
sg13
S'com.android.internal.view.menu.MenuView'
p4644
sg15
(lp4645
sg17
(lp4646
sg19
(lp4647
sg21
I0
sba(iArchitecture
Entity
p4648
(dp4649
g11
(lp4650
sg13
S'com.android.internal.view.menu.MenuView$ItemView'
p4651
sg15
(lp4652
sg17
(lp4653
sg19
(lp4654
sg21
I0
sba(iArchitecture
Entity
p4655
(dp4656
g11
(lp4657
sg13
S'com.android.internal.view.menu.SubMenuBuilder'
p4658
sg15
(lp4659
sg17
(lp4660
sg19
(lp4661
sg21
I0
sbasg22
(lp4662
g4602
ag4609
ag4616
ag4623
ag4630
ag4637
ag4644
ag4651
ag4658
asg21
I0
sg24
S'1310'
p4663
sba(iArchitecture
Cluster
p4664
(dp4665
g7
(lp4666
(iArchitecture
Entity
p4667
(dp4668
g11
(lp4669
sg13
S'android.media.soundtrigger.SoundTriggerManager'
p4670
sg15
(lp4671
sg17
(lp4672
sg19
(lp4673
sg21
I0
sba(iArchitecture
Entity
p4674
(dp4675
g11
(lp4676
sg13
S'android.media.soundtrigger.SoundTriggerManager$Model'
p4677
sg15
(lp4678
sg17
(lp4679
sg19
(lp4680
sg21
I0
sba(iArchitecture
Entity
p4681
(dp4682
g11
(lp4683
sg13
S'com.android.server.soundtrigger.SoundTriggerService'
p4684
sg15
(lp4685
sg17
(lp4686
sg19
(lp4687
sg21
I0
sba(iArchitecture
Entity
p4688
(dp4689
g11
(lp4690
sg13
S'com.android.server.soundtrigger.SoundTriggerService$LocalSoundTriggerService'
p4691
sg15
(lp4692
sg17
(lp4693
sg19
(lp4694
sg21
I0
sba(iArchitecture
Entity
p4695
(dp4696
g11
(lp4697
sg13
S'com.android.server.soundtrigger.SoundTriggerService$SoundTriggerServiceStub'
p4698
sg15
(lp4699
sg17
(lp4700
sg19
(lp4701
sg21
I0
sbasg22
(lp4702
g4670
ag4677
ag4684
ag4691
ag4698
asg21
I0
sg24
S'1410'
p4703
sba(iArchitecture
Cluster
p4704
(dp4705
g7
(lp4706
(iArchitecture
Entity
p4707
(dp4708
g11
(lp4709
sg13
S'android.text.Hyphenator'
p4710
sg15
(lp4711
sg17
(lp4712
sg19
(lp4713
sg21
I0
sbasg22
(lp4714
g4710
asg21
I0
sg24
S'210'
p4715
sba(iArchitecture
Cluster
p4716
(dp4717
g7
(lp4718
(iArchitecture
Entity
p4719
(dp4720
g11
(lp4721
sg13
S'android.renderscript.FieldPacker'
p4722
sg15
(lp4723
sg17
(lp4724
sg19
(lp4725
sg21
I0
sbasg22
(lp4726
g4722
asg21
I0
sg24
S'310'
p4727
sba(iArchitecture
Cluster
p4728
(dp4729
g7
(lp4730
(iArchitecture
Entity
p4731
(dp4732
g11
(lp4733
sg13
S'android.content.ContentInsertHandler'
p4734
sg15
(lp4735
sg17
(lp4736
sg19
(lp4737
sg21
I0
sbasg22
(lp4738
g4734
asg21
I0
sg24
S'410'
p4739
sba(iArchitecture
Cluster
p4740
(dp4741
g7
(lp4742
(iArchitecture
Entity
p4743
(dp4744
g11
(lp4745
sg13
S'android.net.NetworkTemplate'
p4746
sg15
(lp4747
sg17
(lp4748
sg19
(lp4749
sg21
I0
sba(iArchitecture
Entity
p4750
(dp4751
g11
(lp4752
sg13
S'android.net.NetworkTemplate$1'
p4753
sg15
(lp4754
sg17
(lp4755
sg19
(lp4756
sg21
I0
sbasg22
(lp4757
g4746
ag4753
asg21
I0
sg24
S'510'
p4758
sba(iArchitecture
Cluster
p4759
(dp4760
g7
(lp4761
(iArchitecture
Entity
p4762
(dp4763
g11
(lp4764
sg13
S'android.view.KeyboardShortcutGroup'
p4765
sg15
(lp4766
sg17
(lp4767
sg19
(lp4768
sg21
I0
sba(iArchitecture
Entity
p4769
(dp4770
g11
(lp4771
sg13
S'android.view.KeyboardShortcutGroup$1'
p4772
sg15
(lp4773
sg17
(lp4774
sg19
(lp4775
sg21
I0
sbasg22
(lp4776
g4765
ag4772
asg21
I0
sg24
S'610'
p4777
sba(iArchitecture
Cluster
p4778
(dp4779
g7
(lp4780
(iArchitecture
Entity
p4781
(dp4782
g11
(lp4783
sg13
S'com.android.server.location.LocationProviderProxy'
p4784
sg15
(lp4785
sg17
(lp4786
sg19
(lp4787
sg21
I0
sba(iArchitecture
Entity
p4788
(dp4789
g11
(lp4790
sg13
S'com.android.server.location.LocationProviderProxy$1'
p4791
sg15
(lp4792
sg17
(lp4793
sg19
(lp4794
sg21
I0
sbasg22
(lp4795
g4784
ag4791
asg21
I0
sg24
S'710'
p4796
sba(iArchitecture
Cluster
p4797
(dp4798
g7
(lp4799
(iArchitecture
Entity
p4800
(dp4801
g11
(lp4802
sg13
S'android.graphics.drawable.RippleComponent'
p4803
sg15
(lp4804
sg17
(lp4805
sg19
(lp4806
sg21
I0
sba(iArchitecture
Entity
p4807
(dp4808
g11
(lp4809
sg13
S'android.graphics.drawable.RippleComponent$RenderNodeAnimatorSet'
p4810
sg15
(lp4811
sg17
(lp4812
sg19
(lp4813
sg21
I0
sbasg22
(lp4814
g4803
ag4810
asg21
I0
sg24
S'810'
p4815
sba(iArchitecture
Cluster
p4816
(dp4817
g7
(lp4818
(iArchitecture
Entity
p4819
(dp4820
g11
(lp4821
sg13
S'android.os.CancellationSignal'
p4822
sg15
(lp4823
sg17
(lp4824
sg19
(lp4825
sg21
I0
sba(iArchitecture
Entity
p4826
(dp4827
g11
(lp4828
sg13
S'android.os.CancellationSignal$OnCancelListener'
p4829
sg15
(lp4830
sg17
(lp4831
sg19
(lp4832
sg21
I0
sba(iArchitecture
Entity
p4833
(dp4834
g11
(lp4835
sg13
S'android.os.CancellationSignal$Transport'
p4836
sg15
(lp4837
sg17
(lp4838
sg19
(lp4839
sg21
I0
sbasg22
(lp4840
g4822
ag4829
ag4836
asg21
I0
sg24
S'910'
p4841
sbasS'target_sub'
p4842
S'10'
p4843
sg22
(lp4844
sS'is_component_arch'
p4845
I01
sg24
S'7.0.0_r1'
p4846
sba.