(lp0
(iArchitecture
Architecture
p1
(dp2
S'clusters'
p3
(lp4
(iArchitecture
Cluster
p5
(dp6
S'entities'
p7
(lp8
(iArchitecture
Entity
p9
(dp10
S'issue_ids'
p11
(lp12
sS'name'
p13
S'com.android.internal.os.CameraPowerCalculator'
p14
sS'descs'
p15
(lp16
sS'labels'
p17
(lp18
sS'titles'
p19
(lp20
sS'change'
p21
I0
sbasS'classes'
p22
(lp23
g14
asg21
I0
sS'label'
p24
S'109'
p25
sba(iArchitecture
Cluster
p26
(dp27
g7
(lp28
(iArchitecture
Entity
p29
(dp30
g11
(lp31
sg13
S'android.media.soundtrigger.SoundTriggerDetector'
p32
sg15
(lp33
sg17
(lp34
sg19
(lp35
sg21
I0
sba(iArchitecture
Entity
p36
(dp37
g11
(lp38
sg13
S'android.media.soundtrigger.SoundTriggerDetector$Callback'
p39
sg15
(lp40
sg17
(lp41
sg19
(lp42
sg21
I0
sba(iArchitecture
Entity
p43
(dp44
g11
(lp45
sg13
S'android.media.soundtrigger.SoundTriggerDetector$EventPayload'
p46
sg15
(lp47
sg17
(lp48
sg19
(lp49
sg21
I0
sba(iArchitecture
Entity
p50
(dp51
g11
(lp52
sg13
S'android.media.soundtrigger.SoundTriggerDetector$MyHandler'
p53
sg15
(lp54
sg17
(lp55
sg19
(lp56
sg21
I0
sba(iArchitecture
Entity
p57
(dp58
g11
(lp59
sg13
S'android.media.soundtrigger.SoundTriggerDetector$RecognitionCallback'
p60
sg15
(lp61
sg17
(lp62
sg19
(lp63
sg21
I0
sbasg22
(lp64
g32
ag39
ag46
ag53
ag60
asg21
I0
sg24
S'1090'
p65
sba(iArchitecture
Cluster
p66
(dp67
g7
(lp68
(iArchitecture
Entity
p69
(dp70
g11
(lp71
sg13
S'android.media.MediaScannerConnection'
p72
sg15
(lp73
sg17
(lp74
sg19
(lp75
sg21
I0
sba(iArchitecture
Entity
p76
(dp77
g11
(lp78
sg13
S'android.media.MediaScannerConnection$1'
p79
sg15
(lp80
sg17
(lp81
sg19
(lp82
sg21
I0
sba(iArchitecture
Entity
p83
(dp84
g11
(lp85
sg13
S'android.media.MediaScannerConnection$ClientProxy'
p86
sg15
(lp87
sg17
(lp88
sg19
(lp89
sg21
I0
sba(iArchitecture
Entity
p90
(dp91
g11
(lp92
sg13
S'android.media.MediaScannerConnection$MediaScannerConnectionClient'
p93
sg15
(lp94
sg17
(lp95
sg19
(lp96
sg21
I0
sba(iArchitecture
Entity
p97
(dp98
g11
(lp99
sg13
S'android.media.MediaScannerConnection$OnScanCompletedListener'
p100
sg15
(lp101
sg17
(lp102
sg19
(lp103
sg21
I0
sbasg22
(lp104
g72
ag79
ag86
ag93
ag100
asg21
I0
sg24
S'1091'
p105
sba(iArchitecture
Cluster
p106
(dp107
g7
(lp108
(iArchitecture
Entity
p109
(dp110
g11
(lp111
sg13
S'android.media.RemoteDisplay'
p112
sg15
(lp113
sg17
(lp114
sg19
(lp115
sg21
I0
sba(iArchitecture
Entity
p116
(dp117
g11
(lp118
sg13
S'android.media.RemoteDisplay$1'
p119
sg15
(lp120
sg17
(lp121
sg19
(lp122
sg21
I0
sba(iArchitecture
Entity
p123
(dp124
g11
(lp125
sg13
S'android.media.RemoteDisplay$2'
p126
sg15
(lp127
sg17
(lp128
sg19
(lp129
sg21
I0
sba(iArchitecture
Entity
p130
(dp131
g11
(lp132
sg13
S'android.media.RemoteDisplay$3'
p133
sg15
(lp134
sg17
(lp135
sg19
(lp136
sg21
I0
sba(iArchitecture
Entity
p137
(dp138
g11
(lp139
sg13
S'android.media.RemoteDisplay$Listener'
p140
sg15
(lp141
sg17
(lp142
sg19
(lp143
sg21
I0
sbasg22
(lp144
g112
ag119
ag126
ag133
ag140
asg21
I0
sg24
S'1092'
p145
sba(iArchitecture
Cluster
p146
(dp147
g7
(lp148
(iArchitecture
Entity
p149
(dp150
g11
(lp151
sg13
S'com.android.internal.util.AsyncChannel'
p152
sg15
(lp153
sg17
(lp154
sg19
(lp155
sg21
I0
sba(iArchitecture
Entity
p156
(dp157
g11
(lp158
sg13
S'com.android.internal.util.AsyncChannel$1ConnectAsync'
p159
sg15
(lp160
sg17
(lp161
sg19
(lp162
sg21
I0
sba(iArchitecture
Entity
p163
(dp164
g11
(lp165
sg13
S'com.android.internal.util.AsyncChannel$AsyncChannelConnection'
p166
sg15
(lp167
sg17
(lp168
sg19
(lp169
sg21
I0
sba(iArchitecture
Entity
p170
(dp171
g11
(lp172
sg13
S'com.android.internal.util.AsyncChannel$DeathMonitor'
p173
sg15
(lp174
sg17
(lp175
sg19
(lp176
sg21
I0
sba(iArchitecture
Entity
p177
(dp178
g11
(lp179
sg13
S'com.android.internal.util.AsyncChannel$SyncMessenger'
p180
sg15
(lp181
sg17
(lp182
sg19
(lp183
sg21
I0
sba(iArchitecture
Entity
p184
(dp185
g11
(lp186
sg13
S'com.android.internal.util.AsyncChannel$SyncMessenger$SyncHandler'
p187
sg15
(lp188
sg17
(lp189
sg19
(lp190
sg21
I0
sbasg22
(lp191
g152
ag159
ag166
ag173
ag180
ag187
asg21
I0
sg24
S'1093'
p192
sba(iArchitecture
Cluster
p193
(dp194
g7
(lp195
(iArchitecture
Entity
p196
(dp197
g11
(lp198
sg13
S'com.android.server.hdmi.HdmiCecStandbyModeHandler'
p199
sg15
(lp200
sg17
(lp201
sg19
(lp202
sg21
I0
sba(iArchitecture
Entity
p203
(dp204
g11
(lp205
sg13
S'com.android.server.hdmi.HdmiCecStandbyModeHandler$Aborter'
p206
sg15
(lp207
sg17
(lp208
sg19
(lp209
sg21
I0
sba(iArchitecture
Entity
p210
(dp211
g11
(lp212
sg13
S'com.android.server.hdmi.HdmiCecStandbyModeHandler$AutoOnHandler'
p213
sg15
(lp214
sg17
(lp215
sg19
(lp216
sg21
I0
sba(iArchitecture
Entity
p217
(dp218
g11
(lp219
sg13
S'com.android.server.hdmi.HdmiCecStandbyModeHandler$Bypasser'
p220
sg15
(lp221
sg17
(lp222
sg19
(lp223
sg21
I0
sba(iArchitecture
Entity
p224
(dp225
g11
(lp226
sg13
S'com.android.server.hdmi.HdmiCecStandbyModeHandler$Bystander'
p227
sg15
(lp228
sg17
(lp229
sg19
(lp230
sg21
I0
sba(iArchitecture
Entity
p231
(dp232
g11
(lp233
sg13
S'com.android.server.hdmi.HdmiCecStandbyModeHandler$CecMessageHandler'
p234
sg15
(lp235
sg17
(lp236
sg19
(lp237
sg21
I0
sba(iArchitecture
Entity
p238
(dp239
g11
(lp240
sg13
S'com.android.server.hdmi.HdmiCecStandbyModeHandler$UserControlProcessedHandler'
p241
sg15
(lp242
sg17
(lp243
sg19
(lp244
sg21
I0
sbasg22
(lp245
g199
ag206
ag213
ag220
ag227
ag234
ag241
asg21
I0
sg24
S'1094'
p246
sba(iArchitecture
Cluster
p247
(dp248
g7
(lp249
(iArchitecture
Entity
p250
(dp251
g11
(lp252
sg13
S'com.android.server.MmsServiceBroker'
p253
sg15
(lp254
sg17
(lp255
sg19
(lp256
sg21
I0
sba(iArchitecture
Entity
p257
(dp258
g11
(lp259
sg13
S'com.android.server.MmsServiceBroker$1'
p260
sg15
(lp261
sg17
(lp262
sg19
(lp263
sg21
I0
sba(iArchitecture
Entity
p264
(dp265
g11
(lp266
sg13
S'com.android.server.MmsServiceBroker$2'
p267
sg15
(lp268
sg17
(lp269
sg19
(lp270
sg21
I0
sba(iArchitecture
Entity
p271
(dp272
g11
(lp273
sg13
S'com.android.server.MmsServiceBroker$3'
p274
sg15
(lp275
sg17
(lp276
sg19
(lp277
sg21
I0
sba(iArchitecture
Entity
p278
(dp279
g11
(lp280
sg13
S'com.android.server.MmsServiceBroker$BinderService'
p281
sg15
(lp282
sg17
(lp283
sg19
(lp284
sg21
I0
sbasg22
(lp285
g253
ag260
ag267
ag274
ag281
asg21
I0
sg24
S'1095'
p286
sba(iArchitecture
Cluster
p287
(dp288
g7
(lp289
(iArchitecture
Entity
p290
(dp291
g11
(lp292
sg13
S'android.hardware.radio.RadioMetadata'
p293
sg15
(lp294
sg17
(lp295
sg19
(lp296
sg21
I0
sba(iArchitecture
Entity
p297
(dp298
g11
(lp299
sg13
S'android.hardware.radio.RadioMetadata$1'
p300
sg15
(lp301
sg17
(lp302
sg19
(lp303
sg21
I0
sba(iArchitecture
Entity
p304
(dp305
g11
(lp306
sg13
S'android.hardware.radio.RadioMetadata$Builder'
p307
sg15
(lp308
sg17
(lp309
sg19
(lp310
sg21
I0
sba(iArchitecture
Entity
p311
(dp312
g11
(lp313
sg13
S'android.hardware.radio.RadioMetadata$Clock'
p314
sg15
(lp315
sg17
(lp316
sg19
(lp317
sg21
I0
sba(iArchitecture
Entity
p318
(dp319
g11
(lp320
sg13
S'android.hardware.radio.RadioMetadata$Clock$1'
p321
sg15
(lp322
sg17
(lp323
sg19
(lp324
sg21
I0
sbasg22
(lp325
g293
ag300
ag307
ag314
ag321
asg21
I0
sg24
S'1096'
p326
sba(iArchitecture
Cluster
p327
(dp328
g7
(lp329
(iArchitecture
Entity
p330
(dp331
g11
(lp332
sg13
S'android.media.session.MediaSessionManager'
p333
sg15
(lp334
sg17
(lp335
sg19
(lp336
sg21
I0
sba(iArchitecture
Entity
p337
(dp338
g11
(lp339
sg13
S'android.media.session.MediaSessionManager$OnActiveSessionsChangedListener'
p340
sg15
(lp341
sg17
(lp342
sg19
(lp343
sg21
I0
sba(iArchitecture
Entity
p344
(dp345
g11
(lp346
sg13
S'android.media.session.MediaSessionManager$SessionsChangedWrapper'
p347
sg15
(lp348
sg17
(lp349
sg19
(lp350
sg21
I0
sba(iArchitecture
Entity
p351
(dp352
g11
(lp353
sg13
S'android.media.session.MediaSessionManager$SessionsChangedWrapper$1'
p354
sg15
(lp355
sg17
(lp356
sg19
(lp357
sg21
I0
sba(iArchitecture
Entity
p358
(dp359
g11
(lp360
sg13
S'android.media.session.MediaSessionManager$SessionsChangedWrapper$1$1'
p361
sg15
(lp362
sg17
(lp363
sg19
(lp364
sg21
I0
sbasg22
(lp365
g333
ag340
ag347
ag354
ag361
asg21
I0
sg24
S'1097'
p366
sba(iArchitecture
Cluster
p367
(dp368
g7
(lp369
(iArchitecture
Entity
p370
(dp371
g11
(lp372
sg13
S'android.gesture.GestureOverlayView'
p373
sg15
(lp374
sg17
(lp375
sg19
(lp376
sg21
I0
sba(iArchitecture
Entity
p377
(dp378
g11
(lp379
sg13
S'android.gesture.GestureOverlayView$FadeOutRunnable'
p380
sg15
(lp381
sg17
(lp382
sg19
(lp383
sg21
I0
sba(iArchitecture
Entity
p384
(dp385
g11
(lp386
sg13
S'android.gesture.GestureOverlayView$OnGestureListener'
p387
sg15
(lp388
sg17
(lp389
sg19
(lp390
sg21
I0
sba(iArchitecture
Entity
p391
(dp392
g11
(lp393
sg13
S'android.gesture.GestureOverlayView$OnGesturePerformedListener'
p394
sg15
(lp395
sg17
(lp396
sg19
(lp397
sg21
I0
sba(iArchitecture
Entity
p398
(dp399
g11
(lp400
sg13
S'android.gesture.GestureOverlayView$OnGesturingListener'
p401
sg15
(lp402
sg17
(lp403
sg19
(lp404
sg21
I0
sbasg22
(lp405
g373
ag380
ag387
ag394
ag401
asg21
I0
sg24
S'1098'
p406
sba(iArchitecture
Cluster
p407
(dp408
g7
(lp409
(iArchitecture
Entity
p410
(dp411
g11
(lp412
sg13
S'android.media.session.PlaybackState'
p413
sg15
(lp414
sg17
(lp415
sg19
(lp416
sg21
I0
sba(iArchitecture
Entity
p417
(dp418
g11
(lp419
sg13
S'android.media.session.PlaybackState$1'
p420
sg15
(lp421
sg17
(lp422
sg19
(lp423
sg21
I0
sba(iArchitecture
Entity
p424
(dp425
g11
(lp426
sg13
S'android.media.session.PlaybackState$Builder'
p427
sg15
(lp428
sg17
(lp429
sg19
(lp430
sg21
I0
sba(iArchitecture
Entity
p431
(dp432
g11
(lp433
sg13
S'android.media.session.PlaybackState$CustomAction'
p434
sg15
(lp435
sg17
(lp436
sg19
(lp437
sg21
I0
sba(iArchitecture
Entity
p438
(dp439
g11
(lp440
sg13
S'android.media.session.PlaybackState$CustomAction$1'
p441
sg15
(lp442
sg17
(lp443
sg19
(lp444
sg21
I0
sba(iArchitecture
Entity
p445
(dp446
g11
(lp447
sg13
S'android.media.session.PlaybackState$CustomAction$Builder'
p448
sg15
(lp449
sg17
(lp450
sg19
(lp451
sg21
I0
sbasg22
(lp452
g413
ag420
ag427
ag434
ag441
ag448
asg21
I0
sg24
S'1099'
p453
sba(iArchitecture
Cluster
p454
(dp455
g7
(lp456
(iArchitecture
Entity
p457
(dp458
g11
(lp459
sg13
S'android.media.RemoteControlClient'
p460
sg15
(lp461
sg17
(lp462
sg19
(lp463
sg21
I0
sba(iArchitecture
Entity
p464
(dp465
g11
(lp466
sg13
S'android.media.RemoteControlClient$1'
p467
sg15
(lp468
sg17
(lp469
sg19
(lp470
sg21
I0
sba(iArchitecture
Entity
p471
(dp472
g11
(lp473
sg13
S'android.media.RemoteControlClient$MetadataEditor'
p474
sg15
(lp475
sg17
(lp476
sg19
(lp477
sg21
I0
sba(iArchitecture
Entity
p478
(dp479
g11
(lp480
sg13
S'android.media.RemoteControlClient$OnGetPlaybackPositionListener'
p481
sg15
(lp482
sg17
(lp483
sg19
(lp484
sg21
I0
sba(iArchitecture
Entity
p485
(dp486
g11
(lp487
sg13
S'android.media.RemoteControlClient$OnMetadataUpdateListener'
p488
sg15
(lp489
sg17
(lp490
sg19
(lp491
sg21
I0
sba(iArchitecture
Entity
p492
(dp493
g11
(lp494
sg13
S'android.media.RemoteControlClient$OnPlaybackPositionUpdateListener'
p495
sg15
(lp496
sg17
(lp497
sg19
(lp498
sg21
I0
sbasg22
(lp499
g460
ag467
ag474
ag481
ag488
ag495
asg21
I0
sg24
S'1109'
p500
sbasS'target_sub'
p501
S'109'
p502
sg22
(lp503
sS'is_component_arch'
p504
I01
sg24
S'7.0.0_r1'
p505
sba.