(lp0
(iArchitecture
Architecture
p1
(dp2
S'clusters'
p3
(lp4
(iArchitecture
Cluster
p5
(dp6
S'entities'
p7
(lp8
(iArchitecture
Entity
p9
(dp10
S'issue_ids'
p11
(lp12
sS'name'
p13
S'com.android.server.print.PrintManagerService'
p14
sS'descs'
p15
(lp16
sS'labels'
p17
(lp18
sS'titles'
p19
(lp20
sS'change'
p21
I0
sba(iArchitecture
Entity
p22
(dp23
g11
(lp24
sg13
S'com.android.server.print.PrintManagerService$PrintManagerImpl'
p25
sg15
(lp26
sg17
(lp27
sg19
(lp28
sg21
I0
sba(iArchitecture
Entity
p29
(dp30
g11
(lp31
sg13
S'com.android.server.print.PrintManagerService$PrintManagerImpl$1'
p32
sg15
(lp33
sg17
(lp34
sg19
(lp35
sg21
I0
sba(iArchitecture
Entity
p36
(dp37
g11
(lp38
sg13
S'com.android.server.print.PrintManagerService$PrintManagerImpl$2'
p39
sg15
(lp40
sg17
(lp41
sg19
(lp42
sg21
I0
sba(iArchitecture
Entity
p43
(dp44
g11
(lp45
sg13
S'com.android.server.print.PrintManagerService$PrintManagerImpl$3'
p46
sg15
(lp47
sg17
(lp48
sg19
(lp49
sg21
I0
sba(iArchitecture
Entity
p50
(dp51
g11
(lp52
sg13
S'com.android.server.print.PrintManagerService$PrintManagerImpl$4'
p53
sg15
(lp54
sg17
(lp55
sg19
(lp56
sg21
I0
sbasS'classes'
p57
(lp58
g14
ag25
ag32
ag39
ag46
ag53
asg21
I0
sS'label'
p59
S'1083'
p60
sba(iArchitecture
Cluster
p61
(dp62
g7
(lp63
(iArchitecture
Entity
p64
(dp65
g11
(lp66
sg13
S'android.media.SubtitleTrack'
p67
sg15
(lp68
sg17
(lp69
sg19
(lp70
sg21
I0
sba(iArchitecture
Entity
p71
(dp72
g11
(lp73
sg13
S'android.media.SubtitleTrack$1'
p74
sg15
(lp75
sg17
(lp76
sg19
(lp77
sg21
I0
sba(iArchitecture
Entity
p78
(dp79
g11
(lp80
sg13
S'android.media.SubtitleTrack$Cue'
p81
sg15
(lp82
sg17
(lp83
sg19
(lp84
sg21
I0
sba(iArchitecture
Entity
p85
(dp86
g11
(lp87
sg13
S'android.media.SubtitleTrack$CueList'
p88
sg15
(lp89
sg17
(lp90
sg19
(lp91
sg21
I0
sba(iArchitecture
Entity
p92
(dp93
g11
(lp94
sg13
S'android.media.SubtitleTrack$CueList$1'
p95
sg15
(lp96
sg17
(lp97
sg19
(lp98
sg21
I0
sba(iArchitecture
Entity
p99
(dp100
g11
(lp101
sg13
S'android.media.SubtitleTrack$CueList$EntryIterator'
p102
sg15
(lp103
sg17
(lp104
sg19
(lp105
sg21
I0
sba(iArchitecture
Entity
p106
(dp107
g11
(lp108
sg13
S'android.media.SubtitleTrack$RenderingWidget'
p109
sg15
(lp110
sg17
(lp111
sg19
(lp112
sg21
I0
sba(iArchitecture
Entity
p113
(dp114
g11
(lp115
sg13
S'android.media.SubtitleTrack$RenderingWidget$OnChangedListener'
p116
sg15
(lp117
sg17
(lp118
sg19
(lp119
sg21
I0
sba(iArchitecture
Entity
p120
(dp121
g11
(lp122
sg13
S'android.media.SubtitleTrack$Run'
p123
sg15
(lp124
sg17
(lp125
sg19
(lp126
sg21
I0
sbasg57
(lp127
g67
ag74
ag81
ag88
ag95
ag102
ag109
ag116
ag123
asg21
I0
sg59
S'1183'
p128
sba(iArchitecture
Cluster
p129
(dp130
g7
(lp131
(iArchitecture
Entity
p132
(dp133
g11
(lp134
sg13
S'android.graphics.LinearGradient'
p135
sg15
(lp136
sg17
(lp137
sg19
(lp138
sg21
I0
sba(iArchitecture
Entity
p139
(dp140
g11
(lp141
sg13
S'android.graphics.SweepGradient'
p142
sg15
(lp143
sg17
(lp144
sg19
(lp145
sg21
I0
sbasg57
(lp146
g135
ag142
asg21
I0
sg59
S'1283'
p147
sba(iArchitecture
Cluster
p148
(dp149
g7
(lp150
(iArchitecture
Entity
p151
(dp152
g11
(lp153
sg13
S'android.accounts.AccountManagerResponse'
p154
sg15
(lp155
sg17
(lp156
sg19
(lp157
sg21
I0
sba(iArchitecture
Entity
p158
(dp159
g11
(lp160
sg13
S'android.accounts.AccountManagerResponse$1'
p161
sg15
(lp162
sg17
(lp163
sg19
(lp164
sg21
I0
sba(iArchitecture
Entity
p165
(dp166
g11
(lp167
sg13
S'android.bluetooth.BluetoothInputStream'
p168
sg15
(lp169
sg17
(lp170
sg19
(lp171
sg21
I0
sba(iArchitecture
Entity
p172
(dp173
g11
(lp174
sg13
S'android.bluetooth.BluetoothOutputStream'
p175
sg15
(lp176
sg17
(lp177
sg19
(lp178
sg21
I0
sba(iArchitecture
Entity
p179
(dp180
g11
(lp181
sg13
S'android.content.UndoOwner'
p182
sg15
(lp183
sg17
(lp184
sg19
(lp185
sg21
I0
sba(iArchitecture
Entity
p186
(dp187
g11
(lp188
sg13
S'android.content.pm.MacAuthenticatedInputStream'
p189
sg15
(lp190
sg17
(lp191
sg19
(lp192
sg21
I0
sba(iArchitecture
Entity
p193
(dp194
g11
(lp195
sg13
S'android.drm.DrmConvertedStatus'
p196
sg15
(lp197
sg17
(lp198
sg19
(lp199
sg21
I0
sba(iArchitecture
Entity
p200
(dp201
g11
(lp202
sg13
S'android.drm.DrmInfoStatus'
p203
sg15
(lp204
sg17
(lp205
sg19
(lp206
sg21
I0
sba(iArchitecture
Entity
p207
(dp208
g11
(lp209
sg13
S'android.drm.DrmOutputStream'
p210
sg15
(lp211
sg17
(lp212
sg19
(lp213
sg21
I0
sba(iArchitecture
Entity
p214
(dp215
g11
(lp216
sg13
S'android.hardware.location.GeofenceHardwareMonitorEvent'
p217
sg15
(lp218
sg17
(lp219
sg19
(lp220
sg21
I0
sba(iArchitecture
Entity
p221
(dp222
g11
(lp223
sg13
S'android.hardware.location.GeofenceHardwareMonitorEvent$1'
p224
sg15
(lp225
sg17
(lp226
sg19
(lp227
sg21
I0
sba(iArchitecture
Entity
p228
(dp229
g11
(lp230
sg13
S'android.media.ResampleInputStream'
p231
sg15
(lp232
sg17
(lp233
sg19
(lp234
sg21
I0
sba(iArchitecture
Entity
p235
(dp236
g11
(lp237
sg13
S'android.preference.PreferenceInflater'
p238
sg15
(lp239
sg17
(lp240
sg19
(lp241
sg21
I0
sba(iArchitecture
Entity
p242
(dp243
g11
(lp244
sg13
S'android.util.AtomicFile'
p245
sg15
(lp246
sg17
(lp247
sg19
(lp248
sg21
I0
sba(iArchitecture
Entity
p249
(dp250
g11
(lp251
sg13
S'com.android.internal.app.ProcessMap'
p252
sg15
(lp253
sg17
(lp254
sg19
(lp255
sg21
I0
sba(iArchitecture
Entity
p256
(dp257
g11
(lp258
sg13
S'com.android.internal.midi.MidiConstants'
p259
sg15
(lp260
sg17
(lp261
sg19
(lp262
sg21
I0
sba(iArchitecture
Entity
p263
(dp264
g11
(lp265
sg13
S'com.android.internal.os.AtomicFile'
p266
sg15
(lp267
sg17
(lp268
sg19
(lp269
sg21
I0
sba(iArchitecture
Entity
p270
(dp271
g11
(lp272
sg13
S'com.android.server.RandomBlock'
p273
sg15
(lp274
sg17
(lp275
sg19
(lp276
sg21
I0
sba(iArchitecture
Entity
p277
(dp278
g11
(lp279
sg13
S'com.android.server.backup.NotificationBackupHelper'
p280
sg15
(lp281
sg17
(lp282
sg19
(lp283
sg21
I0
sba(iArchitecture
Entity
p284
(dp285
g11
(lp286
sg13
S'com.android.server.backup.PermissionBackupHelper'
p287
sg15
(lp288
sg17
(lp289
sg19
(lp290
sg21
I0
sba(iArchitecture
Entity
p291
(dp292
g11
(lp293
sg13
S'com.android.server.backup.PreferredActivityBackupHelper'
p294
sg15
(lp295
sg17
(lp296
sg19
(lp297
sg21
I0
sba(iArchitecture
Entity
p298
(dp299
g11
(lp300
sg13
S'com.android.server.backup.ShortcutBackupHelper'
p301
sg15
(lp302
sg17
(lp303
sg19
(lp304
sg21
I0
sba(iArchitecture
Entity
p305
(dp306
g11
(lp307
sg13
S'com.android.server.usage.UsageStatsXml'
p308
sg15
(lp309
sg17
(lp310
sg19
(lp311
sg21
I0
sbasg57
(lp312
g154
ag161
ag168
ag175
ag182
ag189
ag196
ag203
ag210
ag217
ag224
ag231
ag238
ag245
ag252
ag259
ag266
ag273
ag280
ag287
ag294
ag301
ag308
asg21
I0
sg59
S'1383'
p313
sba(iArchitecture
Cluster
p314
(dp315
g7
(lp316
(iArchitecture
Entity
p317
(dp318
g11
(lp319
sg13
S'android.hardware.SensorEvent'
p320
sg15
(lp321
sg17
(lp322
sg19
(lp323
sg21
I0
sbasg57
(lp324
g320
asg21
I0
sg59
S'183'
p325
sba(iArchitecture
Cluster
p326
(dp327
g7
(lp328
(iArchitecture
Entity
p329
(dp330
g11
(lp331
sg13
S'android.database.AbstractWindowedCursor'
p332
sg15
(lp333
sg17
(lp334
sg19
(lp335
sg21
I0
sbasg57
(lp336
g332
asg21
I0
sg59
S'283'
p337
sba(iArchitecture
Cluster
p338
(dp339
g7
(lp340
(iArchitecture
Entity
p341
(dp342
g11
(lp343
sg13
S'android.hardware.camera2.utils.HashCodeHelpers'
p344
sg15
(lp345
sg17
(lp346
sg19
(lp347
sg21
I0
sbasg57
(lp348
g344
asg21
I0
sg59
S'383'
p349
sba(iArchitecture
Cluster
p350
(dp351
g7
(lp352
(iArchitecture
Entity
p353
(dp354
g11
(lp355
sg13
S'android.net.MailTo'
p356
sg15
(lp357
sg17
(lp358
sg19
(lp359
sg21
I0
sbasg57
(lp360
g356
asg21
I0
sg59
S'483'
p361
sba(iArchitecture
Cluster
p362
(dp363
g7
(lp364
(iArchitecture
Entity
p365
(dp366
g11
(lp367
sg13
S'android.net.LinkQualityInfo'
p368
sg15
(lp369
sg17
(lp370
sg19
(lp371
sg21
I0
sba(iArchitecture
Entity
p372
(dp373
g11
(lp374
sg13
S'android.net.LinkQualityInfo$1'
p375
sg15
(lp376
sg17
(lp377
sg19
(lp378
sg21
I0
sbasg57
(lp379
g368
ag375
asg21
I0
sg59
S'583'
p380
sba(iArchitecture
Cluster
p381
(dp382
g7
(lp383
(iArchitecture
Entity
p384
(dp385
g11
(lp386
sg13
S'android.content.pm.PermissionInfo'
p387
sg15
(lp388
sg17
(lp389
sg19
(lp390
sg21
I0
sba(iArchitecture
Entity
p391
(dp392
g11
(lp393
sg13
S'android.content.pm.PermissionInfo$1'
p394
sg15
(lp395
sg17
(lp396
sg19
(lp397
sg21
I0
sbasg57
(lp398
g387
ag394
asg21
I0
sg59
S'683'
p399
sba(iArchitecture
Cluster
p400
(dp401
g7
(lp402
(iArchitecture
Entity
p403
(dp404
g11
(lp405
sg13
S'com.android.ims.internal.uce.presence.PresServiceInfo'
p406
sg15
(lp407
sg17
(lp408
sg19
(lp409
sg21
I0
sba(iArchitecture
Entity
p410
(dp411
g11
(lp412
sg13
S'com.android.ims.internal.uce.presence.PresServiceInfo$1'
p413
sg15
(lp414
sg17
(lp415
sg19
(lp416
sg21
I0
sbasg57
(lp417
g406
ag413
asg21
I0
sg59
S'783'
p418
sba(iArchitecture
Cluster
p419
(dp420
g7
(lp421
(iArchitecture
Entity
p422
(dp423
g11
(lp424
sg13
S'com.android.server.pm.DefaultPermissionGrantPolicy'
p425
sg15
(lp426
sg17
(lp427
sg19
(lp428
sg21
I0
sbasg57
(lp429
g425
asg21
I0
sg59
S'83'
p430
sba(iArchitecture
Cluster
p431
(dp432
g7
(lp433
(iArchitecture
Entity
p434
(dp435
g11
(lp436
sg13
S'android.database.CursorWindow'
p437
sg15
(lp438
sg17
(lp439
sg19
(lp440
sg21
I0
sba(iArchitecture
Entity
p441
(dp442
g11
(lp443
sg13
S'android.database.CursorWindow$1'
p444
sg15
(lp445
sg17
(lp446
sg19
(lp447
sg21
I0
sbasg57
(lp448
g437
ag444
asg21
I0
sg59
S'830'
p449
sba(iArchitecture
Cluster
p450
(dp451
g7
(lp452
(iArchitecture
Entity
p453
(dp454
g11
(lp455
sg13
S'android.content.SyncResult'
p456
sg15
(lp457
sg17
(lp458
sg19
(lp459
sg21
I0
sba(iArchitecture
Entity
p460
(dp461
g11
(lp462
sg13
S'android.content.SyncResult$1'
p463
sg15
(lp464
sg17
(lp465
sg19
(lp466
sg21
I0
sbasg57
(lp467
g456
ag463
asg21
I0
sg59
S'831'
p468
sba(iArchitecture
Cluster
p469
(dp470
g7
(lp471
(iArchitecture
Entity
p472
(dp473
g11
(lp474
sg13
S'android.preference.SwitchPreference'
p475
sg15
(lp476
sg17
(lp477
sg19
(lp478
sg21
I0
sba(iArchitecture
Entity
p479
(dp480
g11
(lp481
sg13
S'android.preference.SwitchPreference$Listener'
p482
sg15
(lp483
sg17
(lp484
sg19
(lp485
sg21
I0
sbasg57
(lp486
g475
ag482
asg21
I0
sg59
S'832'
p487
sba(iArchitecture
Cluster
p488
(dp489
g7
(lp490
(iArchitecture
Entity
p491
(dp492
g11
(lp493
sg13
S'android.graphics.Interpolator'
p494
sg15
(lp495
sg17
(lp496
sg19
(lp497
sg21
I0
sba(iArchitecture
Entity
p498
(dp499
g11
(lp500
sg13
S'android.graphics.Interpolator$Result'
p501
sg15
(lp502
sg17
(lp503
sg19
(lp504
sg21
I0
sbasg57
(lp505
g494
ag501
asg21
I0
sg59
S'833'
p506
sba(iArchitecture
Cluster
p507
(dp508
g7
(lp509
(iArchitecture
Entity
p510
(dp511
g11
(lp512
sg13
S'android.hardware.location.NanoAppFilter'
p513
sg15
(lp514
sg17
(lp515
sg19
(lp516
sg21
I0
sba(iArchitecture
Entity
p517
(dp518
g11
(lp519
sg13
S'android.hardware.location.NanoAppFilter$1'
p520
sg15
(lp521
sg17
(lp522
sg19
(lp523
sg21
I0
sbasg57
(lp524
g513
ag520
asg21
I0
sg59
S'834'
p525
sba(iArchitecture
Cluster
p526
(dp527
g7
(lp528
(iArchitecture
Entity
p529
(dp530
g11
(lp531
sg13
S'android.content.pm.VerificationParams'
p532
sg15
(lp533
sg17
(lp534
sg19
(lp535
sg21
I0
sba(iArchitecture
Entity
p536
(dp537
g11
(lp538
sg13
S'android.content.pm.VerificationParams$1'
p539
sg15
(lp540
sg17
(lp541
sg19
(lp542
sg21
I0
sbasg57
(lp543
g532
ag539
asg21
I0
sg59
S'835'
p544
sba(iArchitecture
Cluster
p545
(dp546
g7
(lp547
(iArchitecture
Entity
p548
(dp549
g11
(lp550
sg13
S'android.bluetooth.BluetoothProfile'
p551
sg15
(lp552
sg17
(lp553
sg19
(lp554
sg21
I0
sba(iArchitecture
Entity
p555
(dp556
g11
(lp557
sg13
S'android.bluetooth.BluetoothProfile$ServiceListener'
p558
sg15
(lp559
sg17
(lp560
sg19
(lp561
sg21
I0
sbasg57
(lp562
g551
ag558
asg21
I0
sg59
S'836'
p563
sba(iArchitecture
Cluster
p564
(dp565
g7
(lp566
(iArchitecture
Entity
p567
(dp568
g11
(lp569
sg13
S'android.media.ThumbnailUtils'
p570
sg15
(lp571
sg17
(lp572
sg19
(lp573
sg21
I0
sba(iArchitecture
Entity
p574
(dp575
g11
(lp576
sg13
S'android.media.ThumbnailUtils$SizedThumbnailBitmap'
p577
sg15
(lp578
sg17
(lp579
sg19
(lp580
sg21
I0
sbasg57
(lp581
g570
ag577
asg21
I0
sg59
S'837'
p582
sba(iArchitecture
Cluster
p583
(dp584
g7
(lp585
(iArchitecture
Entity
p586
(dp587
g11
(lp588
sg13
S'android.hardware.usb.UsbAccessory'
p589
sg15
(lp590
sg17
(lp591
sg19
(lp592
sg21
I0
sba(iArchitecture
Entity
p593
(dp594
g11
(lp595
sg13
S'android.hardware.usb.UsbAccessory$1'
p596
sg15
(lp597
sg17
(lp598
sg19
(lp599
sg21
I0
sbasg57
(lp600
g589
ag596
asg21
I0
sg59
S'838'
p601
sba(iArchitecture
Cluster
p602
(dp603
g7
(lp604
(iArchitecture
Entity
p605
(dp606
g11
(lp607
sg13
S'android.net.LocalSocketImpl'
p608
sg15
(lp609
sg17
(lp610
sg19
(lp611
sg21
I0
sba(iArchitecture
Entity
p612
(dp613
g11
(lp614
sg13
S'android.net.LocalSocketImpl$SocketInputStream'
p615
sg15
(lp616
sg17
(lp617
sg19
(lp618
sg21
I0
sba(iArchitecture
Entity
p619
(dp620
g11
(lp621
sg13
S'android.net.LocalSocketImpl$SocketOutputStream'
p622
sg15
(lp623
sg17
(lp624
sg19
(lp625
sg21
I0
sbasg57
(lp626
g608
ag615
ag622
asg21
I0
sg59
S'839'
p627
sba(iArchitecture
Cluster
p628
(dp629
g7
(lp630
(iArchitecture
Entity
p631
(dp632
g11
(lp633
sg13
S'android.net.metrics.DhcpErrorEvent'
p634
sg15
(lp635
sg17
(lp636
sg19
(lp637
sg21
I0
sba(iArchitecture
Entity
p638
(dp639
g11
(lp640
sg13
S'android.net.metrics.DhcpErrorEvent$1'
p641
sg15
(lp642
sg17
(lp643
sg19
(lp644
sg21
I0
sba(iArchitecture
Entity
p645
(dp646
g11
(lp647
sg13
S'android.net.metrics.DhcpErrorEvent$Decoder'
p648
sg15
(lp649
sg17
(lp650
sg19
(lp651
sg21
I0
sbasg57
(lp652
g634
ag641
ag648
asg21
I0
sg59
S'883'
p653
sba(iArchitecture
Cluster
p654
(dp655
g7
(lp656
(iArchitecture
Entity
p657
(dp658
g11
(lp659
sg13
S'com.android.server.wm.BoundsAnimationController'
p660
sg15
(lp661
sg17
(lp662
sg19
(lp663
sg21
I0
sba(iArchitecture
Entity
p664
(dp665
g11
(lp666
sg13
S'com.android.server.wm.BoundsAnimationController$AnimateBoundsUser'
p667
sg15
(lp668
sg17
(lp669
sg19
(lp670
sg21
I0
sba(iArchitecture
Entity
p671
(dp672
g11
(lp673
sg13
S'com.android.server.wm.BoundsAnimationController$AppTransitionNotifier'
p674
sg15
(lp675
sg17
(lp676
sg19
(lp677
sg21
I0
sba(iArchitecture
Entity
p678
(dp679
g11
(lp680
sg13
S'com.android.server.wm.BoundsAnimationController$BoundsAnimator'
p681
sg15
(lp682
sg17
(lp683
sg19
(lp684
sg21
I0
sbasg57
(lp685
g660
ag667
ag674
ag681
asg21
I0
sg59
S'983'
p686
sbasS'target_sub'
p687
S'83'
p688
sg57
(lp689
sS'is_component_arch'
p690
I01
sg59
S'7.0.0_r1'
p691
sba.