(lp0
(iArchitecture
Architecture
p1
(dp2
S'clusters'
p3
(lp4
(iArchitecture
Cluster
p5
(dp6
S'entities'
p7
(lp8
(iArchitecture
Entity
p9
(dp10
S'issue_ids'
p11
(lp12
sS'name'
p13
S'android.os.storage.StorageManager'
p14
sS'descs'
p15
(lp16
sS'labels'
p17
(lp18
sS'titles'
p19
(lp20
sS'change'
p21
I0
sba(iArchitecture
Entity
p22
(dp23
g11
(lp24
sg13
S'android.os.storage.StorageManager$ObbActionListener'
p25
sg15
(lp26
sg17
(lp27
sg19
(lp28
sg21
I0
sba(iArchitecture
Entity
p29
(dp30
g11
(lp31
sg13
S'android.os.storage.StorageManager$ObbListenerDelegate'
p32
sg15
(lp33
sg17
(lp34
sg19
(lp35
sg21
I0
sba(iArchitecture
Entity
p36
(dp37
g11
(lp38
sg13
S'android.os.storage.StorageManager$ObbListenerDelegate$1'
p39
sg15
(lp40
sg17
(lp41
sg19
(lp42
sg21
I0
sba(iArchitecture
Entity
p43
(dp44
g11
(lp45
sg13
S'android.os.storage.StorageManager$StorageEventListenerDelegate'
p46
sg15
(lp47
sg17
(lp48
sg19
(lp49
sg21
I0
sbasS'classes'
p50
(lp51
g14
ag25
ag32
ag39
ag46
asg21
I0
sS'label'
p52
S'1061'
p53
sba(iArchitecture
Cluster
p54
(dp55
g7
(lp56
(iArchitecture
Entity
p57
(dp58
g11
(lp59
sg13
S'android.security.keystore.KeyProperties'
p60
sg15
(lp61
sg17
(lp62
sg19
(lp63
sg21
I0
sba(iArchitecture
Entity
p64
(dp65
g11
(lp66
sg13
S'android.security.keystore.KeyProperties$BlockMode'
p67
sg15
(lp68
sg17
(lp69
sg19
(lp70
sg21
I0
sba(iArchitecture
Entity
p71
(dp72
g11
(lp73
sg13
S'android.security.keystore.KeyProperties$Digest'
p74
sg15
(lp75
sg17
(lp76
sg19
(lp77
sg21
I0
sba(iArchitecture
Entity
p78
(dp79
g11
(lp80
sg13
S'android.security.keystore.KeyProperties$EncryptionPadding'
p81
sg15
(lp82
sg17
(lp83
sg19
(lp84
sg21
I0
sba(iArchitecture
Entity
p85
(dp86
g11
(lp87
sg13
S'android.security.keystore.KeyProperties$KeyAlgorithm'
p88
sg15
(lp89
sg17
(lp90
sg19
(lp91
sg21
I0
sba(iArchitecture
Entity
p92
(dp93
g11
(lp94
sg13
S'android.security.keystore.KeyProperties$Origin'
p95
sg15
(lp96
sg17
(lp97
sg19
(lp98
sg21
I0
sba(iArchitecture
Entity
p99
(dp100
g11
(lp101
sg13
S'android.security.keystore.KeyProperties$Purpose'
p102
sg15
(lp103
sg17
(lp104
sg19
(lp105
sg21
I0
sba(iArchitecture
Entity
p106
(dp107
g11
(lp108
sg13
S'android.security.keystore.KeyProperties$SignaturePadding'
p109
sg15
(lp110
sg17
(lp111
sg19
(lp112
sg21
I0
sbasg50
(lp113
g60
ag67
ag74
ag81
ag88
ag95
ag102
ag109
asg21
I0
sg52
S'1161'
p114
sba(iArchitecture
Cluster
p115
(dp116
g7
(lp117
(iArchitecture
Entity
p118
(dp119
g11
(lp120
sg13
S'com.android.ims.internal.uce.common.StatusCode'
p121
sg15
(lp122
sg17
(lp123
sg19
(lp124
sg21
I0
sba(iArchitecture
Entity
p125
(dp126
g11
(lp127
sg13
S'com.android.ims.internal.uce.common.StatusCode$1'
p128
sg15
(lp129
sg17
(lp130
sg19
(lp131
sg21
I0
sba(iArchitecture
Entity
p132
(dp133
g11
(lp134
sg13
S'com.android.ims.internal.uce.common.UceLong'
p135
sg15
(lp136
sg17
(lp137
sg19
(lp138
sg21
I0
sba(iArchitecture
Entity
p139
(dp140
g11
(lp141
sg13
S'com.android.ims.internal.uce.common.UceLong$1'
p142
sg15
(lp143
sg17
(lp144
sg19
(lp145
sg21
I0
sba(iArchitecture
Entity
p146
(dp147
g11
(lp148
sg13
S'com.android.ims.internal.uce.options.OptionsCmdId'
p149
sg15
(lp150
sg17
(lp151
sg19
(lp152
sg21
I0
sba(iArchitecture
Entity
p153
(dp154
g11
(lp155
sg13
S'com.android.ims.internal.uce.options.OptionsCmdId$1'
p156
sg15
(lp157
sg17
(lp158
sg19
(lp159
sg21
I0
sba(iArchitecture
Entity
p160
(dp161
g11
(lp162
sg13
S'com.android.ims.internal.uce.options.OptionsCmdStatus'
p163
sg15
(lp164
sg17
(lp165
sg19
(lp166
sg21
I0
sba(iArchitecture
Entity
p167
(dp168
g11
(lp169
sg13
S'com.android.ims.internal.uce.options.OptionsCmdStatus$1'
p170
sg15
(lp171
sg17
(lp172
sg19
(lp173
sg21
I0
sba(iArchitecture
Entity
p174
(dp175
g11
(lp176
sg13
S'com.android.ims.internal.uce.presence.PresCmdId'
p177
sg15
(lp178
sg17
(lp179
sg19
(lp180
sg21
I0
sba(iArchitecture
Entity
p181
(dp182
g11
(lp183
sg13
S'com.android.ims.internal.uce.presence.PresCmdId$1'
p184
sg15
(lp185
sg17
(lp186
sg19
(lp187
sg21
I0
sba(iArchitecture
Entity
p188
(dp189
g11
(lp190
sg13
S'com.android.ims.internal.uce.presence.PresCmdStatus'
p191
sg15
(lp192
sg17
(lp193
sg19
(lp194
sg21
I0
sba(iArchitecture
Entity
p195
(dp196
g11
(lp197
sg13
S'com.android.ims.internal.uce.presence.PresCmdStatus$1'
p198
sg15
(lp199
sg17
(lp200
sg19
(lp201
sg21
I0
sbasg50
(lp202
g121
ag128
ag135
ag142
ag149
ag156
ag163
ag170
ag177
ag184
ag191
ag198
asg21
I0
sg52
S'1261'
p203
sba(iArchitecture
Cluster
p204
(dp205
g7
(lp206
(iArchitecture
Entity
p207
(dp208
g11
(lp209
sg13
S'android.app.MediaRouteActionProvider'
p210
sg15
(lp211
sg17
(lp212
sg19
(lp213
sg21
I0
sba(iArchitecture
Entity
p214
(dp215
g11
(lp216
sg13
S'android.app.MediaRouteActionProvider$MediaRouterCallback'
p217
sg15
(lp218
sg17
(lp219
sg19
(lp220
sg21
I0
sba(iArchitecture
Entity
p221
(dp222
g11
(lp223
sg13
S'android.app.MediaRouteButton'
p224
sg15
(lp225
sg17
(lp226
sg19
(lp227
sg21
I0
sba(iArchitecture
Entity
p228
(dp229
g11
(lp230
sg13
S'android.app.MediaRouteButton$MediaRouterCallback'
p231
sg15
(lp232
sg17
(lp233
sg19
(lp234
sg21
I0
sba(iArchitecture
Entity
p235
(dp236
g11
(lp237
sg13
S'android.media.JetPlayer'
p238
sg15
(lp239
sg17
(lp240
sg19
(lp241
sg21
I0
sba(iArchitecture
Entity
p242
(dp243
g11
(lp244
sg13
S'android.media.JetPlayer$NativeEventHandler'
p245
sg15
(lp246
sg17
(lp247
sg19
(lp248
sg21
I0
sba(iArchitecture
Entity
p249
(dp250
g11
(lp251
sg13
S'android.media.JetPlayer$OnJetEventListener'
p252
sg15
(lp253
sg17
(lp254
sg19
(lp255
sg21
I0
sba(iArchitecture
Entity
p256
(dp257
g11
(lp258
sg13
S'android.media.MediaRouter'
p259
sg15
(lp260
sg17
(lp261
sg19
(lp262
sg21
I0
sba(iArchitecture
Entity
p263
(dp264
g11
(lp265
sg13
S'android.media.MediaRouter$Callback'
p266
sg15
(lp267
sg17
(lp268
sg19
(lp269
sg21
I0
sba(iArchitecture
Entity
p270
(dp271
g11
(lp272
sg13
S'android.media.MediaRouter$CallbackInfo'
p273
sg15
(lp274
sg17
(lp275
sg19
(lp276
sg21
I0
sba(iArchitecture
Entity
p277
(dp278
g11
(lp279
sg13
S'android.media.MediaRouter$RouteCategory'
p280
sg15
(lp281
sg17
(lp282
sg19
(lp283
sg21
I0
sba(iArchitecture
Entity
p284
(dp285
g11
(lp286
sg13
S'android.media.MediaRouter$RouteGroup'
p287
sg15
(lp288
sg17
(lp289
sg19
(lp290
sg21
I0
sba(iArchitecture
Entity
p291
(dp292
g11
(lp293
sg13
S'android.media.MediaRouter$RouteInfo'
p294
sg15
(lp295
sg17
(lp296
sg19
(lp297
sg21
I0
sba(iArchitecture
Entity
p298
(dp299
g11
(lp300
sg13
S'android.media.MediaRouter$RouteInfo$1'
p301
sg15
(lp302
sg17
(lp303
sg19
(lp304
sg21
I0
sba(iArchitecture
Entity
p305
(dp306
g11
(lp307
sg13
S'android.media.MediaRouter$RouteInfo$1$1'
p308
sg15
(lp309
sg17
(lp310
sg19
(lp311
sg21
I0
sba(iArchitecture
Entity
p312
(dp313
g11
(lp314
sg13
S'android.media.MediaRouter$SimpleCallback'
p315
sg15
(lp316
sg17
(lp317
sg19
(lp318
sg21
I0
sba(iArchitecture
Entity
p319
(dp320
g11
(lp321
sg13
S'android.media.MediaRouter$Static'
p322
sg15
(lp323
sg17
(lp324
sg19
(lp325
sg21
I0
sba(iArchitecture
Entity
p326
(dp327
g11
(lp328
sg13
S'android.media.MediaRouter$Static$1'
p329
sg15
(lp330
sg17
(lp331
sg19
(lp332
sg21
I0
sba(iArchitecture
Entity
p333
(dp334
g11
(lp335
sg13
S'android.media.MediaRouter$Static$1$1'
p336
sg15
(lp337
sg17
(lp338
sg19
(lp339
sg21
I0
sba(iArchitecture
Entity
p340
(dp341
g11
(lp342
sg13
S'android.media.MediaRouter$Static$Client'
p343
sg15
(lp344
sg17
(lp345
sg19
(lp346
sg21
I0
sba(iArchitecture
Entity
p347
(dp348
g11
(lp349
sg13
S'android.media.MediaRouter$Static$Client$1'
p350
sg15
(lp351
sg17
(lp352
sg19
(lp353
sg21
I0
sba(iArchitecture
Entity
p354
(dp355
g11
(lp356
sg13
S'android.media.MediaRouter$UserRouteInfo'
p357
sg15
(lp358
sg17
(lp359
sg19
(lp360
sg21
I0
sba(iArchitecture
Entity
p361
(dp362
g11
(lp363
sg13
S'android.media.MediaRouter$UserRouteInfo$SessionVolumeProvider'
p364
sg15
(lp365
sg17
(lp366
sg19
(lp367
sg21
I0
sba(iArchitecture
Entity
p368
(dp369
g11
(lp370
sg13
S'android.media.MediaRouter$UserRouteInfo$SessionVolumeProvider$1'
p371
sg15
(lp372
sg17
(lp373
sg19
(lp374
sg21
I0
sba(iArchitecture
Entity
p375
(dp376
g11
(lp377
sg13
S'android.media.MediaRouter$UserRouteInfo$SessionVolumeProvider$2'
p378
sg15
(lp379
sg17
(lp380
sg19
(lp381
sg21
I0
sba(iArchitecture
Entity
p382
(dp383
g11
(lp384
sg13
S'android.media.MediaRouter$VolumeCallback'
p385
sg15
(lp386
sg17
(lp387
sg19
(lp388
sg21
I0
sba(iArchitecture
Entity
p389
(dp390
g11
(lp391
sg13
S'android.media.MediaRouter$VolumeCallbackInfo'
p392
sg15
(lp393
sg17
(lp394
sg19
(lp395
sg21
I0
sba(iArchitecture
Entity
p396
(dp397
g11
(lp398
sg13
S'android.media.MediaRouter$VolumeChangeReceiver'
p399
sg15
(lp400
sg17
(lp401
sg19
(lp402
sg21
I0
sba(iArchitecture
Entity
p403
(dp404
g11
(lp405
sg13
S'android.media.MediaRouter$WifiDisplayStatusChangedReceiver'
p406
sg15
(lp407
sg17
(lp408
sg19
(lp409
sg21
I0
sba(iArchitecture
Entity
p410
(dp411
g11
(lp412
sg13
S'com.android.internal.app.MediaRouteChooserDialog'
p413
sg15
(lp414
sg17
(lp415
sg19
(lp416
sg21
I0
sba(iArchitecture
Entity
p417
(dp418
g11
(lp419
sg13
S'com.android.internal.app.MediaRouteChooserDialog$MediaRouterCallback'
p420
sg15
(lp421
sg17
(lp422
sg19
(lp423
sg21
I0
sba(iArchitecture
Entity
p424
(dp425
g11
(lp426
sg13
S'com.android.internal.app.MediaRouteChooserDialog$RouteAdapter'
p427
sg15
(lp428
sg17
(lp429
sg19
(lp430
sg21
I0
sba(iArchitecture
Entity
p431
(dp432
g11
(lp433
sg13
S'com.android.internal.app.MediaRouteChooserDialog$RouteComparator'
p434
sg15
(lp435
sg17
(lp436
sg19
(lp437
sg21
I0
sba(iArchitecture
Entity
p438
(dp439
g11
(lp440
sg13
S'com.android.internal.app.MediaRouteControllerDialog'
p441
sg15
(lp442
sg17
(lp443
sg19
(lp444
sg21
I0
sba(iArchitecture
Entity
p445
(dp446
g11
(lp447
sg13
S'com.android.internal.app.MediaRouteControllerDialog$1'
p448
sg15
(lp449
sg17
(lp450
sg19
(lp451
sg21
I0
sba(iArchitecture
Entity
p452
(dp453
g11
(lp454
sg13
S'com.android.internal.app.MediaRouteControllerDialog$1$1'
p455
sg15
(lp456
sg17
(lp457
sg19
(lp458
sg21
I0
sba(iArchitecture
Entity
p459
(dp460
g11
(lp461
sg13
S'com.android.internal.app.MediaRouteControllerDialog$2'
p462
sg15
(lp463
sg17
(lp464
sg19
(lp465
sg21
I0
sba(iArchitecture
Entity
p466
(dp467
g11
(lp468
sg13
S'com.android.internal.app.MediaRouteControllerDialog$MediaRouterCallback'
p469
sg15
(lp470
sg17
(lp471
sg19
(lp472
sg21
I0
sbasg50
(lp473
g210
ag217
ag224
ag231
ag238
ag245
ag252
ag259
ag266
ag273
ag280
ag287
ag294
ag301
ag308
ag315
ag322
ag329
ag336
ag343
ag350
ag357
ag364
ag371
ag378
ag385
ag392
ag399
ag406
ag413
ag420
ag427
ag434
ag441
ag448
ag455
ag462
ag469
asg21
I0
sg52
S'1361'
p474
sba(iArchitecture
Cluster
p475
(dp476
g7
(lp477
(iArchitecture
Entity
p478
(dp479
g11
(lp480
sg13
S'android.media.audiofx.AutomaticGainControl'
p481
sg15
(lp482
sg17
(lp483
sg19
(lp484
sg21
I0
sbasg50
(lp485
g481
asg21
I0
sg52
S'161'
p486
sba(iArchitecture
Cluster
p487
(dp488
g7
(lp489
(iArchitecture
Entity
p490
(dp491
g11
(lp492
sg13
S'android.hardware.camera2.CameraConstrainedHighSpeedCaptureSession'
p493
sg15
(lp494
sg17
(lp495
sg19
(lp496
sg21
I0
sbasg50
(lp497
g493
asg21
I0
sg52
S'261'
p498
sba(iArchitecture
Cluster
p499
(dp500
g7
(lp501
(iArchitecture
Entity
p502
(dp503
g11
(lp504
sg13
S'android.net.NetworkIdentity'
p505
sg15
(lp506
sg17
(lp507
sg19
(lp508
sg21
I0
sbasg50
(lp509
g505
asg21
I0
sg52
S'361'
p510
sba(iArchitecture
Cluster
p511
(dp512
g7
(lp513
(iArchitecture
Entity
p514
(dp515
g11
(lp516
sg13
S'android.telephony.CellSignalStrength'
p517
sg15
(lp518
sg17
(lp519
sg19
(lp520
sg21
I0
sbasg50
(lp521
g517
asg21
I0
sg52
S'461'
p522
sba(iArchitecture
Cluster
p523
(dp524
g7
(lp525
(iArchitecture
Entity
p526
(dp527
g11
(lp528
sg13
S'android.hardware.camera2.params.OutputConfiguration'
p529
sg15
(lp530
sg17
(lp531
sg19
(lp532
sg21
I0
sba(iArchitecture
Entity
p533
(dp534
g11
(lp535
sg13
S'android.hardware.camera2.params.OutputConfiguration$1'
p536
sg15
(lp537
sg17
(lp538
sg19
(lp539
sg21
I0
sbasg50
(lp540
g529
ag536
asg21
I0
sg52
S'561'
p541
sba(iArchitecture
Cluster
p542
(dp543
g7
(lp544
(iArchitecture
Entity
p545
(dp546
g11
(lp547
sg13
S'android.media.effect.EffectFactory'
p548
sg15
(lp549
sg17
(lp550
sg19
(lp551
sg21
I0
sbasg50
(lp552
g548
asg21
I0
sg52
S'61'
p553
sba(iArchitecture
Cluster
p554
(dp555
g7
(lp556
(iArchitecture
Entity
p557
(dp558
g11
(lp559
sg13
S'android.view.KeyboardShortcutGroup'
p560
sg15
(lp561
sg17
(lp562
sg19
(lp563
sg21
I0
sba(iArchitecture
Entity
p564
(dp565
g11
(lp566
sg13
S'android.view.KeyboardShortcutGroup$1'
p567
sg15
(lp568
sg17
(lp569
sg19
(lp570
sg21
I0
sbasg50
(lp571
g560
ag567
asg21
I0
sg52
S'610'
p572
sba(iArchitecture
Cluster
p573
(dp574
g7
(lp575
(iArchitecture
Entity
p576
(dp577
g11
(lp578
sg13
S'com.android.ims.internal.uce.presence.PresSubscriptionState'
p579
sg15
(lp580
sg17
(lp581
sg19
(lp582
sg21
I0
sba(iArchitecture
Entity
p583
(dp584
g11
(lp585
sg13
S'com.android.ims.internal.uce.presence.PresSubscriptionState$1'
p586
sg15
(lp587
sg17
(lp588
sg19
(lp589
sg21
I0
sbasg50
(lp590
g579
ag586
asg21
I0
sg52
S'611'
p591
sba(iArchitecture
Cluster
p592
(dp593
g7
(lp594
(iArchitecture
Entity
p595
(dp596
g11
(lp597
sg13
S'com.android.server.audio.RecordingActivityMonitor'
p598
sg15
(lp599
sg17
(lp600
sg19
(lp601
sg21
I0
sba(iArchitecture
Entity
p602
(dp603
g11
(lp604
sg13
S'com.android.server.audio.RecordingActivityMonitor$RecMonitorClient'
p605
sg15
(lp606
sg17
(lp607
sg19
(lp608
sg21
I0
sbasg50
(lp609
g598
ag605
asg21
I0
sg52
S'612'
p610
sba(iArchitecture
Cluster
p611
(dp612
g7
(lp613
(iArchitecture
Entity
p614
(dp615
g11
(lp616
sg13
S'android.util.jar.StrictJarVerifier'
p617
sg15
(lp618
sg17
(lp619
sg19
(lp620
sg21
I0
sba(iArchitecture
Entity
p621
(dp622
g11
(lp623
sg13
S'android.util.jar.StrictJarVerifier$VerifierEntry'
p624
sg15
(lp625
sg17
(lp626
sg19
(lp627
sg21
I0
sbasg50
(lp628
g617
ag624
asg21
I0
sg52
S'613'
p629
sba(iArchitecture
Cluster
p630
(dp631
g7
(lp632
(iArchitecture
Entity
p633
(dp634
g11
(lp635
sg13
S'android.bluetooth.BluetoothAvrcpPlayerSettings'
p636
sg15
(lp637
sg17
(lp638
sg19
(lp639
sg21
I0
sba(iArchitecture
Entity
p640
(dp641
g11
(lp642
sg13
S'android.bluetooth.BluetoothAvrcpPlayerSettings$1'
p643
sg15
(lp644
sg17
(lp645
sg19
(lp646
sg21
I0
sbasg50
(lp647
g636
ag643
asg21
I0
sg52
S'614'
p648
sba(iArchitecture
Cluster
p649
(dp650
g7
(lp651
(iArchitecture
Entity
p652
(dp653
g11
(lp654
sg13
S'android.content.pm.LabeledIntent'
p655
sg15
(lp656
sg17
(lp657
sg19
(lp658
sg21
I0
sba(iArchitecture
Entity
p659
(dp660
g11
(lp661
sg13
S'android.content.pm.LabeledIntent$1'
p662
sg15
(lp663
sg17
(lp664
sg19
(lp665
sg21
I0
sbasg50
(lp666
g655
ag662
asg21
I0
sg52
S'615'
p667
sba(iArchitecture
Cluster
p668
(dp669
g7
(lp670
(iArchitecture
Entity
p671
(dp672
g11
(lp673
sg13
S'com.android.server.wm.WindowSurfacePlacer'
p674
sg15
(lp675
sg17
(lp676
sg19
(lp677
sg21
I0
sba(iArchitecture
Entity
p678
(dp679
g11
(lp680
sg13
S'com.android.server.wm.WindowSurfacePlacer$LayerAndToken'
p681
sg15
(lp682
sg17
(lp683
sg19
(lp684
sg21
I0
sbasg50
(lp685
g674
ag681
asg21
I0
sg52
S'616'
p686
sba(iArchitecture
Cluster
p687
(dp688
g7
(lp689
(iArchitecture
Entity
p690
(dp691
g11
(lp692
sg13
S'android.graphics.PorterDuff'
p693
sg15
(lp694
sg17
(lp695
sg19
(lp696
sg21
I0
sba(iArchitecture
Entity
p697
(dp698
g11
(lp699
sg13
S'android.graphics.PorterDuff$Mode'
p700
sg15
(lp701
sg17
(lp702
sg19
(lp703
sg21
I0
sbasg50
(lp704
g693
ag700
asg21
I0
sg52
S'617'
p705
sba(iArchitecture
Cluster
p706
(dp707
g7
(lp708
(iArchitecture
Entity
p709
(dp710
g11
(lp711
sg13
S'android.os.PatternMatcher'
p712
sg15
(lp713
sg17
(lp714
sg19
(lp715
sg21
I0
sba(iArchitecture
Entity
p716
(dp717
g11
(lp718
sg13
S'android.os.PatternMatcher$1'
p719
sg15
(lp720
sg17
(lp721
sg19
(lp722
sg21
I0
sbasg50
(lp723
g712
ag719
asg21
I0
sg52
S'618'
p724
sba(iArchitecture
Cluster
p725
(dp726
g7
(lp727
(iArchitecture
Entity
p728
(dp729
g11
(lp730
sg13
S'android.location.Geofence'
p731
sg15
(lp732
sg17
(lp733
sg19
(lp734
sg21
I0
sba(iArchitecture
Entity
p735
(dp736
g11
(lp737
sg13
S'android.location.Geofence$1'
p738
sg15
(lp739
sg17
(lp740
sg19
(lp741
sg21
I0
sbasg50
(lp742
g731
ag738
asg21
I0
sg52
S'619'
p743
sba(iArchitecture
Cluster
p744
(dp745
g7
(lp746
(iArchitecture
Entity
p747
(dp748
g11
(lp749
sg13
S'android.service.gatekeeper.GateKeeperResponse'
p750
sg15
(lp751
sg17
(lp752
sg19
(lp753
sg21
I0
sba(iArchitecture
Entity
p754
(dp755
g11
(lp756
sg13
S'android.service.gatekeeper.GateKeeperResponse$1'
p757
sg15
(lp758
sg17
(lp759
sg19
(lp760
sg21
I0
sbasg50
(lp761
g750
ag757
asg21
I0
sg52
S'661'
p762
sba(iArchitecture
Cluster
p763
(dp764
g7
(lp765
(iArchitecture
Entity
p766
(dp767
g11
(lp768
sg13
S'android.content.pm.PackageStats'
p769
sg15
(lp770
sg17
(lp771
sg19
(lp772
sg21
I0
sba(iArchitecture
Entity
p773
(dp774
g11
(lp775
sg13
S'android.content.pm.PackageStats$1'
p776
sg15
(lp777
sg17
(lp778
sg19
(lp779
sg21
I0
sbasg50
(lp780
g769
ag776
asg21
I0
sg52
S'761'
p781
sba(iArchitecture
Cluster
p782
(dp783
g7
(lp784
(iArchitecture
Entity
p785
(dp786
g11
(lp787
sg13
S'android.telecom.Voicemail'
p788
sg15
(lp789
sg17
(lp790
sg19
(lp791
sg21
I0
sba(iArchitecture
Entity
p792
(dp793
g11
(lp794
sg13
S'android.telecom.Voicemail$1'
p795
sg15
(lp796
sg17
(lp797
sg19
(lp798
sg21
I0
sba(iArchitecture
Entity
p799
(dp800
g11
(lp801
sg13
S'android.telecom.Voicemail$Builder'
p802
sg15
(lp803
sg17
(lp804
sg19
(lp805
sg21
I0
sbasg50
(lp806
g788
ag795
ag802
asg21
I0
sg52
S'861'
p807
sba(iArchitecture
Cluster
p808
(dp809
g7
(lp810
(iArchitecture
Entity
p811
(dp812
g11
(lp813
sg13
S'android.net.ip.IpReachabilityMonitor'
p814
sg15
(lp815
sg17
(lp816
sg19
(lp817
sg21
I0
sba(iArchitecture
Entity
p818
(dp819
g11
(lp820
sg13
S'android.net.ip.IpReachabilityMonitor$Callback'
p821
sg15
(lp822
sg17
(lp823
sg19
(lp824
sg21
I0
sba(iArchitecture
Entity
p825
(dp826
g11
(lp827
sg13
S'android.net.ip.IpReachabilityMonitor$NetlinkSocketObserver'
p828
sg15
(lp829
sg17
(lp830
sg19
(lp831
sg21
I0
sbasg50
(lp832
g814
ag821
ag828
asg21
I0
sg52
S'961'
p833
sbasS'target_sub'
p834
S'61'
p835
sg50
(lp836
sS'is_component_arch'
p837
I01
sg52
S'7.0.0_r1'
p838
sba.