(lp0
(iArchitecture
Architecture
p1
(dp2
S'clusters'
p3
(lp4
(iArchitecture
Cluster
p5
(dp6
S'entities'
p7
(lp8
(iArchitecture
Entity
p9
(dp10
S'issue_ids'
p11
(lp12
sS'name'
p13
S'com.android.internal.os.WifiPowerEstimator'
p14
sS'descs'
p15
(lp16
sS'labels'
p17
(lp18
sS'titles'
p19
(lp20
sS'change'
p21
I0
sbasS'classes'
p22
(lp23
g14
asg21
I0
sS'label'
p24
S'106'
p25
sba(iArchitecture
Cluster
p26
(dp27
g7
(lp28
(iArchitecture
Entity
p29
(dp30
g11
(lp31
sg13
S'android.hardware.location.ContextHubManager'
p32
sg15
(lp33
sg17
(lp34
sg19
(lp35
sg21
I0
sba(iArchitecture
Entity
p36
(dp37
g11
(lp38
sg13
S'android.hardware.location.ContextHubManager$1'
p39
sg15
(lp40
sg17
(lp41
sg19
(lp42
sg21
I0
sba(iArchitecture
Entity
p43
(dp44
g11
(lp45
sg13
S'android.hardware.location.ContextHubManager$1$1'
p46
sg15
(lp47
sg17
(lp48
sg19
(lp49
sg21
I0
sba(iArchitecture
Entity
p50
(dp51
g11
(lp52
sg13
S'android.hardware.location.ContextHubManager$Callback'
p53
sg15
(lp54
sg17
(lp55
sg19
(lp56
sg21
I0
sba(iArchitecture
Entity
p57
(dp58
g11
(lp59
sg13
S'android.hardware.location.ContextHubManager$ICallback'
p60
sg15
(lp61
sg17
(lp62
sg19
(lp63
sg21
I0
sbasg22
(lp64
g32
ag39
ag46
ag53
ag60
asg21
I0
sg24
S'1060'
p65
sba(iArchitecture
Cluster
p66
(dp67
g7
(lp68
(iArchitecture
Entity
p69
(dp70
g11
(lp71
sg13
S'android.os.storage.StorageManager'
p72
sg15
(lp73
sg17
(lp74
sg19
(lp75
sg21
I0
sba(iArchitecture
Entity
p76
(dp77
g11
(lp78
sg13
S'android.os.storage.StorageManager$ObbActionListener'
p79
sg15
(lp80
sg17
(lp81
sg19
(lp82
sg21
I0
sba(iArchitecture
Entity
p83
(dp84
g11
(lp85
sg13
S'android.os.storage.StorageManager$ObbListenerDelegate'
p86
sg15
(lp87
sg17
(lp88
sg19
(lp89
sg21
I0
sba(iArchitecture
Entity
p90
(dp91
g11
(lp92
sg13
S'android.os.storage.StorageManager$ObbListenerDelegate$1'
p93
sg15
(lp94
sg17
(lp95
sg19
(lp96
sg21
I0
sba(iArchitecture
Entity
p97
(dp98
g11
(lp99
sg13
S'android.os.storage.StorageManager$StorageEventListenerDelegate'
p100
sg15
(lp101
sg17
(lp102
sg19
(lp103
sg21
I0
sbasg22
(lp104
g72
ag79
ag86
ag93
ag100
asg21
I0
sg24
S'1061'
p105
sba(iArchitecture
Cluster
p106
(dp107
g7
(lp108
(iArchitecture
Entity
p109
(dp110
g11
(lp111
sg13
S'android.view.AccessibilityIterators'
p112
sg15
(lp113
sg17
(lp114
sg19
(lp115
sg21
I0
sba(iArchitecture
Entity
p116
(dp117
g11
(lp118
sg13
S'android.view.AccessibilityIterators$AbstractTextSegmentIterator'
p119
sg15
(lp120
sg17
(lp121
sg19
(lp122
sg21
I0
sba(iArchitecture
Entity
p123
(dp124
g11
(lp125
sg13
S'android.view.AccessibilityIterators$CharacterTextSegmentIterator'
p126
sg15
(lp127
sg17
(lp128
sg19
(lp129
sg21
I0
sba(iArchitecture
Entity
p130
(dp131
g11
(lp132
sg13
S'android.view.AccessibilityIterators$ParagraphTextSegmentIterator'
p133
sg15
(lp134
sg17
(lp135
sg19
(lp136
sg21
I0
sba(iArchitecture
Entity
p137
(dp138
g11
(lp139
sg13
S'android.view.AccessibilityIterators$TextSegmentIterator'
p140
sg15
(lp141
sg17
(lp142
sg19
(lp143
sg21
I0
sba(iArchitecture
Entity
p144
(dp145
g11
(lp146
sg13
S'android.view.AccessibilityIterators$WordTextSegmentIterator'
p147
sg15
(lp148
sg17
(lp149
sg19
(lp150
sg21
I0
sbasg22
(lp151
g112
ag119
ag126
ag133
ag140
ag147
asg21
I0
sg24
S'1062'
p152
sba(iArchitecture
Cluster
p153
(dp154
g7
(lp155
(iArchitecture
Entity
p156
(dp157
g11
(lp158
sg13
S'com.android.server.devicepolicy.Owners'
p159
sg15
(lp160
sg17
(lp161
sg19
(lp162
sg21
I0
sba(iArchitecture
Entity
p163
(dp164
g11
(lp165
sg13
S'com.android.server.devicepolicy.Owners$DeviceOwnerReadWriter'
p166
sg15
(lp167
sg17
(lp168
sg19
(lp169
sg21
I0
sba(iArchitecture
Entity
p170
(dp171
g11
(lp172
sg13
S'com.android.server.devicepolicy.Owners$FileReadWriter'
p173
sg15
(lp174
sg17
(lp175
sg19
(lp176
sg21
I0
sba(iArchitecture
Entity
p177
(dp178
g11
(lp179
sg13
S'com.android.server.devicepolicy.Owners$OwnerInfo'
p180
sg15
(lp181
sg17
(lp182
sg19
(lp183
sg21
I0
sba(iArchitecture
Entity
p184
(dp185
g11
(lp186
sg13
S'com.android.server.devicepolicy.Owners$ProfileOwnerReadWriter'
p187
sg15
(lp188
sg17
(lp189
sg19
(lp190
sg21
I0
sbasg22
(lp191
g159
ag166
ag173
ag180
ag187
asg21
I0
sg24
S'1063'
p192
sba(iArchitecture
Cluster
p193
(dp194
g7
(lp195
(iArchitecture
Entity
p196
(dp197
g11
(lp198
sg13
S'com.android.server.accounts.TokenCache'
p199
sg15
(lp200
sg17
(lp201
sg19
(lp202
sg21
I0
sba(iArchitecture
Entity
p203
(dp204
g11
(lp205
sg13
S'com.android.server.accounts.TokenCache$Key'
p206
sg15
(lp207
sg17
(lp208
sg19
(lp209
sg21
I0
sba(iArchitecture
Entity
p210
(dp211
g11
(lp212
sg13
S'com.android.server.accounts.TokenCache$TokenLruCache'
p213
sg15
(lp214
sg17
(lp215
sg19
(lp216
sg21
I0
sba(iArchitecture
Entity
p217
(dp218
g11
(lp219
sg13
S'com.android.server.accounts.TokenCache$TokenLruCache$Evictor'
p220
sg15
(lp221
sg17
(lp222
sg19
(lp223
sg21
I0
sba(iArchitecture
Entity
p224
(dp225
g11
(lp226
sg13
S'com.android.server.accounts.TokenCache$Value'
p227
sg15
(lp228
sg17
(lp229
sg19
(lp230
sg21
I0
sbasg22
(lp231
g199
ag206
ag213
ag220
ag227
asg21
I0
sg24
S'1064'
p232
sba(iArchitecture
Cluster
p233
(dp234
g7
(lp235
(iArchitecture
Entity
p236
(dp237
g11
(lp238
sg13
S'com.android.internal.transition.EpicenterTranslateClipReveal'
p239
sg15
(lp240
sg17
(lp241
sg19
(lp242
sg21
I0
sba(iArchitecture
Entity
p243
(dp244
g11
(lp245
sg13
S'com.android.internal.transition.EpicenterTranslateClipReveal$1'
p246
sg15
(lp247
sg17
(lp248
sg19
(lp249
sg21
I0
sba(iArchitecture
Entity
p250
(dp251
g11
(lp252
sg13
S'com.android.internal.transition.EpicenterTranslateClipReveal$State'
p253
sg15
(lp254
sg17
(lp255
sg19
(lp256
sg21
I0
sba(iArchitecture
Entity
p257
(dp258
g11
(lp259
sg13
S'com.android.internal.transition.EpicenterTranslateClipReveal$StateEvaluator'
p260
sg15
(lp261
sg17
(lp262
sg19
(lp263
sg21
I0
sba(iArchitecture
Entity
p264
(dp265
g11
(lp266
sg13
S'com.android.internal.transition.EpicenterTranslateClipReveal$StateProperty'
p267
sg15
(lp268
sg17
(lp269
sg19
(lp270
sg21
I0
sbasg22
(lp271
g239
ag246
ag253
ag260
ag267
asg21
I0
sg24
S'1065'
p272
sba(iArchitecture
Cluster
p273
(dp274
g7
(lp275
(iArchitecture
Entity
p276
(dp277
g11
(lp278
sg13
S'android.preference.SeekBarVolumizer'
p279
sg15
(lp280
sg17
(lp281
sg19
(lp282
sg21
I0
sba(iArchitecture
Entity
p283
(dp284
g11
(lp285
sg13
S'android.preference.SeekBarVolumizer$Callback'
p286
sg15
(lp287
sg17
(lp288
sg19
(lp289
sg21
I0
sba(iArchitecture
Entity
p290
(dp291
g11
(lp292
sg13
S'android.preference.SeekBarVolumizer$H'
p293
sg15
(lp294
sg17
(lp295
sg19
(lp296
sg21
I0
sba(iArchitecture
Entity
p297
(dp298
g11
(lp299
sg13
S'android.preference.SeekBarVolumizer$Observer'
p300
sg15
(lp301
sg17
(lp302
sg19
(lp303
sg21
I0
sba(iArchitecture
Entity
p304
(dp305
g11
(lp306
sg13
S'android.preference.SeekBarVolumizer$Receiver'
p307
sg15
(lp308
sg17
(lp309
sg19
(lp310
sg21
I0
sbasg22
(lp311
g279
ag286
ag293
ag300
ag307
asg21
I0
sg24
S'1066'
p312
sba(iArchitecture
Cluster
p313
(dp314
g7
(lp315
(iArchitecture
Entity
p316
(dp317
g11
(lp318
sg13
S'android.app.job.JobInfo'
p319
sg15
(lp320
sg17
(lp321
sg19
(lp322
sg21
I0
sba(iArchitecture
Entity
p323
(dp324
g11
(lp325
sg13
S'android.app.job.JobInfo$1'
p326
sg15
(lp327
sg17
(lp328
sg19
(lp329
sg21
I0
sba(iArchitecture
Entity
p330
(dp331
g11
(lp332
sg13
S'android.app.job.JobInfo$Builder'
p333
sg15
(lp334
sg17
(lp335
sg19
(lp336
sg21
I0
sba(iArchitecture
Entity
p337
(dp338
g11
(lp339
sg13
S'android.app.job.JobInfo$TriggerContentUri'
p340
sg15
(lp341
sg17
(lp342
sg19
(lp343
sg21
I0
sba(iArchitecture
Entity
p344
(dp345
g11
(lp346
sg13
S'android.app.job.JobInfo$TriggerContentUri$1'
p347
sg15
(lp348
sg17
(lp349
sg19
(lp350
sg21
I0
sbasg22
(lp351
g319
ag326
ag333
ag340
ag347
asg21
I0
sg24
S'1067'
p352
sba(iArchitecture
Cluster
p353
(dp354
g7
(lp355
(iArchitecture
Entity
p356
(dp357
g11
(lp358
sg13
S'android.animation.LayoutTransition'
p359
sg15
(lp360
sg17
(lp361
sg19
(lp362
sg21
I0
sba(iArchitecture
Entity
p363
(dp364
g11
(lp365
sg13
S'android.animation.LayoutTransition$1'
p366
sg15
(lp367
sg17
(lp368
sg19
(lp369
sg21
I0
sba(iArchitecture
Entity
p370
(dp371
g11
(lp372
sg13
S'android.animation.LayoutTransition$2'
p373
sg15
(lp374
sg17
(lp375
sg19
(lp376
sg21
I0
sba(iArchitecture
Entity
p377
(dp378
g11
(lp379
sg13
S'android.animation.LayoutTransition$3'
p380
sg15
(lp381
sg17
(lp382
sg19
(lp383
sg21
I0
sba(iArchitecture
Entity
p384
(dp385
g11
(lp386
sg13
S'android.animation.LayoutTransition$4'
p387
sg15
(lp388
sg17
(lp389
sg19
(lp390
sg21
I0
sba(iArchitecture
Entity
p391
(dp392
g11
(lp393
sg13
S'android.animation.LayoutTransition$5'
p394
sg15
(lp395
sg17
(lp396
sg19
(lp397
sg21
I0
sba(iArchitecture
Entity
p398
(dp399
g11
(lp400
sg13
S'android.animation.LayoutTransition$CleanupCallback'
p401
sg15
(lp402
sg17
(lp403
sg19
(lp404
sg21
I0
sba(iArchitecture
Entity
p405
(dp406
g11
(lp407
sg13
S'android.animation.LayoutTransition$TransitionListener'
p408
sg15
(lp409
sg17
(lp410
sg19
(lp411
sg21
I0
sbasg22
(lp412
g359
ag366
ag373
ag380
ag387
ag394
ag401
ag408
asg21
I0
sg24
S'1068'
p413
sba(iArchitecture
Cluster
p414
(dp415
g7
(lp416
(iArchitecture
Entity
p417
(dp418
g11
(lp419
sg13
S'com.android.server.pm.ShortcutUser'
p420
sg15
(lp421
sg17
(lp422
sg19
(lp423
sg21
I0
sba(iArchitecture
Entity
p424
(dp425
g11
(lp426
sg13
S'com.android.server.pm.ShortcutUser$PackageWithUser'
p427
sg15
(lp428
sg17
(lp429
sg19
(lp430
sg21
I0
sba(iArchitecture
Entity
p431
(dp432
g11
(lp433
sg13
S'com.android.server.pm.ShortcutUser$_void_attemptToRestoreIfNeededAndSave_com_android_server_pm_ShortcutService_s_java_lang_String_packageName_int_packageUserId_LambdaImpl0'
p434
sg15
(lp435
sg17
(lp436
sg19
(lp437
sg21
I0
sba(iArchitecture
Entity
p438
(dp439
g11
(lp440
sg13
S'com.android.server.pm.ShortcutUser$_void_forPackageItem_java_lang_String_packageName_int_packageUserId_java_util_function_Consumer_callback_LambdaImpl0'
p441
sg15
(lp442
sg17
(lp443
sg19
(lp444
sg21
I0
sba(iArchitecture
Entity
p445
(dp446
g11
(lp447
sg13
S'com.android.server.pm.ShortcutUser$_void_resetThrottlingIfNeeded_com_android_server_pm_ShortcutService_s_LambdaImpl0'
p448
sg15
(lp449
sg17
(lp450
sg19
(lp451
sg21
I0
sbasg22
(lp452
g420
ag427
ag434
ag441
ag448
asg21
I0
sg24
S'1069'
p453
sba(iArchitecture
Cluster
p454
(dp455
g7
(lp456
(iArchitecture
Entity
p457
(dp458
g11
(lp459
sg13
S'com.android.server.CommonTimeManagementService'
p460
sg15
(lp461
sg17
(lp462
sg19
(lp463
sg21
I0
sba(iArchitecture
Entity
p464
(dp465
g11
(lp466
sg13
S'com.android.server.CommonTimeManagementService$1'
p467
sg15
(lp468
sg17
(lp469
sg19
(lp470
sg21
I0
sba(iArchitecture
Entity
p471
(dp472
g11
(lp473
sg13
S'com.android.server.CommonTimeManagementService$2'
p474
sg15
(lp475
sg17
(lp476
sg19
(lp477
sg21
I0
sba(iArchitecture
Entity
p478
(dp479
g11
(lp480
sg13
S'com.android.server.CommonTimeManagementService$3'
p481
sg15
(lp482
sg17
(lp483
sg19
(lp484
sg21
I0
sba(iArchitecture
Entity
p485
(dp486
g11
(lp487
sg13
S'com.android.server.CommonTimeManagementService$4'
p488
sg15
(lp489
sg17
(lp490
sg19
(lp491
sg21
I0
sba(iArchitecture
Entity
p492
(dp493
g11
(lp494
sg13
S'com.android.server.CommonTimeManagementService$5'
p495
sg15
(lp496
sg17
(lp497
sg19
(lp498
sg21
I0
sba(iArchitecture
Entity
p499
(dp500
g11
(lp501
sg13
S'com.android.server.CommonTimeManagementService$InterfaceScoreRule'
p502
sg15
(lp503
sg17
(lp504
sg19
(lp505
sg21
I0
sbasg22
(lp506
g460
ag467
ag474
ag481
ag488
ag495
ag502
asg21
I0
sg24
S'1106'
p507
sbasS'target_sub'
p508
S'106'
p509
sg22
(lp510
sS'is_component_arch'
p511
I01
sg24
S'7.0.0_r1'
p512
sba.