(lp0
(iArchitecture
Architecture
p1
(dp2
S'clusters'
p3
(lp4
(iArchitecture
Cluster
p5
(dp6
S'entities'
p7
(lp8
(iArchitecture
Entity
p9
(dp10
S'issue_ids'
p11
(lp12
sS'name'
p13
S'android.bluetooth.le.BluetoothLeScanner'
p14
sS'descs'
p15
(lp16
sS'labels'
p17
(lp18
sS'titles'
p19
(lp20
sS'change'
p21
I0
sba(iArchitecture
Entity
p22
(dp23
g11
(lp24
sg13
S'android.bluetooth.le.BluetoothLeScanner$1'
p25
sg15
(lp26
sg17
(lp27
sg19
(lp28
sg21
I0
sba(iArchitecture
Entity
p29
(dp30
g11
(lp31
sg13
S'android.bluetooth.le.BluetoothLeScanner$BleScanCallbackWrapper'
p32
sg15
(lp33
sg17
(lp34
sg19
(lp35
sg21
I0
sba(iArchitecture
Entity
p36
(dp37
g11
(lp38
sg13
S'android.bluetooth.le.BluetoothLeScanner$BleScanCallbackWrapper$1'
p39
sg15
(lp40
sg17
(lp41
sg19
(lp42
sg21
I0
sba(iArchitecture
Entity
p43
(dp44
g11
(lp45
sg13
S'android.bluetooth.le.BluetoothLeScanner$BleScanCallbackWrapper$2'
p46
sg15
(lp47
sg17
(lp48
sg19
(lp49
sg21
I0
sba(iArchitecture
Entity
p50
(dp51
g11
(lp52
sg13
S'android.bluetooth.le.BluetoothLeScanner$BleScanCallbackWrapper$3'
p53
sg15
(lp54
sg17
(lp55
sg19
(lp56
sg21
I0
sbasS'classes'
p57
(lp58
g14
ag25
ag32
ag39
ag46
ag53
asg21
I0
sS'label'
p59
S'1114'
p60
sba(iArchitecture
Cluster
p61
(dp62
g7
(lp63
(iArchitecture
Entity
p64
(dp65
g11
(lp66
sg13
S'android.security.keystore.KeyStoreCryptoOperationUtils'
p67
sg15
(lp68
sg17
(lp69
sg19
(lp70
sg21
I0
sbasg57
(lp71
g67
asg21
I0
sg59
S'114'
p72
sba(iArchitecture
Cluster
p73
(dp74
g7
(lp75
(iArchitecture
Entity
p76
(dp77
g11
(lp78
sg13
S'android.hardware.SystemSensorManager'
p79
sg15
(lp80
sg17
(lp81
sg19
(lp82
sg21
I0
sba(iArchitecture
Entity
p83
(dp84
g11
(lp85
sg13
S'android.hardware.SystemSensorManager$1'
p86
sg15
(lp87
sg17
(lp88
sg19
(lp89
sg21
I0
sba(iArchitecture
Entity
p90
(dp91
g11
(lp92
sg13
S'android.hardware.SystemSensorManager$2'
p93
sg15
(lp94
sg17
(lp95
sg19
(lp96
sg21
I0
sba(iArchitecture
Entity
p97
(dp98
g11
(lp99
sg13
S'android.hardware.SystemSensorManager$BaseEventQueue'
p100
sg15
(lp101
sg17
(lp102
sg19
(lp103
sg21
I0
sba(iArchitecture
Entity
p104
(dp105
g11
(lp106
sg13
S'android.hardware.SystemSensorManager$InjectEventQueue'
p107
sg15
(lp108
sg17
(lp109
sg19
(lp110
sg21
I0
sba(iArchitecture
Entity
p111
(dp112
g11
(lp113
sg13
S'android.hardware.SystemSensorManager$SensorEventQueue'
p114
sg15
(lp115
sg17
(lp116
sg19
(lp117
sg21
I0
sba(iArchitecture
Entity
p118
(dp119
g11
(lp120
sg13
S'android.hardware.SystemSensorManager$TriggerEventQueue'
p121
sg15
(lp122
sg17
(lp123
sg19
(lp124
sg21
I0
sbasg57
(lp125
g79
ag86
ag93
ag100
ag107
ag114
ag121
asg21
I0
sg59
S'1140'
p126
sba(iArchitecture
Cluster
p127
(dp128
g7
(lp129
(iArchitecture
Entity
p130
(dp131
g11
(lp132
sg13
S'android.renderscript.Mesh'
p133
sg15
(lp134
sg17
(lp135
sg19
(lp136
sg21
I0
sba(iArchitecture
Entity
p137
(dp138
g11
(lp139
sg13
S'android.renderscript.Mesh$AllocationBuilder'
p140
sg15
(lp141
sg17
(lp142
sg19
(lp143
sg21
I0
sba(iArchitecture
Entity
p144
(dp145
g11
(lp146
sg13
S'android.renderscript.Mesh$AllocationBuilder$Entry'
p147
sg15
(lp148
sg17
(lp149
sg19
(lp150
sg21
I0
sba(iArchitecture
Entity
p151
(dp152
g11
(lp153
sg13
S'android.renderscript.Mesh$Builder'
p154
sg15
(lp155
sg17
(lp156
sg19
(lp157
sg21
I0
sba(iArchitecture
Entity
p158
(dp159
g11
(lp160
sg13
S'android.renderscript.Mesh$Builder$Entry'
p161
sg15
(lp162
sg17
(lp163
sg19
(lp164
sg21
I0
sba(iArchitecture
Entity
p165
(dp166
g11
(lp167
sg13
S'android.renderscript.Mesh$Primitive'
p168
sg15
(lp169
sg17
(lp170
sg19
(lp171
sg21
I0
sba(iArchitecture
Entity
p172
(dp173
g11
(lp174
sg13
S'android.renderscript.Mesh$TriangleMeshBuilder'
p175
sg15
(lp176
sg17
(lp177
sg19
(lp178
sg21
I0
sbasg57
(lp179
g133
ag140
ag147
ag154
ag161
ag168
ag175
asg21
I0
sg59
S'1141'
p180
sba(iArchitecture
Cluster
p181
(dp182
g7
(lp183
(iArchitecture
Entity
p184
(dp185
g11
(lp186
sg13
S'android.service.textservice.SpellCheckerService'
p187
sg15
(lp188
sg17
(lp189
sg19
(lp190
sg21
I0
sba(iArchitecture
Entity
p191
(dp192
g11
(lp193
sg13
S'android.service.textservice.SpellCheckerService$InternalISpellCheckerSession'
p194
sg15
(lp195
sg17
(lp196
sg19
(lp197
sg21
I0
sba(iArchitecture
Entity
p198
(dp199
g11
(lp200
sg13
S'android.service.textservice.SpellCheckerService$SentenceLevelAdapter'
p201
sg15
(lp202
sg17
(lp203
sg19
(lp204
sg21
I0
sba(iArchitecture
Entity
p205
(dp206
g11
(lp207
sg13
S'android.service.textservice.SpellCheckerService$SentenceLevelAdapter$SentenceTextInfoParams'
p208
sg15
(lp209
sg17
(lp210
sg19
(lp211
sg21
I0
sba(iArchitecture
Entity
p212
(dp213
g11
(lp214
sg13
S'android.service.textservice.SpellCheckerService$SentenceLevelAdapter$SentenceWordItem'
p215
sg15
(lp216
sg17
(lp217
sg19
(lp218
sg21
I0
sba(iArchitecture
Entity
p219
(dp220
g11
(lp221
sg13
S'android.service.textservice.SpellCheckerService$Session'
p222
sg15
(lp223
sg17
(lp224
sg19
(lp225
sg21
I0
sba(iArchitecture
Entity
p226
(dp227
g11
(lp228
sg13
S'android.service.textservice.SpellCheckerService$SpellCheckerServiceBinder'
p229
sg15
(lp230
sg17
(lp231
sg19
(lp232
sg21
I0
sbasg57
(lp233
g187
ag194
ag201
ag208
ag215
ag222
ag229
asg21
I0
sg59
S'1142'
p234
sba(iArchitecture
Cluster
p235
(dp236
g7
(lp237
(iArchitecture
Entity
p238
(dp239
g11
(lp240
sg13
S'android.accounts.AbstractAccountAuthenticator'
p241
sg15
(lp242
sg17
(lp243
sg19
(lp244
sg21
I0
sba(iArchitecture
Entity
p245
(dp246
g11
(lp247
sg13
S'android.accounts.AbstractAccountAuthenticator$1'
p248
sg15
(lp249
sg17
(lp250
sg19
(lp251
sg21
I0
sba(iArchitecture
Entity
p252
(dp253
g11
(lp254
sg13
S'android.accounts.AbstractAccountAuthenticator$2'
p255
sg15
(lp256
sg17
(lp257
sg19
(lp258
sg21
I0
sba(iArchitecture
Entity
p259
(dp260
g11
(lp261
sg13
S'android.accounts.AbstractAccountAuthenticator$3'
p262
sg15
(lp263
sg17
(lp264
sg19
(lp265
sg21
I0
sba(iArchitecture
Entity
p266
(dp267
g11
(lp268
sg13
S'android.accounts.AbstractAccountAuthenticator$4'
p269
sg15
(lp270
sg17
(lp271
sg19
(lp272
sg21
I0
sba(iArchitecture
Entity
p273
(dp274
g11
(lp275
sg13
S'android.accounts.AbstractAccountAuthenticator$Transport'
p276
sg15
(lp277
sg17
(lp278
sg19
(lp279
sg21
I0
sbasg57
(lp280
g241
ag248
ag255
ag262
ag269
ag276
asg21
I0
sg59
S'1143'
p281
sba(iArchitecture
Cluster
p282
(dp283
g7
(lp284
(iArchitecture
Entity
p285
(dp286
g11
(lp287
sg13
S'com.android.server.NetworkManagementService'
p288
sg15
(lp289
sg17
(lp290
sg19
(lp291
sg21
I0
sba(iArchitecture
Entity
p292
(dp293
g11
(lp294
sg13
S'com.android.server.NetworkManagementService$1'
p295
sg15
(lp296
sg17
(lp297
sg19
(lp298
sg21
I0
sba(iArchitecture
Entity
p299
(dp300
g11
(lp301
sg13
S'com.android.server.NetworkManagementService$2'
p302
sg15
(lp303
sg17
(lp304
sg19
(lp305
sg21
I0
sba(iArchitecture
Entity
p306
(dp307
g11
(lp308
sg13
S'com.android.server.NetworkManagementService$IdleTimerParams'
p309
sg15
(lp310
sg17
(lp311
sg19
(lp312
sg21
I0
sba(iArchitecture
Entity
p313
(dp314
g11
(lp315
sg13
S'com.android.server.NetworkManagementService$NetdCallbackReceiver'
p316
sg15
(lp317
sg17
(lp318
sg19
(lp319
sg21
I0
sba(iArchitecture
Entity
p320
(dp321
g11
(lp322
sg13
S'com.android.server.NetworkManagementService$NetdCallbackReceiver$1'
p323
sg15
(lp324
sg17
(lp325
sg19
(lp326
sg21
I0
sba(iArchitecture
Entity
p327
(dp328
g11
(lp329
sg13
S'com.android.server.NetworkManagementService$NetdResponseCode'
p330
sg15
(lp331
sg17
(lp332
sg19
(lp333
sg21
I0
sbasg57
(lp334
g288
ag295
ag302
ag309
ag316
ag323
ag330
asg21
I0
sg59
S'1144'
p335
sba(iArchitecture
Cluster
p336
(dp337
g7
(lp338
(iArchitecture
Entity
p339
(dp340
g11
(lp341
sg13
S'android.view.GestureDetector'
p342
sg15
(lp343
sg17
(lp344
sg19
(lp345
sg21
I0
sba(iArchitecture
Entity
p346
(dp347
g11
(lp348
sg13
S'android.view.GestureDetector$GestureHandler'
p349
sg15
(lp350
sg17
(lp351
sg19
(lp352
sg21
I0
sba(iArchitecture
Entity
p353
(dp354
g11
(lp355
sg13
S'android.view.GestureDetector$OnContextClickListener'
p356
sg15
(lp357
sg17
(lp358
sg19
(lp359
sg21
I0
sba(iArchitecture
Entity
p360
(dp361
g11
(lp362
sg13
S'android.view.GestureDetector$OnDoubleTapListener'
p363
sg15
(lp364
sg17
(lp365
sg19
(lp366
sg21
I0
sba(iArchitecture
Entity
p367
(dp368
g11
(lp369
sg13
S'android.view.GestureDetector$OnGestureListener'
p370
sg15
(lp371
sg17
(lp372
sg19
(lp373
sg21
I0
sba(iArchitecture
Entity
p374
(dp375
g11
(lp376
sg13
S'android.view.GestureDetector$SimpleOnGestureListener'
p377
sg15
(lp378
sg17
(lp379
sg19
(lp380
sg21
I0
sbasg57
(lp381
g342
ag349
ag356
ag363
ag370
ag377
asg21
I0
sg59
S'1145'
p382
sba(iArchitecture
Cluster
p383
(dp384
g7
(lp385
(iArchitecture
Entity
p386
(dp387
g11
(lp388
sg13
S'android.media.MediaCodecInfo'
p389
sg15
(lp390
sg17
(lp391
sg19
(lp392
sg21
I0
sba(iArchitecture
Entity
p393
(dp394
g11
(lp395
sg13
S'android.media.MediaCodecInfo$AudioCapabilities'
p396
sg15
(lp397
sg17
(lp398
sg19
(lp399
sg21
I0
sba(iArchitecture
Entity
p400
(dp401
g11
(lp402
sg13
S'android.media.MediaCodecInfo$CodecCapabilities'
p403
sg15
(lp404
sg17
(lp405
sg19
(lp406
sg21
I0
sba(iArchitecture
Entity
p407
(dp408
g11
(lp409
sg13
S'android.media.MediaCodecInfo$CodecProfileLevel'
p410
sg15
(lp411
sg17
(lp412
sg19
(lp413
sg21
I0
sba(iArchitecture
Entity
p414
(dp415
g11
(lp416
sg13
S'android.media.MediaCodecInfo$EncoderCapabilities'
p417
sg15
(lp418
sg17
(lp419
sg19
(lp420
sg21
I0
sba(iArchitecture
Entity
p421
(dp422
g11
(lp423
sg13
S'android.media.MediaCodecInfo$Feature'
p424
sg15
(lp425
sg17
(lp426
sg19
(lp427
sg21
I0
sba(iArchitecture
Entity
p428
(dp429
g11
(lp430
sg13
S'android.media.MediaCodecInfo$VideoCapabilities'
p431
sg15
(lp432
sg17
(lp433
sg19
(lp434
sg21
I0
sbasg57
(lp435
g389
ag396
ag403
ag410
ag417
ag424
ag431
asg21
I0
sg59
S'1146'
p436
sba(iArchitecture
Cluster
p437
(dp438
g7
(lp439
(iArchitecture
Entity
p440
(dp441
g11
(lp442
sg13
S'com.android.server.Watchdog'
p443
sg15
(lp444
sg17
(lp445
sg19
(lp446
sg21
I0
sba(iArchitecture
Entity
p447
(dp448
g11
(lp449
sg13
S'com.android.server.Watchdog$1'
p450
sg15
(lp451
sg17
(lp452
sg19
(lp453
sg21
I0
sba(iArchitecture
Entity
p454
(dp455
g11
(lp456
sg13
S'com.android.server.Watchdog$BinderThreadMonitor'
p457
sg15
(lp458
sg17
(lp459
sg19
(lp460
sg21
I0
sba(iArchitecture
Entity
p461
(dp462
g11
(lp463
sg13
S'com.android.server.Watchdog$HandlerChecker'
p464
sg15
(lp465
sg17
(lp466
sg19
(lp467
sg21
I0
sba(iArchitecture
Entity
p468
(dp469
g11
(lp470
sg13
S'com.android.server.Watchdog$Monitor'
p471
sg15
(lp472
sg17
(lp473
sg19
(lp474
sg21
I0
sba(iArchitecture
Entity
p475
(dp476
g11
(lp477
sg13
S'com.android.server.Watchdog$RebootRequestReceiver'
p478
sg15
(lp479
sg17
(lp480
sg19
(lp481
sg21
I0
sbasg57
(lp482
g443
ag450
ag457
ag464
ag471
ag478
asg21
I0
sg59
S'1147'
p483
sba(iArchitecture
Cluster
p484
(dp485
g7
(lp486
(iArchitecture
Entity
p487
(dp488
g11
(lp489
sg13
S'android.preference.Preference'
p490
sg15
(lp491
sg17
(lp492
sg19
(lp493
sg21
I0
sba(iArchitecture
Entity
p494
(dp495
g11
(lp496
sg13
S'android.preference.Preference$BaseSavedState'
p497
sg15
(lp498
sg17
(lp499
sg19
(lp500
sg21
I0
sba(iArchitecture
Entity
p501
(dp502
g11
(lp503
sg13
S'android.preference.Preference$BaseSavedState$1'
p504
sg15
(lp505
sg17
(lp506
sg19
(lp507
sg21
I0
sba(iArchitecture
Entity
p508
(dp509
g11
(lp510
sg13
S'android.preference.Preference$OnPreferenceChangeInternalListener'
p511
sg15
(lp512
sg17
(lp513
sg19
(lp514
sg21
I0
sba(iArchitecture
Entity
p515
(dp516
g11
(lp517
sg13
S'android.preference.Preference$OnPreferenceChangeListener'
p518
sg15
(lp519
sg17
(lp520
sg19
(lp521
sg21
I0
sba(iArchitecture
Entity
p522
(dp523
g11
(lp524
sg13
S'android.preference.Preference$OnPreferenceClickListener'
p525
sg15
(lp526
sg17
(lp527
sg19
(lp528
sg21
I0
sbasg57
(lp529
g490
ag497
ag504
ag511
ag518
ag525
asg21
I0
sg59
S'1148'
p530
sba(iArchitecture
Cluster
p531
(dp532
g7
(lp533
(iArchitecture
Entity
p534
(dp535
g11
(lp536
sg13
S'android.widget.ActivityChooserView'
p537
sg15
(lp538
sg17
(lp539
sg19
(lp540
sg21
I0
sba(iArchitecture
Entity
p541
(dp542
g11
(lp543
sg13
S'android.widget.ActivityChooserView$1'
p544
sg15
(lp545
sg17
(lp546
sg19
(lp547
sg21
I0
sba(iArchitecture
Entity
p548
(dp549
g11
(lp550
sg13
S'android.widget.ActivityChooserView$2'
p551
sg15
(lp552
sg17
(lp553
sg19
(lp554
sg21
I0
sba(iArchitecture
Entity
p555
(dp556
g11
(lp557
sg13
S'android.widget.ActivityChooserView$3'
p558
sg15
(lp559
sg17
(lp560
sg19
(lp561
sg21
I0
sba(iArchitecture
Entity
p562
(dp563
g11
(lp564
sg13
S'android.widget.ActivityChooserView$4'
p565
sg15
(lp566
sg17
(lp567
sg19
(lp568
sg21
I0
sba(iArchitecture
Entity
p569
(dp570
g11
(lp571
sg13
S'android.widget.ActivityChooserView$5'
p572
sg15
(lp573
sg17
(lp574
sg19
(lp575
sg21
I0
sba(iArchitecture
Entity
p576
(dp577
g11
(lp578
sg13
S'android.widget.ActivityChooserView$ActivityChooserViewAdapter'
p579
sg15
(lp580
sg17
(lp581
sg19
(lp582
sg21
I0
sba(iArchitecture
Entity
p583
(dp584
g11
(lp585
sg13
S'android.widget.ActivityChooserView$Callbacks'
p586
sg15
(lp587
sg17
(lp588
sg19
(lp589
sg21
I0
sbasg57
(lp590
g537
ag544
ag551
ag558
ag565
ag572
ag579
ag586
asg21
I0
sg59
S'1149'
p591
sbasS'target_sub'
p592
S'114'
p593
sg57
(lp594
sS'is_component_arch'
p595
I01
sg59
S'7.0.0_r1'
p596
sba.