(lp0
(iArchitecture
Architecture
p1
(dp2
S'clusters'
p3
(lp4
(iArchitecture
Cluster
p5
(dp6
S'entities'
p7
(lp8
(iArchitecture
Entity
p9
(dp10
S'issue_ids'
p11
(lp12
sS'name'
p13
S'com.android.server.devicepolicy.Owners'
p14
sS'descs'
p15
(lp16
sS'labels'
p17
(lp18
sS'titles'
p19
(lp20
sS'change'
p21
I0
sba(iArchitecture
Entity
p22
(dp23
g11
(lp24
sg13
S'com.android.server.devicepolicy.Owners$DeviceOwnerReadWriter'
p25
sg15
(lp26
sg17
(lp27
sg19
(lp28
sg21
I0
sba(iArchitecture
Entity
p29
(dp30
g11
(lp31
sg13
S'com.android.server.devicepolicy.Owners$FileReadWriter'
p32
sg15
(lp33
sg17
(lp34
sg19
(lp35
sg21
I0
sba(iArchitecture
Entity
p36
(dp37
g11
(lp38
sg13
S'com.android.server.devicepolicy.Owners$OwnerInfo'
p39
sg15
(lp40
sg17
(lp41
sg19
(lp42
sg21
I0
sba(iArchitecture
Entity
p43
(dp44
g11
(lp45
sg13
S'com.android.server.devicepolicy.Owners$ProfileOwnerReadWriter'
p46
sg15
(lp47
sg17
(lp48
sg19
(lp49
sg21
I0
sbasS'classes'
p50
(lp51
g14
ag25
ag32
ag39
ag46
asg21
I0
sS'label'
p52
S'1063'
p53
sba(iArchitecture
Cluster
p54
(dp55
g7
(lp56
(iArchitecture
Entity
p57
(dp58
g11
(lp59
sg13
S'android.util.apk.ApkSignatureSchemeV2Verifier'
p60
sg15
(lp61
sg17
(lp62
sg19
(lp63
sg21
I0
sba(iArchitecture
Entity
p64
(dp65
g11
(lp66
sg13
S'android.util.apk.ApkSignatureSchemeV2Verifier$ByteBufferDataSource'
p67
sg15
(lp68
sg17
(lp69
sg19
(lp70
sg21
I0
sba(iArchitecture
Entity
p71
(dp72
g11
(lp73
sg13
S'android.util.apk.ApkSignatureSchemeV2Verifier$DataSource'
p74
sg15
(lp75
sg17
(lp76
sg19
(lp77
sg21
I0
sba(iArchitecture
Entity
p78
(dp79
g11
(lp80
sg13
S'android.util.apk.ApkSignatureSchemeV2Verifier$MemoryMappedFileDataSource'
p81
sg15
(lp82
sg17
(lp83
sg19
(lp84
sg21
I0
sba(iArchitecture
Entity
p85
(dp86
g11
(lp87
sg13
S'android.util.apk.ApkSignatureSchemeV2Verifier$SignatureInfo'
p88
sg15
(lp89
sg17
(lp90
sg19
(lp91
sg21
I0
sba(iArchitecture
Entity
p92
(dp93
g11
(lp94
sg13
S'android.util.apk.ApkSignatureSchemeV2Verifier$SignatureNotFoundException'
p95
sg15
(lp96
sg17
(lp97
sg19
(lp98
sg21
I0
sba(iArchitecture
Entity
p99
(dp100
g11
(lp101
sg13
S'android.util.apk.ApkSignatureSchemeV2Verifier$VerbatimX509Certificate'
p102
sg15
(lp103
sg17
(lp104
sg19
(lp105
sg21
I0
sba(iArchitecture
Entity
p106
(dp107
g11
(lp108
sg13
S'android.util.apk.ApkSignatureSchemeV2Verifier$WrappedX509Certificate'
p109
sg15
(lp110
sg17
(lp111
sg19
(lp112
sg21
I0
sbasg50
(lp113
g60
ag67
ag74
ag81
ag88
ag95
ag102
ag109
asg21
I0
sg52
S'1163'
p114
sba(iArchitecture
Cluster
p115
(dp116
g7
(lp117
(iArchitecture
Entity
p118
(dp119
g11
(lp120
sg13
S'android.app.ActivityThread'
p121
sg15
(lp122
sg17
(lp123
sg19
(lp124
sg21
I0
sba(iArchitecture
Entity
p125
(dp126
g11
(lp127
sg13
S'android.app.ActivityThread$1'
p128
sg15
(lp129
sg17
(lp130
sg19
(lp131
sg21
I0
sba(iArchitecture
Entity
p132
(dp133
g11
(lp134
sg13
S'android.app.ActivityThread$2'
p135
sg15
(lp136
sg17
(lp137
sg19
(lp138
sg21
I0
sba(iArchitecture
Entity
p139
(dp140
g11
(lp141
sg13
S'android.app.ActivityThread$3'
p142
sg15
(lp143
sg17
(lp144
sg19
(lp145
sg21
I0
sba(iArchitecture
Entity
p146
(dp147
g11
(lp148
sg13
S'android.app.ActivityThread$ActivityClientRecord'
p149
sg15
(lp150
sg17
(lp151
sg19
(lp152
sg21
I0
sba(iArchitecture
Entity
p153
(dp154
g11
(lp155
sg13
S'android.app.ActivityThread$ActivityConfigChangeData'
p156
sg15
(lp157
sg17
(lp158
sg19
(lp159
sg21
I0
sba(iArchitecture
Entity
p160
(dp161
g11
(lp162
sg13
S'android.app.ActivityThread$AppBindData'
p163
sg15
(lp164
sg17
(lp165
sg19
(lp166
sg21
I0
sba(iArchitecture
Entity
p167
(dp168
g11
(lp169
sg13
S'android.app.ActivityThread$ApplicationThread'
p170
sg15
(lp171
sg17
(lp172
sg19
(lp173
sg21
I0
sba(iArchitecture
Entity
p174
(dp175
g11
(lp176
sg13
S'android.app.ActivityThread$ApplicationThread$1'
p177
sg15
(lp178
sg17
(lp179
sg19
(lp180
sg21
I0
sba(iArchitecture
Entity
p181
(dp182
g11
(lp183
sg13
S'android.app.ActivityThread$BindServiceData'
p184
sg15
(lp185
sg17
(lp186
sg19
(lp187
sg21
I0
sba(iArchitecture
Entity
p188
(dp189
g11
(lp190
sg13
S'android.app.ActivityThread$ContextCleanupInfo'
p191
sg15
(lp192
sg17
(lp193
sg19
(lp194
sg21
I0
sba(iArchitecture
Entity
p195
(dp196
g11
(lp197
sg13
S'android.app.ActivityThread$CreateBackupAgentData'
p198
sg15
(lp199
sg17
(lp200
sg19
(lp201
sg21
I0
sba(iArchitecture
Entity
p202
(dp203
g11
(lp204
sg13
S'android.app.ActivityThread$CreateServiceData'
p205
sg15
(lp206
sg17
(lp207
sg19
(lp208
sg21
I0
sba(iArchitecture
Entity
p209
(dp210
g11
(lp211
sg13
S'android.app.ActivityThread$DropBoxReporter'
p212
sg15
(lp213
sg17
(lp214
sg19
(lp215
sg21
I0
sba(iArchitecture
Entity
p216
(dp217
g11
(lp218
sg13
S'android.app.ActivityThread$DumpComponentInfo'
p219
sg15
(lp220
sg17
(lp221
sg19
(lp222
sg21
I0
sba(iArchitecture
Entity
p223
(dp224
g11
(lp225
sg13
S'android.app.ActivityThread$DumpHeapData'
p226
sg15
(lp227
sg17
(lp228
sg19
(lp229
sg21
I0
sba(iArchitecture
Entity
p230
(dp231
g11
(lp232
sg13
S'android.app.ActivityThread$EventLoggingReporter'
p233
sg15
(lp234
sg17
(lp235
sg19
(lp236
sg21
I0
sba(iArchitecture
Entity
p237
(dp238
g11
(lp239
sg13
S'android.app.ActivityThread$GcIdler'
p240
sg15
(lp241
sg17
(lp242
sg19
(lp243
sg21
I0
sba(iArchitecture
Entity
p244
(dp245
g11
(lp246
sg13
S'android.app.ActivityThread$H'
p247
sg15
(lp248
sg17
(lp249
sg19
(lp250
sg21
I0
sba(iArchitecture
Entity
p251
(dp252
g11
(lp253
sg13
S'android.app.ActivityThread$Idler'
p254
sg15
(lp255
sg17
(lp256
sg19
(lp257
sg21
I0
sba(iArchitecture
Entity
p258
(dp259
g11
(lp260
sg13
S'android.app.ActivityThread$NewIntentData'
p261
sg15
(lp262
sg17
(lp263
sg19
(lp264
sg21
I0
sba(iArchitecture
Entity
p265
(dp266
g11
(lp267
sg13
S'android.app.ActivityThread$Profiler'
p268
sg15
(lp269
sg17
(lp270
sg19
(lp271
sg21
I0
sba(iArchitecture
Entity
p272
(dp273
g11
(lp274
sg13
S'android.app.ActivityThread$ProviderClientRecord'
p275
sg15
(lp276
sg17
(lp277
sg19
(lp278
sg21
I0
sba(iArchitecture
Entity
p279
(dp280
g11
(lp281
sg13
S'android.app.ActivityThread$ProviderKey'
p282
sg15
(lp283
sg17
(lp284
sg19
(lp285
sg21
I0
sba(iArchitecture
Entity
p286
(dp287
g11
(lp288
sg13
S'android.app.ActivityThread$ProviderRefCount'
p289
sg15
(lp290
sg17
(lp291
sg19
(lp292
sg21
I0
sba(iArchitecture
Entity
p293
(dp294
g11
(lp295
sg13
S'android.app.ActivityThread$ReceiverData'
p296
sg15
(lp297
sg17
(lp298
sg19
(lp299
sg21
I0
sba(iArchitecture
Entity
p300
(dp301
g11
(lp302
sg13
S'android.app.ActivityThread$RequestAssistContextExtras'
p303
sg15
(lp304
sg17
(lp305
sg19
(lp306
sg21
I0
sba(iArchitecture
Entity
p307
(dp308
g11
(lp309
sg13
S'android.app.ActivityThread$ResultData'
p310
sg15
(lp311
sg17
(lp312
sg19
(lp313
sg21
I0
sba(iArchitecture
Entity
p314
(dp315
g11
(lp316
sg13
S'android.app.ActivityThread$ServiceArgsData'
p317
sg15
(lp318
sg17
(lp319
sg19
(lp320
sg21
I0
sba(iArchitecture
Entity
p321
(dp322
g11
(lp323
sg13
S'android.app.ActivityThread$StopInfo'
p324
sg15
(lp325
sg17
(lp326
sg19
(lp327
sg21
I0
sba(iArchitecture
Entity
p328
(dp329
g11
(lp330
sg13
S'android.app.ActivityThread$UpdateCompatibilityData'
p331
sg15
(lp332
sg17
(lp333
sg19
(lp334
sg21
I0
sba(iArchitecture
Entity
p335
(dp336
g11
(lp337
sg13
S'com.android.server.am.ActivityRecord'
p338
sg15
(lp339
sg17
(lp340
sg19
(lp341
sg21
I0
sba(iArchitecture
Entity
p342
(dp343
g11
(lp344
sg13
S'com.android.server.am.ActivityRecord$Token'
p345
sg15
(lp346
sg17
(lp347
sg19
(lp348
sg21
I0
sba(iArchitecture
Entity
p349
(dp350
g11
(lp351
sg13
S'com.android.server.am.ActivityStack'
p352
sg15
(lp353
sg17
(lp354
sg19
(lp355
sg21
I0
sba(iArchitecture
Entity
p356
(dp357
g11
(lp358
sg13
S'com.android.server.am.ActivityStack$ActivityStackHandler'
p359
sg15
(lp360
sg17
(lp361
sg19
(lp362
sg21
I0
sba(iArchitecture
Entity
p363
(dp364
g11
(lp365
sg13
S'com.android.server.am.ActivityStack$ActivityState'
p366
sg15
(lp367
sg17
(lp368
sg19
(lp369
sg21
I0
sba(iArchitecture
Entity
p370
(dp371
g11
(lp372
sg13
S'com.android.server.am.ActivityStack$ScheduleDestroyArgs'
p373
sg15
(lp374
sg17
(lp375
sg19
(lp376
sg21
I0
sba(iArchitecture
Entity
p377
(dp378
g11
(lp379
sg13
S'com.android.server.am.ActivityStarter'
p380
sg15
(lp381
sg17
(lp382
sg19
(lp383
sg21
I0
sba(iArchitecture
Entity
p384
(dp385
g11
(lp386
sg13
S'com.android.server.am.TaskRecord'
p387
sg15
(lp388
sg17
(lp389
sg19
(lp390
sg21
I0
sbasg50
(lp391
g121
ag128
ag135
ag142
ag149
ag156
ag163
ag170
ag177
ag184
ag191
ag198
ag205
ag212
ag219
ag226
ag233
ag240
ag247
ag254
ag261
ag268
ag275
ag282
ag289
ag296
ag303
ag310
ag317
ag324
ag331
ag338
ag345
ag352
ag359
ag366
ag373
ag380
ag387
asg21
I0
sg52
S'1263'
p392
sba(iArchitecture
Cluster
p393
(dp394
g7
(lp395
(iArchitecture
Entity
p396
(dp397
g11
(lp398
sg13
S'android.database.MergeCursor'
p399
sg15
(lp400
sg17
(lp401
sg19
(lp402
sg21
I0
sba(iArchitecture
Entity
p403
(dp404
g11
(lp405
sg13
S'android.database.MergeCursor$1'
p406
sg15
(lp407
sg17
(lp408
sg19
(lp409
sg21
I0
sba(iArchitecture
Entity
p410
(dp411
g11
(lp412
sg13
S'com.android.internal.database.SortCursor'
p413
sg15
(lp414
sg17
(lp415
sg19
(lp416
sg21
I0
sba(iArchitecture
Entity
p417
(dp418
g11
(lp419
sg13
S'com.android.internal.database.SortCursor$1'
p420
sg15
(lp421
sg17
(lp422
sg19
(lp423
sg21
I0
sba(iArchitecture
Entity
p424
(dp425
g11
(lp426
sg13
S'com.android.internal.logging.MetricsLogger'
p427
sg15
(lp428
sg17
(lp429
sg19
(lp430
sg21
I0
sbasg50
(lp431
g399
ag406
ag413
ag420
ag427
asg21
I0
sg52
S'1363'
p432
sba(iArchitecture
Cluster
p433
(dp434
g7
(lp435
(iArchitecture
Entity
p436
(dp437
g11
(lp438
sg13
S'android.text.format.DateUtils'
p439
sg15
(lp440
sg17
(lp441
sg19
(lp442
sg21
I0
sbasg50
(lp443
g439
asg21
I0
sg52
S'163'
p444
sba(iArchitecture
Cluster
p445
(dp446
g7
(lp447
(iArchitecture
Entity
p448
(dp449
g11
(lp450
sg13
S'android.provider.ContactsInternal'
p451
sg15
(lp452
sg17
(lp453
sg19
(lp454
sg21
I0
sbasg50
(lp455
g451
asg21
I0
sg52
S'263'
p456
sba(iArchitecture
Cluster
p457
(dp458
g7
(lp459
(iArchitecture
Entity
p460
(dp461
g11
(lp462
sg13
S'com.android.server.job.controllers.JobStatus'
p463
sg15
(lp464
sg17
(lp465
sg19
(lp466
sg21
I0
sbasg50
(lp467
g463
asg21
I0
sg52
S'363'
p468
sba(iArchitecture
Cluster
p469
(dp470
g7
(lp471
(iArchitecture
Entity
p472
(dp473
g11
(lp474
sg13
S'com.android.server.am.ActivityStartInterceptor'
p475
sg15
(lp476
sg17
(lp477
sg19
(lp478
sg21
I0
sbasg50
(lp479
g475
asg21
I0
sg52
S'463'
p480
sba(iArchitecture
Cluster
p481
(dp482
g7
(lp483
(iArchitecture
Entity
p484
(dp485
g11
(lp486
sg13
S'android.net.WifiKey'
p487
sg15
(lp488
sg17
(lp489
sg19
(lp490
sg21
I0
sba(iArchitecture
Entity
p491
(dp492
g11
(lp493
sg13
S'android.net.WifiKey$1'
p494
sg15
(lp495
sg17
(lp496
sg19
(lp497
sg21
I0
sbasg50
(lp498
g487
ag494
asg21
I0
sg52
S'563'
p499
sba(iArchitecture
Cluster
p500
(dp501
g7
(lp502
(iArchitecture
Entity
p503
(dp504
g11
(lp505
sg13
S'android.filterfw.core.Filter'
p506
sg15
(lp507
sg17
(lp508
sg19
(lp509
sg21
I0
sbasg50
(lp510
g506
asg21
I0
sg52
S'63'
p511
sba(iArchitecture
Cluster
p512
(dp513
g7
(lp514
(iArchitecture
Entity
p515
(dp516
g11
(lp517
sg13
S'android.hardware.hdmi.HdmiRecordListener'
p518
sg15
(lp519
sg17
(lp520
sg19
(lp521
sg21
I0
sba(iArchitecture
Entity
p522
(dp523
g11
(lp524
sg13
S'android.hardware.hdmi.HdmiRecordListener$TimerStatusData'
p525
sg15
(lp526
sg17
(lp527
sg19
(lp528
sg21
I0
sbasg50
(lp529
g518
ag525
asg21
I0
sg52
S'630'
p530
sba(iArchitecture
Cluster
p531
(dp532
g7
(lp533
(iArchitecture
Entity
p534
(dp535
g11
(lp536
sg13
S'android.hardware.usb.UsbEndpoint'
p537
sg15
(lp538
sg17
(lp539
sg19
(lp540
sg21
I0
sba(iArchitecture
Entity
p541
(dp542
g11
(lp543
sg13
S'android.hardware.usb.UsbEndpoint$1'
p544
sg15
(lp545
sg17
(lp546
sg19
(lp547
sg21
I0
sbasg50
(lp548
g537
ag544
asg21
I0
sg52
S'631'
p549
sba(iArchitecture
Cluster
p550
(dp551
g7
(lp552
(iArchitecture
Entity
p553
(dp554
g11
(lp555
sg13
S'com.android.server.connectivity.KeepalivePacketData'
p556
sg15
(lp557
sg17
(lp558
sg19
(lp559
sg21
I0
sba(iArchitecture
Entity
p560
(dp561
g11
(lp562
sg13
S'com.android.server.connectivity.KeepalivePacketData$InvalidPacketException'
p563
sg15
(lp564
sg17
(lp565
sg19
(lp566
sg21
I0
sbasg50
(lp567
g556
ag563
asg21
I0
sg52
S'632'
p568
sba(iArchitecture
Cluster
p569
(dp570
g7
(lp571
(iArchitecture
Entity
p572
(dp573
g11
(lp574
sg13
S'android.animation.BidirectionalTypeConverter'
p575
sg15
(lp576
sg17
(lp577
sg19
(lp578
sg21
I0
sba(iArchitecture
Entity
p579
(dp580
g11
(lp581
sg13
S'android.animation.BidirectionalTypeConverter$InvertedConverter'
p582
sg15
(lp583
sg17
(lp584
sg19
(lp585
sg21
I0
sbasg50
(lp586
g575
ag582
asg21
I0
sg52
S'633'
p587
sba(iArchitecture
Cluster
p588
(dp589
g7
(lp590
(iArchitecture
Entity
p591
(dp592
g11
(lp593
sg13
S'android.media.AudioRecordingConfiguration'
p594
sg15
(lp595
sg17
(lp596
sg19
(lp597
sg21
I0
sba(iArchitecture
Entity
p598
(dp599
g11
(lp600
sg13
S'android.media.AudioRecordingConfiguration$1'
p601
sg15
(lp602
sg17
(lp603
sg19
(lp604
sg21
I0
sbasg50
(lp605
g594
ag601
asg21
I0
sg52
S'634'
p606
sba(iArchitecture
Cluster
p607
(dp608
g7
(lp609
(iArchitecture
Entity
p610
(dp611
g11
(lp612
sg13
S'com.android.server.wm.KeyguardDisableHandler'
p613
sg15
(lp614
sg17
(lp615
sg19
(lp616
sg21
I0
sba(iArchitecture
Entity
p617
(dp618
g11
(lp619
sg13
S'com.android.server.wm.KeyguardDisableHandler$KeyguardTokenWatcher'
p620
sg15
(lp621
sg17
(lp622
sg19
(lp623
sg21
I0
sbasg50
(lp624
g613
ag620
asg21
I0
sg52
S'635'
p625
sba(iArchitecture
Cluster
p626
(dp627
g7
(lp628
(iArchitecture
Entity
p629
(dp630
g11
(lp631
sg13
S'android.net.wifi.p2p.WifiP2pDevice'
p632
sg15
(lp633
sg17
(lp634
sg19
(lp635
sg21
I0
sba(iArchitecture
Entity
p636
(dp637
g11
(lp638
sg13
S'android.net.wifi.p2p.WifiP2pDevice$1'
p639
sg15
(lp640
sg17
(lp641
sg19
(lp642
sg21
I0
sbasg50
(lp643
g632
ag639
asg21
I0
sg52
S'636'
p644
sba(iArchitecture
Cluster
p645
(dp646
g7
(lp647
(iArchitecture
Entity
p648
(dp649
g11
(lp650
sg13
S'android.media.FaceDetector'
p651
sg15
(lp652
sg17
(lp653
sg19
(lp654
sg21
I0
sba(iArchitecture
Entity
p655
(dp656
g11
(lp657
sg13
S'android.media.FaceDetector$Face'
p658
sg15
(lp659
sg17
(lp660
sg19
(lp661
sg21
I0
sbasg50
(lp662
g651
ag658
asg21
I0
sg52
S'637'
p663
sba(iArchitecture
Cluster
p664
(dp665
g7
(lp666
(iArchitecture
Entity
p667
(dp668
g11
(lp669
sg13
S'android.appwidget.AppWidgetProviderInfo'
p670
sg15
(lp671
sg17
(lp672
sg19
(lp673
sg21
I0
sba(iArchitecture
Entity
p674
(dp675
g11
(lp676
sg13
S'android.appwidget.AppWidgetProviderInfo$1'
p677
sg15
(lp678
sg17
(lp679
sg19
(lp680
sg21
I0
sbasg50
(lp681
g670
ag677
asg21
I0
sg52
S'638'
p682
sba(iArchitecture
Cluster
p683
(dp684
g7
(lp685
(iArchitecture
Entity
p686
(dp687
g11
(lp688
sg13
S'com.android.internal.alsa.AlsaDevicesParser'
p689
sg15
(lp690
sg17
(lp691
sg19
(lp692
sg21
I0
sba(iArchitecture
Entity
p693
(dp694
g11
(lp695
sg13
S'com.android.internal.alsa.AlsaDevicesParser$AlsaDeviceRecord'
p696
sg15
(lp697
sg17
(lp698
sg19
(lp699
sg21
I0
sbasg50
(lp700
g689
ag696
asg21
I0
sg52
S'639'
p701
sba(iArchitecture
Cluster
p702
(dp703
g7
(lp704
(iArchitecture
Entity
p705
(dp706
g11
(lp707
sg13
S'android.app.admin.SystemUpdatePolicy'
p708
sg15
(lp709
sg17
(lp710
sg19
(lp711
sg21
I0
sba(iArchitecture
Entity
p712
(dp713
g11
(lp714
sg13
S'android.app.admin.SystemUpdatePolicy$1'
p715
sg15
(lp716
sg17
(lp717
sg19
(lp718
sg21
I0
sbasg50
(lp719
g708
ag715
asg21
I0
sg52
S'663'
p720
sba(iArchitecture
Cluster
p721
(dp722
g7
(lp723
(iArchitecture
Entity
p724
(dp725
g11
(lp726
sg13
S'android.bluetooth.le.ScanResult'
p727
sg15
(lp728
sg17
(lp729
sg19
(lp730
sg21
I0
sba(iArchitecture
Entity
p731
(dp732
g11
(lp733
sg13
S'android.bluetooth.le.ScanResult$1'
p734
sg15
(lp735
sg17
(lp736
sg19
(lp737
sg21
I0
sbasg50
(lp738
g727
ag734
asg21
I0
sg52
S'763'
p739
sba(iArchitecture
Cluster
p740
(dp741
g7
(lp742
(iArchitecture
Entity
p743
(dp744
g11
(lp745
sg13
S'android.graphics.drawable.ShapeDrawable'
p746
sg15
(lp747
sg17
(lp748
sg19
(lp749
sg21
I0
sba(iArchitecture
Entity
p750
(dp751
g11
(lp752
sg13
S'android.graphics.drawable.ShapeDrawable$ShaderFactory'
p753
sg15
(lp754
sg17
(lp755
sg19
(lp756
sg21
I0
sba(iArchitecture
Entity
p757
(dp758
g11
(lp759
sg13
S'android.graphics.drawable.ShapeDrawable$ShapeState'
p760
sg15
(lp761
sg17
(lp762
sg19
(lp763
sg21
I0
sbasg50
(lp764
g746
ag753
ag760
asg21
I0
sg52
S'863'
p765
sba(iArchitecture
Cluster
p766
(dp767
g7
(lp768
(iArchitecture
Entity
p769
(dp770
g11
(lp771
sg13
S'android.net.wifi.WpsResult'
p772
sg15
(lp773
sg17
(lp774
sg19
(lp775
sg21
I0
sba(iArchitecture
Entity
p776
(dp777
g11
(lp778
sg13
S'android.net.wifi.WpsResult$1'
p779
sg15
(lp780
sg17
(lp781
sg19
(lp782
sg21
I0
sba(iArchitecture
Entity
p783
(dp784
g11
(lp785
sg13
S'android.net.wifi.WpsResult$Status'
p786
sg15
(lp787
sg17
(lp788
sg19
(lp789
sg21
I0
sbasg50
(lp790
g772
ag779
ag786
asg21
I0
sg52
S'963'
p791
sbasS'target_sub'
p792
S'63'
p793
sg50
(lp794
sS'is_component_arch'
p795
I01
sg52
S'7.0.0_r1'
p796
sba.