(lp0
(iArchitecture
Architecture
p1
(dp2
S'clusters'
p3
(lp4
(iArchitecture
Cluster
p5
(dp6
S'entities'
p7
(lp8
(iArchitecture
Entity
p9
(dp10
S'issue_ids'
p11
(lp12
sS'name'
p13
S'android.media.RemoteDisplay'
p14
sS'descs'
p15
(lp16
sS'labels'
p17
(lp18
sS'titles'
p19
(lp20
sS'change'
p21
I0
sba(iArchitecture
Entity
p22
(dp23
g11
(lp24
sg13
S'android.media.RemoteDisplay$1'
p25
sg15
(lp26
sg17
(lp27
sg19
(lp28
sg21
I0
sba(iArchitecture
Entity
p29
(dp30
g11
(lp31
sg13
S'android.media.RemoteDisplay$2'
p32
sg15
(lp33
sg17
(lp34
sg19
(lp35
sg21
I0
sba(iArchitecture
Entity
p36
(dp37
g11
(lp38
sg13
S'android.media.RemoteDisplay$3'
p39
sg15
(lp40
sg17
(lp41
sg19
(lp42
sg21
I0
sba(iArchitecture
Entity
p43
(dp44
g11
(lp45
sg13
S'android.media.RemoteDisplay$Listener'
p46
sg15
(lp47
sg17
(lp48
sg19
(lp49
sg21
I0
sbasS'classes'
p50
(lp51
g14
ag25
ag32
ag39
ag46
asg21
I0
sS'label'
p52
S'1092'
p53
sba(iArchitecture
Cluster
p54
(dp55
g7
(lp56
(iArchitecture
Entity
p57
(dp58
g11
(lp59
sg13
S'com.android.server.VibratorService'
p60
sg15
(lp61
sg17
(lp62
sg19
(lp63
sg21
I0
sba(iArchitecture
Entity
p64
(dp65
g11
(lp66
sg13
S'com.android.server.VibratorService$1'
p67
sg15
(lp68
sg17
(lp69
sg19
(lp70
sg21
I0
sba(iArchitecture
Entity
p71
(dp72
g11
(lp73
sg13
S'com.android.server.VibratorService$2'
p74
sg15
(lp75
sg17
(lp76
sg19
(lp77
sg21
I0
sba(iArchitecture
Entity
p78
(dp79
g11
(lp80
sg13
S'com.android.server.VibratorService$3'
p81
sg15
(lp82
sg17
(lp83
sg19
(lp84
sg21
I0
sba(iArchitecture
Entity
p85
(dp86
g11
(lp87
sg13
S'com.android.server.VibratorService$4'
p88
sg15
(lp89
sg17
(lp90
sg19
(lp91
sg21
I0
sba(iArchitecture
Entity
p92
(dp93
g11
(lp94
sg13
S'com.android.server.VibratorService$SettingsObserver'
p95
sg15
(lp96
sg17
(lp97
sg19
(lp98
sg21
I0
sba(iArchitecture
Entity
p99
(dp100
g11
(lp101
sg13
S'com.android.server.VibratorService$VibrateThread'
p102
sg15
(lp103
sg17
(lp104
sg19
(lp105
sg21
I0
sba(iArchitecture
Entity
p106
(dp107
g11
(lp108
sg13
S'com.android.server.VibratorService$Vibration'
p109
sg15
(lp110
sg17
(lp111
sg19
(lp112
sg21
I0
sba(iArchitecture
Entity
p113
(dp114
g11
(lp115
sg13
S'com.android.server.VibratorService$VibrationInfo'
p116
sg15
(lp117
sg17
(lp118
sg19
(lp119
sg21
I0
sbasg50
(lp120
g60
ag67
ag74
ag81
ag88
ag95
ag102
ag109
ag116
asg21
I0
sg52
S'1192'
p121
sba(iArchitecture
Cluster
p122
(dp123
g7
(lp124
(iArchitecture
Entity
p125
(dp126
g11
(lp127
sg13
S'junit.framework.TestCase'
p128
sg15
(lp129
sg17
(lp130
sg19
(lp131
sg21
I0
sba(iArchitecture
Entity
p132
(dp133
g11
(lp134
sg13
S'junit.framework.TestSuite'
p135
sg15
(lp136
sg17
(lp137
sg19
(lp138
sg21
I0
sbasg50
(lp139
g128
ag135
asg21
I0
sg52
S'1292'
p140
sba(iArchitecture
Cluster
p141
(dp142
g7
(lp143
(iArchitecture
Entity
p144
(dp145
g11
(lp146
sg13
S'android.os.UserManager'
p147
sg15
(lp148
sg17
(lp149
sg19
(lp150
sg21
I0
sba(iArchitecture
Entity
p151
(dp152
g11
(lp153
sg13
S'com.android.server.am.UserController'
p154
sg15
(lp155
sg17
(lp156
sg19
(lp157
sg21
I0
sba(iArchitecture
Entity
p158
(dp159
g11
(lp160
sg13
S'com.android.server.am.UserController$1'
p161
sg15
(lp162
sg17
(lp163
sg19
(lp164
sg21
I0
sba(iArchitecture
Entity
p165
(dp166
g11
(lp167
sg13
S'com.android.server.am.UserController$2'
p168
sg15
(lp169
sg17
(lp170
sg19
(lp171
sg21
I0
sba(iArchitecture
Entity
p172
(dp173
g11
(lp174
sg13
S'com.android.server.am.UserController$3'
p175
sg15
(lp176
sg17
(lp177
sg19
(lp178
sg21
I0
sba(iArchitecture
Entity
p179
(dp180
g11
(lp181
sg13
S'com.android.server.am.UserController$4'
p182
sg15
(lp183
sg17
(lp184
sg19
(lp185
sg21
I0
sba(iArchitecture
Entity
p186
(dp187
g11
(lp188
sg13
S'com.android.server.am.UserController$4$1'
p189
sg15
(lp190
sg17
(lp191
sg19
(lp192
sg21
I0
sba(iArchitecture
Entity
p193
(dp194
g11
(lp195
sg13
S'com.android.server.am.UserController$5'
p196
sg15
(lp197
sg17
(lp198
sg19
(lp199
sg21
I0
sba(iArchitecture
Entity
p200
(dp201
g11
(lp202
sg13
S'com.android.server.am.UserController$5$1'
p203
sg15
(lp204
sg17
(lp205
sg19
(lp206
sg21
I0
sba(iArchitecture
Entity
p207
(dp208
g11
(lp209
sg13
S'com.android.server.am.UserController$6'
p210
sg15
(lp211
sg17
(lp212
sg19
(lp213
sg21
I0
sba(iArchitecture
Entity
p214
(dp215
g11
(lp216
sg13
S'com.android.server.am.UserController$7'
p217
sg15
(lp218
sg17
(lp219
sg19
(lp220
sg21
I0
sba(iArchitecture
Entity
p221
(dp222
g11
(lp223
sg13
S'com.android.server.pm.UserManagerService'
p224
sg15
(lp225
sg17
(lp226
sg19
(lp227
sg21
I0
sba(iArchitecture
Entity
p228
(dp229
g11
(lp230
sg13
S'com.android.server.pm.UserManagerService$1'
p231
sg15
(lp232
sg17
(lp233
sg19
(lp234
sg21
I0
sba(iArchitecture
Entity
p235
(dp236
g11
(lp237
sg13
S'com.android.server.pm.UserManagerService$2'
p238
sg15
(lp239
sg17
(lp240
sg19
(lp241
sg21
I0
sba(iArchitecture
Entity
p242
(dp243
g11
(lp244
sg13
S'com.android.server.pm.UserManagerService$3'
p245
sg15
(lp246
sg17
(lp247
sg19
(lp248
sg21
I0
sba(iArchitecture
Entity
p249
(dp250
g11
(lp251
sg13
S'com.android.server.pm.UserManagerService$4'
p252
sg15
(lp253
sg17
(lp254
sg19
(lp255
sg21
I0
sba(iArchitecture
Entity
p256
(dp257
g11
(lp258
sg13
S'com.android.server.pm.UserManagerService$5'
p259
sg15
(lp260
sg17
(lp261
sg19
(lp262
sg21
I0
sba(iArchitecture
Entity
p263
(dp264
g11
(lp265
sg13
S'com.android.server.pm.UserManagerService$6'
p266
sg15
(lp267
sg17
(lp268
sg19
(lp269
sg21
I0
sba(iArchitecture
Entity
p270
(dp271
g11
(lp272
sg13
S'com.android.server.pm.UserManagerService$6$1'
p273
sg15
(lp274
sg17
(lp275
sg19
(lp276
sg21
I0
sba(iArchitecture
Entity
p277
(dp278
g11
(lp279
sg13
S'com.android.server.pm.UserManagerService$LifeCycle'
p280
sg15
(lp281
sg17
(lp282
sg19
(lp283
sg21
I0
sba(iArchitecture
Entity
p284
(dp285
g11
(lp286
sg13
S'com.android.server.pm.UserManagerService$LocalService'
p287
sg15
(lp288
sg17
(lp289
sg19
(lp290
sg21
I0
sba(iArchitecture
Entity
p291
(dp292
g11
(lp293
sg13
S'com.android.server.pm.UserManagerService$LocalService$1'
p294
sg15
(lp295
sg17
(lp296
sg19
(lp297
sg21
I0
sba(iArchitecture
Entity
p298
(dp299
g11
(lp300
sg13
S'com.android.server.pm.UserManagerService$MainHandler'
p301
sg15
(lp302
sg17
(lp303
sg19
(lp304
sg21
I0
sba(iArchitecture
Entity
p305
(dp306
g11
(lp307
sg13
S'com.android.server.pm.UserManagerService$Shell'
p308
sg15
(lp309
sg17
(lp310
sg19
(lp311
sg21
I0
sba(iArchitecture
Entity
p312
(dp313
g11
(lp314
sg13
S'com.android.server.pm.UserManagerService$UserData'
p315
sg15
(lp316
sg17
(lp317
sg19
(lp318
sg21
I0
sbasg50
(lp319
g147
ag154
ag161
ag168
ag175
ag182
ag189
ag196
ag203
ag210
ag217
ag224
ag231
ag238
ag245
ag252
ag259
ag266
ag273
ag280
ag287
ag294
ag301
ag308
ag315
asg21
I0
sg52
S'1392'
p320
sba(iArchitecture
Cluster
p321
(dp322
g7
(lp323
(iArchitecture
Entity
p324
(dp325
g11
(lp326
sg13
S'com.android.server.connectivity.Nat464Xlat'
p327
sg15
(lp328
sg17
(lp329
sg19
(lp330
sg21
I0
sbasg50
(lp331
g327
asg21
I0
sg52
S'192'
p332
sba(iArchitecture
Cluster
p333
(dp334
g7
(lp335
(iArchitecture
Entity
p336
(dp337
g11
(lp338
sg13
S'android.text.style.ImageSpan'
p339
sg15
(lp340
sg17
(lp341
sg19
(lp342
sg21
I0
sbasg50
(lp343
g339
asg21
I0
sg52
S'292'
p344
sba(iArchitecture
Cluster
p345
(dp346
g7
(lp347
(iArchitecture
Entity
p348
(dp349
g11
(lp350
sg13
S'com.android.server.pm.OtaDexoptShellCommand'
p351
sg15
(lp352
sg17
(lp353
sg19
(lp354
sg21
I0
sbasg50
(lp355
g351
asg21
I0
sg52
S'392'
p356
sba(iArchitecture
Cluster
p357
(dp358
g7
(lp359
(iArchitecture
Entity
p360
(dp361
g11
(lp362
sg13
S'android.hardware.location.ContextHubInfo'
p363
sg15
(lp364
sg17
(lp365
sg19
(lp366
sg21
I0
sba(iArchitecture
Entity
p367
(dp368
g11
(lp369
sg13
S'android.hardware.location.ContextHubInfo$1'
p370
sg15
(lp371
sg17
(lp372
sg19
(lp373
sg21
I0
sbasg50
(lp374
g363
ag370
asg21
I0
sg52
S'492'
p375
sba(iArchitecture
Cluster
p376
(dp377
g7
(lp378
(iArchitecture
Entity
p379
(dp380
g11
(lp381
sg13
S'com.android.server.hdmi.HdmiCecKeycode'
p382
sg15
(lp383
sg17
(lp384
sg19
(lp385
sg21
I0
sba(iArchitecture
Entity
p386
(dp387
g11
(lp388
sg13
S'com.android.server.hdmi.HdmiCecKeycode$KeycodeEntry'
p389
sg15
(lp390
sg17
(lp391
sg19
(lp392
sg21
I0
sbasg50
(lp393
g382
ag389
asg21
I0
sg52
S'592'
p394
sba(iArchitecture
Cluster
p395
(dp396
g7
(lp397
(iArchitecture
Entity
p398
(dp399
g11
(lp400
sg13
S'android.app.usage.NetworkStats'
p401
sg15
(lp402
sg17
(lp403
sg19
(lp404
sg21
I0
sba(iArchitecture
Entity
p405
(dp406
g11
(lp407
sg13
S'android.app.usage.NetworkStats$Bucket'
p408
sg15
(lp409
sg17
(lp410
sg19
(lp411
sg21
I0
sbasg50
(lp412
g401
ag408
asg21
I0
sg52
S'692'
p413
sba(iArchitecture
Cluster
p414
(dp415
g7
(lp416
(iArchitecture
Entity
p417
(dp418
g11
(lp419
sg13
S'com.android.internal.app.ResolverComparator'
p420
sg15
(lp421
sg17
(lp422
sg19
(lp423
sg21
I0
sba(iArchitecture
Entity
p424
(dp425
g11
(lp426
sg13
S'com.android.internal.app.ResolverComparator$ScoredTarget'
p427
sg15
(lp428
sg17
(lp429
sg19
(lp430
sg21
I0
sbasg50
(lp431
g420
ag427
asg21
I0
sg52
S'792'
p432
sba(iArchitecture
Cluster
p433
(dp434
g7
(lp435
(iArchitecture
Entity
p436
(dp437
g11
(lp438
sg13
S'android.app.RemoteInput'
p439
sg15
(lp440
sg17
(lp441
sg19
(lp442
sg21
I0
sba(iArchitecture
Entity
p443
(dp444
g11
(lp445
sg13
S'android.app.RemoteInput$1'
p446
sg15
(lp447
sg17
(lp448
sg19
(lp449
sg21
I0
sba(iArchitecture
Entity
p450
(dp451
g11
(lp452
sg13
S'android.app.RemoteInput$Builder'
p453
sg15
(lp454
sg17
(lp455
sg19
(lp456
sg21
I0
sbasg50
(lp457
g439
ag446
ag453
asg21
I0
sg52
S'892'
p458
sba(iArchitecture
Cluster
p459
(dp460
g7
(lp461
(iArchitecture
Entity
p462
(dp463
g11
(lp464
sg13
S'android.widget.MenuItemHoverListener'
p465
sg15
(lp466
sg17
(lp467
sg19
(lp468
sg21
I0
sbasg50
(lp469
g465
asg21
I0
sg52
S'92'
p470
sba(iArchitecture
Cluster
p471
(dp472
g7
(lp473
(iArchitecture
Entity
p474
(dp475
g11
(lp476
sg13
S'com.android.internal.os.HandlerCaller'
p477
sg15
(lp478
sg17
(lp479
sg19
(lp480
sg21
I0
sba(iArchitecture
Entity
p481
(dp482
g11
(lp483
sg13
S'com.android.internal.os.HandlerCaller$Callback'
p484
sg15
(lp485
sg17
(lp486
sg19
(lp487
sg21
I0
sba(iArchitecture
Entity
p488
(dp489
g11
(lp490
sg13
S'com.android.internal.os.HandlerCaller$MyHandler'
p491
sg15
(lp492
sg17
(lp493
sg19
(lp494
sg21
I0
sbasg50
(lp495
g477
ag484
ag491
asg21
I0
sg52
S'920'
p496
sba(iArchitecture
Cluster
p497
(dp498
g7
(lp499
(iArchitecture
Entity
p500
(dp501
g11
(lp502
sg13
S'android.hardware.camera2.utils.CloseableLock'
p503
sg15
(lp504
sg17
(lp505
sg19
(lp506
sg21
I0
sba(iArchitecture
Entity
p507
(dp508
g11
(lp509
sg13
S'android.hardware.camera2.utils.CloseableLock$1'
p510
sg15
(lp511
sg17
(lp512
sg19
(lp513
sg21
I0
sba(iArchitecture
Entity
p514
(dp515
g11
(lp516
sg13
S'android.hardware.camera2.utils.CloseableLock$ScopedLock'
p517
sg15
(lp518
sg17
(lp519
sg19
(lp520
sg21
I0
sbasg50
(lp521
g503
ag510
ag517
asg21
I0
sg52
S'921'
p522
sba(iArchitecture
Cluster
p523
(dp524
g7
(lp525
(iArchitecture
Entity
p526
(dp527
g11
(lp528
sg13
S'android.print.PrinterInfo'
p529
sg15
(lp530
sg17
(lp531
sg19
(lp532
sg21
I0
sba(iArchitecture
Entity
p533
(dp534
g11
(lp535
sg13
S'android.print.PrinterInfo$1'
p536
sg15
(lp537
sg17
(lp538
sg19
(lp539
sg21
I0
sba(iArchitecture
Entity
p540
(dp541
g11
(lp542
sg13
S'android.print.PrinterInfo$Builder'
p543
sg15
(lp544
sg17
(lp545
sg19
(lp546
sg21
I0
sbasg50
(lp547
g529
ag536
ag543
asg21
I0
sg52
S'922'
p548
sba(iArchitecture
Cluster
p549
(dp550
g7
(lp551
(iArchitecture
Entity
p552
(dp553
g11
(lp554
sg13
S'com.android.internal.view.IInputConnectionWrapper'
p555
sg15
(lp556
sg17
(lp557
sg19
(lp558
sg21
I0
sba(iArchitecture
Entity
p559
(dp560
g11
(lp561
sg13
S'com.android.internal.view.IInputConnectionWrapper$MyHandler'
p562
sg15
(lp563
sg17
(lp564
sg19
(lp565
sg21
I0
sba(iArchitecture
Entity
p566
(dp567
g11
(lp568
sg13
S'com.android.internal.view.IInputConnectionWrapper$SomeArgs'
p569
sg15
(lp570
sg17
(lp571
sg19
(lp572
sg21
I0
sbasg50
(lp573
g555
ag562
ag569
asg21
I0
sg52
S'923'
p574
sba(iArchitecture
Cluster
p575
(dp576
g7
(lp577
(iArchitecture
Entity
p578
(dp579
g11
(lp580
sg13
S'android.renderscript.Allocation'
p581
sg15
(lp582
sg17
(lp583
sg19
(lp584
sg21
I0
sba(iArchitecture
Entity
p585
(dp586
g11
(lp587
sg13
S'android.renderscript.Allocation$MipmapControl'
p588
sg15
(lp589
sg17
(lp590
sg19
(lp591
sg21
I0
sba(iArchitecture
Entity
p592
(dp593
g11
(lp594
sg13
S'android.renderscript.Allocation$OnBufferAvailableListener'
p595
sg15
(lp596
sg17
(lp597
sg19
(lp598
sg21
I0
sbasg50
(lp599
g581
ag588
ag595
asg21
I0
sg52
S'924'
p600
sba(iArchitecture
Cluster
p601
(dp602
g7
(lp603
(iArchitecture
Entity
p604
(dp605
g11
(lp606
sg13
S'android.bluetooth.le.ScanSettings'
p607
sg15
(lp608
sg17
(lp609
sg19
(lp610
sg21
I0
sba(iArchitecture
Entity
p611
(dp612
g11
(lp613
sg13
S'android.bluetooth.le.ScanSettings$1'
p614
sg15
(lp615
sg17
(lp616
sg19
(lp617
sg21
I0
sba(iArchitecture
Entity
p618
(dp619
g11
(lp620
sg13
S'android.bluetooth.le.ScanSettings$Builder'
p621
sg15
(lp622
sg17
(lp623
sg19
(lp624
sg21
I0
sbasg50
(lp625
g607
ag614
ag621
asg21
I0
sg52
S'925'
p626
sba(iArchitecture
Cluster
p627
(dp628
g7
(lp629
(iArchitecture
Entity
p630
(dp631
g11
(lp632
sg13
S'android.renderscript.Program'
p633
sg15
(lp634
sg17
(lp635
sg19
(lp636
sg21
I0
sba(iArchitecture
Entity
p637
(dp638
g11
(lp639
sg13
S'android.renderscript.Program$BaseProgramBuilder'
p640
sg15
(lp641
sg17
(lp642
sg19
(lp643
sg21
I0
sba(iArchitecture
Entity
p644
(dp645
g11
(lp646
sg13
S'android.renderscript.Program$ProgramParam'
p647
sg15
(lp648
sg17
(lp649
sg19
(lp650
sg21
I0
sba(iArchitecture
Entity
p651
(dp652
g11
(lp653
sg13
S'android.renderscript.Program$TextureType'
p654
sg15
(lp655
sg17
(lp656
sg19
(lp657
sg21
I0
sbasg50
(lp658
g633
ag640
ag647
ag654
asg21
I0
sg52
S'926'
p659
sba(iArchitecture
Cluster
p660
(dp661
g7
(lp662
(iArchitecture
Entity
p663
(dp664
g11
(lp665
sg13
S'com.android.internal.telephony.PhoneConstants'
p666
sg15
(lp667
sg17
(lp668
sg19
(lp669
sg21
I0
sba(iArchitecture
Entity
p670
(dp671
g11
(lp672
sg13
S'com.android.internal.telephony.PhoneConstants$CardUnavailableReason'
p673
sg15
(lp674
sg17
(lp675
sg19
(lp676
sg21
I0
sba(iArchitecture
Entity
p677
(dp678
g11
(lp679
sg13
S'com.android.internal.telephony.PhoneConstants$DataState'
p680
sg15
(lp681
sg17
(lp682
sg19
(lp683
sg21
I0
sba(iArchitecture
Entity
p684
(dp685
g11
(lp686
sg13
S'com.android.internal.telephony.PhoneConstants$State'
p687
sg15
(lp688
sg17
(lp689
sg19
(lp690
sg21
I0
sbasg50
(lp691
g666
ag673
ag680
ag687
asg21
I0
sg52
S'927'
p692
sba(iArchitecture
Cluster
p693
(dp694
g7
(lp695
(iArchitecture
Entity
p696
(dp697
g11
(lp698
sg13
S'android.service.vr.VrListenerService'
p699
sg15
(lp700
sg17
(lp701
sg19
(lp702
sg21
I0
sba(iArchitecture
Entity
p703
(dp704
g11
(lp705
sg13
S'android.service.vr.VrListenerService$1'
p706
sg15
(lp707
sg17
(lp708
sg19
(lp709
sg21
I0
sba(iArchitecture
Entity
p710
(dp711
g11
(lp712
sg13
S'android.service.vr.VrListenerService$VrListenerHandler'
p713
sg15
(lp714
sg17
(lp715
sg19
(lp716
sg21
I0
sbasg50
(lp717
g699
ag706
ag713
asg21
I0
sg52
S'928'
p718
sba(iArchitecture
Cluster
p719
(dp720
g7
(lp721
(iArchitecture
Entity
p722
(dp723
g11
(lp724
sg13
S'android.app.SharedElementCallback'
p725
sg15
(lp726
sg17
(lp727
sg19
(lp728
sg21
I0
sba(iArchitecture
Entity
p729
(dp730
g11
(lp731
sg13
S'android.app.SharedElementCallback$1'
p732
sg15
(lp733
sg17
(lp734
sg19
(lp735
sg21
I0
sba(iArchitecture
Entity
p736
(dp737
g11
(lp738
sg13
S'android.app.SharedElementCallback$OnSharedElementsReadyListener'
p739
sg15
(lp740
sg17
(lp741
sg19
(lp742
sg21
I0
sbasg50
(lp743
g725
ag732
ag739
asg21
I0
sg52
S'929'
p744
sba(iArchitecture
Cluster
p745
(dp746
g7
(lp747
(iArchitecture
Entity
p748
(dp749
g11
(lp750
sg13
S'com.android.server.display.RampAnimator'
p751
sg15
(lp752
sg17
(lp753
sg19
(lp754
sg21
I0
sba(iArchitecture
Entity
p755
(dp756
g11
(lp757
sg13
S'com.android.server.display.RampAnimator$1'
p758
sg15
(lp759
sg17
(lp760
sg19
(lp761
sg21
I0
sba(iArchitecture
Entity
p762
(dp763
g11
(lp764
sg13
S'com.android.server.display.RampAnimator$Listener'
p765
sg15
(lp766
sg17
(lp767
sg19
(lp768
sg21
I0
sbasg50
(lp769
g751
ag758
ag765
asg21
I0
sg52
S'992'
p770
sbasS'target_sub'
p771
S'92'
p772
sg50
(lp773
sS'is_component_arch'
p774
I01
sg52
S'7.0.0_r1'
p775
sba.