(lp0
(iArchitecture
Architecture
p1
(dp2
S'clusters'
p3
(lp4
(iArchitecture
Cluster
p5
(dp6
S'entities'
p7
(lp8
(iArchitecture
Entity
p9
(dp10
S'issue_ids'
p11
(lp12
sS'name'
p13
S'android.hardware.location.ContextHubManager'
p14
sS'descs'
p15
(lp16
sS'labels'
p17
(lp18
sS'titles'
p19
(lp20
sS'change'
p21
I0
sba(iArchitecture
Entity
p22
(dp23
g11
(lp24
sg13
S'android.hardware.location.ContextHubManager$1'
p25
sg15
(lp26
sg17
(lp27
sg19
(lp28
sg21
I0
sba(iArchitecture
Entity
p29
(dp30
g11
(lp31
sg13
S'android.hardware.location.ContextHubManager$1$1'
p32
sg15
(lp33
sg17
(lp34
sg19
(lp35
sg21
I0
sba(iArchitecture
Entity
p36
(dp37
g11
(lp38
sg13
S'android.hardware.location.ContextHubManager$Callback'
p39
sg15
(lp40
sg17
(lp41
sg19
(lp42
sg21
I0
sba(iArchitecture
Entity
p43
(dp44
g11
(lp45
sg13
S'android.hardware.location.ContextHubManager$ICallback'
p46
sg15
(lp47
sg17
(lp48
sg19
(lp49
sg21
I0
sbasS'classes'
p50
(lp51
g14
ag25
ag32
ag39
ag46
asg21
I0
sS'label'
p52
S'1060'
p53
sba(iArchitecture
Cluster
p54
(dp55
g7
(lp56
(iArchitecture
Entity
p57
(dp58
g11
(lp59
sg13
S'com.android.internal.widget.ActionBarOverlayLayout'
p60
sg15
(lp61
sg17
(lp62
sg19
(lp63
sg21
I0
sba(iArchitecture
Entity
p64
(dp65
g11
(lp66
sg13
S'com.android.internal.widget.ActionBarOverlayLayout$1'
p67
sg15
(lp68
sg17
(lp69
sg19
(lp70
sg21
I0
sba(iArchitecture
Entity
p71
(dp72
g11
(lp73
sg13
S'com.android.internal.widget.ActionBarOverlayLayout$2'
p74
sg15
(lp75
sg17
(lp76
sg19
(lp77
sg21
I0
sba(iArchitecture
Entity
p78
(dp79
g11
(lp80
sg13
S'com.android.internal.widget.ActionBarOverlayLayout$3'
p81
sg15
(lp82
sg17
(lp83
sg19
(lp84
sg21
I0
sba(iArchitecture
Entity
p85
(dp86
g11
(lp87
sg13
S'com.android.internal.widget.ActionBarOverlayLayout$4'
p88
sg15
(lp89
sg17
(lp90
sg19
(lp91
sg21
I0
sba(iArchitecture
Entity
p92
(dp93
g11
(lp94
sg13
S'com.android.internal.widget.ActionBarOverlayLayout$5'
p95
sg15
(lp96
sg17
(lp97
sg19
(lp98
sg21
I0
sba(iArchitecture
Entity
p99
(dp100
g11
(lp101
sg13
S'com.android.internal.widget.ActionBarOverlayLayout$ActionBarVisibilityCallback'
p102
sg15
(lp103
sg17
(lp104
sg19
(lp105
sg21
I0
sba(iArchitecture
Entity
p106
(dp107
g11
(lp108
sg13
S'com.android.internal.widget.ActionBarOverlayLayout$LayoutParams'
p109
sg15
(lp110
sg17
(lp111
sg19
(lp112
sg21
I0
sbasg50
(lp113
g60
ag67
ag74
ag81
ag88
ag95
ag102
ag109
asg21
I0
sg52
S'1160'
p114
sba(iArchitecture
Cluster
p115
(dp116
g7
(lp117
(iArchitecture
Entity
p118
(dp119
g11
(lp120
sg13
S'com.android.server.input.InputWindowHandle'
p121
sg15
(lp122
sg17
(lp123
sg19
(lp124
sg21
I0
sba(iArchitecture
Entity
p125
(dp126
g11
(lp127
sg13
S'com.android.server.wm.InputConsumerImpl'
p128
sg15
(lp129
sg17
(lp130
sg19
(lp131
sg21
I0
sbasg50
(lp132
g121
ag128
asg21
I0
sg52
S'1260'
p133
sba(iArchitecture
Cluster
p134
(dp135
g7
(lp136
(iArchitecture
Entity
p137
(dp138
g11
(lp139
sg13
S'android.app.backup.BackupAgent'
p140
sg15
(lp141
sg17
(lp142
sg19
(lp143
sg21
I0
sba(iArchitecture
Entity
p144
(dp145
g11
(lp146
sg13
S'android.app.backup.BackupAgent$BackupServiceBinder'
p147
sg15
(lp148
sg17
(lp149
sg19
(lp150
sg21
I0
sba(iArchitecture
Entity
p151
(dp152
g11
(lp153
sg13
S'android.app.backup.BackupAgent$FailRunnable'
p154
sg15
(lp155
sg17
(lp156
sg19
(lp157
sg21
I0
sba(iArchitecture
Entity
p158
(dp159
g11
(lp160
sg13
S'android.app.backup.BackupAgent$SharedPrefsSynchronizer'
p161
sg15
(lp162
sg17
(lp163
sg19
(lp164
sg21
I0
sba(iArchitecture
Entity
p165
(dp166
g11
(lp167
sg13
S'android.app.backup.BackupManager'
p168
sg15
(lp169
sg17
(lp170
sg19
(lp171
sg21
I0
sba(iArchitecture
Entity
p172
(dp173
g11
(lp174
sg13
S'android.app.backup.BackupManager$BackupObserverWrapper'
p175
sg15
(lp176
sg17
(lp177
sg19
(lp178
sg21
I0
sba(iArchitecture
Entity
p179
(dp180
g11
(lp181
sg13
S'android.app.backup.BackupManager$BackupObserverWrapper$1'
p182
sg15
(lp183
sg17
(lp184
sg19
(lp185
sg21
I0
sba(iArchitecture
Entity
p186
(dp187
g11
(lp188
sg13
S'android.app.backup.BackupTransport'
p189
sg15
(lp190
sg17
(lp191
sg19
(lp192
sg21
I0
sba(iArchitecture
Entity
p193
(dp194
g11
(lp195
sg13
S'android.app.backup.BackupTransport$TransportImpl'
p196
sg15
(lp197
sg17
(lp198
sg19
(lp199
sg21
I0
sba(iArchitecture
Entity
p200
(dp201
g11
(lp202
sg13
S'android.app.backup.FullBackup'
p203
sg15
(lp204
sg17
(lp205
sg19
(lp206
sg21
I0
sba(iArchitecture
Entity
p207
(dp208
g11
(lp209
sg13
S'android.app.backup.FullBackup$BackupScheme'
p210
sg15
(lp211
sg17
(lp212
sg19
(lp213
sg21
I0
sba(iArchitecture
Entity
p214
(dp215
g11
(lp216
sg13
S'android.app.backup.RestoreSession'
p217
sg15
(lp218
sg17
(lp219
sg19
(lp220
sg21
I0
sba(iArchitecture
Entity
p221
(dp222
g11
(lp223
sg13
S'android.app.backup.RestoreSession$RestoreObserverWrapper'
p224
sg15
(lp225
sg17
(lp226
sg19
(lp227
sg21
I0
sba(iArchitecture
Entity
p228
(dp229
g11
(lp230
sg13
S'android.app.backup.RestoreSession$RestoreObserverWrapper$1'
p231
sg15
(lp232
sg17
(lp233
sg19
(lp234
sg21
I0
sba(iArchitecture
Entity
p235
(dp236
g11
(lp237
sg13
S'com.android.internal.backup.LocalTransport'
p238
sg15
(lp239
sg17
(lp240
sg19
(lp241
sg21
I0
sba(iArchitecture
Entity
p242
(dp243
g11
(lp244
sg13
S'com.android.internal.backup.LocalTransport$DecodedFilename'
p245
sg15
(lp246
sg17
(lp247
sg19
(lp248
sg21
I0
sbasg50
(lp249
g140
ag147
ag154
ag161
ag168
ag175
ag182
ag189
ag196
ag203
ag210
ag217
ag224
ag231
ag238
ag245
asg21
I0
sg52
S'1360'
p250
sba(iArchitecture
Cluster
p251
(dp252
g7
(lp253
(iArchitecture
Entity
p254
(dp255
g11
(lp256
sg13
S'android.filterfw.core.NativeBuffer'
p257
sg15
(lp258
sg17
(lp259
sg19
(lp260
sg21
I0
sbasg50
(lp261
g257
asg21
I0
sg52
S'160'
p262
sba(iArchitecture
Cluster
p263
(dp264
g7
(lp265
(iArchitecture
Entity
p266
(dp267
g11
(lp268
sg13
S'android.speech.RecognizerResultsIntent'
p269
sg15
(lp270
sg17
(lp271
sg19
(lp272
sg21
I0
sbasg50
(lp273
g269
asg21
I0
sg52
S'260'
p274
sba(iArchitecture
Cluster
p275
(dp276
g7
(lp277
(iArchitecture
Entity
p278
(dp279
g11
(lp280
sg13
S'android.appwidget.AppWidgetProvider'
p281
sg15
(lp282
sg17
(lp283
sg19
(lp284
sg21
I0
sbasg50
(lp285
g281
asg21
I0
sg52
S'360'
p286
sba(iArchitecture
Cluster
p287
(dp288
g7
(lp289
(iArchitecture
Entity
p290
(dp291
g11
(lp292
sg13
S'android.security.net.config.Domain'
p293
sg15
(lp294
sg17
(lp295
sg19
(lp296
sg21
I0
sbasg50
(lp297
g293
asg21
I0
sg52
S'460'
p298
sba(iArchitecture
Cluster
p299
(dp300
g7
(lp301
(iArchitecture
Entity
p302
(dp303
g11
(lp304
sg13
S'android.hardware.location.GeofenceHardwareService'
p305
sg15
(lp306
sg17
(lp307
sg19
(lp308
sg21
I0
sba(iArchitecture
Entity
p309
(dp310
g11
(lp311
sg13
S'android.hardware.location.GeofenceHardwareService$1'
p312
sg15
(lp313
sg17
(lp314
sg19
(lp315
sg21
I0
sbasg50
(lp316
g305
ag312
asg21
I0
sg52
S'560'
p317
sba(iArchitecture
Cluster
p318
(dp319
g7
(lp320
(iArchitecture
Entity
p321
(dp322
g11
(lp323
sg13
S'android.mtp.MtpConstants'
p324
sg15
(lp325
sg17
(lp326
sg19
(lp327
sg21
I0
sbasg50
(lp328
g324
asg21
I0
sg52
S'60'
p329
sba(iArchitecture
Cluster
p330
(dp331
g7
(lp332
(iArchitecture
Entity
p333
(dp334
g11
(lp335
sg13
S'android.os.CountDownTimer'
p336
sg15
(lp337
sg17
(lp338
sg19
(lp339
sg21
I0
sba(iArchitecture
Entity
p340
(dp341
g11
(lp342
sg13
S'android.os.CountDownTimer$1'
p343
sg15
(lp344
sg17
(lp345
sg19
(lp346
sg21
I0
sbasg50
(lp347
g336
ag343
asg21
I0
sg52
S'600'
p348
sba(iArchitecture
Cluster
p349
(dp350
g7
(lp351
(iArchitecture
Entity
p352
(dp353
g11
(lp354
sg13
S'android.net.SSLCertificateSocketFactory'
p355
sg15
(lp356
sg17
(lp357
sg19
(lp358
sg21
I0
sba(iArchitecture
Entity
p359
(dp360
g11
(lp361
sg13
S'android.net.SSLCertificateSocketFactory$1'
p362
sg15
(lp363
sg17
(lp364
sg19
(lp365
sg21
I0
sbasg50
(lp366
g355
ag362
asg21
I0
sg52
S'601'
p367
sba(iArchitecture
Cluster
p368
(dp369
g7
(lp370
(iArchitecture
Entity
p371
(dp372
g11
(lp373
sg13
S'android.location.Address'
p374
sg15
(lp375
sg17
(lp376
sg19
(lp377
sg21
I0
sba(iArchitecture
Entity
p378
(dp379
g11
(lp380
sg13
S'android.location.Address$1'
p381
sg15
(lp382
sg17
(lp383
sg19
(lp384
sg21
I0
sbasg50
(lp385
g374
ag381
asg21
I0
sg52
S'602'
p386
sba(iArchitecture
Cluster
p387
(dp388
g7
(lp389
(iArchitecture
Entity
p390
(dp391
g11
(lp392
sg13
S'android.printservice.PrintServiceInfo'
p393
sg15
(lp394
sg17
(lp395
sg19
(lp396
sg21
I0
sba(iArchitecture
Entity
p397
(dp398
g11
(lp399
sg13
S'android.printservice.PrintServiceInfo$1'
p400
sg15
(lp401
sg17
(lp402
sg19
(lp403
sg21
I0
sbasg50
(lp404
g393
ag400
asg21
I0
sg52
S'603'
p405
sba(iArchitecture
Cluster
p406
(dp407
g7
(lp408
(iArchitecture
Entity
p409
(dp410
g11
(lp411
sg13
S'com.android.server.location.LocationFudger'
p412
sg15
(lp413
sg17
(lp414
sg19
(lp415
sg21
I0
sba(iArchitecture
Entity
p416
(dp417
g11
(lp418
sg13
S'com.android.server.location.LocationFudger$1'
p419
sg15
(lp420
sg17
(lp421
sg19
(lp422
sg21
I0
sbasg50
(lp423
g412
ag419
asg21
I0
sg52
S'604'
p424
sba(iArchitecture
Cluster
p425
(dp426
g7
(lp427
(iArchitecture
Entity
p428
(dp429
g11
(lp430
sg13
S'android.net.CaptivePortal'
p431
sg15
(lp432
sg17
(lp433
sg19
(lp434
sg21
I0
sba(iArchitecture
Entity
p435
(dp436
g11
(lp437
sg13
S'android.net.CaptivePortal$1'
p438
sg15
(lp439
sg17
(lp440
sg19
(lp441
sg21
I0
sbasg50
(lp442
g431
ag438
asg21
I0
sg52
S'605'
p443
sba(iArchitecture
Cluster
p444
(dp445
g7
(lp446
(iArchitecture
Entity
p447
(dp448
g11
(lp449
sg13
S'android.telephony.cdma.CdmaSmsCbProgramResults'
p450
sg15
(lp451
sg17
(lp452
sg19
(lp453
sg21
I0
sba(iArchitecture
Entity
p454
(dp455
g11
(lp456
sg13
S'android.telephony.cdma.CdmaSmsCbProgramResults$1'
p457
sg15
(lp458
sg17
(lp459
sg19
(lp460
sg21
I0
sbasg50
(lp461
g450
ag457
asg21
I0
sg52
S'606'
p462
sba(iArchitecture
Cluster
p463
(dp464
g7
(lp465
(iArchitecture
Entity
p466
(dp467
g11
(lp468
sg13
S'android.security.net.config.ManifestConfigSource'
p469
sg15
(lp470
sg17
(lp471
sg19
(lp472
sg21
I0
sba(iArchitecture
Entity
p473
(dp474
g11
(lp475
sg13
S'android.security.net.config.ManifestConfigSource$DefaultConfigSource'
p476
sg15
(lp477
sg17
(lp478
sg19
(lp479
sg21
I0
sbasg50
(lp480
g469
ag476
asg21
I0
sg52
S'607'
p481
sba(iArchitecture
Cluster
p482
(dp483
g7
(lp484
(iArchitecture
Entity
p485
(dp486
g11
(lp487
sg13
S'android.nfc.cardemulation.ApduServiceInfo'
p488
sg15
(lp489
sg17
(lp490
sg19
(lp491
sg21
I0
sba(iArchitecture
Entity
p492
(dp493
g11
(lp494
sg13
S'android.nfc.cardemulation.ApduServiceInfo$1'
p495
sg15
(lp496
sg17
(lp497
sg19
(lp498
sg21
I0
sbasg50
(lp499
g488
ag495
asg21
I0
sg52
S'608'
p500
sba(iArchitecture
Cluster
p501
(dp502
g7
(lp503
(iArchitecture
Entity
p504
(dp505
g11
(lp506
sg13
S'android.graphics.drawable.InsetDrawable'
p507
sg15
(lp508
sg17
(lp509
sg19
(lp510
sg21
I0
sba(iArchitecture
Entity
p511
(dp512
g11
(lp513
sg13
S'android.graphics.drawable.InsetDrawable$InsetState'
p514
sg15
(lp515
sg17
(lp516
sg19
(lp517
sg21
I0
sbasg50
(lp518
g507
ag514
asg21
I0
sg52
S'609'
p519
sba(iArchitecture
Cluster
p520
(dp521
g7
(lp522
(iArchitecture
Entity
p523
(dp524
g11
(lp525
sg13
S'android.security.KeyStore'
p526
sg15
(lp527
sg17
(lp528
sg19
(lp529
sg21
I0
sba(iArchitecture
Entity
p530
(dp531
g11
(lp532
sg13
S'android.security.KeyStore$State'
p533
sg15
(lp534
sg17
(lp535
sg19
(lp536
sg21
I0
sbasg50
(lp537
g526
ag533
asg21
I0
sg52
S'660'
p538
sba(iArchitecture
Cluster
p539
(dp540
g7
(lp541
(iArchitecture
Entity
p542
(dp543
g11
(lp544
sg13
S'android.graphics.NinePatch'
p545
sg15
(lp546
sg17
(lp547
sg19
(lp548
sg21
I0
sba(iArchitecture
Entity
p549
(dp550
g11
(lp551
sg13
S'android.graphics.NinePatch$InsetStruct'
p552
sg15
(lp553
sg17
(lp554
sg19
(lp555
sg21
I0
sbasg50
(lp556
g545
ag552
asg21
I0
sg52
S'760'
p557
sba(iArchitecture
Cluster
p558
(dp559
g7
(lp560
(iArchitecture
Entity
p561
(dp562
g11
(lp563
sg13
S'android.content.AbstractThreadedSyncAdapter'
p564
sg15
(lp565
sg17
(lp566
sg19
(lp567
sg21
I0
sba(iArchitecture
Entity
p568
(dp569
g11
(lp570
sg13
S'android.content.AbstractThreadedSyncAdapter$ISyncAdapterImpl'
p571
sg15
(lp572
sg17
(lp573
sg19
(lp574
sg21
I0
sba(iArchitecture
Entity
p575
(dp576
g11
(lp577
sg13
S'android.content.AbstractThreadedSyncAdapter$SyncThread'
p578
sg15
(lp579
sg17
(lp580
sg19
(lp581
sg21
I0
sbasg50
(lp582
g564
ag571
ag578
asg21
I0
sg52
S'860'
p583
sba(iArchitecture
Cluster
p584
(dp585
g7
(lp586
(iArchitecture
Entity
p587
(dp588
g11
(lp589
sg13
S'android.media.Utils'
p590
sg15
(lp591
sg17
(lp592
sg19
(lp593
sg21
I0
sba(iArchitecture
Entity
p594
(dp595
g11
(lp596
sg13
S'android.media.Utils$1'
p597
sg15
(lp598
sg17
(lp599
sg19
(lp600
sg21
I0
sba(iArchitecture
Entity
p601
(dp602
g11
(lp603
sg13
S'android.media.Utils$2'
p604
sg15
(lp605
sg17
(lp606
sg19
(lp607
sg21
I0
sbasg50
(lp608
g590
ag597
ag604
asg21
I0
sg52
S'960'
p609
sbasS'target_sub'
p610
S'60'
p611
sg50
(lp612
sS'is_component_arch'
p613
I01
sg52
S'7.0.0_r1'
p614
sba.