(lp0
(iArchitecture
Architecture
p1
(dp2
S'clusters'
p3
(lp4
(iArchitecture
Cluster
p5
(dp6
S'entities'
p7
(lp8
(iArchitecture
Entity
p9
(dp10
S'issue_ids'
p11
(lp12
sS'name'
p13
S'com.android.internal.os.KernelCpuSpeedReader'
p14
sS'descs'
p15
(lp16
sS'labels'
p17
(lp18
sS'titles'
p19
(lp20
sS'change'
p21
I0
sbasS'classes'
p22
(lp23
g14
asg21
I0
sS'label'
p24
S'105'
p25
sba(iArchitecture
Cluster
p26
(dp27
g7
(lp28
(iArchitecture
Entity
p29
(dp30
g11
(lp31
sg13
S'android.util.Log'
p32
sg15
(lp33
sg17
(lp34
sg19
(lp35
sg21
I0
sba(iArchitecture
Entity
p36
(dp37
g11
(lp38
sg13
S'android.util.Log$1'
p39
sg15
(lp40
sg17
(lp41
sg19
(lp42
sg21
I0
sba(iArchitecture
Entity
p43
(dp44
g11
(lp45
sg13
S'android.util.Log$ImmediateLogWriter'
p46
sg15
(lp47
sg17
(lp48
sg19
(lp49
sg21
I0
sba(iArchitecture
Entity
p50
(dp51
g11
(lp52
sg13
S'android.util.Log$NoPreloadHolder'
p53
sg15
(lp54
sg17
(lp55
sg19
(lp56
sg21
I0
sba(iArchitecture
Entity
p57
(dp58
g11
(lp59
sg13
S'android.util.Log$TerribleFailure'
p60
sg15
(lp61
sg17
(lp62
sg19
(lp63
sg21
I0
sba(iArchitecture
Entity
p64
(dp65
g11
(lp66
sg13
S'android.util.Log$TerribleFailureHandler'
p67
sg15
(lp68
sg17
(lp69
sg19
(lp70
sg21
I0
sbasg22
(lp71
g32
ag39
ag46
ag53
ag60
ag67
asg21
I0
sg24
S'1050'
p72
sba(iArchitecture
Cluster
p73
(dp74
g7
(lp75
(iArchitecture
Entity
p76
(dp77
g11
(lp78
sg13
S'android.media.projection.MediaProjection'
p79
sg15
(lp80
sg17
(lp81
sg19
(lp82
sg21
I0
sba(iArchitecture
Entity
p83
(dp84
g11
(lp85
sg13
S'android.media.projection.MediaProjection$Callback'
p86
sg15
(lp87
sg17
(lp88
sg19
(lp89
sg21
I0
sba(iArchitecture
Entity
p90
(dp91
g11
(lp92
sg13
S'android.media.projection.MediaProjection$CallbackRecord'
p93
sg15
(lp94
sg17
(lp95
sg19
(lp96
sg21
I0
sba(iArchitecture
Entity
p97
(dp98
g11
(lp99
sg13
S'android.media.projection.MediaProjection$CallbackRecord$1'
p100
sg15
(lp101
sg17
(lp102
sg19
(lp103
sg21
I0
sba(iArchitecture
Entity
p104
(dp105
g11
(lp106
sg13
S'android.media.projection.MediaProjection$MediaProjectionCallback'
p107
sg15
(lp108
sg17
(lp109
sg19
(lp110
sg21
I0
sbasg22
(lp111
g79
ag86
ag93
ag100
ag107
asg21
I0
sg24
S'1051'
p112
sba(iArchitecture
Cluster
p113
(dp114
g7
(lp115
(iArchitecture
Entity
p116
(dp117
g11
(lp118
sg13
S'com.android.server.policy.StatusBarController'
p119
sg15
(lp120
sg17
(lp121
sg19
(lp122
sg21
I0
sba(iArchitecture
Entity
p123
(dp124
g11
(lp125
sg13
S'com.android.server.policy.StatusBarController$1'
p126
sg15
(lp127
sg17
(lp128
sg19
(lp129
sg21
I0
sba(iArchitecture
Entity
p130
(dp131
g11
(lp132
sg13
S'com.android.server.policy.StatusBarController$1$1'
p133
sg15
(lp134
sg17
(lp135
sg19
(lp136
sg21
I0
sba(iArchitecture
Entity
p137
(dp138
g11
(lp139
sg13
S'com.android.server.policy.StatusBarController$1$2'
p140
sg15
(lp141
sg17
(lp142
sg19
(lp143
sg21
I0
sba(iArchitecture
Entity
p144
(dp145
g11
(lp146
sg13
S'com.android.server.policy.StatusBarController$1$3'
p147
sg15
(lp148
sg17
(lp149
sg19
(lp150
sg21
I0
sba(iArchitecture
Entity
p151
(dp152
g11
(lp153
sg13
S'com.android.server.policy.StatusBarController$1$4'
p154
sg15
(lp155
sg17
(lp156
sg19
(lp157
sg21
I0
sbasg22
(lp158
g119
ag126
ag133
ag140
ag147
ag154
asg21
I0
sg24
S'1052'
p159
sba(iArchitecture
Cluster
p160
(dp161
g7
(lp162
(iArchitecture
Entity
p163
(dp164
g11
(lp165
sg13
S'android.widget.PopupMenu'
p166
sg15
(lp167
sg17
(lp168
sg19
(lp169
sg21
I0
sba(iArchitecture
Entity
p170
(dp171
g11
(lp172
sg13
S'android.widget.PopupMenu$1'
p173
sg15
(lp174
sg17
(lp175
sg19
(lp176
sg21
I0
sba(iArchitecture
Entity
p177
(dp178
g11
(lp179
sg13
S'android.widget.PopupMenu$2'
p180
sg15
(lp181
sg17
(lp182
sg19
(lp183
sg21
I0
sba(iArchitecture
Entity
p184
(dp185
g11
(lp186
sg13
S'android.widget.PopupMenu$3'
p187
sg15
(lp188
sg17
(lp189
sg19
(lp190
sg21
I0
sba(iArchitecture
Entity
p191
(dp192
g11
(lp193
sg13
S'android.widget.PopupMenu$OnDismissListener'
p194
sg15
(lp195
sg17
(lp196
sg19
(lp197
sg21
I0
sba(iArchitecture
Entity
p198
(dp199
g11
(lp200
sg13
S'android.widget.PopupMenu$OnMenuItemClickListener'
p201
sg15
(lp202
sg17
(lp203
sg19
(lp204
sg21
I0
sbasg22
(lp205
g166
ag173
ag180
ag187
ag194
ag201
asg21
I0
sg24
S'1053'
p206
sba(iArchitecture
Cluster
p207
(dp208
g7
(lp209
(iArchitecture
Entity
p210
(dp211
g11
(lp212
sg13
S'android.graphics.pdf.PdfDocument'
p213
sg15
(lp214
sg17
(lp215
sg19
(lp216
sg21
I0
sba(iArchitecture
Entity
p217
(dp218
g11
(lp219
sg13
S'android.graphics.pdf.PdfDocument$Page'
p220
sg15
(lp221
sg17
(lp222
sg19
(lp223
sg21
I0
sba(iArchitecture
Entity
p224
(dp225
g11
(lp226
sg13
S'android.graphics.pdf.PdfDocument$PageInfo'
p227
sg15
(lp228
sg17
(lp229
sg19
(lp230
sg21
I0
sba(iArchitecture
Entity
p231
(dp232
g11
(lp233
sg13
S'android.graphics.pdf.PdfDocument$PageInfo$Builder'
p234
sg15
(lp235
sg17
(lp236
sg19
(lp237
sg21
I0
sba(iArchitecture
Entity
p238
(dp239
g11
(lp240
sg13
S'android.graphics.pdf.PdfDocument$PdfCanvas'
p241
sg15
(lp242
sg17
(lp243
sg19
(lp244
sg21
I0
sbasg22
(lp245
g213
ag220
ag227
ag234
ag241
asg21
I0
sg24
S'1054'
p246
sba(iArchitecture
Cluster
p247
(dp248
g7
(lp249
(iArchitecture
Entity
p250
(dp251
g11
(lp252
sg13
S'android.renderscript.ProgramStore'
p253
sg15
(lp254
sg17
(lp255
sg19
(lp256
sg21
I0
sba(iArchitecture
Entity
p257
(dp258
g11
(lp259
sg13
S'android.renderscript.ProgramStore$BlendDstFunc'
p260
sg15
(lp261
sg17
(lp262
sg19
(lp263
sg21
I0
sba(iArchitecture
Entity
p264
(dp265
g11
(lp266
sg13
S'android.renderscript.ProgramStore$BlendSrcFunc'
p267
sg15
(lp268
sg17
(lp269
sg19
(lp270
sg21
I0
sba(iArchitecture
Entity
p271
(dp272
g11
(lp273
sg13
S'android.renderscript.ProgramStore$Builder'
p274
sg15
(lp275
sg17
(lp276
sg19
(lp277
sg21
I0
sba(iArchitecture
Entity
p278
(dp279
g11
(lp280
sg13
S'android.renderscript.ProgramStore$DepthFunc'
p281
sg15
(lp282
sg17
(lp283
sg19
(lp284
sg21
I0
sbasg22
(lp285
g253
ag260
ag267
ag274
ag281
asg21
I0
sg24
S'1055'
p286
sba(iArchitecture
Cluster
p287
(dp288
g7
(lp289
(iArchitecture
Entity
p290
(dp291
g11
(lp292
sg13
S'android.app.AlarmManager'
p293
sg15
(lp294
sg17
(lp295
sg19
(lp296
sg21
I0
sba(iArchitecture
Entity
p297
(dp298
g11
(lp299
sg13
S'android.app.AlarmManager$AlarmClockInfo'
p300
sg15
(lp301
sg17
(lp302
sg19
(lp303
sg21
I0
sba(iArchitecture
Entity
p304
(dp305
g11
(lp306
sg13
S'android.app.AlarmManager$AlarmClockInfo$1'
p307
sg15
(lp308
sg17
(lp309
sg19
(lp310
sg21
I0
sba(iArchitecture
Entity
p311
(dp312
g11
(lp313
sg13
S'android.app.AlarmManager$ListenerWrapper'
p314
sg15
(lp315
sg17
(lp316
sg19
(lp317
sg21
I0
sba(iArchitecture
Entity
p318
(dp319
g11
(lp320
sg13
S'android.app.AlarmManager$OnAlarmListener'
p321
sg15
(lp322
sg17
(lp323
sg19
(lp324
sg21
I0
sbasg22
(lp325
g293
ag300
ag307
ag314
ag321
asg21
I0
sg24
S'1056'
p326
sba(iArchitecture
Cluster
p327
(dp328
g7
(lp329
(iArchitecture
Entity
p330
(dp331
g11
(lp332
sg13
S'com.android.internal.util.FileRotator'
p333
sg15
(lp334
sg17
(lp335
sg19
(lp336
sg21
I0
sba(iArchitecture
Entity
p337
(dp338
g11
(lp339
sg13
S'com.android.internal.util.FileRotator$1'
p340
sg15
(lp341
sg17
(lp342
sg19
(lp343
sg21
I0
sba(iArchitecture
Entity
p344
(dp345
g11
(lp346
sg13
S'com.android.internal.util.FileRotator$FileInfo'
p347
sg15
(lp348
sg17
(lp349
sg19
(lp350
sg21
I0
sba(iArchitecture
Entity
p351
(dp352
g11
(lp353
sg13
S'com.android.internal.util.FileRotator$Reader'
p354
sg15
(lp355
sg17
(lp356
sg19
(lp357
sg21
I0
sba(iArchitecture
Entity
p358
(dp359
g11
(lp360
sg13
S'com.android.internal.util.FileRotator$Rewriter'
p361
sg15
(lp362
sg17
(lp363
sg19
(lp364
sg21
I0
sba(iArchitecture
Entity
p365
(dp366
g11
(lp367
sg13
S'com.android.internal.util.FileRotator$Writer'
p368
sg15
(lp369
sg17
(lp370
sg19
(lp371
sg21
I0
sbasg22
(lp372
g333
ag340
ag347
ag354
ag361
ag368
asg21
I0
sg24
S'1057'
p373
sba(iArchitecture
Cluster
p374
(dp375
g7
(lp376
(iArchitecture
Entity
p377
(dp378
g11
(lp379
sg13
S'android.view.WindowId'
p380
sg15
(lp381
sg17
(lp382
sg19
(lp383
sg21
I0
sba(iArchitecture
Entity
p384
(dp385
g11
(lp386
sg13
S'android.view.WindowId$1'
p387
sg15
(lp388
sg17
(lp389
sg19
(lp390
sg21
I0
sba(iArchitecture
Entity
p391
(dp392
g11
(lp393
sg13
S'android.view.WindowId$FocusObserver'
p394
sg15
(lp395
sg17
(lp396
sg19
(lp397
sg21
I0
sba(iArchitecture
Entity
p398
(dp399
g11
(lp400
sg13
S'android.view.WindowId$FocusObserver$1'
p401
sg15
(lp402
sg17
(lp403
sg19
(lp404
sg21
I0
sba(iArchitecture
Entity
p405
(dp406
g11
(lp407
sg13
S'android.view.WindowId$FocusObserver$H'
p408
sg15
(lp409
sg17
(lp410
sg19
(lp411
sg21
I0
sbasg22
(lp412
g380
ag387
ag394
ag401
ag408
asg21
I0
sg24
S'1058'
p413
sba(iArchitecture
Cluster
p414
(dp415
g7
(lp416
(iArchitecture
Entity
p417
(dp418
g11
(lp419
sg13
S'android.media.audiofx.Visualizer'
p420
sg15
(lp421
sg17
(lp422
sg19
(lp423
sg21
I0
sba(iArchitecture
Entity
p424
(dp425
g11
(lp426
sg13
S'android.media.audiofx.Visualizer$MeasurementPeakRms'
p427
sg15
(lp428
sg17
(lp429
sg19
(lp430
sg21
I0
sba(iArchitecture
Entity
p431
(dp432
g11
(lp433
sg13
S'android.media.audiofx.Visualizer$NativeEventHandler'
p434
sg15
(lp435
sg17
(lp436
sg19
(lp437
sg21
I0
sba(iArchitecture
Entity
p438
(dp439
g11
(lp440
sg13
S'android.media.audiofx.Visualizer$OnDataCaptureListener'
p441
sg15
(lp442
sg17
(lp443
sg19
(lp444
sg21
I0
sba(iArchitecture
Entity
p445
(dp446
g11
(lp447
sg13
S'android.media.audiofx.Visualizer$OnServerDiedListener'
p448
sg15
(lp449
sg17
(lp450
sg19
(lp451
sg21
I0
sbasg22
(lp452
g420
ag427
ag434
ag441
ag448
asg21
I0
sg24
S'1059'
p453
sba(iArchitecture
Cluster
p454
(dp455
g7
(lp456
(iArchitecture
Entity
p457
(dp458
g11
(lp459
sg13
S'com.android.server.firewall.IntentFirewall'
p460
sg15
(lp461
sg17
(lp462
sg19
(lp463
sg21
I0
sba(iArchitecture
Entity
p464
(dp465
g11
(lp466
sg13
S'com.android.server.firewall.IntentFirewall$AMSInterface'
p467
sg15
(lp468
sg17
(lp469
sg19
(lp470
sg21
I0
sba(iArchitecture
Entity
p471
(dp472
g11
(lp473
sg13
S'com.android.server.firewall.IntentFirewall$FirewallHandler'
p474
sg15
(lp475
sg17
(lp476
sg19
(lp477
sg21
I0
sba(iArchitecture
Entity
p478
(dp479
g11
(lp480
sg13
S'com.android.server.firewall.IntentFirewall$FirewallIntentFilter'
p481
sg15
(lp482
sg17
(lp483
sg19
(lp484
sg21
I0
sba(iArchitecture
Entity
p485
(dp486
g11
(lp487
sg13
S'com.android.server.firewall.IntentFirewall$FirewallIntentResolver'
p488
sg15
(lp489
sg17
(lp490
sg19
(lp491
sg21
I0
sba(iArchitecture
Entity
p492
(dp493
g11
(lp494
sg13
S'com.android.server.firewall.IntentFirewall$Rule'
p495
sg15
(lp496
sg17
(lp497
sg19
(lp498
sg21
I0
sba(iArchitecture
Entity
p499
(dp500
g11
(lp501
sg13
S'com.android.server.firewall.IntentFirewall$RuleObserver'
p502
sg15
(lp503
sg17
(lp504
sg19
(lp505
sg21
I0
sbasg22
(lp506
g460
ag467
ag474
ag481
ag488
ag495
ag502
asg21
I0
sg24
S'1105'
p507
sbasS'target_sub'
p508
S'105'
p509
sg22
(lp510
sS'is_component_arch'
p511
I01
sg24
S'7.0.0_r1'
p512
sba.