(lp0
(iArchitecture
Architecture
p1
(dp2
S'clusters'
p3
(lp4
(iArchitecture
Cluster
p5
(dp6
S'entities'
p7
(lp8
(iArchitecture
Entity
p9
(dp10
S'issue_ids'
p11
(lp12
sS'name'
p13
S'com.android.internal.location.GpsNetInitiatedHandler'
p14
sS'descs'
p15
(lp16
sS'labels'
p17
(lp18
sS'titles'
p19
(lp20
sS'change'
p21
I0
sba(iArchitecture
Entity
p22
(dp23
g11
(lp24
sg13
S'com.android.internal.location.GpsNetInitiatedHandler$1'
p25
sg15
(lp26
sg17
(lp27
sg19
(lp28
sg21
I0
sba(iArchitecture
Entity
p29
(dp30
g11
(lp31
sg13
S'com.android.internal.location.GpsNetInitiatedHandler$2'
p32
sg15
(lp33
sg17
(lp34
sg19
(lp35
sg21
I0
sba(iArchitecture
Entity
p36
(dp37
g11
(lp38
sg13
S'com.android.internal.location.GpsNetInitiatedHandler$GpsNiNotification'
p39
sg15
(lp40
sg17
(lp41
sg19
(lp42
sg21
I0
sba(iArchitecture
Entity
p43
(dp44
g11
(lp45
sg13
S'com.android.internal.location.GpsNetInitiatedHandler$GpsNiResponse'
p46
sg15
(lp47
sg17
(lp48
sg19
(lp49
sg21
I0
sbasS'classes'
p50
(lp51
g14
ag25
ag32
ag39
ag46
asg21
I0
sS'label'
p52
S'1048'
p53
sba(iArchitecture
Cluster
p54
(dp55
g7
(lp56
(iArchitecture
Entity
p57
(dp58
g11
(lp59
sg13
S'android.preference.Preference'
p60
sg15
(lp61
sg17
(lp62
sg19
(lp63
sg21
I0
sba(iArchitecture
Entity
p64
(dp65
g11
(lp66
sg13
S'android.preference.Preference$BaseSavedState'
p67
sg15
(lp68
sg17
(lp69
sg19
(lp70
sg21
I0
sba(iArchitecture
Entity
p71
(dp72
g11
(lp73
sg13
S'android.preference.Preference$BaseSavedState$1'
p74
sg15
(lp75
sg17
(lp76
sg19
(lp77
sg21
I0
sba(iArchitecture
Entity
p78
(dp79
g11
(lp80
sg13
S'android.preference.Preference$OnPreferenceChangeInternalListener'
p81
sg15
(lp82
sg17
(lp83
sg19
(lp84
sg21
I0
sba(iArchitecture
Entity
p85
(dp86
g11
(lp87
sg13
S'android.preference.Preference$OnPreferenceChangeListener'
p88
sg15
(lp89
sg17
(lp90
sg19
(lp91
sg21
I0
sba(iArchitecture
Entity
p92
(dp93
g11
(lp94
sg13
S'android.preference.Preference$OnPreferenceClickListener'
p95
sg15
(lp96
sg17
(lp97
sg19
(lp98
sg21
I0
sbasg50
(lp99
g60
ag67
ag74
ag81
ag88
ag95
asg21
I0
sg52
S'1148'
p100
sba(iArchitecture
Cluster
p101
(dp102
g7
(lp103
(iArchitecture
Entity
p104
(dp105
g11
(lp106
sg13
S'android.renderscript.Byte2'
p107
sg15
(lp108
sg17
(lp109
sg19
(lp110
sg21
I0
sba(iArchitecture
Entity
p111
(dp112
g11
(lp113
sg13
S'android.renderscript.Byte3'
p114
sg15
(lp115
sg17
(lp116
sg19
(lp117
sg21
I0
sba(iArchitecture
Entity
p118
(dp119
g11
(lp120
sg13
S'android.renderscript.Byte4'
p121
sg15
(lp122
sg17
(lp123
sg19
(lp124
sg21
I0
sba(iArchitecture
Entity
p125
(dp126
g11
(lp127
sg13
S'android.renderscript.Double2'
p128
sg15
(lp129
sg17
(lp130
sg19
(lp131
sg21
I0
sba(iArchitecture
Entity
p132
(dp133
g11
(lp134
sg13
S'android.renderscript.Double3'
p135
sg15
(lp136
sg17
(lp137
sg19
(lp138
sg21
I0
sba(iArchitecture
Entity
p139
(dp140
g11
(lp141
sg13
S'android.renderscript.Double4'
p142
sg15
(lp143
sg17
(lp144
sg19
(lp145
sg21
I0
sba(iArchitecture
Entity
p146
(dp147
g11
(lp148
sg13
S'android.renderscript.Float2'
p149
sg15
(lp150
sg17
(lp151
sg19
(lp152
sg21
I0
sba(iArchitecture
Entity
p153
(dp154
g11
(lp155
sg13
S'android.renderscript.Float3'
p156
sg15
(lp157
sg17
(lp158
sg19
(lp159
sg21
I0
sba(iArchitecture
Entity
p160
(dp161
g11
(lp162
sg13
S'android.renderscript.Float4'
p163
sg15
(lp164
sg17
(lp165
sg19
(lp166
sg21
I0
sba(iArchitecture
Entity
p167
(dp168
g11
(lp169
sg13
S'android.renderscript.Int2'
p170
sg15
(lp171
sg17
(lp172
sg19
(lp173
sg21
I0
sba(iArchitecture
Entity
p174
(dp175
g11
(lp176
sg13
S'android.renderscript.Int3'
p177
sg15
(lp178
sg17
(lp179
sg19
(lp180
sg21
I0
sba(iArchitecture
Entity
p181
(dp182
g11
(lp183
sg13
S'android.renderscript.Int4'
p184
sg15
(lp185
sg17
(lp186
sg19
(lp187
sg21
I0
sba(iArchitecture
Entity
p188
(dp189
g11
(lp190
sg13
S'android.renderscript.Long2'
p191
sg15
(lp192
sg17
(lp193
sg19
(lp194
sg21
I0
sba(iArchitecture
Entity
p195
(dp196
g11
(lp197
sg13
S'android.renderscript.Long3'
p198
sg15
(lp199
sg17
(lp200
sg19
(lp201
sg21
I0
sba(iArchitecture
Entity
p202
(dp203
g11
(lp204
sg13
S'android.renderscript.Long4'
p205
sg15
(lp206
sg17
(lp207
sg19
(lp208
sg21
I0
sba(iArchitecture
Entity
p209
(dp210
g11
(lp211
sg13
S'android.renderscript.Short2'
p212
sg15
(lp213
sg17
(lp214
sg19
(lp215
sg21
I0
sba(iArchitecture
Entity
p216
(dp217
g11
(lp218
sg13
S'android.renderscript.Short3'
p219
sg15
(lp220
sg17
(lp221
sg19
(lp222
sg21
I0
sba(iArchitecture
Entity
p223
(dp224
g11
(lp225
sg13
S'android.renderscript.Short4'
p226
sg15
(lp227
sg17
(lp228
sg19
(lp229
sg21
I0
sbasg50
(lp230
g107
ag114
ag121
ag128
ag135
ag142
ag149
ag156
ag163
ag170
ag177
ag184
ag191
ag198
ag205
ag212
ag219
ag226
asg21
I0
sg52
S'1248'
p231
sba(iArchitecture
Cluster
p232
(dp233
g7
(lp234
(iArchitecture
Entity
p235
(dp236
g11
(lp237
sg13
S'android.view.animation.Animation'
p238
sg15
(lp239
sg17
(lp240
sg19
(lp241
sg21
I0
sba(iArchitecture
Entity
p242
(dp243
g11
(lp244
sg13
S'android.view.animation.Animation$1'
p245
sg15
(lp246
sg17
(lp247
sg19
(lp248
sg21
I0
sba(iArchitecture
Entity
p249
(dp250
g11
(lp251
sg13
S'android.view.animation.Animation$2'
p252
sg15
(lp253
sg17
(lp254
sg19
(lp255
sg21
I0
sba(iArchitecture
Entity
p256
(dp257
g11
(lp258
sg13
S'android.view.animation.Animation$3'
p259
sg15
(lp260
sg17
(lp261
sg19
(lp262
sg21
I0
sba(iArchitecture
Entity
p263
(dp264
g11
(lp265
sg13
S'android.view.animation.Animation$AnimationListener'
p266
sg15
(lp267
sg17
(lp268
sg19
(lp269
sg21
I0
sba(iArchitecture
Entity
p270
(dp271
g11
(lp272
sg13
S'android.view.animation.Animation$Description'
p273
sg15
(lp274
sg17
(lp275
sg19
(lp276
sg21
I0
sba(iArchitecture
Entity
p277
(dp278
g11
(lp279
sg13
S'android.view.animation.Animation$NoImagePreloadHolder'
p280
sg15
(lp281
sg17
(lp282
sg19
(lp283
sg21
I0
sba(iArchitecture
Entity
p284
(dp285
g11
(lp286
sg13
S'android.view.animation.AnimationSet'
p287
sg15
(lp288
sg17
(lp289
sg19
(lp290
sg21
I0
sbasg50
(lp291
g238
ag245
ag252
ag259
ag266
ag273
ag280
ag287
asg21
I0
sg52
S'1348'
p292
sba(iArchitecture
Cluster
p293
(dp294
g7
(lp295
(iArchitecture
Entity
p296
(dp297
g11
(lp298
sg13
S'junit.framework.Test'
p299
sg15
(lp300
sg17
(lp301
sg19
(lp302
sg21
I0
sbasg50
(lp303
g299
asg21
I0
sg52
S'148'
p304
sba(iArchitecture
Cluster
p305
(dp306
g7
(lp307
(iArchitecture
Entity
p308
(dp309
g11
(lp310
sg13
S'android.os.SystemClock'
p311
sg15
(lp312
sg17
(lp313
sg19
(lp314
sg21
I0
sbasg50
(lp315
g311
asg21
I0
sg52
S'248'
p316
sba(iArchitecture
Cluster
p317
(dp318
g7
(lp319
(iArchitecture
Entity
p320
(dp321
g11
(lp322
sg13
S'android.preference.RingtonePreference'
p323
sg15
(lp324
sg17
(lp325
sg19
(lp326
sg21
I0
sbasg50
(lp327
g323
asg21
I0
sg52
S'348'
p328
sba(iArchitecture
Cluster
p329
(dp330
g7
(lp331
(iArchitecture
Entity
p332
(dp333
g11
(lp334
sg13
S'android.security.net.config.Pin'
p335
sg15
(lp336
sg17
(lp337
sg19
(lp338
sg21
I0
sbasg50
(lp339
g335
asg21
I0
sg52
S'448'
p340
sba(iArchitecture
Cluster
p341
(dp342
g7
(lp343
(iArchitecture
Entity
p344
(dp345
g11
(lp346
sg13
S'com.android.internal.content.PackageHelper'
p347
sg15
(lp348
sg17
(lp349
sg19
(lp350
sg21
I0
sbasg50
(lp351
g347
asg21
I0
sg52
S'48'
p352
sba(iArchitecture
Cluster
p353
(dp354
g7
(lp355
(iArchitecture
Entity
p356
(dp357
g11
(lp358
sg13
S'android.filterfw.core.NativeProgram'
p359
sg15
(lp360
sg17
(lp361
sg19
(lp362
sg21
I0
sbasg50
(lp363
g359
asg21
I0
sg52
S'480'
p364
sba(iArchitecture
Cluster
p365
(dp366
g7
(lp367
(iArchitecture
Entity
p368
(dp369
g11
(lp370
sg13
S'android.hardware.camera2.CaptureFailure'
p371
sg15
(lp372
sg17
(lp373
sg19
(lp374
sg21
I0
sbasg50
(lp375
g371
asg21
I0
sg52
S'481'
p376
sba(iArchitecture
Cluster
p377
(dp378
g7
(lp379
(iArchitecture
Entity
p380
(dp381
g11
(lp382
sg13
S'android.security.keystore.AndroidKeyStoreKeyFactorySpi'
p383
sg15
(lp384
sg17
(lp385
sg19
(lp386
sg21
I0
sbasg50
(lp387
g383
asg21
I0
sg52
S'482'
p388
sba(iArchitecture
Cluster
p389
(dp390
g7
(lp391
(iArchitecture
Entity
p392
(dp393
g11
(lp394
sg13
S'android.net.MailTo'
p395
sg15
(lp396
sg17
(lp397
sg19
(lp398
sg21
I0
sbasg50
(lp399
g395
asg21
I0
sg52
S'483'
p400
sba(iArchitecture
Cluster
p401
(dp402
g7
(lp403
(iArchitecture
Entity
p404
(dp405
g11
(lp406
sg13
S'com.android.server.net.NetworkPolicyManagerShellCommand'
p407
sg15
(lp408
sg17
(lp409
sg19
(lp410
sg21
I0
sbasg50
(lp411
g407
asg21
I0
sg52
S'484'
p412
sba(iArchitecture
Cluster
p413
(dp414
g7
(lp415
(iArchitecture
Entity
p416
(dp417
g11
(lp418
sg13
S'android.graphics.PaintFlagsDrawFilter'
p419
sg15
(lp420
sg17
(lp421
sg19
(lp422
sg21
I0
sbasg50
(lp423
g419
asg21
I0
sg52
S'485'
p424
sba(iArchitecture
Cluster
p425
(dp426
g7
(lp427
(iArchitecture
Entity
p428
(dp429
g11
(lp430
sg13
S'android.telephony.PhoneNumberFormattingTextWatcher'
p431
sg15
(lp432
sg17
(lp433
sg19
(lp434
sg21
I0
sbasg50
(lp435
g431
asg21
I0
sg52
S'486'
p436
sba(iArchitecture
Cluster
p437
(dp438
g7
(lp439
(iArchitecture
Entity
p440
(dp441
g11
(lp442
sg13
S'com.android.server.pm.ShortcutLauncher'
p443
sg15
(lp444
sg17
(lp445
sg19
(lp446
sg21
I0
sbasg50
(lp447
g443
asg21
I0
sg52
S'487'
p448
sba(iArchitecture
Cluster
p449
(dp450
g7
(lp451
(iArchitecture
Entity
p452
(dp453
g11
(lp454
sg13
S'android.content.ComponentCallbacks2'
p455
sg15
(lp456
sg17
(lp457
sg19
(lp458
sg21
I0
sbasg50
(lp459
g455
asg21
I0
sg52
S'488'
p460
sba(iArchitecture
Cluster
p461
(dp462
g7
(lp463
(iArchitecture
Entity
p464
(dp465
g11
(lp466
sg13
S'android.os.health.UidHealthStats'
p467
sg15
(lp468
sg17
(lp469
sg19
(lp470
sg21
I0
sbasg50
(lp471
g467
asg21
I0
sg52
S'489'
p472
sba(iArchitecture
Cluster
p473
(dp474
g7
(lp475
(iArchitecture
Entity
p476
(dp477
g11
(lp478
sg13
S'android.app.ProgressDialog'
p479
sg15
(lp480
sg17
(lp481
sg19
(lp482
sg21
I0
sba(iArchitecture
Entity
p483
(dp484
g11
(lp485
sg13
S'android.app.ProgressDialog$1'
p486
sg15
(lp487
sg17
(lp488
sg19
(lp489
sg21
I0
sbasg50
(lp490
g479
ag486
asg21
I0
sg52
S'548'
p491
sba(iArchitecture
Cluster
p492
(dp493
g7
(lp494
(iArchitecture
Entity
p495
(dp496
g11
(lp497
sg13
S'android.net.nsd.DnsSdTxtRecord'
p498
sg15
(lp499
sg17
(lp500
sg19
(lp501
sg21
I0
sba(iArchitecture
Entity
p502
(dp503
g11
(lp504
sg13
S'android.net.nsd.DnsSdTxtRecord$1'
p505
sg15
(lp506
sg17
(lp507
sg19
(lp508
sg21
I0
sbasg50
(lp509
g498
ag505
asg21
I0
sg52
S'648'
p510
sba(iArchitecture
Cluster
p511
(dp512
g7
(lp513
(iArchitecture
Entity
p514
(dp515
g11
(lp516
sg13
S'android.hardware.camera2.marshal.impl.MarshalQueryableRggbChannelVector'
p517
sg15
(lp518
sg17
(lp519
sg19
(lp520
sg21
I0
sba(iArchitecture
Entity
p521
(dp522
g11
(lp523
sg13
S'android.hardware.camera2.marshal.impl.MarshalQueryableRggbChannelVector$MarshalerRggbChannelVector'
p524
sg15
(lp525
sg17
(lp526
sg19
(lp527
sg21
I0
sbasg50
(lp528
g517
ag524
asg21
I0
sg52
S'748'
p529
sba(iArchitecture
Cluster
p530
(dp531
g7
(lp532
(iArchitecture
Entity
p533
(dp534
g11
(lp535
sg13
S'com.android.internal.widget.PointerLocationView'
p536
sg15
(lp537
sg17
(lp538
sg19
(lp539
sg21
I0
sba(iArchitecture
Entity
p540
(dp541
g11
(lp542
sg13
S'com.android.internal.widget.PointerLocationView$FasterStringBuilder'
p543
sg15
(lp544
sg17
(lp545
sg19
(lp546
sg21
I0
sba(iArchitecture
Entity
p547
(dp548
g11
(lp549
sg13
S'com.android.internal.widget.PointerLocationView$PointerState'
p550
sg15
(lp551
sg17
(lp552
sg19
(lp553
sg21
I0
sbasg50
(lp554
g536
ag543
ag550
asg21
I0
sg52
S'848'
p555
sba(iArchitecture
Cluster
p556
(dp557
g7
(lp558
(iArchitecture
Entity
p559
(dp560
g11
(lp561
sg13
S'android.renderscript.Font'
p562
sg15
(lp563
sg17
(lp564
sg19
(lp565
sg21
I0
sba(iArchitecture
Entity
p566
(dp567
g11
(lp568
sg13
S'android.renderscript.Font$FontFamily'
p569
sg15
(lp570
sg17
(lp571
sg19
(lp572
sg21
I0
sba(iArchitecture
Entity
p573
(dp574
g11
(lp575
sg13
S'android.renderscript.Font$Style'
p576
sg15
(lp577
sg17
(lp578
sg19
(lp579
sg21
I0
sbasg50
(lp580
g562
ag569
ag576
asg21
I0
sg52
S'948'
p581
sbasS'target_sub'
p582
S'48'
p583
sg50
(lp584
sS'is_component_arch'
p585
I01
sg52
S'7.0.0_r1'
p586
sba.