(lp0
(iArchitecture
Architecture
p1
(dp2
S'clusters'
p3
(lp4
(iArchitecture
Cluster
p5
(dp6
S'entities'
p7
(lp8
(iArchitecture
Entity
p9
(dp10
S'issue_ids'
p11
(lp12
sS'name'
p13
S'com.android.server.audio.RotationHelper'
p14
sS'descs'
p15
(lp16
sS'labels'
p17
(lp18
sS'titles'
p19
(lp20
sS'change'
p21
I0
sba(iArchitecture
Entity
p22
(dp23
g11
(lp24
sg13
S'com.android.server.audio.RotationHelper$AudioOrientationListener'
p25
sg15
(lp26
sg17
(lp27
sg19
(lp28
sg21
I0
sba(iArchitecture
Entity
p29
(dp30
g11
(lp31
sg13
S'com.android.server.audio.RotationHelper$AudioWindowOrientationListener'
p32
sg15
(lp33
sg17
(lp34
sg19
(lp35
sg21
I0
sba(iArchitecture
Entity
p36
(dp37
g11
(lp38
sg13
S'com.android.server.audio.RotationHelper$RotationCheckThread'
p39
sg15
(lp40
sg17
(lp41
sg19
(lp42
sg21
I0
sbasS'classes'
p43
(lp44
g14
ag25
ag32
ag39
asg21
I0
sS'label'
p45
S'1027'
p46
sba(iArchitecture
Cluster
p47
(dp48
g7
(lp49
(iArchitecture
Entity
p50
(dp51
g11
(lp52
sg13
S'com.android.internal.view.FloatingActionMode'
p53
sg15
(lp54
sg17
(lp55
sg19
(lp56
sg21
I0
sba(iArchitecture
Entity
p57
(dp58
g11
(lp59
sg13
S'com.android.internal.view.FloatingActionMode$1'
p60
sg15
(lp61
sg17
(lp62
sg19
(lp63
sg21
I0
sba(iArchitecture
Entity
p64
(dp65
g11
(lp66
sg13
S'com.android.internal.view.FloatingActionMode$2'
p67
sg15
(lp68
sg17
(lp69
sg19
(lp70
sg21
I0
sba(iArchitecture
Entity
p71
(dp72
g11
(lp73
sg13
S'com.android.internal.view.FloatingActionMode$3'
p74
sg15
(lp75
sg17
(lp76
sg19
(lp77
sg21
I0
sba(iArchitecture
Entity
p78
(dp79
g11
(lp80
sg13
S'com.android.internal.view.FloatingActionMode$4'
p81
sg15
(lp82
sg17
(lp83
sg19
(lp84
sg21
I0
sba(iArchitecture
Entity
p85
(dp86
g11
(lp87
sg13
S'com.android.internal.view.FloatingActionMode$FloatingToolbarVisibilityHelper'
p88
sg15
(lp89
sg17
(lp90
sg19
(lp91
sg21
I0
sbasg43
(lp92
g53
ag60
ag67
ag74
ag81
ag88
asg21
I0
sg45
S'1127'
p93
sba(iArchitecture
Cluster
p94
(dp95
g7
(lp96
(iArchitecture
Entity
p97
(dp98
g11
(lp99
sg13
S'android.provider.CalendarContract'
p100
sg15
(lp101
sg17
(lp102
sg19
(lp103
sg21
I0
sba(iArchitecture
Entity
p104
(dp105
g11
(lp106
sg13
S'android.provider.CalendarContract$Attendees'
p107
sg15
(lp108
sg17
(lp109
sg19
(lp110
sg21
I0
sba(iArchitecture
Entity
p111
(dp112
g11
(lp113
sg13
S'android.provider.CalendarContract$AttendeesColumns'
p114
sg15
(lp115
sg17
(lp116
sg19
(lp117
sg21
I0
sba(iArchitecture
Entity
p118
(dp119
g11
(lp120
sg13
S'android.provider.CalendarContract$CalendarAlerts'
p121
sg15
(lp122
sg17
(lp123
sg19
(lp124
sg21
I0
sba(iArchitecture
Entity
p125
(dp126
g11
(lp127
sg13
S'android.provider.CalendarContract$CalendarAlertsColumns'
p128
sg15
(lp129
sg17
(lp130
sg19
(lp131
sg21
I0
sba(iArchitecture
Entity
p132
(dp133
g11
(lp134
sg13
S'android.provider.CalendarContract$CalendarCache'
p135
sg15
(lp136
sg17
(lp137
sg19
(lp138
sg21
I0
sba(iArchitecture
Entity
p139
(dp140
g11
(lp141
sg13
S'android.provider.CalendarContract$CalendarCacheColumns'
p142
sg15
(lp143
sg17
(lp144
sg19
(lp145
sg21
I0
sba(iArchitecture
Entity
p146
(dp147
g11
(lp148
sg13
S'android.provider.CalendarContract$CalendarColumns'
p149
sg15
(lp150
sg17
(lp151
sg19
(lp152
sg21
I0
sba(iArchitecture
Entity
p153
(dp154
g11
(lp155
sg13
S'android.provider.CalendarContract$CalendarEntity'
p156
sg15
(lp157
sg17
(lp158
sg19
(lp159
sg21
I0
sba(iArchitecture
Entity
p160
(dp161
g11
(lp162
sg13
S'android.provider.CalendarContract$CalendarEntity$EntityIteratorImpl'
p163
sg15
(lp164
sg17
(lp165
sg19
(lp166
sg21
I0
sba(iArchitecture
Entity
p167
(dp168
g11
(lp169
sg13
S'android.provider.CalendarContract$CalendarMetaData'
p170
sg15
(lp171
sg17
(lp172
sg19
(lp173
sg21
I0
sba(iArchitecture
Entity
p174
(dp175
g11
(lp176
sg13
S'android.provider.CalendarContract$CalendarMetaDataColumns'
p177
sg15
(lp178
sg17
(lp179
sg19
(lp180
sg21
I0
sba(iArchitecture
Entity
p181
(dp182
g11
(lp183
sg13
S'android.provider.CalendarContract$CalendarSyncColumns'
p184
sg15
(lp185
sg17
(lp186
sg19
(lp187
sg21
I0
sba(iArchitecture
Entity
p188
(dp189
g11
(lp190
sg13
S'android.provider.CalendarContract$Calendars'
p191
sg15
(lp192
sg17
(lp193
sg19
(lp194
sg21
I0
sba(iArchitecture
Entity
p195
(dp196
g11
(lp197
sg13
S'android.provider.CalendarContract$Colors'
p198
sg15
(lp199
sg17
(lp200
sg19
(lp201
sg21
I0
sba(iArchitecture
Entity
p202
(dp203
g11
(lp204
sg13
S'android.provider.CalendarContract$ColorsColumns'
p205
sg15
(lp206
sg17
(lp207
sg19
(lp208
sg21
I0
sba(iArchitecture
Entity
p209
(dp210
g11
(lp211
sg13
S'android.provider.CalendarContract$EventDays'
p212
sg15
(lp213
sg17
(lp214
sg19
(lp215
sg21
I0
sba(iArchitecture
Entity
p216
(dp217
g11
(lp218
sg13
S'android.provider.CalendarContract$EventDaysColumns'
p219
sg15
(lp220
sg17
(lp221
sg19
(lp222
sg21
I0
sba(iArchitecture
Entity
p223
(dp224
g11
(lp225
sg13
S'android.provider.CalendarContract$Events'
p226
sg15
(lp227
sg17
(lp228
sg19
(lp229
sg21
I0
sba(iArchitecture
Entity
p230
(dp231
g11
(lp232
sg13
S'android.provider.CalendarContract$EventsColumns'
p233
sg15
(lp234
sg17
(lp235
sg19
(lp236
sg21
I0
sba(iArchitecture
Entity
p237
(dp238
g11
(lp239
sg13
S'android.provider.CalendarContract$EventsEntity'
p240
sg15
(lp241
sg17
(lp242
sg19
(lp243
sg21
I0
sba(iArchitecture
Entity
p244
(dp245
g11
(lp246
sg13
S'android.provider.CalendarContract$EventsEntity$EntityIteratorImpl'
p247
sg15
(lp248
sg17
(lp249
sg19
(lp250
sg21
I0
sba(iArchitecture
Entity
p251
(dp252
g11
(lp253
sg13
S'android.provider.CalendarContract$EventsRawTimes'
p254
sg15
(lp255
sg17
(lp256
sg19
(lp257
sg21
I0
sba(iArchitecture
Entity
p258
(dp259
g11
(lp260
sg13
S'android.provider.CalendarContract$EventsRawTimesColumns'
p261
sg15
(lp262
sg17
(lp263
sg19
(lp264
sg21
I0
sba(iArchitecture
Entity
p265
(dp266
g11
(lp267
sg13
S'android.provider.CalendarContract$ExtendedProperties'
p268
sg15
(lp269
sg17
(lp270
sg19
(lp271
sg21
I0
sba(iArchitecture
Entity
p272
(dp273
g11
(lp274
sg13
S'android.provider.CalendarContract$ExtendedPropertiesColumns'
p275
sg15
(lp276
sg17
(lp277
sg19
(lp278
sg21
I0
sba(iArchitecture
Entity
p279
(dp280
g11
(lp281
sg13
S'android.provider.CalendarContract$Instances'
p282
sg15
(lp283
sg17
(lp284
sg19
(lp285
sg21
I0
sba(iArchitecture
Entity
p286
(dp287
g11
(lp288
sg13
S'android.provider.CalendarContract$Reminders'
p289
sg15
(lp290
sg17
(lp291
sg19
(lp292
sg21
I0
sba(iArchitecture
Entity
p293
(dp294
g11
(lp295
sg13
S'android.provider.CalendarContract$RemindersColumns'
p296
sg15
(lp297
sg17
(lp298
sg19
(lp299
sg21
I0
sba(iArchitecture
Entity
p300
(dp301
g11
(lp302
sg13
S'android.provider.CalendarContract$SyncColumns'
p303
sg15
(lp304
sg17
(lp305
sg19
(lp306
sg21
I0
sba(iArchitecture
Entity
p307
(dp308
g11
(lp309
sg13
S'android.provider.CalendarContract$SyncState'
p310
sg15
(lp311
sg17
(lp312
sg19
(lp313
sg21
I0
sbasg43
(lp314
g100
ag107
ag114
ag121
ag128
ag135
ag142
ag149
ag156
ag163
ag170
ag177
ag184
ag191
ag198
ag205
ag212
ag219
ag226
ag233
ag240
ag247
ag254
ag261
ag268
ag275
ag282
ag289
ag296
ag303
ag310
asg21
I0
sg45
S'1227'
p315
sba(iArchitecture
Cluster
p316
(dp317
g7
(lp318
(iArchitecture
Entity
p319
(dp320
g11
(lp321
sg13
S'android.transition.VisibilityPropagation'
p322
sg15
(lp323
sg17
(lp324
sg19
(lp325
sg21
I0
sbasg43
(lp326
g322
asg21
I0
sg45
S'127'
p327
sba(iArchitecture
Cluster
p328
(dp329
g7
(lp330
(iArchitecture
Entity
p331
(dp332
g11
(lp333
sg13
S'android.view.animation.RotateAnimation'
p334
sg15
(lp335
sg17
(lp336
sg19
(lp337
sg21
I0
sba(iArchitecture
Entity
p338
(dp339
g11
(lp340
sg13
S'android.view.animation.ScaleAnimation'
p341
sg15
(lp342
sg17
(lp343
sg19
(lp344
sg21
I0
sbasg43
(lp345
g334
ag341
asg21
I0
sg45
S'1270'
p346
sba(iArchitecture
Cluster
p347
(dp348
g7
(lp349
(iArchitecture
Entity
p350
(dp351
g11
(lp352
sg13
S'android.app.ActivityTransitionCoordinator'
p353
sg15
(lp354
sg17
(lp355
sg19
(lp356
sg21
I0
sba(iArchitecture
Entity
p357
(dp358
g11
(lp359
sg13
S'android.app.ActivityTransitionCoordinator$1'
p360
sg15
(lp361
sg17
(lp362
sg19
(lp363
sg21
I0
sba(iArchitecture
Entity
p364
(dp365
g11
(lp366
sg13
S'android.app.ActivityTransitionCoordinator$2'
p367
sg15
(lp368
sg17
(lp369
sg19
(lp370
sg21
I0
sba(iArchitecture
Entity
p371
(dp372
g11
(lp373
sg13
S'android.app.ActivityTransitionCoordinator$ContinueTransitionListener'
p374
sg15
(lp375
sg17
(lp376
sg19
(lp377
sg21
I0
sba(iArchitecture
Entity
p378
(dp379
g11
(lp380
sg13
S'android.app.ActivityTransitionCoordinator$FixedEpicenterCallback'
p381
sg15
(lp382
sg17
(lp383
sg19
(lp384
sg21
I0
sba(iArchitecture
Entity
p385
(dp386
g11
(lp387
sg13
S'android.app.ActivityTransitionCoordinator$GhostViewListeners'
p388
sg15
(lp389
sg17
(lp390
sg19
(lp391
sg21
I0
sba(iArchitecture
Entity
p392
(dp393
g11
(lp394
sg13
S'android.app.ActivityTransitionCoordinator$SharedElementOriginalState'
p395
sg15
(lp396
sg17
(lp397
sg19
(lp398
sg21
I0
sba(iArchitecture
Entity
p399
(dp400
g11
(lp401
sg13
S'android.app.EnterTransitionCoordinator'
p402
sg15
(lp403
sg17
(lp404
sg19
(lp405
sg21
I0
sba(iArchitecture
Entity
p406
(dp407
g11
(lp408
sg13
S'android.app.EnterTransitionCoordinator$1'
p409
sg15
(lp410
sg17
(lp411
sg19
(lp412
sg21
I0
sba(iArchitecture
Entity
p413
(dp414
g11
(lp415
sg13
S'android.app.EnterTransitionCoordinator$10'
p416
sg15
(lp417
sg17
(lp418
sg19
(lp419
sg21
I0
sba(iArchitecture
Entity
p420
(dp421
g11
(lp422
sg13
S'android.app.EnterTransitionCoordinator$11'
p423
sg15
(lp424
sg17
(lp425
sg19
(lp426
sg21
I0
sba(iArchitecture
Entity
p427
(dp428
g11
(lp429
sg13
S'android.app.EnterTransitionCoordinator$2'
p430
sg15
(lp431
sg17
(lp432
sg19
(lp433
sg21
I0
sba(iArchitecture
Entity
p434
(dp435
g11
(lp436
sg13
S'android.app.EnterTransitionCoordinator$3'
p437
sg15
(lp438
sg17
(lp439
sg19
(lp440
sg21
I0
sba(iArchitecture
Entity
p441
(dp442
g11
(lp443
sg13
S'android.app.EnterTransitionCoordinator$4'
p444
sg15
(lp445
sg17
(lp446
sg19
(lp447
sg21
I0
sba(iArchitecture
Entity
p448
(dp449
g11
(lp450
sg13
S'android.app.EnterTransitionCoordinator$5'
p451
sg15
(lp452
sg17
(lp453
sg19
(lp454
sg21
I0
sba(iArchitecture
Entity
p455
(dp456
g11
(lp457
sg13
S'android.app.EnterTransitionCoordinator$5$1'
p458
sg15
(lp459
sg17
(lp460
sg19
(lp461
sg21
I0
sba(iArchitecture
Entity
p462
(dp463
g11
(lp464
sg13
S'android.app.EnterTransitionCoordinator$5$1$1'
p465
sg15
(lp466
sg17
(lp467
sg19
(lp468
sg21
I0
sba(iArchitecture
Entity
p469
(dp470
g11
(lp471
sg13
S'android.app.EnterTransitionCoordinator$6'
p472
sg15
(lp473
sg17
(lp474
sg19
(lp475
sg21
I0
sba(iArchitecture
Entity
p476
(dp477
g11
(lp478
sg13
S'android.app.EnterTransitionCoordinator$7'
p479
sg15
(lp480
sg17
(lp481
sg19
(lp482
sg21
I0
sba(iArchitecture
Entity
p483
(dp484
g11
(lp485
sg13
S'android.app.EnterTransitionCoordinator$8'
p486
sg15
(lp487
sg17
(lp488
sg19
(lp489
sg21
I0
sba(iArchitecture
Entity
p490
(dp491
g11
(lp492
sg13
S'android.app.EnterTransitionCoordinator$9'
p493
sg15
(lp494
sg17
(lp495
sg19
(lp496
sg21
I0
sba(iArchitecture
Entity
p497
(dp498
g11
(lp499
sg13
S'android.app.ExitTransitionCoordinator'
p500
sg15
(lp501
sg17
(lp502
sg19
(lp503
sg21
I0
sba(iArchitecture
Entity
p504
(dp505
g11
(lp506
sg13
S'android.app.ExitTransitionCoordinator$1'
p507
sg15
(lp508
sg17
(lp509
sg19
(lp510
sg21
I0
sba(iArchitecture
Entity
p511
(dp512
g11
(lp513
sg13
S'android.app.ExitTransitionCoordinator$10'
p514
sg15
(lp515
sg17
(lp516
sg19
(lp517
sg21
I0
sba(iArchitecture
Entity
p518
(dp519
g11
(lp520
sg13
S'android.app.ExitTransitionCoordinator$11'
p521
sg15
(lp522
sg17
(lp523
sg19
(lp524
sg21
I0
sba(iArchitecture
Entity
p525
(dp526
g11
(lp527
sg13
S'android.app.ExitTransitionCoordinator$2'
p528
sg15
(lp529
sg17
(lp530
sg19
(lp531
sg21
I0
sba(iArchitecture
Entity
p532
(dp533
g11
(lp534
sg13
S'android.app.ExitTransitionCoordinator$3'
p535
sg15
(lp536
sg17
(lp537
sg19
(lp538
sg21
I0
sba(iArchitecture
Entity
p539
(dp540
g11
(lp541
sg13
S'android.app.ExitTransitionCoordinator$4'
p542
sg15
(lp543
sg17
(lp544
sg19
(lp545
sg21
I0
sba(iArchitecture
Entity
p546
(dp547
g11
(lp548
sg13
S'android.app.ExitTransitionCoordinator$5'
p549
sg15
(lp550
sg17
(lp551
sg19
(lp552
sg21
I0
sba(iArchitecture
Entity
p553
(dp554
g11
(lp555
sg13
S'android.app.ExitTransitionCoordinator$6'
p556
sg15
(lp557
sg17
(lp558
sg19
(lp559
sg21
I0
sba(iArchitecture
Entity
p560
(dp561
g11
(lp562
sg13
S'android.app.ExitTransitionCoordinator$7'
p563
sg15
(lp564
sg17
(lp565
sg19
(lp566
sg21
I0
sba(iArchitecture
Entity
p567
(dp568
g11
(lp569
sg13
S'android.app.ExitTransitionCoordinator$8'
p570
sg15
(lp571
sg17
(lp572
sg19
(lp573
sg21
I0
sba(iArchitecture
Entity
p574
(dp575
g11
(lp576
sg13
S'android.app.ExitTransitionCoordinator$9'
p577
sg15
(lp578
sg17
(lp579
sg19
(lp580
sg21
I0
sbasg43
(lp581
g353
ag360
ag367
ag374
ag381
ag388
ag395
ag402
ag409
ag416
ag423
ag430
ag437
ag444
ag451
ag458
ag465
ag472
ag479
ag486
ag493
ag500
ag507
ag514
ag521
ag528
ag535
ag542
ag549
ag556
ag563
ag570
ag577
asg21
I0
sg45
S'1271'
p582
sba(iArchitecture
Cluster
p583
(dp584
g7
(lp585
(iArchitecture
Entity
p586
(dp587
g11
(lp588
sg13
S'com.android.server.wm.CircularDisplayMask'
p589
sg15
(lp590
sg17
(lp591
sg19
(lp592
sg21
I0
sba(iArchitecture
Entity
p593
(dp594
g11
(lp595
sg13
S'com.android.server.wm.EmulatorDisplayOverlay'
p596
sg15
(lp597
sg17
(lp598
sg19
(lp599
sg21
I0
sba(iArchitecture
Entity
p600
(dp601
g11
(lp602
sg13
S'com.android.server.wm.StrictModeFlash'
p603
sg15
(lp604
sg17
(lp605
sg19
(lp606
sg21
I0
sba(iArchitecture
Entity
p607
(dp608
g11
(lp609
sg13
S'com.android.server.wm.Watermark'
p610
sg15
(lp611
sg17
(lp612
sg19
(lp613
sg21
I0
sbasg43
(lp614
g589
ag596
ag603
ag610
asg21
I0
sg45
S'1272'
p615
sba(iArchitecture
Cluster
p616
(dp617
g7
(lp618
(iArchitecture
Entity
p619
(dp620
g11
(lp621
sg13
S'android.bluetooth.le.AdvertiseData'
p622
sg15
(lp623
sg17
(lp624
sg19
(lp625
sg21
I0
sba(iArchitecture
Entity
p626
(dp627
g11
(lp628
sg13
S'android.bluetooth.le.AdvertiseData$1'
p629
sg15
(lp630
sg17
(lp631
sg19
(lp632
sg21
I0
sba(iArchitecture
Entity
p633
(dp634
g11
(lp635
sg13
S'android.bluetooth.le.AdvertiseData$Builder'
p636
sg15
(lp637
sg17
(lp638
sg19
(lp639
sg21
I0
sba(iArchitecture
Entity
p640
(dp641
g11
(lp642
sg13
S'android.bluetooth.le.ScanRecord'
p643
sg15
(lp644
sg17
(lp645
sg19
(lp646
sg21
I0
sbasg43
(lp647
g622
ag629
ag636
ag643
asg21
I0
sg45
S'1273'
p648
sba(iArchitecture
Cluster
p649
(dp650
g7
(lp651
(iArchitecture
Entity
p652
(dp653
g11
(lp654
sg13
S'android.widget.ResourceCursorTreeAdapter'
p655
sg15
(lp656
sg17
(lp657
sg19
(lp658
sg21
I0
sba(iArchitecture
Entity
p659
(dp660
g11
(lp661
sg13
S'android.widget.SimpleCursorTreeAdapter'
p662
sg15
(lp663
sg17
(lp664
sg19
(lp665
sg21
I0
sba(iArchitecture
Entity
p666
(dp667
g11
(lp668
sg13
S'android.widget.SimpleCursorTreeAdapter$ViewBinder'
p669
sg15
(lp670
sg17
(lp671
sg19
(lp672
sg21
I0
sba(iArchitecture
Entity
p673
(dp674
g11
(lp675
sg13
S'android.widget.SimpleExpandableListAdapter'
p676
sg15
(lp677
sg17
(lp678
sg19
(lp679
sg21
I0
sbasg43
(lp680
g655
ag662
ag669
ag676
asg21
I0
sg45
S'1274'
p681
sba(iArchitecture
Cluster
p682
(dp683
g7
(lp684
(iArchitecture
Entity
p685
(dp686
g11
(lp687
sg13
S'com.android.server.firewall.PortFilter'
p688
sg15
(lp689
sg17
(lp690
sg19
(lp691
sg21
I0
sba(iArchitecture
Entity
p692
(dp693
g11
(lp694
sg13
S'com.android.server.firewall.PortFilter$1'
p695
sg15
(lp696
sg17
(lp697
sg19
(lp698
sg21
I0
sba(iArchitecture
Entity
p699
(dp700
g11
(lp701
sg13
S'com.android.server.pm.CrossProfileIntentFilter'
p702
sg15
(lp703
sg17
(lp704
sg19
(lp705
sg21
I0
sba(iArchitecture
Entity
p706
(dp707
g11
(lp708
sg13
S'com.android.server.pm.PersistentPreferredActivity'
p709
sg15
(lp710
sg17
(lp711
sg19
(lp712
sg21
I0
sba(iArchitecture
Entity
p713
(dp714
g11
(lp715
sg13
S'com.android.server.pm.PreferredActivity'
p716
sg15
(lp717
sg17
(lp718
sg19
(lp719
sg21
I0
sbasg43
(lp720
g688
ag695
ag702
ag709
ag716
asg21
I0
sg45
S'1275'
p721
sba(iArchitecture
Cluster
p722
(dp723
g7
(lp724
(iArchitecture
Entity
p725
(dp726
g11
(lp727
sg13
S'android.hardware.camera2.utils.TaskDrainer'
p728
sg15
(lp729
sg17
(lp730
sg19
(lp731
sg21
I0
sba(iArchitecture
Entity
p732
(dp733
g11
(lp734
sg13
S'android.hardware.camera2.utils.TaskDrainer$1'
p735
sg15
(lp736
sg17
(lp737
sg19
(lp738
sg21
I0
sba(iArchitecture
Entity
p739
(dp740
g11
(lp741
sg13
S'android.hardware.camera2.utils.TaskDrainer$DrainListener'
p742
sg15
(lp743
sg17
(lp744
sg19
(lp745
sg21
I0
sba(iArchitecture
Entity
p746
(dp747
g11
(lp748
sg13
S'android.hardware.camera2.utils.TaskSingleDrainer'
p749
sg15
(lp750
sg17
(lp751
sg19
(lp752
sg21
I0
sbasg43
(lp753
g728
ag735
ag742
ag749
asg21
I0
sg45
S'1276'
p754
sba(iArchitecture
Cluster
p755
(dp756
g7
(lp757
(iArchitecture
Entity
p758
(dp759
g11
(lp760
sg13
S'android.net.netlink.RtNetlinkNeighborMessage'
p761
sg15
(lp762
sg17
(lp763
sg19
(lp764
sg21
I0
sba(iArchitecture
Entity
p765
(dp766
g11
(lp767
sg13
S'android.net.netlink.StructNlAttr'
p768
sg15
(lp769
sg17
(lp770
sg19
(lp771
sg21
I0
sba(iArchitecture
Entity
p772
(dp773
g11
(lp774
sg13
S'android.net.netlink.StructNlMsgHdr'
p775
sg15
(lp776
sg17
(lp777
sg19
(lp778
sg21
I0
sbasg43
(lp779
g761
ag768
ag775
asg21
I0
sg45
S'1277'
p780
sba(iArchitecture
Cluster
p781
(dp782
g7
(lp783
(iArchitecture
Entity
p784
(dp785
g11
(lp786
sg13
S'android.gesture.Gesture'
p787
sg15
(lp788
sg17
(lp789
sg19
(lp790
sg21
I0
sba(iArchitecture
Entity
p791
(dp792
g11
(lp793
sg13
S'android.gesture.Gesture$1'
p794
sg15
(lp795
sg17
(lp796
sg19
(lp797
sg21
I0
sba(iArchitecture
Entity
p798
(dp799
g11
(lp800
sg13
S'android.gesture.GestureStore'
p801
sg15
(lp802
sg17
(lp803
sg19
(lp804
sg21
I0
sbasg43
(lp805
g787
ag794
ag801
asg21
I0
sg45
S'1278'
p806
sba(iArchitecture
Cluster
p807
(dp808
g7
(lp809
(iArchitecture
Entity
p810
(dp811
g11
(lp812
sg13
S'android.opengl.GLES20'
p813
sg15
(lp814
sg17
(lp815
sg19
(lp816
sg21
I0
sba(iArchitecture
Entity
p817
(dp818
g11
(lp819
sg13
S'android.opengl.GLES30'
p820
sg15
(lp821
sg17
(lp822
sg19
(lp823
sg21
I0
sba(iArchitecture
Entity
p824
(dp825
g11
(lp826
sg13
S'android.opengl.GLES31'
p827
sg15
(lp828
sg17
(lp829
sg19
(lp830
sg21
I0
sbasg43
(lp831
g813
ag820
ag827
asg21
I0
sg45
S'1279'
p832
sba(iArchitecture
Cluster
p833
(dp834
g7
(lp835
(iArchitecture
Entity
p836
(dp837
g11
(lp838
sg13
S'android.security.keystore.AndroidKeyStoreAuthenticatedAESCipherSpi'
p839
sg15
(lp840
sg17
(lp841
sg19
(lp842
sg21
I0
sba(iArchitecture
Entity
p843
(dp844
g11
(lp845
sg13
S'android.security.keystore.AndroidKeyStoreAuthenticatedAESCipherSpi$AdditionalAuthenticationDataStream'
p846
sg15
(lp847
sg17
(lp848
sg19
(lp849
sg21
I0
sba(iArchitecture
Entity
p850
(dp851
g11
(lp852
sg13
S'android.security.keystore.AndroidKeyStoreAuthenticatedAESCipherSpi$BufferAllOutputUntilDoFinalStreamer'
p853
sg15
(lp854
sg17
(lp855
sg19
(lp856
sg21
I0
sba(iArchitecture
Entity
p857
(dp858
g11
(lp859
sg13
S'android.security.keystore.AndroidKeyStoreAuthenticatedAESCipherSpi$GCM'
p860
sg15
(lp861
sg17
(lp862
sg19
(lp863
sg21
I0
sba(iArchitecture
Entity
p864
(dp865
g11
(lp866
sg13
S'android.security.keystore.AndroidKeyStoreAuthenticatedAESCipherSpi$GCM$NoPadding'
p867
sg15
(lp868
sg17
(lp869
sg19
(lp870
sg21
I0
sba(iArchitecture
Entity
p871
(dp872
g11
(lp873
sg13
S'android.security.keystore.AndroidKeyStoreCipherSpiBase'
p874
sg15
(lp875
sg17
(lp876
sg19
(lp877
sg21
I0
sba(iArchitecture
Entity
p878
(dp879
g11
(lp880
sg13
S'android.security.keystore.AndroidKeyStoreECDSASignatureSpi'
p881
sg15
(lp882
sg17
(lp883
sg19
(lp884
sg21
I0
sba(iArchitecture
Entity
p885
(dp886
g11
(lp887
sg13
S'android.security.keystore.AndroidKeyStoreECDSASignatureSpi$NONE'
p888
sg15
(lp889
sg17
(lp890
sg19
(lp891
sg21
I0
sba(iArchitecture
Entity
p892
(dp893
g11
(lp894
sg13
S'android.security.keystore.AndroidKeyStoreECDSASignatureSpi$NONE$TruncateToFieldSizeMessageStreamer'
p895
sg15
(lp896
sg17
(lp897
sg19
(lp898
sg21
I0
sba(iArchitecture
Entity
p899
(dp900
g11
(lp901
sg13
S'android.security.keystore.AndroidKeyStoreECDSASignatureSpi$SHA1'
p902
sg15
(lp903
sg17
(lp904
sg19
(lp905
sg21
I0
sba(iArchitecture
Entity
p906
(dp907
g11
(lp908
sg13
S'android.security.keystore.AndroidKeyStoreECDSASignatureSpi$SHA224'
p909
sg15
(lp910
sg17
(lp911
sg19
(lp912
sg21
I0
sba(iArchitecture
Entity
p913
(dp914
g11
(lp915
sg13
S'android.security.keystore.AndroidKeyStoreECDSASignatureSpi$SHA256'
p916
sg15
(lp917
sg17
(lp918
sg19
(lp919
sg21
I0
sba(iArchitecture
Entity
p920
(dp921
g11
(lp922
sg13
S'android.security.keystore.AndroidKeyStoreECDSASignatureSpi$SHA384'
p923
sg15
(lp924
sg17
(lp925
sg19
(lp926
sg21
I0
sba(iArchitecture
Entity
p927
(dp928
g11
(lp929
sg13
S'android.security.keystore.AndroidKeyStoreECDSASignatureSpi$SHA512'
p930
sg15
(lp931
sg17
(lp932
sg19
(lp933
sg21
I0
sba(iArchitecture
Entity
p934
(dp935
g11
(lp936
sg13
S'android.security.keystore.AndroidKeyStoreHmacSpi'
p937
sg15
(lp938
sg17
(lp939
sg19
(lp940
sg21
I0
sba(iArchitecture
Entity
p941
(dp942
g11
(lp943
sg13
S'android.security.keystore.AndroidKeyStoreHmacSpi$HmacSHA1'
p944
sg15
(lp945
sg17
(lp946
sg19
(lp947
sg21
I0
sba(iArchitecture
Entity
p948
(dp949
g11
(lp950
sg13
S'android.security.keystore.AndroidKeyStoreHmacSpi$HmacSHA224'
p951
sg15
(lp952
sg17
(lp953
sg19
(lp954
sg21
I0
sba(iArchitecture
Entity
p955
(dp956
g11
(lp957
sg13
S'android.security.keystore.AndroidKeyStoreHmacSpi$HmacSHA256'
p958
sg15
(lp959
sg17
(lp960
sg19
(lp961
sg21
I0
sba(iArchitecture
Entity
p962
(dp963
g11
(lp964
sg13
S'android.security.keystore.AndroidKeyStoreHmacSpi$HmacSHA384'
p965
sg15
(lp966
sg17
(lp967
sg19
(lp968
sg21
I0
sba(iArchitecture
Entity
p969
(dp970
g11
(lp971
sg13
S'android.security.keystore.AndroidKeyStoreHmacSpi$HmacSHA512'
p972
sg15
(lp973
sg17
(lp974
sg19
(lp975
sg21
I0
sba(iArchitecture
Entity
p976
(dp977
g11
(lp978
sg13
S'android.security.keystore.AndroidKeyStoreKeyGeneratorSpi'
p979
sg15
(lp980
sg17
(lp981
sg19
(lp982
sg21
I0
sba(iArchitecture
Entity
p983
(dp984
g11
(lp985
sg13
S'android.security.keystore.AndroidKeyStoreKeyGeneratorSpi$AES'
p986
sg15
(lp987
sg17
(lp988
sg19
(lp989
sg21
I0
sba(iArchitecture
Entity
p990
(dp991
g11
(lp992
sg13
S'android.security.keystore.AndroidKeyStoreKeyGeneratorSpi$HmacBase'
p993
sg15
(lp994
sg17
(lp995
sg19
(lp996
sg21
I0
sba(iArchitecture
Entity
p997
(dp998
g11
(lp999
sg13
S'android.security.keystore.AndroidKeyStoreKeyGeneratorSpi$HmacSHA1'
p1000
sg15
(lp1001
sg17
(lp1002
sg19
(lp1003
sg21
I0
sba(iArchitecture
Entity
p1004
(dp1005
g11
(lp1006
sg13
S'android.security.keystore.AndroidKeyStoreKeyGeneratorSpi$HmacSHA224'
p1007
sg15
(lp1008
sg17
(lp1009
sg19
(lp1010
sg21
I0
sba(iArchitecture
Entity
p1011
(dp1012
g11
(lp1013
sg13
S'android.security.keystore.AndroidKeyStoreKeyGeneratorSpi$HmacSHA256'
p1014
sg15
(lp1015
sg17
(lp1016
sg19
(lp1017
sg21
I0
sba(iArchitecture
Entity
p1018
(dp1019
g11
(lp1020
sg13
S'android.security.keystore.AndroidKeyStoreKeyGeneratorSpi$HmacSHA384'
p1021
sg15
(lp1022
sg17
(lp1023
sg19
(lp1024
sg21
I0
sba(iArchitecture
Entity
p1025
(dp1026
g11
(lp1027
sg13
S'android.security.keystore.AndroidKeyStoreKeyGeneratorSpi$HmacSHA512'
p1028
sg15
(lp1029
sg17
(lp1030
sg19
(lp1031
sg21
I0
sba(iArchitecture
Entity
p1032
(dp1033
g11
(lp1034
sg13
S'android.security.keystore.AndroidKeyStoreKeyPairGeneratorSpi'
p1035
sg15
(lp1036
sg17
(lp1037
sg19
(lp1038
sg21
I0
sba(iArchitecture
Entity
p1039
(dp1040
g11
(lp1041
sg13
S'android.security.keystore.AndroidKeyStoreKeyPairGeneratorSpi$EC'
p1042
sg15
(lp1043
sg17
(lp1044
sg19
(lp1045
sg21
I0
sba(iArchitecture
Entity
p1046
(dp1047
g11
(lp1048
sg13
S'android.security.keystore.AndroidKeyStoreKeyPairGeneratorSpi$RSA'
p1049
sg15
(lp1050
sg17
(lp1051
sg19
(lp1052
sg21
I0
sba(iArchitecture
Entity
p1053
(dp1054
g11
(lp1055
sg13
S'android.security.keystore.AndroidKeyStoreRSACipherSpi'
p1056
sg15
(lp1057
sg17
(lp1058
sg19
(lp1059
sg21
I0
sba(iArchitecture
Entity
p1060
(dp1061
g11
(lp1062
sg13
S'android.security.keystore.AndroidKeyStoreRSACipherSpi$NoPadding'
p1063
sg15
(lp1064
sg17
(lp1065
sg19
(lp1066
sg21
I0
sba(iArchitecture
Entity
p1067
(dp1068
g11
(lp1069
sg13
S'android.security.keystore.AndroidKeyStoreRSACipherSpi$OAEPWithMGF1Padding'
p1070
sg15
(lp1071
sg17
(lp1072
sg19
(lp1073
sg21
I0
sba(iArchitecture
Entity
p1074
(dp1075
g11
(lp1076
sg13
S'android.security.keystore.AndroidKeyStoreRSACipherSpi$OAEPWithSHA1AndMGF1Padding'
p1077
sg15
(lp1078
sg17
(lp1079
sg19
(lp1080
sg21
I0
sba(iArchitecture
Entity
p1081
(dp1082
g11
(lp1083
sg13
S'android.security.keystore.AndroidKeyStoreRSACipherSpi$OAEPWithSHA224AndMGF1Padding'
p1084
sg15
(lp1085
sg17
(lp1086
sg19
(lp1087
sg21
I0
sba(iArchitecture
Entity
p1088
(dp1089
g11
(lp1090
sg13
S'android.security.keystore.AndroidKeyStoreRSACipherSpi$OAEPWithSHA256AndMGF1Padding'
p1091
sg15
(lp1092
sg17
(lp1093
sg19
(lp1094
sg21
I0
sba(iArchitecture
Entity
p1095
(dp1096
g11
(lp1097
sg13
S'android.security.keystore.AndroidKeyStoreRSACipherSpi$OAEPWithSHA384AndMGF1Padding'
p1098
sg15
(lp1099
sg17
(lp1100
sg19
(lp1101
sg21
I0
sba(iArchitecture
Entity
p1102
(dp1103
g11
(lp1104
sg13
S'android.security.keystore.AndroidKeyStoreRSACipherSpi$OAEPWithSHA512AndMGF1Padding'
p1105
sg15
(lp1106
sg17
(lp1107
sg19
(lp1108
sg21
I0
sba(iArchitecture
Entity
p1109
(dp1110
g11
(lp1111
sg13
S'android.security.keystore.AndroidKeyStoreRSACipherSpi$PKCS1Padding'
p1112
sg15
(lp1113
sg17
(lp1114
sg19
(lp1115
sg21
I0
sba(iArchitecture
Entity
p1116
(dp1117
g11
(lp1118
sg13
S'android.security.keystore.AndroidKeyStoreSignatureSpiBase'
p1119
sg15
(lp1120
sg17
(lp1121
sg19
(lp1122
sg21
I0
sba(iArchitecture
Entity
p1123
(dp1124
g11
(lp1125
sg13
S'android.security.keystore.AndroidKeyStoreUnauthenticatedAESCipherSpi'
p1126
sg15
(lp1127
sg17
(lp1128
sg19
(lp1129
sg21
I0
sba(iArchitecture
Entity
p1130
(dp1131
g11
(lp1132
sg13
S'android.security.keystore.AndroidKeyStoreUnauthenticatedAESCipherSpi$CBC'
p1133
sg15
(lp1134
sg17
(lp1135
sg19
(lp1136
sg21
I0
sba(iArchitecture
Entity
p1137
(dp1138
g11
(lp1139
sg13
S'android.security.keystore.AndroidKeyStoreUnauthenticatedAESCipherSpi$CBC$NoPadding'
p1140
sg15
(lp1141
sg17
(lp1142
sg19
(lp1143
sg21
I0
sba(iArchitecture
Entity
p1144
(dp1145
g11
(lp1146
sg13
S'android.security.keystore.AndroidKeyStoreUnauthenticatedAESCipherSpi$CBC$PKCS7Padding'
p1147
sg15
(lp1148
sg17
(lp1149
sg19
(lp1150
sg21
I0
sba(iArchitecture
Entity
p1151
(dp1152
g11
(lp1153
sg13
S'android.security.keystore.AndroidKeyStoreUnauthenticatedAESCipherSpi$CTR'
p1154
sg15
(lp1155
sg17
(lp1156
sg19
(lp1157
sg21
I0
sba(iArchitecture
Entity
p1158
(dp1159
g11
(lp1160
sg13
S'android.security.keystore.AndroidKeyStoreUnauthenticatedAESCipherSpi$CTR$NoPadding'
p1161
sg15
(lp1162
sg17
(lp1163
sg19
(lp1164
sg21
I0
sba(iArchitecture
Entity
p1165
(dp1166
g11
(lp1167
sg13
S'android.security.keystore.AndroidKeyStoreUnauthenticatedAESCipherSpi$ECB'
p1168
sg15
(lp1169
sg17
(lp1170
sg19
(lp1171
sg21
I0
sba(iArchitecture
Entity
p1172
(dp1173
g11
(lp1174
sg13
S'android.security.keystore.AndroidKeyStoreUnauthenticatedAESCipherSpi$ECB$NoPadding'
p1175
sg15
(lp1176
sg17
(lp1177
sg19
(lp1178
sg21
I0
sba(iArchitecture
Entity
p1179
(dp1180
g11
(lp1181
sg13
S'android.security.keystore.AndroidKeyStoreUnauthenticatedAESCipherSpi$ECB$PKCS7Padding'
p1182
sg15
(lp1183
sg17
(lp1184
sg19
(lp1185
sg21
I0
sba(iArchitecture
Entity
p1186
(dp1187
g11
(lp1188
sg13
S'android.security.keystore.KeymasterUtils'
p1189
sg15
(lp1190
sg17
(lp1191
sg19
(lp1192
sg21
I0
sbasg43
(lp1193
g839
ag846
ag853
ag860
ag867
ag874
ag881
ag888
ag895
ag902
ag909
ag916
ag923
ag930
ag937
ag944
ag951
ag958
ag965
ag972
ag979
ag986
ag993
ag1000
ag1007
ag1014
ag1021
ag1028
ag1035
ag1042
ag1049
ag1056
ag1063
ag1070
ag1077
ag1084
ag1091
ag1098
ag1105
ag1112
ag1119
ag1126
ag1133
ag1140
ag1147
ag1154
ag1161
ag1168
ag1175
ag1182
ag1189
asg21
I0
sg45
S'1327'
p1194
sba(iArchitecture
Cluster
p1195
(dp1196
g7
(lp1197
(iArchitecture
Entity
p1198
(dp1199
g11
(lp1200
sg13
S'android.media.MediaMetadataRetriever'
p1201
sg15
(lp1202
sg17
(lp1203
sg19
(lp1204
sg21
I0
sbasg43
(lp1205
g1201
asg21
I0
sg45
S'227'
p1206
sba(iArchitecture
Cluster
p1207
(dp1208
g7
(lp1209
(iArchitecture
Entity
p1210
(dp1211
g11
(lp1212
sg13
S'com.android.internal.os.MobileRadioPowerCalculator'
p1213
sg15
(lp1214
sg17
(lp1215
sg19
(lp1216
sg21
I0
sbasg43
(lp1217
g1213
asg21
I0
sg45
S'27'
p1218
sba(iArchitecture
Cluster
p1219
(dp1220
g7
(lp1221
(iArchitecture
Entity
p1222
(dp1223
g11
(lp1224
sg13
S'android.database.BulkCursorToCursorAdaptor'
p1225
sg15
(lp1226
sg17
(lp1227
sg19
(lp1228
sg21
I0
sbasg43
(lp1229
g1225
asg21
I0
sg45
S'270'
p1230
sba(iArchitecture
Cluster
p1231
(dp1232
g7
(lp1233
(iArchitecture
Entity
p1234
(dp1235
g11
(lp1236
sg13
S'android.text.SpanSet'
p1237
sg15
(lp1238
sg17
(lp1239
sg19
(lp1240
sg21
I0
sbasg43
(lp1241
g1237
asg21
I0
sg45
S'271'
p1242
sba(iArchitecture
Cluster
p1243
(dp1244
g7
(lp1245
(iArchitecture
Entity
p1246
(dp1247
g11
(lp1248
sg13
S'android.speech.tts.SynthesisRequest'
p1249
sg15
(lp1250
sg17
(lp1251
sg19
(lp1252
sg21
I0
sbasg43
(lp1253
g1249
asg21
I0
sg45
S'272'
p1254
sba(iArchitecture
Cluster
p1255
(dp1256
g7
(lp1257
(iArchitecture
Entity
p1258
(dp1259
g11
(lp1260
sg13
S'android.database.sqlite.SqliteWrapper'
p1261
sg15
(lp1262
sg17
(lp1263
sg19
(lp1264
sg21
I0
sbasg43
(lp1265
g1261
asg21
I0
sg45
S'273'
p1266
sba(iArchitecture
Cluster
p1267
(dp1268
g7
(lp1269
(iArchitecture
Entity
p1270
(dp1271
g11
(lp1272
sg13
S'android.print.pdf.PrintedPdfDocument'
p1273
sg15
(lp1274
sg17
(lp1275
sg19
(lp1276
sg21
I0
sbasg43
(lp1277
g1273
asg21
I0
sg45
S'274'
p1278
sba(iArchitecture
Cluster
p1279
(dp1280
g7
(lp1281
(iArchitecture
Entity
p1282
(dp1283
g11
(lp1284
sg13
S'android.bluetooth.BluetoothAssignedNumbers'
p1285
sg15
(lp1286
sg17
(lp1287
sg19
(lp1288
sg21
I0
sbasg43
(lp1289
g1285
asg21
I0
sg45
S'275'
p1290
sba(iArchitecture
Cluster
p1291
(dp1292
g7
(lp1293
(iArchitecture
Entity
p1294
(dp1295
g11
(lp1296
sg13
S'com.android.server.SystemService'
p1297
sg15
(lp1298
sg17
(lp1299
sg19
(lp1300
sg21
I0
sbasg43
(lp1301
g1297
asg21
I0
sg45
S'276'
p1302
sba(iArchitecture
Cluster
p1303
(dp1304
g7
(lp1305
(iArchitecture
Entity
p1306
(dp1307
g11
(lp1308
sg13
S'javax.microedition.khronos.opengles.GL11ExtensionPack'
p1309
sg15
(lp1310
sg17
(lp1311
sg19
(lp1312
sg21
I0
sbasg43
(lp1313
g1309
asg21
I0
sg45
S'277'
p1314
sba(iArchitecture
Cluster
p1315
(dp1316
g7
(lp1317
(iArchitecture
Entity
p1318
(dp1319
g11
(lp1320
sg13
S'android.text.AutoText'
p1321
sg15
(lp1322
sg17
(lp1323
sg19
(lp1324
sg21
I0
sbasg43
(lp1325
g1321
asg21
I0
sg45
S'278'
p1326
sba(iArchitecture
Cluster
p1327
(dp1328
g7
(lp1329
(iArchitecture
Entity
p1330
(dp1331
g11
(lp1332
sg13
S'com.android.internal.widget.LinearLayoutWithDefaultTouchRecepient'
p1333
sg15
(lp1334
sg17
(lp1335
sg19
(lp1336
sg21
I0
sbasg43
(lp1337
g1333
asg21
I0
sg45
S'279'
p1338
sba(iArchitecture
Cluster
p1339
(dp1340
g7
(lp1341
(iArchitecture
Entity
p1342
(dp1343
g11
(lp1344
sg13
S'android.graphics.ComposeShader'
p1345
sg15
(lp1346
sg17
(lp1347
sg19
(lp1348
sg21
I0
sbasg43
(lp1349
g1345
asg21
I0
sg45
S'327'
p1350
sba(iArchitecture
Cluster
p1351
(dp1352
g7
(lp1353
(iArchitecture
Entity
p1354
(dp1355
g11
(lp1356
sg13
S'android.net.NetworkAgent'
p1357
sg15
(lp1358
sg17
(lp1359
sg19
(lp1360
sg21
I0
sbasg43
(lp1361
g1357
asg21
I0
sg45
S'427'
p1362
sba(iArchitecture
Cluster
p1363
(dp1364
g7
(lp1365
(iArchitecture
Entity
p1366
(dp1367
g11
(lp1368
sg13
S'android.content.res.Configuration'
p1369
sg15
(lp1370
sg17
(lp1371
sg19
(lp1372
sg21
I0
sba(iArchitecture
Entity
p1373
(dp1374
g11
(lp1375
sg13
S'android.content.res.Configuration$1'
p1376
sg15
(lp1377
sg17
(lp1378
sg19
(lp1379
sg21
I0
sbasg43
(lp1380
g1369
ag1376
asg21
I0
sg45
S'527'
p1381
sba(iArchitecture
Cluster
p1382
(dp1383
g7
(lp1384
(iArchitecture
Entity
p1385
(dp1386
g11
(lp1387
sg13
S'android.os.Messenger'
p1388
sg15
(lp1389
sg17
(lp1390
sg19
(lp1391
sg21
I0
sba(iArchitecture
Entity
p1392
(dp1393
g11
(lp1394
sg13
S'android.os.Messenger$1'
p1395
sg15
(lp1396
sg17
(lp1397
sg19
(lp1398
sg21
I0
sbasg43
(lp1399
g1388
ag1395
asg21
I0
sg45
S'627'
p1400
sba(iArchitecture
Cluster
p1401
(dp1402
g7
(lp1403
(iArchitecture
Entity
p1404
(dp1405
g11
(lp1406
sg13
S'com.android.internal.widget.ActionBarContextView'
p1407
sg15
(lp1408
sg17
(lp1409
sg19
(lp1410
sg21
I0
sba(iArchitecture
Entity
p1411
(dp1412
g11
(lp1413
sg13
S'com.android.internal.widget.ActionBarContextView$1'
p1414
sg15
(lp1415
sg17
(lp1416
sg19
(lp1417
sg21
I0
sbasg43
(lp1418
g1407
ag1414
asg21
I0
sg45
S'727'
p1419
sba(iArchitecture
Cluster
p1420
(dp1421
g7
(lp1422
(iArchitecture
Entity
p1423
(dp1424
g11
(lp1425
sg13
S'android.nfc.ApduList'
p1426
sg15
(lp1427
sg17
(lp1428
sg19
(lp1429
sg21
I0
sba(iArchitecture
Entity
p1430
(dp1431
g11
(lp1432
sg13
S'android.nfc.ApduList$1'
p1433
sg15
(lp1434
sg17
(lp1435
sg19
(lp1436
sg21
I0
sbasg43
(lp1437
g1426
ag1433
asg21
I0
sg45
S'827'
p1438
sba(iArchitecture
Cluster
p1439
(dp1440
g7
(lp1441
(iArchitecture
Entity
p1442
(dp1443
g11
(lp1444
sg13
S'com.android.internal.telephony.PhoneConstants'
p1445
sg15
(lp1446
sg17
(lp1447
sg19
(lp1448
sg21
I0
sba(iArchitecture
Entity
p1449
(dp1450
g11
(lp1451
sg13
S'com.android.internal.telephony.PhoneConstants$CardUnavailableReason'
p1452
sg15
(lp1453
sg17
(lp1454
sg19
(lp1455
sg21
I0
sba(iArchitecture
Entity
p1456
(dp1457
g11
(lp1458
sg13
S'com.android.internal.telephony.PhoneConstants$DataState'
p1459
sg15
(lp1460
sg17
(lp1461
sg19
(lp1462
sg21
I0
sba(iArchitecture
Entity
p1463
(dp1464
g11
(lp1465
sg13
S'com.android.internal.telephony.PhoneConstants$State'
p1466
sg15
(lp1467
sg17
(lp1468
sg19
(lp1469
sg21
I0
sbasg43
(lp1470
g1445
ag1452
ag1459
ag1466
asg21
I0
sg45
S'927'
p1471
sbasS'target_sub'
p1472
S'27'
p1473
sg43
(lp1474
sS'is_component_arch'
p1475
I01
sg45
S'7.0.0_r1'
p1476
sba.