(lp0
(iArchitecture
Architecture
p1
(dp2
S'clusters'
p3
(lp4
(iArchitecture
Cluster
p5
(dp6
S'entities'
p7
(lp8
(iArchitecture
Entity
p9
(dp10
S'issue_ids'
p11
(lp12
sS'name'
p13
S'com.android.internal.widget.PreferenceImageView'
p14
sS'descs'
p15
(lp16
sS'labels'
p17
(lp18
sS'titles'
p19
(lp20
sS'change'
p21
I0
sbasS'classes'
p22
(lp23
g14
asg21
I0
sS'label'
p24
S'104'
p25
sba(iArchitecture
Cluster
p26
(dp27
g7
(lp28
(iArchitecture
Entity
p29
(dp30
g11
(lp31
sg13
S'android.util.jar.StrictJarFile'
p32
sg15
(lp33
sg17
(lp34
sg19
(lp35
sg21
I0
sba(iArchitecture
Entity
p36
(dp37
g11
(lp38
sg13
S'android.util.jar.StrictJarFile$EntryIterator'
p39
sg15
(lp40
sg17
(lp41
sg19
(lp42
sg21
I0
sba(iArchitecture
Entity
p43
(dp44
g11
(lp45
sg13
S'android.util.jar.StrictJarFile$JarFileInputStream'
p46
sg15
(lp47
sg17
(lp48
sg19
(lp49
sg21
I0
sba(iArchitecture
Entity
p50
(dp51
g11
(lp52
sg13
S'android.util.jar.StrictJarFile$RAFStream'
p53
sg15
(lp54
sg17
(lp55
sg19
(lp56
sg21
I0
sba(iArchitecture
Entity
p57
(dp58
g11
(lp59
sg13
S'android.util.jar.StrictJarFile$ZipInflaterInputStream'
p60
sg15
(lp61
sg17
(lp62
sg19
(lp63
sg21
I0
sbasg22
(lp64
g32
ag39
ag46
ag53
ag60
asg21
I0
sg24
S'1040'
p65
sba(iArchitecture
Cluster
p66
(dp67
g7
(lp68
(iArchitecture
Entity
p69
(dp70
g11
(lp71
sg13
S'com.android.server.usb.UsbSettingsManager'
p72
sg15
(lp73
sg17
(lp74
sg19
(lp75
sg21
I0
sba(iArchitecture
Entity
p76
(dp77
g11
(lp78
sg13
S'com.android.server.usb.UsbSettingsManager$1'
p79
sg15
(lp80
sg17
(lp81
sg19
(lp82
sg21
I0
sba(iArchitecture
Entity
p83
(dp84
g11
(lp85
sg13
S'com.android.server.usb.UsbSettingsManager$AccessoryFilter'
p86
sg15
(lp87
sg17
(lp88
sg19
(lp89
sg21
I0
sba(iArchitecture
Entity
p90
(dp91
g11
(lp92
sg13
S'com.android.server.usb.UsbSettingsManager$DeviceFilter'
p93
sg15
(lp94
sg17
(lp95
sg19
(lp96
sg21
I0
sba(iArchitecture
Entity
p97
(dp98
g11
(lp99
sg13
S'com.android.server.usb.UsbSettingsManager$MyPackageMonitor'
p100
sg15
(lp101
sg17
(lp102
sg19
(lp103
sg21
I0
sbasg22
(lp104
g72
ag79
ag86
ag93
ag100
asg21
I0
sg24
S'1041'
p105
sba(iArchitecture
Cluster
p106
(dp107
g7
(lp108
(iArchitecture
Entity
p109
(dp110
g11
(lp111
sg13
S'android.widget.FastScroller'
p112
sg15
(lp113
sg17
(lp114
sg19
(lp115
sg21
I0
sba(iArchitecture
Entity
p116
(dp117
g11
(lp118
sg13
S'android.widget.FastScroller$1'
p119
sg15
(lp120
sg17
(lp121
sg19
(lp122
sg21
I0
sba(iArchitecture
Entity
p123
(dp124
g11
(lp125
sg13
S'android.widget.FastScroller$2'
p126
sg15
(lp127
sg17
(lp128
sg19
(lp129
sg21
I0
sba(iArchitecture
Entity
p130
(dp131
g11
(lp132
sg13
S'android.widget.FastScroller$3'
p133
sg15
(lp134
sg17
(lp135
sg19
(lp136
sg21
I0
sba(iArchitecture
Entity
p137
(dp138
g11
(lp139
sg13
S'android.widget.FastScroller$4'
p140
sg15
(lp141
sg17
(lp142
sg19
(lp143
sg21
I0
sba(iArchitecture
Entity
p144
(dp145
g11
(lp146
sg13
S'android.widget.FastScroller$5'
p147
sg15
(lp148
sg17
(lp149
sg19
(lp150
sg21
I0
sba(iArchitecture
Entity
p151
(dp152
g11
(lp153
sg13
S'android.widget.FastScroller$6'
p154
sg15
(lp155
sg17
(lp156
sg19
(lp157
sg21
I0
sbasg22
(lp158
g112
ag119
ag126
ag133
ag140
ag147
ag154
asg21
I0
sg24
S'1042'
p159
sba(iArchitecture
Cluster
p160
(dp161
g7
(lp162
(iArchitecture
Entity
p163
(dp164
g11
(lp165
sg13
S'android.media.SoundPool'
p166
sg15
(lp167
sg17
(lp168
sg19
(lp169
sg21
I0
sba(iArchitecture
Entity
p170
(dp171
g11
(lp172
sg13
S'android.media.SoundPool$1'
p173
sg15
(lp174
sg17
(lp175
sg19
(lp176
sg21
I0
sba(iArchitecture
Entity
p177
(dp178
g11
(lp179
sg13
S'android.media.SoundPool$Builder'
p180
sg15
(lp181
sg17
(lp182
sg19
(lp183
sg21
I0
sba(iArchitecture
Entity
p184
(dp185
g11
(lp186
sg13
S'android.media.SoundPool$EventHandler'
p187
sg15
(lp188
sg17
(lp189
sg19
(lp190
sg21
I0
sba(iArchitecture
Entity
p191
(dp192
g11
(lp193
sg13
S'android.media.SoundPool$OnLoadCompleteListener'
p194
sg15
(lp195
sg17
(lp196
sg19
(lp197
sg21
I0
sbasg22
(lp198
g166
ag173
ag180
ag187
ag194
asg21
I0
sg24
S'1043'
p199
sba(iArchitecture
Cluster
p200
(dp201
g7
(lp202
(iArchitecture
Entity
p203
(dp204
g11
(lp205
sg13
S'com.android.internal.widget.SlidingTab'
p206
sg15
(lp207
sg17
(lp208
sg19
(lp209
sg21
I0
sba(iArchitecture
Entity
p210
(dp211
g11
(lp212
sg13
S'com.android.internal.widget.SlidingTab$1'
p213
sg15
(lp214
sg17
(lp215
sg19
(lp216
sg21
I0
sba(iArchitecture
Entity
p217
(dp218
g11
(lp219
sg13
S'com.android.internal.widget.SlidingTab$2'
p220
sg15
(lp221
sg17
(lp222
sg19
(lp223
sg21
I0
sba(iArchitecture
Entity
p224
(dp225
g11
(lp226
sg13
S'com.android.internal.widget.SlidingTab$OnTriggerListener'
p227
sg15
(lp228
sg17
(lp229
sg19
(lp230
sg21
I0
sba(iArchitecture
Entity
p231
(dp232
g11
(lp233
sg13
S'com.android.internal.widget.SlidingTab$Slider'
p234
sg15
(lp235
sg17
(lp236
sg19
(lp237
sg21
I0
sbasg22
(lp238
g206
ag213
ag220
ag227
ag234
asg21
I0
sg24
S'1044'
p239
sba(iArchitecture
Cluster
p240
(dp241
g7
(lp242
(iArchitecture
Entity
p243
(dp244
g11
(lp245
sg13
S'android.speech.SpeechRecognizer'
p246
sg15
(lp247
sg17
(lp248
sg19
(lp249
sg21
I0
sba(iArchitecture
Entity
p250
(dp251
g11
(lp252
sg13
S'android.speech.SpeechRecognizer$1'
p253
sg15
(lp254
sg17
(lp255
sg19
(lp256
sg21
I0
sba(iArchitecture
Entity
p257
(dp258
g11
(lp259
sg13
S'android.speech.SpeechRecognizer$Connection'
p260
sg15
(lp261
sg17
(lp262
sg19
(lp263
sg21
I0
sba(iArchitecture
Entity
p264
(dp265
g11
(lp266
sg13
S'android.speech.SpeechRecognizer$InternalListener'
p267
sg15
(lp268
sg17
(lp269
sg19
(lp270
sg21
I0
sba(iArchitecture
Entity
p271
(dp272
g11
(lp273
sg13
S'android.speech.SpeechRecognizer$InternalListener$1'
p274
sg15
(lp275
sg17
(lp276
sg19
(lp277
sg21
I0
sbasg22
(lp278
g246
ag253
ag260
ag267
ag274
asg21
I0
sg24
S'1045'
p279
sba(iArchitecture
Cluster
p280
(dp281
g7
(lp282
(iArchitecture
Entity
p283
(dp284
g11
(lp285
sg13
S'android.widget.ExpandableListConnector'
p286
sg15
(lp287
sg17
(lp288
sg19
(lp289
sg21
I0
sba(iArchitecture
Entity
p290
(dp291
g11
(lp292
sg13
S'android.widget.ExpandableListConnector$GroupMetadata'
p293
sg15
(lp294
sg17
(lp295
sg19
(lp296
sg21
I0
sba(iArchitecture
Entity
p297
(dp298
g11
(lp299
sg13
S'android.widget.ExpandableListConnector$GroupMetadata$1'
p300
sg15
(lp301
sg17
(lp302
sg19
(lp303
sg21
I0
sba(iArchitecture
Entity
p304
(dp305
g11
(lp306
sg13
S'android.widget.ExpandableListConnector$MyDataSetObserver'
p307
sg15
(lp308
sg17
(lp309
sg19
(lp310
sg21
I0
sba(iArchitecture
Entity
p311
(dp312
g11
(lp313
sg13
S'android.widget.ExpandableListConnector$PositionMetadata'
p314
sg15
(lp315
sg17
(lp316
sg19
(lp317
sg21
I0
sbasg22
(lp318
g286
ag293
ag300
ag307
ag314
asg21
I0
sg24
S'1046'
p319
sba(iArchitecture
Cluster
p320
(dp321
g7
(lp322
(iArchitecture
Entity
p323
(dp324
g11
(lp325
sg13
S'com.android.server.job.controllers.AppIdleController'
p326
sg15
(lp327
sg17
(lp328
sg19
(lp329
sg21
I0
sba(iArchitecture
Entity
p330
(dp331
g11
(lp332
sg13
S'com.android.server.job.controllers.AppIdleController$1'
p333
sg15
(lp334
sg17
(lp335
sg19
(lp336
sg21
I0
sba(iArchitecture
Entity
p337
(dp338
g11
(lp339
sg13
S'com.android.server.job.controllers.AppIdleController$AppIdleStateChangeListener'
p340
sg15
(lp341
sg17
(lp342
sg19
(lp343
sg21
I0
sba(iArchitecture
Entity
p344
(dp345
g11
(lp346
sg13
S'com.android.server.job.controllers.AppIdleController$GlobalUpdateFunc'
p347
sg15
(lp348
sg17
(lp349
sg19
(lp350
sg21
I0
sba(iArchitecture
Entity
p351
(dp352
g11
(lp353
sg13
S'com.android.server.job.controllers.AppIdleController$PackageUpdateFunc'
p354
sg15
(lp355
sg17
(lp356
sg19
(lp357
sg21
I0
sbasg22
(lp358
g326
ag333
ag340
ag347
ag354
asg21
I0
sg24
S'1047'
p359
sba(iArchitecture
Cluster
p360
(dp361
g7
(lp362
(iArchitecture
Entity
p363
(dp364
g11
(lp365
sg13
S'com.android.internal.location.GpsNetInitiatedHandler'
p366
sg15
(lp367
sg17
(lp368
sg19
(lp369
sg21
I0
sba(iArchitecture
Entity
p370
(dp371
g11
(lp372
sg13
S'com.android.internal.location.GpsNetInitiatedHandler$1'
p373
sg15
(lp374
sg17
(lp375
sg19
(lp376
sg21
I0
sba(iArchitecture
Entity
p377
(dp378
g11
(lp379
sg13
S'com.android.internal.location.GpsNetInitiatedHandler$2'
p380
sg15
(lp381
sg17
(lp382
sg19
(lp383
sg21
I0
sba(iArchitecture
Entity
p384
(dp385
g11
(lp386
sg13
S'com.android.internal.location.GpsNetInitiatedHandler$GpsNiNotification'
p387
sg15
(lp388
sg17
(lp389
sg19
(lp390
sg21
I0
sba(iArchitecture
Entity
p391
(dp392
g11
(lp393
sg13
S'com.android.internal.location.GpsNetInitiatedHandler$GpsNiResponse'
p394
sg15
(lp395
sg17
(lp396
sg19
(lp397
sg21
I0
sbasg22
(lp398
g366
ag373
ag380
ag387
ag394
asg21
I0
sg24
S'1048'
p399
sba(iArchitecture
Cluster
p400
(dp401
g7
(lp402
(iArchitecture
Entity
p403
(dp404
g11
(lp405
sg13
S'android.telecom.RemoteConnectionService'
p406
sg15
(lp407
sg17
(lp408
sg19
(lp409
sg21
I0
sba(iArchitecture
Entity
p410
(dp411
g11
(lp412
sg13
S'android.telecom.RemoteConnectionService$1'
p413
sg15
(lp414
sg17
(lp415
sg19
(lp416
sg21
I0
sba(iArchitecture
Entity
p417
(dp418
g11
(lp419
sg13
S'android.telecom.RemoteConnectionService$1$1'
p420
sg15
(lp421
sg17
(lp422
sg19
(lp423
sg21
I0
sba(iArchitecture
Entity
p424
(dp425
g11
(lp426
sg13
S'android.telecom.RemoteConnectionService$2'
p427
sg15
(lp428
sg17
(lp429
sg19
(lp430
sg21
I0
sba(iArchitecture
Entity
p431
(dp432
g11
(lp433
sg13
S'android.telecom.RemoteConnectionService$3'
p434
sg15
(lp435
sg17
(lp436
sg19
(lp437
sg21
I0
sbasg22
(lp438
g406
ag413
ag420
ag427
ag434
asg21
I0
sg24
S'1049'
p439
sba(iArchitecture
Cluster
p440
(dp441
g7
(lp442
(iArchitecture
Entity
p443
(dp444
g11
(lp445
sg13
S'com.android.server.display.LocalDisplayAdapter'
p446
sg15
(lp447
sg17
(lp448
sg19
(lp449
sg21
I0
sba(iArchitecture
Entity
p450
(dp451
g11
(lp452
sg13
S'com.android.server.display.LocalDisplayAdapter$DisplayModeRecord'
p453
sg15
(lp454
sg17
(lp455
sg19
(lp456
sg21
I0
sba(iArchitecture
Entity
p457
(dp458
g11
(lp459
sg13
S'com.android.server.display.LocalDisplayAdapter$HotplugDisplayEventReceiver'
p460
sg15
(lp461
sg17
(lp462
sg19
(lp463
sg21
I0
sba(iArchitecture
Entity
p464
(dp465
g11
(lp466
sg13
S'com.android.server.display.LocalDisplayAdapter$LocalDisplayDevice'
p467
sg15
(lp468
sg17
(lp469
sg19
(lp470
sg21
I0
sba(iArchitecture
Entity
p471
(dp472
g11
(lp473
sg13
S'com.android.server.display.LocalDisplayAdapter$LocalDisplayDevice$1'
p474
sg15
(lp475
sg17
(lp476
sg19
(lp477
sg21
I0
sbasg22
(lp478
g446
ag453
ag460
ag467
ag474
asg21
I0
sg24
S'1104'
p479
sbasS'target_sub'
p480
S'104'
p481
sg22
(lp482
sS'is_component_arch'
p483
I01
sg24
S'7.0.0_r1'
p484
sba.