(lp0
(iArchitecture
Architecture
p1
(dp2
S'clusters'
p3
(lp4
(iArchitecture
Cluster
p5
(dp6
S'entities'
p7
(lp8
(iArchitecture
Entity
p9
(dp10
S'issue_ids'
p11
(lp12
sS'name'
p13
S'com.android.server.lights.LightsService'
p14
sS'descs'
p15
(lp16
sS'labels'
p17
(lp18
sS'titles'
p19
(lp20
sS'change'
p21
I0
sba(iArchitecture
Entity
p22
(dp23
g11
(lp24
sg13
S'com.android.server.lights.LightsService$1'
p25
sg15
(lp26
sg17
(lp27
sg19
(lp28
sg21
I0
sba(iArchitecture
Entity
p29
(dp30
g11
(lp31
sg13
S'com.android.server.lights.LightsService$2'
p32
sg15
(lp33
sg17
(lp34
sg19
(lp35
sg21
I0
sba(iArchitecture
Entity
p36
(dp37
g11
(lp38
sg13
S'com.android.server.lights.LightsService$3'
p39
sg15
(lp40
sg17
(lp41
sg19
(lp42
sg21
I0
sba(iArchitecture
Entity
p43
(dp44
g11
(lp45
sg13
S'com.android.server.lights.LightsService$LightImpl'
p46
sg15
(lp47
sg17
(lp48
sg19
(lp49
sg21
I0
sbasS'classes'
p50
(lp51
g14
ag25
ag32
ag39
ag46
asg21
I0
sS'label'
p52
S'1112'
p53
sba(iArchitecture
Cluster
p54
(dp55
g7
(lp56
(iArchitecture
Entity
p57
(dp58
g11
(lp59
sg13
S'android.hardware.location.GeofenceHardwareCallback'
p60
sg15
(lp61
sg17
(lp62
sg19
(lp63
sg21
I0
sbasg50
(lp64
g60
asg21
I0
sg52
S'112'
p65
sba(iArchitecture
Cluster
p66
(dp67
g7
(lp68
(iArchitecture
Entity
p69
(dp70
g11
(lp71
sg13
S'com.android.server.usb.UsbPortManager'
p72
sg15
(lp73
sg17
(lp74
sg19
(lp75
sg21
I0
sba(iArchitecture
Entity
p76
(dp77
g11
(lp78
sg13
S'com.android.server.usb.UsbPortManager$1'
p79
sg15
(lp80
sg17
(lp81
sg19
(lp82
sg21
I0
sba(iArchitecture
Entity
p83
(dp84
g11
(lp85
sg13
S'com.android.server.usb.UsbPortManager$2'
p86
sg15
(lp87
sg17
(lp88
sg19
(lp89
sg21
I0
sba(iArchitecture
Entity
p90
(dp91
g11
(lp92
sg13
S'com.android.server.usb.UsbPortManager$3'
p93
sg15
(lp94
sg17
(lp95
sg19
(lp96
sg21
I0
sba(iArchitecture
Entity
p97
(dp98
g11
(lp99
sg13
S'com.android.server.usb.UsbPortManager$PortInfo'
p100
sg15
(lp101
sg17
(lp102
sg19
(lp103
sg21
I0
sba(iArchitecture
Entity
p104
(dp105
g11
(lp106
sg13
S'com.android.server.usb.UsbPortManager$SimulatedPortInfo'
p107
sg15
(lp108
sg17
(lp109
sg19
(lp110
sg21
I0
sbasg50
(lp111
g72
ag79
ag86
ag93
ag100
ag107
asg21
I0
sg52
S'1120'
p112
sba(iArchitecture
Cluster
p113
(dp114
g7
(lp115
(iArchitecture
Entity
p116
(dp117
g11
(lp118
sg13
S'android.graphics.FontListParser'
p119
sg15
(lp120
sg17
(lp121
sg19
(lp122
sg21
I0
sba(iArchitecture
Entity
p123
(dp124
g11
(lp125
sg13
S'android.graphics.FontListParser$Alias'
p126
sg15
(lp127
sg17
(lp128
sg19
(lp129
sg21
I0
sba(iArchitecture
Entity
p130
(dp131
g11
(lp132
sg13
S'android.graphics.FontListParser$Axis'
p133
sg15
(lp134
sg17
(lp135
sg19
(lp136
sg21
I0
sba(iArchitecture
Entity
p137
(dp138
g11
(lp139
sg13
S'android.graphics.FontListParser$Config'
p140
sg15
(lp141
sg17
(lp142
sg19
(lp143
sg21
I0
sba(iArchitecture
Entity
p144
(dp145
g11
(lp146
sg13
S'android.graphics.FontListParser$Family'
p147
sg15
(lp148
sg17
(lp149
sg19
(lp150
sg21
I0
sba(iArchitecture
Entity
p151
(dp152
g11
(lp153
sg13
S'android.graphics.FontListParser$Font'
p154
sg15
(lp155
sg17
(lp156
sg19
(lp157
sg21
I0
sbasg50
(lp158
g119
ag126
ag133
ag140
ag147
ag154
asg21
I0
sg52
S'1121'
p159
sba(iArchitecture
Cluster
p160
(dp161
g7
(lp162
(iArchitecture
Entity
p163
(dp164
g11
(lp165
sg13
S'android.hardware.display.DisplayManagerGlobal'
p166
sg15
(lp167
sg17
(lp168
sg19
(lp169
sg21
I0
sba(iArchitecture
Entity
p170
(dp171
g11
(lp172
sg13
S'android.hardware.display.DisplayManagerGlobal$DisplayListenerDelegate'
p173
sg15
(lp174
sg17
(lp175
sg19
(lp176
sg21
I0
sba(iArchitecture
Entity
p177
(dp178
g11
(lp179
sg13
S'android.hardware.display.DisplayManagerGlobal$DisplayManagerCallback'
p180
sg15
(lp181
sg17
(lp182
sg19
(lp183
sg21
I0
sba(iArchitecture
Entity
p184
(dp185
g11
(lp186
sg13
S'android.hardware.display.DisplayManagerGlobal$VirtualDisplayCallback'
p187
sg15
(lp188
sg17
(lp189
sg19
(lp190
sg21
I0
sba(iArchitecture
Entity
p191
(dp192
g11
(lp193
sg13
S'android.hardware.display.DisplayManagerGlobal$VirtualDisplayCallbackDelegate'
p194
sg15
(lp195
sg17
(lp196
sg19
(lp197
sg21
I0
sbasg50
(lp198
g166
ag173
ag180
ag187
ag194
asg21
I0
sg52
S'1122'
p199
sba(iArchitecture
Cluster
p200
(dp201
g7
(lp202
(iArchitecture
Entity
p203
(dp204
g11
(lp205
sg13
S'com.android.server.am.TaskPersister'
p206
sg15
(lp207
sg17
(lp208
sg19
(lp209
sg21
I0
sba(iArchitecture
Entity
p210
(dp211
g11
(lp212
sg13
S'com.android.server.am.TaskPersister$1'
p213
sg15
(lp214
sg17
(lp215
sg19
(lp216
sg21
I0
sba(iArchitecture
Entity
p217
(dp218
g11
(lp219
sg13
S'com.android.server.am.TaskPersister$ImageWriteQueueItem'
p220
sg15
(lp221
sg17
(lp222
sg19
(lp223
sg21
I0
sba(iArchitecture
Entity
p224
(dp225
g11
(lp226
sg13
S'com.android.server.am.TaskPersister$LazyTaskWriterThread'
p227
sg15
(lp228
sg17
(lp229
sg19
(lp230
sg21
I0
sba(iArchitecture
Entity
p231
(dp232
g11
(lp233
sg13
S'com.android.server.am.TaskPersister$TaskWriteQueueItem'
p234
sg15
(lp235
sg17
(lp236
sg19
(lp237
sg21
I0
sba(iArchitecture
Entity
p238
(dp239
g11
(lp240
sg13
S'com.android.server.am.TaskPersister$WriteQueueItem'
p241
sg15
(lp242
sg17
(lp243
sg19
(lp244
sg21
I0
sbasg50
(lp245
g206
ag213
ag220
ag227
ag234
ag241
asg21
I0
sg52
S'1123'
p246
sba(iArchitecture
Cluster
p247
(dp248
g7
(lp249
(iArchitecture
Entity
p250
(dp251
g11
(lp252
sg13
S'com.android.server.NativeDaemonConnector'
p253
sg15
(lp254
sg17
(lp255
sg19
(lp256
sg21
I0
sba(iArchitecture
Entity
p257
(dp258
g11
(lp259
sg13
S'com.android.server.NativeDaemonConnector$1'
p260
sg15
(lp261
sg17
(lp262
sg19
(lp263
sg21
I0
sba(iArchitecture
Entity
p264
(dp265
g11
(lp266
sg13
S'com.android.server.NativeDaemonConnector$Command'
p267
sg15
(lp268
sg17
(lp269
sg19
(lp270
sg21
I0
sba(iArchitecture
Entity
p271
(dp272
g11
(lp273
sg13
S'com.android.server.NativeDaemonConnector$NativeDaemonArgumentException'
p274
sg15
(lp275
sg17
(lp276
sg19
(lp277
sg21
I0
sba(iArchitecture
Entity
p278
(dp279
g11
(lp280
sg13
S'com.android.server.NativeDaemonConnector$NativeDaemonFailureException'
p281
sg15
(lp282
sg17
(lp283
sg19
(lp284
sg21
I0
sba(iArchitecture
Entity
p285
(dp286
g11
(lp287
sg13
S'com.android.server.NativeDaemonConnector$ResponseQueue'
p288
sg15
(lp289
sg17
(lp290
sg19
(lp291
sg21
I0
sba(iArchitecture
Entity
p292
(dp293
g11
(lp294
sg13
S'com.android.server.NativeDaemonConnector$ResponseQueue$PendingCmd'
p295
sg15
(lp296
sg17
(lp297
sg19
(lp298
sg21
I0
sba(iArchitecture
Entity
p299
(dp300
g11
(lp301
sg13
S'com.android.server.NativeDaemonConnector$SensitiveArg'
p302
sg15
(lp303
sg17
(lp304
sg19
(lp305
sg21
I0
sbasg50
(lp306
g253
ag260
ag267
ag274
ag281
ag288
ag295
ag302
asg21
I0
sg52
S'1124'
p307
sba(iArchitecture
Cluster
p308
(dp309
g7
(lp310
(iArchitecture
Entity
p311
(dp312
g11
(lp313
sg13
S'com.android.server.job.JobStore'
p314
sg15
(lp315
sg17
(lp316
sg19
(lp317
sg21
I0
sba(iArchitecture
Entity
p318
(dp319
g11
(lp320
sg13
S'com.android.server.job.JobStore$JobSet'
p321
sg15
(lp322
sg17
(lp323
sg19
(lp324
sg21
I0
sba(iArchitecture
Entity
p325
(dp326
g11
(lp327
sg13
S'com.android.server.job.JobStore$JobStatusFunctor'
p328
sg15
(lp329
sg17
(lp330
sg19
(lp331
sg21
I0
sba(iArchitecture
Entity
p332
(dp333
g11
(lp334
sg13
S'com.android.server.job.JobStore$ReadJobMapFromDiskRunnable'
p335
sg15
(lp336
sg17
(lp337
sg19
(lp338
sg21
I0
sba(iArchitecture
Entity
p339
(dp340
g11
(lp341
sg13
S'com.android.server.job.JobStore$WriteJobsMapToDiskRunnable'
p342
sg15
(lp343
sg17
(lp344
sg19
(lp345
sg21
I0
sba(iArchitecture
Entity
p346
(dp347
g11
(lp348
sg13
S'com.android.server.job.JobStore$WriteJobsMapToDiskRunnable$1'
p349
sg15
(lp350
sg17
(lp351
sg19
(lp352
sg21
I0
sbasg50
(lp353
g314
ag321
ag328
ag335
ag342
ag349
asg21
I0
sg52
S'1125'
p354
sba(iArchitecture
Cluster
p355
(dp356
g7
(lp357
(iArchitecture
Entity
p358
(dp359
g11
(lp360
sg13
S'android.graphics.drawable.RippleForeground'
p361
sg15
(lp362
sg17
(lp363
sg19
(lp364
sg21
I0
sba(iArchitecture
Entity
p365
(dp366
g11
(lp367
sg13
S'android.graphics.drawable.RippleForeground$1'
p368
sg15
(lp369
sg17
(lp370
sg19
(lp371
sg21
I0
sba(iArchitecture
Entity
p372
(dp373
g11
(lp374
sg13
S'android.graphics.drawable.RippleForeground$2'
p375
sg15
(lp376
sg17
(lp377
sg19
(lp378
sg21
I0
sba(iArchitecture
Entity
p379
(dp380
g11
(lp381
sg13
S'android.graphics.drawable.RippleForeground$3'
p382
sg15
(lp383
sg17
(lp384
sg19
(lp385
sg21
I0
sba(iArchitecture
Entity
p386
(dp387
g11
(lp388
sg13
S'android.graphics.drawable.RippleForeground$4'
p389
sg15
(lp390
sg17
(lp391
sg19
(lp392
sg21
I0
sba(iArchitecture
Entity
p393
(dp394
g11
(lp395
sg13
S'android.graphics.drawable.RippleForeground$LogDecelerateInterpolator'
p396
sg15
(lp397
sg17
(lp398
sg19
(lp399
sg21
I0
sbasg50
(lp400
g361
ag368
ag375
ag382
ag389
ag396
asg21
I0
sg52
S'1126'
p401
sba(iArchitecture
Cluster
p402
(dp403
g7
(lp404
(iArchitecture
Entity
p405
(dp406
g11
(lp407
sg13
S'com.android.internal.view.FloatingActionMode'
p408
sg15
(lp409
sg17
(lp410
sg19
(lp411
sg21
I0
sba(iArchitecture
Entity
p412
(dp413
g11
(lp414
sg13
S'com.android.internal.view.FloatingActionMode$1'
p415
sg15
(lp416
sg17
(lp417
sg19
(lp418
sg21
I0
sba(iArchitecture
Entity
p419
(dp420
g11
(lp421
sg13
S'com.android.internal.view.FloatingActionMode$2'
p422
sg15
(lp423
sg17
(lp424
sg19
(lp425
sg21
I0
sba(iArchitecture
Entity
p426
(dp427
g11
(lp428
sg13
S'com.android.internal.view.FloatingActionMode$3'
p429
sg15
(lp430
sg17
(lp431
sg19
(lp432
sg21
I0
sba(iArchitecture
Entity
p433
(dp434
g11
(lp435
sg13
S'com.android.internal.view.FloatingActionMode$4'
p436
sg15
(lp437
sg17
(lp438
sg19
(lp439
sg21
I0
sba(iArchitecture
Entity
p440
(dp441
g11
(lp442
sg13
S'com.android.internal.view.FloatingActionMode$FloatingToolbarVisibilityHelper'
p443
sg15
(lp444
sg17
(lp445
sg19
(lp446
sg21
I0
sbasg50
(lp447
g408
ag415
ag422
ag429
ag436
ag443
asg21
I0
sg52
S'1127'
p448
sba(iArchitecture
Cluster
p449
(dp450
g7
(lp451
(iArchitecture
Entity
p452
(dp453
g11
(lp454
sg13
S'android.app.ApplicationErrorReport'
p455
sg15
(lp456
sg17
(lp457
sg19
(lp458
sg21
I0
sba(iArchitecture
Entity
p459
(dp460
g11
(lp461
sg13
S'android.app.ApplicationErrorReport$1'
p462
sg15
(lp463
sg17
(lp464
sg19
(lp465
sg21
I0
sba(iArchitecture
Entity
p466
(dp467
g11
(lp468
sg13
S'android.app.ApplicationErrorReport$AnrInfo'
p469
sg15
(lp470
sg17
(lp471
sg19
(lp472
sg21
I0
sba(iArchitecture
Entity
p473
(dp474
g11
(lp475
sg13
S'android.app.ApplicationErrorReport$BatteryInfo'
p476
sg15
(lp477
sg17
(lp478
sg19
(lp479
sg21
I0
sba(iArchitecture
Entity
p480
(dp481
g11
(lp482
sg13
S'android.app.ApplicationErrorReport$CrashInfo'
p483
sg15
(lp484
sg17
(lp485
sg19
(lp486
sg21
I0
sba(iArchitecture
Entity
p487
(dp488
g11
(lp489
sg13
S'android.app.ApplicationErrorReport$RunningServiceInfo'
p490
sg15
(lp491
sg17
(lp492
sg19
(lp493
sg21
I0
sbasg50
(lp494
g455
ag462
ag469
ag476
ag483
ag490
asg21
I0
sg52
S'1128'
p495
sba(iArchitecture
Cluster
p496
(dp497
g7
(lp498
(iArchitecture
Entity
p499
(dp500
g11
(lp501
sg13
S'android.net.apf.ApfGenerator'
p502
sg15
(lp503
sg17
(lp504
sg19
(lp505
sg21
I0
sba(iArchitecture
Entity
p506
(dp507
g11
(lp508
sg13
S'android.net.apf.ApfGenerator$ExtendedOpcodes'
p509
sg15
(lp510
sg17
(lp511
sg19
(lp512
sg21
I0
sba(iArchitecture
Entity
p513
(dp514
g11
(lp515
sg13
S'android.net.apf.ApfGenerator$IllegalInstructionException'
p516
sg15
(lp517
sg17
(lp518
sg19
(lp519
sg21
I0
sba(iArchitecture
Entity
p520
(dp521
g11
(lp522
sg13
S'android.net.apf.ApfGenerator$Instruction'
p523
sg15
(lp524
sg17
(lp525
sg19
(lp526
sg21
I0
sba(iArchitecture
Entity
p527
(dp528
g11
(lp529
sg13
S'android.net.apf.ApfGenerator$Opcodes'
p530
sg15
(lp531
sg17
(lp532
sg19
(lp533
sg21
I0
sba(iArchitecture
Entity
p534
(dp535
g11
(lp536
sg13
S'android.net.apf.ApfGenerator$Register'
p537
sg15
(lp538
sg17
(lp539
sg19
(lp540
sg21
I0
sbasg50
(lp541
g502
ag509
ag516
ag523
ag530
ag537
asg21
I0
sg52
S'1129'
p542
sbasS'target_sub'
p543
S'112'
p544
sg50
(lp545
sS'is_component_arch'
p546
I01
sg52
S'7.0.0_r1'
p547
sba.