(lp0
(iArchitecture
Architecture
p1
(dp2
S'clusters'
p3
(lp4
(iArchitecture
Cluster
p5
(dp6
S'entities'
p7
(lp8
(iArchitecture
Entity
p9
(dp10
S'issue_ids'
p11
(lp12
sS'name'
p13
S'com.android.server.tv.TvRemoteProviderProxy'
p14
sS'descs'
p15
(lp16
sS'labels'
p17
(lp18
sS'titles'
p19
(lp20
sS'change'
p21
I0
sba(iArchitecture
Entity
p22
(dp23
g11
(lp24
sg13
S'com.android.server.tv.TvRemoteProviderProxy$Connection'
p25
sg15
(lp26
sg17
(lp27
sg19
(lp28
sg21
I0
sba(iArchitecture
Entity
p29
(dp30
g11
(lp31
sg13
S'com.android.server.tv.TvRemoteProviderProxy$Connection$1'
p32
sg15
(lp33
sg17
(lp34
sg19
(lp35
sg21
I0
sba(iArchitecture
Entity
p36
(dp37
g11
(lp38
sg13
S'com.android.server.tv.TvRemoteProviderProxy$Connection$2'
p39
sg15
(lp40
sg17
(lp41
sg19
(lp42
sg21
I0
sba(iArchitecture
Entity
p43
(dp44
g11
(lp45
sg13
S'com.android.server.tv.TvRemoteProviderProxy$ProviderMethods'
p46
sg15
(lp47
sg17
(lp48
sg19
(lp49
sg21
I0
sba(iArchitecture
Entity
p50
(dp51
g11
(lp52
sg13
S'com.android.server.tv.TvRemoteProviderProxy$RemoteServiceInputProvider'
p53
sg15
(lp54
sg17
(lp55
sg19
(lp56
sg21
I0
sbasS'classes'
p57
(lp58
g14
ag25
ag32
ag39
ag46
ag53
asg21
I0
sS'label'
p59
S'1087'
p60
sba(iArchitecture
Cluster
p61
(dp62
g7
(lp63
(iArchitecture
Entity
p64
(dp65
g11
(lp66
sg13
S'android.hardware.camera2.CameraManager'
p67
sg15
(lp68
sg17
(lp69
sg19
(lp70
sg21
I0
sba(iArchitecture
Entity
p71
(dp72
g11
(lp73
sg13
S'android.hardware.camera2.CameraManager$AvailabilityCallback'
p74
sg15
(lp75
sg17
(lp76
sg19
(lp77
sg21
I0
sba(iArchitecture
Entity
p78
(dp79
g11
(lp80
sg13
S'android.hardware.camera2.CameraManager$CameraManagerGlobal'
p81
sg15
(lp82
sg17
(lp83
sg19
(lp84
sg21
I0
sba(iArchitecture
Entity
p85
(dp86
g11
(lp87
sg13
S'android.hardware.camera2.CameraManager$CameraManagerGlobal$1'
p88
sg15
(lp89
sg17
(lp90
sg19
(lp91
sg21
I0
sba(iArchitecture
Entity
p92
(dp93
g11
(lp94
sg13
S'android.hardware.camera2.CameraManager$CameraManagerGlobal$2'
p95
sg15
(lp96
sg17
(lp97
sg19
(lp98
sg21
I0
sba(iArchitecture
Entity
p99
(dp100
g11
(lp101
sg13
S'android.hardware.camera2.CameraManager$CameraManagerGlobal$3'
p102
sg15
(lp103
sg17
(lp104
sg19
(lp105
sg21
I0
sba(iArchitecture
Entity
p106
(dp107
g11
(lp108
sg13
S'android.hardware.camera2.CameraManager$CameraManagerGlobal$4'
p109
sg15
(lp110
sg17
(lp111
sg19
(lp112
sg21
I0
sba(iArchitecture
Entity
p113
(dp114
g11
(lp115
sg13
S'android.hardware.camera2.CameraManager$CameraManagerGlobal$5'
p116
sg15
(lp117
sg17
(lp118
sg19
(lp119
sg21
I0
sba(iArchitecture
Entity
p120
(dp121
g11
(lp122
sg13
S'android.hardware.camera2.CameraManager$TorchCallback'
p123
sg15
(lp124
sg17
(lp125
sg19
(lp126
sg21
I0
sbasg57
(lp127
g67
ag74
ag81
ag88
ag95
ag102
ag109
ag116
ag123
asg21
I0
sg59
S'1187'
p128
sba(iArchitecture
Cluster
p129
(dp130
g7
(lp131
(iArchitecture
Entity
p132
(dp133
g11
(lp134
sg13
S'android.print.PrinterDiscoverySession'
p135
sg15
(lp136
sg17
(lp137
sg19
(lp138
sg21
I0
sba(iArchitecture
Entity
p139
(dp140
g11
(lp141
sg13
S'android.print.PrinterDiscoverySession$OnPrintersChangeListener'
p142
sg15
(lp143
sg17
(lp144
sg19
(lp145
sg21
I0
sba(iArchitecture
Entity
p146
(dp147
g11
(lp148
sg13
S'android.print.PrinterDiscoverySession$PrinterDiscoveryObserver'
p149
sg15
(lp150
sg17
(lp151
sg19
(lp152
sg21
I0
sba(iArchitecture
Entity
p153
(dp154
g11
(lp155
sg13
S'android.print.PrinterDiscoverySession$SessionHandler'
p156
sg15
(lp157
sg17
(lp158
sg19
(lp159
sg21
I0
sba(iArchitecture
Entity
p160
(dp161
g11
(lp162
sg13
S'android.printservice.PrinterDiscoverySession'
p163
sg15
(lp164
sg17
(lp165
sg19
(lp166
sg21
I0
sbasg57
(lp167
g135
ag142
ag149
ag156
ag163
asg21
I0
sg59
S'1287'
p168
sba(iArchitecture
Cluster
p169
(dp170
g7
(lp171
(iArchitecture
Entity
p172
(dp173
g11
(lp174
sg13
S'android.media.MediaCrypto'
p175
sg15
(lp176
sg17
(lp177
sg19
(lp178
sg21
I0
sba(iArchitecture
Entity
p179
(dp180
g11
(lp181
sg13
S'android.view.SoundEffectConstants'
p182
sg15
(lp183
sg17
(lp184
sg19
(lp185
sg21
I0
sbasg57
(lp186
g175
ag182
asg21
I0
sg59
S'1387'
p187
sba(iArchitecture
Cluster
p188
(dp189
g7
(lp190
(iArchitecture
Entity
p191
(dp192
g11
(lp193
sg13
S'com.android.server.tv.UinputBridge'
p194
sg15
(lp195
sg17
(lp196
sg19
(lp197
sg21
I0
sbasg57
(lp198
g194
asg21
I0
sg59
S'187'
p199
sba(iArchitecture
Cluster
p200
(dp201
g7
(lp202
(iArchitecture
Entity
p203
(dp204
g11
(lp205
sg13
S'android.content.pm.ComponentInfo'
p206
sg15
(lp207
sg17
(lp208
sg19
(lp209
sg21
I0
sbasg57
(lp210
g206
asg21
I0
sg59
S'287'
p211
sba(iArchitecture
Cluster
p212
(dp213
g7
(lp214
(iArchitecture
Entity
p215
(dp216
g11
(lp217
sg13
S'android.text.format.TimeFormatter'
p218
sg15
(lp219
sg17
(lp220
sg19
(lp221
sg21
I0
sbasg57
(lp222
g218
asg21
I0
sg59
S'387'
p223
sba(iArchitecture
Cluster
p224
(dp225
g7
(lp226
(iArchitecture
Entity
p227
(dp228
g11
(lp229
sg13
S'com.android.server.pm.ShortcutLauncher'
p230
sg15
(lp231
sg17
(lp232
sg19
(lp233
sg21
I0
sbasg57
(lp234
g230
asg21
I0
sg59
S'487'
p235
sba(iArchitecture
Cluster
p236
(dp237
g7
(lp238
(iArchitecture
Entity
p239
(dp240
g11
(lp241
sg13
S'android.filterpacks.videosrc.CameraSource'
p242
sg15
(lp243
sg17
(lp244
sg19
(lp245
sg21
I0
sba(iArchitecture
Entity
p246
(dp247
g11
(lp248
sg13
S'android.filterpacks.videosrc.CameraSource$1'
p249
sg15
(lp250
sg17
(lp251
sg19
(lp252
sg21
I0
sbasg57
(lp253
g242
ag249
asg21
I0
sg59
S'587'
p254
sba(iArchitecture
Cluster
p255
(dp256
g7
(lp257
(iArchitecture
Entity
p258
(dp259
g11
(lp260
sg13
S'com.android.server.LockSettingsStrongAuth'
p261
sg15
(lp262
sg17
(lp263
sg19
(lp264
sg21
I0
sba(iArchitecture
Entity
p265
(dp266
g11
(lp267
sg13
S'com.android.server.LockSettingsStrongAuth$1'
p268
sg15
(lp269
sg17
(lp270
sg19
(lp271
sg21
I0
sbasg57
(lp272
g261
ag268
asg21
I0
sg59
S'687'
p273
sba(iArchitecture
Cluster
p274
(dp275
g7
(lp276
(iArchitecture
Entity
p277
(dp278
g11
(lp279
sg13
S'android.bluetooth.BluetoothAudioConfig'
p280
sg15
(lp281
sg17
(lp282
sg19
(lp283
sg21
I0
sba(iArchitecture
Entity
p284
(dp285
g11
(lp286
sg13
S'android.bluetooth.BluetoothAudioConfig$1'
p287
sg15
(lp288
sg17
(lp289
sg19
(lp290
sg21
I0
sbasg57
(lp291
g280
ag287
asg21
I0
sg59
S'787'
p292
sba(iArchitecture
Cluster
p293
(dp294
g7
(lp295
(iArchitecture
Entity
p296
(dp297
g11
(lp298
sg13
S'com.android.server.hdmi.HdmiCecMessage'
p299
sg15
(lp300
sg17
(lp301
sg19
(lp302
sg21
I0
sbasg57
(lp303
g299
asg21
I0
sg59
S'87'
p304
sba(iArchitecture
Cluster
p305
(dp306
g7
(lp307
(iArchitecture
Entity
p308
(dp309
g11
(lp310
sg13
S'android.inputmethodservice.IInputMethodWrapper'
p311
sg15
(lp312
sg17
(lp313
sg19
(lp314
sg21
I0
sba(iArchitecture
Entity
p315
(dp316
g11
(lp317
sg13
S'android.inputmethodservice.IInputMethodWrapper$InputMethodSessionCallbackWrapper'
p318
sg15
(lp319
sg17
(lp320
sg19
(lp321
sg21
I0
sba(iArchitecture
Entity
p322
(dp323
g11
(lp324
sg13
S'android.inputmethodservice.IInputMethodWrapper$Notifier'
p325
sg15
(lp326
sg17
(lp327
sg19
(lp328
sg21
I0
sbasg57
(lp329
g311
ag318
ag325
asg21
I0
sg59
S'870'
p330
sba(iArchitecture
Cluster
p331
(dp332
g7
(lp333
(iArchitecture
Entity
p334
(dp335
g11
(lp336
sg13
S'android.app.Application'
p337
sg15
(lp338
sg17
(lp339
sg19
(lp340
sg21
I0
sba(iArchitecture
Entity
p341
(dp342
g11
(lp343
sg13
S'android.app.Application$ActivityLifecycleCallbacks'
p344
sg15
(lp345
sg17
(lp346
sg19
(lp347
sg21
I0
sba(iArchitecture
Entity
p348
(dp349
g11
(lp350
sg13
S'android.app.Application$OnProvideAssistDataListener'
p351
sg15
(lp352
sg17
(lp353
sg19
(lp354
sg21
I0
sbasg57
(lp355
g337
ag344
ag351
asg21
I0
sg59
S'871'
p356
sba(iArchitecture
Cluster
p357
(dp358
g7
(lp359
(iArchitecture
Entity
p360
(dp361
g11
(lp362
sg13
S'android.database.ContentObserver'
p363
sg15
(lp364
sg17
(lp365
sg19
(lp366
sg21
I0
sba(iArchitecture
Entity
p367
(dp368
g11
(lp369
sg13
S'android.database.ContentObserver$NotificationRunnable'
p370
sg15
(lp371
sg17
(lp372
sg19
(lp373
sg21
I0
sba(iArchitecture
Entity
p374
(dp375
g11
(lp376
sg13
S'android.database.ContentObserver$Transport'
p377
sg15
(lp378
sg17
(lp379
sg19
(lp380
sg21
I0
sbasg57
(lp381
g363
ag370
ag377
asg21
I0
sg59
S'872'
p382
sba(iArchitecture
Cluster
p383
(dp384
g7
(lp385
(iArchitecture
Entity
p386
(dp387
g11
(lp388
sg13
S'com.android.server.policy.SystemGesturesPointerEventListener'
p389
sg15
(lp390
sg17
(lp391
sg19
(lp392
sg21
I0
sba(iArchitecture
Entity
p393
(dp394
g11
(lp395
sg13
S'com.android.server.policy.SystemGesturesPointerEventListener$Callbacks'
p396
sg15
(lp397
sg17
(lp398
sg19
(lp399
sg21
I0
sba(iArchitecture
Entity
p400
(dp401
g11
(lp402
sg13
S'com.android.server.policy.SystemGesturesPointerEventListener$FlingGestureDetector'
p403
sg15
(lp404
sg17
(lp405
sg19
(lp406
sg21
I0
sbasg57
(lp407
g389
ag396
ag403
asg21
I0
sg59
S'873'
p408
sba(iArchitecture
Cluster
p409
(dp410
g7
(lp411
(iArchitecture
Entity
p412
(dp413
g11
(lp414
sg13
S'android.widget.SpellChecker'
p415
sg15
(lp416
sg17
(lp417
sg19
(lp418
sg21
I0
sba(iArchitecture
Entity
p419
(dp420
g11
(lp421
sg13
S'android.widget.SpellChecker$1'
p422
sg15
(lp423
sg17
(lp424
sg19
(lp425
sg21
I0
sba(iArchitecture
Entity
p426
(dp427
g11
(lp428
sg13
S'android.widget.SpellChecker$SpellParser'
p429
sg15
(lp430
sg17
(lp431
sg19
(lp432
sg21
I0
sbasg57
(lp433
g415
ag422
ag429
asg21
I0
sg59
S'874'
p434
sba(iArchitecture
Cluster
p435
(dp436
g7
(lp437
(iArchitecture
Entity
p438
(dp439
g11
(lp440
sg13
S'android.widget.ForwardingListener'
p441
sg15
(lp442
sg17
(lp443
sg19
(lp444
sg21
I0
sba(iArchitecture
Entity
p445
(dp446
g11
(lp447
sg13
S'android.widget.ForwardingListener$DisallowIntercept'
p448
sg15
(lp449
sg17
(lp450
sg19
(lp451
sg21
I0
sba(iArchitecture
Entity
p452
(dp453
g11
(lp454
sg13
S'android.widget.ForwardingListener$TriggerLongPress'
p455
sg15
(lp456
sg17
(lp457
sg19
(lp458
sg21
I0
sbasg57
(lp459
g441
ag448
ag455
asg21
I0
sg59
S'875'
p460
sba(iArchitecture
Cluster
p461
(dp462
g7
(lp463
(iArchitecture
Entity
p464
(dp465
g11
(lp466
sg13
S'android.media.tv.TvInputHardwareInfo'
p467
sg15
(lp468
sg17
(lp469
sg19
(lp470
sg21
I0
sba(iArchitecture
Entity
p471
(dp472
g11
(lp473
sg13
S'android.media.tv.TvInputHardwareInfo$1'
p474
sg15
(lp475
sg17
(lp476
sg19
(lp477
sg21
I0
sba(iArchitecture
Entity
p478
(dp479
g11
(lp480
sg13
S'android.media.tv.TvInputHardwareInfo$Builder'
p481
sg15
(lp482
sg17
(lp483
sg19
(lp484
sg21
I0
sbasg57
(lp485
g467
ag474
ag481
asg21
I0
sg59
S'876'
p486
sba(iArchitecture
Cluster
p487
(dp488
g7
(lp489
(iArchitecture
Entity
p490
(dp491
g11
(lp492
sg13
S'com.android.server.location.LocationBasedCountryDetector'
p493
sg15
(lp494
sg17
(lp495
sg19
(lp496
sg21
I0
sba(iArchitecture
Entity
p497
(dp498
g11
(lp499
sg13
S'com.android.server.location.LocationBasedCountryDetector$1'
p500
sg15
(lp501
sg17
(lp502
sg19
(lp503
sg21
I0
sba(iArchitecture
Entity
p504
(dp505
g11
(lp506
sg13
S'com.android.server.location.LocationBasedCountryDetector$2'
p507
sg15
(lp508
sg17
(lp509
sg19
(lp510
sg21
I0
sba(iArchitecture
Entity
p511
(dp512
g11
(lp513
sg13
S'com.android.server.location.LocationBasedCountryDetector$3'
p514
sg15
(lp515
sg17
(lp516
sg19
(lp517
sg21
I0
sbasg57
(lp518
g493
ag500
ag507
ag514
asg21
I0
sg59
S'877'
p519
sba(iArchitecture
Cluster
p520
(dp521
g7
(lp522
(iArchitecture
Entity
p523
(dp524
g11
(lp525
sg13
S'android.widget.Chronometer'
p526
sg15
(lp527
sg17
(lp528
sg19
(lp529
sg21
I0
sba(iArchitecture
Entity
p530
(dp531
g11
(lp532
sg13
S'android.widget.Chronometer$1'
p533
sg15
(lp534
sg17
(lp535
sg19
(lp536
sg21
I0
sba(iArchitecture
Entity
p537
(dp538
g11
(lp539
sg13
S'android.widget.Chronometer$OnChronometerTickListener'
p540
sg15
(lp541
sg17
(lp542
sg19
(lp543
sg21
I0
sbasg57
(lp544
g526
ag533
ag540
asg21
I0
sg59
S'878'
p545
sba(iArchitecture
Cluster
p546
(dp547
g7
(lp548
(iArchitecture
Entity
p549
(dp550
g11
(lp551
sg13
S'android.os.CommonTimeConfig'
p552
sg15
(lp553
sg17
(lp554
sg19
(lp555
sg21
I0
sba(iArchitecture
Entity
p556
(dp557
g11
(lp558
sg13
S'android.os.CommonTimeConfig$1'
p559
sg15
(lp560
sg17
(lp561
sg19
(lp562
sg21
I0
sba(iArchitecture
Entity
p563
(dp564
g11
(lp565
sg13
S'android.os.CommonTimeConfig$OnServerDiedListener'
p566
sg15
(lp567
sg17
(lp568
sg19
(lp569
sg21
I0
sbasg57
(lp570
g552
ag559
ag566
asg21
I0
sg59
S'879'
p571
sba(iArchitecture
Cluster
p572
(dp573
g7
(lp574
(iArchitecture
Entity
p575
(dp576
g11
(lp577
sg13
S'android.bluetooth.le.AdvertiseSettings'
p578
sg15
(lp579
sg17
(lp580
sg19
(lp581
sg21
I0
sba(iArchitecture
Entity
p582
(dp583
g11
(lp584
sg13
S'android.bluetooth.le.AdvertiseSettings$1'
p585
sg15
(lp586
sg17
(lp587
sg19
(lp588
sg21
I0
sba(iArchitecture
Entity
p589
(dp590
g11
(lp591
sg13
S'android.bluetooth.le.AdvertiseSettings$Builder'
p592
sg15
(lp593
sg17
(lp594
sg19
(lp595
sg21
I0
sbasg57
(lp596
g578
ag585
ag592
asg21
I0
sg59
S'887'
p597
sba(iArchitecture
Cluster
p598
(dp599
g7
(lp600
(iArchitecture
Entity
p601
(dp602
g11
(lp603
sg13
S'android.provider.BlockedNumberContract'
p604
sg15
(lp605
sg17
(lp606
sg19
(lp607
sg21
I0
sba(iArchitecture
Entity
p608
(dp609
g11
(lp610
sg13
S'android.provider.BlockedNumberContract$BlockedNumbers'
p611
sg15
(lp612
sg17
(lp613
sg19
(lp614
sg21
I0
sba(iArchitecture
Entity
p615
(dp616
g11
(lp617
sg13
S'android.provider.BlockedNumberContract$SystemContract'
p618
sg15
(lp619
sg17
(lp620
sg19
(lp621
sg21
I0
sba(iArchitecture
Entity
p622
(dp623
g11
(lp624
sg13
S'android.provider.BlockedNumberContract$SystemContract$BlockSuppressionStatus'
p625
sg15
(lp626
sg17
(lp627
sg19
(lp628
sg21
I0
sbasg57
(lp629
g604
ag611
ag618
ag625
asg21
I0
sg59
S'987'
p630
sbasS'target_sub'
p631
S'87'
p632
sg57
(lp633
sS'is_component_arch'
p634
I01
sg59
S'7.0.0_r1'
p635
sba.