(lp0
(iArchitecture
Architecture
p1
(dp2
S'clusters'
p3
(lp4
(iArchitecture
Cluster
p5
(dp6
S'entities'
p7
(lp8
(iArchitecture
Entity
p9
(dp10
S'issue_ids'
p11
(lp12
sS'name'
p13
S'android.hardware.LegacySensorManager'
p14
sS'descs'
p15
(lp16
sS'labels'
p17
(lp18
sS'titles'
p19
(lp20
sS'change'
p21
I0
sba(iArchitecture
Entity
p22
(dp23
g11
(lp24
sg13
S'android.hardware.LegacySensorManager$1'
p25
sg15
(lp26
sg17
(lp27
sg19
(lp28
sg21
I0
sba(iArchitecture
Entity
p29
(dp30
g11
(lp31
sg13
S'android.hardware.LegacySensorManager$LegacyListener'
p32
sg15
(lp33
sg17
(lp34
sg19
(lp35
sg21
I0
sba(iArchitecture
Entity
p36
(dp37
g11
(lp38
sg13
S'android.hardware.LegacySensorManager$LmsFilter'
p39
sg15
(lp40
sg17
(lp41
sg19
(lp42
sg21
I0
sbasS'classes'
p43
(lp44
g14
ag25
ag32
ag39
asg21
I0
sS'label'
p45
S'1025'
p46
sba(iArchitecture
Cluster
p47
(dp48
g7
(lp49
(iArchitecture
Entity
p50
(dp51
g11
(lp52
sg13
S'com.android.server.job.JobStore'
p53
sg15
(lp54
sg17
(lp55
sg19
(lp56
sg21
I0
sba(iArchitecture
Entity
p57
(dp58
g11
(lp59
sg13
S'com.android.server.job.JobStore$JobSet'
p60
sg15
(lp61
sg17
(lp62
sg19
(lp63
sg21
I0
sba(iArchitecture
Entity
p64
(dp65
g11
(lp66
sg13
S'com.android.server.job.JobStore$JobStatusFunctor'
p67
sg15
(lp68
sg17
(lp69
sg19
(lp70
sg21
I0
sba(iArchitecture
Entity
p71
(dp72
g11
(lp73
sg13
S'com.android.server.job.JobStore$ReadJobMapFromDiskRunnable'
p74
sg15
(lp75
sg17
(lp76
sg19
(lp77
sg21
I0
sba(iArchitecture
Entity
p78
(dp79
g11
(lp80
sg13
S'com.android.server.job.JobStore$WriteJobsMapToDiskRunnable'
p81
sg15
(lp82
sg17
(lp83
sg19
(lp84
sg21
I0
sba(iArchitecture
Entity
p85
(dp86
g11
(lp87
sg13
S'com.android.server.job.JobStore$WriteJobsMapToDiskRunnable$1'
p88
sg15
(lp89
sg17
(lp90
sg19
(lp91
sg21
I0
sbasg43
(lp92
g53
ag60
ag67
ag74
ag81
ag88
asg21
I0
sg45
S'1125'
p93
sba(iArchitecture
Cluster
p94
(dp95
g7
(lp96
(iArchitecture
Entity
p97
(dp98
g11
(lp99
sg13
S'android.telecom.RemoteConnection'
p100
sg15
(lp101
sg17
(lp102
sg19
(lp103
sg21
I0
sba(iArchitecture
Entity
p104
(dp105
g11
(lp106
sg13
S'android.telecom.RemoteConnection$1'
p107
sg15
(lp108
sg17
(lp109
sg19
(lp110
sg21
I0
sba(iArchitecture
Entity
p111
(dp112
g11
(lp113
sg13
S'android.telecom.RemoteConnection$10'
p114
sg15
(lp115
sg17
(lp116
sg19
(lp117
sg21
I0
sba(iArchitecture
Entity
p118
(dp119
g11
(lp120
sg13
S'android.telecom.RemoteConnection$11'
p121
sg15
(lp122
sg17
(lp123
sg19
(lp124
sg21
I0
sba(iArchitecture
Entity
p125
(dp126
g11
(lp127
sg13
S'android.telecom.RemoteConnection$12'
p128
sg15
(lp129
sg17
(lp130
sg19
(lp131
sg21
I0
sba(iArchitecture
Entity
p132
(dp133
g11
(lp134
sg13
S'android.telecom.RemoteConnection$13'
p135
sg15
(lp136
sg17
(lp137
sg19
(lp138
sg21
I0
sba(iArchitecture
Entity
p139
(dp140
g11
(lp141
sg13
S'android.telecom.RemoteConnection$14'
p142
sg15
(lp143
sg17
(lp144
sg19
(lp145
sg21
I0
sba(iArchitecture
Entity
p146
(dp147
g11
(lp148
sg13
S'android.telecom.RemoteConnection$15'
p149
sg15
(lp150
sg17
(lp151
sg19
(lp152
sg21
I0
sba(iArchitecture
Entity
p153
(dp154
g11
(lp155
sg13
S'android.telecom.RemoteConnection$16'
p156
sg15
(lp157
sg17
(lp158
sg19
(lp159
sg21
I0
sba(iArchitecture
Entity
p160
(dp161
g11
(lp162
sg13
S'android.telecom.RemoteConnection$17'
p163
sg15
(lp164
sg17
(lp165
sg19
(lp166
sg21
I0
sba(iArchitecture
Entity
p167
(dp168
g11
(lp169
sg13
S'android.telecom.RemoteConnection$18'
p170
sg15
(lp171
sg17
(lp172
sg19
(lp173
sg21
I0
sba(iArchitecture
Entity
p174
(dp175
g11
(lp176
sg13
S'android.telecom.RemoteConnection$2'
p177
sg15
(lp178
sg17
(lp179
sg19
(lp180
sg21
I0
sba(iArchitecture
Entity
p181
(dp182
g11
(lp183
sg13
S'android.telecom.RemoteConnection$3'
p184
sg15
(lp185
sg17
(lp186
sg19
(lp187
sg21
I0
sba(iArchitecture
Entity
p188
(dp189
g11
(lp190
sg13
S'android.telecom.RemoteConnection$4'
p191
sg15
(lp192
sg17
(lp193
sg19
(lp194
sg21
I0
sba(iArchitecture
Entity
p195
(dp196
g11
(lp197
sg13
S'android.telecom.RemoteConnection$5'
p198
sg15
(lp199
sg17
(lp200
sg19
(lp201
sg21
I0
sba(iArchitecture
Entity
p202
(dp203
g11
(lp204
sg13
S'android.telecom.RemoteConnection$6'
p205
sg15
(lp206
sg17
(lp207
sg19
(lp208
sg21
I0
sba(iArchitecture
Entity
p209
(dp210
g11
(lp211
sg13
S'android.telecom.RemoteConnection$7'
p212
sg15
(lp213
sg17
(lp214
sg19
(lp215
sg21
I0
sba(iArchitecture
Entity
p216
(dp217
g11
(lp218
sg13
S'android.telecom.RemoteConnection$8'
p219
sg15
(lp220
sg17
(lp221
sg19
(lp222
sg21
I0
sba(iArchitecture
Entity
p223
(dp224
g11
(lp225
sg13
S'android.telecom.RemoteConnection$9'
p226
sg15
(lp227
sg17
(lp228
sg19
(lp229
sg21
I0
sba(iArchitecture
Entity
p230
(dp231
g11
(lp232
sg13
S'android.telecom.RemoteConnection$Callback'
p233
sg15
(lp234
sg17
(lp235
sg19
(lp236
sg21
I0
sba(iArchitecture
Entity
p237
(dp238
g11
(lp239
sg13
S'android.telecom.RemoteConnection$CallbackRecord'
p240
sg15
(lp241
sg17
(lp242
sg19
(lp243
sg21
I0
sba(iArchitecture
Entity
p244
(dp245
g11
(lp246
sg13
S'android.telecom.RemoteConnection$VideoProvider'
p247
sg15
(lp248
sg17
(lp249
sg19
(lp250
sg21
I0
sba(iArchitecture
Entity
p251
(dp252
g11
(lp253
sg13
S'android.telecom.RemoteConnection$VideoProvider$1'
p254
sg15
(lp255
sg17
(lp256
sg19
(lp257
sg21
I0
sba(iArchitecture
Entity
p258
(dp259
g11
(lp260
sg13
S'android.telecom.RemoteConnection$VideoProvider$Callback'
p261
sg15
(lp262
sg17
(lp263
sg19
(lp264
sg21
I0
sbasg43
(lp265
g100
ag107
ag114
ag121
ag128
ag135
ag142
ag149
ag156
ag163
ag170
ag177
ag184
ag191
ag198
ag205
ag212
ag219
ag226
ag233
ag240
ag247
ag254
ag261
asg21
I0
sg45
S'1225'
p266
sba(iArchitecture
Cluster
p267
(dp268
g7
(lp269
(iArchitecture
Entity
p270
(dp271
g11
(lp272
sg13
S'android.filterfw.core.GLEnvironment'
p273
sg15
(lp274
sg17
(lp275
sg19
(lp276
sg21
I0
sbasg43
(lp277
g273
asg21
I0
sg45
S'125'
p278
sba(iArchitecture
Cluster
p279
(dp280
g7
(lp281
(iArchitecture
Entity
p282
(dp283
g11
(lp284
sg13
S'android.os.BatteryStats'
p285
sg15
(lp286
sg17
(lp287
sg19
(lp288
sg21
I0
sba(iArchitecture
Entity
p289
(dp290
g11
(lp291
sg13
S'android.os.BatteryStats$1'
p292
sg15
(lp293
sg17
(lp294
sg19
(lp295
sg21
I0
sba(iArchitecture
Entity
p296
(dp297
g11
(lp298
sg13
S'android.os.BatteryStats$BitDescription'
p299
sg15
(lp300
sg17
(lp301
sg19
(lp302
sg21
I0
sba(iArchitecture
Entity
p303
(dp304
g11
(lp305
sg13
S'android.os.BatteryStats$ControllerActivityCounter'
p306
sg15
(lp307
sg17
(lp308
sg19
(lp309
sg21
I0
sba(iArchitecture
Entity
p310
(dp311
g11
(lp312
sg13
S'android.os.BatteryStats$Counter'
p313
sg15
(lp314
sg17
(lp315
sg19
(lp316
sg21
I0
sba(iArchitecture
Entity
p317
(dp318
g11
(lp319
sg13
S'android.os.BatteryStats$DailyItem'
p320
sg15
(lp321
sg17
(lp322
sg19
(lp323
sg21
I0
sba(iArchitecture
Entity
p324
(dp325
g11
(lp326
sg13
S'android.os.BatteryStats$HistoryEventTracker'
p327
sg15
(lp328
sg17
(lp329
sg19
(lp330
sg21
I0
sba(iArchitecture
Entity
p331
(dp332
g11
(lp333
sg13
S'android.os.BatteryStats$HistoryItem'
p334
sg15
(lp335
sg17
(lp336
sg19
(lp337
sg21
I0
sba(iArchitecture
Entity
p338
(dp339
g11
(lp340
sg13
S'android.os.BatteryStats$HistoryPrinter'
p341
sg15
(lp342
sg17
(lp343
sg19
(lp344
sg21
I0
sba(iArchitecture
Entity
p345
(dp346
g11
(lp347
sg13
S'android.os.BatteryStats$HistoryStepDetails'
p348
sg15
(lp349
sg17
(lp350
sg19
(lp351
sg21
I0
sba(iArchitecture
Entity
p352
(dp353
g11
(lp354
sg13
S'android.os.BatteryStats$HistoryTag'
p355
sg15
(lp356
sg17
(lp357
sg19
(lp358
sg21
I0
sba(iArchitecture
Entity
p359
(dp360
g11
(lp361
sg13
S'android.os.BatteryStats$LevelStepTracker'
p362
sg15
(lp363
sg17
(lp364
sg19
(lp365
sg21
I0
sba(iArchitecture
Entity
p366
(dp367
g11
(lp368
sg13
S'android.os.BatteryStats$LongCounter'
p369
sg15
(lp370
sg17
(lp371
sg19
(lp372
sg21
I0
sba(iArchitecture
Entity
p373
(dp374
g11
(lp375
sg13
S'android.os.BatteryStats$PackageChange'
p376
sg15
(lp377
sg17
(lp378
sg19
(lp379
sg21
I0
sba(iArchitecture
Entity
p380
(dp381
g11
(lp382
sg13
S'android.os.BatteryStats$Timer'
p383
sg15
(lp384
sg17
(lp385
sg19
(lp386
sg21
I0
sba(iArchitecture
Entity
p387
(dp388
g11
(lp389
sg13
S'android.os.BatteryStats$TimerEntry'
p390
sg15
(lp391
sg17
(lp392
sg19
(lp393
sg21
I0
sba(iArchitecture
Entity
p394
(dp395
g11
(lp396
sg13
S'android.os.BatteryStats$Uid'
p397
sg15
(lp398
sg17
(lp399
sg19
(lp400
sg21
I0
sba(iArchitecture
Entity
p401
(dp402
g11
(lp403
sg13
S'android.os.BatteryStats$Uid$Pid'
p404
sg15
(lp405
sg17
(lp406
sg19
(lp407
sg21
I0
sba(iArchitecture
Entity
p408
(dp409
g11
(lp410
sg13
S'android.os.BatteryStats$Uid$Pkg'
p411
sg15
(lp412
sg17
(lp413
sg19
(lp414
sg21
I0
sba(iArchitecture
Entity
p415
(dp416
g11
(lp417
sg13
S'android.os.BatteryStats$Uid$Pkg$Serv'
p418
sg15
(lp419
sg17
(lp420
sg19
(lp421
sg21
I0
sba(iArchitecture
Entity
p422
(dp423
g11
(lp424
sg13
S'android.os.BatteryStats$Uid$Proc'
p425
sg15
(lp426
sg17
(lp427
sg19
(lp428
sg21
I0
sba(iArchitecture
Entity
p429
(dp430
g11
(lp431
sg13
S'android.os.BatteryStats$Uid$Proc$ExcessivePower'
p432
sg15
(lp433
sg17
(lp434
sg19
(lp435
sg21
I0
sba(iArchitecture
Entity
p436
(dp437
g11
(lp438
sg13
S'android.os.BatteryStats$Uid$Sensor'
p439
sg15
(lp440
sg17
(lp441
sg19
(lp442
sg21
I0
sba(iArchitecture
Entity
p443
(dp444
g11
(lp445
sg13
S'android.os.BatteryStats$Uid$Wakelock'
p446
sg15
(lp447
sg17
(lp448
sg19
(lp449
sg21
I0
sba(iArchitecture
Entity
p450
(dp451
g11
(lp452
sg13
S'com.android.internal.os.BatteryStatsImpl'
p453
sg15
(lp454
sg17
(lp455
sg19
(lp456
sg21
I0
sba(iArchitecture
Entity
p457
(dp458
g11
(lp459
sg13
S'com.android.internal.os.BatteryStatsImpl$1'
p460
sg15
(lp461
sg17
(lp462
sg19
(lp463
sg21
I0
sba(iArchitecture
Entity
p464
(dp465
g11
(lp466
sg13
S'com.android.internal.os.BatteryStatsImpl$2'
p467
sg15
(lp468
sg17
(lp469
sg19
(lp470
sg21
I0
sba(iArchitecture
Entity
p471
(dp472
g11
(lp473
sg13
S'com.android.internal.os.BatteryStatsImpl$3'
p474
sg15
(lp475
sg17
(lp476
sg19
(lp477
sg21
I0
sba(iArchitecture
Entity
p478
(dp479
g11
(lp480
sg13
S'com.android.internal.os.BatteryStatsImpl$4'
p481
sg15
(lp482
sg17
(lp483
sg19
(lp484
sg21
I0
sba(iArchitecture
Entity
p485
(dp486
g11
(lp487
sg13
S'com.android.internal.os.BatteryStatsImpl$5'
p488
sg15
(lp489
sg17
(lp490
sg19
(lp491
sg21
I0
sba(iArchitecture
Entity
p492
(dp493
g11
(lp494
sg13
S'com.android.internal.os.BatteryStatsImpl$BatchTimer'
p495
sg15
(lp496
sg17
(lp497
sg19
(lp498
sg21
I0
sba(iArchitecture
Entity
p499
(dp500
g11
(lp501
sg13
S'com.android.internal.os.BatteryStatsImpl$BatteryCallback'
p502
sg15
(lp503
sg17
(lp504
sg19
(lp505
sg21
I0
sba(iArchitecture
Entity
p506
(dp507
g11
(lp508
sg13
S'com.android.internal.os.BatteryStatsImpl$Clocks'
p509
sg15
(lp510
sg17
(lp511
sg19
(lp512
sg21
I0
sba(iArchitecture
Entity
p513
(dp514
g11
(lp515
sg13
S'com.android.internal.os.BatteryStatsImpl$ControllerActivityCounterImpl'
p516
sg15
(lp517
sg17
(lp518
sg19
(lp519
sg21
I0
sba(iArchitecture
Entity
p520
(dp521
g11
(lp522
sg13
S'com.android.internal.os.BatteryStatsImpl$Counter'
p523
sg15
(lp524
sg17
(lp525
sg19
(lp526
sg21
I0
sba(iArchitecture
Entity
p527
(dp528
g11
(lp529
sg13
S'com.android.internal.os.BatteryStatsImpl$ExternalStatsSync'
p530
sg15
(lp531
sg17
(lp532
sg19
(lp533
sg21
I0
sba(iArchitecture
Entity
p534
(dp535
g11
(lp536
sg13
S'com.android.internal.os.BatteryStatsImpl$LongSamplingCounter'
p537
sg15
(lp538
sg17
(lp539
sg19
(lp540
sg21
I0
sba(iArchitecture
Entity
p541
(dp542
g11
(lp543
sg13
S'com.android.internal.os.BatteryStatsImpl$MyHandler'
p544
sg15
(lp545
sg17
(lp546
sg19
(lp547
sg21
I0
sba(iArchitecture
Entity
p548
(dp549
g11
(lp550
sg13
S'com.android.internal.os.BatteryStatsImpl$OverflowArrayMap'
p551
sg15
(lp552
sg17
(lp553
sg19
(lp554
sg21
I0
sba(iArchitecture
Entity
p555
(dp556
g11
(lp557
sg13
S'com.android.internal.os.BatteryStatsImpl$PlatformIdleStateCallback'
p558
sg15
(lp559
sg17
(lp560
sg19
(lp561
sg21
I0
sba(iArchitecture
Entity
p562
(dp563
g11
(lp564
sg13
S'com.android.internal.os.BatteryStatsImpl$SamplingTimer'
p565
sg15
(lp566
sg17
(lp567
sg19
(lp568
sg21
I0
sba(iArchitecture
Entity
p569
(dp570
g11
(lp571
sg13
S'com.android.internal.os.BatteryStatsImpl$StopwatchTimer'
p572
sg15
(lp573
sg17
(lp574
sg19
(lp575
sg21
I0
sba(iArchitecture
Entity
p576
(dp577
g11
(lp578
sg13
S'com.android.internal.os.BatteryStatsImpl$SystemClocks'
p579
sg15
(lp580
sg17
(lp581
sg19
(lp582
sg21
I0
sba(iArchitecture
Entity
p583
(dp584
g11
(lp585
sg13
S'com.android.internal.os.BatteryStatsImpl$TimeBase'
p586
sg15
(lp587
sg17
(lp588
sg19
(lp589
sg21
I0
sba(iArchitecture
Entity
p590
(dp591
g11
(lp592
sg13
S'com.android.internal.os.BatteryStatsImpl$TimeBaseObs'
p593
sg15
(lp594
sg17
(lp595
sg19
(lp596
sg21
I0
sba(iArchitecture
Entity
p597
(dp598
g11
(lp599
sg13
S'com.android.internal.os.BatteryStatsImpl$Timer'
p600
sg15
(lp601
sg17
(lp602
sg19
(lp603
sg21
I0
sba(iArchitecture
Entity
p604
(dp605
g11
(lp606
sg13
S'com.android.internal.os.BatteryStatsImpl$Uid'
p607
sg15
(lp608
sg17
(lp609
sg19
(lp610
sg21
I0
sba(iArchitecture
Entity
p611
(dp612
g11
(lp613
sg13
S'com.android.internal.os.BatteryStatsImpl$Uid$1'
p614
sg15
(lp615
sg17
(lp616
sg19
(lp617
sg21
I0
sba(iArchitecture
Entity
p618
(dp619
g11
(lp620
sg13
S'com.android.internal.os.BatteryStatsImpl$Uid$2'
p621
sg15
(lp622
sg17
(lp623
sg19
(lp624
sg21
I0
sba(iArchitecture
Entity
p625
(dp626
g11
(lp627
sg13
S'com.android.internal.os.BatteryStatsImpl$Uid$3'
p628
sg15
(lp629
sg17
(lp630
sg19
(lp631
sg21
I0
sba(iArchitecture
Entity
p632
(dp633
g11
(lp634
sg13
S'com.android.internal.os.BatteryStatsImpl$Uid$Pkg'
p635
sg15
(lp636
sg17
(lp637
sg19
(lp638
sg21
I0
sba(iArchitecture
Entity
p639
(dp640
g11
(lp641
sg13
S'com.android.internal.os.BatteryStatsImpl$Uid$Pkg$Serv'
p642
sg15
(lp643
sg17
(lp644
sg19
(lp645
sg21
I0
sba(iArchitecture
Entity
p646
(dp647
g11
(lp648
sg13
S'com.android.internal.os.BatteryStatsImpl$Uid$Proc'
p649
sg15
(lp650
sg17
(lp651
sg19
(lp652
sg21
I0
sba(iArchitecture
Entity
p653
(dp654
g11
(lp655
sg13
S'com.android.internal.os.BatteryStatsImpl$Uid$Sensor'
p656
sg15
(lp657
sg17
(lp658
sg19
(lp659
sg21
I0
sba(iArchitecture
Entity
p660
(dp661
g11
(lp662
sg13
S'com.android.internal.os.BatteryStatsImpl$Uid$Wakelock'
p663
sg15
(lp664
sg17
(lp665
sg19
(lp666
sg21
I0
sbasg43
(lp667
g285
ag292
ag299
ag306
ag313
ag320
ag327
ag334
ag341
ag348
ag355
ag362
ag369
ag376
ag383
ag390
ag397
ag404
ag411
ag418
ag425
ag432
ag439
ag446
ag453
ag460
ag467
ag474
ag481
ag488
ag495
ag502
ag509
ag516
ag523
ag530
ag537
ag544
ag551
ag558
ag565
ag572
ag579
ag586
ag593
ag600
ag607
ag614
ag621
ag628
ag635
ag642
ag649
ag656
ag663
asg21
I0
sg45
S'1250'
p668
sba(iArchitecture
Cluster
p669
(dp670
g7
(lp671
(iArchitecture
Entity
p672
(dp673
g11
(lp674
sg13
S'android.filterfw.core.AsyncRunner'
p675
sg15
(lp676
sg17
(lp677
sg19
(lp678
sg21
I0
sba(iArchitecture
Entity
p679
(dp680
g11
(lp681
sg13
S'android.filterfw.core.AsyncRunner$AsyncRunnerTask'
p682
sg15
(lp683
sg17
(lp684
sg19
(lp685
sg21
I0
sba(iArchitecture
Entity
p686
(dp687
g11
(lp688
sg13
S'android.filterfw.core.AsyncRunner$RunnerResult'
p689
sg15
(lp690
sg17
(lp691
sg19
(lp692
sg21
I0
sba(iArchitecture
Entity
p693
(dp694
g11
(lp695
sg13
S'android.filterfw.core.SyncRunner'
p696
sg15
(lp697
sg17
(lp698
sg19
(lp699
sg21
I0
sba(iArchitecture
Entity
p700
(dp701
g11
(lp702
sg13
S'android.filterfw.core.SyncRunner$1'
p703
sg15
(lp704
sg17
(lp705
sg19
(lp706
sg21
I0
sbasg43
(lp707
g675
ag682
ag689
ag696
ag703
asg21
I0
sg45
S'1251'
p708
sba(iArchitecture
Cluster
p709
(dp710
g7
(lp711
(iArchitecture
Entity
p712
(dp713
g11
(lp714
sg13
S'com.android.server.location.MockProvider'
p715
sg15
(lp716
sg17
(lp717
sg19
(lp718
sg21
I0
sba(iArchitecture
Entity
p719
(dp720
g11
(lp721
sg13
S'com.android.server.location.PassiveProvider'
p722
sg15
(lp723
sg17
(lp724
sg19
(lp725
sg21
I0
sbasg43
(lp726
g715
ag722
asg21
I0
sg45
S'1252'
p727
sba(iArchitecture
Cluster
p728
(dp729
g7
(lp730
(iArchitecture
Entity
p731
(dp732
g11
(lp733
sg13
S'android.telephony.CellSignalStrengthGsm'
p734
sg15
(lp735
sg17
(lp736
sg19
(lp737
sg21
I0
sba(iArchitecture
Entity
p738
(dp739
g11
(lp740
sg13
S'android.telephony.CellSignalStrengthGsm$1'
p741
sg15
(lp742
sg17
(lp743
sg19
(lp744
sg21
I0
sba(iArchitecture
Entity
p745
(dp746
g11
(lp747
sg13
S'android.telephony.CellSignalStrengthWcdma'
p748
sg15
(lp749
sg17
(lp750
sg19
(lp751
sg21
I0
sba(iArchitecture
Entity
p752
(dp753
g11
(lp754
sg13
S'android.telephony.CellSignalStrengthWcdma$1'
p755
sg15
(lp756
sg17
(lp757
sg19
(lp758
sg21
I0
sbasg43
(lp759
g734
ag741
ag748
ag755
asg21
I0
sg45
S'1253'
p760
sba(iArchitecture
Cluster
p761
(dp762
g7
(lp763
(iArchitecture
Entity
p764
(dp765
g11
(lp766
sg13
S'android.location.GnssMeasurementCallbackTransport'
p767
sg15
(lp768
sg17
(lp769
sg19
(lp770
sg21
I0
sba(iArchitecture
Entity
p771
(dp772
g11
(lp773
sg13
S'android.location.GnssMeasurementCallbackTransport$ListenerTransport'
p774
sg15
(lp775
sg17
(lp776
sg19
(lp777
sg21
I0
sba(iArchitecture
Entity
p778
(dp779
g11
(lp780
sg13
S'android.location.GnssMeasurementCallbackTransport$ListenerTransport$1'
p781
sg15
(lp782
sg17
(lp783
sg19
(lp784
sg21
I0
sba(iArchitecture
Entity
p785
(dp786
g11
(lp787
sg13
S'android.location.GnssMeasurementCallbackTransport$ListenerTransport$2'
p788
sg15
(lp789
sg17
(lp790
sg19
(lp791
sg21
I0
sba(iArchitecture
Entity
p792
(dp793
g11
(lp794
sg13
S'android.location.GnssNavigationMessageCallbackTransport'
p795
sg15
(lp796
sg17
(lp797
sg19
(lp798
sg21
I0
sba(iArchitecture
Entity
p799
(dp800
g11
(lp801
sg13
S'android.location.GnssNavigationMessageCallbackTransport$ListenerTransport'
p802
sg15
(lp803
sg17
(lp804
sg19
(lp805
sg21
I0
sba(iArchitecture
Entity
p806
(dp807
g11
(lp808
sg13
S'android.location.GnssNavigationMessageCallbackTransport$ListenerTransport$1'
p809
sg15
(lp810
sg17
(lp811
sg19
(lp812
sg21
I0
sba(iArchitecture
Entity
p813
(dp814
g11
(lp815
sg13
S'android.location.GnssNavigationMessageCallbackTransport$ListenerTransport$2'
p816
sg15
(lp817
sg17
(lp818
sg19
(lp819
sg21
I0
sba(iArchitecture
Entity
p820
(dp821
g11
(lp822
sg13
S'com.android.server.location.GnssMeasurementsProvider'
p823
sg15
(lp824
sg17
(lp825
sg19
(lp826
sg21
I0
sba(iArchitecture
Entity
p827
(dp828
g11
(lp829
sg13
S'com.android.server.location.GnssMeasurementsProvider$1'
p830
sg15
(lp831
sg17
(lp832
sg19
(lp833
sg21
I0
sba(iArchitecture
Entity
p834
(dp835
g11
(lp836
sg13
S'com.android.server.location.GnssMeasurementsProvider$StatusChangedOperation'
p837
sg15
(lp838
sg17
(lp839
sg19
(lp840
sg21
I0
sba(iArchitecture
Entity
p841
(dp842
g11
(lp843
sg13
S'com.android.server.location.GnssNavigationMessageProvider'
p844
sg15
(lp845
sg17
(lp846
sg19
(lp847
sg21
I0
sba(iArchitecture
Entity
p848
(dp849
g11
(lp850
sg13
S'com.android.server.location.GnssNavigationMessageProvider$1'
p851
sg15
(lp852
sg17
(lp853
sg19
(lp854
sg21
I0
sba(iArchitecture
Entity
p855
(dp856
g11
(lp857
sg13
S'com.android.server.location.GnssNavigationMessageProvider$StatusChangedOperation'
p858
sg15
(lp859
sg17
(lp860
sg19
(lp861
sg21
I0
sbasg43
(lp862
g767
ag774
ag781
ag788
ag795
ag802
ag809
ag816
ag823
ag830
ag837
ag844
ag851
ag858
asg21
I0
sg45
S'1254'
p863
sba(iArchitecture
Cluster
p864
(dp865
g7
(lp866
(iArchitecture
Entity
p867
(dp868
g11
(lp869
sg13
S'android.telephony.SmsMessage'
p870
sg15
(lp871
sg17
(lp872
sg19
(lp873
sg21
I0
sba(iArchitecture
Entity
p874
(dp875
g11
(lp876
sg13
S'com.android.internal.telephony.SmsMessageBase'
p877
sg15
(lp878
sg17
(lp879
sg19
(lp880
sg21
I0
sbasg43
(lp881
g870
ag877
asg21
I0
sg45
S'1255'
p882
sba(iArchitecture
Cluster
p883
(dp884
g7
(lp885
(iArchitecture
Entity
p886
(dp887
g11
(lp888
sg13
S'android.media.AudioGain'
p889
sg15
(lp890
sg17
(lp891
sg19
(lp892
sg21
I0
sba(iArchitecture
Entity
p893
(dp894
g11
(lp895
sg13
S'android.media.AudioGainConfig'
p896
sg15
(lp897
sg17
(lp898
sg19
(lp899
sg21
I0
sbasg43
(lp900
g889
ag896
asg21
I0
sg45
S'1256'
p901
sba(iArchitecture
Cluster
p902
(dp903
g7
(lp904
(iArchitecture
Entity
p905
(dp906
g11
(lp907
sg13
S'android.transition.ChangeImageTransform'
p908
sg15
(lp909
sg17
(lp910
sg19
(lp911
sg21
I0
sba(iArchitecture
Entity
p912
(dp913
g11
(lp914
sg13
S'android.transition.ChangeImageTransform$1'
p915
sg15
(lp916
sg17
(lp917
sg19
(lp918
sg21
I0
sba(iArchitecture
Entity
p919
(dp920
g11
(lp921
sg13
S'android.transition.ChangeImageTransform$2'
p922
sg15
(lp923
sg17
(lp924
sg19
(lp925
sg21
I0
sba(iArchitecture
Entity
p926
(dp927
g11
(lp928
sg13
S'android.transition.TransitionUtils'
p929
sg15
(lp930
sg17
(lp931
sg19
(lp932
sg21
I0
sba(iArchitecture
Entity
p933
(dp934
g11
(lp935
sg13
S'android.transition.TransitionUtils$MatrixEvaluator'
p936
sg15
(lp937
sg17
(lp938
sg19
(lp939
sg21
I0
sbasg43
(lp940
g908
ag915
ag922
ag929
ag936
asg21
I0
sg45
S'1257'
p941
sba(iArchitecture
Cluster
p942
(dp943
g7
(lp944
(iArchitecture
Entity
p945
(dp946
g11
(lp947
sg13
S'android.renderscript.ScriptIntrinsic3DLUT'
p948
sg15
(lp949
sg17
(lp950
sg19
(lp951
sg21
I0
sba(iArchitecture
Entity
p952
(dp953
g11
(lp954
sg13
S'android.renderscript.ScriptIntrinsicBlur'
p955
sg15
(lp956
sg17
(lp957
sg19
(lp958
sg21
I0
sba(iArchitecture
Entity
p959
(dp960
g11
(lp961
sg13
S'android.renderscript.ScriptIntrinsicConvolve3x3'
p962
sg15
(lp963
sg17
(lp964
sg19
(lp965
sg21
I0
sba(iArchitecture
Entity
p966
(dp967
g11
(lp968
sg13
S'android.renderscript.ScriptIntrinsicConvolve5x5'
p969
sg15
(lp970
sg17
(lp971
sg19
(lp972
sg21
I0
sba(iArchitecture
Entity
p973
(dp974
g11
(lp975
sg13
S'android.renderscript.ScriptIntrinsicHistogram'
p976
sg15
(lp977
sg17
(lp978
sg19
(lp979
sg21
I0
sba(iArchitecture
Entity
p980
(dp981
g11
(lp982
sg13
S'android.renderscript.ScriptIntrinsicLUT'
p983
sg15
(lp984
sg17
(lp985
sg19
(lp986
sg21
I0
sba(iArchitecture
Entity
p987
(dp988
g11
(lp989
sg13
S'android.renderscript.ScriptIntrinsicResize'
p990
sg15
(lp991
sg17
(lp992
sg19
(lp993
sg21
I0
sba(iArchitecture
Entity
p994
(dp995
g11
(lp996
sg13
S'android.renderscript.ScriptIntrinsicYuvToRGB'
p997
sg15
(lp998
sg17
(lp999
sg19
(lp1000
sg21
I0
sbasg43
(lp1001
g948
ag955
ag962
ag969
ag976
ag983
ag990
ag997
asg21
I0
sg45
S'1258'
p1002
sba(iArchitecture
Cluster
p1003
(dp1004
g7
(lp1005
(iArchitecture
Entity
p1006
(dp1007
g11
(lp1008
sg13
S'android.media.browse.MediaBrowser'
p1009
sg15
(lp1010
sg17
(lp1011
sg19
(lp1012
sg21
I0
sba(iArchitecture
Entity
p1013
(dp1014
g11
(lp1015
sg13
S'android.media.browse.MediaBrowser$1'
p1016
sg15
(lp1017
sg17
(lp1018
sg19
(lp1019
sg21
I0
sba(iArchitecture
Entity
p1020
(dp1021
g11
(lp1022
sg13
S'android.media.browse.MediaBrowser$2'
p1023
sg15
(lp1024
sg17
(lp1025
sg19
(lp1026
sg21
I0
sba(iArchitecture
Entity
p1027
(dp1028
g11
(lp1029
sg13
S'android.media.browse.MediaBrowser$3'
p1030
sg15
(lp1031
sg17
(lp1032
sg19
(lp1033
sg21
I0
sba(iArchitecture
Entity
p1034
(dp1035
g11
(lp1036
sg13
S'android.media.browse.MediaBrowser$4'
p1037
sg15
(lp1038
sg17
(lp1039
sg19
(lp1040
sg21
I0
sba(iArchitecture
Entity
p1041
(dp1042
g11
(lp1043
sg13
S'android.media.browse.MediaBrowser$5'
p1044
sg15
(lp1045
sg17
(lp1046
sg19
(lp1047
sg21
I0
sba(iArchitecture
Entity
p1048
(dp1049
g11
(lp1050
sg13
S'android.media.browse.MediaBrowser$6'
p1051
sg15
(lp1052
sg17
(lp1053
sg19
(lp1054
sg21
I0
sba(iArchitecture
Entity
p1055
(dp1056
g11
(lp1057
sg13
S'android.media.browse.MediaBrowser$7'
p1058
sg15
(lp1059
sg17
(lp1060
sg19
(lp1061
sg21
I0
sba(iArchitecture
Entity
p1062
(dp1063
g11
(lp1064
sg13
S'android.media.browse.MediaBrowser$ConnectionCallback'
p1065
sg15
(lp1066
sg17
(lp1067
sg19
(lp1068
sg21
I0
sba(iArchitecture
Entity
p1069
(dp1070
g11
(lp1071
sg13
S'android.media.browse.MediaBrowser$ItemCallback'
p1072
sg15
(lp1073
sg17
(lp1074
sg19
(lp1075
sg21
I0
sba(iArchitecture
Entity
p1076
(dp1077
g11
(lp1078
sg13
S'android.media.browse.MediaBrowser$MediaItem'
p1079
sg15
(lp1080
sg17
(lp1081
sg19
(lp1082
sg21
I0
sba(iArchitecture
Entity
p1083
(dp1084
g11
(lp1085
sg13
S'android.media.browse.MediaBrowser$MediaItem$1'
p1086
sg15
(lp1087
sg17
(lp1088
sg19
(lp1089
sg21
I0
sba(iArchitecture
Entity
p1090
(dp1091
g11
(lp1092
sg13
S'android.media.browse.MediaBrowser$MediaServiceConnection'
p1093
sg15
(lp1094
sg17
(lp1095
sg19
(lp1096
sg21
I0
sba(iArchitecture
Entity
p1097
(dp1098
g11
(lp1099
sg13
S'android.media.browse.MediaBrowser$MediaServiceConnection$1'
p1100
sg15
(lp1101
sg17
(lp1102
sg19
(lp1103
sg21
I0
sba(iArchitecture
Entity
p1104
(dp1105
g11
(lp1106
sg13
S'android.media.browse.MediaBrowser$MediaServiceConnection$2'
p1107
sg15
(lp1108
sg17
(lp1109
sg19
(lp1110
sg21
I0
sba(iArchitecture
Entity
p1111
(dp1112
g11
(lp1113
sg13
S'android.media.browse.MediaBrowser$ServiceCallbacks'
p1114
sg15
(lp1115
sg17
(lp1116
sg19
(lp1117
sg21
I0
sba(iArchitecture
Entity
p1118
(dp1119
g11
(lp1120
sg13
S'android.media.browse.MediaBrowser$Subscription'
p1121
sg15
(lp1122
sg17
(lp1123
sg19
(lp1124
sg21
I0
sba(iArchitecture
Entity
p1125
(dp1126
g11
(lp1127
sg13
S'android.media.browse.MediaBrowser$SubscriptionCallback'
p1128
sg15
(lp1129
sg17
(lp1130
sg19
(lp1131
sg21
I0
sba(iArchitecture
Entity
p1132
(dp1133
g11
(lp1134
sg13
S'android.service.media.MediaBrowserService'
p1135
sg15
(lp1136
sg17
(lp1137
sg19
(lp1138
sg21
I0
sba(iArchitecture
Entity
p1139
(dp1140
g11
(lp1141
sg13
S'android.service.media.MediaBrowserService$1'
p1142
sg15
(lp1143
sg17
(lp1144
sg19
(lp1145
sg21
I0
sba(iArchitecture
Entity
p1146
(dp1147
g11
(lp1148
sg13
S'android.service.media.MediaBrowserService$2'
p1149
sg15
(lp1150
sg17
(lp1151
sg19
(lp1152
sg21
I0
sba(iArchitecture
Entity
p1153
(dp1154
g11
(lp1155
sg13
S'android.service.media.MediaBrowserService$3'
p1156
sg15
(lp1157
sg17
(lp1158
sg19
(lp1159
sg21
I0
sba(iArchitecture
Entity
p1160
(dp1161
g11
(lp1162
sg13
S'android.service.media.MediaBrowserService$4'
p1163
sg15
(lp1164
sg17
(lp1165
sg19
(lp1166
sg21
I0
sba(iArchitecture
Entity
p1167
(dp1168
g11
(lp1169
sg13
S'android.service.media.MediaBrowserService$BrowserRoot'
p1170
sg15
(lp1171
sg17
(lp1172
sg19
(lp1173
sg21
I0
sba(iArchitecture
Entity
p1174
(dp1175
g11
(lp1176
sg13
S'android.service.media.MediaBrowserService$ConnectionRecord'
p1177
sg15
(lp1178
sg17
(lp1179
sg19
(lp1180
sg21
I0
sba(iArchitecture
Entity
p1181
(dp1182
g11
(lp1183
sg13
S'android.service.media.MediaBrowserService$Result'
p1184
sg15
(lp1185
sg17
(lp1186
sg19
(lp1187
sg21
I0
sba(iArchitecture
Entity
p1188
(dp1189
g11
(lp1190
sg13
S'android.service.media.MediaBrowserService$ServiceBinder'
p1191
sg15
(lp1192
sg17
(lp1193
sg19
(lp1194
sg21
I0
sba(iArchitecture
Entity
p1195
(dp1196
g11
(lp1197
sg13
S'android.service.media.MediaBrowserService$ServiceBinder$1'
p1198
sg15
(lp1199
sg17
(lp1200
sg19
(lp1201
sg21
I0
sba(iArchitecture
Entity
p1202
(dp1203
g11
(lp1204
sg13
S'android.service.media.MediaBrowserService$ServiceBinder$2'
p1205
sg15
(lp1206
sg17
(lp1207
sg19
(lp1208
sg21
I0
sba(iArchitecture
Entity
p1209
(dp1210
g11
(lp1211
sg13
S'android.service.media.MediaBrowserService$ServiceBinder$3'
p1212
sg15
(lp1213
sg17
(lp1214
sg19
(lp1215
sg21
I0
sba(iArchitecture
Entity
p1216
(dp1217
g11
(lp1218
sg13
S'android.service.media.MediaBrowserService$ServiceBinder$4'
p1219
sg15
(lp1220
sg17
(lp1221
sg19
(lp1222
sg21
I0
sba(iArchitecture
Entity
p1223
(dp1224
g11
(lp1225
sg13
S'android.service.media.MediaBrowserService$ServiceBinder$5'
p1226
sg15
(lp1227
sg17
(lp1228
sg19
(lp1229
sg21
I0
sbasg43
(lp1230
g1009
ag1016
ag1023
ag1030
ag1037
ag1044
ag1051
ag1058
ag1065
ag1072
ag1079
ag1086
ag1093
ag1100
ag1107
ag1114
ag1121
ag1128
ag1135
ag1142
ag1149
ag1156
ag1163
ag1170
ag1177
ag1184
ag1191
ag1198
ag1205
ag1212
ag1219
ag1226
asg21
I0
sg45
S'1259'
p1231
sba(iArchitecture
Cluster
p1232
(dp1233
g7
(lp1234
(iArchitecture
Entity
p1235
(dp1236
g11
(lp1237
sg13
S'android.media.MediaSyncEvent'
p1238
sg15
(lp1239
sg17
(lp1240
sg19
(lp1241
sg21
I0
sba(iArchitecture
Entity
p1242
(dp1243
g11
(lp1244
sg13
S'android.os.HardwarePropertiesManager'
p1245
sg15
(lp1246
sg17
(lp1247
sg19
(lp1248
sg21
I0
sba(iArchitecture
Entity
p1249
(dp1250
g11
(lp1251
sg13
S'android.speech.tts.AudioPlaybackQueueItem'
p1252
sg15
(lp1253
sg17
(lp1254
sg19
(lp1255
sg21
I0
sba(iArchitecture
Entity
p1256
(dp1257
g11
(lp1258
sg13
S'android.speech.tts.AudioPlaybackQueueItem$1'
p1259
sg15
(lp1260
sg17
(lp1261
sg19
(lp1262
sg21
I0
sba(iArchitecture
Entity
p1263
(dp1264
g11
(lp1265
sg13
S'android.speech.tts.AudioPlaybackQueueItem$2'
p1266
sg15
(lp1267
sg17
(lp1268
sg19
(lp1269
sg21
I0
sbasg43
(lp1270
g1238
ag1245
ag1252
ag1259
ag1266
asg21
I0
sg45
S'1325'
p1271
sba(iArchitecture
Cluster
p1272
(dp1273
g7
(lp1274
(iArchitecture
Entity
p1275
(dp1276
g11
(lp1277
sg13
S'com.android.server.os.SchedulingPolicyService'
p1278
sg15
(lp1279
sg17
(lp1280
sg19
(lp1281
sg21
I0
sbasg43
(lp1282
g1278
asg21
I0
sg45
S'225'
p1283
sba(iArchitecture
Cluster
p1284
(dp1285
g7
(lp1286
(iArchitecture
Entity
p1287
(dp1288
g11
(lp1289
sg13
S'android.app.FragmentController'
p1290
sg15
(lp1291
sg17
(lp1292
sg19
(lp1293
sg21
I0
sbasg43
(lp1294
g1290
asg21
I0
sg45
S'25'
p1295
sba(iArchitecture
Cluster
p1296
(dp1297
g7
(lp1298
(iArchitecture
Entity
p1299
(dp1300
g11
(lp1301
sg13
S'android.content.res.TypedArray'
p1302
sg15
(lp1303
sg17
(lp1304
sg19
(lp1305
sg21
I0
sbasg43
(lp1306
g1302
asg21
I0
sg45
S'250'
p1307
sba(iArchitecture
Cluster
p1308
(dp1309
g7
(lp1310
(iArchitecture
Entity
p1311
(dp1312
g11
(lp1313
sg13
S'android.content.DefaultDataHandler'
p1314
sg15
(lp1315
sg17
(lp1316
sg19
(lp1317
sg21
I0
sbasg43
(lp1318
g1314
asg21
I0
sg45
S'251'
p1319
sba(iArchitecture
Cluster
p1320
(dp1321
g7
(lp1322
(iArchitecture
Entity
p1323
(dp1324
g11
(lp1325
sg13
S'com.android.internal.view.animation.FallbackLUTInterpolator'
p1326
sg15
(lp1327
sg17
(lp1328
sg19
(lp1329
sg21
I0
sbasg43
(lp1330
g1326
asg21
I0
sg45
S'252'
p1331
sba(iArchitecture
Cluster
p1332
(dp1333
g7
(lp1334
(iArchitecture
Entity
p1335
(dp1336
g11
(lp1337
sg13
S'com.android.server.twilight.TwilightState'
p1338
sg15
(lp1339
sg17
(lp1340
sg19
(lp1341
sg21
I0
sbasg43
(lp1342
g1338
asg21
I0
sg45
S'253'
p1343
sba(iArchitecture
Cluster
p1344
(dp1345
g7
(lp1346
(iArchitecture
Entity
p1347
(dp1348
g11
(lp1349
sg13
S'android.app.ActivityGroup'
p1350
sg15
(lp1351
sg17
(lp1352
sg19
(lp1353
sg21
I0
sbasg43
(lp1354
g1350
asg21
I0
sg45
S'254'
p1355
sba(iArchitecture
Cluster
p1356
(dp1357
g7
(lp1358
(iArchitecture
Entity
p1359
(dp1360
g11
(lp1361
sg13
S'android.filterfw.core.FilterGraph'
p1362
sg15
(lp1363
sg17
(lp1364
sg19
(lp1365
sg21
I0
sbasg43
(lp1366
g1362
asg21
I0
sg45
S'255'
p1367
sba(iArchitecture
Cluster
p1368
(dp1369
g7
(lp1370
(iArchitecture
Entity
p1371
(dp1372
g11
(lp1373
sg13
S'android.filterfw.core.FilterSurfaceView'
p1374
sg15
(lp1375
sg17
(lp1376
sg19
(lp1377
sg21
I0
sbasg43
(lp1378
g1374
asg21
I0
sg45
S'256'
p1379
sba(iArchitecture
Cluster
p1380
(dp1381
g7
(lp1382
(iArchitecture
Entity
p1383
(dp1384
g11
(lp1385
sg13
S'com.android.server.am.HealthStatsBatteryStatsWriter'
p1386
sg15
(lp1387
sg17
(lp1388
sg19
(lp1389
sg21
I0
sbasg43
(lp1390
g1386
asg21
I0
sg45
S'257'
p1391
sba(iArchitecture
Cluster
p1392
(dp1393
g7
(lp1394
(iArchitecture
Entity
p1395
(dp1396
g11
(lp1397
sg13
S'android.nfc.NfcEvent'
p1398
sg15
(lp1399
sg17
(lp1400
sg19
(lp1401
sg21
I0
sbasg43
(lp1402
g1398
asg21
I0
sg45
S'258'
p1403
sba(iArchitecture
Cluster
p1404
(dp1405
g7
(lp1406
(iArchitecture
Entity
p1407
(dp1408
g11
(lp1409
sg13
S'android.security.net.config.ApplicationConfig'
p1410
sg15
(lp1411
sg17
(lp1412
sg19
(lp1413
sg21
I0
sbasg43
(lp1414
g1410
asg21
I0
sg45
S'259'
p1415
sba(iArchitecture
Cluster
p1416
(dp1417
g7
(lp1418
(iArchitecture
Entity
p1419
(dp1420
g11
(lp1421
sg13
S'android.provider.SearchIndexablesProvider'
p1422
sg15
(lp1423
sg17
(lp1424
sg19
(lp1425
sg21
I0
sbasg43
(lp1426
g1422
asg21
I0
sg45
S'325'
p1427
sba(iArchitecture
Cluster
p1428
(dp1429
g7
(lp1430
(iArchitecture
Entity
p1431
(dp1432
g11
(lp1433
sg13
S'com.android.server.pm.PackageKeySetData'
p1434
sg15
(lp1435
sg17
(lp1436
sg19
(lp1437
sg21
I0
sbasg43
(lp1438
g1434
asg21
I0
sg45
S'425'
p1439
sba(iArchitecture
Cluster
p1440
(dp1441
g7
(lp1442
(iArchitecture
Entity
p1443
(dp1444
g11
(lp1445
sg13
S'com.android.ims.internal.uce.presence.PresPublishTriggerType'
p1446
sg15
(lp1447
sg17
(lp1448
sg19
(lp1449
sg21
I0
sba(iArchitecture
Entity
p1450
(dp1451
g11
(lp1452
sg13
S'com.android.ims.internal.uce.presence.PresPublishTriggerType$1'
p1453
sg15
(lp1454
sg17
(lp1455
sg19
(lp1456
sg21
I0
sbasg43
(lp1457
g1446
ag1453
asg21
I0
sg45
S'525'
p1458
sba(iArchitecture
Cluster
p1459
(dp1460
g7
(lp1461
(iArchitecture
Entity
p1462
(dp1463
g11
(lp1464
sg13
S'com.android.internal.util.FastPrintWriter'
p1465
sg15
(lp1466
sg17
(lp1467
sg19
(lp1468
sg21
I0
sba(iArchitecture
Entity
p1469
(dp1470
g11
(lp1471
sg13
S'com.android.internal.util.FastPrintWriter$DummyWriter'
p1472
sg15
(lp1473
sg17
(lp1474
sg19
(lp1475
sg21
I0
sbasg43
(lp1476
g1465
ag1472
asg21
I0
sg45
S'625'
p1477
sba(iArchitecture
Cluster
p1478
(dp1479
g7
(lp1480
(iArchitecture
Entity
p1481
(dp1482
g11
(lp1483
sg13
S'android.hardware.input.TouchCalibration'
p1484
sg15
(lp1485
sg17
(lp1486
sg19
(lp1487
sg21
I0
sba(iArchitecture
Entity
p1488
(dp1489
g11
(lp1490
sg13
S'android.hardware.input.TouchCalibration$1'
p1491
sg15
(lp1492
sg17
(lp1493
sg19
(lp1494
sg21
I0
sbasg43
(lp1495
g1484
ag1491
asg21
I0
sg45
S'725'
p1496
sba(iArchitecture
Cluster
p1497
(dp1498
g7
(lp1499
(iArchitecture
Entity
p1500
(dp1501
g11
(lp1502
sg13
S'android.location.LocationRequest'
p1503
sg15
(lp1504
sg17
(lp1505
sg19
(lp1506
sg21
I0
sba(iArchitecture
Entity
p1507
(dp1508
g11
(lp1509
sg13
S'android.location.LocationRequest$1'
p1510
sg15
(lp1511
sg17
(lp1512
sg19
(lp1513
sg21
I0
sbasg43
(lp1514
g1503
ag1510
asg21
I0
sg45
S'825'
p1515
sba(iArchitecture
Cluster
p1516
(dp1517
g7
(lp1518
(iArchitecture
Entity
p1519
(dp1520
g11
(lp1521
sg13
S'android.bluetooth.le.ScanSettings'
p1522
sg15
(lp1523
sg17
(lp1524
sg19
(lp1525
sg21
I0
sba(iArchitecture
Entity
p1526
(dp1527
g11
(lp1528
sg13
S'android.bluetooth.le.ScanSettings$1'
p1529
sg15
(lp1530
sg17
(lp1531
sg19
(lp1532
sg21
I0
sba(iArchitecture
Entity
p1533
(dp1534
g11
(lp1535
sg13
S'android.bluetooth.le.ScanSettings$Builder'
p1536
sg15
(lp1537
sg17
(lp1538
sg19
(lp1539
sg21
I0
sbasg43
(lp1540
g1522
ag1529
ag1536
asg21
I0
sg45
S'925'
p1541
sbasS'target_sub'
p1542
S'25'
p1543
sg43
(lp1544
sS'is_component_arch'
p1545
I01
sg45
S'7.0.0_r1'
p1546
sba.