(lp0
(iArchitecture
Architecture
p1
(dp2
S'clusters'
p3
(lp4
(iArchitecture
Cluster
p5
(dp6
S'entities'
p7
(lp8
(iArchitecture
Entity
p9
(dp10
S'issue_ids'
p11
(lp12
sS'name'
p13
S'android.hardware.radio.RadioMetadata'
p14
sS'descs'
p15
(lp16
sS'labels'
p17
(lp18
sS'titles'
p19
(lp20
sS'change'
p21
I0
sba(iArchitecture
Entity
p22
(dp23
g11
(lp24
sg13
S'android.hardware.radio.RadioMetadata$1'
p25
sg15
(lp26
sg17
(lp27
sg19
(lp28
sg21
I0
sba(iArchitecture
Entity
p29
(dp30
g11
(lp31
sg13
S'android.hardware.radio.RadioMetadata$Builder'
p32
sg15
(lp33
sg17
(lp34
sg19
(lp35
sg21
I0
sba(iArchitecture
Entity
p36
(dp37
g11
(lp38
sg13
S'android.hardware.radio.RadioMetadata$Clock'
p39
sg15
(lp40
sg17
(lp41
sg19
(lp42
sg21
I0
sba(iArchitecture
Entity
p43
(dp44
g11
(lp45
sg13
S'android.hardware.radio.RadioMetadata$Clock$1'
p46
sg15
(lp47
sg17
(lp48
sg19
(lp49
sg21
I0
sbasS'classes'
p50
(lp51
g14
ag25
ag32
ag39
ag46
asg21
I0
sS'label'
p52
S'1096'
p53
sba(iArchitecture
Cluster
p54
(dp55
g7
(lp56
(iArchitecture
Entity
p57
(dp58
g11
(lp59
sg13
S'com.android.server.display.DisplayPowerController'
p60
sg15
(lp61
sg17
(lp62
sg19
(lp63
sg21
I0
sba(iArchitecture
Entity
p64
(dp65
g11
(lp66
sg13
S'com.android.server.display.DisplayPowerController$1'
p67
sg15
(lp68
sg17
(lp69
sg19
(lp70
sg21
I0
sba(iArchitecture
Entity
p71
(dp72
g11
(lp73
sg13
S'com.android.server.display.DisplayPowerController$2'
p74
sg15
(lp75
sg17
(lp76
sg19
(lp77
sg21
I0
sba(iArchitecture
Entity
p78
(dp79
g11
(lp80
sg13
S'com.android.server.display.DisplayPowerController$3'
p81
sg15
(lp82
sg17
(lp83
sg19
(lp84
sg21
I0
sba(iArchitecture
Entity
p85
(dp86
g11
(lp87
sg13
S'com.android.server.display.DisplayPowerController$4'
p88
sg15
(lp89
sg17
(lp90
sg19
(lp91
sg21
I0
sba(iArchitecture
Entity
p92
(dp93
g11
(lp94
sg13
S'com.android.server.display.DisplayPowerController$5'
p95
sg15
(lp96
sg17
(lp97
sg19
(lp98
sg21
I0
sba(iArchitecture
Entity
p99
(dp100
g11
(lp101
sg13
S'com.android.server.display.DisplayPowerController$6'
p102
sg15
(lp103
sg17
(lp104
sg19
(lp105
sg21
I0
sba(iArchitecture
Entity
p106
(dp107
g11
(lp108
sg13
S'com.android.server.display.DisplayPowerController$7'
p109
sg15
(lp110
sg17
(lp111
sg19
(lp112
sg21
I0
sba(iArchitecture
Entity
p113
(dp114
g11
(lp115
sg13
S'com.android.server.display.DisplayPowerController$8'
p116
sg15
(lp117
sg17
(lp118
sg19
(lp119
sg21
I0
sba(iArchitecture
Entity
p120
(dp121
g11
(lp122
sg13
S'com.android.server.display.DisplayPowerController$DisplayControllerHandler'
p123
sg15
(lp124
sg17
(lp125
sg19
(lp126
sg21
I0
sba(iArchitecture
Entity
p127
(dp128
g11
(lp129
sg13
S'com.android.server.display.DisplayPowerController$ScreenOnUnblocker'
p130
sg15
(lp131
sg17
(lp132
sg19
(lp133
sg21
I0
sbasg50
(lp134
g60
ag67
ag74
ag81
ag88
ag95
ag102
ag109
ag116
ag123
ag130
asg21
I0
sg52
S'1196'
p135
sba(iArchitecture
Cluster
p136
(dp137
g7
(lp138
(iArchitecture
Entity
p139
(dp140
g11
(lp141
sg13
S'android.os.Registrant'
p142
sg15
(lp143
sg17
(lp144
sg19
(lp145
sg21
I0
sba(iArchitecture
Entity
p146
(dp147
g11
(lp148
sg13
S'android.os.RegistrantList'
p149
sg15
(lp150
sg17
(lp151
sg19
(lp152
sg21
I0
sbasg50
(lp153
g142
ag149
asg21
I0
sg52
S'1296'
p154
sba(iArchitecture
Cluster
p155
(dp156
g7
(lp157
(iArchitecture
Entity
p158
(dp159
g11
(lp160
sg13
S'android.app.TabActivity'
p161
sg15
(lp162
sg17
(lp163
sg19
(lp164
sg21
I0
sba(iArchitecture
Entity
p165
(dp166
g11
(lp167
sg13
S'android.app.admin.SecurityLog'
p168
sg15
(lp169
sg17
(lp170
sg19
(lp171
sg21
I0
sba(iArchitecture
Entity
p172
(dp173
g11
(lp174
sg13
S'android.app.admin.SecurityLog$SecurityEvent'
p175
sg15
(lp176
sg17
(lp177
sg19
(lp178
sg21
I0
sba(iArchitecture
Entity
p179
(dp180
g11
(lp181
sg13
S'android.app.admin.SecurityLog$SecurityEvent$1'
p182
sg15
(lp183
sg17
(lp184
sg19
(lp185
sg21
I0
sbasg50
(lp186
g161
ag168
ag175
ag182
asg21
I0
sg52
S'1396'
p187
sba(iArchitecture
Cluster
p188
(dp189
g7
(lp190
(iArchitecture
Entity
p191
(dp192
g11
(lp193
sg13
S'android.mtp.MtpDeviceInfo'
p194
sg15
(lp195
sg17
(lp196
sg19
(lp197
sg21
I0
sbasg50
(lp198
g194
asg21
I0
sg52
S'196'
p199
sba(iArchitecture
Cluster
p200
(dp201
g7
(lp202
(iArchitecture
Entity
p203
(dp204
g11
(lp205
sg13
S'com.android.internal.app.procstats.SysMemUsageTable'
p206
sg15
(lp207
sg17
(lp208
sg19
(lp209
sg21
I0
sbasg50
(lp210
g206
asg21
I0
sg52
S'296'
p211
sba(iArchitecture
Cluster
p212
(dp213
g7
(lp214
(iArchitecture
Entity
p215
(dp216
g11
(lp217
sg13
S'com.android.server.usage.IntervalStats'
p218
sg15
(lp219
sg17
(lp220
sg19
(lp221
sg21
I0
sbasg50
(lp222
g218
asg21
I0
sg52
S'396'
p223
sba(iArchitecture
Cluster
p224
(dp225
g7
(lp226
(iArchitecture
Entity
p227
(dp228
g11
(lp229
sg13
S'com.android.server.policy.BarController'
p230
sg15
(lp231
sg17
(lp232
sg19
(lp233
sg21
I0
sba(iArchitecture
Entity
p234
(dp235
g11
(lp236
sg13
S'com.android.server.policy.BarController$1'
p237
sg15
(lp238
sg17
(lp239
sg19
(lp240
sg21
I0
sbasg50
(lp241
g230
ag237
asg21
I0
sg52
S'496'
p242
sba(iArchitecture
Cluster
p243
(dp244
g7
(lp245
(iArchitecture
Entity
p246
(dp247
g11
(lp248
sg13
S'android.telecom.DisconnectCause'
p249
sg15
(lp250
sg17
(lp251
sg19
(lp252
sg21
I0
sba(iArchitecture
Entity
p253
(dp254
g11
(lp255
sg13
S'android.telecom.DisconnectCause$1'
p256
sg15
(lp257
sg17
(lp258
sg19
(lp259
sg21
I0
sbasg50
(lp260
g249
ag256
asg21
I0
sg52
S'596'
p261
sba(iArchitecture
Cluster
p262
(dp263
g7
(lp264
(iArchitecture
Entity
p265
(dp266
g11
(lp267
sg13
S'android.os.Message'
p268
sg15
(lp269
sg17
(lp270
sg19
(lp271
sg21
I0
sba(iArchitecture
Entity
p272
(dp273
g11
(lp274
sg13
S'android.os.Message$1'
p275
sg15
(lp276
sg17
(lp277
sg19
(lp278
sg21
I0
sbasg50
(lp279
g268
ag275
asg21
I0
sg52
S'696'
p280
sba(iArchitecture
Cluster
p281
(dp282
g7
(lp283
(iArchitecture
Entity
p284
(dp285
g11
(lp286
sg13
S'android.os.Environment'
p287
sg15
(lp288
sg17
(lp289
sg19
(lp290
sg21
I0
sba(iArchitecture
Entity
p291
(dp292
g11
(lp293
sg13
S'android.os.Environment$UserEnvironment'
p294
sg15
(lp295
sg17
(lp296
sg19
(lp297
sg21
I0
sbasg50
(lp298
g287
ag294
asg21
I0
sg52
S'796'
p299
sba(iArchitecture
Cluster
p300
(dp301
g7
(lp302
(iArchitecture
Entity
p303
(dp304
g11
(lp305
sg13
S'android.transition.Fade'
p306
sg15
(lp307
sg17
(lp308
sg19
(lp309
sg21
I0
sba(iArchitecture
Entity
p310
(dp311
g11
(lp312
sg13
S'android.transition.Fade$1'
p313
sg15
(lp314
sg17
(lp315
sg19
(lp316
sg21
I0
sba(iArchitecture
Entity
p317
(dp318
g11
(lp319
sg13
S'android.transition.Fade$FadeAnimatorListener'
p320
sg15
(lp321
sg17
(lp322
sg19
(lp323
sg21
I0
sbasg50
(lp324
g306
ag313
ag320
asg21
I0
sg52
S'896'
p325
sba(iArchitecture
Cluster
p326
(dp327
g7
(lp328
(iArchitecture
Entity
p329
(dp330
g11
(lp331
sg13
S'android.telephony.CarrierConfigManager'
p332
sg15
(lp333
sg17
(lp334
sg19
(lp335
sg21
I0
sbasg50
(lp336
g332
asg21
I0
sg52
S'96'
p337
sba(iArchitecture
Cluster
p338
(dp339
g7
(lp340
(iArchitecture
Entity
p341
(dp342
g11
(lp343
sg13
S'android.media.Utils'
p344
sg15
(lp345
sg17
(lp346
sg19
(lp347
sg21
I0
sba(iArchitecture
Entity
p348
(dp349
g11
(lp350
sg13
S'android.media.Utils$1'
p351
sg15
(lp352
sg17
(lp353
sg19
(lp354
sg21
I0
sba(iArchitecture
Entity
p355
(dp356
g11
(lp357
sg13
S'android.media.Utils$2'
p358
sg15
(lp359
sg17
(lp360
sg19
(lp361
sg21
I0
sbasg50
(lp362
g344
ag351
ag358
asg21
I0
sg52
S'960'
p363
sba(iArchitecture
Cluster
p364
(dp365
g7
(lp366
(iArchitecture
Entity
p367
(dp368
g11
(lp369
sg13
S'android.net.ip.IpReachabilityMonitor'
p370
sg15
(lp371
sg17
(lp372
sg19
(lp373
sg21
I0
sba(iArchitecture
Entity
p374
(dp375
g11
(lp376
sg13
S'android.net.ip.IpReachabilityMonitor$Callback'
p377
sg15
(lp378
sg17
(lp379
sg19
(lp380
sg21
I0
sba(iArchitecture
Entity
p381
(dp382
g11
(lp383
sg13
S'android.net.ip.IpReachabilityMonitor$NetlinkSocketObserver'
p384
sg15
(lp385
sg17
(lp386
sg19
(lp387
sg21
I0
sbasg50
(lp388
g370
ag377
ag384
asg21
I0
sg52
S'961'
p389
sba(iArchitecture
Cluster
p390
(dp391
g7
(lp392
(iArchitecture
Entity
p393
(dp394
g11
(lp395
sg13
S'android.content.Loader'
p396
sg15
(lp397
sg17
(lp398
sg19
(lp399
sg21
I0
sba(iArchitecture
Entity
p400
(dp401
g11
(lp402
sg13
S'android.content.Loader$ForceLoadContentObserver'
p403
sg15
(lp404
sg17
(lp405
sg19
(lp406
sg21
I0
sba(iArchitecture
Entity
p407
(dp408
g11
(lp409
sg13
S'android.content.Loader$OnLoadCanceledListener'
p410
sg15
(lp411
sg17
(lp412
sg19
(lp413
sg21
I0
sba(iArchitecture
Entity
p414
(dp415
g11
(lp416
sg13
S'android.content.Loader$OnLoadCompleteListener'
p417
sg15
(lp418
sg17
(lp419
sg19
(lp420
sg21
I0
sbasg50
(lp421
g396
ag403
ag410
ag417
asg21
I0
sg52
S'962'
p422
sba(iArchitecture
Cluster
p423
(dp424
g7
(lp425
(iArchitecture
Entity
p426
(dp427
g11
(lp428
sg13
S'android.net.wifi.WpsResult'
p429
sg15
(lp430
sg17
(lp431
sg19
(lp432
sg21
I0
sba(iArchitecture
Entity
p433
(dp434
g11
(lp435
sg13
S'android.net.wifi.WpsResult$1'
p436
sg15
(lp437
sg17
(lp438
sg19
(lp439
sg21
I0
sba(iArchitecture
Entity
p440
(dp441
g11
(lp442
sg13
S'android.net.wifi.WpsResult$Status'
p443
sg15
(lp444
sg17
(lp445
sg19
(lp446
sg21
I0
sbasg50
(lp447
g429
ag436
ag443
asg21
I0
sg52
S'963'
p448
sba(iArchitecture
Cluster
p449
(dp450
g7
(lp451
(iArchitecture
Entity
p452
(dp453
g11
(lp454
sg13
S'android.view.ThreadedRenderer'
p455
sg15
(lp456
sg17
(lp457
sg19
(lp458
sg21
I0
sba(iArchitecture
Entity
p459
(dp460
g11
(lp461
sg13
S'android.view.ThreadedRenderer$HardwareDrawCallbacks'
p462
sg15
(lp463
sg17
(lp464
sg19
(lp465
sg21
I0
sba(iArchitecture
Entity
p466
(dp467
g11
(lp468
sg13
S'android.view.ThreadedRenderer$ProcessInitializer'
p469
sg15
(lp470
sg17
(lp471
sg19
(lp472
sg21
I0
sbasg50
(lp473
g455
ag462
ag469
asg21
I0
sg52
S'964'
p474
sba(iArchitecture
Cluster
p475
(dp476
g7
(lp477
(iArchitecture
Entity
p478
(dp479
g11
(lp480
sg13
S'com.android.internal.app.NetInitiatedActivity'
p481
sg15
(lp482
sg17
(lp483
sg19
(lp484
sg21
I0
sba(iArchitecture
Entity
p485
(dp486
g11
(lp487
sg13
S'com.android.internal.app.NetInitiatedActivity$1'
p488
sg15
(lp489
sg17
(lp490
sg19
(lp491
sg21
I0
sba(iArchitecture
Entity
p492
(dp493
g11
(lp494
sg13
S'com.android.internal.app.NetInitiatedActivity$2'
p495
sg15
(lp496
sg17
(lp497
sg19
(lp498
sg21
I0
sbasg50
(lp499
g481
ag488
ag495
asg21
I0
sg52
S'965'
p500
sba(iArchitecture
Cluster
p501
(dp502
g7
(lp503
(iArchitecture
Entity
p504
(dp505
g11
(lp506
sg13
S'android.filterfw.core.SerializedFrame'
p507
sg15
(lp508
sg17
(lp509
sg19
(lp510
sg21
I0
sba(iArchitecture
Entity
p511
(dp512
g11
(lp513
sg13
S'android.filterfw.core.SerializedFrame$DirectByteInputStream'
p514
sg15
(lp515
sg17
(lp516
sg19
(lp517
sg21
I0
sba(iArchitecture
Entity
p518
(dp519
g11
(lp520
sg13
S'android.filterfw.core.SerializedFrame$DirectByteOutputStream'
p521
sg15
(lp522
sg17
(lp523
sg19
(lp524
sg21
I0
sbasg50
(lp525
g507
ag514
ag521
asg21
I0
sg52
S'966'
p526
sba(iArchitecture
Cluster
p527
(dp528
g7
(lp529
(iArchitecture
Entity
p530
(dp531
g11
(lp532
sg13
S'android.graphics.Bitmap'
p533
sg15
(lp534
sg17
(lp535
sg19
(lp536
sg21
I0
sba(iArchitecture
Entity
p537
(dp538
g11
(lp539
sg13
S'android.graphics.Bitmap$1'
p540
sg15
(lp541
sg17
(lp542
sg19
(lp543
sg21
I0
sba(iArchitecture
Entity
p544
(dp545
g11
(lp546
sg13
S'android.graphics.Bitmap$CompressFormat'
p547
sg15
(lp548
sg17
(lp549
sg19
(lp550
sg21
I0
sba(iArchitecture
Entity
p551
(dp552
g11
(lp553
sg13
S'android.graphics.Bitmap$Config'
p554
sg15
(lp555
sg17
(lp556
sg19
(lp557
sg21
I0
sbasg50
(lp558
g533
ag540
ag547
ag554
asg21
I0
sg52
S'967'
p559
sba(iArchitecture
Cluster
p560
(dp561
g7
(lp562
(iArchitecture
Entity
p563
(dp564
g11
(lp565
sg13
S'com.android.server.pm.PermissionsState'
p566
sg15
(lp567
sg17
(lp568
sg19
(lp569
sg21
I0
sba(iArchitecture
Entity
p570
(dp571
g11
(lp572
sg13
S'com.android.server.pm.PermissionsState$PermissionData'
p573
sg15
(lp574
sg17
(lp575
sg19
(lp576
sg21
I0
sba(iArchitecture
Entity
p577
(dp578
g11
(lp579
sg13
S'com.android.server.pm.PermissionsState$PermissionState'
p580
sg15
(lp581
sg17
(lp582
sg19
(lp583
sg21
I0
sbasg50
(lp584
g566
ag573
ag580
asg21
I0
sg52
S'968'
p585
sba(iArchitecture
Cluster
p586
(dp587
g7
(lp588
(iArchitecture
Entity
p589
(dp590
g11
(lp591
sg13
S'com.android.server.job.controllers.TimeController'
p592
sg15
(lp593
sg17
(lp594
sg19
(lp595
sg21
I0
sba(iArchitecture
Entity
p596
(dp597
g11
(lp598
sg13
S'com.android.server.job.controllers.TimeController$1'
p599
sg15
(lp600
sg17
(lp601
sg19
(lp602
sg21
I0
sba(iArchitecture
Entity
p603
(dp604
g11
(lp605
sg13
S'com.android.server.job.controllers.TimeController$2'
p606
sg15
(lp607
sg17
(lp608
sg19
(lp609
sg21
I0
sbasg50
(lp610
g592
ag599
ag606
asg21
I0
sg52
S'969'
p611
sba(iArchitecture
Cluster
p612
(dp613
g7
(lp614
(iArchitecture
Entity
p615
(dp616
g11
(lp617
sg13
S'android.hardware.camera2.legacy.LegacyFocusStateMapper'
p618
sg15
(lp619
sg17
(lp620
sg19
(lp621
sg21
I0
sba(iArchitecture
Entity
p622
(dp623
g11
(lp624
sg13
S'android.hardware.camera2.legacy.LegacyFocusStateMapper$1'
p625
sg15
(lp626
sg17
(lp627
sg19
(lp628
sg21
I0
sba(iArchitecture
Entity
p629
(dp630
g11
(lp631
sg13
S'android.hardware.camera2.legacy.LegacyFocusStateMapper$2'
p632
sg15
(lp633
sg17
(lp634
sg19
(lp635
sg21
I0
sbasg50
(lp636
g618
ag625
ag632
asg21
I0
sg52
S'996'
p637
sbasS'target_sub'
p638
S'96'
p639
sg50
(lp640
sS'is_component_arch'
p641
I01
sg52
S'7.0.0_r1'
p642
sba.