(lp0
(iArchitecture
Architecture
p1
(dp2
S'clusters'
p3
(lp4
(iArchitecture
Cluster
p5
(dp6
S'entities'
p7
(lp8
(iArchitecture
Entity
p9
(dp10
S'issue_ids'
p11
(lp12
sS'name'
p13
S'android.os.MessageQueue'
p14
sS'descs'
p15
(lp16
sS'labels'
p17
(lp18
sS'titles'
p19
(lp20
sS'change'
p21
I0
sba(iArchitecture
Entity
p22
(dp23
g11
(lp24
sg13
S'android.os.MessageQueue$FileDescriptorRecord'
p25
sg15
(lp26
sg17
(lp27
sg19
(lp28
sg21
I0
sba(iArchitecture
Entity
p29
(dp30
g11
(lp31
sg13
S'android.os.MessageQueue$IdleHandler'
p32
sg15
(lp33
sg17
(lp34
sg19
(lp35
sg21
I0
sba(iArchitecture
Entity
p36
(dp37
g11
(lp38
sg13
S'android.os.MessageQueue$OnFileDescriptorEventListener'
p39
sg15
(lp40
sg17
(lp41
sg19
(lp42
sg21
I0
sbasS'classes'
p43
(lp44
g14
ag25
ag32
ag39
asg21
I0
sS'label'
p45
S'1018'
p46
sba(iArchitecture
Cluster
p47
(dp48
g7
(lp49
(iArchitecture
Entity
p50
(dp51
g11
(lp52
sg13
S'com.android.internal.widget.LockPatternUtils'
p53
sg15
(lp54
sg17
(lp55
sg19
(lp56
sg21
I0
sba(iArchitecture
Entity
p57
(dp58
g11
(lp59
sg13
S'com.android.internal.widget.LockPatternUtils$1'
p60
sg15
(lp61
sg17
(lp62
sg19
(lp63
sg21
I0
sba(iArchitecture
Entity
p64
(dp65
g11
(lp66
sg13
S'com.android.internal.widget.LockPatternUtils$RequestThrottledException'
p67
sg15
(lp68
sg17
(lp69
sg19
(lp70
sg21
I0
sba(iArchitecture
Entity
p71
(dp72
g11
(lp73
sg13
S'com.android.internal.widget.LockPatternUtils$StrongAuthTracker'
p74
sg15
(lp75
sg17
(lp76
sg19
(lp77
sg21
I0
sba(iArchitecture
Entity
p78
(dp79
g11
(lp80
sg13
S'com.android.internal.widget.LockPatternUtils$StrongAuthTracker$1'
p81
sg15
(lp82
sg17
(lp83
sg19
(lp84
sg21
I0
sba(iArchitecture
Entity
p85
(dp86
g11
(lp87
sg13
S'com.android.internal.widget.LockPatternUtils$StrongAuthTracker$H'
p88
sg15
(lp89
sg17
(lp90
sg19
(lp91
sg21
I0
sbasg43
(lp92
g53
ag60
ag67
ag74
ag81
ag88
asg21
I0
sg45
S'1118'
p93
sba(iArchitecture
Cluster
p94
(dp95
g7
(lp96
(iArchitecture
Entity
p97
(dp98
g11
(lp99
sg13
S'com.android.server.pm.PackageVerificationState'
p100
sg15
(lp101
sg17
(lp102
sg19
(lp103
sg21
I0
sbasg43
(lp104
g100
asg21
I0
sg45
S'118'
p105
sba(iArchitecture
Cluster
p106
(dp107
g7
(lp108
(iArchitecture
Entity
p109
(dp110
g11
(lp111
sg13
S'android.telecom.ConnectionService'
p112
sg15
(lp113
sg17
(lp114
sg19
(lp115
sg21
I0
sba(iArchitecture
Entity
p116
(dp117
g11
(lp118
sg13
S'android.telecom.ConnectionService$1'
p119
sg15
(lp120
sg17
(lp121
sg19
(lp122
sg21
I0
sba(iArchitecture
Entity
p123
(dp124
g11
(lp125
sg13
S'android.telecom.ConnectionService$2'
p126
sg15
(lp127
sg17
(lp128
sg19
(lp129
sg21
I0
sba(iArchitecture
Entity
p130
(dp131
g11
(lp132
sg13
S'android.telecom.ConnectionService$2$1'
p133
sg15
(lp134
sg17
(lp135
sg19
(lp136
sg21
I0
sba(iArchitecture
Entity
p137
(dp138
g11
(lp139
sg13
S'android.telecom.ConnectionService$3'
p140
sg15
(lp141
sg17
(lp142
sg19
(lp143
sg21
I0
sba(iArchitecture
Entity
p144
(dp145
g11
(lp146
sg13
S'android.telecom.ConnectionService$4'
p147
sg15
(lp148
sg17
(lp149
sg19
(lp150
sg21
I0
sba(iArchitecture
Entity
p151
(dp152
g11
(lp153
sg13
S'android.telecom.ConnectionService$5'
p154
sg15
(lp155
sg17
(lp156
sg19
(lp157
sg21
I0
sba(iArchitecture
Entity
p158
(dp159
g11
(lp160
sg13
S'android.telecom.ConnectionService$5$1'
p161
sg15
(lp162
sg17
(lp163
sg19
(lp164
sg21
I0
sba(iArchitecture
Entity
p165
(dp166
g11
(lp167
sg13
S'android.telecom.ConnectionService$5$2'
p168
sg15
(lp169
sg17
(lp170
sg19
(lp171
sg21
I0
sba(iArchitecture
Entity
p172
(dp173
g11
(lp174
sg13
S'android.telecom.ConnectionService$6'
p175
sg15
(lp176
sg17
(lp177
sg19
(lp178
sg21
I0
sba(iArchitecture
Entity
p179
(dp180
g11
(lp181
sg13
S'android.telecom.ConnectionService$7'
p182
sg15
(lp183
sg17
(lp184
sg19
(lp185
sg21
I0
sbasg43
(lp186
g112
ag119
ag126
ag133
ag140
ag147
ag154
ag161
ag168
ag175
ag182
asg21
I0
sg45
S'1180'
p187
sba(iArchitecture
Cluster
p188
(dp189
g7
(lp190
(iArchitecture
Entity
p191
(dp192
g11
(lp193
sg13
S'com.android.server.display.OverlayDisplayAdapter'
p194
sg15
(lp195
sg17
(lp196
sg19
(lp197
sg21
I0
sba(iArchitecture
Entity
p198
(dp199
g11
(lp200
sg13
S'com.android.server.display.OverlayDisplayAdapter$1'
p201
sg15
(lp202
sg17
(lp203
sg19
(lp204
sg21
I0
sba(iArchitecture
Entity
p205
(dp206
g11
(lp207
sg13
S'com.android.server.display.OverlayDisplayAdapter$1$1'
p208
sg15
(lp209
sg17
(lp210
sg19
(lp211
sg21
I0
sba(iArchitecture
Entity
p212
(dp213
g11
(lp214
sg13
S'com.android.server.display.OverlayDisplayAdapter$OverlayDisplayDevice'
p215
sg15
(lp216
sg17
(lp217
sg19
(lp218
sg21
I0
sba(iArchitecture
Entity
p219
(dp220
g11
(lp221
sg13
S'com.android.server.display.OverlayDisplayAdapter$OverlayDisplayHandle'
p222
sg15
(lp223
sg17
(lp224
sg19
(lp225
sg21
I0
sba(iArchitecture
Entity
p226
(dp227
g11
(lp228
sg13
S'com.android.server.display.OverlayDisplayAdapter$OverlayDisplayHandle$1'
p229
sg15
(lp230
sg17
(lp231
sg19
(lp232
sg21
I0
sba(iArchitecture
Entity
p233
(dp234
g11
(lp235
sg13
S'com.android.server.display.OverlayDisplayAdapter$OverlayDisplayHandle$2'
p236
sg15
(lp237
sg17
(lp238
sg19
(lp239
sg21
I0
sba(iArchitecture
Entity
p240
(dp241
g11
(lp242
sg13
S'com.android.server.display.OverlayDisplayAdapter$OverlayDisplayHandle$3'
p243
sg15
(lp244
sg17
(lp245
sg19
(lp246
sg21
I0
sba(iArchitecture
Entity
p247
(dp248
g11
(lp249
sg13
S'com.android.server.display.OverlayDisplayAdapter$OverlayDisplayHandle$4'
p250
sg15
(lp251
sg17
(lp252
sg19
(lp253
sg21
I0
sba(iArchitecture
Entity
p254
(dp255
g11
(lp256
sg13
S'com.android.server.display.OverlayDisplayAdapter$OverlayMode'
p257
sg15
(lp258
sg17
(lp259
sg19
(lp260
sg21
I0
sbasg43
(lp261
g194
ag201
ag208
ag215
ag222
ag229
ag236
ag243
ag250
ag257
asg21
I0
sg45
S'1181'
p262
sba(iArchitecture
Cluster
p263
(dp264
g7
(lp265
(iArchitecture
Entity
p266
(dp267
g11
(lp268
sg13
S'com.android.server.hdmi.HdmiCecMessageValidator'
p269
sg15
(lp270
sg17
(lp271
sg19
(lp272
sg21
I0
sba(iArchitecture
Entity
p273
(dp274
g11
(lp275
sg13
S'com.android.server.hdmi.HdmiCecMessageValidator$FixedLengthValidator'
p276
sg15
(lp277
sg17
(lp278
sg19
(lp279
sg21
I0
sba(iArchitecture
Entity
p280
(dp281
g11
(lp282
sg13
S'com.android.server.hdmi.HdmiCecMessageValidator$ParameterValidator'
p283
sg15
(lp284
sg17
(lp285
sg19
(lp286
sg21
I0
sba(iArchitecture
Entity
p287
(dp288
g11
(lp289
sg13
S'com.android.server.hdmi.HdmiCecMessageValidator$PhysicalAddressValidator'
p290
sg15
(lp291
sg17
(lp292
sg19
(lp293
sg21
I0
sba(iArchitecture
Entity
p294
(dp295
g11
(lp296
sg13
S'com.android.server.hdmi.HdmiCecMessageValidator$ReportPhysicalAddressValidator'
p297
sg15
(lp298
sg17
(lp299
sg19
(lp300
sg21
I0
sba(iArchitecture
Entity
p301
(dp302
g11
(lp303
sg13
S'com.android.server.hdmi.HdmiCecMessageValidator$RoutingChangeValidator'
p304
sg15
(lp305
sg17
(lp306
sg19
(lp307
sg21
I0
sba(iArchitecture
Entity
p308
(dp309
g11
(lp310
sg13
S'com.android.server.hdmi.HdmiCecMessageValidator$SystemAudioModeRequestValidator'
p311
sg15
(lp312
sg17
(lp313
sg19
(lp314
sg21
I0
sba(iArchitecture
Entity
p315
(dp316
g11
(lp317
sg13
S'com.android.server.hdmi.HdmiCecMessageValidator$ValidationInfo'
p318
sg15
(lp319
sg17
(lp320
sg19
(lp321
sg21
I0
sba(iArchitecture
Entity
p322
(dp323
g11
(lp324
sg13
S'com.android.server.hdmi.HdmiCecMessageValidator$VariableLengthValidator'
p325
sg15
(lp326
sg17
(lp327
sg19
(lp328
sg21
I0
sbasg43
(lp329
g269
ag276
ag283
ag290
ag297
ag304
ag311
ag318
ag325
asg21
I0
sg45
S'1182'
p330
sba(iArchitecture
Cluster
p331
(dp332
g7
(lp333
(iArchitecture
Entity
p334
(dp335
g11
(lp336
sg13
S'android.media.SubtitleTrack'
p337
sg15
(lp338
sg17
(lp339
sg19
(lp340
sg21
I0
sba(iArchitecture
Entity
p341
(dp342
g11
(lp343
sg13
S'android.media.SubtitleTrack$1'
p344
sg15
(lp345
sg17
(lp346
sg19
(lp347
sg21
I0
sba(iArchitecture
Entity
p348
(dp349
g11
(lp350
sg13
S'android.media.SubtitleTrack$Cue'
p351
sg15
(lp352
sg17
(lp353
sg19
(lp354
sg21
I0
sba(iArchitecture
Entity
p355
(dp356
g11
(lp357
sg13
S'android.media.SubtitleTrack$CueList'
p358
sg15
(lp359
sg17
(lp360
sg19
(lp361
sg21
I0
sba(iArchitecture
Entity
p362
(dp363
g11
(lp364
sg13
S'android.media.SubtitleTrack$CueList$1'
p365
sg15
(lp366
sg17
(lp367
sg19
(lp368
sg21
I0
sba(iArchitecture
Entity
p369
(dp370
g11
(lp371
sg13
S'android.media.SubtitleTrack$CueList$EntryIterator'
p372
sg15
(lp373
sg17
(lp374
sg19
(lp375
sg21
I0
sba(iArchitecture
Entity
p376
(dp377
g11
(lp378
sg13
S'android.media.SubtitleTrack$RenderingWidget'
p379
sg15
(lp380
sg17
(lp381
sg19
(lp382
sg21
I0
sba(iArchitecture
Entity
p383
(dp384
g11
(lp385
sg13
S'android.media.SubtitleTrack$RenderingWidget$OnChangedListener'
p386
sg15
(lp387
sg17
(lp388
sg19
(lp389
sg21
I0
sba(iArchitecture
Entity
p390
(dp391
g11
(lp392
sg13
S'android.media.SubtitleTrack$Run'
p393
sg15
(lp394
sg17
(lp395
sg19
(lp396
sg21
I0
sbasg43
(lp397
g337
ag344
ag351
ag358
ag365
ag372
ag379
ag386
ag393
asg21
I0
sg45
S'1183'
p398
sba(iArchitecture
Cluster
p399
(dp400
g7
(lp401
(iArchitecture
Entity
p402
(dp403
g11
(lp404
sg13
S'android.widget.ActivityChooserModel'
p405
sg15
(lp406
sg17
(lp407
sg19
(lp408
sg21
I0
sba(iArchitecture
Entity
p409
(dp410
g11
(lp411
sg13
S'android.widget.ActivityChooserModel$ActivityChooserModelClient'
p412
sg15
(lp413
sg17
(lp414
sg19
(lp415
sg21
I0
sba(iArchitecture
Entity
p416
(dp417
g11
(lp418
sg13
S'android.widget.ActivityChooserModel$ActivityResolveInfo'
p419
sg15
(lp420
sg17
(lp421
sg19
(lp422
sg21
I0
sba(iArchitecture
Entity
p423
(dp424
g11
(lp425
sg13
S'android.widget.ActivityChooserModel$ActivitySorter'
p426
sg15
(lp427
sg17
(lp428
sg19
(lp429
sg21
I0
sba(iArchitecture
Entity
p430
(dp431
g11
(lp432
sg13
S'android.widget.ActivityChooserModel$DataModelPackageMonitor'
p433
sg15
(lp434
sg17
(lp435
sg19
(lp436
sg21
I0
sba(iArchitecture
Entity
p437
(dp438
g11
(lp439
sg13
S'android.widget.ActivityChooserModel$DefaultSorter'
p440
sg15
(lp441
sg17
(lp442
sg19
(lp443
sg21
I0
sba(iArchitecture
Entity
p444
(dp445
g11
(lp446
sg13
S'android.widget.ActivityChooserModel$HistoricalRecord'
p447
sg15
(lp448
sg17
(lp449
sg19
(lp450
sg21
I0
sba(iArchitecture
Entity
p451
(dp452
g11
(lp453
sg13
S'android.widget.ActivityChooserModel$OnChooseActivityListener'
p454
sg15
(lp455
sg17
(lp456
sg19
(lp457
sg21
I0
sba(iArchitecture
Entity
p458
(dp459
g11
(lp460
sg13
S'android.widget.ActivityChooserModel$PersistHistoryAsyncTask'
p461
sg15
(lp462
sg17
(lp463
sg19
(lp464
sg21
I0
sbasg43
(lp465
g405
ag412
ag419
ag426
ag433
ag440
ag447
ag454
ag461
asg21
I0
sg45
S'1184'
p466
sba(iArchitecture
Cluster
p467
(dp468
g7
(lp469
(iArchitecture
Entity
p470
(dp471
g11
(lp472
sg13
S'android.graphics.drawable.VectorDrawable'
p473
sg15
(lp474
sg17
(lp475
sg19
(lp476
sg21
I0
sba(iArchitecture
Entity
p477
(dp478
g11
(lp479
sg13
S'android.graphics.drawable.VectorDrawable$VClipPath'
p480
sg15
(lp481
sg17
(lp482
sg19
(lp483
sg21
I0
sba(iArchitecture
Entity
p484
(dp485
g11
(lp486
sg13
S'android.graphics.drawable.VectorDrawable$VFullPath'
p487
sg15
(lp488
sg17
(lp489
sg19
(lp490
sg21
I0
sba(iArchitecture
Entity
p491
(dp492
g11
(lp493
sg13
S'android.graphics.drawable.VectorDrawable$VFullPath$1'
p494
sg15
(lp495
sg17
(lp496
sg19
(lp497
sg21
I0
sba(iArchitecture
Entity
p498
(dp499
g11
(lp500
sg13
S'android.graphics.drawable.VectorDrawable$VGroup'
p501
sg15
(lp502
sg17
(lp503
sg19
(lp504
sg21
I0
sba(iArchitecture
Entity
p505
(dp506
g11
(lp507
sg13
S'android.graphics.drawable.VectorDrawable$VGroup$1'
p508
sg15
(lp509
sg17
(lp510
sg19
(lp511
sg21
I0
sba(iArchitecture
Entity
p512
(dp513
g11
(lp514
sg13
S'android.graphics.drawable.VectorDrawable$VObject'
p515
sg15
(lp516
sg17
(lp517
sg19
(lp518
sg21
I0
sba(iArchitecture
Entity
p519
(dp520
g11
(lp521
sg13
S'android.graphics.drawable.VectorDrawable$VPath'
p522
sg15
(lp523
sg17
(lp524
sg19
(lp525
sg21
I0
sba(iArchitecture
Entity
p526
(dp527
g11
(lp528
sg13
S'android.graphics.drawable.VectorDrawable$VectorDrawableState'
p529
sg15
(lp530
sg17
(lp531
sg19
(lp532
sg21
I0
sbasg43
(lp533
g473
ag480
ag487
ag494
ag501
ag508
ag515
ag522
ag529
asg21
I0
sg45
S'1185'
p534
sba(iArchitecture
Cluster
p535
(dp536
g7
(lp537
(iArchitecture
Entity
p538
(dp539
g11
(lp540
sg13
S'android.location.LocationManager'
p541
sg15
(lp542
sg17
(lp543
sg19
(lp544
sg21
I0
sba(iArchitecture
Entity
p545
(dp546
g11
(lp547
sg13
S'android.location.LocationManager$1'
p548
sg15
(lp549
sg17
(lp550
sg19
(lp551
sg21
I0
sba(iArchitecture
Entity
p552
(dp553
g11
(lp554
sg13
S'android.location.LocationManager$GnssStatusListenerTransport'
p555
sg15
(lp556
sg17
(lp557
sg19
(lp558
sg21
I0
sba(iArchitecture
Entity
p559
(dp560
g11
(lp561
sg13
S'android.location.LocationManager$GnssStatusListenerTransport$1'
p562
sg15
(lp563
sg17
(lp564
sg19
(lp565
sg21
I0
sba(iArchitecture
Entity
p566
(dp567
g11
(lp568
sg13
S'android.location.LocationManager$GnssStatusListenerTransport$2'
p569
sg15
(lp570
sg17
(lp571
sg19
(lp572
sg21
I0
sba(iArchitecture
Entity
p573
(dp574
g11
(lp575
sg13
S'android.location.LocationManager$GnssStatusListenerTransport$3'
p576
sg15
(lp577
sg17
(lp578
sg19
(lp579
sg21
I0
sba(iArchitecture
Entity
p580
(dp581
g11
(lp582
sg13
S'android.location.LocationManager$GnssStatusListenerTransport$4'
p583
sg15
(lp584
sg17
(lp585
sg19
(lp586
sg21
I0
sba(iArchitecture
Entity
p587
(dp588
g11
(lp589
sg13
S'android.location.LocationManager$GnssStatusListenerTransport$GnssHandler'
p590
sg15
(lp591
sg17
(lp592
sg19
(lp593
sg21
I0
sba(iArchitecture
Entity
p594
(dp595
g11
(lp596
sg13
S'android.location.LocationManager$GnssStatusListenerTransport$Nmea'
p597
sg15
(lp598
sg17
(lp599
sg19
(lp600
sg21
I0
sba(iArchitecture
Entity
p601
(dp602
g11
(lp603
sg13
S'android.location.LocationManager$ListenerTransport'
p604
sg15
(lp605
sg17
(lp606
sg19
(lp607
sg21
I0
sba(iArchitecture
Entity
p608
(dp609
g11
(lp610
sg13
S'android.location.LocationManager$ListenerTransport$1'
p611
sg15
(lp612
sg17
(lp613
sg19
(lp614
sg21
I0
sba(iArchitecture
Entity
p615
(dp616
g11
(lp617
sg13
S'android.location.LocationManager$ListenerTransport$2'
p618
sg15
(lp619
sg17
(lp620
sg19
(lp621
sg21
I0
sbasg43
(lp622
g541
ag548
ag555
ag562
ag569
ag576
ag583
ag590
ag597
ag604
ag611
ag618
asg21
I0
sg45
S'1186'
p623
sba(iArchitecture
Cluster
p624
(dp625
g7
(lp626
(iArchitecture
Entity
p627
(dp628
g11
(lp629
sg13
S'android.hardware.camera2.CameraManager'
p630
sg15
(lp631
sg17
(lp632
sg19
(lp633
sg21
I0
sba(iArchitecture
Entity
p634
(dp635
g11
(lp636
sg13
S'android.hardware.camera2.CameraManager$AvailabilityCallback'
p637
sg15
(lp638
sg17
(lp639
sg19
(lp640
sg21
I0
sba(iArchitecture
Entity
p641
(dp642
g11
(lp643
sg13
S'android.hardware.camera2.CameraManager$CameraManagerGlobal'
p644
sg15
(lp645
sg17
(lp646
sg19
(lp647
sg21
I0
sba(iArchitecture
Entity
p648
(dp649
g11
(lp650
sg13
S'android.hardware.camera2.CameraManager$CameraManagerGlobal$1'
p651
sg15
(lp652
sg17
(lp653
sg19
(lp654
sg21
I0
sba(iArchitecture
Entity
p655
(dp656
g11
(lp657
sg13
S'android.hardware.camera2.CameraManager$CameraManagerGlobal$2'
p658
sg15
(lp659
sg17
(lp660
sg19
(lp661
sg21
I0
sba(iArchitecture
Entity
p662
(dp663
g11
(lp664
sg13
S'android.hardware.camera2.CameraManager$CameraManagerGlobal$3'
p665
sg15
(lp666
sg17
(lp667
sg19
(lp668
sg21
I0
sba(iArchitecture
Entity
p669
(dp670
g11
(lp671
sg13
S'android.hardware.camera2.CameraManager$CameraManagerGlobal$4'
p672
sg15
(lp673
sg17
(lp674
sg19
(lp675
sg21
I0
sba(iArchitecture
Entity
p676
(dp677
g11
(lp678
sg13
S'android.hardware.camera2.CameraManager$CameraManagerGlobal$5'
p679
sg15
(lp680
sg17
(lp681
sg19
(lp682
sg21
I0
sba(iArchitecture
Entity
p683
(dp684
g11
(lp685
sg13
S'android.hardware.camera2.CameraManager$TorchCallback'
p686
sg15
(lp687
sg17
(lp688
sg19
(lp689
sg21
I0
sbasg43
(lp690
g630
ag637
ag644
ag651
ag658
ag665
ag672
ag679
ag686
asg21
I0
sg45
S'1187'
p691
sba(iArchitecture
Cluster
p692
(dp693
g7
(lp694
(iArchitecture
Entity
p695
(dp696
g11
(lp697
sg13
S'android.transition.ChangeBounds'
p698
sg15
(lp699
sg17
(lp700
sg19
(lp701
sg21
I0
sba(iArchitecture
Entity
p702
(dp703
g11
(lp704
sg13
S'android.transition.ChangeBounds$1'
p705
sg15
(lp706
sg17
(lp707
sg19
(lp708
sg21
I0
sba(iArchitecture
Entity
p709
(dp710
g11
(lp711
sg13
S'android.transition.ChangeBounds$10'
p712
sg15
(lp713
sg17
(lp714
sg19
(lp715
sg21
I0
sba(iArchitecture
Entity
p716
(dp717
g11
(lp718
sg13
S'android.transition.ChangeBounds$2'
p719
sg15
(lp720
sg17
(lp721
sg19
(lp722
sg21
I0
sba(iArchitecture
Entity
p723
(dp724
g11
(lp725
sg13
S'android.transition.ChangeBounds$3'
p726
sg15
(lp727
sg17
(lp728
sg19
(lp729
sg21
I0
sba(iArchitecture
Entity
p730
(dp731
g11
(lp732
sg13
S'android.transition.ChangeBounds$4'
p733
sg15
(lp734
sg17
(lp735
sg19
(lp736
sg21
I0
sba(iArchitecture
Entity
p737
(dp738
g11
(lp739
sg13
S'android.transition.ChangeBounds$5'
p740
sg15
(lp741
sg17
(lp742
sg19
(lp743
sg21
I0
sba(iArchitecture
Entity
p744
(dp745
g11
(lp746
sg13
S'android.transition.ChangeBounds$6'
p747
sg15
(lp748
sg17
(lp749
sg19
(lp750
sg21
I0
sba(iArchitecture
Entity
p751
(dp752
g11
(lp753
sg13
S'android.transition.ChangeBounds$7'
p754
sg15
(lp755
sg17
(lp756
sg19
(lp757
sg21
I0
sba(iArchitecture
Entity
p758
(dp759
g11
(lp760
sg13
S'android.transition.ChangeBounds$8'
p761
sg15
(lp762
sg17
(lp763
sg19
(lp764
sg21
I0
sba(iArchitecture
Entity
p765
(dp766
g11
(lp767
sg13
S'android.transition.ChangeBounds$9'
p768
sg15
(lp769
sg17
(lp770
sg19
(lp771
sg21
I0
sba(iArchitecture
Entity
p772
(dp773
g11
(lp774
sg13
S'android.transition.ChangeBounds$ViewBounds'
p775
sg15
(lp776
sg17
(lp777
sg19
(lp778
sg21
I0
sbasg43
(lp779
g698
ag705
ag712
ag719
ag726
ag733
ag740
ag747
ag754
ag761
ag768
ag775
asg21
I0
sg45
S'1188'
p780
sba(iArchitecture
Cluster
p781
(dp782
g7
(lp783
(iArchitecture
Entity
p784
(dp785
g11
(lp786
sg13
S'android.service.notification.ZenModeConfig'
p787
sg15
(lp788
sg17
(lp789
sg19
(lp790
sg21
I0
sba(iArchitecture
Entity
p791
(dp792
g11
(lp793
sg13
S'android.service.notification.ZenModeConfig$1'
p794
sg15
(lp795
sg17
(lp796
sg19
(lp797
sg21
I0
sba(iArchitecture
Entity
p798
(dp799
g11
(lp800
sg13
S'android.service.notification.ZenModeConfig$Diff'
p801
sg15
(lp802
sg17
(lp803
sg19
(lp804
sg21
I0
sba(iArchitecture
Entity
p805
(dp806
g11
(lp807
sg13
S'android.service.notification.ZenModeConfig$EventInfo'
p808
sg15
(lp809
sg17
(lp810
sg19
(lp811
sg21
I0
sba(iArchitecture
Entity
p812
(dp813
g11
(lp814
sg13
S'android.service.notification.ZenModeConfig$Migration'
p815
sg15
(lp816
sg17
(lp817
sg19
(lp818
sg21
I0
sba(iArchitecture
Entity
p819
(dp820
g11
(lp821
sg13
S'android.service.notification.ZenModeConfig$ScheduleInfo'
p822
sg15
(lp823
sg17
(lp824
sg19
(lp825
sg21
I0
sba(iArchitecture
Entity
p826
(dp827
g11
(lp828
sg13
S'android.service.notification.ZenModeConfig$XmlV1'
p829
sg15
(lp830
sg17
(lp831
sg19
(lp832
sg21
I0
sba(iArchitecture
Entity
p833
(dp834
g11
(lp835
sg13
S'android.service.notification.ZenModeConfig$ZenRule'
p836
sg15
(lp837
sg17
(lp838
sg19
(lp839
sg21
I0
sba(iArchitecture
Entity
p840
(dp841
g11
(lp842
sg13
S'android.service.notification.ZenModeConfig$ZenRule$1'
p843
sg15
(lp844
sg17
(lp845
sg19
(lp846
sg21
I0
sbasg43
(lp847
g787
ag794
ag801
ag808
ag815
ag822
ag829
ag836
ag843
asg21
I0
sg45
S'1189'
p848
sba(iArchitecture
Cluster
p849
(dp850
g7
(lp851
(iArchitecture
Entity
p852
(dp853
g11
(lp854
sg13
S'android.net.wifi.RttManager'
p855
sg15
(lp856
sg17
(lp857
sg19
(lp858
sg21
I0
sba(iArchitecture
Entity
p859
(dp860
g11
(lp861
sg13
S'android.net.wifi.RttManager$Capabilities'
p862
sg15
(lp863
sg17
(lp864
sg19
(lp865
sg21
I0
sba(iArchitecture
Entity
p866
(dp867
g11
(lp868
sg13
S'android.net.wifi.RttManager$ParcelableRttParams'
p869
sg15
(lp870
sg17
(lp871
sg19
(lp872
sg21
I0
sba(iArchitecture
Entity
p873
(dp874
g11
(lp875
sg13
S'android.net.wifi.RttManager$ParcelableRttParams$1'
p876
sg15
(lp877
sg17
(lp878
sg19
(lp879
sg21
I0
sba(iArchitecture
Entity
p880
(dp881
g11
(lp882
sg13
S'android.net.wifi.RttManager$ParcelableRttResults'
p883
sg15
(lp884
sg17
(lp885
sg19
(lp886
sg21
I0
sba(iArchitecture
Entity
p887
(dp888
g11
(lp889
sg13
S'android.net.wifi.RttManager$ParcelableRttResults$1'
p890
sg15
(lp891
sg17
(lp892
sg19
(lp893
sg21
I0
sba(iArchitecture
Entity
p894
(dp895
g11
(lp896
sg13
S'android.net.wifi.RttManager$ResponderCallback'
p897
sg15
(lp898
sg17
(lp899
sg19
(lp900
sg21
I0
sba(iArchitecture
Entity
p901
(dp902
g11
(lp903
sg13
S'android.net.wifi.RttManager$ResponderConfig'
p904
sg15
(lp905
sg17
(lp906
sg19
(lp907
sg21
I0
sba(iArchitecture
Entity
p908
(dp909
g11
(lp910
sg13
S'android.net.wifi.RttManager$ResponderConfig$1'
p911
sg15
(lp912
sg17
(lp913
sg19
(lp914
sg21
I0
sba(iArchitecture
Entity
p915
(dp916
g11
(lp917
sg13
S'android.net.wifi.RttManager$RttCapabilities'
p918
sg15
(lp919
sg17
(lp920
sg19
(lp921
sg21
I0
sba(iArchitecture
Entity
p922
(dp923
g11
(lp924
sg13
S'android.net.wifi.RttManager$RttCapabilities$1'
p925
sg15
(lp926
sg17
(lp927
sg19
(lp928
sg21
I0
sba(iArchitecture
Entity
p929
(dp930
g11
(lp931
sg13
S'android.net.wifi.RttManager$RttListener'
p932
sg15
(lp933
sg17
(lp934
sg19
(lp935
sg21
I0
sba(iArchitecture
Entity
p936
(dp937
g11
(lp938
sg13
S'android.net.wifi.RttManager$RttParams'
p939
sg15
(lp940
sg17
(lp941
sg19
(lp942
sg21
I0
sba(iArchitecture
Entity
p943
(dp944
g11
(lp945
sg13
S'android.net.wifi.RttManager$RttResult'
p946
sg15
(lp947
sg17
(lp948
sg19
(lp949
sg21
I0
sba(iArchitecture
Entity
p950
(dp951
g11
(lp952
sg13
S'android.net.wifi.RttManager$ServiceHandler'
p953
sg15
(lp954
sg17
(lp955
sg19
(lp956
sg21
I0
sba(iArchitecture
Entity
p957
(dp958
g11
(lp959
sg13
S'android.net.wifi.RttManager$WifiInformationElement'
p960
sg15
(lp961
sg17
(lp962
sg19
(lp963
sg21
I0
sbasg43
(lp964
g855
ag862
ag869
ag876
ag883
ag890
ag897
ag904
ag911
ag918
ag925
ag932
ag939
ag946
ag953
ag960
asg21
I0
sg45
S'1218'
p965
sba(iArchitecture
Cluster
p966
(dp967
g7
(lp968
(iArchitecture
Entity
p969
(dp970
g11
(lp971
sg13
S'com.android.internal.app.MediaRouteChooserDialogFragment'
p972
sg15
(lp973
sg17
(lp974
sg19
(lp975
sg21
I0
sba(iArchitecture
Entity
p976
(dp977
g11
(lp978
sg13
S'com.android.internal.app.MediaRouteDialogPresenter'
p979
sg15
(lp980
sg17
(lp981
sg19
(lp982
sg21
I0
sbasg43
(lp983
g972
ag979
asg21
I0
sg45
S'1318'
p984
sba(iArchitecture
Cluster
p985
(dp986
g7
(lp987
(iArchitecture
Entity
p988
(dp989
g11
(lp990
sg13
S'com.android.internal.net.VpnProfile'
p991
sg15
(lp992
sg17
(lp993
sg19
(lp994
sg21
I0
sba(iArchitecture
Entity
p995
(dp996
g11
(lp997
sg13
S'com.android.internal.net.VpnProfile$1'
p998
sg15
(lp999
sg17
(lp1000
sg19
(lp1001
sg21
I0
sba(iArchitecture
Entity
p1002
(dp1003
g11
(lp1004
sg13
S'com.android.server.am.NativeCrashListener'
p1005
sg15
(lp1006
sg17
(lp1007
sg19
(lp1008
sg21
I0
sba(iArchitecture
Entity
p1009
(dp1010
g11
(lp1011
sg13
S'com.android.server.am.NativeCrashListener$NativeCrashReporter'
p1012
sg15
(lp1013
sg17
(lp1014
sg19
(lp1015
sg21
I0
sba(iArchitecture
Entity
p1016
(dp1017
g11
(lp1018
sg13
S'com.android.server.usb.UsbDebuggingManager'
p1019
sg15
(lp1020
sg17
(lp1021
sg19
(lp1022
sg21
I0
sba(iArchitecture
Entity
p1023
(dp1024
g11
(lp1025
sg13
S'com.android.server.usb.UsbDebuggingManager$UsbDebuggingHandler'
p1026
sg15
(lp1027
sg17
(lp1028
sg19
(lp1029
sg21
I0
sba(iArchitecture
Entity
p1030
(dp1031
g11
(lp1032
sg13
S'com.android.server.usb.UsbDebuggingManager$UsbDebuggingThread'
p1033
sg15
(lp1034
sg17
(lp1035
sg19
(lp1036
sg21
I0
sbasg43
(lp1037
g991
ag998
ag1005
ag1012
ag1019
ag1026
ag1033
asg21
I0
sg45
S'1418'
p1038
sba(iArchitecture
Cluster
p1039
(dp1040
g7
(lp1041
(iArchitecture
Entity
p1042
(dp1043
g11
(lp1044
sg13
S'android.app.backup.BackupObserver'
p1045
sg15
(lp1046
sg17
(lp1047
sg19
(lp1048
sg21
I0
sbasg43
(lp1049
g1045
asg21
I0
sg45
S'18'
p1050
sba(iArchitecture
Cluster
p1051
(dp1052
g7
(lp1053
(iArchitecture
Entity
p1054
(dp1055
g11
(lp1056
sg13
S'com.android.server.backup.AccountSyncSettingsBackupHelper'
p1057
sg15
(lp1058
sg17
(lp1059
sg19
(lp1060
sg21
I0
sbasg43
(lp1061
g1057
asg21
I0
sg45
S'180'
p1062
sba(iArchitecture
Cluster
p1063
(dp1064
g7
(lp1065
(iArchitecture
Entity
p1066
(dp1067
g11
(lp1068
sg13
S'com.android.server.net.BaseNetworkObserver'
p1069
sg15
(lp1070
sg17
(lp1071
sg19
(lp1072
sg21
I0
sbasg43
(lp1073
g1069
asg21
I0
sg45
S'181'
p1074
sba(iArchitecture
Cluster
p1075
(dp1076
g7
(lp1077
(iArchitecture
Entity
p1078
(dp1079
g11
(lp1080
sg13
S'android.view.DisplayListCanvas'
p1081
sg15
(lp1082
sg17
(lp1083
sg19
(lp1084
sg21
I0
sbasg43
(lp1085
g1081
asg21
I0
sg45
S'182'
p1086
sba(iArchitecture
Cluster
p1087
(dp1088
g7
(lp1089
(iArchitecture
Entity
p1090
(dp1091
g11
(lp1092
sg13
S'android.hardware.SensorEvent'
p1093
sg15
(lp1094
sg17
(lp1095
sg19
(lp1096
sg21
I0
sbasg43
(lp1097
g1093
asg21
I0
sg45
S'183'
p1098
sba(iArchitecture
Cluster
p1099
(dp1100
g7
(lp1101
(iArchitecture
Entity
p1102
(dp1103
g11
(lp1104
sg13
S'com.android.internal.util.GrowingArrayUtils'
p1105
sg15
(lp1106
sg17
(lp1107
sg19
(lp1108
sg21
I0
sbasg43
(lp1109
g1105
asg21
I0
sg45
S'184'
p1110
sba(iArchitecture
Cluster
p1111
(dp1112
g7
(lp1113
(iArchitecture
Entity
p1114
(dp1115
g11
(lp1116
sg13
S'android.view.FocusFinderHelper'
p1117
sg15
(lp1118
sg17
(lp1119
sg19
(lp1120
sg21
I0
sbasg43
(lp1121
g1117
asg21
I0
sg45
S'185'
p1122
sba(iArchitecture
Cluster
p1123
(dp1124
g7
(lp1125
(iArchitecture
Entity
p1126
(dp1127
g11
(lp1128
sg13
S'android.util.JsonWriter'
p1129
sg15
(lp1130
sg17
(lp1131
sg19
(lp1132
sg21
I0
sbasg43
(lp1133
g1129
asg21
I0
sg45
S'186'
p1134
sba(iArchitecture
Cluster
p1135
(dp1136
g7
(lp1137
(iArchitecture
Entity
p1138
(dp1139
g11
(lp1140
sg13
S'com.android.server.tv.UinputBridge'
p1141
sg15
(lp1142
sg17
(lp1143
sg19
(lp1144
sg21
I0
sbasg43
(lp1145
g1141
asg21
I0
sg45
S'187'
p1146
sba(iArchitecture
Cluster
p1147
(dp1148
g7
(lp1149
(iArchitecture
Entity
p1150
(dp1151
g11
(lp1152
sg13
S'android.util.KeyValueListParser'
p1153
sg15
(lp1154
sg17
(lp1155
sg19
(lp1156
sg21
I0
sbasg43
(lp1157
g1153
asg21
I0
sg45
S'188'
p1158
sba(iArchitecture
Cluster
p1159
(dp1160
g7
(lp1161
(iArchitecture
Entity
p1162
(dp1163
g11
(lp1164
sg13
S'com.android.server.notification.ZenLog'
p1165
sg15
(lp1166
sg17
(lp1167
sg19
(lp1168
sg21
I0
sbasg43
(lp1169
g1165
asg21
I0
sg45
S'189'
p1170
sba(iArchitecture
Cluster
p1171
(dp1172
g7
(lp1173
(iArchitecture
Entity
p1174
(dp1175
g11
(lp1176
sg13
S'android.webkit.URLUtil'
p1177
sg15
(lp1178
sg17
(lp1179
sg19
(lp1180
sg21
I0
sbasg43
(lp1181
g1177
asg21
I0
sg45
S'218'
p1182
sba(iArchitecture
Cluster
p1183
(dp1184
g7
(lp1185
(iArchitecture
Entity
p1186
(dp1187
g11
(lp1188
sg13
S'android.renderscript.AllocationAdapter'
p1189
sg15
(lp1190
sg17
(lp1191
sg19
(lp1192
sg21
I0
sbasg43
(lp1193
g1189
asg21
I0
sg45
S'318'
p1194
sba(iArchitecture
Cluster
p1195
(dp1196
g7
(lp1197
(iArchitecture
Entity
p1198
(dp1199
g11
(lp1200
sg13
S'android.content.ContentProviderNative'
p1201
sg15
(lp1202
sg17
(lp1203
sg19
(lp1204
sg21
I0
sbasg43
(lp1205
g1201
asg21
I0
sg45
S'418'
p1206
sba(iArchitecture
Cluster
p1207
(dp1208
g7
(lp1209
(iArchitecture
Entity
p1210
(dp1211
g11
(lp1212
sg13
S'com.android.ims.internal.uce.presence.PresRlmiInfo'
p1213
sg15
(lp1214
sg17
(lp1215
sg19
(lp1216
sg21
I0
sba(iArchitecture
Entity
p1217
(dp1218
g11
(lp1219
sg13
S'com.android.ims.internal.uce.presence.PresRlmiInfo$1'
p1220
sg15
(lp1221
sg17
(lp1222
sg19
(lp1223
sg21
I0
sbasg43
(lp1224
g1213
ag1220
asg21
I0
sg45
S'518'
p1225
sba(iArchitecture
Cluster
p1226
(dp1227
g7
(lp1228
(iArchitecture
Entity
p1229
(dp1230
g11
(lp1231
sg13
S'android.os.PatternMatcher'
p1232
sg15
(lp1233
sg17
(lp1234
sg19
(lp1235
sg21
I0
sba(iArchitecture
Entity
p1236
(dp1237
g11
(lp1238
sg13
S'android.os.PatternMatcher$1'
p1239
sg15
(lp1240
sg17
(lp1241
sg19
(lp1242
sg21
I0
sbasg43
(lp1243
g1232
ag1239
asg21
I0
sg45
S'618'
p1244
sba(iArchitecture
Cluster
p1245
(dp1246
g7
(lp1247
(iArchitecture
Entity
p1248
(dp1249
g11
(lp1250
sg13
S'android.hardware.camera2.marshal.impl.MarshalQueryableBlackLevelPattern'
p1251
sg15
(lp1252
sg17
(lp1253
sg19
(lp1254
sg21
I0
sba(iArchitecture
Entity
p1255
(dp1256
g11
(lp1257
sg13
S'android.hardware.camera2.marshal.impl.MarshalQueryableBlackLevelPattern$MarshalerBlackLevelPattern'
p1258
sg15
(lp1259
sg17
(lp1260
sg19
(lp1261
sg21
I0
sbasg43
(lp1262
g1251
ag1258
asg21
I0
sg45
S'718'
p1263
sba(iArchitecture
Cluster
p1264
(dp1265
g7
(lp1266
(iArchitecture
Entity
p1267
(dp1268
g11
(lp1269
sg13
S'android.net.LinkAddress'
p1270
sg15
(lp1271
sg17
(lp1272
sg19
(lp1273
sg21
I0
sba(iArchitecture
Entity
p1274
(dp1275
g11
(lp1276
sg13
S'android.net.LinkAddress$1'
p1277
sg15
(lp1278
sg17
(lp1279
sg19
(lp1280
sg21
I0
sbasg43
(lp1281
g1270
ag1277
asg21
I0
sg45
S'818'
p1282
sba(iArchitecture
Cluster
p1283
(dp1284
g7
(lp1285
(iArchitecture
Entity
p1286
(dp1287
g11
(lp1288
sg13
S'android.test.InstrumentationTestCase'
p1289
sg15
(lp1290
sg17
(lp1291
sg19
(lp1292
sg21
I0
sba(iArchitecture
Entity
p1293
(dp1294
g11
(lp1295
sg13
S'android.test.InstrumentationTestCase$1'
p1296
sg15
(lp1297
sg17
(lp1298
sg19
(lp1299
sg21
I0
sba(iArchitecture
Entity
p1300
(dp1301
g11
(lp1302
sg13
S'android.test.InstrumentationTestCase$2'
p1303
sg15
(lp1304
sg17
(lp1305
sg19
(lp1306
sg21
I0
sbasg43
(lp1307
g1289
ag1296
ag1303
asg21
I0
sg45
S'918'
p1308
sbasS'target_sub'
p1309
S'18'
p1310
sg43
(lp1311
sS'is_component_arch'
p1312
I01
sg45
S'7.0.0_r1'
p1313
sba.