(lp0
(iArchitecture
Architecture
p1
(dp2
S'clusters'
p3
(lp4
(iArchitecture
Cluster
p5
(dp6
S'entities'
p7
(lp8
(iArchitecture
Entity
p9
(dp10
S'issue_ids'
p11
(lp12
sS'name'
p13
S'android.bluetooth.BluetoothA2dp'
p14
sS'descs'
p15
(lp16
sS'labels'
p17
(lp18
sS'titles'
p19
(lp20
sS'change'
p21
I0
sba(iArchitecture
Entity
p22
(dp23
g11
(lp24
sg13
S'android.bluetooth.BluetoothA2dp$1'
p25
sg15
(lp26
sg17
(lp27
sg19
(lp28
sg21
I0
sba(iArchitecture
Entity
p29
(dp30
g11
(lp31
sg13
S'android.bluetooth.BluetoothA2dp$2'
p32
sg15
(lp33
sg17
(lp34
sg19
(lp35
sg21
I0
sbasS'classes'
p36
(lp37
g14
ag25
ag32
asg21
I0
sS'label'
p38
S'1029'
p39
sba(iArchitecture
Cluster
p40
(dp41
g7
(lp42
(iArchitecture
Entity
p43
(dp44
g11
(lp45
sg13
S'android.net.apf.ApfGenerator'
p46
sg15
(lp47
sg17
(lp48
sg19
(lp49
sg21
I0
sba(iArchitecture
Entity
p50
(dp51
g11
(lp52
sg13
S'android.net.apf.ApfGenerator$ExtendedOpcodes'
p53
sg15
(lp54
sg17
(lp55
sg19
(lp56
sg21
I0
sba(iArchitecture
Entity
p57
(dp58
g11
(lp59
sg13
S'android.net.apf.ApfGenerator$IllegalInstructionException'
p60
sg15
(lp61
sg17
(lp62
sg19
(lp63
sg21
I0
sba(iArchitecture
Entity
p64
(dp65
g11
(lp66
sg13
S'android.net.apf.ApfGenerator$Instruction'
p67
sg15
(lp68
sg17
(lp69
sg19
(lp70
sg21
I0
sba(iArchitecture
Entity
p71
(dp72
g11
(lp73
sg13
S'android.net.apf.ApfGenerator$Opcodes'
p74
sg15
(lp75
sg17
(lp76
sg19
(lp77
sg21
I0
sba(iArchitecture
Entity
p78
(dp79
g11
(lp80
sg13
S'android.net.apf.ApfGenerator$Register'
p81
sg15
(lp82
sg17
(lp83
sg19
(lp84
sg21
I0
sbasg36
(lp85
g46
ag53
ag60
ag67
ag74
ag81
asg21
I0
sg38
S'1129'
p86
sba(iArchitecture
Cluster
p87
(dp88
g7
(lp89
(iArchitecture
Entity
p90
(dp91
g11
(lp92
sg13
S'android.hardware.soundtrigger.SoundTrigger'
p93
sg15
(lp94
sg17
(lp95
sg19
(lp96
sg21
I0
sba(iArchitecture
Entity
p97
(dp98
g11
(lp99
sg13
S'android.hardware.soundtrigger.SoundTrigger$ConfidenceLevel'
p100
sg15
(lp101
sg17
(lp102
sg19
(lp103
sg21
I0
sba(iArchitecture
Entity
p104
(dp105
g11
(lp106
sg13
S'android.hardware.soundtrigger.SoundTrigger$ConfidenceLevel$1'
p107
sg15
(lp108
sg17
(lp109
sg19
(lp110
sg21
I0
sba(iArchitecture
Entity
p111
(dp112
g11
(lp113
sg13
S'android.hardware.soundtrigger.SoundTrigger$GenericRecognitionEvent'
p114
sg15
(lp115
sg17
(lp116
sg19
(lp117
sg21
I0
sba(iArchitecture
Entity
p118
(dp119
g11
(lp120
sg13
S'android.hardware.soundtrigger.SoundTrigger$GenericRecognitionEvent$1'
p121
sg15
(lp122
sg17
(lp123
sg19
(lp124
sg21
I0
sba(iArchitecture
Entity
p125
(dp126
g11
(lp127
sg13
S'android.hardware.soundtrigger.SoundTrigger$GenericSoundModel'
p128
sg15
(lp129
sg17
(lp130
sg19
(lp131
sg21
I0
sba(iArchitecture
Entity
p132
(dp133
g11
(lp134
sg13
S'android.hardware.soundtrigger.SoundTrigger$GenericSoundModel$1'
p135
sg15
(lp136
sg17
(lp137
sg19
(lp138
sg21
I0
sba(iArchitecture
Entity
p139
(dp140
g11
(lp141
sg13
S'android.hardware.soundtrigger.SoundTrigger$Keyphrase'
p142
sg15
(lp143
sg17
(lp144
sg19
(lp145
sg21
I0
sba(iArchitecture
Entity
p146
(dp147
g11
(lp148
sg13
S'android.hardware.soundtrigger.SoundTrigger$Keyphrase$1'
p149
sg15
(lp150
sg17
(lp151
sg19
(lp152
sg21
I0
sba(iArchitecture
Entity
p153
(dp154
g11
(lp155
sg13
S'android.hardware.soundtrigger.SoundTrigger$KeyphraseRecognitionEvent'
p156
sg15
(lp157
sg17
(lp158
sg19
(lp159
sg21
I0
sba(iArchitecture
Entity
p160
(dp161
g11
(lp162
sg13
S'android.hardware.soundtrigger.SoundTrigger$KeyphraseRecognitionEvent$1'
p163
sg15
(lp164
sg17
(lp165
sg19
(lp166
sg21
I0
sba(iArchitecture
Entity
p167
(dp168
g11
(lp169
sg13
S'android.hardware.soundtrigger.SoundTrigger$KeyphraseRecognitionExtra'
p170
sg15
(lp171
sg17
(lp172
sg19
(lp173
sg21
I0
sba(iArchitecture
Entity
p174
(dp175
g11
(lp176
sg13
S'android.hardware.soundtrigger.SoundTrigger$KeyphraseRecognitionExtra$1'
p177
sg15
(lp178
sg17
(lp179
sg19
(lp180
sg21
I0
sba(iArchitecture
Entity
p181
(dp182
g11
(lp183
sg13
S'android.hardware.soundtrigger.SoundTrigger$KeyphraseSoundModel'
p184
sg15
(lp185
sg17
(lp186
sg19
(lp187
sg21
I0
sba(iArchitecture
Entity
p188
(dp189
g11
(lp190
sg13
S'android.hardware.soundtrigger.SoundTrigger$KeyphraseSoundModel$1'
p191
sg15
(lp192
sg17
(lp193
sg19
(lp194
sg21
I0
sba(iArchitecture
Entity
p195
(dp196
g11
(lp197
sg13
S'android.hardware.soundtrigger.SoundTrigger$ModuleProperties'
p198
sg15
(lp199
sg17
(lp200
sg19
(lp201
sg21
I0
sba(iArchitecture
Entity
p202
(dp203
g11
(lp204
sg13
S'android.hardware.soundtrigger.SoundTrigger$ModuleProperties$1'
p205
sg15
(lp206
sg17
(lp207
sg19
(lp208
sg21
I0
sba(iArchitecture
Entity
p209
(dp210
g11
(lp211
sg13
S'android.hardware.soundtrigger.SoundTrigger$RecognitionConfig'
p212
sg15
(lp213
sg17
(lp214
sg19
(lp215
sg21
I0
sba(iArchitecture
Entity
p216
(dp217
g11
(lp218
sg13
S'android.hardware.soundtrigger.SoundTrigger$RecognitionConfig$1'
p219
sg15
(lp220
sg17
(lp221
sg19
(lp222
sg21
I0
sba(iArchitecture
Entity
p223
(dp224
g11
(lp225
sg13
S'android.hardware.soundtrigger.SoundTrigger$RecognitionEvent'
p226
sg15
(lp227
sg17
(lp228
sg19
(lp229
sg21
I0
sba(iArchitecture
Entity
p230
(dp231
g11
(lp232
sg13
S'android.hardware.soundtrigger.SoundTrigger$RecognitionEvent$1'
p233
sg15
(lp234
sg17
(lp235
sg19
(lp236
sg21
I0
sba(iArchitecture
Entity
p237
(dp238
g11
(lp239
sg13
S'android.hardware.soundtrigger.SoundTrigger$SoundModel'
p240
sg15
(lp241
sg17
(lp242
sg19
(lp243
sg21
I0
sba(iArchitecture
Entity
p244
(dp245
g11
(lp246
sg13
S'android.hardware.soundtrigger.SoundTrigger$SoundModelEvent'
p247
sg15
(lp248
sg17
(lp249
sg19
(lp250
sg21
I0
sba(iArchitecture
Entity
p251
(dp252
g11
(lp253
sg13
S'android.hardware.soundtrigger.SoundTrigger$SoundModelEvent$1'
p254
sg15
(lp255
sg17
(lp256
sg19
(lp257
sg21
I0
sba(iArchitecture
Entity
p258
(dp259
g11
(lp260
sg13
S'android.hardware.soundtrigger.SoundTrigger$StatusListener'
p261
sg15
(lp262
sg17
(lp263
sg19
(lp264
sg21
I0
sbasg36
(lp265
g93
ag100
ag107
ag114
ag121
ag128
ag135
ag142
ag149
ag156
ag163
ag170
ag177
ag184
ag191
ag198
ag205
ag212
ag219
ag226
ag233
ag240
ag247
ag254
ag261
asg21
I0
sg38
S'1229'
p266
sba(iArchitecture
Cluster
p267
(dp268
g7
(lp269
(iArchitecture
Entity
p270
(dp271
g11
(lp272
sg13
S'android.animation.KeyframeSet'
p273
sg15
(lp274
sg17
(lp275
sg19
(lp276
sg21
I0
sbasg36
(lp277
g273
asg21
I0
sg38
S'129'
p278
sba(iArchitecture
Cluster
p279
(dp280
g7
(lp281
(iArchitecture
Entity
p282
(dp283
g11
(lp284
sg13
S'android.renderscript.Matrix2f'
p285
sg15
(lp286
sg17
(lp287
sg19
(lp288
sg21
I0
sba(iArchitecture
Entity
p289
(dp290
g11
(lp291
sg13
S'android.renderscript.Matrix3f'
p292
sg15
(lp293
sg17
(lp294
sg19
(lp295
sg21
I0
sba(iArchitecture
Entity
p296
(dp297
g11
(lp298
sg13
S'android.renderscript.Matrix4f'
p299
sg15
(lp300
sg17
(lp301
sg19
(lp302
sg21
I0
sbasg36
(lp303
g285
ag292
ag299
asg21
I0
sg38
S'1290'
p304
sba(iArchitecture
Cluster
p305
(dp306
g7
(lp307
(iArchitecture
Entity
p308
(dp309
g11
(lp310
sg13
S'com.android.server.display.WifiDisplayAdapter'
p311
sg15
(lp312
sg17
(lp313
sg19
(lp314
sg21
I0
sba(iArchitecture
Entity
p315
(dp316
g11
(lp317
sg13
S'com.android.server.display.WifiDisplayAdapter$1'
p318
sg15
(lp319
sg17
(lp320
sg19
(lp321
sg21
I0
sba(iArchitecture
Entity
p322
(dp323
g11
(lp324
sg13
S'com.android.server.display.WifiDisplayAdapter$2'
p325
sg15
(lp326
sg17
(lp327
sg19
(lp328
sg21
I0
sba(iArchitecture
Entity
p329
(dp330
g11
(lp331
sg13
S'com.android.server.display.WifiDisplayAdapter$3'
p332
sg15
(lp333
sg17
(lp334
sg19
(lp335
sg21
I0
sba(iArchitecture
Entity
p336
(dp337
g11
(lp338
sg13
S'com.android.server.display.WifiDisplayAdapter$4'
p339
sg15
(lp340
sg17
(lp341
sg19
(lp342
sg21
I0
sba(iArchitecture
Entity
p343
(dp344
g11
(lp345
sg13
S'com.android.server.display.WifiDisplayAdapter$5'
p346
sg15
(lp347
sg17
(lp348
sg19
(lp349
sg21
I0
sba(iArchitecture
Entity
p350
(dp351
g11
(lp352
sg13
S'com.android.server.display.WifiDisplayAdapter$6'
p353
sg15
(lp354
sg17
(lp355
sg19
(lp356
sg21
I0
sba(iArchitecture
Entity
p357
(dp358
g11
(lp359
sg13
S'com.android.server.display.WifiDisplayAdapter$7'
p360
sg15
(lp361
sg17
(lp362
sg19
(lp363
sg21
I0
sba(iArchitecture
Entity
p364
(dp365
g11
(lp366
sg13
S'com.android.server.display.WifiDisplayAdapter$8'
p367
sg15
(lp368
sg17
(lp369
sg19
(lp370
sg21
I0
sba(iArchitecture
Entity
p371
(dp372
g11
(lp373
sg13
S'com.android.server.display.WifiDisplayAdapter$9'
p374
sg15
(lp375
sg17
(lp376
sg19
(lp377
sg21
I0
sba(iArchitecture
Entity
p378
(dp379
g11
(lp380
sg13
S'com.android.server.display.WifiDisplayAdapter$WifiDisplayDevice'
p381
sg15
(lp382
sg17
(lp383
sg19
(lp384
sg21
I0
sba(iArchitecture
Entity
p385
(dp386
g11
(lp387
sg13
S'com.android.server.display.WifiDisplayAdapter$WifiDisplayHandler'
p388
sg15
(lp389
sg17
(lp390
sg19
(lp391
sg21
I0
sba(iArchitecture
Entity
p392
(dp393
g11
(lp394
sg13
S'com.android.server.display.WifiDisplayController'
p395
sg15
(lp396
sg17
(lp397
sg19
(lp398
sg21
I0
sba(iArchitecture
Entity
p399
(dp400
g11
(lp401
sg13
S'com.android.server.display.WifiDisplayController$1'
p402
sg15
(lp403
sg17
(lp404
sg19
(lp405
sg21
I0
sba(iArchitecture
Entity
p406
(dp407
g11
(lp408
sg13
S'com.android.server.display.WifiDisplayController$10'
p409
sg15
(lp410
sg17
(lp411
sg19
(lp412
sg21
I0
sba(iArchitecture
Entity
p413
(dp414
g11
(lp415
sg13
S'com.android.server.display.WifiDisplayController$11'
p416
sg15
(lp417
sg17
(lp418
sg19
(lp419
sg21
I0
sba(iArchitecture
Entity
p420
(dp421
g11
(lp422
sg13
S'com.android.server.display.WifiDisplayController$12'
p423
sg15
(lp424
sg17
(lp425
sg19
(lp426
sg21
I0
sba(iArchitecture
Entity
p427
(dp428
g11
(lp429
sg13
S'com.android.server.display.WifiDisplayController$13'
p430
sg15
(lp431
sg17
(lp432
sg19
(lp433
sg21
I0
sba(iArchitecture
Entity
p434
(dp435
g11
(lp436
sg13
S'com.android.server.display.WifiDisplayController$14'
p437
sg15
(lp438
sg17
(lp439
sg19
(lp440
sg21
I0
sba(iArchitecture
Entity
p441
(dp442
g11
(lp443
sg13
S'com.android.server.display.WifiDisplayController$15'
p444
sg15
(lp445
sg17
(lp446
sg19
(lp447
sg21
I0
sba(iArchitecture
Entity
p448
(dp449
g11
(lp450
sg13
S'com.android.server.display.WifiDisplayController$16'
p451
sg15
(lp452
sg17
(lp453
sg19
(lp454
sg21
I0
sba(iArchitecture
Entity
p455
(dp456
g11
(lp457
sg13
S'com.android.server.display.WifiDisplayController$17'
p458
sg15
(lp459
sg17
(lp460
sg19
(lp461
sg21
I0
sba(iArchitecture
Entity
p462
(dp463
g11
(lp464
sg13
S'com.android.server.display.WifiDisplayController$18'
p465
sg15
(lp466
sg17
(lp467
sg19
(lp468
sg21
I0
sba(iArchitecture
Entity
p469
(dp470
g11
(lp471
sg13
S'com.android.server.display.WifiDisplayController$19'
p472
sg15
(lp473
sg17
(lp474
sg19
(lp475
sg21
I0
sba(iArchitecture
Entity
p476
(dp477
g11
(lp478
sg13
S'com.android.server.display.WifiDisplayController$2'
p479
sg15
(lp480
sg17
(lp481
sg19
(lp482
sg21
I0
sba(iArchitecture
Entity
p483
(dp484
g11
(lp485
sg13
S'com.android.server.display.WifiDisplayController$20'
p486
sg15
(lp487
sg17
(lp488
sg19
(lp489
sg21
I0
sba(iArchitecture
Entity
p490
(dp491
g11
(lp492
sg13
S'com.android.server.display.WifiDisplayController$21'
p493
sg15
(lp494
sg17
(lp495
sg19
(lp496
sg21
I0
sba(iArchitecture
Entity
p497
(dp498
g11
(lp499
sg13
S'com.android.server.display.WifiDisplayController$3'
p500
sg15
(lp501
sg17
(lp502
sg19
(lp503
sg21
I0
sba(iArchitecture
Entity
p504
(dp505
g11
(lp506
sg13
S'com.android.server.display.WifiDisplayController$4'
p507
sg15
(lp508
sg17
(lp509
sg19
(lp510
sg21
I0
sba(iArchitecture
Entity
p511
(dp512
g11
(lp513
sg13
S'com.android.server.display.WifiDisplayController$5'
p514
sg15
(lp515
sg17
(lp516
sg19
(lp517
sg21
I0
sba(iArchitecture
Entity
p518
(dp519
g11
(lp520
sg13
S'com.android.server.display.WifiDisplayController$6'
p521
sg15
(lp522
sg17
(lp523
sg19
(lp524
sg21
I0
sba(iArchitecture
Entity
p525
(dp526
g11
(lp527
sg13
S'com.android.server.display.WifiDisplayController$7'
p528
sg15
(lp529
sg17
(lp530
sg19
(lp531
sg21
I0
sba(iArchitecture
Entity
p532
(dp533
g11
(lp534
sg13
S'com.android.server.display.WifiDisplayController$8'
p535
sg15
(lp536
sg17
(lp537
sg19
(lp538
sg21
I0
sba(iArchitecture
Entity
p539
(dp540
g11
(lp541
sg13
S'com.android.server.display.WifiDisplayController$9'
p542
sg15
(lp543
sg17
(lp544
sg19
(lp545
sg21
I0
sba(iArchitecture
Entity
p546
(dp547
g11
(lp548
sg13
S'com.android.server.display.WifiDisplayController$Listener'
p549
sg15
(lp550
sg17
(lp551
sg19
(lp552
sg21
I0
sbasg36
(lp553
g311
ag318
ag325
ag332
ag339
ag346
ag353
ag360
ag367
ag374
ag381
ag388
ag395
ag402
ag409
ag416
ag423
ag430
ag437
ag444
ag451
ag458
ag465
ag472
ag479
ag486
ag493
ag500
ag507
ag514
ag521
ag528
ag535
ag542
ag549
asg21
I0
sg38
S'1291'
p554
sba(iArchitecture
Cluster
p555
(dp556
g7
(lp557
(iArchitecture
Entity
p558
(dp559
g11
(lp560
sg13
S'junit.framework.TestCase'
p561
sg15
(lp562
sg17
(lp563
sg19
(lp564
sg21
I0
sba(iArchitecture
Entity
p565
(dp566
g11
(lp567
sg13
S'junit.framework.TestSuite'
p568
sg15
(lp569
sg17
(lp570
sg19
(lp571
sg21
I0
sbasg36
(lp572
g561
ag568
asg21
I0
sg38
S'1292'
p573
sba(iArchitecture
Cluster
p574
(dp575
g7
(lp576
(iArchitecture
Entity
p577
(dp578
g11
(lp579
sg13
S'com.android.internal.app.procstats.DurationsTable'
p580
sg15
(lp581
sg17
(lp582
sg19
(lp583
sg21
I0
sba(iArchitecture
Entity
p584
(dp585
g11
(lp586
sg13
S'com.android.server.pm.KeySetHandle'
p587
sg15
(lp588
sg17
(lp589
sg19
(lp590
sg21
I0
sbasg36
(lp591
g580
ag587
asg21
I0
sg38
S'1293'
p592
sba(iArchitecture
Cluster
p593
(dp594
g7
(lp595
(iArchitecture
Entity
p596
(dp597
g11
(lp598
sg13
S'android.location.GnssMeasurementsEvent'
p599
sg15
(lp600
sg17
(lp601
sg19
(lp602
sg21
I0
sba(iArchitecture
Entity
p603
(dp604
g11
(lp605
sg13
S'android.location.GnssMeasurementsEvent$1'
p606
sg15
(lp607
sg17
(lp608
sg19
(lp609
sg21
I0
sba(iArchitecture
Entity
p610
(dp611
g11
(lp612
sg13
S'android.location.GnssMeasurementsEvent$Callback'
p613
sg15
(lp614
sg17
(lp615
sg19
(lp616
sg21
I0
sba(iArchitecture
Entity
p617
(dp618
g11
(lp619
sg13
S'android.location.GpsMeasurementsEvent'
p620
sg15
(lp621
sg17
(lp622
sg19
(lp623
sg21
I0
sba(iArchitecture
Entity
p624
(dp625
g11
(lp626
sg13
S'android.location.GpsMeasurementsEvent$1'
p627
sg15
(lp628
sg17
(lp629
sg19
(lp630
sg21
I0
sba(iArchitecture
Entity
p631
(dp632
g11
(lp633
sg13
S'android.location.GpsMeasurementsEvent$Listener'
p634
sg15
(lp635
sg17
(lp636
sg19
(lp637
sg21
I0
sbasg36
(lp638
g599
ag606
ag613
ag620
ag627
ag634
asg21
I0
sg38
S'1294'
p639
sba(iArchitecture
Cluster
p640
(dp641
g7
(lp642
(iArchitecture
Entity
p643
(dp644
g11
(lp645
sg13
S'android.hardware.location.NanoApp'
p646
sg15
(lp647
sg17
(lp648
sg19
(lp649
sg21
I0
sba(iArchitecture
Entity
p650
(dp651
g11
(lp652
sg13
S'android.hardware.location.NanoApp$1'
p653
sg15
(lp654
sg17
(lp655
sg19
(lp656
sg21
I0
sba(iArchitecture
Entity
p657
(dp658
g11
(lp659
sg13
S'android.hardware.location.NanoAppInstanceInfo'
p660
sg15
(lp661
sg17
(lp662
sg19
(lp663
sg21
I0
sba(iArchitecture
Entity
p664
(dp665
g11
(lp666
sg13
S'android.hardware.location.NanoAppInstanceInfo$1'
p667
sg15
(lp668
sg17
(lp669
sg19
(lp670
sg21
I0
sbasg36
(lp671
g646
ag653
ag660
ag667
asg21
I0
sg38
S'1295'
p672
sba(iArchitecture
Cluster
p673
(dp674
g7
(lp675
(iArchitecture
Entity
p676
(dp677
g11
(lp678
sg13
S'android.os.Registrant'
p679
sg15
(lp680
sg17
(lp681
sg19
(lp682
sg21
I0
sba(iArchitecture
Entity
p683
(dp684
g11
(lp685
sg13
S'android.os.RegistrantList'
p686
sg15
(lp687
sg17
(lp688
sg19
(lp689
sg21
I0
sbasg36
(lp690
g679
ag686
asg21
I0
sg38
S'1296'
p691
sba(iArchitecture
Cluster
p692
(dp693
g7
(lp694
(iArchitecture
Entity
p695
(dp696
g11
(lp697
sg13
S'android.bluetooth.BluetoothHealth'
p698
sg15
(lp699
sg17
(lp700
sg19
(lp701
sg21
I0
sba(iArchitecture
Entity
p702
(dp703
g11
(lp704
sg13
S'android.bluetooth.BluetoothHealth$1'
p705
sg15
(lp706
sg17
(lp707
sg19
(lp708
sg21
I0
sba(iArchitecture
Entity
p709
(dp710
g11
(lp711
sg13
S'android.bluetooth.BluetoothHealth$2'
p712
sg15
(lp713
sg17
(lp714
sg19
(lp715
sg21
I0
sba(iArchitecture
Entity
p716
(dp717
g11
(lp718
sg13
S'android.bluetooth.BluetoothHealth$BluetoothHealthCallbackWrapper'
p719
sg15
(lp720
sg17
(lp721
sg19
(lp722
sg21
I0
sba(iArchitecture
Entity
p723
(dp724
g11
(lp725
sg13
S'android.net.nsd.NsdManager'
p726
sg15
(lp727
sg17
(lp728
sg19
(lp729
sg21
I0
sba(iArchitecture
Entity
p730
(dp731
g11
(lp732
sg13
S'android.net.nsd.NsdManager$DiscoveryListener'
p733
sg15
(lp734
sg17
(lp735
sg19
(lp736
sg21
I0
sba(iArchitecture
Entity
p737
(dp738
g11
(lp739
sg13
S'android.net.nsd.NsdManager$RegistrationListener'
p740
sg15
(lp741
sg17
(lp742
sg19
(lp743
sg21
I0
sba(iArchitecture
Entity
p744
(dp745
g11
(lp746
sg13
S'android.net.nsd.NsdManager$ResolveListener'
p747
sg15
(lp748
sg17
(lp749
sg19
(lp750
sg21
I0
sba(iArchitecture
Entity
p751
(dp752
g11
(lp753
sg13
S'android.net.nsd.NsdManager$ServiceHandler'
p754
sg15
(lp755
sg17
(lp756
sg19
(lp757
sg21
I0
sbasg36
(lp758
g698
ag705
ag712
ag719
ag726
ag733
ag740
ag747
ag754
asg21
I0
sg38
S'1297'
p759
sba(iArchitecture
Cluster
p760
(dp761
g7
(lp762
(iArchitecture
Entity
p763
(dp764
g11
(lp765
sg13
S'android.media.AudioRecord'
p766
sg15
(lp767
sg17
(lp768
sg19
(lp769
sg21
I0
sba(iArchitecture
Entity
p770
(dp771
g11
(lp772
sg13
S'android.media.AudioRecord$Builder'
p773
sg15
(lp774
sg17
(lp775
sg19
(lp776
sg21
I0
sba(iArchitecture
Entity
p777
(dp778
g11
(lp779
sg13
S'android.media.AudioRecord$NativeEventHandler'
p780
sg15
(lp781
sg17
(lp782
sg19
(lp783
sg21
I0
sba(iArchitecture
Entity
p784
(dp785
g11
(lp786
sg13
S'android.media.AudioRecord$NativeRoutingEventHandlerDelegate'
p787
sg15
(lp788
sg17
(lp789
sg19
(lp790
sg21
I0
sba(iArchitecture
Entity
p791
(dp792
g11
(lp793
sg13
S'android.media.AudioRecord$NativeRoutingEventHandlerDelegate$1'
p794
sg15
(lp795
sg17
(lp796
sg19
(lp797
sg21
I0
sba(iArchitecture
Entity
p798
(dp799
g11
(lp800
sg13
S'android.media.AudioRecord$OnRecordPositionUpdateListener'
p801
sg15
(lp802
sg17
(lp803
sg19
(lp804
sg21
I0
sba(iArchitecture
Entity
p805
(dp806
g11
(lp807
sg13
S'android.media.AudioRecord$OnRoutingChangedListener'
p808
sg15
(lp809
sg17
(lp810
sg19
(lp811
sg21
I0
sba(iArchitecture
Entity
p812
(dp813
g11
(lp814
sg13
S'android.media.AudioTrack'
p815
sg15
(lp816
sg17
(lp817
sg19
(lp818
sg21
I0
sba(iArchitecture
Entity
p819
(dp820
g11
(lp821
sg13
S'android.media.AudioTrack$Builder'
p822
sg15
(lp823
sg17
(lp824
sg19
(lp825
sg21
I0
sba(iArchitecture
Entity
p826
(dp827
g11
(lp828
sg13
S'android.media.AudioTrack$NativePositionEventHandlerDelegate'
p829
sg15
(lp830
sg17
(lp831
sg19
(lp832
sg21
I0
sba(iArchitecture
Entity
p833
(dp834
g11
(lp835
sg13
S'android.media.AudioTrack$NativePositionEventHandlerDelegate$1'
p836
sg15
(lp837
sg17
(lp838
sg19
(lp839
sg21
I0
sba(iArchitecture
Entity
p840
(dp841
g11
(lp842
sg13
S'android.media.AudioTrack$NativeRoutingEventHandlerDelegate'
p843
sg15
(lp844
sg17
(lp845
sg19
(lp846
sg21
I0
sba(iArchitecture
Entity
p847
(dp848
g11
(lp849
sg13
S'android.media.AudioTrack$NativeRoutingEventHandlerDelegate$1'
p850
sg15
(lp851
sg17
(lp852
sg19
(lp853
sg21
I0
sba(iArchitecture
Entity
p854
(dp855
g11
(lp856
sg13
S'android.media.AudioTrack$OnPlaybackPositionUpdateListener'
p857
sg15
(lp858
sg17
(lp859
sg19
(lp860
sg21
I0
sba(iArchitecture
Entity
p861
(dp862
g11
(lp863
sg13
S'android.media.AudioTrack$OnRoutingChangedListener'
p864
sg15
(lp865
sg17
(lp866
sg19
(lp867
sg21
I0
sba(iArchitecture
Entity
p868
(dp869
g11
(lp870
sg13
S'android.speech.tts.BlockingAudioTrack'
p871
sg15
(lp872
sg17
(lp873
sg19
(lp874
sg21
I0
sbasg36
(lp875
g766
ag773
ag780
ag787
ag794
ag801
ag808
ag815
ag822
ag829
ag836
ag843
ag850
ag857
ag864
ag871
asg21
I0
sg38
S'1298'
p876
sba(iArchitecture
Cluster
p877
(dp878
g7
(lp879
(iArchitecture
Entity
p880
(dp881
g11
(lp882
sg13
S'android.mtp.MtpServer'
p883
sg15
(lp884
sg17
(lp885
sg19
(lp886
sg21
I0
sba(iArchitecture
Entity
p887
(dp888
g11
(lp889
sg13
S'android.mtp.MtpStorage'
p890
sg15
(lp891
sg17
(lp892
sg19
(lp893
sg21
I0
sba(iArchitecture
Entity
p894
(dp895
g11
(lp896
sg13
S'android.mtp.MtpStorageInfo'
p897
sg15
(lp898
sg17
(lp899
sg19
(lp900
sg21
I0
sbasg36
(lp901
g883
ag890
ag897
asg21
I0
sg38
S'1299'
p902
sba(iArchitecture
Cluster
p903
(dp904
g7
(lp905
(iArchitecture
Entity
p906
(dp907
g11
(lp908
sg13
S'android.hardware.camera2.marshal.MarshalHelpers'
p909
sg15
(lp910
sg17
(lp911
sg19
(lp912
sg21
I0
sba(iArchitecture
Entity
p913
(dp914
g11
(lp915
sg13
S'android.hardware.camera2.marshal.MarshalRegistry'
p916
sg15
(lp917
sg17
(lp918
sg19
(lp919
sg21
I0
sba(iArchitecture
Entity
p920
(dp921
g11
(lp922
sg13
S'android.hardware.camera2.marshal.MarshalRegistry$MarshalToken'
p923
sg15
(lp924
sg17
(lp925
sg19
(lp926
sg21
I0
sba(iArchitecture
Entity
p927
(dp928
g11
(lp929
sg13
S'android.hardware.camera2.marshal.impl.MarshalQueryableMeteringRectangle'
p930
sg15
(lp931
sg17
(lp932
sg19
(lp933
sg21
I0
sba(iArchitecture
Entity
p934
(dp935
g11
(lp936
sg13
S'android.hardware.camera2.marshal.impl.MarshalQueryableMeteringRectangle$MarshalerMeteringRectangle'
p937
sg15
(lp938
sg17
(lp939
sg19
(lp940
sg21
I0
sba(iArchitecture
Entity
p941
(dp942
g11
(lp943
sg13
S'android.hardware.camera2.marshal.impl.MarshalQueryablePrimitive'
p944
sg15
(lp945
sg17
(lp946
sg19
(lp947
sg21
I0
sba(iArchitecture
Entity
p948
(dp949
g11
(lp950
sg13
S'android.hardware.camera2.marshal.impl.MarshalQueryablePrimitive$MarshalerPrimitive'
p951
sg15
(lp952
sg17
(lp953
sg19
(lp954
sg21
I0
sba(iArchitecture
Entity
p955
(dp956
g11
(lp957
sg13
S'com.android.internal.os.SomeArgs'
p958
sg15
(lp959
sg17
(lp960
sg19
(lp961
sg21
I0
sbasg36
(lp962
g909
ag916
ag923
ag930
ag937
ag944
ag951
ag958
asg21
I0
sg38
S'1329'
p963
sba(iArchitecture
Cluster
p964
(dp965
g7
(lp966
(iArchitecture
Entity
p967
(dp968
g11
(lp969
sg13
S'com.android.server.am.ProcessList'
p970
sg15
(lp971
sg17
(lp972
sg19
(lp973
sg21
I0
sbasg36
(lp974
g970
asg21
I0
sg38
S'229'
p975
sba(iArchitecture
Cluster
p976
(dp977
g7
(lp978
(iArchitecture
Entity
p979
(dp980
g11
(lp981
sg13
S'android.graphics.RadialGradient'
p982
sg15
(lp983
sg17
(lp984
sg19
(lp985
sg21
I0
sbasg36
(lp986
g982
asg21
I0
sg38
S'29'
p987
sba(iArchitecture
Cluster
p988
(dp989
g7
(lp990
(iArchitecture
Entity
p991
(dp992
g11
(lp993
sg13
S'com.android.internal.os.KernelWakelockReader'
p994
sg15
(lp995
sg17
(lp996
sg19
(lp997
sg21
I0
sbasg36
(lp998
g994
asg21
I0
sg38
S'290'
p999
sba(iArchitecture
Cluster
p1000
(dp1001
g7
(lp1002
(iArchitecture
Entity
p1003
(dp1004
g11
(lp1005
sg13
S'com.android.server.wm.InputMonitor'
p1006
sg15
(lp1007
sg17
(lp1008
sg19
(lp1009
sg21
I0
sbasg36
(lp1010
g1006
asg21
I0
sg38
S'291'
p1011
sba(iArchitecture
Cluster
p1012
(dp1013
g7
(lp1014
(iArchitecture
Entity
p1015
(dp1016
g11
(lp1017
sg13
S'android.text.style.ImageSpan'
p1018
sg15
(lp1019
sg17
(lp1020
sg19
(lp1021
sg21
I0
sbasg36
(lp1022
g1018
asg21
I0
sg38
S'292'
p1023
sba(iArchitecture
Cluster
p1024
(dp1025
g7
(lp1026
(iArchitecture
Entity
p1027
(dp1028
g11
(lp1029
sg13
S'android.media.MiniThumbFile'
p1030
sg15
(lp1031
sg17
(lp1032
sg19
(lp1033
sg21
I0
sbasg36
(lp1034
g1030
asg21
I0
sg38
S'293'
p1035
sba(iArchitecture
Cluster
p1036
(dp1037
g7
(lp1038
(iArchitecture
Entity
p1039
(dp1040
g11
(lp1041
sg13
S'com.android.server.hdmi.DelayedMessageBuffer'
p1042
sg15
(lp1043
sg17
(lp1044
sg19
(lp1045
sg21
I0
sbasg36
(lp1046
g1042
asg21
I0
sg38
S'294'
p1047
sba(iArchitecture
Cluster
p1048
(dp1049
g7
(lp1050
(iArchitecture
Entity
p1051
(dp1052
g11
(lp1053
sg13
S'android.net.wimax.WimaxManagerConstants'
p1054
sg15
(lp1055
sg17
(lp1056
sg19
(lp1057
sg21
I0
sbasg36
(lp1058
g1054
asg21
I0
sg38
S'295'
p1059
sba(iArchitecture
Cluster
p1060
(dp1061
g7
(lp1062
(iArchitecture
Entity
p1063
(dp1064
g11
(lp1065
sg13
S'com.android.internal.app.procstats.SysMemUsageTable'
p1066
sg15
(lp1067
sg17
(lp1068
sg19
(lp1069
sg21
I0
sbasg36
(lp1070
g1066
asg21
I0
sg38
S'296'
p1071
sba(iArchitecture
Cluster
p1072
(dp1073
g7
(lp1074
(iArchitecture
Entity
p1075
(dp1076
g11
(lp1077
sg13
S'android.database.CrossProcessCursor'
p1078
sg15
(lp1079
sg17
(lp1080
sg19
(lp1081
sg21
I0
sbasg36
(lp1082
g1078
asg21
I0
sg38
S'297'
p1083
sba(iArchitecture
Cluster
p1084
(dp1085
g7
(lp1086
(iArchitecture
Entity
p1087
(dp1088
g11
(lp1089
sg13
S'com.google.android.collect.Sets'
p1090
sg15
(lp1091
sg17
(lp1092
sg19
(lp1093
sg21
I0
sbasg36
(lp1094
g1090
asg21
I0
sg38
S'298'
p1095
sba(iArchitecture
Cluster
p1096
(dp1097
g7
(lp1098
(iArchitecture
Entity
p1099
(dp1100
g11
(lp1101
sg13
S'android.graphics.drawable.shapes.RoundRectShape'
p1102
sg15
(lp1103
sg17
(lp1104
sg19
(lp1105
sg21
I0
sbasg36
(lp1106
g1102
asg21
I0
sg38
S'299'
p1107
sba(iArchitecture
Cluster
p1108
(dp1109
g7
(lp1110
(iArchitecture
Entity
p1111
(dp1112
g11
(lp1113
sg13
S'com.android.server.location.GeofenceState'
p1114
sg15
(lp1115
sg17
(lp1116
sg19
(lp1117
sg21
I0
sbasg36
(lp1118
g1114
asg21
I0
sg38
S'329'
p1119
sba(iArchitecture
Cluster
p1120
(dp1121
g7
(lp1122
(iArchitecture
Entity
p1123
(dp1124
g11
(lp1125
sg13
S'android.hardware.camera2.CameraAccessException'
p1126
sg15
(lp1127
sg17
(lp1128
sg19
(lp1129
sg21
I0
sbasg36
(lp1130
g1126
asg21
I0
sg38
S'429'
p1131
sba(iArchitecture
Cluster
p1132
(dp1133
g7
(lp1134
(iArchitecture
Entity
p1135
(dp1136
g11
(lp1137
sg13
S'android.hardware.camera2.legacy.LegacyExceptionUtils'
p1138
sg15
(lp1139
sg17
(lp1140
sg19
(lp1141
sg21
I0
sba(iArchitecture
Entity
p1142
(dp1143
g11
(lp1144
sg13
S'android.hardware.camera2.legacy.LegacyExceptionUtils$BufferQueueAbandonedException'
p1145
sg15
(lp1146
sg17
(lp1147
sg19
(lp1148
sg21
I0
sbasg36
(lp1149
g1138
ag1145
asg21
I0
sg38
S'529'
p1150
sba(iArchitecture
Cluster
p1151
(dp1152
g7
(lp1153
(iArchitecture
Entity
p1154
(dp1155
g11
(lp1156
sg13
S'android.bluetooth.BluetoothGattService'
p1157
sg15
(lp1158
sg17
(lp1159
sg19
(lp1160
sg21
I0
sba(iArchitecture
Entity
p1161
(dp1162
g11
(lp1163
sg13
S'android.bluetooth.BluetoothGattService$1'
p1164
sg15
(lp1165
sg17
(lp1166
sg19
(lp1167
sg21
I0
sbasg36
(lp1168
g1157
ag1164
asg21
I0
sg38
S'629'
p1169
sba(iArchitecture
Cluster
p1170
(dp1171
g7
(lp1172
(iArchitecture
Entity
p1173
(dp1174
g11
(lp1175
sg13
S'com.android.internal.telephony.IccCardConstants'
p1176
sg15
(lp1177
sg17
(lp1178
sg19
(lp1179
sg21
I0
sba(iArchitecture
Entity
p1180
(dp1181
g11
(lp1182
sg13
S'com.android.internal.telephony.IccCardConstants$State'
p1183
sg15
(lp1184
sg17
(lp1185
sg19
(lp1186
sg21
I0
sbasg36
(lp1187
g1176
ag1183
asg21
I0
sg38
S'729'
p1188
sba(iArchitecture
Cluster
p1189
(dp1190
g7
(lp1191
(iArchitecture
Entity
p1192
(dp1193
g11
(lp1194
sg13
S'android.content.res.ResourcesImpl'
p1195
sg15
(lp1196
sg17
(lp1197
sg19
(lp1198
sg21
I0
sba(iArchitecture
Entity
p1199
(dp1200
g11
(lp1201
sg13
S'android.content.res.ResourcesImpl$ThemeImpl'
p1202
sg15
(lp1203
sg17
(lp1204
sg19
(lp1205
sg21
I0
sbasg36
(lp1206
g1195
ag1202
asg21
I0
sg38
S'829'
p1207
sba(iArchitecture
Cluster
p1208
(dp1209
g7
(lp1210
(iArchitecture
Entity
p1211
(dp1212
g11
(lp1213
sg13
S'android.app.SharedElementCallback'
p1214
sg15
(lp1215
sg17
(lp1216
sg19
(lp1217
sg21
I0
sba(iArchitecture
Entity
p1218
(dp1219
g11
(lp1220
sg13
S'android.app.SharedElementCallback$1'
p1221
sg15
(lp1222
sg17
(lp1223
sg19
(lp1224
sg21
I0
sba(iArchitecture
Entity
p1225
(dp1226
g11
(lp1227
sg13
S'android.app.SharedElementCallback$OnSharedElementsReadyListener'
p1228
sg15
(lp1229
sg17
(lp1230
sg19
(lp1231
sg21
I0
sbasg36
(lp1232
g1214
ag1221
ag1228
asg21
I0
sg38
S'929'
p1233
sbasS'target_sub'
p1234
S'29'
p1235
sg36
(lp1236
sS'is_component_arch'
p1237
I01
sg38
S'7.0.0_r1'
p1238
sba.