(lp0
(iArchitecture
Architecture
p1
(dp2
S'clusters'
p3
(lp4
(iArchitecture
Cluster
p5
(dp6
S'entities'
p7
(lp8
(iArchitecture
Entity
p9
(dp10
S'issue_ids'
p11
(lp12
sS'name'
p13
S'android.service.voice.AlwaysOnHotwordDetector'
p14
sS'descs'
p15
(lp16
sS'labels'
p17
(lp18
sS'titles'
p19
(lp20
sS'change'
p21
I0
sba(iArchitecture
Entity
p22
(dp23
g11
(lp24
sg13
S'android.service.voice.AlwaysOnHotwordDetector$Callback'
p25
sg15
(lp26
sg17
(lp27
sg19
(lp28
sg21
I0
sba(iArchitecture
Entity
p29
(dp30
g11
(lp31
sg13
S'android.service.voice.AlwaysOnHotwordDetector$EventPayload'
p32
sg15
(lp33
sg17
(lp34
sg19
(lp35
sg21
I0
sba(iArchitecture
Entity
p36
(dp37
g11
(lp38
sg13
S'android.service.voice.AlwaysOnHotwordDetector$MyHandler'
p39
sg15
(lp40
sg17
(lp41
sg19
(lp42
sg21
I0
sba(iArchitecture
Entity
p43
(dp44
g11
(lp45
sg13
S'android.service.voice.AlwaysOnHotwordDetector$RefreshAvailabiltyTask'
p46
sg15
(lp47
sg17
(lp48
sg19
(lp49
sg21
I0
sba(iArchitecture
Entity
p50
(dp51
g11
(lp52
sg13
S'android.service.voice.AlwaysOnHotwordDetector$SoundTriggerListener'
p53
sg15
(lp54
sg17
(lp55
sg19
(lp56
sg21
I0
sbasS'classes'
p57
(lp58
g14
ag25
ag32
ag39
ag46
ag53
asg21
I0
sS'label'
p59
S'1081'
p60
sba(iArchitecture
Cluster
p61
(dp62
g7
(lp63
(iArchitecture
Entity
p64
(dp65
g11
(lp66
sg13
S'com.android.server.display.OverlayDisplayAdapter'
p67
sg15
(lp68
sg17
(lp69
sg19
(lp70
sg21
I0
sba(iArchitecture
Entity
p71
(dp72
g11
(lp73
sg13
S'com.android.server.display.OverlayDisplayAdapter$1'
p74
sg15
(lp75
sg17
(lp76
sg19
(lp77
sg21
I0
sba(iArchitecture
Entity
p78
(dp79
g11
(lp80
sg13
S'com.android.server.display.OverlayDisplayAdapter$1$1'
p81
sg15
(lp82
sg17
(lp83
sg19
(lp84
sg21
I0
sba(iArchitecture
Entity
p85
(dp86
g11
(lp87
sg13
S'com.android.server.display.OverlayDisplayAdapter$OverlayDisplayDevice'
p88
sg15
(lp89
sg17
(lp90
sg19
(lp91
sg21
I0
sba(iArchitecture
Entity
p92
(dp93
g11
(lp94
sg13
S'com.android.server.display.OverlayDisplayAdapter$OverlayDisplayHandle'
p95
sg15
(lp96
sg17
(lp97
sg19
(lp98
sg21
I0
sba(iArchitecture
Entity
p99
(dp100
g11
(lp101
sg13
S'com.android.server.display.OverlayDisplayAdapter$OverlayDisplayHandle$1'
p102
sg15
(lp103
sg17
(lp104
sg19
(lp105
sg21
I0
sba(iArchitecture
Entity
p106
(dp107
g11
(lp108
sg13
S'com.android.server.display.OverlayDisplayAdapter$OverlayDisplayHandle$2'
p109
sg15
(lp110
sg17
(lp111
sg19
(lp112
sg21
I0
sba(iArchitecture
Entity
p113
(dp114
g11
(lp115
sg13
S'com.android.server.display.OverlayDisplayAdapter$OverlayDisplayHandle$3'
p116
sg15
(lp117
sg17
(lp118
sg19
(lp119
sg21
I0
sba(iArchitecture
Entity
p120
(dp121
g11
(lp122
sg13
S'com.android.server.display.OverlayDisplayAdapter$OverlayDisplayHandle$4'
p123
sg15
(lp124
sg17
(lp125
sg19
(lp126
sg21
I0
sba(iArchitecture
Entity
p127
(dp128
g11
(lp129
sg13
S'com.android.server.display.OverlayDisplayAdapter$OverlayMode'
p130
sg15
(lp131
sg17
(lp132
sg19
(lp133
sg21
I0
sbasg57
(lp134
g67
ag74
ag81
ag88
ag95
ag102
ag109
ag116
ag123
ag130
asg21
I0
sg59
S'1181'
p135
sba(iArchitecture
Cluster
p136
(dp137
g7
(lp138
(iArchitecture
Entity
p139
(dp140
g11
(lp141
sg13
S'android.renderscript.ProgramFragment'
p142
sg15
(lp143
sg17
(lp144
sg19
(lp145
sg21
I0
sba(iArchitecture
Entity
p146
(dp147
g11
(lp148
sg13
S'android.renderscript.ProgramFragment$Builder'
p149
sg15
(lp150
sg17
(lp151
sg19
(lp152
sg21
I0
sba(iArchitecture
Entity
p153
(dp154
g11
(lp155
sg13
S'android.renderscript.ProgramFragmentFixedFunction'
p156
sg15
(lp157
sg17
(lp158
sg19
(lp159
sg21
I0
sba(iArchitecture
Entity
p160
(dp161
g11
(lp162
sg13
S'android.renderscript.ProgramFragmentFixedFunction$Builder'
p163
sg15
(lp164
sg17
(lp165
sg19
(lp166
sg21
I0
sba(iArchitecture
Entity
p167
(dp168
g11
(lp169
sg13
S'android.renderscript.ProgramFragmentFixedFunction$Builder$EnvMode'
p170
sg15
(lp171
sg17
(lp172
sg19
(lp173
sg21
I0
sba(iArchitecture
Entity
p174
(dp175
g11
(lp176
sg13
S'android.renderscript.ProgramFragmentFixedFunction$Builder$Format'
p177
sg15
(lp178
sg17
(lp179
sg19
(lp180
sg21
I0
sba(iArchitecture
Entity
p181
(dp182
g11
(lp183
sg13
S'android.renderscript.ProgramFragmentFixedFunction$Builder$Slot'
p184
sg15
(lp185
sg17
(lp186
sg19
(lp187
sg21
I0
sba(iArchitecture
Entity
p188
(dp189
g11
(lp190
sg13
S'android.renderscript.ProgramFragmentFixedFunction$InternalBuilder'
p191
sg15
(lp192
sg17
(lp193
sg19
(lp194
sg21
I0
sba(iArchitecture
Entity
p195
(dp196
g11
(lp197
sg13
S'android.renderscript.ProgramVertex'
p198
sg15
(lp199
sg17
(lp200
sg19
(lp201
sg21
I0
sba(iArchitecture
Entity
p202
(dp203
g11
(lp204
sg13
S'android.renderscript.ProgramVertex$Builder'
p205
sg15
(lp206
sg17
(lp207
sg19
(lp208
sg21
I0
sba(iArchitecture
Entity
p209
(dp210
g11
(lp211
sg13
S'android.renderscript.ProgramVertexFixedFunction'
p212
sg15
(lp213
sg17
(lp214
sg19
(lp215
sg21
I0
sba(iArchitecture
Entity
p216
(dp217
g11
(lp218
sg13
S'android.renderscript.ProgramVertexFixedFunction$Builder'
p219
sg15
(lp220
sg17
(lp221
sg19
(lp222
sg21
I0
sba(iArchitecture
Entity
p223
(dp224
g11
(lp225
sg13
S'android.renderscript.ProgramVertexFixedFunction$Constants'
p226
sg15
(lp227
sg17
(lp228
sg19
(lp229
sg21
I0
sba(iArchitecture
Entity
p230
(dp231
g11
(lp232
sg13
S'android.renderscript.ProgramVertexFixedFunction$InternalBuilder'
p233
sg15
(lp234
sg17
(lp235
sg19
(lp236
sg21
I0
sbasg57
(lp237
g142
ag149
ag156
ag163
ag170
ag177
ag184
ag191
ag198
ag205
ag212
ag219
ag226
ag233
asg21
I0
sg59
S'1281'
p238
sba(iArchitecture
Cluster
p239
(dp240
g7
(lp241
(iArchitecture
Entity
p242
(dp243
g11
(lp244
sg13
S'android.hardware.camera2.legacy.GLThreadManager'
p245
sg15
(lp246
sg17
(lp247
sg19
(lp248
sg21
I0
sba(iArchitecture
Entity
p249
(dp250
g11
(lp251
sg13
S'android.hardware.camera2.legacy.GLThreadManager$1'
p252
sg15
(lp253
sg17
(lp254
sg19
(lp255
sg21
I0
sba(iArchitecture
Entity
p256
(dp257
g11
(lp258
sg13
S'android.hardware.camera2.legacy.GLThreadManager$ConfigureHolder'
p259
sg15
(lp260
sg17
(lp261
sg19
(lp262
sg21
I0
sba(iArchitecture
Entity
p263
(dp264
g11
(lp265
sg13
S'com.android.internal.util.AsyncService'
p266
sg15
(lp267
sg17
(lp268
sg19
(lp269
sg21
I0
sba(iArchitecture
Entity
p270
(dp271
g11
(lp272
sg13
S'com.android.internal.util.AsyncService$AsyncServiceInfo'
p273
sg15
(lp274
sg17
(lp275
sg19
(lp276
sg21
I0
sbasg57
(lp277
g245
ag252
ag259
ag266
ag273
asg21
I0
sg59
S'1381'
p278
sba(iArchitecture
Cluster
p279
(dp280
g7
(lp281
(iArchitecture
Entity
p282
(dp283
g11
(lp284
sg13
S'com.android.server.net.BaseNetworkObserver'
p285
sg15
(lp286
sg17
(lp287
sg19
(lp288
sg21
I0
sbasg57
(lp289
g285
asg21
I0
sg59
S'181'
p290
sba(iArchitecture
Cluster
p291
(dp292
g7
(lp293
(iArchitecture
Entity
p294
(dp295
g11
(lp296
sg13
S'android.view.ViewConfiguration'
p297
sg15
(lp298
sg17
(lp299
sg19
(lp300
sg21
I0
sbasg57
(lp301
g297
asg21
I0
sg59
S'281'
p302
sba(iArchitecture
Cluster
p303
(dp304
g7
(lp305
(iArchitecture
Entity
p306
(dp307
g11
(lp308
sg13
S'android.net.netlink.StructNdMsg'
p309
sg15
(lp310
sg17
(lp311
sg19
(lp312
sg21
I0
sbasg57
(lp313
g309
asg21
I0
sg59
S'381'
p314
sba(iArchitecture
Cluster
p315
(dp316
g7
(lp317
(iArchitecture
Entity
p318
(dp319
g11
(lp320
sg13
S'android.hardware.camera2.CaptureFailure'
p321
sg15
(lp322
sg17
(lp323
sg19
(lp324
sg21
I0
sbasg57
(lp325
g321
asg21
I0
sg59
S'481'
p326
sba(iArchitecture
Cluster
p327
(dp328
g7
(lp329
(iArchitecture
Entity
p330
(dp331
g11
(lp332
sg13
S'android.content.res.AssetManager'
p333
sg15
(lp334
sg17
(lp335
sg19
(lp336
sg21
I0
sba(iArchitecture
Entity
p337
(dp338
g11
(lp339
sg13
S'android.content.res.AssetManager$AssetInputStream'
p340
sg15
(lp341
sg17
(lp342
sg19
(lp343
sg21
I0
sbasg57
(lp344
g333
ag340
asg21
I0
sg59
S'581'
p345
sba(iArchitecture
Cluster
p346
(dp347
g7
(lp348
(iArchitecture
Entity
p349
(dp350
g11
(lp351
sg13
S'com.android.server.wm.BlackFrame'
p352
sg15
(lp353
sg17
(lp354
sg19
(lp355
sg21
I0
sba(iArchitecture
Entity
p356
(dp357
g11
(lp358
sg13
S'com.android.server.wm.BlackFrame$BlackSurface'
p359
sg15
(lp360
sg17
(lp361
sg19
(lp362
sg21
I0
sbasg57
(lp363
g352
ag359
asg21
I0
sg59
S'681'
p364
sba(iArchitecture
Cluster
p365
(dp366
g7
(lp367
(iArchitecture
Entity
p368
(dp369
g11
(lp370
sg13
S'android.telephony.VoLteServiceState'
p371
sg15
(lp372
sg17
(lp373
sg19
(lp374
sg21
I0
sba(iArchitecture
Entity
p375
(dp376
g11
(lp377
sg13
S'android.telephony.VoLteServiceState$1'
p378
sg15
(lp379
sg17
(lp380
sg19
(lp381
sg21
I0
sbasg57
(lp382
g371
ag378
asg21
I0
sg59
S'781'
p383
sba(iArchitecture
Cluster
p384
(dp385
g7
(lp386
(iArchitecture
Entity
p387
(dp388
g11
(lp389
sg13
S'android.transition.AutoTransition'
p390
sg15
(lp391
sg17
(lp392
sg19
(lp393
sg21
I0
sbasg57
(lp394
g390
asg21
I0
sg59
S'81'
p395
sba(iArchitecture
Cluster
p396
(dp397
g7
(lp398
(iArchitecture
Entity
p399
(dp400
g11
(lp401
sg13
S'android.graphics.drawable.RippleComponent'
p402
sg15
(lp403
sg17
(lp404
sg19
(lp405
sg21
I0
sba(iArchitecture
Entity
p406
(dp407
g11
(lp408
sg13
S'android.graphics.drawable.RippleComponent$RenderNodeAnimatorSet'
p409
sg15
(lp410
sg17
(lp411
sg19
(lp412
sg21
I0
sbasg57
(lp413
g402
ag409
asg21
I0
sg59
S'810'
p414
sba(iArchitecture
Cluster
p415
(dp416
g7
(lp417
(iArchitecture
Entity
p418
(dp419
g11
(lp420
sg13
S'com.android.internal.widget.AccountViewAdapter'
p421
sg15
(lp422
sg17
(lp423
sg19
(lp424
sg21
I0
sba(iArchitecture
Entity
p425
(dp426
g11
(lp427
sg13
S'com.android.internal.widget.AccountViewAdapter$AccountElements'
p428
sg15
(lp429
sg17
(lp430
sg19
(lp431
sg21
I0
sbasg57
(lp432
g421
ag428
asg21
I0
sg59
S'811'
p433
sba(iArchitecture
Cluster
p434
(dp435
g7
(lp436
(iArchitecture
Entity
p437
(dp438
g11
(lp439
sg13
S'android.os.Broadcaster'
p440
sg15
(lp441
sg17
(lp442
sg19
(lp443
sg21
I0
sba(iArchitecture
Entity
p444
(dp445
g11
(lp446
sg13
S'android.os.Broadcaster$Registration'
p447
sg15
(lp448
sg17
(lp449
sg19
(lp450
sg21
I0
sbasg57
(lp451
g440
ag447
asg21
I0
sg59
S'812'
p452
sba(iArchitecture
Cluster
p453
(dp454
g7
(lp455
(iArchitecture
Entity
p456
(dp457
g11
(lp458
sg13
S'android.os.Trace'
p459
sg15
(lp460
sg17
(lp461
sg19
(lp462
sg21
I0
sba(iArchitecture
Entity
p463
(dp464
g11
(lp465
sg13
S'android.os.Trace$1'
p466
sg15
(lp467
sg17
(lp468
sg19
(lp469
sg21
I0
sbasg57
(lp470
g459
ag466
asg21
I0
sg59
S'813'
p471
sba(iArchitecture
Cluster
p472
(dp473
g7
(lp474
(iArchitecture
Entity
p475
(dp476
g11
(lp477
sg13
S'android.os.FileBridge'
p478
sg15
(lp479
sg17
(lp480
sg19
(lp481
sg21
I0
sba(iArchitecture
Entity
p482
(dp483
g11
(lp484
sg13
S'android.os.FileBridge$FileBridgeOutputStream'
p485
sg15
(lp486
sg17
(lp487
sg19
(lp488
sg21
I0
sbasg57
(lp489
g478
ag485
asg21
I0
sg59
S'814'
p490
sba(iArchitecture
Cluster
p491
(dp492
g7
(lp493
(iArchitecture
Entity
p494
(dp495
g11
(lp496
sg13
S'com.android.internal.telephony.SmsConstants'
p497
sg15
(lp498
sg17
(lp499
sg19
(lp500
sg21
I0
sba(iArchitecture
Entity
p501
(dp502
g11
(lp503
sg13
S'com.android.internal.telephony.SmsConstants$MessageClass'
p504
sg15
(lp505
sg17
(lp506
sg19
(lp507
sg21
I0
sbasg57
(lp508
g497
ag504
asg21
I0
sg59
S'815'
p509
sba(iArchitecture
Cluster
p510
(dp511
g7
(lp512
(iArchitecture
Entity
p513
(dp514
g11
(lp515
sg13
S'android.os.UserManagerInternal'
p516
sg15
(lp517
sg17
(lp518
sg19
(lp519
sg21
I0
sba(iArchitecture
Entity
p520
(dp521
g11
(lp522
sg13
S'android.os.UserManagerInternal$UserRestrictionsListener'
p523
sg15
(lp524
sg17
(lp525
sg19
(lp526
sg21
I0
sbasg57
(lp527
g516
ag523
asg21
I0
sg59
S'816'
p528
sba(iArchitecture
Cluster
p529
(dp530
g7
(lp531
(iArchitecture
Entity
p532
(dp533
g11
(lp534
sg13
S'android.service.media.CameraPrewarmService'
p535
sg15
(lp536
sg17
(lp537
sg19
(lp538
sg21
I0
sba(iArchitecture
Entity
p539
(dp540
g11
(lp541
sg13
S'android.service.media.CameraPrewarmService$1'
p542
sg15
(lp543
sg17
(lp544
sg19
(lp545
sg21
I0
sbasg57
(lp546
g535
ag542
asg21
I0
sg59
S'817'
p547
sba(iArchitecture
Cluster
p548
(dp549
g7
(lp550
(iArchitecture
Entity
p551
(dp552
g11
(lp553
sg13
S'android.net.LinkAddress'
p554
sg15
(lp555
sg17
(lp556
sg19
(lp557
sg21
I0
sba(iArchitecture
Entity
p558
(dp559
g11
(lp560
sg13
S'android.net.LinkAddress$1'
p561
sg15
(lp562
sg17
(lp563
sg19
(lp564
sg21
I0
sbasg57
(lp565
g554
ag561
asg21
I0
sg59
S'818'
p566
sba(iArchitecture
Cluster
p567
(dp568
g7
(lp569
(iArchitecture
Entity
p570
(dp571
g11
(lp572
sg13
S'com.android.server.am.RecentTasks'
p573
sg15
(lp574
sg17
(lp575
sg19
(lp576
sg21
I0
sba(iArchitecture
Entity
p577
(dp578
g11
(lp579
sg13
S'com.android.server.am.RecentTasks$1'
p580
sg15
(lp581
sg17
(lp582
sg19
(lp583
sg21
I0
sbasg57
(lp584
g573
ag580
asg21
I0
sg59
S'819'
p585
sba(iArchitecture
Cluster
p586
(dp587
g7
(lp588
(iArchitecture
Entity
p589
(dp590
g11
(lp591
sg13
S'android.transition.Crossfade'
p592
sg15
(lp593
sg17
(lp594
sg19
(lp595
sg21
I0
sba(iArchitecture
Entity
p596
(dp597
g11
(lp598
sg13
S'android.transition.Crossfade$1'
p599
sg15
(lp600
sg17
(lp601
sg19
(lp602
sg21
I0
sba(iArchitecture
Entity
p603
(dp604
g11
(lp605
sg13
S'android.transition.Crossfade$2'
p606
sg15
(lp607
sg17
(lp608
sg19
(lp609
sg21
I0
sbasg57
(lp610
g592
ag599
ag606
asg21
I0
sg59
S'881'
p611
sba(iArchitecture
Cluster
p612
(dp613
g7
(lp614
(iArchitecture
Entity
p615
(dp616
g11
(lp617
sg13
S'com.android.server.soundtrigger.SoundTriggerHelper'
p618
sg15
(lp619
sg17
(lp620
sg19
(lp621
sg21
I0
sba(iArchitecture
Entity
p622
(dp623
g11
(lp624
sg13
S'com.android.server.soundtrigger.SoundTriggerHelper$ModelData'
p625
sg15
(lp626
sg17
(lp627
sg19
(lp628
sg21
I0
sba(iArchitecture
Entity
p629
(dp630
g11
(lp631
sg13
S'com.android.server.soundtrigger.SoundTriggerHelper$MyCallStateListener'
p632
sg15
(lp633
sg17
(lp634
sg19
(lp635
sg21
I0
sba(iArchitecture
Entity
p636
(dp637
g11
(lp638
sg13
S'com.android.server.soundtrigger.SoundTriggerHelper$PowerSaveModeListener'
p639
sg15
(lp640
sg17
(lp641
sg19
(lp642
sg21
I0
sbasg57
(lp643
g618
ag625
ag632
ag639
asg21
I0
sg59
S'981'
p644
sbasS'target_sub'
p645
S'81'
p646
sg57
(lp647
sS'is_component_arch'
p648
I01
sg59
S'7.0.0_r1'
p649
sba.