(lp0
(iArchitecture
Architecture
p1
(dp2
S'clusters'
p3
(lp4
(iArchitecture
Cluster
p5
(dp6
S'entities'
p7
(lp8
(iArchitecture
Entity
p9
(dp10
S'issue_ids'
p11
(lp12
sS'name'
p13
S'com.android.internal.policy.BackdropFrameRenderer'
p14
sS'descs'
p15
(lp16
sS'labels'
p17
(lp18
sS'titles'
p19
(lp20
sS'change'
p21
I0
sbasS'classes'
p22
(lp23
g14
asg21
I0
sS'label'
p24
S'111'
p25
sba(iArchitecture
Cluster
p26
(dp27
g7
(lp28
(iArchitecture
Entity
p29
(dp30
g11
(lp31
sg13
S'android.bluetooth.BluetoothClass'
p32
sg15
(lp33
sg17
(lp34
sg19
(lp35
sg21
I0
sba(iArchitecture
Entity
p36
(dp37
g11
(lp38
sg13
S'android.bluetooth.BluetoothClass$1'
p39
sg15
(lp40
sg17
(lp41
sg19
(lp42
sg21
I0
sba(iArchitecture
Entity
p43
(dp44
g11
(lp45
sg13
S'android.bluetooth.BluetoothClass$Device'
p46
sg15
(lp47
sg17
(lp48
sg19
(lp49
sg21
I0
sba(iArchitecture
Entity
p50
(dp51
g11
(lp52
sg13
S'android.bluetooth.BluetoothClass$Device$Major'
p53
sg15
(lp54
sg17
(lp55
sg19
(lp56
sg21
I0
sba(iArchitecture
Entity
p57
(dp58
g11
(lp59
sg13
S'android.bluetooth.BluetoothClass$Service'
p60
sg15
(lp61
sg17
(lp62
sg19
(lp63
sg21
I0
sbasg22
(lp64
g32
ag39
ag46
ag53
ag60
asg21
I0
sg24
S'1110'
p65
sba(iArchitecture
Cluster
p66
(dp67
g7
(lp68
(iArchitecture
Entity
p69
(dp70
g11
(lp71
sg13
S'com.android.server.NetworkTimeUpdateService'
p72
sg15
(lp73
sg17
(lp74
sg19
(lp75
sg21
I0
sba(iArchitecture
Entity
p76
(dp77
g11
(lp78
sg13
S'com.android.server.NetworkTimeUpdateService$1'
p79
sg15
(lp80
sg17
(lp81
sg19
(lp82
sg21
I0
sba(iArchitecture
Entity
p83
(dp84
g11
(lp85
sg13
S'com.android.server.NetworkTimeUpdateService$2'
p86
sg15
(lp87
sg17
(lp88
sg19
(lp89
sg21
I0
sba(iArchitecture
Entity
p90
(dp91
g11
(lp92
sg13
S'com.android.server.NetworkTimeUpdateService$3'
p93
sg15
(lp94
sg17
(lp95
sg19
(lp96
sg21
I0
sba(iArchitecture
Entity
p97
(dp98
g11
(lp99
sg13
S'com.android.server.NetworkTimeUpdateService$MyHandler'
p100
sg15
(lp101
sg17
(lp102
sg19
(lp103
sg21
I0
sba(iArchitecture
Entity
p104
(dp105
g11
(lp106
sg13
S'com.android.server.NetworkTimeUpdateService$SettingsObserver'
p107
sg15
(lp108
sg17
(lp109
sg19
(lp110
sg21
I0
sbasg22
(lp111
g72
ag79
ag86
ag93
ag100
ag107
asg21
I0
sg24
S'1111'
p112
sba(iArchitecture
Cluster
p113
(dp114
g7
(lp115
(iArchitecture
Entity
p116
(dp117
g11
(lp118
sg13
S'com.android.server.lights.LightsService'
p119
sg15
(lp120
sg17
(lp121
sg19
(lp122
sg21
I0
sba(iArchitecture
Entity
p123
(dp124
g11
(lp125
sg13
S'com.android.server.lights.LightsService$1'
p126
sg15
(lp127
sg17
(lp128
sg19
(lp129
sg21
I0
sba(iArchitecture
Entity
p130
(dp131
g11
(lp132
sg13
S'com.android.server.lights.LightsService$2'
p133
sg15
(lp134
sg17
(lp135
sg19
(lp136
sg21
I0
sba(iArchitecture
Entity
p137
(dp138
g11
(lp139
sg13
S'com.android.server.lights.LightsService$3'
p140
sg15
(lp141
sg17
(lp142
sg19
(lp143
sg21
I0
sba(iArchitecture
Entity
p144
(dp145
g11
(lp146
sg13
S'com.android.server.lights.LightsService$LightImpl'
p147
sg15
(lp148
sg17
(lp149
sg19
(lp150
sg21
I0
sbasg22
(lp151
g119
ag126
ag133
ag140
ag147
asg21
I0
sg24
S'1112'
p152
sba(iArchitecture
Cluster
p153
(dp154
g7
(lp155
(iArchitecture
Entity
p156
(dp157
g11
(lp158
sg13
S'android.media.TimedText'
p159
sg15
(lp160
sg17
(lp161
sg19
(lp162
sg21
I0
sba(iArchitecture
Entity
p163
(dp164
g11
(lp165
sg13
S'android.media.TimedText$CharPos'
p166
sg15
(lp167
sg17
(lp168
sg19
(lp169
sg21
I0
sba(iArchitecture
Entity
p170
(dp171
g11
(lp172
sg13
S'android.media.TimedText$Font'
p173
sg15
(lp174
sg17
(lp175
sg19
(lp176
sg21
I0
sba(iArchitecture
Entity
p177
(dp178
g11
(lp179
sg13
S'android.media.TimedText$HyperText'
p180
sg15
(lp181
sg17
(lp182
sg19
(lp183
sg21
I0
sba(iArchitecture
Entity
p184
(dp185
g11
(lp186
sg13
S'android.media.TimedText$Justification'
p187
sg15
(lp188
sg17
(lp189
sg19
(lp190
sg21
I0
sba(iArchitecture
Entity
p191
(dp192
g11
(lp193
sg13
S'android.media.TimedText$Karaoke'
p194
sg15
(lp195
sg17
(lp196
sg19
(lp197
sg21
I0
sba(iArchitecture
Entity
p198
(dp199
g11
(lp200
sg13
S'android.media.TimedText$Style'
p201
sg15
(lp202
sg17
(lp203
sg19
(lp204
sg21
I0
sbasg22
(lp205
g159
ag166
ag173
ag180
ag187
ag194
ag201
asg21
I0
sg24
S'1113'
p206
sba(iArchitecture
Cluster
p207
(dp208
g7
(lp209
(iArchitecture
Entity
p210
(dp211
g11
(lp212
sg13
S'android.bluetooth.le.BluetoothLeScanner'
p213
sg15
(lp214
sg17
(lp215
sg19
(lp216
sg21
I0
sba(iArchitecture
Entity
p217
(dp218
g11
(lp219
sg13
S'android.bluetooth.le.BluetoothLeScanner$1'
p220
sg15
(lp221
sg17
(lp222
sg19
(lp223
sg21
I0
sba(iArchitecture
Entity
p224
(dp225
g11
(lp226
sg13
S'android.bluetooth.le.BluetoothLeScanner$BleScanCallbackWrapper'
p227
sg15
(lp228
sg17
(lp229
sg19
(lp230
sg21
I0
sba(iArchitecture
Entity
p231
(dp232
g11
(lp233
sg13
S'android.bluetooth.le.BluetoothLeScanner$BleScanCallbackWrapper$1'
p234
sg15
(lp235
sg17
(lp236
sg19
(lp237
sg21
I0
sba(iArchitecture
Entity
p238
(dp239
g11
(lp240
sg13
S'android.bluetooth.le.BluetoothLeScanner$BleScanCallbackWrapper$2'
p241
sg15
(lp242
sg17
(lp243
sg19
(lp244
sg21
I0
sba(iArchitecture
Entity
p245
(dp246
g11
(lp247
sg13
S'android.bluetooth.le.BluetoothLeScanner$BleScanCallbackWrapper$3'
p248
sg15
(lp249
sg17
(lp250
sg19
(lp251
sg21
I0
sbasg22
(lp252
g213
ag220
ag227
ag234
ag241
ag248
asg21
I0
sg24
S'1114'
p253
sba(iArchitecture
Cluster
p254
(dp255
g7
(lp256
(iArchitecture
Entity
p257
(dp258
g11
(lp259
sg13
S'android.widget.ZoomButtonsController'
p260
sg15
(lp261
sg17
(lp262
sg19
(lp263
sg21
I0
sba(iArchitecture
Entity
p264
(dp265
g11
(lp266
sg13
S'android.widget.ZoomButtonsController$1'
p267
sg15
(lp268
sg17
(lp269
sg19
(lp270
sg21
I0
sba(iArchitecture
Entity
p271
(dp272
g11
(lp273
sg13
S'android.widget.ZoomButtonsController$2'
p274
sg15
(lp275
sg17
(lp276
sg19
(lp277
sg21
I0
sba(iArchitecture
Entity
p278
(dp279
g11
(lp280
sg13
S'android.widget.ZoomButtonsController$3'
p281
sg15
(lp282
sg17
(lp283
sg19
(lp284
sg21
I0
sba(iArchitecture
Entity
p285
(dp286
g11
(lp287
sg13
S'android.widget.ZoomButtonsController$4'
p288
sg15
(lp289
sg17
(lp290
sg19
(lp291
sg21
I0
sba(iArchitecture
Entity
p292
(dp293
g11
(lp294
sg13
S'android.widget.ZoomButtonsController$5'
p295
sg15
(lp296
sg17
(lp297
sg19
(lp298
sg21
I0
sba(iArchitecture
Entity
p299
(dp300
g11
(lp301
sg13
S'android.widget.ZoomButtonsController$Container'
p302
sg15
(lp303
sg17
(lp304
sg19
(lp305
sg21
I0
sba(iArchitecture
Entity
p306
(dp307
g11
(lp308
sg13
S'android.widget.ZoomButtonsController$OnZoomListener'
p309
sg15
(lp310
sg17
(lp311
sg19
(lp312
sg21
I0
sbasg22
(lp313
g260
ag267
ag274
ag281
ag288
ag295
ag302
ag309
asg21
I0
sg24
S'1115'
p314
sba(iArchitecture
Cluster
p315
(dp316
g7
(lp317
(iArchitecture
Entity
p318
(dp319
g11
(lp320
sg13
S'android.graphics.drawable.AnimatedStateListDrawable'
p321
sg15
(lp322
sg17
(lp323
sg19
(lp324
sg21
I0
sba(iArchitecture
Entity
p325
(dp326
g11
(lp327
sg13
S'android.graphics.drawable.AnimatedStateListDrawable$AnimatableTransition'
p328
sg15
(lp329
sg17
(lp330
sg19
(lp331
sg21
I0
sba(iArchitecture
Entity
p332
(dp333
g11
(lp334
sg13
S'android.graphics.drawable.AnimatedStateListDrawable$AnimatedStateListState'
p335
sg15
(lp336
sg17
(lp337
sg19
(lp338
sg21
I0
sba(iArchitecture
Entity
p339
(dp340
g11
(lp341
sg13
S'android.graphics.drawable.AnimatedStateListDrawable$AnimatedVectorDrawableTransition'
p342
sg15
(lp343
sg17
(lp344
sg19
(lp345
sg21
I0
sba(iArchitecture
Entity
p346
(dp347
g11
(lp348
sg13
S'android.graphics.drawable.AnimatedStateListDrawable$AnimationDrawableTransition'
p349
sg15
(lp350
sg17
(lp351
sg19
(lp352
sg21
I0
sba(iArchitecture
Entity
p353
(dp354
g11
(lp355
sg13
S'android.graphics.drawable.AnimatedStateListDrawable$FrameInterpolator'
p356
sg15
(lp357
sg17
(lp358
sg19
(lp359
sg21
I0
sba(iArchitecture
Entity
p360
(dp361
g11
(lp362
sg13
S'android.graphics.drawable.AnimatedStateListDrawable$Transition'
p363
sg15
(lp364
sg17
(lp365
sg19
(lp366
sg21
I0
sbasg22
(lp367
g321
ag328
ag335
ag342
ag349
ag356
ag363
asg21
I0
sg24
S'1116'
p368
sba(iArchitecture
Cluster
p369
(dp370
g7
(lp371
(iArchitecture
Entity
p372
(dp373
g11
(lp374
sg13
S'com.android.server.display.OverlayDisplayWindow'
p375
sg15
(lp376
sg17
(lp377
sg19
(lp378
sg21
I0
sba(iArchitecture
Entity
p379
(dp380
g11
(lp381
sg13
S'com.android.server.display.OverlayDisplayWindow$1'
p382
sg15
(lp383
sg17
(lp384
sg19
(lp385
sg21
I0
sba(iArchitecture
Entity
p386
(dp387
g11
(lp388
sg13
S'com.android.server.display.OverlayDisplayWindow$2'
p389
sg15
(lp390
sg17
(lp391
sg19
(lp392
sg21
I0
sba(iArchitecture
Entity
p393
(dp394
g11
(lp395
sg13
S'com.android.server.display.OverlayDisplayWindow$3'
p396
sg15
(lp397
sg17
(lp398
sg19
(lp399
sg21
I0
sba(iArchitecture
Entity
p400
(dp401
g11
(lp402
sg13
S'com.android.server.display.OverlayDisplayWindow$4'
p403
sg15
(lp404
sg17
(lp405
sg19
(lp406
sg21
I0
sba(iArchitecture
Entity
p407
(dp408
g11
(lp409
sg13
S'com.android.server.display.OverlayDisplayWindow$5'
p410
sg15
(lp411
sg17
(lp412
sg19
(lp413
sg21
I0
sba(iArchitecture
Entity
p414
(dp415
g11
(lp416
sg13
S'com.android.server.display.OverlayDisplayWindow$Listener'
p417
sg15
(lp418
sg17
(lp419
sg19
(lp420
sg21
I0
sbasg22
(lp421
g375
ag382
ag389
ag396
ag403
ag410
ag417
asg21
I0
sg24
S'1117'
p422
sba(iArchitecture
Cluster
p423
(dp424
g7
(lp425
(iArchitecture
Entity
p426
(dp427
g11
(lp428
sg13
S'com.android.internal.widget.LockPatternUtils'
p429
sg15
(lp430
sg17
(lp431
sg19
(lp432
sg21
I0
sba(iArchitecture
Entity
p433
(dp434
g11
(lp435
sg13
S'com.android.internal.widget.LockPatternUtils$1'
p436
sg15
(lp437
sg17
(lp438
sg19
(lp439
sg21
I0
sba(iArchitecture
Entity
p440
(dp441
g11
(lp442
sg13
S'com.android.internal.widget.LockPatternUtils$RequestThrottledException'
p443
sg15
(lp444
sg17
(lp445
sg19
(lp446
sg21
I0
sba(iArchitecture
Entity
p447
(dp448
g11
(lp449
sg13
S'com.android.internal.widget.LockPatternUtils$StrongAuthTracker'
p450
sg15
(lp451
sg17
(lp452
sg19
(lp453
sg21
I0
sba(iArchitecture
Entity
p454
(dp455
g11
(lp456
sg13
S'com.android.internal.widget.LockPatternUtils$StrongAuthTracker$1'
p457
sg15
(lp458
sg17
(lp459
sg19
(lp460
sg21
I0
sba(iArchitecture
Entity
p461
(dp462
g11
(lp463
sg13
S'com.android.internal.widget.LockPatternUtils$StrongAuthTracker$H'
p464
sg15
(lp465
sg17
(lp466
sg19
(lp467
sg21
I0
sbasg22
(lp468
g429
ag436
ag443
ag450
ag457
ag464
asg21
I0
sg24
S'1118'
p469
sba(iArchitecture
Cluster
p470
(dp471
g7
(lp472
(iArchitecture
Entity
p473
(dp474
g11
(lp475
sg13
S'android.media.MediaSync'
p476
sg15
(lp477
sg17
(lp478
sg19
(lp479
sg21
I0
sba(iArchitecture
Entity
p480
(dp481
g11
(lp482
sg13
S'android.media.MediaSync$1'
p483
sg15
(lp484
sg17
(lp485
sg19
(lp486
sg21
I0
sba(iArchitecture
Entity
p487
(dp488
g11
(lp489
sg13
S'android.media.MediaSync$2'
p490
sg15
(lp491
sg17
(lp492
sg19
(lp493
sg21
I0
sba(iArchitecture
Entity
p494
(dp495
g11
(lp496
sg13
S'android.media.MediaSync$3'
p497
sg15
(lp498
sg17
(lp499
sg19
(lp500
sg21
I0
sba(iArchitecture
Entity
p501
(dp502
g11
(lp503
sg13
S'android.media.MediaSync$AudioBuffer'
p504
sg15
(lp505
sg17
(lp506
sg19
(lp507
sg21
I0
sba(iArchitecture
Entity
p508
(dp509
g11
(lp510
sg13
S'android.media.MediaSync$Callback'
p511
sg15
(lp512
sg17
(lp513
sg19
(lp514
sg21
I0
sba(iArchitecture
Entity
p515
(dp516
g11
(lp517
sg13
S'android.media.MediaSync$OnErrorListener'
p518
sg15
(lp519
sg17
(lp520
sg19
(lp521
sg21
I0
sbasg22
(lp522
g476
ag483
ag490
ag497
ag504
ag511
ag518
asg21
I0
sg24
S'1119'
p523
sbasS'target_sub'
p524
S'111'
p525
sg22
(lp526
sS'is_component_arch'
p527
I01
sg24
S'7.0.0_r1'
p528
sba.