(lp0
(iArchitecture
Architecture
p1
(dp2
S'clusters'
p3
(lp4
(iArchitecture
Cluster
p5
(dp6
S'entities'
p7
(lp8
(iArchitecture
Entity
p9
(dp10
S'issue_ids'
p11
(lp12
sS'name'
p13
S'android.view.ActionMode'
p14
sS'descs'
p15
(lp16
sS'labels'
p17
(lp18
sS'titles'
p19
(lp20
sS'change'
p21
I0
sba(iArchitecture
Entity
p22
(dp23
g11
(lp24
sg13
S'android.view.ActionMode$Callback'
p25
sg15
(lp26
sg17
(lp27
sg19
(lp28
sg21
I0
sba(iArchitecture
Entity
p29
(dp30
g11
(lp31
sg13
S'android.view.ActionMode$Callback2'
p32
sg15
(lp33
sg17
(lp34
sg19
(lp35
sg21
I0
sbasS'classes'
p36
(lp37
g14
ag25
ag32
asg21
I0
sS'label'
p38
S'1024'
p39
sba(iArchitecture
Cluster
p40
(dp41
g7
(lp42
(iArchitecture
Entity
p43
(dp44
g11
(lp45
sg13
S'com.android.server.NativeDaemonConnector'
p46
sg15
(lp47
sg17
(lp48
sg19
(lp49
sg21
I0
sba(iArchitecture
Entity
p50
(dp51
g11
(lp52
sg13
S'com.android.server.NativeDaemonConnector$1'
p53
sg15
(lp54
sg17
(lp55
sg19
(lp56
sg21
I0
sba(iArchitecture
Entity
p57
(dp58
g11
(lp59
sg13
S'com.android.server.NativeDaemonConnector$Command'
p60
sg15
(lp61
sg17
(lp62
sg19
(lp63
sg21
I0
sba(iArchitecture
Entity
p64
(dp65
g11
(lp66
sg13
S'com.android.server.NativeDaemonConnector$NativeDaemonArgumentException'
p67
sg15
(lp68
sg17
(lp69
sg19
(lp70
sg21
I0
sba(iArchitecture
Entity
p71
(dp72
g11
(lp73
sg13
S'com.android.server.NativeDaemonConnector$NativeDaemonFailureException'
p74
sg15
(lp75
sg17
(lp76
sg19
(lp77
sg21
I0
sba(iArchitecture
Entity
p78
(dp79
g11
(lp80
sg13
S'com.android.server.NativeDaemonConnector$ResponseQueue'
p81
sg15
(lp82
sg17
(lp83
sg19
(lp84
sg21
I0
sba(iArchitecture
Entity
p85
(dp86
g11
(lp87
sg13
S'com.android.server.NativeDaemonConnector$ResponseQueue$PendingCmd'
p88
sg15
(lp89
sg17
(lp90
sg19
(lp91
sg21
I0
sba(iArchitecture
Entity
p92
(dp93
g11
(lp94
sg13
S'com.android.server.NativeDaemonConnector$SensitiveArg'
p95
sg15
(lp96
sg17
(lp97
sg19
(lp98
sg21
I0
sbasg36
(lp99
g46
ag53
ag60
ag67
ag74
ag81
ag88
ag95
asg21
I0
sg38
S'1124'
p100
sba(iArchitecture
Cluster
p101
(dp102
g7
(lp103
(iArchitecture
Entity
p104
(dp105
g11
(lp106
sg13
S'com.android.server.policy.GlobalActions'
p107
sg15
(lp108
sg17
(lp109
sg19
(lp110
sg21
I0
sba(iArchitecture
Entity
p111
(dp112
g11
(lp113
sg13
S'com.android.server.policy.GlobalActions$1'
p114
sg15
(lp115
sg17
(lp116
sg19
(lp117
sg21
I0
sba(iArchitecture
Entity
p118
(dp119
g11
(lp120
sg13
S'com.android.server.policy.GlobalActions$10'
p121
sg15
(lp122
sg17
(lp123
sg19
(lp124
sg21
I0
sba(iArchitecture
Entity
p125
(dp126
g11
(lp127
sg13
S'com.android.server.policy.GlobalActions$11'
p128
sg15
(lp129
sg17
(lp130
sg19
(lp131
sg21
I0
sba(iArchitecture
Entity
p132
(dp133
g11
(lp134
sg13
S'com.android.server.policy.GlobalActions$12'
p135
sg15
(lp136
sg17
(lp137
sg19
(lp138
sg21
I0
sba(iArchitecture
Entity
p139
(dp140
g11
(lp141
sg13
S'com.android.server.policy.GlobalActions$2'
p142
sg15
(lp143
sg17
(lp144
sg19
(lp145
sg21
I0
sba(iArchitecture
Entity
p146
(dp147
g11
(lp148
sg13
S'com.android.server.policy.GlobalActions$3'
p149
sg15
(lp150
sg17
(lp151
sg19
(lp152
sg21
I0
sba(iArchitecture
Entity
p153
(dp154
g11
(lp155
sg13
S'com.android.server.policy.GlobalActions$4'
p156
sg15
(lp157
sg17
(lp158
sg19
(lp159
sg21
I0
sba(iArchitecture
Entity
p160
(dp161
g11
(lp162
sg13
S'com.android.server.policy.GlobalActions$5'
p163
sg15
(lp164
sg17
(lp165
sg19
(lp166
sg21
I0
sba(iArchitecture
Entity
p167
(dp168
g11
(lp169
sg13
S'com.android.server.policy.GlobalActions$6'
p170
sg15
(lp171
sg17
(lp172
sg19
(lp173
sg21
I0
sba(iArchitecture
Entity
p174
(dp175
g11
(lp176
sg13
S'com.android.server.policy.GlobalActions$7'
p177
sg15
(lp178
sg17
(lp179
sg19
(lp180
sg21
I0
sba(iArchitecture
Entity
p181
(dp182
g11
(lp183
sg13
S'com.android.server.policy.GlobalActions$8'
p184
sg15
(lp185
sg17
(lp186
sg19
(lp187
sg21
I0
sba(iArchitecture
Entity
p188
(dp189
g11
(lp190
sg13
S'com.android.server.policy.GlobalActions$9'
p191
sg15
(lp192
sg17
(lp193
sg19
(lp194
sg21
I0
sba(iArchitecture
Entity
p195
(dp196
g11
(lp197
sg13
S'com.android.server.policy.GlobalActions$Action'
p198
sg15
(lp199
sg17
(lp200
sg19
(lp201
sg21
I0
sba(iArchitecture
Entity
p202
(dp203
g11
(lp204
sg13
S'com.android.server.policy.GlobalActions$BugReportAction'
p205
sg15
(lp206
sg17
(lp207
sg19
(lp208
sg21
I0
sba(iArchitecture
Entity
p209
(dp210
g11
(lp211
sg13
S'com.android.server.policy.GlobalActions$BugReportAction$1'
p212
sg15
(lp213
sg17
(lp214
sg19
(lp215
sg21
I0
sba(iArchitecture
Entity
p216
(dp217
g11
(lp218
sg13
S'com.android.server.policy.GlobalActions$GlobalActionsDialog'
p219
sg15
(lp220
sg17
(lp221
sg19
(lp222
sg21
I0
sba(iArchitecture
Entity
p223
(dp224
g11
(lp225
sg13
S'com.android.server.policy.GlobalActions$GlobalActionsDialog$1'
p226
sg15
(lp227
sg17
(lp228
sg19
(lp229
sg21
I0
sba(iArchitecture
Entity
p230
(dp231
g11
(lp232
sg13
S'com.android.server.policy.GlobalActions$LongPressAction'
p233
sg15
(lp234
sg17
(lp235
sg19
(lp236
sg21
I0
sba(iArchitecture
Entity
p237
(dp238
g11
(lp239
sg13
S'com.android.server.policy.GlobalActions$MyAdapter'
p240
sg15
(lp241
sg17
(lp242
sg19
(lp243
sg21
I0
sba(iArchitecture
Entity
p244
(dp245
g11
(lp246
sg13
S'com.android.server.policy.GlobalActions$PowerAction'
p247
sg15
(lp248
sg17
(lp249
sg19
(lp250
sg21
I0
sba(iArchitecture
Entity
p251
(dp252
g11
(lp253
sg13
S'com.android.server.policy.GlobalActions$SilentModeToggleAction'
p254
sg15
(lp255
sg17
(lp256
sg19
(lp257
sg21
I0
sba(iArchitecture
Entity
p258
(dp259
g11
(lp260
sg13
S'com.android.server.policy.GlobalActions$SilentModeTriStateAction'
p261
sg15
(lp262
sg17
(lp263
sg19
(lp264
sg21
I0
sba(iArchitecture
Entity
p265
(dp266
g11
(lp267
sg13
S'com.android.server.policy.GlobalActions$SinglePressAction'
p268
sg15
(lp269
sg17
(lp270
sg19
(lp271
sg21
I0
sba(iArchitecture
Entity
p272
(dp273
g11
(lp274
sg13
S'com.android.server.policy.GlobalActions$ToggleAction'
p275
sg15
(lp276
sg17
(lp277
sg19
(lp278
sg21
I0
sba(iArchitecture
Entity
p279
(dp280
g11
(lp281
sg13
S'com.android.server.policy.GlobalActions$ToggleAction$State'
p282
sg15
(lp283
sg17
(lp284
sg19
(lp285
sg21
I0
sbasg36
(lp286
g107
ag114
ag121
ag128
ag135
ag142
ag149
ag156
ag163
ag170
ag177
ag184
ag191
ag198
ag205
ag212
ag219
ag226
ag233
ag240
ag247
ag254
ag261
ag268
ag275
ag282
asg21
I0
sg38
S'1224'
p287
sba(iArchitecture
Cluster
p288
(dp289
g7
(lp290
(iArchitecture
Entity
p291
(dp292
g11
(lp293
sg13
S'com.android.server.notification.RateEstimator'
p294
sg15
(lp295
sg17
(lp296
sg19
(lp297
sg21
I0
sbasg36
(lp298
g294
asg21
I0
sg38
S'124'
p299
sba(iArchitecture
Cluster
p300
(dp301
g7
(lp302
(iArchitecture
Entity
p303
(dp304
g11
(lp305
sg13
S'android.os.health.HealthStats'
p306
sg15
(lp307
sg17
(lp308
sg19
(lp309
sg21
I0
sba(iArchitecture
Entity
p310
(dp311
g11
(lp312
sg13
S'android.os.health.HealthStatsWriter'
p313
sg15
(lp314
sg17
(lp315
sg19
(lp316
sg21
I0
sbasg36
(lp317
g306
ag313
asg21
I0
sg38
S'1240'
p318
sba(iArchitecture
Cluster
p319
(dp320
g7
(lp321
(iArchitecture
Entity
p322
(dp323
g11
(lp324
sg13
S'android.hardware.camera2.legacy.SizeAreaComparator'
p325
sg15
(lp326
sg17
(lp327
sg19
(lp328
sg21
I0
sba(iArchitecture
Entity
p329
(dp330
g11
(lp331
sg13
S'android.hardware.camera2.utils.SizeAreaComparator'
p332
sg15
(lp333
sg17
(lp334
sg19
(lp335
sg21
I0
sbasg36
(lp336
g325
ag332
asg21
I0
sg38
S'1241'
p337
sba(iArchitecture
Cluster
p338
(dp339
g7
(lp340
(iArchitecture
Entity
p341
(dp342
g11
(lp343
sg13
S'android.widget.OverScroller'
p344
sg15
(lp345
sg17
(lp346
sg19
(lp347
sg21
I0
sba(iArchitecture
Entity
p348
(dp349
g11
(lp350
sg13
S'android.widget.OverScroller$SplineOverScroller'
p351
sg15
(lp352
sg17
(lp353
sg19
(lp354
sg21
I0
sba(iArchitecture
Entity
p355
(dp356
g11
(lp357
sg13
S'android.widget.Scroller'
p358
sg15
(lp359
sg17
(lp360
sg19
(lp361
sg21
I0
sba(iArchitecture
Entity
p362
(dp363
g11
(lp364
sg13
S'android.widget.Scroller$ViscousFluidInterpolator'
p365
sg15
(lp366
sg17
(lp367
sg19
(lp368
sg21
I0
sbasg36
(lp369
g344
ag351
ag358
ag365
asg21
I0
sg38
S'1242'
p370
sba(iArchitecture
Cluster
p371
(dp372
g7
(lp373
(iArchitecture
Entity
p374
(dp375
g11
(lp376
sg13
S'android.filterpacks.ui.SurfaceRenderFilter'
p377
sg15
(lp378
sg17
(lp379
sg19
(lp380
sg21
I0
sba(iArchitecture
Entity
p381
(dp382
g11
(lp383
sg13
S'android.filterpacks.ui.SurfaceTargetFilter'
p384
sg15
(lp385
sg17
(lp386
sg19
(lp387
sg21
I0
sba(iArchitecture
Entity
p388
(dp389
g11
(lp390
sg13
S'android.filterpacks.videosrc.SurfaceTextureTarget'
p391
sg15
(lp392
sg17
(lp393
sg19
(lp394
sg21
I0
sbasg36
(lp395
g377
ag384
ag391
asg21
I0
sg38
S'1243'
p396
sba(iArchitecture
Cluster
p397
(dp398
g7
(lp399
(iArchitecture
Entity
p400
(dp401
g11
(lp402
sg13
S'android.nfc.cardemulation.CardEmulation'
p403
sg15
(lp404
sg17
(lp405
sg19
(lp406
sg21
I0
sba(iArchitecture
Entity
p407
(dp408
g11
(lp409
sg13
S'android.nfc.cardemulation.NfcFCardEmulation'
p410
sg15
(lp411
sg17
(lp412
sg19
(lp413
sg21
I0
sbasg36
(lp414
g403
ag410
asg21
I0
sg38
S'1244'
p415
sba(iArchitecture
Cluster
p416
(dp417
g7
(lp418
(iArchitecture
Entity
p419
(dp420
g11
(lp421
sg13
S'android.view.InputEventReceiver'
p422
sg15
(lp423
sg17
(lp424
sg19
(lp425
sg21
I0
sba(iArchitecture
Entity
p426
(dp427
g11
(lp428
sg13
S'android.view.InputEventReceiver$Factory'
p429
sg15
(lp430
sg17
(lp431
sg19
(lp432
sg21
I0
sba(iArchitecture
Entity
p433
(dp434
g11
(lp435
sg13
S'android.view.InputEventSender'
p436
sg15
(lp437
sg17
(lp438
sg19
(lp439
sg21
I0
sbasg36
(lp440
g422
ag429
ag436
asg21
I0
sg38
S'1245'
p441
sba(iArchitecture
Cluster
p442
(dp443
g7
(lp444
(iArchitecture
Entity
p445
(dp446
g11
(lp447
sg13
S'android.view.OrientationEventListener'
p448
sg15
(lp449
sg17
(lp450
sg19
(lp451
sg21
I0
sba(iArchitecture
Entity
p452
(dp453
g11
(lp454
sg13
S'android.view.OrientationEventListener$SensorEventListenerImpl'
p455
sg15
(lp456
sg17
(lp457
sg19
(lp458
sg21
I0
sba(iArchitecture
Entity
p459
(dp460
g11
(lp461
sg13
S'android.view.OrientationListener'
p462
sg15
(lp463
sg17
(lp464
sg19
(lp465
sg21
I0
sba(iArchitecture
Entity
p466
(dp467
g11
(lp468
sg13
S'android.view.OrientationListener$OrientationEventListenerInternal'
p469
sg15
(lp470
sg17
(lp471
sg19
(lp472
sg21
I0
sbasg36
(lp473
g448
ag455
ag462
ag469
asg21
I0
sg38
S'1246'
p474
sba(iArchitecture
Cluster
p475
(dp476
g7
(lp477
(iArchitecture
Entity
p478
(dp479
g11
(lp480
sg13
S'android.animation.ObjectAnimator'
p481
sg15
(lp482
sg17
(lp483
sg19
(lp484
sg21
I0
sba(iArchitecture
Entity
p485
(dp486
g11
(lp487
sg13
S'android.animation.PropertyValuesHolder'
p488
sg15
(lp489
sg17
(lp490
sg19
(lp491
sg21
I0
sba(iArchitecture
Entity
p492
(dp493
g11
(lp494
sg13
S'android.animation.PropertyValuesHolder$1'
p495
sg15
(lp496
sg17
(lp497
sg19
(lp498
sg21
I0
sba(iArchitecture
Entity
p499
(dp500
g11
(lp501
sg13
S'android.animation.PropertyValuesHolder$FloatPropertyValuesHolder'
p502
sg15
(lp503
sg17
(lp504
sg19
(lp505
sg21
I0
sba(iArchitecture
Entity
p506
(dp507
g11
(lp508
sg13
S'android.animation.PropertyValuesHolder$IntPropertyValuesHolder'
p509
sg15
(lp510
sg17
(lp511
sg19
(lp512
sg21
I0
sba(iArchitecture
Entity
p513
(dp514
g11
(lp515
sg13
S'android.animation.PropertyValuesHolder$MultiFloatValuesHolder'
p516
sg15
(lp517
sg17
(lp518
sg19
(lp519
sg21
I0
sba(iArchitecture
Entity
p520
(dp521
g11
(lp522
sg13
S'android.animation.PropertyValuesHolder$MultiIntValuesHolder'
p523
sg15
(lp524
sg17
(lp525
sg19
(lp526
sg21
I0
sba(iArchitecture
Entity
p527
(dp528
g11
(lp529
sg13
S'android.animation.PropertyValuesHolder$PointFToFloatArray'
p530
sg15
(lp531
sg17
(lp532
sg19
(lp533
sg21
I0
sba(iArchitecture
Entity
p534
(dp535
g11
(lp536
sg13
S'android.animation.PropertyValuesHolder$PointFToIntArray'
p537
sg15
(lp538
sg17
(lp539
sg19
(lp540
sg21
I0
sba(iArchitecture
Entity
p541
(dp542
g11
(lp543
sg13
S'android.animation.PropertyValuesHolder$PropertyValues'
p544
sg15
(lp545
sg17
(lp546
sg19
(lp547
sg21
I0
sba(iArchitecture
Entity
p548
(dp549
g11
(lp550
sg13
S'android.animation.PropertyValuesHolder$PropertyValues$DataSource'
p551
sg15
(lp552
sg17
(lp553
sg19
(lp554
sg21
I0
sbasg36
(lp555
g481
ag488
ag495
ag502
ag509
ag516
ag523
ag530
ag537
ag544
ag551
asg21
I0
sg38
S'1247'
p556
sba(iArchitecture
Cluster
p557
(dp558
g7
(lp559
(iArchitecture
Entity
p560
(dp561
g11
(lp562
sg13
S'android.renderscript.Byte2'
p563
sg15
(lp564
sg17
(lp565
sg19
(lp566
sg21
I0
sba(iArchitecture
Entity
p567
(dp568
g11
(lp569
sg13
S'android.renderscript.Byte3'
p570
sg15
(lp571
sg17
(lp572
sg19
(lp573
sg21
I0
sba(iArchitecture
Entity
p574
(dp575
g11
(lp576
sg13
S'android.renderscript.Byte4'
p577
sg15
(lp578
sg17
(lp579
sg19
(lp580
sg21
I0
sba(iArchitecture
Entity
p581
(dp582
g11
(lp583
sg13
S'android.renderscript.Double2'
p584
sg15
(lp585
sg17
(lp586
sg19
(lp587
sg21
I0
sba(iArchitecture
Entity
p588
(dp589
g11
(lp590
sg13
S'android.renderscript.Double3'
p591
sg15
(lp592
sg17
(lp593
sg19
(lp594
sg21
I0
sba(iArchitecture
Entity
p595
(dp596
g11
(lp597
sg13
S'android.renderscript.Double4'
p598
sg15
(lp599
sg17
(lp600
sg19
(lp601
sg21
I0
sba(iArchitecture
Entity
p602
(dp603
g11
(lp604
sg13
S'android.renderscript.Float2'
p605
sg15
(lp606
sg17
(lp607
sg19
(lp608
sg21
I0
sba(iArchitecture
Entity
p609
(dp610
g11
(lp611
sg13
S'android.renderscript.Float3'
p612
sg15
(lp613
sg17
(lp614
sg19
(lp615
sg21
I0
sba(iArchitecture
Entity
p616
(dp617
g11
(lp618
sg13
S'android.renderscript.Float4'
p619
sg15
(lp620
sg17
(lp621
sg19
(lp622
sg21
I0
sba(iArchitecture
Entity
p623
(dp624
g11
(lp625
sg13
S'android.renderscript.Int2'
p626
sg15
(lp627
sg17
(lp628
sg19
(lp629
sg21
I0
sba(iArchitecture
Entity
p630
(dp631
g11
(lp632
sg13
S'android.renderscript.Int3'
p633
sg15
(lp634
sg17
(lp635
sg19
(lp636
sg21
I0
sba(iArchitecture
Entity
p637
(dp638
g11
(lp639
sg13
S'android.renderscript.Int4'
p640
sg15
(lp641
sg17
(lp642
sg19
(lp643
sg21
I0
sba(iArchitecture
Entity
p644
(dp645
g11
(lp646
sg13
S'android.renderscript.Long2'
p647
sg15
(lp648
sg17
(lp649
sg19
(lp650
sg21
I0
sba(iArchitecture
Entity
p651
(dp652
g11
(lp653
sg13
S'android.renderscript.Long3'
p654
sg15
(lp655
sg17
(lp656
sg19
(lp657
sg21
I0
sba(iArchitecture
Entity
p658
(dp659
g11
(lp660
sg13
S'android.renderscript.Long4'
p661
sg15
(lp662
sg17
(lp663
sg19
(lp664
sg21
I0
sba(iArchitecture
Entity
p665
(dp666
g11
(lp667
sg13
S'android.renderscript.Short2'
p668
sg15
(lp669
sg17
(lp670
sg19
(lp671
sg21
I0
sba(iArchitecture
Entity
p672
(dp673
g11
(lp674
sg13
S'android.renderscript.Short3'
p675
sg15
(lp676
sg17
(lp677
sg19
(lp678
sg21
I0
sba(iArchitecture
Entity
p679
(dp680
g11
(lp681
sg13
S'android.renderscript.Short4'
p682
sg15
(lp683
sg17
(lp684
sg19
(lp685
sg21
I0
sbasg36
(lp686
g563
ag570
ag577
ag584
ag591
ag598
ag605
ag612
ag619
ag626
ag633
ag640
ag647
ag654
ag661
ag668
ag675
ag682
asg21
I0
sg38
S'1248'
p687
sba(iArchitecture
Cluster
p688
(dp689
g7
(lp690
(iArchitecture
Entity
p691
(dp692
g11
(lp693
sg13
S'com.android.internal.os.BluetoothPowerCalculator'
p694
sg15
(lp695
sg17
(lp696
sg19
(lp697
sg21
I0
sba(iArchitecture
Entity
p698
(dp699
g11
(lp700
sg13
S'com.android.internal.os.WifiPowerCalculator'
p701
sg15
(lp702
sg17
(lp703
sg19
(lp704
sg21
I0
sbasg36
(lp705
g694
ag701
asg21
I0
sg38
S'1249'
p706
sba(iArchitecture
Cluster
p707
(dp708
g7
(lp709
(iArchitecture
Entity
p710
(dp711
g11
(lp712
sg13
S'android.widget.CalendarView'
p713
sg15
(lp714
sg17
(lp715
sg19
(lp716
sg21
I0
sba(iArchitecture
Entity
p717
(dp718
g11
(lp719
sg13
S'android.widget.CalendarView$AbstractCalendarViewDelegate'
p720
sg15
(lp721
sg17
(lp722
sg19
(lp723
sg21
I0
sba(iArchitecture
Entity
p724
(dp725
g11
(lp726
sg13
S'android.widget.CalendarView$CalendarViewDelegate'
p727
sg15
(lp728
sg17
(lp729
sg19
(lp730
sg21
I0
sba(iArchitecture
Entity
p731
(dp732
g11
(lp733
sg13
S'android.widget.CalendarView$OnDateChangeListener'
p734
sg15
(lp735
sg17
(lp736
sg19
(lp737
sg21
I0
sba(iArchitecture
Entity
p738
(dp739
g11
(lp740
sg13
S'android.widget.CalendarViewLegacyDelegate'
p741
sg15
(lp742
sg17
(lp743
sg19
(lp744
sg21
I0
sba(iArchitecture
Entity
p745
(dp746
g11
(lp747
sg13
S'android.widget.CalendarViewLegacyDelegate$1'
p748
sg15
(lp749
sg17
(lp750
sg19
(lp751
sg21
I0
sba(iArchitecture
Entity
p752
(dp753
g11
(lp754
sg13
S'android.widget.CalendarViewLegacyDelegate$2'
p755
sg15
(lp756
sg17
(lp757
sg19
(lp758
sg21
I0
sba(iArchitecture
Entity
p759
(dp760
g11
(lp761
sg13
S'android.widget.CalendarViewLegacyDelegate$ScrollStateRunnable'
p762
sg15
(lp763
sg17
(lp764
sg19
(lp765
sg21
I0
sba(iArchitecture
Entity
p766
(dp767
g11
(lp768
sg13
S'android.widget.CalendarViewLegacyDelegate$WeekView'
p769
sg15
(lp770
sg17
(lp771
sg19
(lp772
sg21
I0
sba(iArchitecture
Entity
p773
(dp774
g11
(lp775
sg13
S'android.widget.CalendarViewLegacyDelegate$WeeksAdapter'
p776
sg15
(lp777
sg17
(lp778
sg19
(lp779
sg21
I0
sba(iArchitecture
Entity
p780
(dp781
g11
(lp782
sg13
S'android.widget.CalendarViewLegacyDelegate$WeeksAdapter$CalendarGestureListener'
p783
sg15
(lp784
sg17
(lp785
sg19
(lp786
sg21
I0
sba(iArchitecture
Entity
p787
(dp788
g11
(lp789
sg13
S'android.widget.DatePicker'
p790
sg15
(lp791
sg17
(lp792
sg19
(lp793
sg21
I0
sba(iArchitecture
Entity
p794
(dp795
g11
(lp796
sg13
S'android.widget.DatePicker$AbstractDatePickerDelegate'
p797
sg15
(lp798
sg17
(lp799
sg19
(lp800
sg21
I0
sba(iArchitecture
Entity
p801
(dp802
g11
(lp803
sg13
S'android.widget.DatePicker$AbstractDatePickerDelegate$SavedState'
p804
sg15
(lp805
sg17
(lp806
sg19
(lp807
sg21
I0
sba(iArchitecture
Entity
p808
(dp809
g11
(lp810
sg13
S'android.widget.DatePicker$AbstractDatePickerDelegate$SavedState$1'
p811
sg15
(lp812
sg17
(lp813
sg19
(lp814
sg21
I0
sba(iArchitecture
Entity
p815
(dp816
g11
(lp817
sg13
S'android.widget.DatePicker$DatePickerDelegate'
p818
sg15
(lp819
sg17
(lp820
sg19
(lp821
sg21
I0
sba(iArchitecture
Entity
p822
(dp823
g11
(lp824
sg13
S'android.widget.DatePicker$OnDateChangedListener'
p825
sg15
(lp826
sg17
(lp827
sg19
(lp828
sg21
I0
sba(iArchitecture
Entity
p829
(dp830
g11
(lp831
sg13
S'android.widget.DatePicker$ValidationCallback'
p832
sg15
(lp833
sg17
(lp834
sg19
(lp835
sg21
I0
sba(iArchitecture
Entity
p836
(dp837
g11
(lp838
sg13
S'android.widget.DatePickerCalendarDelegate'
p839
sg15
(lp840
sg17
(lp841
sg19
(lp842
sg21
I0
sba(iArchitecture
Entity
p843
(dp844
g11
(lp845
sg13
S'android.widget.DatePickerCalendarDelegate$1'
p846
sg15
(lp847
sg17
(lp848
sg19
(lp849
sg21
I0
sba(iArchitecture
Entity
p850
(dp851
g11
(lp852
sg13
S'android.widget.DatePickerCalendarDelegate$2'
p853
sg15
(lp854
sg17
(lp855
sg19
(lp856
sg21
I0
sba(iArchitecture
Entity
p857
(dp858
g11
(lp859
sg13
S'android.widget.DatePickerCalendarDelegate$3'
p860
sg15
(lp861
sg17
(lp862
sg19
(lp863
sg21
I0
sba(iArchitecture
Entity
p864
(dp865
g11
(lp866
sg13
S'android.widget.DatePickerCalendarDelegate$4'
p867
sg15
(lp868
sg17
(lp869
sg19
(lp870
sg21
I0
sba(iArchitecture
Entity
p871
(dp872
g11
(lp873
sg13
S'android.widget.DatePickerSpinnerDelegate'
p874
sg15
(lp875
sg17
(lp876
sg19
(lp877
sg21
I0
sba(iArchitecture
Entity
p878
(dp879
g11
(lp880
sg13
S'android.widget.DatePickerSpinnerDelegate$1'
p881
sg15
(lp882
sg17
(lp883
sg19
(lp884
sg21
I0
sba(iArchitecture
Entity
p885
(dp886
g11
(lp887
sg13
S'android.widget.DatePickerSpinnerDelegate$2'
p888
sg15
(lp889
sg17
(lp890
sg19
(lp891
sg21
I0
sba(iArchitecture
Entity
p892
(dp893
g11
(lp894
sg13
S'android.widget.DayPickerView'
p895
sg15
(lp896
sg17
(lp897
sg19
(lp898
sg21
I0
sba(iArchitecture
Entity
p899
(dp900
g11
(lp901
sg13
S'android.widget.DayPickerView$1'
p902
sg15
(lp903
sg17
(lp904
sg19
(lp905
sg21
I0
sba(iArchitecture
Entity
p906
(dp907
g11
(lp908
sg13
S'android.widget.DayPickerView$2'
p909
sg15
(lp910
sg17
(lp911
sg19
(lp912
sg21
I0
sba(iArchitecture
Entity
p913
(dp914
g11
(lp915
sg13
S'android.widget.DayPickerView$3'
p916
sg15
(lp917
sg17
(lp918
sg19
(lp919
sg21
I0
sba(iArchitecture
Entity
p920
(dp921
g11
(lp922
sg13
S'android.widget.DayPickerView$OnDaySelectedListener'
p923
sg15
(lp924
sg17
(lp925
sg19
(lp926
sg21
I0
sbasg36
(lp927
g713
ag720
ag727
ag734
ag741
ag748
ag755
ag762
ag769
ag776
ag783
ag790
ag797
ag804
ag811
ag818
ag825
ag832
ag839
ag846
ag853
ag860
ag867
ag874
ag881
ag888
ag895
ag902
ag909
ag916
ag923
asg21
I0
sg38
S'1324'
p928
sba(iArchitecture
Cluster
p929
(dp930
g7
(lp931
(iArchitecture
Entity
p932
(dp933
g11
(lp934
sg13
S'com.android.internal.util.Preconditions'
p935
sg15
(lp936
sg17
(lp937
sg19
(lp938
sg21
I0
sbasg36
(lp939
g935
asg21
I0
sg38
S'224'
p940
sba(iArchitecture
Cluster
p941
(dp942
g7
(lp943
(iArchitecture
Entity
p944
(dp945
g11
(lp946
sg13
S'android.hardware.camera2.params.ColorSpaceTransform'
p947
sg15
(lp948
sg17
(lp949
sg19
(lp950
sg21
I0
sbasg36
(lp951
g947
asg21
I0
sg38
S'24'
p952
sba(iArchitecture
Cluster
p953
(dp954
g7
(lp955
(iArchitecture
Entity
p956
(dp957
g11
(lp958
sg13
S'android.preference.PreferenceCategory'
p959
sg15
(lp960
sg17
(lp961
sg19
(lp962
sg21
I0
sbasg36
(lp963
g959
asg21
I0
sg38
S'240'
p964
sba(iArchitecture
Cluster
p965
(dp966
g7
(lp967
(iArchitecture
Entity
p968
(dp969
g11
(lp970
sg13
S'android.security.Credentials'
p971
sg15
(lp972
sg17
(lp973
sg19
(lp974
sg21
I0
sbasg36
(lp975
g971
asg21
I0
sg38
S'241'
p976
sba(iArchitecture
Cluster
p977
(dp978
g7
(lp979
(iArchitecture
Entity
p980
(dp981
g11
(lp982
sg13
S'com.android.internal.app.AssistUtils'
p983
sg15
(lp984
sg17
(lp985
sg19
(lp986
sg21
I0
sbasg36
(lp987
g983
asg21
I0
sg38
S'242'
p988
sba(iArchitecture
Cluster
p989
(dp990
g7
(lp991
(iArchitecture
Entity
p992
(dp993
g11
(lp994
sg13
S'android.renderscript.ScriptIntrinsicBLAS'
p995
sg15
(lp996
sg17
(lp997
sg19
(lp998
sg21
I0
sbasg36
(lp999
g995
asg21
I0
sg38
S'243'
p1000
sba(iArchitecture
Cluster
p1001
(dp1002
g7
(lp1003
(iArchitecture
Entity
p1004
(dp1005
g11
(lp1006
sg13
S'android.speech.tts.PlaybackQueueItem'
p1007
sg15
(lp1008
sg17
(lp1009
sg19
(lp1010
sg21
I0
sbasg36
(lp1011
g1007
asg21
I0
sg38
S'244'
p1012
sba(iArchitecture
Cluster
p1013
(dp1014
g7
(lp1015
(iArchitecture
Entity
p1016
(dp1017
g11
(lp1018
sg13
S'com.android.internal.util.MemInfoReader'
p1019
sg15
(lp1020
sg17
(lp1021
sg19
(lp1022
sg21
I0
sbasg36
(lp1023
g1019
asg21
I0
sg38
S'245'
p1024
sba(iArchitecture
Cluster
p1025
(dp1026
g7
(lp1027
(iArchitecture
Entity
p1028
(dp1029
g11
(lp1030
sg13
S'com.android.internal.widget.WeightedLinearLayout'
p1031
sg15
(lp1032
sg17
(lp1033
sg19
(lp1034
sg21
I0
sbasg36
(lp1035
g1031
asg21
I0
sg38
S'246'
p1036
sba(iArchitecture
Cluster
p1037
(dp1038
g7
(lp1039
(iArchitecture
Entity
p1040
(dp1041
g11
(lp1042
sg13
S'android.util.FloatMath'
p1043
sg15
(lp1044
sg17
(lp1045
sg19
(lp1046
sg21
I0
sbasg36
(lp1047
g1043
asg21
I0
sg38
S'247'
p1048
sba(iArchitecture
Cluster
p1049
(dp1050
g7
(lp1051
(iArchitecture
Entity
p1052
(dp1053
g11
(lp1054
sg13
S'android.os.SystemClock'
p1055
sg15
(lp1056
sg17
(lp1057
sg19
(lp1058
sg21
I0
sbasg36
(lp1059
g1055
asg21
I0
sg38
S'248'
p1060
sba(iArchitecture
Cluster
p1061
(dp1062
g7
(lp1063
(iArchitecture
Entity
p1064
(dp1065
g11
(lp1066
sg13
S'android.opengl.GLErrorWrapper'
p1067
sg15
(lp1068
sg17
(lp1069
sg19
(lp1070
sg21
I0
sbasg36
(lp1071
g1067
asg21
I0
sg38
S'249'
p1072
sba(iArchitecture
Cluster
p1073
(dp1074
g7
(lp1075
(iArchitecture
Entity
p1076
(dp1077
g11
(lp1078
sg13
S'android.media.ToneGenerator'
p1079
sg15
(lp1080
sg17
(lp1081
sg19
(lp1082
sg21
I0
sbasg36
(lp1083
g1079
asg21
I0
sg38
S'324'
p1084
sba(iArchitecture
Cluster
p1085
(dp1086
g7
(lp1087
(iArchitecture
Entity
p1088
(dp1089
g11
(lp1090
sg13
S'android.widget.EdgeEffect'
p1091
sg15
(lp1092
sg17
(lp1093
sg19
(lp1094
sg21
I0
sbasg36
(lp1095
g1091
asg21
I0
sg38
S'424'
p1096
sba(iArchitecture
Cluster
p1097
(dp1098
g7
(lp1099
(iArchitecture
Entity
p1100
(dp1101
g11
(lp1102
sg13
S'android.view.InputFilter'
p1103
sg15
(lp1104
sg17
(lp1105
sg19
(lp1106
sg21
I0
sba(iArchitecture
Entity
p1107
(dp1108
g11
(lp1109
sg13
S'android.view.InputFilter$H'
p1110
sg15
(lp1111
sg17
(lp1112
sg19
(lp1113
sg21
I0
sbasg36
(lp1114
g1103
ag1110
asg21
I0
sg38
S'524'
p1115
sba(iArchitecture
Cluster
p1116
(dp1117
g7
(lp1118
(iArchitecture
Entity
p1119
(dp1120
g11
(lp1121
sg13
S'android.net.DhcpResults'
p1122
sg15
(lp1123
sg17
(lp1124
sg19
(lp1125
sg21
I0
sba(iArchitecture
Entity
p1126
(dp1127
g11
(lp1128
sg13
S'android.net.DhcpResults$1'
p1129
sg15
(lp1130
sg17
(lp1131
sg19
(lp1132
sg21
I0
sbasg36
(lp1133
g1122
ag1129
asg21
I0
sg38
S'624'
p1134
sba(iArchitecture
Cluster
p1135
(dp1136
g7
(lp1137
(iArchitecture
Entity
p1138
(dp1139
g11
(lp1140
sg13
S'com.android.server.accessibility.MotionEventInjector'
p1141
sg15
(lp1142
sg17
(lp1143
sg19
(lp1144
sg21
I0
sba(iArchitecture
Entity
p1145
(dp1146
g11
(lp1147
sg13
S'com.android.server.accessibility.MotionEventInjector$Callback'
p1148
sg15
(lp1149
sg17
(lp1150
sg19
(lp1151
sg21
I0
sbasg36
(lp1152
g1141
ag1148
asg21
I0
sg38
S'724'
p1153
sba(iArchitecture
Cluster
p1154
(dp1155
g7
(lp1156
(iArchitecture
Entity
p1157
(dp1158
g11
(lp1159
sg13
S'android.view.BatchedInputEventReceiver'
p1160
sg15
(lp1161
sg17
(lp1162
sg19
(lp1163
sg21
I0
sba(iArchitecture
Entity
p1164
(dp1165
g11
(lp1166
sg13
S'android.view.BatchedInputEventReceiver$BatchedInputRunnable'
p1167
sg15
(lp1168
sg17
(lp1169
sg19
(lp1170
sg21
I0
sbasg36
(lp1171
g1160
ag1167
asg21
I0
sg38
S'824'
p1172
sba(iArchitecture
Cluster
p1173
(dp1174
g7
(lp1175
(iArchitecture
Entity
p1176
(dp1177
g11
(lp1178
sg13
S'android.renderscript.Allocation'
p1179
sg15
(lp1180
sg17
(lp1181
sg19
(lp1182
sg21
I0
sba(iArchitecture
Entity
p1183
(dp1184
g11
(lp1185
sg13
S'android.renderscript.Allocation$MipmapControl'
p1186
sg15
(lp1187
sg17
(lp1188
sg19
(lp1189
sg21
I0
sba(iArchitecture
Entity
p1190
(dp1191
g11
(lp1192
sg13
S'android.renderscript.Allocation$OnBufferAvailableListener'
p1193
sg15
(lp1194
sg17
(lp1195
sg19
(lp1196
sg21
I0
sbasg36
(lp1197
g1179
ag1186
ag1193
asg21
I0
sg38
S'924'
p1198
sbasS'target_sub'
p1199
S'24'
p1200
sg36
(lp1201
sS'is_component_arch'
p1202
I01
sg38
S'7.0.0_r1'
p1203
sba.