(lp0
(iArchitecture
Architecture
p1
(dp2
S'clusters'
p3
(lp4
(iArchitecture
Cluster
p5
(dp6
S'entities'
p7
(lp8
(iArchitecture
Entity
p9
(dp10
S'issue_ids'
p11
(lp12
sS'name'
p13
S'com.android.server.LockSettingsStorage'
p14
sS'descs'
p15
(lp16
sS'labels'
p17
(lp18
sS'titles'
p19
(lp20
sS'change'
p21
I0
sba(iArchitecture
Entity
p22
(dp23
g11
(lp24
sg13
S'com.android.server.LockSettingsStorage$Cache'
p25
sg15
(lp26
sg17
(lp27
sg19
(lp28
sg21
I0
sba(iArchitecture
Entity
p29
(dp30
g11
(lp31
sg13
S'com.android.server.LockSettingsStorage$Cache$CacheKey'
p32
sg15
(lp33
sg17
(lp34
sg19
(lp35
sg21
I0
sba(iArchitecture
Entity
p36
(dp37
g11
(lp38
sg13
S'com.android.server.LockSettingsStorage$Callback'
p39
sg15
(lp40
sg17
(lp41
sg19
(lp42
sg21
I0
sba(iArchitecture
Entity
p43
(dp44
g11
(lp45
sg13
S'com.android.server.LockSettingsStorage$CredentialHash'
p46
sg15
(lp47
sg17
(lp48
sg19
(lp49
sg21
I0
sba(iArchitecture
Entity
p50
(dp51
g11
(lp52
sg13
S'com.android.server.LockSettingsStorage$DatabaseHelper'
p53
sg15
(lp54
sg17
(lp55
sg19
(lp56
sg21
I0
sbasS'classes'
p57
(lp58
g14
ag25
ag32
ag39
ag46
ag53
asg21
I0
sS'label'
p59
S'1080'
p60
sba(iArchitecture
Cluster
p61
(dp62
g7
(lp63
(iArchitecture
Entity
p64
(dp65
g11
(lp66
sg13
S'android.telecom.ConnectionService'
p67
sg15
(lp68
sg17
(lp69
sg19
(lp70
sg21
I0
sba(iArchitecture
Entity
p71
(dp72
g11
(lp73
sg13
S'android.telecom.ConnectionService$1'
p74
sg15
(lp75
sg17
(lp76
sg19
(lp77
sg21
I0
sba(iArchitecture
Entity
p78
(dp79
g11
(lp80
sg13
S'android.telecom.ConnectionService$2'
p81
sg15
(lp82
sg17
(lp83
sg19
(lp84
sg21
I0
sba(iArchitecture
Entity
p85
(dp86
g11
(lp87
sg13
S'android.telecom.ConnectionService$2$1'
p88
sg15
(lp89
sg17
(lp90
sg19
(lp91
sg21
I0
sba(iArchitecture
Entity
p92
(dp93
g11
(lp94
sg13
S'android.telecom.ConnectionService$3'
p95
sg15
(lp96
sg17
(lp97
sg19
(lp98
sg21
I0
sba(iArchitecture
Entity
p99
(dp100
g11
(lp101
sg13
S'android.telecom.ConnectionService$4'
p102
sg15
(lp103
sg17
(lp104
sg19
(lp105
sg21
I0
sba(iArchitecture
Entity
p106
(dp107
g11
(lp108
sg13
S'android.telecom.ConnectionService$5'
p109
sg15
(lp110
sg17
(lp111
sg19
(lp112
sg21
I0
sba(iArchitecture
Entity
p113
(dp114
g11
(lp115
sg13
S'android.telecom.ConnectionService$5$1'
p116
sg15
(lp117
sg17
(lp118
sg19
(lp119
sg21
I0
sba(iArchitecture
Entity
p120
(dp121
g11
(lp122
sg13
S'android.telecom.ConnectionService$5$2'
p123
sg15
(lp124
sg17
(lp125
sg19
(lp126
sg21
I0
sba(iArchitecture
Entity
p127
(dp128
g11
(lp129
sg13
S'android.telecom.ConnectionService$6'
p130
sg15
(lp131
sg17
(lp132
sg19
(lp133
sg21
I0
sba(iArchitecture
Entity
p134
(dp135
g11
(lp136
sg13
S'android.telecom.ConnectionService$7'
p137
sg15
(lp138
sg17
(lp139
sg19
(lp140
sg21
I0
sbasg57
(lp141
g67
ag74
ag81
ag88
ag95
ag102
ag109
ag116
ag123
ag130
ag137
asg21
I0
sg59
S'1180'
p142
sba(iArchitecture
Cluster
p143
(dp144
g7
(lp145
(iArchitecture
Entity
p146
(dp147
g11
(lp148
sg13
S'android.widget.AdapterViewAnimator'
p149
sg15
(lp150
sg17
(lp151
sg19
(lp152
sg21
I0
sba(iArchitecture
Entity
p153
(dp154
g11
(lp155
sg13
S'android.widget.AdapterViewAnimator$1'
p156
sg15
(lp157
sg17
(lp158
sg19
(lp159
sg21
I0
sba(iArchitecture
Entity
p160
(dp161
g11
(lp162
sg13
S'android.widget.AdapterViewAnimator$1$1'
p163
sg15
(lp164
sg17
(lp165
sg19
(lp166
sg21
I0
sba(iArchitecture
Entity
p167
(dp168
g11
(lp169
sg13
S'android.widget.AdapterViewAnimator$2'
p170
sg15
(lp171
sg17
(lp172
sg19
(lp173
sg21
I0
sba(iArchitecture
Entity
p174
(dp175
g11
(lp176
sg13
S'android.widget.AdapterViewAnimator$CheckForTap'
p177
sg15
(lp178
sg17
(lp179
sg19
(lp180
sg21
I0
sba(iArchitecture
Entity
p181
(dp182
g11
(lp183
sg13
S'android.widget.AdapterViewAnimator$SavedState'
p184
sg15
(lp185
sg17
(lp186
sg19
(lp187
sg21
I0
sba(iArchitecture
Entity
p188
(dp189
g11
(lp190
sg13
S'android.widget.AdapterViewAnimator$SavedState$1'
p191
sg15
(lp192
sg17
(lp193
sg19
(lp194
sg21
I0
sba(iArchitecture
Entity
p195
(dp196
g11
(lp197
sg13
S'android.widget.AdapterViewAnimator$ViewAndMetaData'
p198
sg15
(lp199
sg17
(lp200
sg19
(lp201
sg21
I0
sba(iArchitecture
Entity
p202
(dp203
g11
(lp204
sg13
S'android.widget.RemoteViewsAdapter'
p205
sg15
(lp206
sg17
(lp207
sg19
(lp208
sg21
I0
sba(iArchitecture
Entity
p209
(dp210
g11
(lp211
sg13
S'android.widget.RemoteViewsAdapter$1'
p212
sg15
(lp213
sg17
(lp214
sg19
(lp215
sg21
I0
sba(iArchitecture
Entity
p216
(dp217
g11
(lp218
sg13
S'android.widget.RemoteViewsAdapter$2'
p219
sg15
(lp220
sg17
(lp221
sg19
(lp222
sg21
I0
sba(iArchitecture
Entity
p223
(dp224
g11
(lp225
sg13
S'android.widget.RemoteViewsAdapter$3'
p226
sg15
(lp227
sg17
(lp228
sg19
(lp229
sg21
I0
sba(iArchitecture
Entity
p230
(dp231
g11
(lp232
sg13
S'android.widget.RemoteViewsAdapter$4'
p233
sg15
(lp234
sg17
(lp235
sg19
(lp236
sg21
I0
sba(iArchitecture
Entity
p237
(dp238
g11
(lp239
sg13
S'android.widget.RemoteViewsAdapter$5'
p240
sg15
(lp241
sg17
(lp242
sg19
(lp243
sg21
I0
sba(iArchitecture
Entity
p244
(dp245
g11
(lp246
sg13
S'android.widget.RemoteViewsAdapter$6'
p247
sg15
(lp248
sg17
(lp249
sg19
(lp250
sg21
I0
sba(iArchitecture
Entity
p251
(dp252
g11
(lp253
sg13
S'android.widget.RemoteViewsAdapter$FixedSizeRemoteViewsCache'
p254
sg15
(lp255
sg17
(lp256
sg19
(lp257
sg21
I0
sba(iArchitecture
Entity
p258
(dp259
g11
(lp260
sg13
S'android.widget.RemoteViewsAdapter$RemoteAdapterConnectionCallback'
p261
sg15
(lp262
sg17
(lp263
sg19
(lp264
sg21
I0
sba(iArchitecture
Entity
p265
(dp266
g11
(lp267
sg13
S'android.widget.RemoteViewsAdapter$RemoteViewsAdapterServiceConnection'
p268
sg15
(lp269
sg17
(lp270
sg19
(lp271
sg21
I0
sba(iArchitecture
Entity
p272
(dp273
g11
(lp274
sg13
S'android.widget.RemoteViewsAdapter$RemoteViewsAdapterServiceConnection$1'
p275
sg15
(lp276
sg17
(lp277
sg19
(lp278
sg21
I0
sba(iArchitecture
Entity
p279
(dp280
g11
(lp281
sg13
S'android.widget.RemoteViewsAdapter$RemoteViewsAdapterServiceConnection$1$1'
p282
sg15
(lp283
sg17
(lp284
sg19
(lp285
sg21
I0
sba(iArchitecture
Entity
p286
(dp287
g11
(lp288
sg13
S'android.widget.RemoteViewsAdapter$RemoteViewsAdapterServiceConnection$2'
p289
sg15
(lp290
sg17
(lp291
sg19
(lp292
sg21
I0
sba(iArchitecture
Entity
p293
(dp294
g11
(lp295
sg13
S'android.widget.RemoteViewsAdapter$RemoteViewsCacheKey'
p296
sg15
(lp297
sg17
(lp298
sg19
(lp299
sg21
I0
sba(iArchitecture
Entity
p300
(dp301
g11
(lp302
sg13
S'android.widget.RemoteViewsAdapter$RemoteViewsFrameLayout'
p303
sg15
(lp304
sg17
(lp305
sg19
(lp306
sg21
I0
sba(iArchitecture
Entity
p307
(dp308
g11
(lp309
sg13
S'android.widget.RemoteViewsAdapter$RemoteViewsFrameLayoutRefSet'
p310
sg15
(lp311
sg17
(lp312
sg19
(lp313
sg21
I0
sba(iArchitecture
Entity
p314
(dp315
g11
(lp316
sg13
S'android.widget.RemoteViewsAdapter$RemoteViewsIndexMetaData'
p317
sg15
(lp318
sg17
(lp319
sg19
(lp320
sg21
I0
sba(iArchitecture
Entity
p321
(dp322
g11
(lp323
sg13
S'android.widget.RemoteViewsAdapter$RemoteViewsMetaData'
p324
sg15
(lp325
sg17
(lp326
sg19
(lp327
sg21
I0
sbasg57
(lp328
g149
ag156
ag163
ag170
ag177
ag184
ag191
ag198
ag205
ag212
ag219
ag226
ag233
ag240
ag247
ag254
ag261
ag268
ag275
ag282
ag289
ag296
ag303
ag310
ag317
ag324
asg21
I0
sg59
S'1280'
p329
sba(iArchitecture
Cluster
p330
(dp331
g7
(lp332
(iArchitecture
Entity
p333
(dp334
g11
(lp335
sg13
S'android.app.UiAutomationConnection'
p336
sg15
(lp337
sg17
(lp338
sg19
(lp339
sg21
I0
sba(iArchitecture
Entity
p340
(dp341
g11
(lp342
sg13
S'android.app.UiAutomationConnection$1'
p343
sg15
(lp344
sg17
(lp345
sg19
(lp346
sg21
I0
sba(iArchitecture
Entity
p347
(dp348
g11
(lp349
sg13
S'com.android.internal.widget.DecorCaptionView'
p350
sg15
(lp351
sg17
(lp352
sg19
(lp353
sg21
I0
sbasg57
(lp354
g336
ag343
ag350
asg21
I0
sg59
S'1380'
p355
sba(iArchitecture
Cluster
p356
(dp357
g7
(lp358
(iArchitecture
Entity
p359
(dp360
g11
(lp361
sg13
S'com.android.server.backup.AccountSyncSettingsBackupHelper'
p362
sg15
(lp363
sg17
(lp364
sg19
(lp365
sg21
I0
sbasg57
(lp366
g362
asg21
I0
sg59
S'180'
p367
sba(iArchitecture
Cluster
p368
(dp369
g7
(lp370
(iArchitecture
Entity
p371
(dp372
g11
(lp373
sg13
S'com.android.server.wm.WindowLayersController'
p374
sg15
(lp375
sg17
(lp376
sg19
(lp377
sg21
I0
sbasg57
(lp378
g374
asg21
I0
sg59
S'280'
p379
sba(iArchitecture
Cluster
p380
(dp381
g7
(lp382
(iArchitecture
Entity
p383
(dp384
g11
(lp385
sg13
S'android.view.TouchDelegate'
p386
sg15
(lp387
sg17
(lp388
sg19
(lp389
sg21
I0
sbasg57
(lp390
g386
asg21
I0
sg59
S'380'
p391
sba(iArchitecture
Cluster
p392
(dp393
g7
(lp394
(iArchitecture
Entity
p395
(dp396
g11
(lp397
sg13
S'android.filterfw.core.NativeProgram'
p398
sg15
(lp399
sg17
(lp400
sg19
(lp401
sg21
I0
sbasg57
(lp402
g398
asg21
I0
sg59
S'480'
p403
sba(iArchitecture
Cluster
p404
(dp405
g7
(lp406
(iArchitecture
Entity
p407
(dp408
g11
(lp409
sg13
S'android.media.VolumePolicy'
p410
sg15
(lp411
sg17
(lp412
sg19
(lp413
sg21
I0
sba(iArchitecture
Entity
p414
(dp415
g11
(lp416
sg13
S'android.media.VolumePolicy$1'
p417
sg15
(lp418
sg17
(lp419
sg19
(lp420
sg21
I0
sbasg57
(lp421
g410
ag417
asg21
I0
sg59
S'580'
p422
sba(iArchitecture
Cluster
p423
(dp424
g7
(lp425
(iArchitecture
Entity
p426
(dp427
g11
(lp428
sg13
S'android.opengl.ETC1Util'
p429
sg15
(lp430
sg17
(lp431
sg19
(lp432
sg21
I0
sba(iArchitecture
Entity
p433
(dp434
g11
(lp435
sg13
S'android.opengl.ETC1Util$ETC1Texture'
p436
sg15
(lp437
sg17
(lp438
sg19
(lp439
sg21
I0
sbasg57
(lp440
g429
ag436
asg21
I0
sg59
S'680'
p441
sba(iArchitecture
Cluster
p442
(dp443
g7
(lp444
(iArchitecture
Entity
p445
(dp446
g11
(lp447
sg13
S'android.app.IntentService'
p448
sg15
(lp449
sg17
(lp450
sg19
(lp451
sg21
I0
sba(iArchitecture
Entity
p452
(dp453
g11
(lp454
sg13
S'android.app.IntentService$ServiceHandler'
p455
sg15
(lp456
sg17
(lp457
sg19
(lp458
sg21
I0
sbasg57
(lp459
g448
ag455
asg21
I0
sg59
S'780'
p460
sba(iArchitecture
Cluster
p461
(dp462
g7
(lp463
(iArchitecture
Entity
p464
(dp465
g11
(lp466
sg13
S'android.transition.TransitionInflater'
p467
sg15
(lp468
sg17
(lp469
sg19
(lp470
sg21
I0
sbasg57
(lp471
g467
asg21
I0
sg59
S'80'
p472
sba(iArchitecture
Cluster
p473
(dp474
g7
(lp475
(iArchitecture
Entity
p476
(dp477
g11
(lp478
sg13
S'android.content.pm.Signature'
p479
sg15
(lp480
sg17
(lp481
sg19
(lp482
sg21
I0
sba(iArchitecture
Entity
p483
(dp484
g11
(lp485
sg13
S'android.content.pm.Signature$1'
p486
sg15
(lp487
sg17
(lp488
sg19
(lp489
sg21
I0
sbasg57
(lp490
g479
ag486
asg21
I0
sg59
S'800'
p491
sba(iArchitecture
Cluster
p492
(dp493
g7
(lp494
(iArchitecture
Entity
p495
(dp496
g11
(lp497
sg13
S'com.android.internal.os.LoggingPrintStream'
p498
sg15
(lp499
sg17
(lp500
sg19
(lp501
sg21
I0
sba(iArchitecture
Entity
p502
(dp503
g11
(lp504
sg13
S'com.android.internal.os.LoggingPrintStream$1'
p505
sg15
(lp506
sg17
(lp507
sg19
(lp508
sg21
I0
sbasg57
(lp509
g498
ag505
asg21
I0
sg59
S'801'
p510
sba(iArchitecture
Cluster
p511
(dp512
g7
(lp513
(iArchitecture
Entity
p514
(dp515
g11
(lp516
sg13
S'android.os.storage.StorageVolume'
p517
sg15
(lp518
sg17
(lp519
sg19
(lp520
sg21
I0
sba(iArchitecture
Entity
p521
(dp522
g11
(lp523
sg13
S'android.os.storage.StorageVolume$1'
p524
sg15
(lp525
sg17
(lp526
sg19
(lp527
sg21
I0
sbasg57
(lp528
g517
ag524
asg21
I0
sg59
S'802'
p529
sba(iArchitecture
Cluster
p530
(dp531
g7
(lp532
(iArchitecture
Entity
p533
(dp534
g11
(lp535
sg13
S'android.hardware.usb.UsbPortStatus'
p536
sg15
(lp537
sg17
(lp538
sg19
(lp539
sg21
I0
sba(iArchitecture
Entity
p540
(dp541
g11
(lp542
sg13
S'android.hardware.usb.UsbPortStatus$1'
p543
sg15
(lp544
sg17
(lp545
sg19
(lp546
sg21
I0
sbasg57
(lp547
g536
ag543
asg21
I0
sg59
S'803'
p548
sba(iArchitecture
Cluster
p549
(dp550
g7
(lp551
(iArchitecture
Entity
p552
(dp553
g11
(lp554
sg13
S'android.graphics.drawable.TransitionDrawable'
p555
sg15
(lp556
sg17
(lp557
sg19
(lp558
sg21
I0
sba(iArchitecture
Entity
p559
(dp560
g11
(lp561
sg13
S'android.graphics.drawable.TransitionDrawable$TransitionState'
p562
sg15
(lp563
sg17
(lp564
sg19
(lp565
sg21
I0
sbasg57
(lp566
g555
ag562
asg21
I0
sg59
S'804'
p567
sba(iArchitecture
Cluster
p568
(dp569
g7
(lp570
(iArchitecture
Entity
p571
(dp572
g11
(lp573
sg13
S'android.filterpacks.videosink.MediaEncoderFilter'
p574
sg15
(lp575
sg17
(lp576
sg19
(lp577
sg21
I0
sba(iArchitecture
Entity
p578
(dp579
g11
(lp580
sg13
S'android.filterpacks.videosink.MediaEncoderFilter$OnRecordingDoneListener'
p581
sg15
(lp582
sg17
(lp583
sg19
(lp584
sg21
I0
sbasg57
(lp585
g574
ag581
asg21
I0
sg59
S'805'
p586
sba(iArchitecture
Cluster
p587
(dp588
g7
(lp589
(iArchitecture
Entity
p590
(dp591
g11
(lp592
sg13
S'com.android.internal.os.BatterySipper'
p593
sg15
(lp594
sg17
(lp595
sg19
(lp596
sg21
I0
sba(iArchitecture
Entity
p597
(dp598
g11
(lp599
sg13
S'com.android.internal.os.BatterySipper$DrainType'
p600
sg15
(lp601
sg17
(lp602
sg19
(lp603
sg21
I0
sbasg57
(lp604
g593
ag600
asg21
I0
sg59
S'806'
p605
sba(iArchitecture
Cluster
p606
(dp607
g7
(lp608
(iArchitecture
Entity
p609
(dp610
g11
(lp611
sg13
S'android.service.carrier.CarrierIdentifier'
p612
sg15
(lp613
sg17
(lp614
sg19
(lp615
sg21
I0
sba(iArchitecture
Entity
p616
(dp617
g11
(lp618
sg13
S'android.service.carrier.CarrierIdentifier$1'
p619
sg15
(lp620
sg17
(lp621
sg19
(lp622
sg21
I0
sbasg57
(lp623
g612
ag619
asg21
I0
sg59
S'807'
p624
sba(iArchitecture
Cluster
p625
(dp626
g7
(lp627
(iArchitecture
Entity
p628
(dp629
g11
(lp630
sg13
S'com.android.server.wm.TaskTapPointerEventListener'
p631
sg15
(lp632
sg17
(lp633
sg19
(lp634
sg21
I0
sba(iArchitecture
Entity
p635
(dp636
g11
(lp637
sg13
S'com.android.server.wm.TaskTapPointerEventListener$TwoFingerScrollListener'
p638
sg15
(lp639
sg17
(lp640
sg19
(lp641
sg21
I0
sbasg57
(lp642
g631
ag638
asg21
I0
sg59
S'808'
p643
sba(iArchitecture
Cluster
p644
(dp645
g7
(lp646
(iArchitecture
Entity
p647
(dp648
g11
(lp649
sg13
S'android.bluetooth.OobData'
p650
sg15
(lp651
sg17
(lp652
sg19
(lp653
sg21
I0
sba(iArchitecture
Entity
p654
(dp655
g11
(lp656
sg13
S'android.bluetooth.OobData$1'
p657
sg15
(lp658
sg17
(lp659
sg19
(lp660
sg21
I0
sbasg57
(lp661
g650
ag657
asg21
I0
sg59
S'809'
p662
sba(iArchitecture
Cluster
p663
(dp664
g7
(lp665
(iArchitecture
Entity
p666
(dp667
g11
(lp668
sg13
S'com.android.server.usb.UsbAlsaManager'
p669
sg15
(lp670
sg17
(lp671
sg19
(lp672
sg21
I0
sba(iArchitecture
Entity
p673
(dp674
g11
(lp675
sg13
S'com.android.server.usb.UsbAlsaManager$1'
p676
sg15
(lp677
sg17
(lp678
sg19
(lp679
sg21
I0
sba(iArchitecture
Entity
p680
(dp681
g11
(lp682
sg13
S'com.android.server.usb.UsbAlsaManager$AlsaDevice'
p683
sg15
(lp684
sg17
(lp685
sg19
(lp686
sg21
I0
sbasg57
(lp687
g669
ag676
ag683
asg21
I0
sg59
S'880'
p688
sba(iArchitecture
Cluster
p689
(dp690
g7
(lp691
(iArchitecture
Entity
p692
(dp693
g11
(lp694
sg13
S'android.hardware.camera2.impl.CallbackProxies'
p695
sg15
(lp696
sg17
(lp697
sg19
(lp698
sg21
I0
sba(iArchitecture
Entity
p699
(dp700
g11
(lp701
sg13
S'android.hardware.camera2.impl.CallbackProxies$DeviceCaptureCallbackProxy'
p702
sg15
(lp703
sg17
(lp704
sg19
(lp705
sg21
I0
sba(iArchitecture
Entity
p706
(dp707
g11
(lp708
sg13
S'android.hardware.camera2.impl.CallbackProxies$DeviceStateCallbackProxy'
p709
sg15
(lp710
sg17
(lp711
sg19
(lp712
sg21
I0
sba(iArchitecture
Entity
p713
(dp714
g11
(lp715
sg13
S'android.hardware.camera2.impl.CallbackProxies$SessionStateCallbackProxy'
p716
sg15
(lp717
sg17
(lp718
sg19
(lp719
sg21
I0
sbasg57
(lp720
g695
ag702
ag709
ag716
asg21
I0
sg59
S'980'
p721
sbasS'target_sub'
p722
S'80'
p723
sg57
(lp724
sS'is_component_arch'
p725
I01
sg59
S'7.0.0_r1'
p726
sba.