(lp0
(iArchitecture
Architecture
p1
(dp2
S'clusters'
p3
(lp4
(iArchitecture
Cluster
p5
(dp6
S'entities'
p7
(lp8
(iArchitecture
Entity
p9
(dp10
S'issue_ids'
p11
(lp12
sS'name'
p13
S'com.android.internal.transition.EpicenterTranslateClipReveal'
p14
sS'descs'
p15
(lp16
sS'labels'
p17
(lp18
sS'titles'
p19
(lp20
sS'change'
p21
I0
sba(iArchitecture
Entity
p22
(dp23
g11
(lp24
sg13
S'com.android.internal.transition.EpicenterTranslateClipReveal$1'
p25
sg15
(lp26
sg17
(lp27
sg19
(lp28
sg21
I0
sba(iArchitecture
Entity
p29
(dp30
g11
(lp31
sg13
S'com.android.internal.transition.EpicenterTranslateClipReveal$State'
p32
sg15
(lp33
sg17
(lp34
sg19
(lp35
sg21
I0
sba(iArchitecture
Entity
p36
(dp37
g11
(lp38
sg13
S'com.android.internal.transition.EpicenterTranslateClipReveal$StateEvaluator'
p39
sg15
(lp40
sg17
(lp41
sg19
(lp42
sg21
I0
sba(iArchitecture
Entity
p43
(dp44
g11
(lp45
sg13
S'com.android.internal.transition.EpicenterTranslateClipReveal$StateProperty'
p46
sg15
(lp47
sg17
(lp48
sg19
(lp49
sg21
I0
sbasS'classes'
p50
(lp51
g14
ag25
ag32
ag39
ag46
asg21
I0
sS'label'
p52
S'1065'
p53
sba(iArchitecture
Cluster
p54
(dp55
g7
(lp56
(iArchitecture
Entity
p57
(dp58
g11
(lp59
sg13
S'com.android.server.accessibility.AccessibilityInputFilter'
p60
sg15
(lp61
sg17
(lp62
sg19
(lp63
sg21
I0
sba(iArchitecture
Entity
p64
(dp65
g11
(lp66
sg13
S'com.android.server.accessibility.AccessibilityInputFilter$1'
p67
sg15
(lp68
sg17
(lp69
sg19
(lp70
sg21
I0
sba(iArchitecture
Entity
p71
(dp72
g11
(lp73
sg13
S'com.android.server.accessibility.AccessibilityInputFilter$EventStreamState'
p74
sg15
(lp75
sg17
(lp76
sg19
(lp77
sg21
I0
sba(iArchitecture
Entity
p78
(dp79
g11
(lp80
sg13
S'com.android.server.accessibility.AccessibilityInputFilter$KeyboardEventStreamState'
p81
sg15
(lp82
sg17
(lp83
sg19
(lp84
sg21
I0
sba(iArchitecture
Entity
p85
(dp86
g11
(lp87
sg13
S'com.android.server.accessibility.AccessibilityInputFilter$MotionEventHolder'
p88
sg15
(lp89
sg17
(lp90
sg19
(lp91
sg21
I0
sba(iArchitecture
Entity
p92
(dp93
g11
(lp94
sg13
S'com.android.server.accessibility.AccessibilityInputFilter$MouseEventStreamState'
p95
sg15
(lp96
sg17
(lp97
sg19
(lp98
sg21
I0
sba(iArchitecture
Entity
p99
(dp100
g11
(lp101
sg13
S'com.android.server.accessibility.AccessibilityInputFilter$TouchScreenEventStreamState'
p102
sg15
(lp103
sg17
(lp104
sg19
(lp105
sg21
I0
sbasg50
(lp106
g60
ag67
ag74
ag81
ag88
ag95
ag102
asg21
I0
sg52
S'1165'
p107
sba(iArchitecture
Cluster
p108
(dp109
g7
(lp110
(iArchitecture
Entity
p111
(dp112
g11
(lp113
sg13
S'android.media.AudioDevicePortConfig'
p114
sg15
(lp115
sg17
(lp116
sg19
(lp117
sg21
I0
sba(iArchitecture
Entity
p118
(dp119
g11
(lp120
sg13
S'android.media.AudioMixPort'
p121
sg15
(lp122
sg17
(lp123
sg19
(lp124
sg21
I0
sba(iArchitecture
Entity
p125
(dp126
g11
(lp127
sg13
S'android.media.AudioMixPortConfig'
p128
sg15
(lp129
sg17
(lp130
sg19
(lp131
sg21
I0
sba(iArchitecture
Entity
p132
(dp133
g11
(lp134
sg13
S'android.media.AudioPortConfig'
p135
sg15
(lp136
sg17
(lp137
sg19
(lp138
sg21
I0
sbasg50
(lp139
g114
ag121
ag128
ag135
asg21
I0
sg52
S'1265'
p140
sba(iArchitecture
Cluster
p141
(dp142
g7
(lp143
(iArchitecture
Entity
p144
(dp145
g11
(lp146
sg13
S'android.telecom.InCallService'
p147
sg15
(lp148
sg17
(lp149
sg19
(lp150
sg21
I0
sba(iArchitecture
Entity
p151
(dp152
g11
(lp153
sg13
S'android.telecom.InCallService$1'
p154
sg15
(lp155
sg17
(lp156
sg19
(lp157
sg21
I0
sba(iArchitecture
Entity
p158
(dp159
g11
(lp160
sg13
S'android.telecom.InCallService$2'
p161
sg15
(lp162
sg17
(lp163
sg19
(lp164
sg21
I0
sba(iArchitecture
Entity
p165
(dp166
g11
(lp167
sg13
S'android.telecom.InCallService$InCallServiceBinder'
p168
sg15
(lp169
sg17
(lp170
sg19
(lp171
sg21
I0
sba(iArchitecture
Entity
p172
(dp173
g11
(lp174
sg13
S'android.telecom.InCallService$VideoCall'
p175
sg15
(lp176
sg17
(lp177
sg19
(lp178
sg21
I0
sba(iArchitecture
Entity
p179
(dp180
g11
(lp181
sg13
S'android.telecom.InCallService$VideoCall$Callback'
p182
sg15
(lp183
sg17
(lp184
sg19
(lp185
sg21
I0
sba(iArchitecture
Entity
p186
(dp187
g11
(lp188
sg13
S'android.telecom.VideoCallImpl'
p189
sg15
(lp190
sg17
(lp191
sg19
(lp192
sg21
I0
sba(iArchitecture
Entity
p193
(dp194
g11
(lp195
sg13
S'android.telecom.VideoCallImpl$1'
p196
sg15
(lp197
sg17
(lp198
sg19
(lp199
sg21
I0
sba(iArchitecture
Entity
p200
(dp201
g11
(lp202
sg13
S'android.telecom.VideoCallImpl$MessageHandler'
p203
sg15
(lp204
sg17
(lp205
sg19
(lp206
sg21
I0
sba(iArchitecture
Entity
p207
(dp208
g11
(lp209
sg13
S'android.telecom.VideoCallImpl$VideoCallListenerBinder'
p210
sg15
(lp211
sg17
(lp212
sg19
(lp213
sg21
I0
sbasg50
(lp214
g147
ag154
ag161
ag168
ag175
ag182
ag189
ag196
ag203
ag210
asg21
I0
sg52
S'1365'
p215
sba(iArchitecture
Cluster
p216
(dp217
g7
(lp218
(iArchitecture
Entity
p219
(dp220
g11
(lp221
sg13
S'android.webkit.UrlInterceptHandler'
p222
sg15
(lp223
sg17
(lp224
sg19
(lp225
sg21
I0
sbasg50
(lp226
g222
asg21
I0
sg52
S'165'
p227
sba(iArchitecture
Cluster
p228
(dp229
g7
(lp230
(iArchitecture
Entity
p231
(dp232
g11
(lp233
sg13
S'android.os.storage.StorageResultCode'
p234
sg15
(lp235
sg17
(lp236
sg19
(lp237
sg21
I0
sbasg50
(lp238
g234
asg21
I0
sg52
S'265'
p239
sba(iArchitecture
Cluster
p240
(dp241
g7
(lp242
(iArchitecture
Entity
p243
(dp244
g11
(lp245
sg13
S'android.test.AndroidTestCase'
p246
sg15
(lp247
sg17
(lp248
sg19
(lp249
sg21
I0
sbasg50
(lp250
g246
asg21
I0
sg52
S'365'
p251
sba(iArchitecture
Cluster
p252
(dp253
g7
(lp254
(iArchitecture
Entity
p255
(dp256
g11
(lp257
sg13
S'android.test.InstrumentationTestSuite'
p258
sg15
(lp259
sg17
(lp260
sg19
(lp261
sg21
I0
sbasg50
(lp262
g258
asg21
I0
sg52
S'465'
p263
sba(iArchitecture
Cluster
p264
(dp265
g7
(lp266
(iArchitecture
Entity
p267
(dp268
g11
(lp269
sg13
S'android.media.AudioManagerInternal'
p270
sg15
(lp271
sg17
(lp272
sg19
(lp273
sg21
I0
sba(iArchitecture
Entity
p274
(dp275
g11
(lp276
sg13
S'android.media.AudioManagerInternal$RingerModeDelegate'
p277
sg15
(lp278
sg17
(lp279
sg19
(lp280
sg21
I0
sbasg50
(lp281
g270
ag277
asg21
I0
sg52
S'565'
p282
sba(iArchitecture
Cluster
p283
(dp284
g7
(lp285
(iArchitecture
Entity
p286
(dp287
g11
(lp288
sg13
S'com.android.server.am.ActivityMetricsLogger'
p289
sg15
(lp290
sg17
(lp291
sg19
(lp292
sg21
I0
sbasg50
(lp293
g289
asg21
I0
sg52
S'65'
p294
sba(iArchitecture
Cluster
p295
(dp296
g7
(lp297
(iArchitecture
Entity
p298
(dp299
g11
(lp300
sg13
S'com.android.server.notification.ZenModeFiltering'
p301
sg15
(lp302
sg17
(lp303
sg19
(lp304
sg21
I0
sba(iArchitecture
Entity
p305
(dp306
g11
(lp307
sg13
S'com.android.server.notification.ZenModeFiltering$RepeatCallers'
p308
sg15
(lp309
sg17
(lp310
sg19
(lp311
sg21
I0
sbasg50
(lp312
g301
ag308
asg21
I0
sg52
S'650'
p313
sba(iArchitecture
Cluster
p314
(dp315
g7
(lp316
(iArchitecture
Entity
p317
(dp318
g11
(lp319
sg13
S'android.media.tv.ITvInputSessionWrapper'
p320
sg15
(lp321
sg17
(lp322
sg19
(lp323
sg21
I0
sba(iArchitecture
Entity
p324
(dp325
g11
(lp326
sg13
S'android.media.tv.ITvInputSessionWrapper$TvInputEventReceiver'
p327
sg15
(lp328
sg17
(lp329
sg19
(lp330
sg21
I0
sbasg50
(lp331
g320
ag327
asg21
I0
sg52
S'651'
p332
sba(iArchitecture
Cluster
p333
(dp334
g7
(lp335
(iArchitecture
Entity
p336
(dp337
g11
(lp338
sg13
S'android.os.LocaleList'
p339
sg15
(lp340
sg17
(lp341
sg19
(lp342
sg21
I0
sba(iArchitecture
Entity
p343
(dp344
g11
(lp345
sg13
S'android.os.LocaleList$1'
p346
sg15
(lp347
sg17
(lp348
sg19
(lp349
sg21
I0
sbasg50
(lp350
g339
ag346
asg21
I0
sg52
S'652'
p351
sba(iArchitecture
Cluster
p352
(dp353
g7
(lp354
(iArchitecture
Entity
p355
(dp356
g11
(lp357
sg13
S'com.android.ims.internal.uce.uceservice.ImsUceManager'
p358
sg15
(lp359
sg17
(lp360
sg19
(lp361
sg21
I0
sba(iArchitecture
Entity
p362
(dp363
g11
(lp364
sg13
S'com.android.ims.internal.uce.uceservice.ImsUceManager$UceServiceDeathRecipient'
p365
sg15
(lp366
sg17
(lp367
sg19
(lp368
sg21
I0
sbasg50
(lp369
g358
ag365
asg21
I0
sg52
S'653'
p370
sba(iArchitecture
Cluster
p371
(dp372
g7
(lp373
(iArchitecture
Entity
p374
(dp375
g11
(lp376
sg13
S'android.hardware.usb.UsbPort'
p377
sg15
(lp378
sg17
(lp379
sg19
(lp380
sg21
I0
sba(iArchitecture
Entity
p381
(dp382
g11
(lp383
sg13
S'android.hardware.usb.UsbPort$1'
p384
sg15
(lp385
sg17
(lp386
sg19
(lp387
sg21
I0
sbasg50
(lp388
g377
ag384
asg21
I0
sg52
S'654'
p389
sba(iArchitecture
Cluster
p390
(dp391
g7
(lp392
(iArchitecture
Entity
p393
(dp394
g11
(lp395
sg13
S'android.telecom.Log'
p396
sg15
(lp397
sg17
(lp398
sg19
(lp399
sg21
I0
sba(iArchitecture
Entity
p400
(dp401
g11
(lp402
sg13
S'android.telecom.Log$1'
p403
sg15
(lp404
sg17
(lp405
sg19
(lp406
sg21
I0
sbasg50
(lp407
g396
ag403
asg21
I0
sg52
S'655'
p408
sba(iArchitecture
Cluster
p409
(dp410
g7
(lp411
(iArchitecture
Entity
p412
(dp413
g11
(lp414
sg13
S'android.opengl.GLLogWrapper'
p415
sg15
(lp416
sg17
(lp417
sg19
(lp418
sg21
I0
sba(iArchitecture
Entity
p419
(dp420
g11
(lp421
sg13
S'android.opengl.GLLogWrapper$PointerInfo'
p422
sg15
(lp423
sg17
(lp424
sg19
(lp425
sg21
I0
sbasg50
(lp426
g415
ag422
asg21
I0
sg52
S'656'
p427
sba(iArchitecture
Cluster
p428
(dp429
g7
(lp430
(iArchitecture
Entity
p431
(dp432
g11
(lp433
sg13
S'android.telephony.NeighboringCellInfo'
p434
sg15
(lp435
sg17
(lp436
sg19
(lp437
sg21
I0
sba(iArchitecture
Entity
p438
(dp439
g11
(lp440
sg13
S'android.telephony.NeighboringCellInfo$1'
p441
sg15
(lp442
sg17
(lp443
sg19
(lp444
sg21
I0
sbasg50
(lp445
g434
ag441
asg21
I0
sg52
S'657'
p446
sba(iArchitecture
Cluster
p447
(dp448
g7
(lp449
(iArchitecture
Entity
p450
(dp451
g11
(lp452
sg13
S'android.util.PathParser'
p453
sg15
(lp454
sg17
(lp455
sg19
(lp456
sg21
I0
sba(iArchitecture
Entity
p457
(dp458
g11
(lp459
sg13
S'android.util.PathParser$PathData'
p460
sg15
(lp461
sg17
(lp462
sg19
(lp463
sg21
I0
sbasg50
(lp464
g453
ag460
asg21
I0
sg52
S'658'
p465
sba(iArchitecture
Cluster
p466
(dp467
g7
(lp468
(iArchitecture
Entity
p469
(dp470
g11
(lp471
sg13
S'com.android.server.net.NetworkPinner'
p472
sg15
(lp473
sg17
(lp474
sg19
(lp475
sg21
I0
sba(iArchitecture
Entity
p476
(dp477
g11
(lp478
sg13
S'com.android.server.net.NetworkPinner$Callback'
p479
sg15
(lp480
sg17
(lp481
sg19
(lp482
sg21
I0
sbasg50
(lp483
g472
ag479
asg21
I0
sg52
S'659'
p484
sba(iArchitecture
Cluster
p485
(dp486
g7
(lp487
(iArchitecture
Entity
p488
(dp489
g11
(lp490
sg13
S'android.view.animation.GridLayoutAnimationController'
p491
sg15
(lp492
sg17
(lp493
sg19
(lp494
sg21
I0
sba(iArchitecture
Entity
p495
(dp496
g11
(lp497
sg13
S'android.view.animation.GridLayoutAnimationController$AnimationParameters'
p498
sg15
(lp499
sg17
(lp500
sg19
(lp501
sg21
I0
sbasg50
(lp502
g491
ag498
asg21
I0
sg52
S'665'
p503
sba(iArchitecture
Cluster
p504
(dp505
g7
(lp506
(iArchitecture
Entity
p507
(dp508
g11
(lp509
sg13
S'android.telephony.CellIdentityLte'
p510
sg15
(lp511
sg17
(lp512
sg19
(lp513
sg21
I0
sba(iArchitecture
Entity
p514
(dp515
g11
(lp516
sg13
S'android.telephony.CellIdentityLte$1'
p517
sg15
(lp518
sg17
(lp519
sg19
(lp520
sg21
I0
sbasg50
(lp521
g510
ag517
asg21
I0
sg52
S'765'
p522
sba(iArchitecture
Cluster
p523
(dp524
g7
(lp525
(iArchitecture
Entity
p526
(dp527
g11
(lp528
sg13
S'android.telecom.Conference'
p529
sg15
(lp530
sg17
(lp531
sg19
(lp532
sg21
I0
sba(iArchitecture
Entity
p533
(dp534
g11
(lp535
sg13
S'android.telecom.Conference$1'
p536
sg15
(lp537
sg17
(lp538
sg19
(lp539
sg21
I0
sba(iArchitecture
Entity
p540
(dp541
g11
(lp542
sg13
S'android.telecom.Conference$Listener'
p543
sg15
(lp544
sg17
(lp545
sg19
(lp546
sg21
I0
sbasg50
(lp547
g529
ag536
ag543
asg21
I0
sg52
S'865'
p548
sba(iArchitecture
Cluster
p549
(dp550
g7
(lp551
(iArchitecture
Entity
p552
(dp553
g11
(lp554
sg13
S'com.android.internal.app.NetInitiatedActivity'
p555
sg15
(lp556
sg17
(lp557
sg19
(lp558
sg21
I0
sba(iArchitecture
Entity
p559
(dp560
g11
(lp561
sg13
S'com.android.internal.app.NetInitiatedActivity$1'
p562
sg15
(lp563
sg17
(lp564
sg19
(lp565
sg21
I0
sba(iArchitecture
Entity
p566
(dp567
g11
(lp568
sg13
S'com.android.internal.app.NetInitiatedActivity$2'
p569
sg15
(lp570
sg17
(lp571
sg19
(lp572
sg21
I0
sbasg50
(lp573
g555
ag562
ag569
asg21
I0
sg52
S'965'
p574
sbasS'target_sub'
p575
S'65'
p576
sg50
(lp577
sS'is_component_arch'
p578
I01
sg52
S'7.0.0_r1'
p579
sba.