(lp0
(iArchitecture
Architecture
p1
(dp2
S'clusters'
p3
(lp4
(iArchitecture
Cluster
p5
(dp6
S'entities'
p7
(lp8
(iArchitecture
Entity
p9
(dp10
S'issue_ids'
p11
(lp12
sS'name'
p13
S'com.android.server.display.DisplayPowerState'
p14
sS'descs'
p15
(lp16
sS'labels'
p17
(lp18
sS'titles'
p19
(lp20
sS'change'
p21
I0
sba(iArchitecture
Entity
p22
(dp23
g11
(lp24
sg13
S'com.android.server.display.DisplayPowerState$1'
p25
sg15
(lp26
sg17
(lp27
sg19
(lp28
sg21
I0
sba(iArchitecture
Entity
p29
(dp30
g11
(lp31
sg13
S'com.android.server.display.DisplayPowerState$2'
p32
sg15
(lp33
sg17
(lp34
sg19
(lp35
sg21
I0
sba(iArchitecture
Entity
p36
(dp37
g11
(lp38
sg13
S'com.android.server.display.DisplayPowerState$3'
p39
sg15
(lp40
sg17
(lp41
sg19
(lp42
sg21
I0
sba(iArchitecture
Entity
p43
(dp44
g11
(lp45
sg13
S'com.android.server.display.DisplayPowerState$4'
p46
sg15
(lp47
sg17
(lp48
sg19
(lp49
sg21
I0
sba(iArchitecture
Entity
p50
(dp51
g11
(lp52
sg13
S'com.android.server.display.DisplayPowerState$PhotonicModulator'
p53
sg15
(lp54
sg17
(lp55
sg19
(lp56
sg21
I0
sbasS'classes'
p57
(lp58
g14
ag25
ag32
ag39
ag46
ag53
asg21
I0
sS'label'
p59
S'1082'
p60
sba(iArchitecture
Cluster
p61
(dp62
g7
(lp63
(iArchitecture
Entity
p64
(dp65
g11
(lp66
sg13
S'com.android.server.hdmi.HdmiCecMessageValidator'
p67
sg15
(lp68
sg17
(lp69
sg19
(lp70
sg21
I0
sba(iArchitecture
Entity
p71
(dp72
g11
(lp73
sg13
S'com.android.server.hdmi.HdmiCecMessageValidator$FixedLengthValidator'
p74
sg15
(lp75
sg17
(lp76
sg19
(lp77
sg21
I0
sba(iArchitecture
Entity
p78
(dp79
g11
(lp80
sg13
S'com.android.server.hdmi.HdmiCecMessageValidator$ParameterValidator'
p81
sg15
(lp82
sg17
(lp83
sg19
(lp84
sg21
I0
sba(iArchitecture
Entity
p85
(dp86
g11
(lp87
sg13
S'com.android.server.hdmi.HdmiCecMessageValidator$PhysicalAddressValidator'
p88
sg15
(lp89
sg17
(lp90
sg19
(lp91
sg21
I0
sba(iArchitecture
Entity
p92
(dp93
g11
(lp94
sg13
S'com.android.server.hdmi.HdmiCecMessageValidator$ReportPhysicalAddressValidator'
p95
sg15
(lp96
sg17
(lp97
sg19
(lp98
sg21
I0
sba(iArchitecture
Entity
p99
(dp100
g11
(lp101
sg13
S'com.android.server.hdmi.HdmiCecMessageValidator$RoutingChangeValidator'
p102
sg15
(lp103
sg17
(lp104
sg19
(lp105
sg21
I0
sba(iArchitecture
Entity
p106
(dp107
g11
(lp108
sg13
S'com.android.server.hdmi.HdmiCecMessageValidator$SystemAudioModeRequestValidator'
p109
sg15
(lp110
sg17
(lp111
sg19
(lp112
sg21
I0
sba(iArchitecture
Entity
p113
(dp114
g11
(lp115
sg13
S'com.android.server.hdmi.HdmiCecMessageValidator$ValidationInfo'
p116
sg15
(lp117
sg17
(lp118
sg19
(lp119
sg21
I0
sba(iArchitecture
Entity
p120
(dp121
g11
(lp122
sg13
S'com.android.server.hdmi.HdmiCecMessageValidator$VariableLengthValidator'
p123
sg15
(lp124
sg17
(lp125
sg19
(lp126
sg21
I0
sbasg57
(lp127
g67
ag74
ag81
ag88
ag95
ag102
ag109
ag116
ag123
asg21
I0
sg59
S'1182'
p128
sba(iArchitecture
Cluster
p129
(dp130
g7
(lp131
(iArchitecture
Entity
p132
(dp133
g11
(lp134
sg13
S'android.net.http.X509TrustManagerExtensions'
p135
sg15
(lp136
sg17
(lp137
sg19
(lp138
sg21
I0
sba(iArchitecture
Entity
p139
(dp140
g11
(lp141
sg13
S'android.security.net.config.NetworkSecurityTrustManager'
p142
sg15
(lp143
sg17
(lp144
sg19
(lp145
sg21
I0
sba(iArchitecture
Entity
p146
(dp147
g11
(lp148
sg13
S'android.security.net.config.RootTrustManager'
p149
sg15
(lp150
sg17
(lp151
sg19
(lp152
sg21
I0
sbasg57
(lp153
g135
ag142
ag149
asg21
I0
sg59
S'1282'
p154
sba(iArchitecture
Cluster
p155
(dp156
g7
(lp157
(iArchitecture
Entity
p158
(dp159
g11
(lp160
sg13
S'android.graphics.PorterDuffXfermode'
p161
sg15
(lp162
sg17
(lp163
sg19
(lp164
sg21
I0
sba(iArchitecture
Entity
p165
(dp166
g11
(lp167
sg13
S'android.graphics.drawable.shapes.ArcShape'
p168
sg15
(lp169
sg17
(lp170
sg19
(lp171
sg21
I0
sba(iArchitecture
Entity
p172
(dp173
g11
(lp174
sg13
S'android.graphics.drawable.shapes.OvalShape'
p175
sg15
(lp176
sg17
(lp177
sg19
(lp178
sg21
I0
sba(iArchitecture
Entity
p179
(dp180
g11
(lp181
sg13
S'android.graphics.drawable.shapes.RectShape'
p182
sg15
(lp183
sg17
(lp184
sg19
(lp185
sg21
I0
sba(iArchitecture
Entity
p186
(dp187
g11
(lp188
sg13
S'android.hardware.soundtrigger.KeyphraseMetadata'
p189
sg15
(lp190
sg17
(lp191
sg19
(lp192
sg21
I0
sba(iArchitecture
Entity
p193
(dp194
g11
(lp195
sg13
S'android.view.animation.ClipRectAnimation'
p196
sg15
(lp197
sg17
(lp198
sg19
(lp199
sg21
I0
sba(iArchitecture
Entity
p200
(dp201
g11
(lp202
sg13
S'com.android.internal.app.DisableCarModeActivity'
p203
sg15
(lp204
sg17
(lp205
sg19
(lp206
sg21
I0
sba(iArchitecture
Entity
p207
(dp208
g11
(lp209
sg13
S'com.android.server.BluetoothService'
p210
sg15
(lp211
sg17
(lp212
sg19
(lp213
sg21
I0
sba(iArchitecture
Entity
p214
(dp215
g11
(lp216
sg13
S'com.android.server.appwidget.AppWidgetService'
p217
sg15
(lp218
sg17
(lp219
sg19
(lp220
sg21
I0
sba(iArchitecture
Entity
p221
(dp222
g11
(lp223
sg13
S'com.android.server.wm.animation.ClipRectLRAnimation'
p224
sg15
(lp225
sg17
(lp226
sg19
(lp227
sg21
I0
sbasg57
(lp228
g161
ag168
ag175
ag182
ag189
ag196
ag203
ag210
ag217
ag224
asg21
I0
sg59
S'1382'
p229
sba(iArchitecture
Cluster
p230
(dp231
g7
(lp232
(iArchitecture
Entity
p233
(dp234
g11
(lp235
sg13
S'android.view.DisplayListCanvas'
p236
sg15
(lp237
sg17
(lp238
sg19
(lp239
sg21
I0
sbasg57
(lp240
g236
asg21
I0
sg59
S'182'
p241
sba(iArchitecture
Cluster
p242
(dp243
g7
(lp244
(iArchitecture
Entity
p245
(dp246
g11
(lp247
sg13
S'android.filterpacks.imageproc.AutoFixFilter'
p248
sg15
(lp249
sg17
(lp250
sg19
(lp251
sg21
I0
sbasg57
(lp252
g248
asg21
I0
sg59
S'282'
p253
sba(iArchitecture
Cluster
p254
(dp255
g7
(lp256
(iArchitecture
Entity
p257
(dp258
g11
(lp259
sg13
S'android.media.AudioPort'
p260
sg15
(lp261
sg17
(lp262
sg19
(lp263
sg21
I0
sbasg57
(lp264
g260
asg21
I0
sg59
S'382'
p265
sba(iArchitecture
Cluster
p266
(dp267
g7
(lp268
(iArchitecture
Entity
p269
(dp270
g11
(lp271
sg13
S'android.security.keystore.AndroidKeyStoreKeyFactorySpi'
p272
sg15
(lp273
sg17
(lp274
sg19
(lp275
sg21
I0
sbasg57
(lp276
g272
asg21
I0
sg59
S'482'
p277
sba(iArchitecture
Cluster
p278
(dp279
g7
(lp280
(iArchitecture
Entity
p281
(dp282
g11
(lp283
sg13
S'android.content.PeriodicSync'
p284
sg15
(lp285
sg17
(lp286
sg19
(lp287
sg21
I0
sba(iArchitecture
Entity
p288
(dp289
g11
(lp290
sg13
S'android.content.PeriodicSync$1'
p291
sg15
(lp292
sg17
(lp293
sg19
(lp294
sg21
I0
sbasg57
(lp295
g284
ag291
asg21
I0
sg59
S'582'
p296
sba(iArchitecture
Cluster
p297
(dp298
g7
(lp299
(iArchitecture
Entity
p300
(dp301
g11
(lp302
sg13
S'android.location.GpsClock'
p303
sg15
(lp304
sg17
(lp305
sg19
(lp306
sg21
I0
sba(iArchitecture
Entity
p307
(dp308
g11
(lp309
sg13
S'android.location.GpsClock$1'
p310
sg15
(lp311
sg17
(lp312
sg19
(lp313
sg21
I0
sbasg57
(lp314
g303
ag310
asg21
I0
sg59
S'682'
p315
sba(iArchitecture
Cluster
p316
(dp317
g7
(lp318
(iArchitecture
Entity
p319
(dp320
g11
(lp321
sg13
S'android.hardware.hdmi.HdmiDeviceInfo'
p322
sg15
(lp323
sg17
(lp324
sg19
(lp325
sg21
I0
sba(iArchitecture
Entity
p326
(dp327
g11
(lp328
sg13
S'android.hardware.hdmi.HdmiDeviceInfo$1'
p329
sg15
(lp330
sg17
(lp331
sg19
(lp332
sg21
I0
sbasg57
(lp333
g322
ag329
asg21
I0
sg59
S'782'
p334
sba(iArchitecture
Cluster
p335
(dp336
g7
(lp337
(iArchitecture
Entity
p338
(dp339
g11
(lp340
sg13
S'android.graphics.BitmapRegionDecoder'
p341
sg15
(lp342
sg17
(lp343
sg19
(lp344
sg21
I0
sbasg57
(lp345
g341
asg21
I0
sg59
S'82'
p346
sba(iArchitecture
Cluster
p347
(dp348
g7
(lp349
(iArchitecture
Entity
p350
(dp351
g11
(lp352
sg13
S'android.media.Ringtone'
p353
sg15
(lp354
sg17
(lp355
sg19
(lp356
sg21
I0
sba(iArchitecture
Entity
p357
(dp358
g11
(lp359
sg13
S'android.media.Ringtone$MyOnCompletionListener'
p360
sg15
(lp361
sg17
(lp362
sg19
(lp363
sg21
I0
sbasg57
(lp364
g353
ag360
asg21
I0
sg59
S'820'
p365
sba(iArchitecture
Cluster
p366
(dp367
g7
(lp368
(iArchitecture
Entity
p369
(dp370
g11
(lp371
sg13
S'android.bluetooth.BluetoothGattIncludedService'
p372
sg15
(lp373
sg17
(lp374
sg19
(lp375
sg21
I0
sba(iArchitecture
Entity
p376
(dp377
g11
(lp378
sg13
S'android.bluetooth.BluetoothGattIncludedService$1'
p379
sg15
(lp380
sg17
(lp381
sg19
(lp382
sg21
I0
sbasg57
(lp383
g372
ag379
asg21
I0
sg59
S'821'
p384
sba(iArchitecture
Cluster
p385
(dp386
g7
(lp387
(iArchitecture
Entity
p388
(dp389
g11
(lp390
sg13
S'com.android.server.wm.AppWindowAnimator'
p391
sg15
(lp392
sg17
(lp393
sg19
(lp394
sg21
I0
sba(iArchitecture
Entity
p395
(dp396
g11
(lp397
sg13
S'com.android.server.wm.AppWindowAnimator$DummyAnimation'
p398
sg15
(lp399
sg17
(lp400
sg19
(lp401
sg21
I0
sbasg57
(lp402
g391
ag398
asg21
I0
sg59
S'822'
p403
sba(iArchitecture
Cluster
p404
(dp405
g7
(lp406
(iArchitecture
Entity
p407
(dp408
g11
(lp409
sg13
S'com.android.server.wm.DisplaySettings'
p410
sg15
(lp411
sg17
(lp412
sg19
(lp413
sg21
I0
sba(iArchitecture
Entity
p414
(dp415
g11
(lp416
sg13
S'com.android.server.wm.DisplaySettings$Entry'
p417
sg15
(lp418
sg17
(lp419
sg19
(lp420
sg21
I0
sbasg57
(lp421
g410
ag417
asg21
I0
sg59
S'823'
p422
sba(iArchitecture
Cluster
p423
(dp424
g7
(lp425
(iArchitecture
Entity
p426
(dp427
g11
(lp428
sg13
S'android.view.BatchedInputEventReceiver'
p429
sg15
(lp430
sg17
(lp431
sg19
(lp432
sg21
I0
sba(iArchitecture
Entity
p433
(dp434
g11
(lp435
sg13
S'android.view.BatchedInputEventReceiver$BatchedInputRunnable'
p436
sg15
(lp437
sg17
(lp438
sg19
(lp439
sg21
I0
sbasg57
(lp440
g429
ag436
asg21
I0
sg59
S'824'
p441
sba(iArchitecture
Cluster
p442
(dp443
g7
(lp444
(iArchitecture
Entity
p445
(dp446
g11
(lp447
sg13
S'android.location.LocationRequest'
p448
sg15
(lp449
sg17
(lp450
sg19
(lp451
sg21
I0
sba(iArchitecture
Entity
p452
(dp453
g11
(lp454
sg13
S'android.location.LocationRequest$1'
p455
sg15
(lp456
sg17
(lp457
sg19
(lp458
sg21
I0
sbasg57
(lp459
g448
ag455
asg21
I0
sg59
S'825'
p460
sba(iArchitecture
Cluster
p461
(dp462
g7
(lp463
(iArchitecture
Entity
p464
(dp465
g11
(lp466
sg13
S'android.accounts.ChooseTypeAndAccountActivity'
p467
sg15
(lp468
sg17
(lp469
sg19
(lp470
sg21
I0
sba(iArchitecture
Entity
p471
(dp472
g11
(lp473
sg13
S'android.accounts.ChooseTypeAndAccountActivity$1'
p474
sg15
(lp475
sg17
(lp476
sg19
(lp477
sg21
I0
sbasg57
(lp478
g467
ag474
asg21
I0
sg59
S'826'
p479
sba(iArchitecture
Cluster
p480
(dp481
g7
(lp482
(iArchitecture
Entity
p483
(dp484
g11
(lp485
sg13
S'android.nfc.ApduList'
p486
sg15
(lp487
sg17
(lp488
sg19
(lp489
sg21
I0
sba(iArchitecture
Entity
p490
(dp491
g11
(lp492
sg13
S'android.nfc.ApduList$1'
p493
sg15
(lp494
sg17
(lp495
sg19
(lp496
sg21
I0
sbasg57
(lp497
g486
ag493
asg21
I0
sg59
S'827'
p498
sba(iArchitecture
Cluster
p499
(dp500
g7
(lp501
(iArchitecture
Entity
p502
(dp503
g11
(lp504
sg13
S'android.net.DhcpInfo'
p505
sg15
(lp506
sg17
(lp507
sg19
(lp508
sg21
I0
sba(iArchitecture
Entity
p509
(dp510
g11
(lp511
sg13
S'android.net.DhcpInfo$1'
p512
sg15
(lp513
sg17
(lp514
sg19
(lp515
sg21
I0
sbasg57
(lp516
g505
ag512
asg21
I0
sg59
S'828'
p517
sba(iArchitecture
Cluster
p518
(dp519
g7
(lp520
(iArchitecture
Entity
p521
(dp522
g11
(lp523
sg13
S'android.content.res.ResourcesImpl'
p524
sg15
(lp525
sg17
(lp526
sg19
(lp527
sg21
I0
sba(iArchitecture
Entity
p528
(dp529
g11
(lp530
sg13
S'android.content.res.ResourcesImpl$ThemeImpl'
p531
sg15
(lp532
sg17
(lp533
sg19
(lp534
sg21
I0
sbasg57
(lp535
g524
ag531
asg21
I0
sg59
S'829'
p536
sba(iArchitecture
Cluster
p537
(dp538
g7
(lp539
(iArchitecture
Entity
p540
(dp541
g11
(lp542
sg13
S'android.view.ViewOutlineProvider'
p543
sg15
(lp544
sg17
(lp545
sg19
(lp546
sg21
I0
sba(iArchitecture
Entity
p547
(dp548
g11
(lp549
sg13
S'android.view.ViewOutlineProvider$1'
p550
sg15
(lp551
sg17
(lp552
sg19
(lp553
sg21
I0
sba(iArchitecture
Entity
p554
(dp555
g11
(lp556
sg13
S'android.view.ViewOutlineProvider$2'
p557
sg15
(lp558
sg17
(lp559
sg19
(lp560
sg21
I0
sba(iArchitecture
Entity
p561
(dp562
g11
(lp563
sg13
S'android.view.ViewOutlineProvider$3'
p564
sg15
(lp565
sg17
(lp566
sg19
(lp567
sg21
I0
sbasg57
(lp568
g543
ag550
ag557
ag564
asg21
I0
sg59
S'882'
p569
sba(iArchitecture
Cluster
p570
(dp571
g7
(lp572
(iArchitecture
Entity
p573
(dp574
g11
(lp575
sg13
S'android.media.AudioSystem'
p576
sg15
(lp577
sg17
(lp578
sg19
(lp579
sg21
I0
sba(iArchitecture
Entity
p580
(dp581
g11
(lp582
sg13
S'android.media.AudioSystem$AudioRecordingCallback'
p583
sg15
(lp584
sg17
(lp585
sg19
(lp586
sg21
I0
sba(iArchitecture
Entity
p587
(dp588
g11
(lp589
sg13
S'android.media.AudioSystem$DynamicPolicyCallback'
p590
sg15
(lp591
sg17
(lp592
sg19
(lp593
sg21
I0
sba(iArchitecture
Entity
p594
(dp595
g11
(lp596
sg13
S'android.media.AudioSystem$ErrorCallback'
p597
sg15
(lp598
sg17
(lp599
sg19
(lp600
sg21
I0
sbasg57
(lp601
g576
ag583
ag590
ag597
asg21
I0
sg59
S'982'
p602
sbasS'target_sub'
p603
S'82'
p604
sg57
(lp605
sS'is_component_arch'
p606
I01
sg59
S'7.0.0_r1'
p607
sba.