(lp0
(iArchitecture
Architecture
p1
(dp2
S'clusters'
p3
(lp4
(iArchitecture
Cluster
p5
(dp6
S'entities'
p7
(lp8
(iArchitecture
Entity
p9
(dp10
S'issue_ids'
p11
(lp12
sS'name'
p13
S'android.app.job.JobInfo'
p14
sS'descs'
p15
(lp16
sS'labels'
p17
(lp18
sS'titles'
p19
(lp20
sS'change'
p21
I0
sba(iArchitecture
Entity
p22
(dp23
g11
(lp24
sg13
S'android.app.job.JobInfo$1'
p25
sg15
(lp26
sg17
(lp27
sg19
(lp28
sg21
I0
sba(iArchitecture
Entity
p29
(dp30
g11
(lp31
sg13
S'android.app.job.JobInfo$Builder'
p32
sg15
(lp33
sg17
(lp34
sg19
(lp35
sg21
I0
sba(iArchitecture
Entity
p36
(dp37
g11
(lp38
sg13
S'android.app.job.JobInfo$TriggerContentUri'
p39
sg15
(lp40
sg17
(lp41
sg19
(lp42
sg21
I0
sba(iArchitecture
Entity
p43
(dp44
g11
(lp45
sg13
S'android.app.job.JobInfo$TriggerContentUri$1'
p46
sg15
(lp47
sg17
(lp48
sg19
(lp49
sg21
I0
sbasS'classes'
p50
(lp51
g14
ag25
ag32
ag39
ag46
asg21
I0
sS'label'
p52
S'1067'
p53
sba(iArchitecture
Cluster
p54
(dp55
g7
(lp56
(iArchitecture
Entity
p57
(dp58
g11
(lp59
sg13
S'com.android.server.notification.ZenModeHelper'
p60
sg15
(lp61
sg17
(lp62
sg19
(lp63
sg21
I0
sba(iArchitecture
Entity
p64
(dp65
g11
(lp66
sg13
S'com.android.server.notification.ZenModeHelper$1'
p67
sg15
(lp68
sg17
(lp69
sg19
(lp70
sg21
I0
sba(iArchitecture
Entity
p71
(dp72
g11
(lp73
sg13
S'com.android.server.notification.ZenModeHelper$Callback'
p74
sg15
(lp75
sg17
(lp76
sg19
(lp77
sg21
I0
sba(iArchitecture
Entity
p78
(dp79
g11
(lp80
sg13
S'com.android.server.notification.ZenModeHelper$H'
p81
sg15
(lp82
sg17
(lp83
sg19
(lp84
sg21
I0
sba(iArchitecture
Entity
p85
(dp86
g11
(lp87
sg13
S'com.android.server.notification.ZenModeHelper$H$ConfigMessageData'
p88
sg15
(lp89
sg17
(lp90
sg19
(lp91
sg21
I0
sba(iArchitecture
Entity
p92
(dp93
g11
(lp94
sg13
S'com.android.server.notification.ZenModeHelper$Metrics'
p95
sg15
(lp96
sg17
(lp97
sg19
(lp98
sg21
I0
sba(iArchitecture
Entity
p99
(dp100
g11
(lp101
sg13
S'com.android.server.notification.ZenModeHelper$RingerModeDelegate'
p102
sg15
(lp103
sg17
(lp104
sg19
(lp105
sg21
I0
sba(iArchitecture
Entity
p106
(dp107
g11
(lp108
sg13
S'com.android.server.notification.ZenModeHelper$SettingsObserver'
p109
sg15
(lp110
sg17
(lp111
sg19
(lp112
sg21
I0
sbasg50
(lp113
g60
ag67
ag74
ag81
ag88
ag95
ag102
ag109
asg21
I0
sg52
S'1167'
p114
sba(iArchitecture
Cluster
p115
(dp116
g7
(lp117
(iArchitecture
Entity
p118
(dp119
g11
(lp120
sg13
S'android.bluetooth.BluetoothGattCallback'
p121
sg15
(lp122
sg17
(lp123
sg19
(lp124
sg21
I0
sba(iArchitecture
Entity
p125
(dp126
g11
(lp127
sg13
S'android.bluetooth.BluetoothGattServerCallback'
p128
sg15
(lp129
sg17
(lp130
sg19
(lp131
sg21
I0
sbasg50
(lp132
g121
ag128
asg21
I0
sg52
S'1267'
p133
sba(iArchitecture
Cluster
p134
(dp135
g7
(lp136
(iArchitecture
Entity
p137
(dp138
g11
(lp139
sg13
S'android.net.NetworkCapabilities'
p140
sg15
(lp141
sg17
(lp142
sg19
(lp143
sg21
I0
sba(iArchitecture
Entity
p144
(dp145
g11
(lp146
sg13
S'android.net.NetworkCapabilities$1'
p147
sg15
(lp148
sg17
(lp149
sg19
(lp150
sg21
I0
sba(iArchitecture
Entity
p151
(dp152
g11
(lp153
sg13
S'android.net.NetworkFactory'
p154
sg15
(lp155
sg17
(lp156
sg19
(lp157
sg21
I0
sba(iArchitecture
Entity
p158
(dp159
g11
(lp160
sg13
S'android.net.NetworkFactory$NetworkRequestInfo'
p161
sg15
(lp162
sg17
(lp163
sg19
(lp164
sg21
I0
sba(iArchitecture
Entity
p165
(dp166
g11
(lp167
sg13
S'android.net.NetworkRequest'
p168
sg15
(lp169
sg17
(lp170
sg19
(lp171
sg21
I0
sba(iArchitecture
Entity
p172
(dp173
g11
(lp174
sg13
S'android.net.NetworkRequest$1'
p175
sg15
(lp176
sg17
(lp177
sg19
(lp178
sg21
I0
sba(iArchitecture
Entity
p179
(dp180
g11
(lp181
sg13
S'android.net.NetworkRequest$Builder'
p182
sg15
(lp183
sg17
(lp184
sg19
(lp185
sg21
I0
sbasg50
(lp186
g140
ag147
ag154
ag161
ag168
ag175
ag182
asg21
I0
sg52
S'1367'
p187
sba(iArchitecture
Cluster
p188
(dp189
g7
(lp190
(iArchitecture
Entity
p191
(dp192
g11
(lp193
sg13
S'android.webkit.PermissionRequest'
p194
sg15
(lp195
sg17
(lp196
sg19
(lp197
sg21
I0
sbasg50
(lp198
g194
asg21
I0
sg52
S'167'
p199
sba(iArchitecture
Cluster
p200
(dp201
g7
(lp202
(iArchitecture
Entity
p203
(dp204
g11
(lp205
sg13
S'android.bluetooth.BluetoothDevicePicker'
p206
sg15
(lp207
sg17
(lp208
sg19
(lp209
sg21
I0
sbasg50
(lp210
g206
asg21
I0
sg52
S'267'
p211
sba(iArchitecture
Cluster
p212
(dp213
g7
(lp214
(iArchitecture
Entity
p215
(dp216
g11
(lp217
sg13
S'android.view.WindowInsets'
p218
sg15
(lp219
sg17
(lp220
sg19
(lp221
sg21
I0
sbasg50
(lp222
g218
asg21
I0
sg52
S'367'
p223
sba(iArchitecture
Cluster
p224
(dp225
g7
(lp226
(iArchitecture
Entity
p227
(dp228
g11
(lp229
sg13
S'com.android.internal.os.FlashlightPowerCalculator'
p230
sg15
(lp231
sg17
(lp232
sg19
(lp233
sg21
I0
sbasg50
(lp234
g230
asg21
I0
sg52
S'467'
p235
sba(iArchitecture
Cluster
p236
(dp237
g7
(lp238
(iArchitecture
Entity
p239
(dp240
g11
(lp241
sg13
S'android.hardware.location.GeofenceHardwareRequestParcelable'
p242
sg15
(lp243
sg17
(lp244
sg19
(lp245
sg21
I0
sba(iArchitecture
Entity
p246
(dp247
g11
(lp248
sg13
S'android.hardware.location.GeofenceHardwareRequestParcelable$1'
p249
sg15
(lp250
sg17
(lp251
sg19
(lp252
sg21
I0
sbasg50
(lp253
g242
ag249
asg21
I0
sg52
S'567'
p254
sba(iArchitecture
Cluster
p255
(dp256
g7
(lp257
(iArchitecture
Entity
p258
(dp259
g11
(lp260
sg13
S'android.os.PerformanceCollector'
p261
sg15
(lp262
sg17
(lp263
sg19
(lp264
sg21
I0
sba(iArchitecture
Entity
p265
(dp266
g11
(lp267
sg13
S'android.os.PerformanceCollector$PerformanceResultsWriter'
p268
sg15
(lp269
sg17
(lp270
sg19
(lp271
sg21
I0
sbasg50
(lp272
g261
ag268
asg21
I0
sg52
S'667'
p273
sba(iArchitecture
Cluster
p274
(dp275
g7
(lp276
(iArchitecture
Entity
p277
(dp278
g11
(lp279
sg13
S'com.android.internal.util.JournaledFile'
p280
sg15
(lp281
sg17
(lp282
sg19
(lp283
sg21
I0
sbasg50
(lp284
g280
asg21
I0
sg52
S'67'
p285
sba(iArchitecture
Cluster
p286
(dp287
g7
(lp288
(iArchitecture
Entity
p289
(dp290
g11
(lp291
sg13
S'com.android.server.location.FusedProxy'
p292
sg15
(lp293
sg17
(lp294
sg19
(lp295
sg21
I0
sba(iArchitecture
Entity
p296
(dp297
g11
(lp298
sg13
S'com.android.server.location.FusedProxy$1'
p299
sg15
(lp300
sg17
(lp301
sg19
(lp302
sg21
I0
sbasg50
(lp303
g292
ag299
asg21
I0
sg52
S'670'
p304
sba(iArchitecture
Cluster
p305
(dp306
g7
(lp307
(iArchitecture
Entity
p308
(dp309
g11
(lp310
sg13
S'android.telephony.PhoneNumberUtils'
p311
sg15
(lp312
sg17
(lp313
sg19
(lp314
sg21
I0
sba(iArchitecture
Entity
p315
(dp316
g11
(lp317
sg13
S'android.telephony.PhoneNumberUtils$CountryCallingCodeAndNewIndex'
p318
sg15
(lp319
sg17
(lp320
sg19
(lp321
sg21
I0
sbasg50
(lp322
g311
ag318
asg21
I0
sg52
S'671'
p323
sba(iArchitecture
Cluster
p324
(dp325
g7
(lp326
(iArchitecture
Entity
p327
(dp328
g11
(lp329
sg13
S'com.android.server.policy.ShortcutManager'
p330
sg15
(lp331
sg17
(lp332
sg19
(lp333
sg21
I0
sba(iArchitecture
Entity
p334
(dp335
g11
(lp336
sg13
S'com.android.server.policy.ShortcutManager$ShortcutInfo'
p337
sg15
(lp338
sg17
(lp339
sg19
(lp340
sg21
I0
sbasg50
(lp341
g330
ag337
asg21
I0
sg52
S'672'
p342
sba(iArchitecture
Cluster
p343
(dp344
g7
(lp345
(iArchitecture
Entity
p346
(dp347
g11
(lp348
sg13
S'com.android.internal.content.NativeLibraryHelper'
p349
sg15
(lp350
sg17
(lp351
sg19
(lp352
sg21
I0
sba(iArchitecture
Entity
p353
(dp354
g11
(lp355
sg13
S'com.android.internal.content.NativeLibraryHelper$Handle'
p356
sg15
(lp357
sg17
(lp358
sg19
(lp359
sg21
I0
sbasg50
(lp360
g349
ag356
asg21
I0
sg52
S'673'
p361
sba(iArchitecture
Cluster
p362
(dp363
g7
(lp364
(iArchitecture
Entity
p365
(dp366
g11
(lp367
sg13
S'android.inputmethodservice.IInputMethodSessionWrapper'
p368
sg15
(lp369
sg17
(lp370
sg19
(lp371
sg21
I0
sba(iArchitecture
Entity
p372
(dp373
g11
(lp374
sg13
S'android.inputmethodservice.IInputMethodSessionWrapper$ImeInputEventReceiver'
p375
sg15
(lp376
sg17
(lp377
sg19
(lp378
sg21
I0
sbasg50
(lp379
g368
ag375
asg21
I0
sg52
S'674'
p380
sba(iArchitecture
Cluster
p381
(dp382
g7
(lp383
(iArchitecture
Entity
p384
(dp385
g11
(lp386
sg13
S'android.nfc.cardemulation.AidGroup'
p387
sg15
(lp388
sg17
(lp389
sg19
(lp390
sg21
I0
sba(iArchitecture
Entity
p391
(dp392
g11
(lp393
sg13
S'android.nfc.cardemulation.AidGroup$1'
p394
sg15
(lp395
sg17
(lp396
sg19
(lp397
sg21
I0
sbasg50
(lp398
g387
ag394
asg21
I0
sg52
S'675'
p399
sba(iArchitecture
Cluster
p400
(dp401
g7
(lp402
(iArchitecture
Entity
p403
(dp404
g11
(lp405
sg13
S'android.net.InterfaceConfiguration'
p406
sg15
(lp407
sg17
(lp408
sg19
(lp409
sg21
I0
sba(iArchitecture
Entity
p410
(dp411
g11
(lp412
sg13
S'android.net.InterfaceConfiguration$1'
p413
sg15
(lp414
sg17
(lp415
sg19
(lp416
sg21
I0
sbasg50
(lp417
g406
ag413
asg21
I0
sg52
S'676'
p418
sba(iArchitecture
Cluster
p419
(dp420
g7
(lp421
(iArchitecture
Entity
p422
(dp423
g11
(lp424
sg13
S'com.android.server.tv.PersistentDataStore'
p425
sg15
(lp426
sg17
(lp427
sg19
(lp428
sg21
I0
sba(iArchitecture
Entity
p429
(dp430
g11
(lp431
sg13
S'com.android.server.tv.PersistentDataStore$1'
p432
sg15
(lp433
sg17
(lp434
sg19
(lp435
sg21
I0
sbasg50
(lp436
g425
ag432
asg21
I0
sg52
S'677'
p437
sba(iArchitecture
Cluster
p438
(dp439
g7
(lp440
(iArchitecture
Entity
p441
(dp442
g11
(lp443
sg13
S'android.telecom.PhoneAccountHandle'
p444
sg15
(lp445
sg17
(lp446
sg19
(lp447
sg21
I0
sba(iArchitecture
Entity
p448
(dp449
g11
(lp450
sg13
S'android.telecom.PhoneAccountHandle$1'
p451
sg15
(lp452
sg17
(lp453
sg19
(lp454
sg21
I0
sbasg50
(lp455
g444
ag451
asg21
I0
sg52
S'678'
p456
sba(iArchitecture
Cluster
p457
(dp458
g7
(lp459
(iArchitecture
Entity
p460
(dp461
g11
(lp462
sg13
S'android.media.MediaFile'
p463
sg15
(lp464
sg17
(lp465
sg19
(lp466
sg21
I0
sba(iArchitecture
Entity
p467
(dp468
g11
(lp469
sg13
S'android.media.MediaFile$MediaFileType'
p470
sg15
(lp471
sg17
(lp472
sg19
(lp473
sg21
I0
sbasg50
(lp474
g463
ag470
asg21
I0
sg52
S'679'
p475
sba(iArchitecture
Cluster
p476
(dp477
g7
(lp478
(iArchitecture
Entity
p479
(dp480
g11
(lp481
sg13
S'com.android.server.SystemConfig'
p482
sg15
(lp483
sg17
(lp484
sg19
(lp485
sg21
I0
sba(iArchitecture
Entity
p486
(dp487
g11
(lp488
sg13
S'com.android.server.SystemConfig$PermissionEntry'
p489
sg15
(lp490
sg17
(lp491
sg19
(lp492
sg21
I0
sbasg50
(lp493
g482
ag489
asg21
I0
sg52
S'767'
p494
sba(iArchitecture
Cluster
p495
(dp496
g7
(lp497
(iArchitecture
Entity
p498
(dp499
g11
(lp500
sg13
S'android.widget.DoubleDigitManager'
p501
sg15
(lp502
sg17
(lp503
sg19
(lp504
sg21
I0
sba(iArchitecture
Entity
p505
(dp506
g11
(lp507
sg13
S'android.widget.DoubleDigitManager$1'
p508
sg15
(lp509
sg17
(lp510
sg19
(lp511
sg21
I0
sba(iArchitecture
Entity
p512
(dp513
g11
(lp514
sg13
S'android.widget.DoubleDigitManager$CallBack'
p515
sg15
(lp516
sg17
(lp517
sg19
(lp518
sg21
I0
sbasg50
(lp519
g501
ag508
ag515
asg21
I0
sg52
S'867'
p520
sba(iArchitecture
Cluster
p521
(dp522
g7
(lp523
(iArchitecture
Entity
p524
(dp525
g11
(lp526
sg13
S'android.graphics.Bitmap'
p527
sg15
(lp528
sg17
(lp529
sg19
(lp530
sg21
I0
sba(iArchitecture
Entity
p531
(dp532
g11
(lp533
sg13
S'android.graphics.Bitmap$1'
p534
sg15
(lp535
sg17
(lp536
sg19
(lp537
sg21
I0
sba(iArchitecture
Entity
p538
(dp539
g11
(lp540
sg13
S'android.graphics.Bitmap$CompressFormat'
p541
sg15
(lp542
sg17
(lp543
sg19
(lp544
sg21
I0
sba(iArchitecture
Entity
p545
(dp546
g11
(lp547
sg13
S'android.graphics.Bitmap$Config'
p548
sg15
(lp549
sg17
(lp550
sg19
(lp551
sg21
I0
sbasg50
(lp552
g527
ag534
ag541
ag548
asg21
I0
sg52
S'967'
p553
sbasS'target_sub'
p554
S'67'
p555
sg50
(lp556
sS'is_component_arch'
p557
I01
sg52
S'7.0.0_r1'
p558
sba.