(lp0
(iArchitecture
Architecture
p1
(dp2
S'clusters'
p3
(lp4
(iArchitecture
Cluster
p5
(dp6
S'entities'
p7
(lp8
(iArchitecture
Entity
p9
(dp10
S'issue_ids'
p11
(lp12
sS'name'
p13
S'com.android.server.BluetoothManagerService'
p14
sS'descs'
p15
(lp16
sS'labels'
p17
(lp18
sS'titles'
p19
(lp20
sS'change'
p21
I0
sba(iArchitecture
Entity
p22
(dp23
g11
(lp24
sg13
S'com.android.server.BluetoothManagerService$1'
p25
sg15
(lp26
sg17
(lp27
sg19
(lp28
sg21
I0
sba(iArchitecture
Entity
p29
(dp30
g11
(lp31
sg13
S'com.android.server.BluetoothManagerService$2'
p32
sg15
(lp33
sg17
(lp34
sg19
(lp35
sg21
I0
sba(iArchitecture
Entity
p36
(dp37
g11
(lp38
sg13
S'com.android.server.BluetoothManagerService$3'
p39
sg15
(lp40
sg17
(lp41
sg19
(lp42
sg21
I0
sba(iArchitecture
Entity
p43
(dp44
g11
(lp45
sg13
S'com.android.server.BluetoothManagerService$BluetoothHandler'
p46
sg15
(lp47
sg17
(lp48
sg19
(lp49
sg21
I0
sba(iArchitecture
Entity
p50
(dp51
g11
(lp52
sg13
S'com.android.server.BluetoothManagerService$BluetoothServiceConnection'
p53
sg15
(lp54
sg17
(lp55
sg19
(lp56
sg21
I0
sba(iArchitecture
Entity
p57
(dp58
g11
(lp59
sg13
S'com.android.server.BluetoothManagerService$ClientDeathRecipient'
p60
sg15
(lp61
sg17
(lp62
sg19
(lp63
sg21
I0
sba(iArchitecture
Entity
p64
(dp65
g11
(lp66
sg13
S'com.android.server.BluetoothManagerService$ProfileServiceConnections'
p67
sg15
(lp68
sg17
(lp69
sg19
(lp70
sg21
I0
sbasS'classes'
p71
(lp72
g14
ag25
ag32
ag39
ag46
ag53
ag60
ag67
asg21
I0
sS'label'
p73
S'1135'
p74
sba(iArchitecture
Cluster
p75
(dp76
g7
(lp77
(iArchitecture
Entity
p78
(dp79
g11
(lp80
sg13
S'android.transition.ArcMotion'
p81
sg15
(lp82
sg17
(lp83
sg19
(lp84
sg21
I0
sbasg71
(lp85
g81
asg21
I0
sg73
S'135'
p86
sba(iArchitecture
Cluster
p87
(dp88
g7
(lp89
(iArchitecture
Entity
p90
(dp91
g11
(lp92
sg13
S'android.view.textservice.TextServicesManager'
p93
sg15
(lp94
sg17
(lp95
sg19
(lp96
sg21
I0
sba(iArchitecture
Entity
p97
(dp98
g11
(lp99
sg13
S'com.android.server.TextServicesManagerService'
p100
sg15
(lp101
sg17
(lp102
sg19
(lp103
sg21
I0
sba(iArchitecture
Entity
p104
(dp105
g11
(lp106
sg13
S'com.android.server.TextServicesManagerService$InternalDeathRecipient'
p107
sg15
(lp108
sg17
(lp109
sg19
(lp110
sg21
I0
sba(iArchitecture
Entity
p111
(dp112
g11
(lp113
sg13
S'com.android.server.TextServicesManagerService$InternalServiceConnection'
p114
sg15
(lp115
sg17
(lp116
sg19
(lp117
sg21
I0
sba(iArchitecture
Entity
p118
(dp119
g11
(lp120
sg13
S'com.android.server.TextServicesManagerService$Lifecycle'
p121
sg15
(lp122
sg17
(lp123
sg19
(lp124
sg21
I0
sba(iArchitecture
Entity
p125
(dp126
g11
(lp127
sg13
S'com.android.server.TextServicesManagerService$SpellCheckerBindGroup'
p128
sg15
(lp129
sg17
(lp130
sg19
(lp131
sg21
I0
sba(iArchitecture
Entity
p132
(dp133
g11
(lp134
sg13
S'com.android.server.TextServicesManagerService$TextServicesBroadcastReceiver'
p135
sg15
(lp136
sg17
(lp137
sg19
(lp138
sg21
I0
sba(iArchitecture
Entity
p139
(dp140
g11
(lp141
sg13
S'com.android.server.TextServicesManagerService$TextServicesMonitor'
p142
sg15
(lp143
sg17
(lp144
sg19
(lp145
sg21
I0
sba(iArchitecture
Entity
p146
(dp147
g11
(lp148
sg13
S'com.android.server.TextServicesManagerService$TextServicesSettings'
p149
sg15
(lp150
sg17
(lp151
sg19
(lp152
sg21
I0
sbasg71
(lp153
g93
ag100
ag107
ag114
ag121
ag128
ag135
ag142
ag149
asg21
I0
sg73
S'1350'
p154
sba(iArchitecture
Cluster
p155
(dp156
g7
(lp157
(iArchitecture
Entity
p158
(dp159
g11
(lp160
sg13
S'android.hardware.CameraInfo'
p161
sg15
(lp162
sg17
(lp163
sg19
(lp164
sg21
I0
sba(iArchitecture
Entity
p165
(dp166
g11
(lp167
sg13
S'android.hardware.CameraInfo$1'
p168
sg15
(lp169
sg17
(lp170
sg19
(lp171
sg21
I0
sba(iArchitecture
Entity
p172
(dp173
g11
(lp174
sg13
S'android.security.keymaster.KeymasterBlob'
p175
sg15
(lp176
sg17
(lp177
sg19
(lp178
sg21
I0
sba(iArchitecture
Entity
p179
(dp180
g11
(lp181
sg13
S'android.security.keymaster.KeymasterBlob$1'
p182
sg15
(lp183
sg17
(lp184
sg19
(lp185
sg21
I0
sba(iArchitecture
Entity
p186
(dp187
g11
(lp188
sg13
S'android.security.keymaster.KeymasterCertificateChain'
p189
sg15
(lp190
sg17
(lp191
sg19
(lp192
sg21
I0
sba(iArchitecture
Entity
p193
(dp194
g11
(lp195
sg13
S'android.security.keymaster.KeymasterCertificateChain$1'
p196
sg15
(lp197
sg17
(lp198
sg19
(lp199
sg21
I0
sba(iArchitecture
Entity
p200
(dp201
g11
(lp202
sg13
S'android.security.net.config.KeyStoreConfigSource'
p203
sg15
(lp204
sg17
(lp205
sg19
(lp206
sg21
I0
sbasg71
(lp207
g161
ag168
ag175
ag182
ag189
ag196
ag203
asg21
I0
sg73
S'1351'
p208
sba(iArchitecture
Cluster
p209
(dp210
g7
(lp211
(iArchitecture
Entity
p212
(dp213
g11
(lp214
sg13
S'android.annotation.IntDef'
p215
sg15
(lp216
sg17
(lp217
sg19
(lp218
sg21
I0
sba(iArchitecture
Entity
p219
(dp220
g11
(lp221
sg13
S'android.view.HapticFeedbackConstants'
p222
sg15
(lp223
sg17
(lp224
sg19
(lp225
sg21
I0
sbasg71
(lp226
g215
ag222
asg21
I0
sg73
S'1352'
p227
sba(iArchitecture
Cluster
p228
(dp229
g7
(lp230
(iArchitecture
Entity
p231
(dp232
g11
(lp233
sg13
S'android.app.PendingIntent'
p234
sg15
(lp235
sg17
(lp236
sg19
(lp237
sg21
I0
sba(iArchitecture
Entity
p238
(dp239
g11
(lp240
sg13
S'android.app.PendingIntent$1'
p241
sg15
(lp242
sg17
(lp243
sg19
(lp244
sg21
I0
sba(iArchitecture
Entity
p245
(dp246
g11
(lp247
sg13
S'android.app.PendingIntent$CanceledException'
p248
sg15
(lp249
sg17
(lp250
sg19
(lp251
sg21
I0
sba(iArchitecture
Entity
p252
(dp253
g11
(lp254
sg13
S'android.app.PendingIntent$FinishedDispatcher'
p255
sg15
(lp256
sg17
(lp257
sg19
(lp258
sg21
I0
sba(iArchitecture
Entity
p259
(dp260
g11
(lp261
sg13
S'android.app.PendingIntent$OnFinished'
p262
sg15
(lp263
sg17
(lp264
sg19
(lp265
sg21
I0
sba(iArchitecture
Entity
p266
(dp267
g11
(lp268
sg13
S'android.app.PendingIntent$OnMarshaledListener'
p269
sg15
(lp270
sg17
(lp271
sg19
(lp272
sg21
I0
sba(iArchitecture
Entity
p273
(dp274
g11
(lp275
sg13
S'android.content.IntentSender'
p276
sg15
(lp277
sg17
(lp278
sg19
(lp279
sg21
I0
sba(iArchitecture
Entity
p280
(dp281
g11
(lp282
sg13
S'android.content.IntentSender$1'
p283
sg15
(lp284
sg17
(lp285
sg19
(lp286
sg21
I0
sba(iArchitecture
Entity
p287
(dp288
g11
(lp289
sg13
S'android.content.IntentSender$FinishedDispatcher'
p290
sg15
(lp291
sg17
(lp292
sg19
(lp293
sg21
I0
sba(iArchitecture
Entity
p294
(dp295
g11
(lp296
sg13
S'android.content.IntentSender$OnFinished'
p297
sg15
(lp298
sg17
(lp299
sg19
(lp300
sg21
I0
sba(iArchitecture
Entity
p301
(dp302
g11
(lp303
sg13
S'android.content.IntentSender$SendIntentException'
p304
sg15
(lp305
sg17
(lp306
sg19
(lp307
sg21
I0
sbasg71
(lp308
g234
ag241
ag248
ag255
ag262
ag269
ag276
ag283
ag290
ag297
ag304
asg21
I0
sg73
S'1353'
p309
sba(iArchitecture
Cluster
p310
(dp311
g7
(lp312
(iArchitecture
Entity
p313
(dp314
g11
(lp315
sg13
S'android.opengl.EGL14'
p316
sg15
(lp317
sg17
(lp318
sg19
(lp319
sg21
I0
sba(iArchitecture
Entity
p320
(dp321
g11
(lp322
sg13
S'android.opengl.EGLLogWrapper'
p323
sg15
(lp324
sg17
(lp325
sg19
(lp326
sg21
I0
sba(iArchitecture
Entity
p327
(dp328
g11
(lp329
sg13
S'javax.microedition.khronos.egl.EGL10'
p330
sg15
(lp331
sg17
(lp332
sg19
(lp333
sg21
I0
sbasg71
(lp334
g316
ag323
ag330
asg21
I0
sg73
S'1354'
p335
sba(iArchitecture
Cluster
p336
(dp337
g7
(lp338
(iArchitecture
Entity
p339
(dp340
g11
(lp341
sg13
S'android.media.audiofx.AudioEffect'
p342
sg15
(lp343
sg17
(lp344
sg19
(lp345
sg21
I0
sba(iArchitecture
Entity
p346
(dp347
g11
(lp348
sg13
S'android.media.audiofx.AudioEffect$Descriptor'
p349
sg15
(lp350
sg17
(lp351
sg19
(lp352
sg21
I0
sba(iArchitecture
Entity
p353
(dp354
g11
(lp355
sg13
S'android.media.audiofx.AudioEffect$NativeEventHandler'
p356
sg15
(lp357
sg17
(lp358
sg19
(lp359
sg21
I0
sba(iArchitecture
Entity
p360
(dp361
g11
(lp362
sg13
S'android.media.audiofx.AudioEffect$OnControlStatusChangeListener'
p363
sg15
(lp364
sg17
(lp365
sg19
(lp366
sg21
I0
sba(iArchitecture
Entity
p367
(dp368
g11
(lp369
sg13
S'android.media.audiofx.AudioEffect$OnEnableStatusChangeListener'
p370
sg15
(lp371
sg17
(lp372
sg19
(lp373
sg21
I0
sba(iArchitecture
Entity
p374
(dp375
g11
(lp376
sg13
S'android.media.audiofx.AudioEffect$OnParameterChangeListener'
p377
sg15
(lp378
sg17
(lp379
sg19
(lp380
sg21
I0
sba(iArchitecture
Entity
p381
(dp382
g11
(lp383
sg13
S'android.media.audiofx.BassBoost'
p384
sg15
(lp385
sg17
(lp386
sg19
(lp387
sg21
I0
sba(iArchitecture
Entity
p388
(dp389
g11
(lp390
sg13
S'android.media.audiofx.BassBoost$BaseParameterListener'
p391
sg15
(lp392
sg17
(lp393
sg19
(lp394
sg21
I0
sba(iArchitecture
Entity
p395
(dp396
g11
(lp397
sg13
S'android.media.audiofx.BassBoost$OnParameterChangeListener'
p398
sg15
(lp399
sg17
(lp400
sg19
(lp401
sg21
I0
sba(iArchitecture
Entity
p402
(dp403
g11
(lp404
sg13
S'android.media.audiofx.BassBoost$Settings'
p405
sg15
(lp406
sg17
(lp407
sg19
(lp408
sg21
I0
sba(iArchitecture
Entity
p409
(dp410
g11
(lp411
sg13
S'android.media.audiofx.EnvironmentalReverb'
p412
sg15
(lp413
sg17
(lp414
sg19
(lp415
sg21
I0
sba(iArchitecture
Entity
p416
(dp417
g11
(lp418
sg13
S'android.media.audiofx.EnvironmentalReverb$BaseParameterListener'
p419
sg15
(lp420
sg17
(lp421
sg19
(lp422
sg21
I0
sba(iArchitecture
Entity
p423
(dp424
g11
(lp425
sg13
S'android.media.audiofx.EnvironmentalReverb$OnParameterChangeListener'
p426
sg15
(lp427
sg17
(lp428
sg19
(lp429
sg21
I0
sba(iArchitecture
Entity
p430
(dp431
g11
(lp432
sg13
S'android.media.audiofx.EnvironmentalReverb$Settings'
p433
sg15
(lp434
sg17
(lp435
sg19
(lp436
sg21
I0
sba(iArchitecture
Entity
p437
(dp438
g11
(lp439
sg13
S'android.media.audiofx.Equalizer'
p440
sg15
(lp441
sg17
(lp442
sg19
(lp443
sg21
I0
sba(iArchitecture
Entity
p444
(dp445
g11
(lp446
sg13
S'android.media.audiofx.Equalizer$BaseParameterListener'
p447
sg15
(lp448
sg17
(lp449
sg19
(lp450
sg21
I0
sba(iArchitecture
Entity
p451
(dp452
g11
(lp453
sg13
S'android.media.audiofx.Equalizer$OnParameterChangeListener'
p454
sg15
(lp455
sg17
(lp456
sg19
(lp457
sg21
I0
sba(iArchitecture
Entity
p458
(dp459
g11
(lp460
sg13
S'android.media.audiofx.Equalizer$Settings'
p461
sg15
(lp462
sg17
(lp463
sg19
(lp464
sg21
I0
sba(iArchitecture
Entity
p465
(dp466
g11
(lp467
sg13
S'android.media.audiofx.LoudnessEnhancer'
p468
sg15
(lp469
sg17
(lp470
sg19
(lp471
sg21
I0
sba(iArchitecture
Entity
p472
(dp473
g11
(lp474
sg13
S'android.media.audiofx.LoudnessEnhancer$BaseParameterListener'
p475
sg15
(lp476
sg17
(lp477
sg19
(lp478
sg21
I0
sba(iArchitecture
Entity
p479
(dp480
g11
(lp481
sg13
S'android.media.audiofx.LoudnessEnhancer$OnParameterChangeListener'
p482
sg15
(lp483
sg17
(lp484
sg19
(lp485
sg21
I0
sba(iArchitecture
Entity
p486
(dp487
g11
(lp488
sg13
S'android.media.audiofx.LoudnessEnhancer$Settings'
p489
sg15
(lp490
sg17
(lp491
sg19
(lp492
sg21
I0
sba(iArchitecture
Entity
p493
(dp494
g11
(lp495
sg13
S'android.media.audiofx.PresetReverb'
p496
sg15
(lp497
sg17
(lp498
sg19
(lp499
sg21
I0
sba(iArchitecture
Entity
p500
(dp501
g11
(lp502
sg13
S'android.media.audiofx.PresetReverb$BaseParameterListener'
p503
sg15
(lp504
sg17
(lp505
sg19
(lp506
sg21
I0
sba(iArchitecture
Entity
p507
(dp508
g11
(lp509
sg13
S'android.media.audiofx.PresetReverb$OnParameterChangeListener'
p510
sg15
(lp511
sg17
(lp512
sg19
(lp513
sg21
I0
sba(iArchitecture
Entity
p514
(dp515
g11
(lp516
sg13
S'android.media.audiofx.PresetReverb$Settings'
p517
sg15
(lp518
sg17
(lp519
sg19
(lp520
sg21
I0
sba(iArchitecture
Entity
p521
(dp522
g11
(lp523
sg13
S'android.media.audiofx.Virtualizer'
p524
sg15
(lp525
sg17
(lp526
sg19
(lp527
sg21
I0
sba(iArchitecture
Entity
p528
(dp529
g11
(lp530
sg13
S'android.media.audiofx.Virtualizer$BaseParameterListener'
p531
sg15
(lp532
sg17
(lp533
sg19
(lp534
sg21
I0
sba(iArchitecture
Entity
p535
(dp536
g11
(lp537
sg13
S'android.media.audiofx.Virtualizer$OnParameterChangeListener'
p538
sg15
(lp539
sg17
(lp540
sg19
(lp541
sg21
I0
sba(iArchitecture
Entity
p542
(dp543
g11
(lp544
sg13
S'android.media.audiofx.Virtualizer$Settings'
p545
sg15
(lp546
sg17
(lp547
sg19
(lp548
sg21
I0
sbasg71
(lp549
g342
ag349
ag356
ag363
ag370
ag377
ag384
ag391
ag398
ag405
ag412
ag419
ag426
ag433
ag440
ag447
ag454
ag461
ag468
ag475
ag482
ag489
ag496
ag503
ag510
ag517
ag524
ag531
ag538
ag545
asg21
I0
sg73
S'1355'
p550
sba(iArchitecture
Cluster
p551
(dp552
g7
(lp553
(iArchitecture
Entity
p554
(dp555
g11
(lp556
sg13
S'android.hardware.location.GeofenceHardware'
p557
sg15
(lp558
sg17
(lp559
sg19
(lp560
sg21
I0
sba(iArchitecture
Entity
p561
(dp562
g11
(lp563
sg13
S'android.hardware.location.GeofenceHardware$GeofenceHardwareCallbackWrapper'
p564
sg15
(lp565
sg17
(lp566
sg19
(lp567
sg21
I0
sba(iArchitecture
Entity
p568
(dp569
g11
(lp570
sg13
S'android.hardware.location.GeofenceHardware$GeofenceHardwareMonitorCallbackWrapper'
p571
sg15
(lp572
sg17
(lp573
sg19
(lp574
sg21
I0
sba(iArchitecture
Entity
p575
(dp576
g11
(lp577
sg13
S'android.hardware.location.GeofenceHardwareImpl'
p578
sg15
(lp579
sg17
(lp580
sg19
(lp581
sg21
I0
sba(iArchitecture
Entity
p582
(dp583
g11
(lp584
sg13
S'android.hardware.location.GeofenceHardwareImpl$1'
p585
sg15
(lp586
sg17
(lp587
sg19
(lp588
sg21
I0
sba(iArchitecture
Entity
p589
(dp590
g11
(lp591
sg13
S'android.hardware.location.GeofenceHardwareImpl$2'
p592
sg15
(lp593
sg17
(lp594
sg19
(lp595
sg21
I0
sba(iArchitecture
Entity
p596
(dp597
g11
(lp598
sg13
S'android.hardware.location.GeofenceHardwareImpl$3'
p599
sg15
(lp600
sg17
(lp601
sg19
(lp602
sg21
I0
sba(iArchitecture
Entity
p603
(dp604
g11
(lp605
sg13
S'android.hardware.location.GeofenceHardwareImpl$GeofenceTransition'
p606
sg15
(lp607
sg17
(lp608
sg19
(lp609
sg21
I0
sba(iArchitecture
Entity
p610
(dp611
g11
(lp612
sg13
S'android.hardware.location.GeofenceHardwareImpl$Reaper'
p613
sg15
(lp614
sg17
(lp615
sg19
(lp616
sg21
I0
sbasg71
(lp617
g557
ag564
ag571
ag578
ag585
ag592
ag599
ag606
ag613
asg21
I0
sg73
S'1356'
p618
sba(iArchitecture
Cluster
p619
(dp620
g7
(lp621
(iArchitecture
Entity
p622
(dp623
g11
(lp624
sg13
S'android.hardware.camera2.utils.ParamsUtils'
p625
sg15
(lp626
sg17
(lp627
sg19
(lp628
sg21
I0
sba(iArchitecture
Entity
p629
(dp630
g11
(lp631
sg13
S'android.text.style.TextAppearanceSpan'
p632
sg15
(lp633
sg17
(lp634
sg19
(lp635
sg21
I0
sba(iArchitecture
Entity
p636
(dp637
g11
(lp638
sg13
S'android.view.WindowAnimationFrameStats'
p639
sg15
(lp640
sg17
(lp641
sg19
(lp642
sg21
I0
sba(iArchitecture
Entity
p643
(dp644
g11
(lp645
sg13
S'android.view.WindowAnimationFrameStats$1'
p646
sg15
(lp647
sg17
(lp648
sg19
(lp649
sg21
I0
sba(iArchitecture
Entity
p650
(dp651
g11
(lp652
sg13
S'android.view.WindowContentFrameStats'
p653
sg15
(lp654
sg17
(lp655
sg19
(lp656
sg21
I0
sba(iArchitecture
Entity
p657
(dp658
g11
(lp659
sg13
S'android.view.WindowContentFrameStats$1'
p660
sg15
(lp661
sg17
(lp662
sg19
(lp663
sg21
I0
sbasg71
(lp664
g625
ag632
ag639
ag646
ag653
ag660
asg21
I0
sg73
S'1357'
p665
sba(iArchitecture
Cluster
p666
(dp667
g7
(lp668
(iArchitecture
Entity
p669
(dp670
g11
(lp671
sg13
S'android.opengl.GLES10'
p672
sg15
(lp673
sg17
(lp674
sg19
(lp675
sg21
I0
sba(iArchitecture
Entity
p676
(dp677
g11
(lp678
sg13
S'android.opengl.GLES11'
p679
sg15
(lp680
sg17
(lp681
sg19
(lp682
sg21
I0
sba(iArchitecture
Entity
p683
(dp684
g11
(lp685
sg13
S'android.opengl.GLES11Ext'
p686
sg15
(lp687
sg17
(lp688
sg19
(lp689
sg21
I0
sba(iArchitecture
Entity
p690
(dp691
g11
(lp692
sg13
S'com.google.android.gles_jni.GLImpl'
p693
sg15
(lp694
sg17
(lp695
sg19
(lp696
sg21
I0
sba(iArchitecture
Entity
p697
(dp698
g11
(lp699
sg13
S'javax.microedition.khronos.opengles.GL10'
p700
sg15
(lp701
sg17
(lp702
sg19
(lp703
sg21
I0
sba(iArchitecture
Entity
p704
(dp705
g11
(lp706
sg13
S'javax.microedition.khronos.opengles.GL11'
p707
sg15
(lp708
sg17
(lp709
sg19
(lp710
sg21
I0
sbasg71
(lp711
g672
ag679
ag686
ag693
ag700
ag707
asg21
I0
sg73
S'1358'
p712
sba(iArchitecture
Cluster
p713
(dp714
g7
(lp715
(iArchitecture
Entity
p716
(dp717
g11
(lp718
sg13
S'android.telephony.CellIdentityCdma'
p719
sg15
(lp720
sg17
(lp721
sg19
(lp722
sg21
I0
sba(iArchitecture
Entity
p723
(dp724
g11
(lp725
sg13
S'android.telephony.CellIdentityCdma$1'
p726
sg15
(lp727
sg17
(lp728
sg19
(lp729
sg21
I0
sba(iArchitecture
Entity
p730
(dp731
g11
(lp732
sg13
S'android.telephony.cdma.CdmaCellLocation'
p733
sg15
(lp734
sg17
(lp735
sg19
(lp736
sg21
I0
sbasg71
(lp737
g719
ag726
ag733
asg21
I0
sg73
S'1359'
p738
sbasS'target_sub'
p739
S'135'
p740
sg71
(lp741
sS'is_component_arch'
p742
I01
sg73
S'7.0.0_r1'
p743
sba.