(lp0
(iArchitecture
Architecture
p1
(dp2
S'clusters'
p3
(lp4
(iArchitecture
Cluster
p5
(dp6
S'entities'
p7
(lp8
(iArchitecture
Entity
p9
(dp10
S'issue_ids'
p11
(lp12
sS'name'
p13
S'com.android.server.net.NetworkStatsObservers'
p14
sS'descs'
p15
(lp16
sS'labels'
p17
(lp18
sS'titles'
p19
(lp20
sS'change'
p21
I0
sba(iArchitecture
Entity
p22
(dp23
g11
(lp24
sg13
S'com.android.server.net.NetworkStatsObservers$1'
p25
sg15
(lp26
sg17
(lp27
sg19
(lp28
sg21
I0
sba(iArchitecture
Entity
p29
(dp30
g11
(lp31
sg13
S'com.android.server.net.NetworkStatsObservers$NetworkUsageRequestInfo'
p32
sg15
(lp33
sg17
(lp34
sg19
(lp35
sg21
I0
sba(iArchitecture
Entity
p36
(dp37
g11
(lp38
sg13
S'com.android.server.net.NetworkStatsObservers$RequestInfo'
p39
sg15
(lp40
sg17
(lp41
sg19
(lp42
sg21
I0
sba(iArchitecture
Entity
p43
(dp44
g11
(lp45
sg13
S'com.android.server.net.NetworkStatsObservers$StatsContext'
p46
sg15
(lp47
sg17
(lp48
sg19
(lp49
sg21
I0
sba(iArchitecture
Entity
p50
(dp51
g11
(lp52
sg13
S'com.android.server.net.NetworkStatsObservers$UserUsageRequestInfo'
p53
sg15
(lp54
sg17
(lp55
sg19
(lp56
sg21
I0
sbasS'classes'
p57
(lp58
g14
ag25
ag32
ag39
ag46
ag53
asg21
I0
sS'label'
p59
S'1075'
p60
sba(iArchitecture
Cluster
p61
(dp62
g7
(lp63
(iArchitecture
Entity
p64
(dp65
g11
(lp66
sg13
S'android.media.tv.TvContract'
p67
sg15
(lp68
sg17
(lp69
sg19
(lp70
sg21
I0
sba(iArchitecture
Entity
p71
(dp72
g11
(lp73
sg13
S'android.media.tv.TvContract$BaseTvColumns'
p74
sg15
(lp75
sg17
(lp76
sg19
(lp77
sg21
I0
sba(iArchitecture
Entity
p78
(dp79
g11
(lp80
sg13
S'android.media.tv.TvContract$Channels'
p81
sg15
(lp82
sg17
(lp83
sg19
(lp84
sg21
I0
sba(iArchitecture
Entity
p85
(dp86
g11
(lp87
sg13
S'android.media.tv.TvContract$Channels$Logo'
p88
sg15
(lp89
sg17
(lp90
sg19
(lp91
sg21
I0
sba(iArchitecture
Entity
p92
(dp93
g11
(lp94
sg13
S'android.media.tv.TvContract$Programs'
p95
sg15
(lp96
sg17
(lp97
sg19
(lp98
sg21
I0
sba(iArchitecture
Entity
p99
(dp100
g11
(lp101
sg13
S'android.media.tv.TvContract$Programs$Genres'
p102
sg15
(lp103
sg17
(lp104
sg19
(lp105
sg21
I0
sba(iArchitecture
Entity
p106
(dp107
g11
(lp108
sg13
S'android.media.tv.TvContract$RecordedPrograms'
p109
sg15
(lp110
sg17
(lp111
sg19
(lp112
sg21
I0
sba(iArchitecture
Entity
p113
(dp114
g11
(lp115
sg13
S'android.media.tv.TvContract$WatchedPrograms'
p116
sg15
(lp117
sg17
(lp118
sg19
(lp119
sg21
I0
sbasg57
(lp120
g67
ag74
ag81
ag88
ag95
ag102
ag109
ag116
asg21
I0
sg59
S'1175'
p121
sba(iArchitecture
Cluster
p122
(dp123
g7
(lp124
(iArchitecture
Entity
p125
(dp126
g11
(lp127
sg13
S'com.android.server.firewall.PortFilter'
p128
sg15
(lp129
sg17
(lp130
sg19
(lp131
sg21
I0
sba(iArchitecture
Entity
p132
(dp133
g11
(lp134
sg13
S'com.android.server.firewall.PortFilter$1'
p135
sg15
(lp136
sg17
(lp137
sg19
(lp138
sg21
I0
sba(iArchitecture
Entity
p139
(dp140
g11
(lp141
sg13
S'com.android.server.pm.CrossProfileIntentFilter'
p142
sg15
(lp143
sg17
(lp144
sg19
(lp145
sg21
I0
sba(iArchitecture
Entity
p146
(dp147
g11
(lp148
sg13
S'com.android.server.pm.PersistentPreferredActivity'
p149
sg15
(lp150
sg17
(lp151
sg19
(lp152
sg21
I0
sba(iArchitecture
Entity
p153
(dp154
g11
(lp155
sg13
S'com.android.server.pm.PreferredActivity'
p156
sg15
(lp157
sg17
(lp158
sg19
(lp159
sg21
I0
sbasg57
(lp160
g128
ag135
ag142
ag149
ag156
asg21
I0
sg59
S'1275'
p161
sba(iArchitecture
Cluster
p162
(dp163
g7
(lp164
(iArchitecture
Entity
p165
(dp166
g11
(lp167
sg13
S'android.accounts.AccountManager'
p168
sg15
(lp169
sg17
(lp170
sg19
(lp171
sg21
I0
sba(iArchitecture
Entity
p172
(dp173
g11
(lp174
sg13
S'android.accounts.AccountManager$1'
p175
sg15
(lp176
sg17
(lp177
sg19
(lp178
sg21
I0
sba(iArchitecture
Entity
p179
(dp180
g11
(lp181
sg13
S'android.accounts.AccountManager$10'
p182
sg15
(lp183
sg17
(lp184
sg19
(lp185
sg21
I0
sba(iArchitecture
Entity
p186
(dp187
g11
(lp188
sg13
S'android.accounts.AccountManager$11'
p189
sg15
(lp190
sg17
(lp191
sg19
(lp192
sg21
I0
sba(iArchitecture
Entity
p193
(dp194
g11
(lp195
sg13
S'android.accounts.AccountManager$12'
p196
sg15
(lp197
sg17
(lp198
sg19
(lp199
sg21
I0
sba(iArchitecture
Entity
p200
(dp201
g11
(lp202
sg13
S'android.accounts.AccountManager$13'
p203
sg15
(lp204
sg17
(lp205
sg19
(lp206
sg21
I0
sba(iArchitecture
Entity
p207
(dp208
g11
(lp209
sg13
S'android.accounts.AccountManager$14'
p210
sg15
(lp211
sg17
(lp212
sg19
(lp213
sg21
I0
sba(iArchitecture
Entity
p214
(dp215
g11
(lp216
sg13
S'android.accounts.AccountManager$15'
p217
sg15
(lp218
sg17
(lp219
sg19
(lp220
sg21
I0
sba(iArchitecture
Entity
p221
(dp222
g11
(lp223
sg13
S'android.accounts.AccountManager$16'
p224
sg15
(lp225
sg17
(lp226
sg19
(lp227
sg21
I0
sba(iArchitecture
Entity
p228
(dp229
g11
(lp230
sg13
S'android.accounts.AccountManager$17'
p231
sg15
(lp232
sg17
(lp233
sg19
(lp234
sg21
I0
sba(iArchitecture
Entity
p235
(dp236
g11
(lp237
sg13
S'android.accounts.AccountManager$18'
p238
sg15
(lp239
sg17
(lp240
sg19
(lp241
sg21
I0
sba(iArchitecture
Entity
p242
(dp243
g11
(lp244
sg13
S'android.accounts.AccountManager$19'
p245
sg15
(lp246
sg17
(lp247
sg19
(lp248
sg21
I0
sba(iArchitecture
Entity
p249
(dp250
g11
(lp251
sg13
S'android.accounts.AccountManager$2'
p252
sg15
(lp253
sg17
(lp254
sg19
(lp255
sg21
I0
sba(iArchitecture
Entity
p256
(dp257
g11
(lp258
sg13
S'android.accounts.AccountManager$20'
p259
sg15
(lp260
sg17
(lp261
sg19
(lp262
sg21
I0
sba(iArchitecture
Entity
p263
(dp264
g11
(lp265
sg13
S'android.accounts.AccountManager$21'
p266
sg15
(lp267
sg17
(lp268
sg19
(lp269
sg21
I0
sba(iArchitecture
Entity
p270
(dp271
g11
(lp272
sg13
S'android.accounts.AccountManager$22'
p273
sg15
(lp274
sg17
(lp275
sg19
(lp276
sg21
I0
sba(iArchitecture
Entity
p277
(dp278
g11
(lp279
sg13
S'android.accounts.AccountManager$23'
p280
sg15
(lp281
sg17
(lp282
sg19
(lp283
sg21
I0
sba(iArchitecture
Entity
p284
(dp285
g11
(lp286
sg13
S'android.accounts.AccountManager$3'
p287
sg15
(lp288
sg17
(lp289
sg19
(lp290
sg21
I0
sba(iArchitecture
Entity
p291
(dp292
g11
(lp293
sg13
S'android.accounts.AccountManager$4'
p294
sg15
(lp295
sg17
(lp296
sg19
(lp297
sg21
I0
sba(iArchitecture
Entity
p298
(dp299
g11
(lp300
sg13
S'android.accounts.AccountManager$5'
p301
sg15
(lp302
sg17
(lp303
sg19
(lp304
sg21
I0
sba(iArchitecture
Entity
p305
(dp306
g11
(lp307
sg13
S'android.accounts.AccountManager$6'
p308
sg15
(lp309
sg17
(lp310
sg19
(lp311
sg21
I0
sba(iArchitecture
Entity
p312
(dp313
g11
(lp314
sg13
S'android.accounts.AccountManager$7'
p315
sg15
(lp316
sg17
(lp317
sg19
(lp318
sg21
I0
sba(iArchitecture
Entity
p319
(dp320
g11
(lp321
sg13
S'android.accounts.AccountManager$8'
p322
sg15
(lp323
sg17
(lp324
sg19
(lp325
sg21
I0
sba(iArchitecture
Entity
p326
(dp327
g11
(lp328
sg13
S'android.accounts.AccountManager$9'
p329
sg15
(lp330
sg17
(lp331
sg19
(lp332
sg21
I0
sba(iArchitecture
Entity
p333
(dp334
g11
(lp335
sg13
S'android.accounts.AccountManager$AmsTask'
p336
sg15
(lp337
sg17
(lp338
sg19
(lp339
sg21
I0
sba(iArchitecture
Entity
p340
(dp341
g11
(lp342
sg13
S'android.accounts.AccountManager$AmsTask$1'
p343
sg15
(lp344
sg17
(lp345
sg19
(lp346
sg21
I0
sba(iArchitecture
Entity
p347
(dp348
g11
(lp349
sg13
S'android.accounts.AccountManager$AmsTask$Response'
p350
sg15
(lp351
sg17
(lp352
sg19
(lp353
sg21
I0
sba(iArchitecture
Entity
p354
(dp355
g11
(lp356
sg13
S'android.accounts.AccountManager$BaseFutureTask'
p357
sg15
(lp358
sg17
(lp359
sg19
(lp360
sg21
I0
sba(iArchitecture
Entity
p361
(dp362
g11
(lp363
sg13
S'android.accounts.AccountManager$BaseFutureTask$1'
p364
sg15
(lp365
sg17
(lp366
sg19
(lp367
sg21
I0
sba(iArchitecture
Entity
p368
(dp369
g11
(lp370
sg13
S'android.accounts.AccountManager$BaseFutureTask$Response'
p371
sg15
(lp372
sg17
(lp373
sg19
(lp374
sg21
I0
sba(iArchitecture
Entity
p375
(dp376
g11
(lp377
sg13
S'android.accounts.AccountManager$Future2Task'
p378
sg15
(lp379
sg17
(lp380
sg19
(lp381
sg21
I0
sba(iArchitecture
Entity
p382
(dp383
g11
(lp384
sg13
S'android.accounts.AccountManager$Future2Task$1'
p385
sg15
(lp386
sg17
(lp387
sg19
(lp388
sg21
I0
sba(iArchitecture
Entity
p389
(dp390
g11
(lp391
sg13
S'android.accounts.AccountManager$GetAuthTokenByTypeAndFeaturesTask'
p392
sg15
(lp393
sg17
(lp394
sg19
(lp395
sg21
I0
sba(iArchitecture
Entity
p396
(dp397
g11
(lp398
sg13
S'android.accounts.AccountManager$GetAuthTokenByTypeAndFeaturesTask$1'
p399
sg15
(lp400
sg17
(lp401
sg19
(lp402
sg21
I0
sba(iArchitecture
Entity
p403
(dp404
g11
(lp405
sg13
S'android.accounts.AccountManager$GetAuthTokenByTypeAndFeaturesTask$1$1'
p406
sg15
(lp407
sg17
(lp408
sg19
(lp409
sg21
I0
sba(iArchitecture
Entity
p410
(dp411
g11
(lp412
sg13
S'android.accounts.AccountManagerFuture'
p413
sg15
(lp414
sg17
(lp415
sg19
(lp416
sg21
I0
sba(iArchitecture
Entity
p417
(dp418
g11
(lp419
sg13
S'android.os.AsyncTask'
p420
sg15
(lp421
sg17
(lp422
sg19
(lp423
sg21
I0
sba(iArchitecture
Entity
p424
(dp425
g11
(lp426
sg13
S'android.os.AsyncTask$1'
p427
sg15
(lp428
sg17
(lp429
sg19
(lp430
sg21
I0
sba(iArchitecture
Entity
p431
(dp432
g11
(lp433
sg13
S'android.os.AsyncTask$2'
p434
sg15
(lp435
sg17
(lp436
sg19
(lp437
sg21
I0
sba(iArchitecture
Entity
p438
(dp439
g11
(lp440
sg13
S'android.os.AsyncTask$3'
p441
sg15
(lp442
sg17
(lp443
sg19
(lp444
sg21
I0
sba(iArchitecture
Entity
p445
(dp446
g11
(lp447
sg13
S'android.os.AsyncTask$AsyncTaskResult'
p448
sg15
(lp449
sg17
(lp450
sg19
(lp451
sg21
I0
sba(iArchitecture
Entity
p452
(dp453
g11
(lp454
sg13
S'android.os.AsyncTask$InternalHandler'
p455
sg15
(lp456
sg17
(lp457
sg19
(lp458
sg21
I0
sba(iArchitecture
Entity
p459
(dp460
g11
(lp461
sg13
S'android.os.AsyncTask$SerialExecutor'
p462
sg15
(lp463
sg17
(lp464
sg19
(lp465
sg21
I0
sba(iArchitecture
Entity
p466
(dp467
g11
(lp468
sg13
S'android.os.AsyncTask$SerialExecutor$1'
p469
sg15
(lp470
sg17
(lp471
sg19
(lp472
sg21
I0
sba(iArchitecture
Entity
p473
(dp474
g11
(lp475
sg13
S'android.os.AsyncTask$Status'
p476
sg15
(lp477
sg17
(lp478
sg19
(lp479
sg21
I0
sba(iArchitecture
Entity
p480
(dp481
g11
(lp482
sg13
S'android.os.AsyncTask$WorkerRunnable'
p483
sg15
(lp484
sg17
(lp485
sg19
(lp486
sg21
I0
sba(iArchitecture
Entity
p487
(dp488
g11
(lp489
sg13
S'android.telecom.Call'
p490
sg15
(lp491
sg17
(lp492
sg19
(lp493
sg21
I0
sba(iArchitecture
Entity
p494
(dp495
g11
(lp496
sg13
S'android.telecom.Call$1'
p497
sg15
(lp498
sg17
(lp499
sg19
(lp500
sg21
I0
sba(iArchitecture
Entity
p501
(dp502
g11
(lp503
sg13
S'android.telecom.Call$10'
p504
sg15
(lp505
sg17
(lp506
sg19
(lp507
sg21
I0
sba(iArchitecture
Entity
p508
(dp509
g11
(lp510
sg13
S'android.telecom.Call$2'
p511
sg15
(lp512
sg17
(lp513
sg19
(lp514
sg21
I0
sba(iArchitecture
Entity
p515
(dp516
g11
(lp517
sg13
S'android.telecom.Call$3'
p518
sg15
(lp519
sg17
(lp520
sg19
(lp521
sg21
I0
sba(iArchitecture
Entity
p522
(dp523
g11
(lp524
sg13
S'android.telecom.Call$4'
p525
sg15
(lp526
sg17
(lp527
sg19
(lp528
sg21
I0
sba(iArchitecture
Entity
p529
(dp530
g11
(lp531
sg13
S'android.telecom.Call$5'
p532
sg15
(lp533
sg17
(lp534
sg19
(lp535
sg21
I0
sba(iArchitecture
Entity
p536
(dp537
g11
(lp538
sg13
S'android.telecom.Call$6'
p539
sg15
(lp540
sg17
(lp541
sg19
(lp542
sg21
I0
sba(iArchitecture
Entity
p543
(dp544
g11
(lp545
sg13
S'android.telecom.Call$7'
p546
sg15
(lp547
sg17
(lp548
sg19
(lp549
sg21
I0
sba(iArchitecture
Entity
p550
(dp551
g11
(lp552
sg13
S'android.telecom.Call$8'
p553
sg15
(lp554
sg17
(lp555
sg19
(lp556
sg21
I0
sba(iArchitecture
Entity
p557
(dp558
g11
(lp559
sg13
S'android.telecom.Call$9'
p560
sg15
(lp561
sg17
(lp562
sg19
(lp563
sg21
I0
sba(iArchitecture
Entity
p564
(dp565
g11
(lp566
sg13
S'android.telecom.Call$Callback'
p567
sg15
(lp568
sg17
(lp569
sg19
(lp570
sg21
I0
sba(iArchitecture
Entity
p571
(dp572
g11
(lp573
sg13
S'android.telecom.Call$Details'
p574
sg15
(lp575
sg17
(lp576
sg19
(lp577
sg21
I0
sba(iArchitecture
Entity
p578
(dp579
g11
(lp580
sg13
S'android.telecom.Call$Listener'
p581
sg15
(lp582
sg17
(lp583
sg19
(lp584
sg21
I0
sba(iArchitecture
Entity
p585
(dp586
g11
(lp587
sg13
S'android.telecom.InCallAdapter'
p588
sg15
(lp589
sg17
(lp590
sg19
(lp591
sg21
I0
sbasg57
(lp592
g168
ag175
ag182
ag189
ag196
ag203
ag210
ag217
ag224
ag231
ag238
ag245
ag252
ag259
ag266
ag273
ag280
ag287
ag294
ag301
ag308
ag315
ag322
ag329
ag336
ag343
ag350
ag357
ag364
ag371
ag378
ag385
ag392
ag399
ag406
ag413
ag420
ag427
ag434
ag441
ag448
ag455
ag462
ag469
ag476
ag483
ag490
ag497
ag504
ag511
ag518
ag525
ag532
ag539
ag546
ag553
ag560
ag567
ag574
ag581
ag588
asg21
I0
sg59
S'1375'
p593
sba(iArchitecture
Cluster
p594
(dp595
g7
(lp596
(iArchitecture
Entity
p597
(dp598
g11
(lp599
sg13
S'android.hardware.camera2.params.InputConfiguration'
p600
sg15
(lp601
sg17
(lp602
sg19
(lp603
sg21
I0
sbasg57
(lp604
g600
asg21
I0
sg59
S'175'
p605
sba(iArchitecture
Cluster
p606
(dp607
g7
(lp608
(iArchitecture
Entity
p609
(dp610
g11
(lp611
sg13
S'android.bluetooth.BluetoothAssignedNumbers'
p612
sg15
(lp613
sg17
(lp614
sg19
(lp615
sg21
I0
sbasg57
(lp616
g612
asg21
I0
sg59
S'275'
p617
sba(iArchitecture
Cluster
p618
(dp619
g7
(lp620
(iArchitecture
Entity
p621
(dp622
g11
(lp623
sg13
S'android.media.MediaHTTPConnection'
p624
sg15
(lp625
sg17
(lp626
sg19
(lp627
sg21
I0
sbasg57
(lp628
g624
asg21
I0
sg59
S'375'
p629
sba(iArchitecture
Cluster
p630
(dp631
g7
(lp632
(iArchitecture
Entity
p633
(dp634
g11
(lp635
sg13
S'android.net.WebAddress'
p636
sg15
(lp637
sg17
(lp638
sg19
(lp639
sg21
I0
sbasg57
(lp640
g636
asg21
I0
sg59
S'475'
p641
sba(iArchitecture
Cluster
p642
(dp643
g7
(lp644
(iArchitecture
Entity
p645
(dp646
g11
(lp647
sg13
S'android.net.NetworkState'
p648
sg15
(lp649
sg17
(lp650
sg19
(lp651
sg21
I0
sba(iArchitecture
Entity
p652
(dp653
g11
(lp654
sg13
S'android.net.NetworkState$1'
p655
sg15
(lp656
sg17
(lp657
sg19
(lp658
sg21
I0
sbasg57
(lp659
g648
ag655
asg21
I0
sg59
S'575'
p660
sba(iArchitecture
Cluster
p661
(dp662
g7
(lp663
(iArchitecture
Entity
p664
(dp665
g11
(lp666
sg13
S'android.nfc.cardemulation.AidGroup'
p667
sg15
(lp668
sg17
(lp669
sg19
(lp670
sg21
I0
sba(iArchitecture
Entity
p671
(dp672
g11
(lp673
sg13
S'android.nfc.cardemulation.AidGroup$1'
p674
sg15
(lp675
sg17
(lp676
sg19
(lp677
sg21
I0
sbasg57
(lp678
g667
ag674
asg21
I0
sg59
S'675'
p679
sba(iArchitecture
Cluster
p680
(dp681
g7
(lp682
(iArchitecture
Entity
p683
(dp684
g11
(lp685
sg13
S'android.hardware.camera2.params.RggbChannelVector'
p686
sg15
(lp687
sg17
(lp688
sg19
(lp689
sg21
I0
sbasg57
(lp690
g686
asg21
I0
sg59
S'75'
p691
sba(iArchitecture
Cluster
p692
(dp693
g7
(lp694
(iArchitecture
Entity
p695
(dp696
g11
(lp697
sg13
S'android.view.textservice.TextInfo'
p698
sg15
(lp699
sg17
(lp700
sg19
(lp701
sg21
I0
sba(iArchitecture
Entity
p702
(dp703
g11
(lp704
sg13
S'android.view.textservice.TextInfo$1'
p705
sg15
(lp706
sg17
(lp707
sg19
(lp708
sg21
I0
sbasg57
(lp709
g698
ag705
asg21
I0
sg59
S'750'
p710
sba(iArchitecture
Cluster
p711
(dp712
g7
(lp713
(iArchitecture
Entity
p714
(dp715
g11
(lp716
sg13
S'android.nfc.TransceiveResult'
p717
sg15
(lp718
sg17
(lp719
sg19
(lp720
sg21
I0
sba(iArchitecture
Entity
p721
(dp722
g11
(lp723
sg13
S'android.nfc.TransceiveResult$1'
p724
sg15
(lp725
sg17
(lp726
sg19
(lp727
sg21
I0
sbasg57
(lp728
g717
ag724
asg21
I0
sg59
S'751'
p729
sba(iArchitecture
Cluster
p730
(dp731
g7
(lp732
(iArchitecture
Entity
p733
(dp734
g11
(lp735
sg13
S'android.filterpacks.videoproc.BackDropperFilter'
p736
sg15
(lp737
sg17
(lp738
sg19
(lp739
sg21
I0
sba(iArchitecture
Entity
p740
(dp741
g11
(lp742
sg13
S'android.filterpacks.videoproc.BackDropperFilter$LearningDoneListener'
p743
sg15
(lp744
sg17
(lp745
sg19
(lp746
sg21
I0
sbasg57
(lp747
g736
ag743
asg21
I0
sg59
S'752'
p748
sba(iArchitecture
Cluster
p749
(dp750
g7
(lp751
(iArchitecture
Entity
p752
(dp753
g11
(lp754
sg13
S'com.android.server.hdmi.OneTouchRecordAction'
p755
sg15
(lp756
sg17
(lp757
sg19
(lp758
sg21
I0
sba(iArchitecture
Entity
p759
(dp760
g11
(lp761
sg13
S'com.android.server.hdmi.OneTouchRecordAction$1'
p762
sg15
(lp763
sg17
(lp764
sg19
(lp765
sg21
I0
sbasg57
(lp766
g755
ag762
asg21
I0
sg59
S'753'
p767
sba(iArchitecture
Cluster
p768
(dp769
g7
(lp770
(iArchitecture
Entity
p771
(dp772
g11
(lp773
sg13
S'android.hardware.camera2.legacy.CaptureCollector'
p774
sg15
(lp775
sg17
(lp776
sg19
(lp777
sg21
I0
sba(iArchitecture
Entity
p778
(dp779
g11
(lp780
sg13
S'android.hardware.camera2.legacy.CaptureCollector$CaptureHolder'
p781
sg15
(lp782
sg17
(lp783
sg19
(lp784
sg21
I0
sbasg57
(lp785
g774
ag781
asg21
I0
sg59
S'754'
p786
sba(iArchitecture
Cluster
p787
(dp788
g7
(lp789
(iArchitecture
Entity
p790
(dp791
g11
(lp792
sg13
S'android.media.Rating'
p793
sg15
(lp794
sg17
(lp795
sg19
(lp796
sg21
I0
sba(iArchitecture
Entity
p797
(dp798
g11
(lp799
sg13
S'android.media.Rating$1'
p800
sg15
(lp801
sg17
(lp802
sg19
(lp803
sg21
I0
sbasg57
(lp804
g793
ag800
asg21
I0
sg59
S'755'
p805
sba(iArchitecture
Cluster
p806
(dp807
g7
(lp808
(iArchitecture
Entity
p809
(dp810
g11
(lp811
sg13
S'com.android.server.hdmi.TimerRecordingAction'
p812
sg15
(lp813
sg17
(lp814
sg19
(lp815
sg21
I0
sba(iArchitecture
Entity
p816
(dp817
g11
(lp818
sg13
S'com.android.server.hdmi.TimerRecordingAction$1'
p819
sg15
(lp820
sg17
(lp821
sg19
(lp822
sg21
I0
sbasg57
(lp823
g812
ag819
asg21
I0
sg59
S'756'
p824
sba(iArchitecture
Cluster
p825
(dp826
g7
(lp827
(iArchitecture
Entity
p828
(dp829
g11
(lp830
sg13
S'android.os.UserHandle'
p831
sg15
(lp832
sg17
(lp833
sg19
(lp834
sg21
I0
sba(iArchitecture
Entity
p835
(dp836
g11
(lp837
sg13
S'android.os.UserHandle$1'
p838
sg15
(lp839
sg17
(lp840
sg19
(lp841
sg21
I0
sbasg57
(lp842
g831
ag838
asg21
I0
sg59
S'757'
p843
sba(iArchitecture
Cluster
p844
(dp845
g7
(lp846
(iArchitecture
Entity
p847
(dp848
g11
(lp849
sg13
S'android.ddm.DdmHandleViewDebug'
p850
sg15
(lp851
sg17
(lp852
sg19
(lp853
sg21
I0
sba(iArchitecture
Entity
p854
(dp855
g11
(lp856
sg13
S'android.ddm.DdmHandleViewDebug$1'
p857
sg15
(lp858
sg17
(lp859
sg19
(lp860
sg21
I0
sbasg57
(lp861
g850
ag857
asg21
I0
sg59
S'758'
p862
sba(iArchitecture
Cluster
p863
(dp864
g7
(lp865
(iArchitecture
Entity
p866
(dp867
g11
(lp868
sg13
S'com.android.server.wm.DimLayer'
p869
sg15
(lp870
sg17
(lp871
sg19
(lp872
sg21
I0
sba(iArchitecture
Entity
p873
(dp874
g11
(lp875
sg13
S'com.android.server.wm.DimLayer$DimLayerUser'
p876
sg15
(lp877
sg17
(lp878
sg19
(lp879
sg21
I0
sbasg57
(lp880
g869
ag876
asg21
I0
sg59
S'759'
p881
sba(iArchitecture
Cluster
p882
(dp883
g7
(lp884
(iArchitecture
Entity
p885
(dp886
g11
(lp887
sg13
S'android.text.DynamicLayout'
p888
sg15
(lp889
sg17
(lp890
sg19
(lp891
sg21
I0
sba(iArchitecture
Entity
p892
(dp893
g11
(lp894
sg13
S'android.text.DynamicLayout$ChangeWatcher'
p895
sg15
(lp896
sg17
(lp897
sg19
(lp898
sg21
I0
sbasg57
(lp899
g888
ag895
asg21
I0
sg59
S'775'
p900
sba(iArchitecture
Cluster
p901
(dp902
g7
(lp903
(iArchitecture
Entity
p904
(dp905
g11
(lp906
sg13
S'android.widget.ForwardingListener'
p907
sg15
(lp908
sg17
(lp909
sg19
(lp910
sg21
I0
sba(iArchitecture
Entity
p911
(dp912
g11
(lp913
sg13
S'android.widget.ForwardingListener$DisallowIntercept'
p914
sg15
(lp915
sg17
(lp916
sg19
(lp917
sg21
I0
sba(iArchitecture
Entity
p918
(dp919
g11
(lp920
sg13
S'android.widget.ForwardingListener$TriggerLongPress'
p921
sg15
(lp922
sg17
(lp923
sg19
(lp924
sg21
I0
sbasg57
(lp925
g907
ag914
ag921
asg21
I0
sg59
S'875'
p926
sba(iArchitecture
Cluster
p927
(dp928
g7
(lp929
(iArchitecture
Entity
p930
(dp931
g11
(lp932
sg13
S'android.widget.RadialTimePickerView'
p933
sg15
(lp934
sg17
(lp935
sg19
(lp936
sg21
I0
sba(iArchitecture
Entity
p937
(dp938
g11
(lp939
sg13
S'android.widget.RadialTimePickerView$1'
p940
sg15
(lp941
sg17
(lp942
sg19
(lp943
sg21
I0
sba(iArchitecture
Entity
p944
(dp945
g11
(lp946
sg13
S'android.widget.RadialTimePickerView$OnValueSelectedListener'
p947
sg15
(lp948
sg17
(lp949
sg19
(lp950
sg21
I0
sba(iArchitecture
Entity
p951
(dp952
g11
(lp953
sg13
S'android.widget.RadialTimePickerView$RadialPickerTouchHelper'
p954
sg15
(lp955
sg17
(lp956
sg19
(lp957
sg21
I0
sbasg57
(lp958
g933
ag940
ag947
ag954
asg21
I0
sg59
S'975'
p959
sbasS'target_sub'
p960
S'75'
p961
sg57
(lp962
sS'is_component_arch'
p963
I01
sg59
S'7.0.0_r1'
p964
sba.