(lp0
(iArchitecture
Architecture
p1
(dp2
S'clusters'
p3
(lp4
(iArchitecture
Cluster
p5
(dp6
S'entities'
p7
(lp8
(iArchitecture
Entity
p9
(dp10
S'issue_ids'
p11
(lp12
sS'name'
p13
S'android.security.KeyChain'
p14
sS'descs'
p15
(lp16
sS'labels'
p17
(lp18
sS'titles'
p19
(lp20
sS'change'
p21
I0
sba(iArchitecture
Entity
p22
(dp23
g11
(lp24
sg13
S'android.security.KeyChain$1'
p25
sg15
(lp26
sg17
(lp27
sg19
(lp28
sg21
I0
sba(iArchitecture
Entity
p29
(dp30
g11
(lp31
sg13
S'android.security.KeyChain$AliasResponse'
p32
sg15
(lp33
sg17
(lp34
sg19
(lp35
sg21
I0
sba(iArchitecture
Entity
p36
(dp37
g11
(lp38
sg13
S'android.security.KeyChain$KeyChainConnection'
p39
sg15
(lp40
sg17
(lp41
sg19
(lp42
sg21
I0
sbasS'classes'
p43
(lp44
g14
ag25
ag32
ag39
asg21
I0
sS'label'
p45
S'1015'
p46
sba(iArchitecture
Cluster
p47
(dp48
g7
(lp49
(iArchitecture
Entity
p50
(dp51
g11
(lp52
sg13
S'android.widget.ZoomButtonsController'
p53
sg15
(lp54
sg17
(lp55
sg19
(lp56
sg21
I0
sba(iArchitecture
Entity
p57
(dp58
g11
(lp59
sg13
S'android.widget.ZoomButtonsController$1'
p60
sg15
(lp61
sg17
(lp62
sg19
(lp63
sg21
I0
sba(iArchitecture
Entity
p64
(dp65
g11
(lp66
sg13
S'android.widget.ZoomButtonsController$2'
p67
sg15
(lp68
sg17
(lp69
sg19
(lp70
sg21
I0
sba(iArchitecture
Entity
p71
(dp72
g11
(lp73
sg13
S'android.widget.ZoomButtonsController$3'
p74
sg15
(lp75
sg17
(lp76
sg19
(lp77
sg21
I0
sba(iArchitecture
Entity
p78
(dp79
g11
(lp80
sg13
S'android.widget.ZoomButtonsController$4'
p81
sg15
(lp82
sg17
(lp83
sg19
(lp84
sg21
I0
sba(iArchitecture
Entity
p85
(dp86
g11
(lp87
sg13
S'android.widget.ZoomButtonsController$5'
p88
sg15
(lp89
sg17
(lp90
sg19
(lp91
sg21
I0
sba(iArchitecture
Entity
p92
(dp93
g11
(lp94
sg13
S'android.widget.ZoomButtonsController$Container'
p95
sg15
(lp96
sg17
(lp97
sg19
(lp98
sg21
I0
sba(iArchitecture
Entity
p99
(dp100
g11
(lp101
sg13
S'android.widget.ZoomButtonsController$OnZoomListener'
p102
sg15
(lp103
sg17
(lp104
sg19
(lp105
sg21
I0
sbasg43
(lp106
g53
ag60
ag67
ag74
ag81
ag88
ag95
ag102
asg21
I0
sg45
S'1115'
p107
sba(iArchitecture
Cluster
p108
(dp109
g7
(lp110
(iArchitecture
Entity
p111
(dp112
g11
(lp113
sg13
S'com.android.server.wm.WindowStateAnimator'
p114
sg15
(lp115
sg17
(lp116
sg19
(lp117
sg21
I0
sbasg43
(lp118
g114
asg21
I0
sg45
S'115'
p119
sba(iArchitecture
Cluster
p120
(dp121
g7
(lp122
(iArchitecture
Entity
p123
(dp124
g11
(lp125
sg13
S'android.media.audiopolicy.AudioPolicy'
p126
sg15
(lp127
sg17
(lp128
sg19
(lp129
sg21
I0
sba(iArchitecture
Entity
p130
(dp131
g11
(lp132
sg13
S'android.media.audiopolicy.AudioPolicy$1'
p133
sg15
(lp134
sg17
(lp135
sg19
(lp136
sg21
I0
sba(iArchitecture
Entity
p137
(dp138
g11
(lp139
sg13
S'android.media.audiopolicy.AudioPolicy$AudioPolicyFocusListener'
p140
sg15
(lp141
sg17
(lp142
sg19
(lp143
sg21
I0
sba(iArchitecture
Entity
p144
(dp145
g11
(lp146
sg13
S'android.media.audiopolicy.AudioPolicy$AudioPolicyStatusListener'
p147
sg15
(lp148
sg17
(lp149
sg19
(lp150
sg21
I0
sba(iArchitecture
Entity
p151
(dp152
g11
(lp153
sg13
S'android.media.audiopolicy.AudioPolicy$Builder'
p154
sg15
(lp155
sg17
(lp156
sg19
(lp157
sg21
I0
sba(iArchitecture
Entity
p158
(dp159
g11
(lp160
sg13
S'android.media.audiopolicy.AudioPolicy$EventHandler'
p161
sg15
(lp162
sg17
(lp163
sg19
(lp164
sg21
I0
sbasg43
(lp165
g126
ag133
ag140
ag147
ag154
ag161
asg21
I0
sg45
S'1150'
p166
sba(iArchitecture
Cluster
p167
(dp168
g7
(lp169
(iArchitecture
Entity
p170
(dp171
g11
(lp172
sg13
S'android.transition.ChangeTransform'
p173
sg15
(lp174
sg17
(lp175
sg19
(lp176
sg21
I0
sba(iArchitecture
Entity
p177
(dp178
g11
(lp179
sg13
S'android.transition.ChangeTransform$1'
p180
sg15
(lp181
sg17
(lp182
sg19
(lp183
sg21
I0
sba(iArchitecture
Entity
p184
(dp185
g11
(lp186
sg13
S'android.transition.ChangeTransform$2'
p187
sg15
(lp188
sg17
(lp189
sg19
(lp190
sg21
I0
sba(iArchitecture
Entity
p191
(dp192
g11
(lp193
sg13
S'android.transition.ChangeTransform$3'
p194
sg15
(lp195
sg17
(lp196
sg19
(lp197
sg21
I0
sba(iArchitecture
Entity
p198
(dp199
g11
(lp200
sg13
S'android.transition.ChangeTransform$GhostListener'
p201
sg15
(lp202
sg17
(lp203
sg19
(lp204
sg21
I0
sba(iArchitecture
Entity
p205
(dp206
g11
(lp207
sg13
S'android.transition.ChangeTransform$PathAnimatorMatrix'
p208
sg15
(lp209
sg17
(lp210
sg19
(lp211
sg21
I0
sba(iArchitecture
Entity
p212
(dp213
g11
(lp214
sg13
S'android.transition.ChangeTransform$Transforms'
p215
sg15
(lp216
sg17
(lp217
sg19
(lp218
sg21
I0
sbasg43
(lp219
g173
ag180
ag187
ag194
ag201
ag208
ag215
asg21
I0
sg45
S'1151'
p220
sba(iArchitecture
Cluster
p221
(dp222
g7
(lp223
(iArchitecture
Entity
p224
(dp225
g11
(lp226
sg13
S'android.service.dreams.DreamService'
p227
sg15
(lp228
sg17
(lp229
sg19
(lp230
sg21
I0
sba(iArchitecture
Entity
p231
(dp232
g11
(lp233
sg13
S'android.service.dreams.DreamService$1'
p234
sg15
(lp235
sg17
(lp236
sg19
(lp237
sg21
I0
sba(iArchitecture
Entity
p238
(dp239
g11
(lp240
sg13
S'android.service.dreams.DreamService$2'
p241
sg15
(lp242
sg17
(lp243
sg19
(lp244
sg21
I0
sba(iArchitecture
Entity
p245
(dp246
g11
(lp247
sg13
S'android.service.dreams.DreamService$DreamServiceWrapper'
p248
sg15
(lp249
sg17
(lp250
sg19
(lp251
sg21
I0
sba(iArchitecture
Entity
p252
(dp253
g11
(lp254
sg13
S'android.service.dreams.DreamService$DreamServiceWrapper$1'
p255
sg15
(lp256
sg17
(lp257
sg19
(lp258
sg21
I0
sba(iArchitecture
Entity
p259
(dp260
g11
(lp261
sg13
S'android.service.dreams.DreamService$DreamServiceWrapper$2'
p262
sg15
(lp263
sg17
(lp264
sg19
(lp265
sg21
I0
sba(iArchitecture
Entity
p266
(dp267
g11
(lp268
sg13
S'android.service.dreams.DreamService$DreamServiceWrapper$3'
p269
sg15
(lp270
sg17
(lp271
sg19
(lp272
sg21
I0
sbasg43
(lp273
g227
ag234
ag241
ag248
ag255
ag262
ag269
asg21
I0
sg45
S'1152'
p274
sba(iArchitecture
Cluster
p275
(dp276
g7
(lp277
(iArchitecture
Entity
p278
(dp279
g11
(lp280
sg13
S'android.media.SubtitleController'
p281
sg15
(lp282
sg17
(lp283
sg19
(lp284
sg21
I0
sba(iArchitecture
Entity
p285
(dp286
g11
(lp287
sg13
S'android.media.SubtitleController$1'
p288
sg15
(lp289
sg17
(lp290
sg19
(lp291
sg21
I0
sba(iArchitecture
Entity
p292
(dp293
g11
(lp294
sg13
S'android.media.SubtitleController$2'
p295
sg15
(lp296
sg17
(lp297
sg19
(lp298
sg21
I0
sba(iArchitecture
Entity
p299
(dp300
g11
(lp301
sg13
S'android.media.SubtitleController$Anchor'
p302
sg15
(lp303
sg17
(lp304
sg19
(lp305
sg21
I0
sba(iArchitecture
Entity
p306
(dp307
g11
(lp308
sg13
S'android.media.SubtitleController$Listener'
p309
sg15
(lp310
sg17
(lp311
sg19
(lp312
sg21
I0
sba(iArchitecture
Entity
p313
(dp314
g11
(lp315
sg13
S'android.media.SubtitleController$Renderer'
p316
sg15
(lp317
sg17
(lp318
sg19
(lp319
sg21
I0
sbasg43
(lp320
g281
ag288
ag295
ag302
ag309
ag316
asg21
I0
sg45
S'1153'
p321
sba(iArchitecture
Cluster
p322
(dp323
g7
(lp324
(iArchitecture
Entity
p325
(dp326
g11
(lp327
sg13
S'android.util.MapCollections'
p328
sg15
(lp329
sg17
(lp330
sg19
(lp331
sg21
I0
sba(iArchitecture
Entity
p332
(dp333
g11
(lp334
sg13
S'android.util.MapCollections$ArrayIterator'
p335
sg15
(lp336
sg17
(lp337
sg19
(lp338
sg21
I0
sba(iArchitecture
Entity
p339
(dp340
g11
(lp341
sg13
S'android.util.MapCollections$EntrySet'
p342
sg15
(lp343
sg17
(lp344
sg19
(lp345
sg21
I0
sba(iArchitecture
Entity
p346
(dp347
g11
(lp348
sg13
S'android.util.MapCollections$KeySet'
p349
sg15
(lp350
sg17
(lp351
sg19
(lp352
sg21
I0
sba(iArchitecture
Entity
p353
(dp354
g11
(lp355
sg13
S'android.util.MapCollections$MapIterator'
p356
sg15
(lp357
sg17
(lp358
sg19
(lp359
sg21
I0
sba(iArchitecture
Entity
p360
(dp361
g11
(lp362
sg13
S'android.util.MapCollections$ValuesCollection'
p363
sg15
(lp364
sg17
(lp365
sg19
(lp366
sg21
I0
sbasg43
(lp367
g328
ag335
ag342
ag349
ag356
ag363
asg21
I0
sg45
S'1154'
p368
sba(iArchitecture
Cluster
p369
(dp370
g7
(lp371
(iArchitecture
Entity
p372
(dp373
g11
(lp374
sg13
S'android.app.ActionBar'
p375
sg15
(lp376
sg17
(lp377
sg19
(lp378
sg21
I0
sba(iArchitecture
Entity
p379
(dp380
g11
(lp381
sg13
S'android.app.ActionBar$FollowOutOfActionBar'
p382
sg15
(lp383
sg17
(lp384
sg19
(lp385
sg21
I0
sba(iArchitecture
Entity
p386
(dp387
g11
(lp388
sg13
S'android.app.ActionBar$LayoutParams'
p389
sg15
(lp390
sg17
(lp391
sg19
(lp392
sg21
I0
sba(iArchitecture
Entity
p393
(dp394
g11
(lp395
sg13
S'android.app.ActionBar$OnMenuVisibilityListener'
p396
sg15
(lp397
sg17
(lp398
sg19
(lp399
sg21
I0
sba(iArchitecture
Entity
p400
(dp401
g11
(lp402
sg13
S'android.app.ActionBar$OnNavigationListener'
p403
sg15
(lp404
sg17
(lp405
sg19
(lp406
sg21
I0
sba(iArchitecture
Entity
p407
(dp408
g11
(lp409
sg13
S'android.app.ActionBar$Tab'
p410
sg15
(lp411
sg17
(lp412
sg19
(lp413
sg21
I0
sba(iArchitecture
Entity
p414
(dp415
g11
(lp416
sg13
S'android.app.ActionBar$TabListener'
p417
sg15
(lp418
sg17
(lp419
sg19
(lp420
sg21
I0
sbasg43
(lp421
g375
ag382
ag389
ag396
ag403
ag410
ag417
asg21
I0
sg45
S'1155'
p422
sba(iArchitecture
Cluster
p423
(dp424
g7
(lp425
(iArchitecture
Entity
p426
(dp427
g11
(lp428
sg13
S'com.android.server.wm.AppTransition'
p429
sg15
(lp430
sg17
(lp431
sg19
(lp432
sg21
I0
sba(iArchitecture
Entity
p433
(dp434
g11
(lp435
sg13
S'com.android.server.wm.AppTransition$1'
p436
sg15
(lp437
sg17
(lp438
sg19
(lp439
sg21
I0
sba(iArchitecture
Entity
p440
(dp441
g11
(lp442
sg13
S'com.android.server.wm.AppTransition$2'
p443
sg15
(lp444
sg17
(lp445
sg19
(lp446
sg21
I0
sba(iArchitecture
Entity
p447
(dp448
g11
(lp449
sg13
S'com.android.server.wm.AppTransition$3'
p450
sg15
(lp451
sg17
(lp452
sg19
(lp453
sg21
I0
sba(iArchitecture
Entity
p454
(dp455
g11
(lp456
sg13
S'com.android.server.wm.AppTransition$4'
p457
sg15
(lp458
sg17
(lp459
sg19
(lp460
sg21
I0
sbasg43
(lp461
g429
ag436
ag443
ag450
ag457
asg21
I0
sg45
S'1156'
p462
sba(iArchitecture
Cluster
p463
(dp464
g7
(lp465
(iArchitecture
Entity
p466
(dp467
g11
(lp468
sg13
S'com.android.internal.util.StateMachine'
p469
sg15
(lp470
sg17
(lp471
sg19
(lp472
sg21
I0
sba(iArchitecture
Entity
p473
(dp474
g11
(lp475
sg13
S'com.android.internal.util.StateMachine$LogRec'
p476
sg15
(lp477
sg17
(lp478
sg19
(lp479
sg21
I0
sba(iArchitecture
Entity
p480
(dp481
g11
(lp482
sg13
S'com.android.internal.util.StateMachine$LogRecords'
p483
sg15
(lp484
sg17
(lp485
sg19
(lp486
sg21
I0
sba(iArchitecture
Entity
p487
(dp488
g11
(lp489
sg13
S'com.android.internal.util.StateMachine$SmHandler'
p490
sg15
(lp491
sg17
(lp492
sg19
(lp493
sg21
I0
sba(iArchitecture
Entity
p494
(dp495
g11
(lp496
sg13
S'com.android.internal.util.StateMachine$SmHandler$HaltingState'
p497
sg15
(lp498
sg17
(lp499
sg19
(lp500
sg21
I0
sba(iArchitecture
Entity
p501
(dp502
g11
(lp503
sg13
S'com.android.internal.util.StateMachine$SmHandler$QuittingState'
p504
sg15
(lp505
sg17
(lp506
sg19
(lp507
sg21
I0
sba(iArchitecture
Entity
p508
(dp509
g11
(lp510
sg13
S'com.android.internal.util.StateMachine$SmHandler$StateInfo'
p511
sg15
(lp512
sg17
(lp513
sg19
(lp514
sg21
I0
sbasg43
(lp515
g469
ag476
ag483
ag490
ag497
ag504
ag511
asg21
I0
sg45
S'1157'
p516
sba(iArchitecture
Cluster
p517
(dp518
g7
(lp519
(iArchitecture
Entity
p520
(dp521
g11
(lp522
sg13
S'android.app.AppOpsManager'
p523
sg15
(lp524
sg17
(lp525
sg19
(lp526
sg21
I0
sba(iArchitecture
Entity
p527
(dp528
g11
(lp529
sg13
S'android.app.AppOpsManager$1'
p530
sg15
(lp531
sg17
(lp532
sg19
(lp533
sg21
I0
sba(iArchitecture
Entity
p534
(dp535
g11
(lp536
sg13
S'android.app.AppOpsManager$OnOpChangedInternalListener'
p537
sg15
(lp538
sg17
(lp539
sg19
(lp540
sg21
I0
sba(iArchitecture
Entity
p541
(dp542
g11
(lp543
sg13
S'android.app.AppOpsManager$OnOpChangedListener'
p544
sg15
(lp545
sg17
(lp546
sg19
(lp547
sg21
I0
sba(iArchitecture
Entity
p548
(dp549
g11
(lp550
sg13
S'android.app.AppOpsManager$OpEntry'
p551
sg15
(lp552
sg17
(lp553
sg19
(lp554
sg21
I0
sba(iArchitecture
Entity
p555
(dp556
g11
(lp557
sg13
S'android.app.AppOpsManager$OpEntry$1'
p558
sg15
(lp559
sg17
(lp560
sg19
(lp561
sg21
I0
sba(iArchitecture
Entity
p562
(dp563
g11
(lp564
sg13
S'android.app.AppOpsManager$PackageOps'
p565
sg15
(lp566
sg17
(lp567
sg19
(lp568
sg21
I0
sba(iArchitecture
Entity
p569
(dp570
g11
(lp571
sg13
S'android.app.AppOpsManager$PackageOps$1'
p572
sg15
(lp573
sg17
(lp574
sg19
(lp575
sg21
I0
sbasg43
(lp576
g523
ag530
ag537
ag544
ag551
ag558
ag565
ag572
asg21
I0
sg45
S'1158'
p577
sba(iArchitecture
Cluster
p578
(dp579
g7
(lp580
(iArchitecture
Entity
p581
(dp582
g11
(lp583
sg13
S'com.android.server.telecom.TelecomLoaderService'
p584
sg15
(lp585
sg17
(lp586
sg19
(lp587
sg21
I0
sba(iArchitecture
Entity
p588
(dp589
g11
(lp590
sg13
S'com.android.server.telecom.TelecomLoaderService$1'
p591
sg15
(lp592
sg17
(lp593
sg19
(lp594
sg21
I0
sba(iArchitecture
Entity
p595
(dp596
g11
(lp597
sg13
S'com.android.server.telecom.TelecomLoaderService$2'
p598
sg15
(lp599
sg17
(lp600
sg19
(lp601
sg21
I0
sba(iArchitecture
Entity
p602
(dp603
g11
(lp604
sg13
S'com.android.server.telecom.TelecomLoaderService$3'
p605
sg15
(lp606
sg17
(lp607
sg19
(lp608
sg21
I0
sba(iArchitecture
Entity
p609
(dp610
g11
(lp611
sg13
S'com.android.server.telecom.TelecomLoaderService$4'
p612
sg15
(lp613
sg17
(lp614
sg19
(lp615
sg21
I0
sba(iArchitecture
Entity
p616
(dp617
g11
(lp618
sg13
S'com.android.server.telecom.TelecomLoaderService$5'
p619
sg15
(lp620
sg17
(lp621
sg19
(lp622
sg21
I0
sba(iArchitecture
Entity
p623
(dp624
g11
(lp625
sg13
S'com.android.server.telecom.TelecomLoaderService$TelecomServiceConnection'
p626
sg15
(lp627
sg17
(lp628
sg19
(lp629
sg21
I0
sba(iArchitecture
Entity
p630
(dp631
g11
(lp632
sg13
S'com.android.server.telecom.TelecomLoaderService$TelecomServiceConnection$1'
p633
sg15
(lp634
sg17
(lp635
sg19
(lp636
sg21
I0
sbasg43
(lp637
g584
ag591
ag598
ag605
ag612
ag619
ag626
ag633
asg21
I0
sg45
S'1159'
p638
sba(iArchitecture
Cluster
p639
(dp640
g7
(lp641
(iArchitecture
Entity
p642
(dp643
g11
(lp644
sg13
S'android.opengl.GLSurfaceView'
p645
sg15
(lp646
sg17
(lp647
sg19
(lp648
sg21
I0
sba(iArchitecture
Entity
p649
(dp650
g11
(lp651
sg13
S'android.opengl.GLSurfaceView$BaseConfigChooser'
p652
sg15
(lp653
sg17
(lp654
sg19
(lp655
sg21
I0
sba(iArchitecture
Entity
p656
(dp657
g11
(lp658
sg13
S'android.opengl.GLSurfaceView$ComponentSizeChooser'
p659
sg15
(lp660
sg17
(lp661
sg19
(lp662
sg21
I0
sba(iArchitecture
Entity
p663
(dp664
g11
(lp665
sg13
S'android.opengl.GLSurfaceView$DefaultContextFactory'
p666
sg15
(lp667
sg17
(lp668
sg19
(lp669
sg21
I0
sba(iArchitecture
Entity
p670
(dp671
g11
(lp672
sg13
S'android.opengl.GLSurfaceView$DefaultWindowSurfaceFactory'
p673
sg15
(lp674
sg17
(lp675
sg19
(lp676
sg21
I0
sba(iArchitecture
Entity
p677
(dp678
g11
(lp679
sg13
S'android.opengl.GLSurfaceView$EGLConfigChooser'
p680
sg15
(lp681
sg17
(lp682
sg19
(lp683
sg21
I0
sba(iArchitecture
Entity
p684
(dp685
g11
(lp686
sg13
S'android.opengl.GLSurfaceView$EGLContextFactory'
p687
sg15
(lp688
sg17
(lp689
sg19
(lp690
sg21
I0
sba(iArchitecture
Entity
p691
(dp692
g11
(lp693
sg13
S'android.opengl.GLSurfaceView$EGLWindowSurfaceFactory'
p694
sg15
(lp695
sg17
(lp696
sg19
(lp697
sg21
I0
sba(iArchitecture
Entity
p698
(dp699
g11
(lp700
sg13
S'android.opengl.GLSurfaceView$EglHelper'
p701
sg15
(lp702
sg17
(lp703
sg19
(lp704
sg21
I0
sba(iArchitecture
Entity
p705
(dp706
g11
(lp707
sg13
S'android.opengl.GLSurfaceView$GLThread'
p708
sg15
(lp709
sg17
(lp710
sg19
(lp711
sg21
I0
sba(iArchitecture
Entity
p712
(dp713
g11
(lp714
sg13
S'android.opengl.GLSurfaceView$GLThreadManager'
p715
sg15
(lp716
sg17
(lp717
sg19
(lp718
sg21
I0
sba(iArchitecture
Entity
p719
(dp720
g11
(lp721
sg13
S'android.opengl.GLSurfaceView$GLWrapper'
p722
sg15
(lp723
sg17
(lp724
sg19
(lp725
sg21
I0
sba(iArchitecture
Entity
p726
(dp727
g11
(lp728
sg13
S'android.opengl.GLSurfaceView$LogWriter'
p729
sg15
(lp730
sg17
(lp731
sg19
(lp732
sg21
I0
sba(iArchitecture
Entity
p733
(dp734
g11
(lp735
sg13
S'android.opengl.GLSurfaceView$Renderer'
p736
sg15
(lp737
sg17
(lp738
sg19
(lp739
sg21
I0
sba(iArchitecture
Entity
p740
(dp741
g11
(lp742
sg13
S'android.opengl.GLSurfaceView$SimpleEGLConfigChooser'
p743
sg15
(lp744
sg17
(lp745
sg19
(lp746
sg21
I0
sbasg43
(lp747
g645
ag652
ag659
ag666
ag673
ag680
ag687
ag694
ag701
ag708
ag715
ag722
ag729
ag736
ag743
asg21
I0
sg45
S'1215'
p748
sba(iArchitecture
Cluster
p749
(dp750
g7
(lp751
(iArchitecture
Entity
p752
(dp753
g11
(lp754
sg13
S'android.net.dhcp.DhcpClient'
p755
sg15
(lp756
sg17
(lp757
sg19
(lp758
sg21
I0
sba(iArchitecture
Entity
p759
(dp760
g11
(lp761
sg13
S'android.net.dhcp.DhcpClient$ConfiguringInterfaceState'
p762
sg15
(lp763
sg17
(lp764
sg19
(lp765
sg21
I0
sba(iArchitecture
Entity
p766
(dp767
g11
(lp768
sg13
S'android.net.dhcp.DhcpClient$DhcpBoundState'
p769
sg15
(lp770
sg17
(lp771
sg19
(lp772
sg21
I0
sba(iArchitecture
Entity
p773
(dp774
g11
(lp775
sg13
S'android.net.dhcp.DhcpClient$DhcpHaveLeaseState'
p776
sg15
(lp777
sg17
(lp778
sg19
(lp779
sg21
I0
sba(iArchitecture
Entity
p780
(dp781
g11
(lp782
sg13
S'android.net.dhcp.DhcpClient$DhcpInitRebootState'
p783
sg15
(lp784
sg17
(lp785
sg19
(lp786
sg21
I0
sba(iArchitecture
Entity
p787
(dp788
g11
(lp789
sg13
S'android.net.dhcp.DhcpClient$DhcpInitState'
p790
sg15
(lp791
sg17
(lp792
sg19
(lp793
sg21
I0
sba(iArchitecture
Entity
p794
(dp795
g11
(lp796
sg13
S'android.net.dhcp.DhcpClient$DhcpReacquiringState'
p797
sg15
(lp798
sg17
(lp799
sg19
(lp800
sg21
I0
sba(iArchitecture
Entity
p801
(dp802
g11
(lp803
sg13
S'android.net.dhcp.DhcpClient$DhcpRebindingState'
p804
sg15
(lp805
sg17
(lp806
sg19
(lp807
sg21
I0
sba(iArchitecture
Entity
p808
(dp809
g11
(lp810
sg13
S'android.net.dhcp.DhcpClient$DhcpRebootingState'
p811
sg15
(lp812
sg17
(lp813
sg19
(lp814
sg21
I0
sba(iArchitecture
Entity
p815
(dp816
g11
(lp817
sg13
S'android.net.dhcp.DhcpClient$DhcpRenewingState'
p818
sg15
(lp819
sg17
(lp820
sg19
(lp821
sg21
I0
sba(iArchitecture
Entity
p822
(dp823
g11
(lp824
sg13
S'android.net.dhcp.DhcpClient$DhcpRequestingState'
p825
sg15
(lp826
sg17
(lp827
sg19
(lp828
sg21
I0
sba(iArchitecture
Entity
p829
(dp830
g11
(lp831
sg13
S'android.net.dhcp.DhcpClient$DhcpSelectingState'
p832
sg15
(lp833
sg17
(lp834
sg19
(lp835
sg21
I0
sba(iArchitecture
Entity
p836
(dp837
g11
(lp838
sg13
S'android.net.dhcp.DhcpClient$DhcpState'
p839
sg15
(lp840
sg17
(lp841
sg19
(lp842
sg21
I0
sba(iArchitecture
Entity
p843
(dp844
g11
(lp845
sg13
S'android.net.dhcp.DhcpClient$LoggingState'
p846
sg15
(lp847
sg17
(lp848
sg19
(lp849
sg21
I0
sba(iArchitecture
Entity
p850
(dp851
g11
(lp852
sg13
S'android.net.dhcp.DhcpClient$PacketRetransmittingState'
p853
sg15
(lp854
sg17
(lp855
sg19
(lp856
sg21
I0
sba(iArchitecture
Entity
p857
(dp858
g11
(lp859
sg13
S'android.net.dhcp.DhcpClient$ReceiveThread'
p860
sg15
(lp861
sg17
(lp862
sg19
(lp863
sg21
I0
sba(iArchitecture
Entity
p864
(dp865
g11
(lp866
sg13
S'android.net.dhcp.DhcpClient$StoppedState'
p867
sg15
(lp868
sg17
(lp869
sg19
(lp870
sg21
I0
sba(iArchitecture
Entity
p871
(dp872
g11
(lp873
sg13
S'android.net.dhcp.DhcpClient$WaitBeforeOtherState'
p874
sg15
(lp875
sg17
(lp876
sg19
(lp877
sg21
I0
sba(iArchitecture
Entity
p878
(dp879
g11
(lp880
sg13
S'android.net.dhcp.DhcpClient$WaitBeforeRenewalState'
p881
sg15
(lp882
sg17
(lp883
sg19
(lp884
sg21
I0
sba(iArchitecture
Entity
p885
(dp886
g11
(lp887
sg13
S'android.net.dhcp.DhcpClient$WaitBeforeStartState'
p888
sg15
(lp889
sg17
(lp890
sg19
(lp891
sg21
I0
sba(iArchitecture
Entity
p892
(dp893
g11
(lp894
sg13
S'android.net.dhcp.DhcpPacket'
p895
sg15
(lp896
sg17
(lp897
sg19
(lp898
sg21
I0
sba(iArchitecture
Entity
p899
(dp900
g11
(lp901
sg13
S'android.net.dhcp.DhcpPacket$ParseException'
p902
sg15
(lp903
sg17
(lp904
sg19
(lp905
sg21
I0
sbasg43
(lp906
g755
ag762
ag769
ag776
ag783
ag790
ag797
ag804
ag811
ag818
ag825
ag832
ag839
ag846
ag853
ag860
ag867
ag874
ag881
ag888
ag895
ag902
asg21
I0
sg45
S'1315'
p907
sba(iArchitecture
Cluster
p908
(dp909
g7
(lp910
(iArchitecture
Entity
p911
(dp912
g11
(lp913
sg13
S'android.widget.CalendarViewMaterialDelegate'
p914
sg15
(lp915
sg17
(lp916
sg19
(lp917
sg21
I0
sba(iArchitecture
Entity
p918
(dp919
g11
(lp920
sg13
S'android.widget.CalendarViewMaterialDelegate$1'
p921
sg15
(lp922
sg17
(lp923
sg19
(lp924
sg21
I0
sba(iArchitecture
Entity
p925
(dp926
g11
(lp927
sg13
S'android.widget.DayPickerPagerAdapter'
p928
sg15
(lp929
sg17
(lp930
sg19
(lp931
sg21
I0
sba(iArchitecture
Entity
p932
(dp933
g11
(lp934
sg13
S'android.widget.DayPickerPagerAdapter$1'
p935
sg15
(lp936
sg17
(lp937
sg19
(lp938
sg21
I0
sba(iArchitecture
Entity
p939
(dp940
g11
(lp941
sg13
S'android.widget.DayPickerPagerAdapter$OnDaySelectedListener'
p942
sg15
(lp943
sg17
(lp944
sg19
(lp945
sg21
I0
sba(iArchitecture
Entity
p946
(dp947
g11
(lp948
sg13
S'android.widget.DayPickerPagerAdapter$ViewHolder'
p949
sg15
(lp950
sg17
(lp951
sg19
(lp952
sg21
I0
sbasg43
(lp953
g914
ag921
ag928
ag935
ag942
ag949
asg21
I0
sg45
S'1415'
p954
sba(iArchitecture
Cluster
p955
(dp956
g7
(lp957
(iArchitecture
Entity
p958
(dp959
g11
(lp960
sg13
S'android.os.Vibrator'
p961
sg15
(lp962
sg17
(lp963
sg19
(lp964
sg21
I0
sbasg43
(lp965
g961
asg21
I0
sg45
S'15'
p966
sba(iArchitecture
Cluster
p967
(dp968
g7
(lp969
(iArchitecture
Entity
p970
(dp971
g11
(lp972
sg13
S'android.hardware.camera2.dispatch.MethodNameInvoker'
p973
sg15
(lp974
sg17
(lp975
sg19
(lp976
sg21
I0
sbasg43
(lp977
g973
asg21
I0
sg45
S'150'
p978
sba(iArchitecture
Cluster
p979
(dp980
g7
(lp981
(iArchitecture
Entity
p982
(dp983
g11
(lp984
sg13
S'android.media.AudioDevicePort'
p985
sg15
(lp986
sg17
(lp987
sg19
(lp988
sg21
I0
sbasg43
(lp989
g985
asg21
I0
sg45
S'151'
p990
sba(iArchitecture
Cluster
p991
(dp992
g7
(lp993
(iArchitecture
Entity
p994
(dp995
g11
(lp996
sg13
S'com.android.server.soundtrigger.SoundTriggerInternal'
p997
sg15
(lp998
sg17
(lp999
sg19
(lp1000
sg21
I0
sbasg43
(lp1001
g997
asg21
I0
sg45
S'152'
p1002
sba(iArchitecture
Cluster
p1003
(dp1004
g7
(lp1005
(iArchitecture
Entity
p1006
(dp1007
g11
(lp1008
sg13
S'android.opengl.Visibility'
p1009
sg15
(lp1010
sg17
(lp1011
sg19
(lp1012
sg21
I0
sbasg43
(lp1013
g1009
asg21
I0
sg45
S'153'
p1014
sba(iArchitecture
Cluster
p1015
(dp1016
g7
(lp1017
(iArchitecture
Entity
p1018
(dp1019
g11
(lp1020
sg13
S'android.os.ConditionVariable'
p1021
sg15
(lp1022
sg17
(lp1023
sg19
(lp1024
sg21
I0
sbasg43
(lp1025
g1021
asg21
I0
sg45
S'154'
p1026
sba(iArchitecture
Cluster
p1027
(dp1028
g7
(lp1029
(iArchitecture
Entity
p1030
(dp1031
g11
(lp1032
sg13
S'android.security.NetworkSecurityPolicy'
p1033
sg15
(lp1034
sg17
(lp1035
sg19
(lp1036
sg21
I0
sbasg43
(lp1037
g1033
asg21
I0
sg45
S'155'
p1038
sba(iArchitecture
Cluster
p1039
(dp1040
g7
(lp1041
(iArchitecture
Entity
p1042
(dp1043
g11
(lp1044
sg13
S'android.opengl.GLDebugHelper'
p1045
sg15
(lp1046
sg17
(lp1047
sg19
(lp1048
sg21
I0
sbasg43
(lp1049
g1045
asg21
I0
sg45
S'156'
p1050
sba(iArchitecture
Cluster
p1051
(dp1052
g7
(lp1053
(iArchitecture
Entity
p1054
(dp1055
g11
(lp1056
sg13
S'android.content.CursorEntityIterator'
p1057
sg15
(lp1058
sg17
(lp1059
sg19
(lp1060
sg21
I0
sbasg43
(lp1061
g1057
asg21
I0
sg45
S'157'
p1062
sba(iArchitecture
Cluster
p1063
(dp1064
g7
(lp1065
(iArchitecture
Entity
p1066
(dp1067
g11
(lp1068
sg13
S'com.android.server.notification.ZenModeConditions'
p1069
sg15
(lp1070
sg17
(lp1071
sg19
(lp1072
sg21
I0
sbasg43
(lp1073
g1069
asg21
I0
sg45
S'158'
p1074
sba(iArchitecture
Cluster
p1075
(dp1076
g7
(lp1077
(iArchitecture
Entity
p1078
(dp1079
g11
(lp1080
sg13
S'android.graphics.drawable.PaintDrawable'
p1081
sg15
(lp1082
sg17
(lp1083
sg19
(lp1084
sg21
I0
sbasg43
(lp1085
g1081
asg21
I0
sg45
S'159'
p1086
sba(iArchitecture
Cluster
p1087
(dp1088
g7
(lp1089
(iArchitecture
Entity
p1090
(dp1091
g11
(lp1092
sg13
S'android.os.health.SystemHealthManager'
p1093
sg15
(lp1094
sg17
(lp1095
sg19
(lp1096
sg21
I0
sbasg43
(lp1097
g1093
asg21
I0
sg45
S'215'
p1098
sba(iArchitecture
Cluster
p1099
(dp1100
g7
(lp1101
(iArchitecture
Entity
p1102
(dp1103
g11
(lp1104
sg13
S'android.hardware.camera2.legacy.BurstHolder'
p1105
sg15
(lp1106
sg17
(lp1107
sg19
(lp1108
sg21
I0
sbasg43
(lp1109
g1105
asg21
I0
sg45
S'315'
p1110
sba(iArchitecture
Cluster
p1111
(dp1112
g7
(lp1113
(iArchitecture
Entity
p1114
(dp1115
g11
(lp1116
sg13
S'android.opengl.GLWrapperBase'
p1117
sg15
(lp1118
sg17
(lp1119
sg19
(lp1120
sg21
I0
sbasg43
(lp1121
g1117
asg21
I0
sg45
S'415'
p1122
sba(iArchitecture
Cluster
p1123
(dp1124
g7
(lp1125
(iArchitecture
Entity
p1126
(dp1127
g11
(lp1128
sg13
S'com.android.server.am.LockTaskNotify'
p1129
sg15
(lp1130
sg17
(lp1131
sg19
(lp1132
sg21
I0
sba(iArchitecture
Entity
p1133
(dp1134
g11
(lp1135
sg13
S'com.android.server.am.LockTaskNotify$H'
p1136
sg15
(lp1137
sg17
(lp1138
sg19
(lp1139
sg21
I0
sbasg43
(lp1140
g1129
ag1136
asg21
I0
sg45
S'515'
p1141
sba(iArchitecture
Cluster
p1142
(dp1143
g7
(lp1144
(iArchitecture
Entity
p1145
(dp1146
g11
(lp1147
sg13
S'android.content.pm.LabeledIntent'
p1148
sg15
(lp1149
sg17
(lp1150
sg19
(lp1151
sg21
I0
sba(iArchitecture
Entity
p1152
(dp1153
g11
(lp1154
sg13
S'android.content.pm.LabeledIntent$1'
p1155
sg15
(lp1156
sg17
(lp1157
sg19
(lp1158
sg21
I0
sbasg43
(lp1159
g1148
ag1155
asg21
I0
sg45
S'615'
p1160
sba(iArchitecture
Cluster
p1161
(dp1162
g7
(lp1163
(iArchitecture
Entity
p1164
(dp1165
g11
(lp1166
sg13
S'android.net.UidRange'
p1167
sg15
(lp1168
sg17
(lp1169
sg19
(lp1170
sg21
I0
sba(iArchitecture
Entity
p1171
(dp1172
g11
(lp1173
sg13
S'android.net.UidRange$1'
p1174
sg15
(lp1175
sg17
(lp1176
sg19
(lp1177
sg21
I0
sbasg43
(lp1178
g1167
ag1174
asg21
I0
sg45
S'715'
p1179
sba(iArchitecture
Cluster
p1180
(dp1181
g7
(lp1182
(iArchitecture
Entity
p1183
(dp1184
g11
(lp1185
sg13
S'com.android.internal.telephony.SmsConstants'
p1186
sg15
(lp1187
sg17
(lp1188
sg19
(lp1189
sg21
I0
sba(iArchitecture
Entity
p1190
(dp1191
g11
(lp1192
sg13
S'com.android.internal.telephony.SmsConstants$MessageClass'
p1193
sg15
(lp1194
sg17
(lp1195
sg19
(lp1196
sg21
I0
sbasg43
(lp1197
g1186
ag1193
asg21
I0
sg45
S'815'
p1198
sba(iArchitecture
Cluster
p1199
(dp1200
g7
(lp1201
(iArchitecture
Entity
p1202
(dp1203
g11
(lp1204
sg13
S'android.media.tv.TvTrackInfo'
p1205
sg15
(lp1206
sg17
(lp1207
sg19
(lp1208
sg21
I0
sba(iArchitecture
Entity
p1209
(dp1210
g11
(lp1211
sg13
S'android.media.tv.TvTrackInfo$1'
p1212
sg15
(lp1213
sg17
(lp1214
sg19
(lp1215
sg21
I0
sba(iArchitecture
Entity
p1216
(dp1217
g11
(lp1218
sg13
S'android.media.tv.TvTrackInfo$Builder'
p1219
sg15
(lp1220
sg17
(lp1221
sg19
(lp1222
sg21
I0
sbasg43
(lp1223
g1205
ag1212
ag1219
asg21
I0
sg45
S'915'
p1224
sbasS'target_sub'
p1225
S'15'
p1226
sg43
(lp1227
sS'is_component_arch'
p1228
I01
sg45
S'7.0.0_r1'
p1229
sba.