(lp0
(iArchitecture
Architecture
p1
(dp2
S'clusters'
p3
(lp4
(iArchitecture
Cluster
p5
(dp6
S'entities'
p7
(lp8
(iArchitecture
Entity
p9
(dp10
S'issue_ids'
p11
(lp12
sS'name'
p13
S'android.bluetooth.le.BluetoothLeAdvertiser'
p14
sS'descs'
p15
(lp16
sS'labels'
p17
(lp18
sS'titles'
p19
(lp20
sS'change'
p21
I0
sba(iArchitecture
Entity
p22
(dp23
g11
(lp24
sg13
S'android.bluetooth.le.BluetoothLeAdvertiser$1'
p25
sg15
(lp26
sg17
(lp27
sg19
(lp28
sg21
I0
sba(iArchitecture
Entity
p29
(dp30
g11
(lp31
sg13
S'android.bluetooth.le.BluetoothLeAdvertiser$2'
p32
sg15
(lp33
sg17
(lp34
sg19
(lp35
sg21
I0
sba(iArchitecture
Entity
p36
(dp37
g11
(lp38
sg13
S'android.bluetooth.le.BluetoothLeAdvertiser$AdvertiseCallbackWrapper'
p39
sg15
(lp40
sg17
(lp41
sg19
(lp42
sg21
I0
sbasS'classes'
p43
(lp44
g14
ag25
ag32
ag39
asg21
I0
sS'label'
p45
S'1036'
p46
sba(iArchitecture
Cluster
p47
(dp48
g7
(lp49
(iArchitecture
Entity
p50
(dp51
g11
(lp52
sg13
S'android.content.pm.LauncherApps'
p53
sg15
(lp54
sg17
(lp55
sg19
(lp56
sg21
I0
sba(iArchitecture
Entity
p57
(dp58
g11
(lp59
sg13
S'android.content.pm.LauncherApps$1'
p60
sg15
(lp61
sg17
(lp62
sg19
(lp63
sg21
I0
sba(iArchitecture
Entity
p64
(dp65
g11
(lp66
sg13
S'android.content.pm.LauncherApps$Callback'
p67
sg15
(lp68
sg17
(lp69
sg19
(lp70
sg21
I0
sba(iArchitecture
Entity
p71
(dp72
g11
(lp73
sg13
S'android.content.pm.LauncherApps$CallbackMessageHandler'
p74
sg15
(lp75
sg17
(lp76
sg19
(lp77
sg21
I0
sba(iArchitecture
Entity
p78
(dp79
g11
(lp80
sg13
S'android.content.pm.LauncherApps$CallbackMessageHandler$CallbackInfo'
p81
sg15
(lp82
sg17
(lp83
sg19
(lp84
sg21
I0
sba(iArchitecture
Entity
p85
(dp86
g11
(lp87
sg13
S'android.content.pm.LauncherApps$ShortcutQuery'
p88
sg15
(lp89
sg17
(lp90
sg19
(lp91
sg21
I0
sbasg43
(lp92
g53
ag60
ag67
ag74
ag81
ag88
asg21
I0
sg45
S'1136'
p93
sba(iArchitecture
Cluster
p94
(dp95
g7
(lp96
(iArchitecture
Entity
p97
(dp98
g11
(lp99
sg13
S'com.android.server.notification.ImportanceExtractor'
p100
sg15
(lp101
sg17
(lp102
sg19
(lp103
sg21
I0
sba(iArchitecture
Entity
p104
(dp105
g11
(lp106
sg13
S'com.android.server.notification.PriorityExtractor'
p107
sg15
(lp108
sg17
(lp109
sg19
(lp110
sg21
I0
sba(iArchitecture
Entity
p111
(dp112
g11
(lp113
sg13
S'com.android.server.notification.VisibilityExtractor'
p114
sg15
(lp115
sg17
(lp116
sg19
(lp117
sg21
I0
sbasg43
(lp118
g100
ag107
ag114
asg21
I0
sg45
S'1236'
p119
sba(iArchitecture
Cluster
p120
(dp121
g7
(lp122
(iArchitecture
Entity
p123
(dp124
g11
(lp125
sg13
S'com.android.server.soundtrigger.SoundTriggerDbHelper'
p126
sg15
(lp127
sg17
(lp128
sg19
(lp129
sg21
I0
sba(iArchitecture
Entity
p130
(dp131
g11
(lp132
sg13
S'com.android.server.soundtrigger.SoundTriggerDbHelper$GenericSoundModelContract'
p133
sg15
(lp134
sg17
(lp135
sg19
(lp136
sg21
I0
sba(iArchitecture
Entity
p137
(dp138
g11
(lp139
sg13
S'com.android.server.voiceinteraction.DatabaseHelper'
p140
sg15
(lp141
sg17
(lp142
sg19
(lp143
sg21
I0
sba(iArchitecture
Entity
p144
(dp145
g11
(lp146
sg13
S'com.android.server.voiceinteraction.DatabaseHelper$SoundModelContract'
p147
sg15
(lp148
sg17
(lp149
sg19
(lp150
sg21
I0
sbasg43
(lp151
g126
ag133
ag140
ag147
asg21
I0
sg45
S'1336'
p152
sba(iArchitecture
Cluster
p153
(dp154
g7
(lp155
(iArchitecture
Entity
p156
(dp157
g11
(lp158
sg13
S'android.hardware.input.InputManagerInternal'
p159
sg15
(lp160
sg17
(lp161
sg19
(lp162
sg21
I0
sbasg43
(lp163
g159
asg21
I0
sg45
S'136'
p164
sba(iArchitecture
Cluster
p165
(dp166
g7
(lp167
(iArchitecture
Entity
p168
(dp169
g11
(lp170
sg13
S'android.app.backup.BackupAgent'
p171
sg15
(lp172
sg17
(lp173
sg19
(lp174
sg21
I0
sba(iArchitecture
Entity
p175
(dp176
g11
(lp177
sg13
S'android.app.backup.BackupAgent$BackupServiceBinder'
p178
sg15
(lp179
sg17
(lp180
sg19
(lp181
sg21
I0
sba(iArchitecture
Entity
p182
(dp183
g11
(lp184
sg13
S'android.app.backup.BackupAgent$FailRunnable'
p185
sg15
(lp186
sg17
(lp187
sg19
(lp188
sg21
I0
sba(iArchitecture
Entity
p189
(dp190
g11
(lp191
sg13
S'android.app.backup.BackupAgent$SharedPrefsSynchronizer'
p192
sg15
(lp193
sg17
(lp194
sg19
(lp195
sg21
I0
sba(iArchitecture
Entity
p196
(dp197
g11
(lp198
sg13
S'android.app.backup.BackupManager'
p199
sg15
(lp200
sg17
(lp201
sg19
(lp202
sg21
I0
sba(iArchitecture
Entity
p203
(dp204
g11
(lp205
sg13
S'android.app.backup.BackupManager$BackupObserverWrapper'
p206
sg15
(lp207
sg17
(lp208
sg19
(lp209
sg21
I0
sba(iArchitecture
Entity
p210
(dp211
g11
(lp212
sg13
S'android.app.backup.BackupManager$BackupObserverWrapper$1'
p213
sg15
(lp214
sg17
(lp215
sg19
(lp216
sg21
I0
sba(iArchitecture
Entity
p217
(dp218
g11
(lp219
sg13
S'android.app.backup.BackupTransport'
p220
sg15
(lp221
sg17
(lp222
sg19
(lp223
sg21
I0
sba(iArchitecture
Entity
p224
(dp225
g11
(lp226
sg13
S'android.app.backup.BackupTransport$TransportImpl'
p227
sg15
(lp228
sg17
(lp229
sg19
(lp230
sg21
I0
sba(iArchitecture
Entity
p231
(dp232
g11
(lp233
sg13
S'android.app.backup.FullBackup'
p234
sg15
(lp235
sg17
(lp236
sg19
(lp237
sg21
I0
sba(iArchitecture
Entity
p238
(dp239
g11
(lp240
sg13
S'android.app.backup.FullBackup$BackupScheme'
p241
sg15
(lp242
sg17
(lp243
sg19
(lp244
sg21
I0
sba(iArchitecture
Entity
p245
(dp246
g11
(lp247
sg13
S'android.app.backup.RestoreSession'
p248
sg15
(lp249
sg17
(lp250
sg19
(lp251
sg21
I0
sba(iArchitecture
Entity
p252
(dp253
g11
(lp254
sg13
S'android.app.backup.RestoreSession$RestoreObserverWrapper'
p255
sg15
(lp256
sg17
(lp257
sg19
(lp258
sg21
I0
sba(iArchitecture
Entity
p259
(dp260
g11
(lp261
sg13
S'android.app.backup.RestoreSession$RestoreObserverWrapper$1'
p262
sg15
(lp263
sg17
(lp264
sg19
(lp265
sg21
I0
sba(iArchitecture
Entity
p266
(dp267
g11
(lp268
sg13
S'com.android.internal.backup.LocalTransport'
p269
sg15
(lp270
sg17
(lp271
sg19
(lp272
sg21
I0
sba(iArchitecture
Entity
p273
(dp274
g11
(lp275
sg13
S'com.android.internal.backup.LocalTransport$DecodedFilename'
p276
sg15
(lp277
sg17
(lp278
sg19
(lp279
sg21
I0
sbasg43
(lp280
g171
ag178
ag185
ag192
ag199
ag206
ag213
ag220
ag227
ag234
ag241
ag248
ag255
ag262
ag269
ag276
asg21
I0
sg45
S'1360'
p281
sba(iArchitecture
Cluster
p282
(dp283
g7
(lp284
(iArchitecture
Entity
p285
(dp286
g11
(lp287
sg13
S'android.app.MediaRouteActionProvider'
p288
sg15
(lp289
sg17
(lp290
sg19
(lp291
sg21
I0
sba(iArchitecture
Entity
p292
(dp293
g11
(lp294
sg13
S'android.app.MediaRouteActionProvider$MediaRouterCallback'
p295
sg15
(lp296
sg17
(lp297
sg19
(lp298
sg21
I0
sba(iArchitecture
Entity
p299
(dp300
g11
(lp301
sg13
S'android.app.MediaRouteButton'
p302
sg15
(lp303
sg17
(lp304
sg19
(lp305
sg21
I0
sba(iArchitecture
Entity
p306
(dp307
g11
(lp308
sg13
S'android.app.MediaRouteButton$MediaRouterCallback'
p309
sg15
(lp310
sg17
(lp311
sg19
(lp312
sg21
I0
sba(iArchitecture
Entity
p313
(dp314
g11
(lp315
sg13
S'android.media.JetPlayer'
p316
sg15
(lp317
sg17
(lp318
sg19
(lp319
sg21
I0
sba(iArchitecture
Entity
p320
(dp321
g11
(lp322
sg13
S'android.media.JetPlayer$NativeEventHandler'
p323
sg15
(lp324
sg17
(lp325
sg19
(lp326
sg21
I0
sba(iArchitecture
Entity
p327
(dp328
g11
(lp329
sg13
S'android.media.JetPlayer$OnJetEventListener'
p330
sg15
(lp331
sg17
(lp332
sg19
(lp333
sg21
I0
sba(iArchitecture
Entity
p334
(dp335
g11
(lp336
sg13
S'android.media.MediaRouter'
p337
sg15
(lp338
sg17
(lp339
sg19
(lp340
sg21
I0
sba(iArchitecture
Entity
p341
(dp342
g11
(lp343
sg13
S'android.media.MediaRouter$Callback'
p344
sg15
(lp345
sg17
(lp346
sg19
(lp347
sg21
I0
sba(iArchitecture
Entity
p348
(dp349
g11
(lp350
sg13
S'android.media.MediaRouter$CallbackInfo'
p351
sg15
(lp352
sg17
(lp353
sg19
(lp354
sg21
I0
sba(iArchitecture
Entity
p355
(dp356
g11
(lp357
sg13
S'android.media.MediaRouter$RouteCategory'
p358
sg15
(lp359
sg17
(lp360
sg19
(lp361
sg21
I0
sba(iArchitecture
Entity
p362
(dp363
g11
(lp364
sg13
S'android.media.MediaRouter$RouteGroup'
p365
sg15
(lp366
sg17
(lp367
sg19
(lp368
sg21
I0
sba(iArchitecture
Entity
p369
(dp370
g11
(lp371
sg13
S'android.media.MediaRouter$RouteInfo'
p372
sg15
(lp373
sg17
(lp374
sg19
(lp375
sg21
I0
sba(iArchitecture
Entity
p376
(dp377
g11
(lp378
sg13
S'android.media.MediaRouter$RouteInfo$1'
p379
sg15
(lp380
sg17
(lp381
sg19
(lp382
sg21
I0
sba(iArchitecture
Entity
p383
(dp384
g11
(lp385
sg13
S'android.media.MediaRouter$RouteInfo$1$1'
p386
sg15
(lp387
sg17
(lp388
sg19
(lp389
sg21
I0
sba(iArchitecture
Entity
p390
(dp391
g11
(lp392
sg13
S'android.media.MediaRouter$SimpleCallback'
p393
sg15
(lp394
sg17
(lp395
sg19
(lp396
sg21
I0
sba(iArchitecture
Entity
p397
(dp398
g11
(lp399
sg13
S'android.media.MediaRouter$Static'
p400
sg15
(lp401
sg17
(lp402
sg19
(lp403
sg21
I0
sba(iArchitecture
Entity
p404
(dp405
g11
(lp406
sg13
S'android.media.MediaRouter$Static$1'
p407
sg15
(lp408
sg17
(lp409
sg19
(lp410
sg21
I0
sba(iArchitecture
Entity
p411
(dp412
g11
(lp413
sg13
S'android.media.MediaRouter$Static$1$1'
p414
sg15
(lp415
sg17
(lp416
sg19
(lp417
sg21
I0
sba(iArchitecture
Entity
p418
(dp419
g11
(lp420
sg13
S'android.media.MediaRouter$Static$Client'
p421
sg15
(lp422
sg17
(lp423
sg19
(lp424
sg21
I0
sba(iArchitecture
Entity
p425
(dp426
g11
(lp427
sg13
S'android.media.MediaRouter$Static$Client$1'
p428
sg15
(lp429
sg17
(lp430
sg19
(lp431
sg21
I0
sba(iArchitecture
Entity
p432
(dp433
g11
(lp434
sg13
S'android.media.MediaRouter$UserRouteInfo'
p435
sg15
(lp436
sg17
(lp437
sg19
(lp438
sg21
I0
sba(iArchitecture
Entity
p439
(dp440
g11
(lp441
sg13
S'android.media.MediaRouter$UserRouteInfo$SessionVolumeProvider'
p442
sg15
(lp443
sg17
(lp444
sg19
(lp445
sg21
I0
sba(iArchitecture
Entity
p446
(dp447
g11
(lp448
sg13
S'android.media.MediaRouter$UserRouteInfo$SessionVolumeProvider$1'
p449
sg15
(lp450
sg17
(lp451
sg19
(lp452
sg21
I0
sba(iArchitecture
Entity
p453
(dp454
g11
(lp455
sg13
S'android.media.MediaRouter$UserRouteInfo$SessionVolumeProvider$2'
p456
sg15
(lp457
sg17
(lp458
sg19
(lp459
sg21
I0
sba(iArchitecture
Entity
p460
(dp461
g11
(lp462
sg13
S'android.media.MediaRouter$VolumeCallback'
p463
sg15
(lp464
sg17
(lp465
sg19
(lp466
sg21
I0
sba(iArchitecture
Entity
p467
(dp468
g11
(lp469
sg13
S'android.media.MediaRouter$VolumeCallbackInfo'
p470
sg15
(lp471
sg17
(lp472
sg19
(lp473
sg21
I0
sba(iArchitecture
Entity
p474
(dp475
g11
(lp476
sg13
S'android.media.MediaRouter$VolumeChangeReceiver'
p477
sg15
(lp478
sg17
(lp479
sg19
(lp480
sg21
I0
sba(iArchitecture
Entity
p481
(dp482
g11
(lp483
sg13
S'android.media.MediaRouter$WifiDisplayStatusChangedReceiver'
p484
sg15
(lp485
sg17
(lp486
sg19
(lp487
sg21
I0
sba(iArchitecture
Entity
p488
(dp489
g11
(lp490
sg13
S'com.android.internal.app.MediaRouteChooserDialog'
p491
sg15
(lp492
sg17
(lp493
sg19
(lp494
sg21
I0
sba(iArchitecture
Entity
p495
(dp496
g11
(lp497
sg13
S'com.android.internal.app.MediaRouteChooserDialog$MediaRouterCallback'
p498
sg15
(lp499
sg17
(lp500
sg19
(lp501
sg21
I0
sba(iArchitecture
Entity
p502
(dp503
g11
(lp504
sg13
S'com.android.internal.app.MediaRouteChooserDialog$RouteAdapter'
p505
sg15
(lp506
sg17
(lp507
sg19
(lp508
sg21
I0
sba(iArchitecture
Entity
p509
(dp510
g11
(lp511
sg13
S'com.android.internal.app.MediaRouteChooserDialog$RouteComparator'
p512
sg15
(lp513
sg17
(lp514
sg19
(lp515
sg21
I0
sba(iArchitecture
Entity
p516
(dp517
g11
(lp518
sg13
S'com.android.internal.app.MediaRouteControllerDialog'
p519
sg15
(lp520
sg17
(lp521
sg19
(lp522
sg21
I0
sba(iArchitecture
Entity
p523
(dp524
g11
(lp525
sg13
S'com.android.internal.app.MediaRouteControllerDialog$1'
p526
sg15
(lp527
sg17
(lp528
sg19
(lp529
sg21
I0
sba(iArchitecture
Entity
p530
(dp531
g11
(lp532
sg13
S'com.android.internal.app.MediaRouteControllerDialog$1$1'
p533
sg15
(lp534
sg17
(lp535
sg19
(lp536
sg21
I0
sba(iArchitecture
Entity
p537
(dp538
g11
(lp539
sg13
S'com.android.internal.app.MediaRouteControllerDialog$2'
p540
sg15
(lp541
sg17
(lp542
sg19
(lp543
sg21
I0
sba(iArchitecture
Entity
p544
(dp545
g11
(lp546
sg13
S'com.android.internal.app.MediaRouteControllerDialog$MediaRouterCallback'
p547
sg15
(lp548
sg17
(lp549
sg19
(lp550
sg21
I0
sbasg43
(lp551
g288
ag295
ag302
ag309
ag316
ag323
ag330
ag337
ag344
ag351
ag358
ag365
ag372
ag379
ag386
ag393
ag400
ag407
ag414
ag421
ag428
ag435
ag442
ag449
ag456
ag463
ag470
ag477
ag484
ag491
ag498
ag505
ag512
ag519
ag526
ag533
ag540
ag547
asg21
I0
sg45
S'1361'
p552
sba(iArchitecture
Cluster
p553
(dp554
g7
(lp555
(iArchitecture
Entity
p556
(dp557
g11
(lp558
sg13
S'android.app.AutomaticZenRule'
p559
sg15
(lp560
sg17
(lp561
sg19
(lp562
sg21
I0
sba(iArchitecture
Entity
p563
(dp564
g11
(lp565
sg13
S'android.app.AutomaticZenRule$1'
p566
sg15
(lp567
sg17
(lp568
sg19
(lp569
sg21
I0
sba(iArchitecture
Entity
p570
(dp571
g11
(lp572
sg13
S'com.android.server.hdmi.HdmiLogger'
p573
sg15
(lp574
sg17
(lp575
sg19
(lp576
sg21
I0
sbasg43
(lp577
g559
ag566
ag573
asg21
I0
sg45
S'1362'
p578
sba(iArchitecture
Cluster
p579
(dp580
g7
(lp581
(iArchitecture
Entity
p582
(dp583
g11
(lp584
sg13
S'android.database.MergeCursor'
p585
sg15
(lp586
sg17
(lp587
sg19
(lp588
sg21
I0
sba(iArchitecture
Entity
p589
(dp590
g11
(lp591
sg13
S'android.database.MergeCursor$1'
p592
sg15
(lp593
sg17
(lp594
sg19
(lp595
sg21
I0
sba(iArchitecture
Entity
p596
(dp597
g11
(lp598
sg13
S'com.android.internal.database.SortCursor'
p599
sg15
(lp600
sg17
(lp601
sg19
(lp602
sg21
I0
sba(iArchitecture
Entity
p603
(dp604
g11
(lp605
sg13
S'com.android.internal.database.SortCursor$1'
p606
sg15
(lp607
sg17
(lp608
sg19
(lp609
sg21
I0
sba(iArchitecture
Entity
p610
(dp611
g11
(lp612
sg13
S'com.android.internal.logging.MetricsLogger'
p613
sg15
(lp614
sg17
(lp615
sg19
(lp616
sg21
I0
sbasg43
(lp617
g585
ag592
ag599
ag606
ag613
asg21
I0
sg45
S'1363'
p618
sba(iArchitecture
Cluster
p619
(dp620
g7
(lp621
(iArchitecture
Entity
p622
(dp623
g11
(lp624
sg13
S'android.text.method.MetaKeyKeyListener'
p625
sg15
(lp626
sg17
(lp627
sg19
(lp628
sg21
I0
sba(iArchitecture
Entity
p629
(dp630
g11
(lp631
sg13
S'android.view.KeyCharacterMap'
p632
sg15
(lp633
sg17
(lp634
sg19
(lp635
sg21
I0
sba(iArchitecture
Entity
p636
(dp637
g11
(lp638
sg13
S'android.view.KeyCharacterMap$1'
p639
sg15
(lp640
sg17
(lp641
sg19
(lp642
sg21
I0
sba(iArchitecture
Entity
p643
(dp644
g11
(lp645
sg13
S'android.view.KeyCharacterMap$FallbackAction'
p646
sg15
(lp647
sg17
(lp648
sg19
(lp649
sg21
I0
sba(iArchitecture
Entity
p650
(dp651
g11
(lp652
sg13
S'android.view.KeyCharacterMap$KeyData'
p653
sg15
(lp654
sg17
(lp655
sg19
(lp656
sg21
I0
sba(iArchitecture
Entity
p657
(dp658
g11
(lp659
sg13
S'android.view.KeyCharacterMap$UnavailableException'
p660
sg15
(lp661
sg17
(lp662
sg19
(lp663
sg21
I0
sba(iArchitecture
Entity
p664
(dp665
g11
(lp666
sg13
S'android.view.KeyEvent'
p667
sg15
(lp668
sg17
(lp669
sg19
(lp670
sg21
I0
sba(iArchitecture
Entity
p671
(dp672
g11
(lp673
sg13
S'android.view.KeyEvent$1'
p674
sg15
(lp675
sg17
(lp676
sg19
(lp677
sg21
I0
sba(iArchitecture
Entity
p678
(dp679
g11
(lp680
sg13
S'android.view.KeyEvent$Callback'
p681
sg15
(lp682
sg17
(lp683
sg19
(lp684
sg21
I0
sba(iArchitecture
Entity
p685
(dp686
g11
(lp687
sg13
S'android.view.KeyEvent$DispatcherState'
p688
sg15
(lp689
sg17
(lp690
sg19
(lp691
sg21
I0
sbasg43
(lp692
g625
ag632
ag639
ag646
ag653
ag660
ag667
ag674
ag681
ag688
asg21
I0
sg45
S'1364'
p693
sba(iArchitecture
Cluster
p694
(dp695
g7
(lp696
(iArchitecture
Entity
p697
(dp698
g11
(lp699
sg13
S'android.telecom.InCallService'
p700
sg15
(lp701
sg17
(lp702
sg19
(lp703
sg21
I0
sba(iArchitecture
Entity
p704
(dp705
g11
(lp706
sg13
S'android.telecom.InCallService$1'
p707
sg15
(lp708
sg17
(lp709
sg19
(lp710
sg21
I0
sba(iArchitecture
Entity
p711
(dp712
g11
(lp713
sg13
S'android.telecom.InCallService$2'
p714
sg15
(lp715
sg17
(lp716
sg19
(lp717
sg21
I0
sba(iArchitecture
Entity
p718
(dp719
g11
(lp720
sg13
S'android.telecom.InCallService$InCallServiceBinder'
p721
sg15
(lp722
sg17
(lp723
sg19
(lp724
sg21
I0
sba(iArchitecture
Entity
p725
(dp726
g11
(lp727
sg13
S'android.telecom.InCallService$VideoCall'
p728
sg15
(lp729
sg17
(lp730
sg19
(lp731
sg21
I0
sba(iArchitecture
Entity
p732
(dp733
g11
(lp734
sg13
S'android.telecom.InCallService$VideoCall$Callback'
p735
sg15
(lp736
sg17
(lp737
sg19
(lp738
sg21
I0
sba(iArchitecture
Entity
p739
(dp740
g11
(lp741
sg13
S'android.telecom.VideoCallImpl'
p742
sg15
(lp743
sg17
(lp744
sg19
(lp745
sg21
I0
sba(iArchitecture
Entity
p746
(dp747
g11
(lp748
sg13
S'android.telecom.VideoCallImpl$1'
p749
sg15
(lp750
sg17
(lp751
sg19
(lp752
sg21
I0
sba(iArchitecture
Entity
p753
(dp754
g11
(lp755
sg13
S'android.telecom.VideoCallImpl$MessageHandler'
p756
sg15
(lp757
sg17
(lp758
sg19
(lp759
sg21
I0
sba(iArchitecture
Entity
p760
(dp761
g11
(lp762
sg13
S'android.telecom.VideoCallImpl$VideoCallListenerBinder'
p763
sg15
(lp764
sg17
(lp765
sg19
(lp766
sg21
I0
sbasg43
(lp767
g700
ag707
ag714
ag721
ag728
ag735
ag742
ag749
ag756
ag763
asg21
I0
sg45
S'1365'
p768
sba(iArchitecture
Cluster
p769
(dp770
g7
(lp771
(iArchitecture
Entity
p772
(dp773
g11
(lp774
sg13
S'com.android.server.am.PreBootBroadcaster'
p775
sg15
(lp776
sg17
(lp777
sg19
(lp778
sg21
I0
sba(iArchitecture
Entity
p779
(dp780
g11
(lp781
sg13
S'com.android.server.usb.MtpNotificationManager'
p782
sg15
(lp783
sg17
(lp784
sg19
(lp785
sg21
I0
sba(iArchitecture
Entity
p786
(dp787
g11
(lp788
sg13
S'com.android.server.usb.MtpNotificationManager$OnOpenInAppListener'
p789
sg15
(lp790
sg17
(lp791
sg19
(lp792
sg21
I0
sba(iArchitecture
Entity
p793
(dp794
g11
(lp795
sg13
S'com.android.server.usb.MtpNotificationManager$Receiver'
p796
sg15
(lp797
sg17
(lp798
sg19
(lp799
sg21
I0
sbasg43
(lp800
g775
ag782
ag789
ag796
asg21
I0
sg45
S'1366'
p801
sba(iArchitecture
Cluster
p802
(dp803
g7
(lp804
(iArchitecture
Entity
p805
(dp806
g11
(lp807
sg13
S'android.net.NetworkCapabilities'
p808
sg15
(lp809
sg17
(lp810
sg19
(lp811
sg21
I0
sba(iArchitecture
Entity
p812
(dp813
g11
(lp814
sg13
S'android.net.NetworkCapabilities$1'
p815
sg15
(lp816
sg17
(lp817
sg19
(lp818
sg21
I0
sba(iArchitecture
Entity
p819
(dp820
g11
(lp821
sg13
S'android.net.NetworkFactory'
p822
sg15
(lp823
sg17
(lp824
sg19
(lp825
sg21
I0
sba(iArchitecture
Entity
p826
(dp827
g11
(lp828
sg13
S'android.net.NetworkFactory$NetworkRequestInfo'
p829
sg15
(lp830
sg17
(lp831
sg19
(lp832
sg21
I0
sba(iArchitecture
Entity
p833
(dp834
g11
(lp835
sg13
S'android.net.NetworkRequest'
p836
sg15
(lp837
sg17
(lp838
sg19
(lp839
sg21
I0
sba(iArchitecture
Entity
p840
(dp841
g11
(lp842
sg13
S'android.net.NetworkRequest$1'
p843
sg15
(lp844
sg17
(lp845
sg19
(lp846
sg21
I0
sba(iArchitecture
Entity
p847
(dp848
g11
(lp849
sg13
S'android.net.NetworkRequest$Builder'
p850
sg15
(lp851
sg17
(lp852
sg19
(lp853
sg21
I0
sbasg43
(lp854
g808
ag815
ag822
ag829
ag836
ag843
ag850
asg21
I0
sg45
S'1367'
p855
sba(iArchitecture
Cluster
p856
(dp857
g7
(lp858
(iArchitecture
Entity
p859
(dp860
g11
(lp861
sg13
S'android.app.WallpaperManager'
p862
sg15
(lp863
sg17
(lp864
sg19
(lp865
sg21
I0
sba(iArchitecture
Entity
p866
(dp867
g11
(lp868
sg13
S'android.app.WallpaperManager$FastBitmapDrawable'
p869
sg15
(lp870
sg17
(lp871
sg19
(lp872
sg21
I0
sba(iArchitecture
Entity
p873
(dp874
g11
(lp875
sg13
S'android.app.WallpaperManager$Globals'
p876
sg15
(lp877
sg17
(lp878
sg19
(lp879
sg21
I0
sba(iArchitecture
Entity
p880
(dp881
g11
(lp882
sg13
S'android.app.WallpaperManager$WallpaperSetCompletion'
p883
sg15
(lp884
sg17
(lp885
sg19
(lp886
sg21
I0
sba(iArchitecture
Entity
p887
(dp888
g11
(lp889
sg13
S'android.graphics.Rect'
p890
sg15
(lp891
sg17
(lp892
sg19
(lp893
sg21
I0
sba(iArchitecture
Entity
p894
(dp895
g11
(lp896
sg13
S'android.graphics.Rect$1'
p897
sg15
(lp898
sg17
(lp899
sg19
(lp900
sg21
I0
sba(iArchitecture
Entity
p901
(dp902
g11
(lp903
sg13
S'android.graphics.Rect$UnflattenHelper'
p904
sg15
(lp905
sg17
(lp906
sg19
(lp907
sg21
I0
sba(iArchitecture
Entity
p908
(dp909
g11
(lp910
sg13
S'android.graphics.RectF'
p911
sg15
(lp912
sg17
(lp913
sg19
(lp914
sg21
I0
sba(iArchitecture
Entity
p915
(dp916
g11
(lp917
sg13
S'android.graphics.RectF$1'
p918
sg15
(lp919
sg17
(lp920
sg19
(lp921
sg21
I0
sba(iArchitecture
Entity
p922
(dp923
g11
(lp924
sg13
S'android.graphics.Region'
p925
sg15
(lp926
sg17
(lp927
sg19
(lp928
sg21
I0
sba(iArchitecture
Entity
p929
(dp930
g11
(lp931
sg13
S'android.graphics.Region$1'
p932
sg15
(lp933
sg17
(lp934
sg19
(lp935
sg21
I0
sba(iArchitecture
Entity
p936
(dp937
g11
(lp938
sg13
S'android.graphics.Region$Op'
p939
sg15
(lp940
sg17
(lp941
sg19
(lp942
sg21
I0
sba(iArchitecture
Entity
p943
(dp944
g11
(lp945
sg13
S'com.android.server.wallpaper.WallpaperManagerService'
p946
sg15
(lp947
sg17
(lp948
sg19
(lp949
sg21
I0
sba(iArchitecture
Entity
p950
(dp951
g11
(lp952
sg13
S'com.android.server.wallpaper.WallpaperManagerService$1'
p953
sg15
(lp954
sg17
(lp955
sg19
(lp956
sg21
I0
sba(iArchitecture
Entity
p957
(dp958
g11
(lp959
sg13
S'com.android.server.wallpaper.WallpaperManagerService$2'
p960
sg15
(lp961
sg17
(lp962
sg19
(lp963
sg21
I0
sba(iArchitecture
Entity
p964
(dp965
g11
(lp966
sg13
S'com.android.server.wallpaper.WallpaperManagerService$Lifecycle'
p967
sg15
(lp968
sg17
(lp969
sg19
(lp970
sg21
I0
sba(iArchitecture
Entity
p971
(dp972
g11
(lp973
sg13
S'com.android.server.wallpaper.WallpaperManagerService$MyPackageMonitor'
p974
sg15
(lp975
sg17
(lp976
sg19
(lp977
sg21
I0
sba(iArchitecture
Entity
p978
(dp979
g11
(lp980
sg13
S'com.android.server.wallpaper.WallpaperManagerService$WallpaperConnection'
p981
sg15
(lp982
sg17
(lp983
sg19
(lp984
sg21
I0
sba(iArchitecture
Entity
p985
(dp986
g11
(lp987
sg13
S'com.android.server.wallpaper.WallpaperManagerService$WallpaperData'
p988
sg15
(lp989
sg17
(lp990
sg19
(lp991
sg21
I0
sba(iArchitecture
Entity
p992
(dp993
g11
(lp994
sg13
S'com.android.server.wallpaper.WallpaperManagerService$WallpaperObserver'
p995
sg15
(lp996
sg17
(lp997
sg19
(lp998
sg21
I0
sbasg43
(lp999
g862
ag869
ag876
ag883
ag890
ag897
ag904
ag911
ag918
ag925
ag932
ag939
ag946
ag953
ag960
ag967
ag974
ag981
ag988
ag995
asg21
I0
sg45
S'1368'
p1000
sba(iArchitecture
Cluster
p1001
(dp1002
g7
(lp1003
(iArchitecture
Entity
p1004
(dp1005
g11
(lp1006
sg13
S'android.media.midi.MidiPortImpl'
p1007
sg15
(lp1008
sg17
(lp1009
sg19
(lp1010
sg21
I0
sba(iArchitecture
Entity
p1011
(dp1012
g11
(lp1013
sg13
S'android.media.midi.MidiReceiver'
p1014
sg15
(lp1015
sg17
(lp1016
sg19
(lp1017
sg21
I0
sba(iArchitecture
Entity
p1018
(dp1019
g11
(lp1020
sg13
S'android.net.apf.ApfCapabilities'
p1021
sg15
(lp1022
sg17
(lp1023
sg19
(lp1024
sg21
I0
sba(iArchitecture
Entity
p1025
(dp1026
g11
(lp1027
sg13
S'android.net.dhcp.DhcpAckPacket'
p1028
sg15
(lp1029
sg17
(lp1030
sg19
(lp1031
sg21
I0
sba(iArchitecture
Entity
p1032
(dp1033
g11
(lp1034
sg13
S'android.net.dhcp.DhcpDeclinePacket'
p1035
sg15
(lp1036
sg17
(lp1037
sg19
(lp1038
sg21
I0
sba(iArchitecture
Entity
p1039
(dp1040
g11
(lp1041
sg13
S'android.net.dhcp.DhcpDiscoverPacket'
p1042
sg15
(lp1043
sg17
(lp1044
sg19
(lp1045
sg21
I0
sba(iArchitecture
Entity
p1046
(dp1047
g11
(lp1048
sg13
S'android.net.dhcp.DhcpInformPacket'
p1049
sg15
(lp1050
sg17
(lp1051
sg19
(lp1052
sg21
I0
sba(iArchitecture
Entity
p1053
(dp1054
g11
(lp1055
sg13
S'android.net.dhcp.DhcpNakPacket'
p1056
sg15
(lp1057
sg17
(lp1058
sg19
(lp1059
sg21
I0
sba(iArchitecture
Entity
p1060
(dp1061
g11
(lp1062
sg13
S'android.net.dhcp.DhcpOfferPacket'
p1063
sg15
(lp1064
sg17
(lp1065
sg19
(lp1066
sg21
I0
sba(iArchitecture
Entity
p1067
(dp1068
g11
(lp1069
sg13
S'android.net.dhcp.DhcpRequestPacket'
p1070
sg15
(lp1071
sg17
(lp1072
sg19
(lp1073
sg21
I0
sba(iArchitecture
Entity
p1074
(dp1075
g11
(lp1076
sg13
S'android.net.metrics.DhcpClientEvent'
p1077
sg15
(lp1078
sg17
(lp1079
sg19
(lp1080
sg21
I0
sba(iArchitecture
Entity
p1081
(dp1082
g11
(lp1083
sg13
S'android.net.metrics.DhcpClientEvent$1'
p1084
sg15
(lp1085
sg17
(lp1086
sg19
(lp1087
sg21
I0
sba(iArchitecture
Entity
p1088
(dp1089
g11
(lp1090
sg13
S'android.net.metrics.IpReachabilityEvent'
p1091
sg15
(lp1092
sg17
(lp1093
sg19
(lp1094
sg21
I0
sba(iArchitecture
Entity
p1095
(dp1096
g11
(lp1097
sg13
S'android.net.metrics.IpReachabilityEvent$1'
p1098
sg15
(lp1099
sg17
(lp1100
sg19
(lp1101
sg21
I0
sba(iArchitecture
Entity
p1102
(dp1103
g11
(lp1104
sg13
S'android.net.metrics.IpReachabilityEvent$Decoder'
p1105
sg15
(lp1106
sg17
(lp1107
sg19
(lp1108
sg21
I0
sba(iArchitecture
Entity
p1109
(dp1110
g11
(lp1111
sg13
S'android.net.metrics.ValidationProbeEvent'
p1112
sg15
(lp1113
sg17
(lp1114
sg19
(lp1115
sg21
I0
sba(iArchitecture
Entity
p1116
(dp1117
g11
(lp1118
sg13
S'android.net.metrics.ValidationProbeEvent$1'
p1119
sg15
(lp1120
sg17
(lp1121
sg19
(lp1122
sg21
I0
sba(iArchitecture
Entity
p1123
(dp1124
g11
(lp1125
sg13
S'android.net.metrics.ValidationProbeEvent$Decoder'
p1126
sg15
(lp1127
sg17
(lp1128
sg19
(lp1129
sg21
I0
sba(iArchitecture
Entity
p1130
(dp1131
g11
(lp1132
sg13
S'com.android.server.statusbar.StatusBarShellCommand'
p1133
sg15
(lp1134
sg17
(lp1135
sg19
(lp1136
sg21
I0
sba(iArchitecture
Entity
p1137
(dp1138
g11
(lp1139
sg13
S'com.android.server.usb.UsbAudioDevice'
p1140
sg15
(lp1141
sg17
(lp1142
sg19
(lp1143
sg21
I0
sbasg43
(lp1144
g1007
ag1014
ag1021
ag1028
ag1035
ag1042
ag1049
ag1056
ag1063
ag1070
ag1077
ag1084
ag1091
ag1098
ag1105
ag1112
ag1119
ag1126
ag1133
ag1140
asg21
I0
sg45
S'1369'
p1145
sba(iArchitecture
Cluster
p1146
(dp1147
g7
(lp1148
(iArchitecture
Entity
p1149
(dp1150
g11
(lp1151
sg13
S'com.android.server.policy.IconUtilities'
p1152
sg15
(lp1153
sg17
(lp1154
sg19
(lp1155
sg21
I0
sbasg43
(lp1156
g1152
asg21
I0
sg45
S'236'
p1157
sba(iArchitecture
Cluster
p1158
(dp1159
g7
(lp1160
(iArchitecture
Entity
p1161
(dp1162
g11
(lp1163
sg13
S'android.database.BulkCursorNative'
p1164
sg15
(lp1165
sg17
(lp1166
sg19
(lp1167
sg21
I0
sbasg43
(lp1168
g1164
asg21
I0
sg45
S'336'
p1169
sba(iArchitecture
Cluster
p1170
(dp1171
g7
(lp1172
(iArchitecture
Entity
p1173
(dp1174
g11
(lp1175
sg13
S'android.gesture.GestureStroke'
p1176
sg15
(lp1177
sg17
(lp1178
sg19
(lp1179
sg21
I0
sbasg43
(lp1180
g1176
asg21
I0
sg45
S'36'
p1181
sba(iArchitecture
Cluster
p1182
(dp1183
g7
(lp1184
(iArchitecture
Entity
p1185
(dp1186
g11
(lp1187
sg13
S'android.appwidget.AppWidgetProvider'
p1188
sg15
(lp1189
sg17
(lp1190
sg19
(lp1191
sg21
I0
sbasg43
(lp1192
g1188
asg21
I0
sg45
S'360'
p1193
sba(iArchitecture
Cluster
p1194
(dp1195
g7
(lp1196
(iArchitecture
Entity
p1197
(dp1198
g11
(lp1199
sg13
S'android.net.NetworkIdentity'
p1200
sg15
(lp1201
sg17
(lp1202
sg19
(lp1203
sg21
I0
sbasg43
(lp1204
g1200
asg21
I0
sg45
S'361'
p1205
sba(iArchitecture
Cluster
p1206
(dp1207
g7
(lp1208
(iArchitecture
Entity
p1209
(dp1210
g11
(lp1211
sg13
S'com.android.internal.widget.TextProgressBar'
p1212
sg15
(lp1213
sg17
(lp1214
sg19
(lp1215
sg21
I0
sbasg43
(lp1216
g1212
asg21
I0
sg45
S'362'
p1217
sba(iArchitecture
Cluster
p1218
(dp1219
g7
(lp1220
(iArchitecture
Entity
p1221
(dp1222
g11
(lp1223
sg13
S'com.android.server.job.controllers.JobStatus'
p1224
sg15
(lp1225
sg17
(lp1226
sg19
(lp1227
sg21
I0
sbasg43
(lp1228
g1224
asg21
I0
sg45
S'363'
p1229
sba(iArchitecture
Cluster
p1230
(dp1231
g7
(lp1232
(iArchitecture
Entity
p1233
(dp1234
g11
(lp1235
sg13
S'android.content.IContentProvider'
p1236
sg15
(lp1237
sg17
(lp1238
sg19
(lp1239
sg21
I0
sbasg43
(lp1240
g1236
asg21
I0
sg45
S'364'
p1241
sba(iArchitecture
Cluster
p1242
(dp1243
g7
(lp1244
(iArchitecture
Entity
p1245
(dp1246
g11
(lp1247
sg13
S'android.test.AndroidTestCase'
p1248
sg15
(lp1249
sg17
(lp1250
sg19
(lp1251
sg21
I0
sbasg43
(lp1252
g1248
asg21
I0
sg45
S'365'
p1253
sba(iArchitecture
Cluster
p1254
(dp1255
g7
(lp1256
(iArchitecture
Entity
p1257
(dp1258
g11
(lp1259
sg13
S'android.hardware.camera2.params.LensShadingMap'
p1260
sg15
(lp1261
sg17
(lp1262
sg19
(lp1263
sg21
I0
sbasg43
(lp1264
g1260
asg21
I0
sg45
S'366'
p1265
sba(iArchitecture
Cluster
p1266
(dp1267
g7
(lp1268
(iArchitecture
Entity
p1269
(dp1270
g11
(lp1271
sg13
S'android.view.WindowInsets'
p1272
sg15
(lp1273
sg17
(lp1274
sg19
(lp1275
sg21
I0
sbasg43
(lp1276
g1272
asg21
I0
sg45
S'367'
p1277
sba(iArchitecture
Cluster
p1278
(dp1279
g7
(lp1280
(iArchitecture
Entity
p1281
(dp1282
g11
(lp1283
sg13
S'android.hardware.usb.UsbConstants'
p1284
sg15
(lp1285
sg17
(lp1286
sg19
(lp1287
sg21
I0
sbasg43
(lp1288
g1284
asg21
I0
sg45
S'368'
p1289
sba(iArchitecture
Cluster
p1290
(dp1291
g7
(lp1292
(iArchitecture
Entity
p1293
(dp1294
g11
(lp1295
sg13
S'android.provider.SearchIndexableData'
p1296
sg15
(lp1297
sg17
(lp1298
sg19
(lp1299
sg21
I0
sbasg43
(lp1300
g1296
asg21
I0
sg45
S'369'
p1301
sba(iArchitecture
Cluster
p1302
(dp1303
g7
(lp1304
(iArchitecture
Entity
p1305
(dp1306
g11
(lp1307
sg13
S'com.android.server.pm.PackageManagerException'
p1308
sg15
(lp1309
sg17
(lp1310
sg19
(lp1311
sg21
I0
sbasg43
(lp1312
g1308
asg21
I0
sg45
S'436'
p1313
sba(iArchitecture
Cluster
p1314
(dp1315
g7
(lp1316
(iArchitecture
Entity
p1317
(dp1318
g11
(lp1319
sg13
S'com.android.server.net.NetworkStatsCollection'
p1320
sg15
(lp1321
sg17
(lp1322
sg19
(lp1323
sg21
I0
sba(iArchitecture
Entity
p1324
(dp1325
g11
(lp1326
sg13
S'com.android.server.net.NetworkStatsCollection$Key'
p1327
sg15
(lp1328
sg17
(lp1329
sg19
(lp1330
sg21
I0
sbasg43
(lp1331
g1320
ag1327
asg21
I0
sg45
S'536'
p1332
sba(iArchitecture
Cluster
p1333
(dp1334
g7
(lp1335
(iArchitecture
Entity
p1336
(dp1337
g11
(lp1338
sg13
S'android.net.wifi.p2p.WifiP2pDevice'
p1339
sg15
(lp1340
sg17
(lp1341
sg19
(lp1342
sg21
I0
sba(iArchitecture
Entity
p1343
(dp1344
g11
(lp1345
sg13
S'android.net.wifi.p2p.WifiP2pDevice$1'
p1346
sg15
(lp1347
sg17
(lp1348
sg19
(lp1349
sg21
I0
sbasg43
(lp1350
g1339
ag1346
asg21
I0
sg45
S'636'
p1351
sba(iArchitecture
Cluster
p1352
(dp1353
g7
(lp1354
(iArchitecture
Entity
p1355
(dp1356
g11
(lp1357
sg13
S'com.android.internal.alsa.AlsaCardsParser'
p1358
sg15
(lp1359
sg17
(lp1360
sg19
(lp1361
sg21
I0
sba(iArchitecture
Entity
p1362
(dp1363
g11
(lp1364
sg13
S'com.android.internal.alsa.AlsaCardsParser$AlsaCardRecord'
p1365
sg15
(lp1366
sg17
(lp1367
sg19
(lp1368
sg21
I0
sbasg43
(lp1369
g1358
ag1365
asg21
I0
sg45
S'736'
p1370
sba(iArchitecture
Cluster
p1371
(dp1372
g7
(lp1373
(iArchitecture
Entity
p1374
(dp1375
g11
(lp1376
sg13
S'android.bluetooth.BluetoothProfile'
p1377
sg15
(lp1378
sg17
(lp1379
sg19
(lp1380
sg21
I0
sba(iArchitecture
Entity
p1381
(dp1382
g11
(lp1383
sg13
S'android.bluetooth.BluetoothProfile$ServiceListener'
p1384
sg15
(lp1385
sg17
(lp1386
sg19
(lp1387
sg21
I0
sbasg43
(lp1388
g1377
ag1384
asg21
I0
sg45
S'836'
p1389
sba(iArchitecture
Cluster
p1390
(dp1391
g7
(lp1392
(iArchitecture
Entity
p1393
(dp1394
g11
(lp1395
sg13
S'android.print.PrintJobInfo'
p1396
sg15
(lp1397
sg17
(lp1398
sg19
(lp1399
sg21
I0
sba(iArchitecture
Entity
p1400
(dp1401
g11
(lp1402
sg13
S'android.print.PrintJobInfo$1'
p1403
sg15
(lp1404
sg17
(lp1405
sg19
(lp1406
sg21
I0
sba(iArchitecture
Entity
p1407
(dp1408
g11
(lp1409
sg13
S'android.print.PrintJobInfo$Builder'
p1410
sg15
(lp1411
sg17
(lp1412
sg19
(lp1413
sg21
I0
sbasg43
(lp1414
g1396
ag1403
ag1410
asg21
I0
sg45
S'936'
p1415
sbasS'target_sub'
p1416
S'36'
p1417
sg43
(lp1418
sS'is_component_arch'
p1419
I01
sg45
S'7.0.0_r1'
p1420
sba.