(lp0
(iArchitecture
Architecture
p1
(dp2
S'clusters'
p3
(lp4
(iArchitecture
Cluster
p5
(dp6
S'entities'
p7
(lp8
(iArchitecture
Entity
p9
(dp10
S'issue_ids'
p11
(lp12
sS'name'
p13
S'android.media.SoundPool'
p14
sS'descs'
p15
(lp16
sS'labels'
p17
(lp18
sS'titles'
p19
(lp20
sS'change'
p21
I0
sba(iArchitecture
Entity
p22
(dp23
g11
(lp24
sg13
S'android.media.SoundPool$1'
p25
sg15
(lp26
sg17
(lp27
sg19
(lp28
sg21
I0
sba(iArchitecture
Entity
p29
(dp30
g11
(lp31
sg13
S'android.media.SoundPool$Builder'
p32
sg15
(lp33
sg17
(lp34
sg19
(lp35
sg21
I0
sba(iArchitecture
Entity
p36
(dp37
g11
(lp38
sg13
S'android.media.SoundPool$EventHandler'
p39
sg15
(lp40
sg17
(lp41
sg19
(lp42
sg21
I0
sba(iArchitecture
Entity
p43
(dp44
g11
(lp45
sg13
S'android.media.SoundPool$OnLoadCompleteListener'
p46
sg15
(lp47
sg17
(lp48
sg19
(lp49
sg21
I0
sbasS'classes'
p50
(lp51
g14
ag25
ag32
ag39
ag46
asg21
I0
sS'label'
p52
S'1043'
p53
sba(iArchitecture
Cluster
p54
(dp55
g7
(lp56
(iArchitecture
Entity
p57
(dp58
g11
(lp59
sg13
S'android.accounts.AbstractAccountAuthenticator'
p60
sg15
(lp61
sg17
(lp62
sg19
(lp63
sg21
I0
sba(iArchitecture
Entity
p64
(dp65
g11
(lp66
sg13
S'android.accounts.AbstractAccountAuthenticator$1'
p67
sg15
(lp68
sg17
(lp69
sg19
(lp70
sg21
I0
sba(iArchitecture
Entity
p71
(dp72
g11
(lp73
sg13
S'android.accounts.AbstractAccountAuthenticator$2'
p74
sg15
(lp75
sg17
(lp76
sg19
(lp77
sg21
I0
sba(iArchitecture
Entity
p78
(dp79
g11
(lp80
sg13
S'android.accounts.AbstractAccountAuthenticator$3'
p81
sg15
(lp82
sg17
(lp83
sg19
(lp84
sg21
I0
sba(iArchitecture
Entity
p85
(dp86
g11
(lp87
sg13
S'android.accounts.AbstractAccountAuthenticator$4'
p88
sg15
(lp89
sg17
(lp90
sg19
(lp91
sg21
I0
sba(iArchitecture
Entity
p92
(dp93
g11
(lp94
sg13
S'android.accounts.AbstractAccountAuthenticator$Transport'
p95
sg15
(lp96
sg17
(lp97
sg19
(lp98
sg21
I0
sbasg50
(lp99
g60
ag67
ag74
ag81
ag88
ag95
asg21
I0
sg52
S'1143'
p100
sba(iArchitecture
Cluster
p101
(dp102
g7
(lp103
(iArchitecture
Entity
p104
(dp105
g11
(lp106
sg13
S'android.filterpacks.ui.SurfaceRenderFilter'
p107
sg15
(lp108
sg17
(lp109
sg19
(lp110
sg21
I0
sba(iArchitecture
Entity
p111
(dp112
g11
(lp113
sg13
S'android.filterpacks.ui.SurfaceTargetFilter'
p114
sg15
(lp115
sg17
(lp116
sg19
(lp117
sg21
I0
sba(iArchitecture
Entity
p118
(dp119
g11
(lp120
sg13
S'android.filterpacks.videosrc.SurfaceTextureTarget'
p121
sg15
(lp122
sg17
(lp123
sg19
(lp124
sg21
I0
sbasg50
(lp125
g107
ag114
ag121
asg21
I0
sg52
S'1243'
p126
sba(iArchitecture
Cluster
p127
(dp128
g7
(lp129
(iArchitecture
Entity
p130
(dp131
g11
(lp132
sg13
S'com.android.server.audio.FocusRequester'
p133
sg15
(lp134
sg17
(lp135
sg19
(lp136
sg21
I0
sba(iArchitecture
Entity
p137
(dp138
g11
(lp139
sg13
S'com.android.server.audio.MediaFocusControl'
p140
sg15
(lp141
sg17
(lp142
sg19
(lp143
sg21
I0
sba(iArchitecture
Entity
p144
(dp145
g11
(lp146
sg13
S'com.android.server.audio.MediaFocusControl$1'
p147
sg15
(lp148
sg17
(lp149
sg19
(lp150
sg21
I0
sba(iArchitecture
Entity
p151
(dp152
g11
(lp153
sg13
S'com.android.server.audio.MediaFocusControl$AudioFocusDeathHandler'
p154
sg15
(lp155
sg17
(lp156
sg19
(lp157
sg21
I0
sbasg50
(lp158
g133
ag140
ag147
ag154
asg21
I0
sg52
S'1343'
p159
sba(iArchitecture
Cluster
p160
(dp161
g7
(lp162
(iArchitecture
Entity
p163
(dp164
g11
(lp165
sg13
S'android.view.RenderNode'
p166
sg15
(lp167
sg17
(lp168
sg19
(lp169
sg21
I0
sbasg50
(lp170
g166
asg21
I0
sg52
S'143'
p171
sba(iArchitecture
Cluster
p172
(dp173
g7
(lp174
(iArchitecture
Entity
p175
(dp176
g11
(lp177
sg13
S'android.renderscript.ScriptIntrinsicBLAS'
p178
sg15
(lp179
sg17
(lp180
sg19
(lp181
sg21
I0
sbasg50
(lp182
g178
asg21
I0
sg52
S'243'
p183
sba(iArchitecture
Cluster
p184
(dp185
g7
(lp186
(iArchitecture
Entity
p187
(dp188
g11
(lp189
sg13
S'android.filterfw.MffEnvironment'
p190
sg15
(lp191
sg17
(lp192
sg19
(lp193
sg21
I0
sbasg50
(lp194
g190
asg21
I0
sg52
S'343'
p195
sba(iArchitecture
Cluster
p196
(dp197
g7
(lp198
(iArchitecture
Entity
p199
(dp200
g11
(lp201
sg13
S'android.nfc.NfcManager'
p202
sg15
(lp203
sg17
(lp204
sg19
(lp205
sg21
I0
sbasg50
(lp206
g202
asg21
I0
sg52
S'43'
p207
sba(iArchitecture
Cluster
p208
(dp209
g7
(lp210
(iArchitecture
Entity
p211
(dp212
g11
(lp213
sg13
S'android.app.backup.FullBackupDataOutput'
p214
sg15
(lp215
sg17
(lp216
sg19
(lp217
sg21
I0
sbasg50
(lp218
g214
asg21
I0
sg52
S'430'
p219
sba(iArchitecture
Cluster
p220
(dp221
g7
(lp222
(iArchitecture
Entity
p223
(dp224
g11
(lp225
sg13
S'android.widget.HeaderViewListAdapter'
p226
sg15
(lp227
sg17
(lp228
sg19
(lp229
sg21
I0
sbasg50
(lp230
g226
asg21
I0
sg52
S'431'
p231
sba(iArchitecture
Cluster
p232
(dp233
g7
(lp234
(iArchitecture
Entity
p235
(dp236
g11
(lp237
sg13
S'android.net.PskKeyManager'
p238
sg15
(lp239
sg17
(lp240
sg19
(lp241
sg21
I0
sbasg50
(lp242
g238
asg21
I0
sg52
S'432'
p243
sba(iArchitecture
Cluster
p244
(dp245
g7
(lp246
(iArchitecture
Entity
p247
(dp248
g11
(lp249
sg13
S'android.media.AmrInputStream'
p250
sg15
(lp251
sg17
(lp252
sg19
(lp253
sg21
I0
sbasg50
(lp254
g250
asg21
I0
sg52
S'433'
p255
sba(iArchitecture
Cluster
p256
(dp257
g7
(lp258
(iArchitecture
Entity
p259
(dp260
g11
(lp261
sg13
S'com.android.server.pm.ProcessLoggingHandler'
p262
sg15
(lp263
sg17
(lp264
sg19
(lp265
sg21
I0
sbasg50
(lp266
g262
asg21
I0
sg52
S'434'
p267
sba(iArchitecture
Cluster
p268
(dp269
g7
(lp270
(iArchitecture
Entity
p271
(dp272
g11
(lp273
sg13
S'android.webkit.WebViewClient'
p274
sg15
(lp275
sg17
(lp276
sg19
(lp277
sg21
I0
sbasg50
(lp278
g274
asg21
I0
sg52
S'435'
p279
sba(iArchitecture
Cluster
p280
(dp281
g7
(lp282
(iArchitecture
Entity
p283
(dp284
g11
(lp285
sg13
S'com.android.server.pm.PackageManagerException'
p286
sg15
(lp287
sg17
(lp288
sg19
(lp289
sg21
I0
sbasg50
(lp290
g286
asg21
I0
sg52
S'436'
p291
sba(iArchitecture
Cluster
p292
(dp293
g7
(lp294
(iArchitecture
Entity
p295
(dp296
g11
(lp297
sg13
S'android.telecom.RemoteConnectionManager'
p298
sg15
(lp299
sg17
(lp300
sg19
(lp301
sg21
I0
sbasg50
(lp302
g298
asg21
I0
sg52
S'437'
p303
sba(iArchitecture
Cluster
p304
(dp305
g7
(lp306
(iArchitecture
Entity
p307
(dp308
g11
(lp309
sg13
S'com.android.server.content.SyncOperation'
p310
sg15
(lp311
sg17
(lp312
sg19
(lp313
sg21
I0
sbasg50
(lp314
g310
asg21
I0
sg52
S'438'
p315
sba(iArchitecture
Cluster
p316
(dp317
g7
(lp318
(iArchitecture
Entity
p319
(dp320
g11
(lp321
sg13
S'android.filterfw.core.CachedFrameManager'
p322
sg15
(lp323
sg17
(lp324
sg19
(lp325
sg21
I0
sbasg50
(lp326
g322
asg21
I0
sg52
S'439'
p327
sba(iArchitecture
Cluster
p328
(dp329
g7
(lp330
(iArchitecture
Entity
p331
(dp332
g11
(lp333
sg13
S'android.webkit.PluginList'
p334
sg15
(lp335
sg17
(lp336
sg19
(lp337
sg21
I0
sbasg50
(lp338
g334
asg21
I0
sg52
S'443'
p339
sba(iArchitecture
Cluster
p340
(dp341
g7
(lp342
(iArchitecture
Entity
p343
(dp344
g11
(lp345
sg13
S'com.android.ims.internal.uce.presence.PresTupleInfo'
p346
sg15
(lp347
sg17
(lp348
sg19
(lp349
sg21
I0
sba(iArchitecture
Entity
p350
(dp351
g11
(lp352
sg13
S'com.android.ims.internal.uce.presence.PresTupleInfo$1'
p353
sg15
(lp354
sg17
(lp355
sg19
(lp356
sg21
I0
sbasg50
(lp357
g346
ag353
asg21
I0
sg52
S'543'
p358
sba(iArchitecture
Cluster
p359
(dp360
g7
(lp361
(iArchitecture
Entity
p362
(dp363
g11
(lp364
sg13
S'android.telephony.CellInfo'
p365
sg15
(lp366
sg17
(lp367
sg19
(lp368
sg21
I0
sba(iArchitecture
Entity
p369
(dp370
g11
(lp371
sg13
S'android.telephony.CellInfo$1'
p372
sg15
(lp373
sg17
(lp374
sg19
(lp375
sg21
I0
sbasg50
(lp376
g365
ag372
asg21
I0
sg52
S'643'
p377
sba(iArchitecture
Cluster
p378
(dp379
g7
(lp380
(iArchitecture
Entity
p381
(dp382
g11
(lp383
sg13
S'android.graphics.BitmapFactory'
p384
sg15
(lp385
sg17
(lp386
sg19
(lp387
sg21
I0
sba(iArchitecture
Entity
p388
(dp389
g11
(lp390
sg13
S'android.graphics.BitmapFactory$Options'
p391
sg15
(lp392
sg17
(lp393
sg19
(lp394
sg21
I0
sbasg50
(lp395
g384
ag391
asg21
I0
sg52
S'743'
p396
sba(iArchitecture
Cluster
p397
(dp398
g7
(lp399
(iArchitecture
Entity
p400
(dp401
g11
(lp402
sg13
S'android.content.SharedPreferences'
p403
sg15
(lp404
sg17
(lp405
sg19
(lp406
sg21
I0
sba(iArchitecture
Entity
p407
(dp408
g11
(lp409
sg13
S'android.content.SharedPreferences$Editor'
p410
sg15
(lp411
sg17
(lp412
sg19
(lp413
sg21
I0
sba(iArchitecture
Entity
p414
(dp415
g11
(lp416
sg13
S'android.content.SharedPreferences$OnSharedPreferenceChangeListener'
p417
sg15
(lp418
sg17
(lp419
sg19
(lp420
sg21
I0
sbasg50
(lp421
g403
ag410
ag417
asg21
I0
sg52
S'843'
p422
sba(iArchitecture
Cluster
p423
(dp424
g7
(lp425
(iArchitecture
Entity
p426
(dp427
g11
(lp428
sg13
S'com.android.internal.app.DumpHeapActivity'
p429
sg15
(lp430
sg17
(lp431
sg19
(lp432
sg21
I0
sba(iArchitecture
Entity
p433
(dp434
g11
(lp435
sg13
S'com.android.internal.app.DumpHeapActivity$1'
p436
sg15
(lp437
sg17
(lp438
sg19
(lp439
sg21
I0
sba(iArchitecture
Entity
p440
(dp441
g11
(lp442
sg13
S'com.android.internal.app.DumpHeapActivity$2'
p443
sg15
(lp444
sg17
(lp445
sg19
(lp446
sg21
I0
sbasg50
(lp447
g429
ag436
ag443
asg21
I0
sg52
S'943'
p448
sbasS'target_sub'
p449
S'43'
p450
sg50
(lp451
sS'is_component_arch'
p452
I01
sg52
S'7.0.0_r1'
p453
sba.