(lp0
(iArchitecture
Architecture
p1
(dp2
S'clusters'
p3
(lp4
(iArchitecture
Cluster
p5
(dp6
S'entities'
p7
(lp8
(iArchitecture
Entity
p9
(dp10
S'issue_ids'
p11
(lp12
sS'name'
p13
S'android.gesture.GestureOverlayView'
p14
sS'descs'
p15
(lp16
sS'labels'
p17
(lp18
sS'titles'
p19
(lp20
sS'change'
p21
I0
sba(iArchitecture
Entity
p22
(dp23
g11
(lp24
sg13
S'android.gesture.GestureOverlayView$FadeOutRunnable'
p25
sg15
(lp26
sg17
(lp27
sg19
(lp28
sg21
I0
sba(iArchitecture
Entity
p29
(dp30
g11
(lp31
sg13
S'android.gesture.GestureOverlayView$OnGestureListener'
p32
sg15
(lp33
sg17
(lp34
sg19
(lp35
sg21
I0
sba(iArchitecture
Entity
p36
(dp37
g11
(lp38
sg13
S'android.gesture.GestureOverlayView$OnGesturePerformedListener'
p39
sg15
(lp40
sg17
(lp41
sg19
(lp42
sg21
I0
sba(iArchitecture
Entity
p43
(dp44
g11
(lp45
sg13
S'android.gesture.GestureOverlayView$OnGesturingListener'
p46
sg15
(lp47
sg17
(lp48
sg19
(lp49
sg21
I0
sbasS'classes'
p50
(lp51
g14
ag25
ag32
ag39
ag46
asg21
I0
sS'label'
p52
S'1098'
p53
sba(iArchitecture
Cluster
p54
(dp55
g7
(lp56
(iArchitecture
Entity
p57
(dp58
g11
(lp59
sg13
S'android.transition.Slide'
p60
sg15
(lp61
sg17
(lp62
sg19
(lp63
sg21
I0
sba(iArchitecture
Entity
p64
(dp65
g11
(lp66
sg13
S'android.transition.Slide$1'
p67
sg15
(lp68
sg17
(lp69
sg19
(lp70
sg21
I0
sba(iArchitecture
Entity
p71
(dp72
g11
(lp73
sg13
S'android.transition.Slide$2'
p74
sg15
(lp75
sg17
(lp76
sg19
(lp77
sg21
I0
sba(iArchitecture
Entity
p78
(dp79
g11
(lp80
sg13
S'android.transition.Slide$3'
p81
sg15
(lp82
sg17
(lp83
sg19
(lp84
sg21
I0
sba(iArchitecture
Entity
p85
(dp86
g11
(lp87
sg13
S'android.transition.Slide$4'
p88
sg15
(lp89
sg17
(lp90
sg19
(lp91
sg21
I0
sba(iArchitecture
Entity
p92
(dp93
g11
(lp94
sg13
S'android.transition.Slide$5'
p95
sg15
(lp96
sg17
(lp97
sg19
(lp98
sg21
I0
sba(iArchitecture
Entity
p99
(dp100
g11
(lp101
sg13
S'android.transition.Slide$6'
p102
sg15
(lp103
sg17
(lp104
sg19
(lp105
sg21
I0
sba(iArchitecture
Entity
p106
(dp107
g11
(lp108
sg13
S'android.transition.Slide$CalculateSlide'
p109
sg15
(lp110
sg17
(lp111
sg19
(lp112
sg21
I0
sba(iArchitecture
Entity
p113
(dp114
g11
(lp115
sg13
S'android.transition.Slide$CalculateSlideHorizontal'
p116
sg15
(lp117
sg17
(lp118
sg19
(lp119
sg21
I0
sba(iArchitecture
Entity
p120
(dp121
g11
(lp122
sg13
S'android.transition.Slide$CalculateSlideVertical'
p123
sg15
(lp124
sg17
(lp125
sg19
(lp126
sg21
I0
sbasg50
(lp127
g60
ag67
ag74
ag81
ag88
ag95
ag102
ag109
ag116
ag123
asg21
I0
sg52
S'1198'
p128
sba(iArchitecture
Cluster
p129
(dp130
g7
(lp131
(iArchitecture
Entity
p132
(dp133
g11
(lp134
sg13
S'android.media.AudioRecord'
p135
sg15
(lp136
sg17
(lp137
sg19
(lp138
sg21
I0
sba(iArchitecture
Entity
p139
(dp140
g11
(lp141
sg13
S'android.media.AudioRecord$Builder'
p142
sg15
(lp143
sg17
(lp144
sg19
(lp145
sg21
I0
sba(iArchitecture
Entity
p146
(dp147
g11
(lp148
sg13
S'android.media.AudioRecord$NativeEventHandler'
p149
sg15
(lp150
sg17
(lp151
sg19
(lp152
sg21
I0
sba(iArchitecture
Entity
p153
(dp154
g11
(lp155
sg13
S'android.media.AudioRecord$NativeRoutingEventHandlerDelegate'
p156
sg15
(lp157
sg17
(lp158
sg19
(lp159
sg21
I0
sba(iArchitecture
Entity
p160
(dp161
g11
(lp162
sg13
S'android.media.AudioRecord$NativeRoutingEventHandlerDelegate$1'
p163
sg15
(lp164
sg17
(lp165
sg19
(lp166
sg21
I0
sba(iArchitecture
Entity
p167
(dp168
g11
(lp169
sg13
S'android.media.AudioRecord$OnRecordPositionUpdateListener'
p170
sg15
(lp171
sg17
(lp172
sg19
(lp173
sg21
I0
sba(iArchitecture
Entity
p174
(dp175
g11
(lp176
sg13
S'android.media.AudioRecord$OnRoutingChangedListener'
p177
sg15
(lp178
sg17
(lp179
sg19
(lp180
sg21
I0
sba(iArchitecture
Entity
p181
(dp182
g11
(lp183
sg13
S'android.media.AudioTrack'
p184
sg15
(lp185
sg17
(lp186
sg19
(lp187
sg21
I0
sba(iArchitecture
Entity
p188
(dp189
g11
(lp190
sg13
S'android.media.AudioTrack$Builder'
p191
sg15
(lp192
sg17
(lp193
sg19
(lp194
sg21
I0
sba(iArchitecture
Entity
p195
(dp196
g11
(lp197
sg13
S'android.media.AudioTrack$NativePositionEventHandlerDelegate'
p198
sg15
(lp199
sg17
(lp200
sg19
(lp201
sg21
I0
sba(iArchitecture
Entity
p202
(dp203
g11
(lp204
sg13
S'android.media.AudioTrack$NativePositionEventHandlerDelegate$1'
p205
sg15
(lp206
sg17
(lp207
sg19
(lp208
sg21
I0
sba(iArchitecture
Entity
p209
(dp210
g11
(lp211
sg13
S'android.media.AudioTrack$NativeRoutingEventHandlerDelegate'
p212
sg15
(lp213
sg17
(lp214
sg19
(lp215
sg21
I0
sba(iArchitecture
Entity
p216
(dp217
g11
(lp218
sg13
S'android.media.AudioTrack$NativeRoutingEventHandlerDelegate$1'
p219
sg15
(lp220
sg17
(lp221
sg19
(lp222
sg21
I0
sba(iArchitecture
Entity
p223
(dp224
g11
(lp225
sg13
S'android.media.AudioTrack$OnPlaybackPositionUpdateListener'
p226
sg15
(lp227
sg17
(lp228
sg19
(lp229
sg21
I0
sba(iArchitecture
Entity
p230
(dp231
g11
(lp232
sg13
S'android.media.AudioTrack$OnRoutingChangedListener'
p233
sg15
(lp234
sg17
(lp235
sg19
(lp236
sg21
I0
sba(iArchitecture
Entity
p237
(dp238
g11
(lp239
sg13
S'android.speech.tts.BlockingAudioTrack'
p240
sg15
(lp241
sg17
(lp242
sg19
(lp243
sg21
I0
sbasg50
(lp244
g135
ag142
ag149
ag156
ag163
ag170
ag177
ag184
ag191
ag198
ag205
ag212
ag219
ag226
ag233
ag240
asg21
I0
sg52
S'1298'
p245
sba(iArchitecture
Cluster
p246
(dp247
g7
(lp248
(iArchitecture
Entity
p249
(dp250
g11
(lp251
sg13
S'android.graphics.drawable.AnimatedRotateDrawable'
p252
sg15
(lp253
sg17
(lp254
sg19
(lp255
sg21
I0
sba(iArchitecture
Entity
p256
(dp257
g11
(lp258
sg13
S'android.graphics.drawable.AnimatedRotateDrawable$1'
p259
sg15
(lp260
sg17
(lp261
sg19
(lp262
sg21
I0
sba(iArchitecture
Entity
p263
(dp264
g11
(lp265
sg13
S'android.graphics.drawable.AnimatedRotateDrawable$AnimatedRotateState'
p266
sg15
(lp267
sg17
(lp268
sg19
(lp269
sg21
I0
sba(iArchitecture
Entity
p270
(dp271
g11
(lp272
sg13
S'android.graphics.drawable.DrawableInflater'
p273
sg15
(lp274
sg17
(lp275
sg19
(lp276
sg21
I0
sba(iArchitecture
Entity
p277
(dp278
g11
(lp279
sg13
S'android.preference.GenericInflater'
p280
sg15
(lp281
sg17
(lp282
sg19
(lp283
sg21
I0
sba(iArchitecture
Entity
p284
(dp285
g11
(lp286
sg13
S'android.preference.GenericInflater$Factory'
p287
sg15
(lp288
sg17
(lp289
sg19
(lp290
sg21
I0
sba(iArchitecture
Entity
p291
(dp292
g11
(lp293
sg13
S'android.preference.GenericInflater$FactoryMerger'
p294
sg15
(lp295
sg17
(lp296
sg19
(lp297
sg21
I0
sba(iArchitecture
Entity
p298
(dp299
g11
(lp300
sg13
S'android.preference.GenericInflater$Parent'
p301
sg15
(lp302
sg17
(lp303
sg19
(lp304
sg21
I0
sba(iArchitecture
Entity
p305
(dp306
g11
(lp307
sg13
S'android.util.StateSet'
p308
sg15
(lp309
sg17
(lp310
sg19
(lp311
sg21
I0
sba(iArchitecture
Entity
p312
(dp313
g11
(lp314
sg13
S'android.view.LayoutInflater'
p315
sg15
(lp316
sg17
(lp317
sg19
(lp318
sg21
I0
sba(iArchitecture
Entity
p319
(dp320
g11
(lp321
sg13
S'android.view.LayoutInflater$BlinkLayout'
p322
sg15
(lp323
sg17
(lp324
sg19
(lp325
sg21
I0
sba(iArchitecture
Entity
p326
(dp327
g11
(lp328
sg13
S'android.view.LayoutInflater$BlinkLayout$1'
p329
sg15
(lp330
sg17
(lp331
sg19
(lp332
sg21
I0
sba(iArchitecture
Entity
p333
(dp334
g11
(lp335
sg13
S'android.view.LayoutInflater$Factory'
p336
sg15
(lp337
sg17
(lp338
sg19
(lp339
sg21
I0
sba(iArchitecture
Entity
p340
(dp341
g11
(lp342
sg13
S'android.view.LayoutInflater$Factory2'
p343
sg15
(lp344
sg17
(lp345
sg19
(lp346
sg21
I0
sba(iArchitecture
Entity
p347
(dp348
g11
(lp349
sg13
S'android.view.LayoutInflater$FactoryMerger'
p350
sg15
(lp351
sg17
(lp352
sg19
(lp353
sg21
I0
sba(iArchitecture
Entity
p354
(dp355
g11
(lp356
sg13
S'android.view.LayoutInflater$Filter'
p357
sg15
(lp358
sg17
(lp359
sg19
(lp360
sg21
I0
sbasg50
(lp361
g252
ag259
ag266
ag273
ag280
ag287
ag294
ag301
ag308
ag315
ag322
ag329
ag336
ag343
ag350
ag357
asg21
I0
sg52
S'1398'
p362
sba(iArchitecture
Cluster
p363
(dp364
g7
(lp365
(iArchitecture
Entity
p366
(dp367
g11
(lp368
sg13
S'android.net.http.HttpResponseCache'
p369
sg15
(lp370
sg17
(lp371
sg19
(lp372
sg21
I0
sbasg50
(lp373
g369
asg21
I0
sg52
S'198'
p374
sba(iArchitecture
Cluster
p375
(dp376
g7
(lp377
(iArchitecture
Entity
p378
(dp379
g11
(lp380
sg13
S'com.google.android.collect.Sets'
p381
sg15
(lp382
sg17
(lp383
sg19
(lp384
sg21
I0
sbasg50
(lp385
g381
asg21
I0
sg52
S'298'
p386
sba(iArchitecture
Cluster
p387
(dp388
g7
(lp389
(iArchitecture
Entity
p390
(dp391
g11
(lp392
sg13
S'com.android.server.webkit.SystemInterface'
p393
sg15
(lp394
sg17
(lp395
sg19
(lp396
sg21
I0
sbasg50
(lp397
g393
asg21
I0
sg52
S'398'
p398
sba(iArchitecture
Cluster
p399
(dp400
g7
(lp401
(iArchitecture
Entity
p402
(dp403
g11
(lp404
sg13
S'android.content.UriPermission'
p405
sg15
(lp406
sg17
(lp407
sg19
(lp408
sg21
I0
sba(iArchitecture
Entity
p409
(dp410
g11
(lp411
sg13
S'android.content.UriPermission$1'
p412
sg15
(lp413
sg17
(lp414
sg19
(lp415
sg21
I0
sbasg50
(lp416
g405
ag412
asg21
I0
sg52
S'498'
p417
sba(iArchitecture
Cluster
p418
(dp419
g7
(lp420
(iArchitecture
Entity
p421
(dp422
g11
(lp423
sg13
S'android.location.GnssClock'
p424
sg15
(lp425
sg17
(lp426
sg19
(lp427
sg21
I0
sba(iArchitecture
Entity
p428
(dp429
g11
(lp430
sg13
S'android.location.GnssClock$1'
p431
sg15
(lp432
sg17
(lp433
sg19
(lp434
sg21
I0
sbasg50
(lp435
g424
ag431
asg21
I0
sg52
S'598'
p436
sba(iArchitecture
Cluster
p437
(dp438
g7
(lp439
(iArchitecture
Entity
p440
(dp441
g11
(lp442
sg13
S'android.os.WorkSource'
p443
sg15
(lp444
sg17
(lp445
sg19
(lp446
sg21
I0
sba(iArchitecture
Entity
p447
(dp448
g11
(lp449
sg13
S'android.os.WorkSource$1'
p450
sg15
(lp451
sg17
(lp452
sg19
(lp453
sg21
I0
sbasg50
(lp454
g443
ag450
asg21
I0
sg52
S'698'
p455
sba(iArchitecture
Cluster
p456
(dp457
g7
(lp458
(iArchitecture
Entity
p459
(dp460
g11
(lp461
sg13
S'android.app.LoaderManager'
p462
sg15
(lp463
sg17
(lp464
sg19
(lp465
sg21
I0
sba(iArchitecture
Entity
p466
(dp467
g11
(lp468
sg13
S'android.app.LoaderManager$LoaderCallbacks'
p469
sg15
(lp470
sg17
(lp471
sg19
(lp472
sg21
I0
sbasg50
(lp473
g462
ag469
asg21
I0
sg52
S'798'
p474
sba(iArchitecture
Cluster
p475
(dp476
g7
(lp477
(iArchitecture
Entity
p478
(dp479
g11
(lp480
sg13
S'android.telecom.VideoCallbackServant'
p481
sg15
(lp482
sg17
(lp483
sg19
(lp484
sg21
I0
sba(iArchitecture
Entity
p485
(dp486
g11
(lp487
sg13
S'android.telecom.VideoCallbackServant$1'
p488
sg15
(lp489
sg17
(lp490
sg19
(lp491
sg21
I0
sba(iArchitecture
Entity
p492
(dp493
g11
(lp494
sg13
S'android.telecom.VideoCallbackServant$2'
p495
sg15
(lp496
sg17
(lp497
sg19
(lp498
sg21
I0
sbasg50
(lp499
g481
ag488
ag495
asg21
I0
sg52
S'898'
p500
sba(iArchitecture
Cluster
p501
(dp502
g7
(lp503
(iArchitecture
Entity
p504
(dp505
g11
(lp506
sg13
S'android.media.tv.TvContentRating'
p507
sg15
(lp508
sg17
(lp509
sg19
(lp510
sg21
I0
sbasg50
(lp511
g507
asg21
I0
sg52
S'98'
p512
sba(iArchitecture
Cluster
p513
(dp514
g7
(lp515
(iArchitecture
Entity
p516
(dp517
g11
(lp518
sg13
S'android.hardware.camera2.impl.CallbackProxies'
p519
sg15
(lp520
sg17
(lp521
sg19
(lp522
sg21
I0
sba(iArchitecture
Entity
p523
(dp524
g11
(lp525
sg13
S'android.hardware.camera2.impl.CallbackProxies$DeviceCaptureCallbackProxy'
p526
sg15
(lp527
sg17
(lp528
sg19
(lp529
sg21
I0
sba(iArchitecture
Entity
p530
(dp531
g11
(lp532
sg13
S'android.hardware.camera2.impl.CallbackProxies$DeviceStateCallbackProxy'
p533
sg15
(lp534
sg17
(lp535
sg19
(lp536
sg21
I0
sba(iArchitecture
Entity
p537
(dp538
g11
(lp539
sg13
S'android.hardware.camera2.impl.CallbackProxies$SessionStateCallbackProxy'
p540
sg15
(lp541
sg17
(lp542
sg19
(lp543
sg21
I0
sbasg50
(lp544
g519
ag526
ag533
ag540
asg21
I0
sg52
S'980'
p545
sba(iArchitecture
Cluster
p546
(dp547
g7
(lp548
(iArchitecture
Entity
p549
(dp550
g11
(lp551
sg13
S'com.android.server.soundtrigger.SoundTriggerHelper'
p552
sg15
(lp553
sg17
(lp554
sg19
(lp555
sg21
I0
sba(iArchitecture
Entity
p556
(dp557
g11
(lp558
sg13
S'com.android.server.soundtrigger.SoundTriggerHelper$ModelData'
p559
sg15
(lp560
sg17
(lp561
sg19
(lp562
sg21
I0
sba(iArchitecture
Entity
p563
(dp564
g11
(lp565
sg13
S'com.android.server.soundtrigger.SoundTriggerHelper$MyCallStateListener'
p566
sg15
(lp567
sg17
(lp568
sg19
(lp569
sg21
I0
sba(iArchitecture
Entity
p570
(dp571
g11
(lp572
sg13
S'com.android.server.soundtrigger.SoundTriggerHelper$PowerSaveModeListener'
p573
sg15
(lp574
sg17
(lp575
sg19
(lp576
sg21
I0
sbasg50
(lp577
g552
ag559
ag566
ag573
asg21
I0
sg52
S'981'
p578
sba(iArchitecture
Cluster
p579
(dp580
g7
(lp581
(iArchitecture
Entity
p582
(dp583
g11
(lp584
sg13
S'android.media.AudioSystem'
p585
sg15
(lp586
sg17
(lp587
sg19
(lp588
sg21
I0
sba(iArchitecture
Entity
p589
(dp590
g11
(lp591
sg13
S'android.media.AudioSystem$AudioRecordingCallback'
p592
sg15
(lp593
sg17
(lp594
sg19
(lp595
sg21
I0
sba(iArchitecture
Entity
p596
(dp597
g11
(lp598
sg13
S'android.media.AudioSystem$DynamicPolicyCallback'
p599
sg15
(lp600
sg17
(lp601
sg19
(lp602
sg21
I0
sba(iArchitecture
Entity
p603
(dp604
g11
(lp605
sg13
S'android.media.AudioSystem$ErrorCallback'
p606
sg15
(lp607
sg17
(lp608
sg19
(lp609
sg21
I0
sbasg50
(lp610
g585
ag592
ag599
ag606
asg21
I0
sg52
S'982'
p611
sba(iArchitecture
Cluster
p612
(dp613
g7
(lp614
(iArchitecture
Entity
p615
(dp616
g11
(lp617
sg13
S'com.android.server.wm.BoundsAnimationController'
p618
sg15
(lp619
sg17
(lp620
sg19
(lp621
sg21
I0
sba(iArchitecture
Entity
p622
(dp623
g11
(lp624
sg13
S'com.android.server.wm.BoundsAnimationController$AnimateBoundsUser'
p625
sg15
(lp626
sg17
(lp627
sg19
(lp628
sg21
I0
sba(iArchitecture
Entity
p629
(dp630
g11
(lp631
sg13
S'com.android.server.wm.BoundsAnimationController$AppTransitionNotifier'
p632
sg15
(lp633
sg17
(lp634
sg19
(lp635
sg21
I0
sba(iArchitecture
Entity
p636
(dp637
g11
(lp638
sg13
S'com.android.server.wm.BoundsAnimationController$BoundsAnimator'
p639
sg15
(lp640
sg17
(lp641
sg19
(lp642
sg21
I0
sbasg50
(lp643
g618
ag625
ag632
ag639
asg21
I0
sg52
S'983'
p644
sba(iArchitecture
Cluster
p645
(dp646
g7
(lp647
(iArchitecture
Entity
p648
(dp649
g11
(lp650
sg13
S'android.widget.CheckedTextView'
p651
sg15
(lp652
sg17
(lp653
sg19
(lp654
sg21
I0
sba(iArchitecture
Entity
p655
(dp656
g11
(lp657
sg13
S'android.widget.CheckedTextView$SavedState'
p658
sg15
(lp659
sg17
(lp660
sg19
(lp661
sg21
I0
sba(iArchitecture
Entity
p662
(dp663
g11
(lp664
sg13
S'android.widget.CheckedTextView$SavedState$1'
p665
sg15
(lp666
sg17
(lp667
sg19
(lp668
sg21
I0
sbasg50
(lp669
g651
ag658
ag665
asg21
I0
sg52
S'984'
p670
sba(iArchitecture
Cluster
p671
(dp672
g7
(lp673
(iArchitecture
Entity
p674
(dp675
g11
(lp676
sg13
S'com.android.server.pm.EphemeralResolverConnection'
p677
sg15
(lp678
sg17
(lp679
sg19
(lp680
sg21
I0
sba(iArchitecture
Entity
p681
(dp682
g11
(lp683
sg13
S'com.android.server.pm.EphemeralResolverConnection$GetEphemeralResolveInfoCaller'
p684
sg15
(lp685
sg17
(lp686
sg19
(lp687
sg21
I0
sba(iArchitecture
Entity
p688
(dp689
g11
(lp690
sg13
S'com.android.server.pm.EphemeralResolverConnection$GetEphemeralResolveInfoCaller$1'
p691
sg15
(lp692
sg17
(lp693
sg19
(lp694
sg21
I0
sba(iArchitecture
Entity
p695
(dp696
g11
(lp697
sg13
S'com.android.server.pm.EphemeralResolverConnection$MyServiceConnection'
p698
sg15
(lp699
sg17
(lp700
sg19
(lp701
sg21
I0
sbasg50
(lp702
g677
ag684
ag691
ag698
asg21
I0
sg52
S'985'
p703
sba(iArchitecture
Cluster
p704
(dp705
g7
(lp706
(iArchitecture
Entity
p707
(dp708
g11
(lp709
sg13
S'android.animation.Keyframe'
p710
sg15
(lp711
sg17
(lp712
sg19
(lp713
sg21
I0
sba(iArchitecture
Entity
p714
(dp715
g11
(lp716
sg13
S'android.animation.Keyframe$FloatKeyframe'
p717
sg15
(lp718
sg17
(lp719
sg19
(lp720
sg21
I0
sba(iArchitecture
Entity
p721
(dp722
g11
(lp723
sg13
S'android.animation.Keyframe$IntKeyframe'
p724
sg15
(lp725
sg17
(lp726
sg19
(lp727
sg21
I0
sba(iArchitecture
Entity
p728
(dp729
g11
(lp730
sg13
S'android.animation.Keyframe$ObjectKeyframe'
p731
sg15
(lp732
sg17
(lp733
sg19
(lp734
sg21
I0
sbasg50
(lp735
g710
ag717
ag724
ag731
asg21
I0
sg52
S'986'
p736
sba(iArchitecture
Cluster
p737
(dp738
g7
(lp739
(iArchitecture
Entity
p740
(dp741
g11
(lp742
sg13
S'android.provider.BlockedNumberContract'
p743
sg15
(lp744
sg17
(lp745
sg19
(lp746
sg21
I0
sba(iArchitecture
Entity
p747
(dp748
g11
(lp749
sg13
S'android.provider.BlockedNumberContract$BlockedNumbers'
p750
sg15
(lp751
sg17
(lp752
sg19
(lp753
sg21
I0
sba(iArchitecture
Entity
p754
(dp755
g11
(lp756
sg13
S'android.provider.BlockedNumberContract$SystemContract'
p757
sg15
(lp758
sg17
(lp759
sg19
(lp760
sg21
I0
sba(iArchitecture
Entity
p761
(dp762
g11
(lp763
sg13
S'android.provider.BlockedNumberContract$SystemContract$BlockSuppressionStatus'
p764
sg15
(lp765
sg17
(lp766
sg19
(lp767
sg21
I0
sbasg50
(lp768
g743
ag750
ag757
ag764
asg21
I0
sg52
S'987'
p769
sba(iArchitecture
Cluster
p770
(dp771
g7
(lp772
(iArchitecture
Entity
p773
(dp774
g11
(lp775
sg13
S'android.content.IntentFilter'
p776
sg15
(lp777
sg17
(lp778
sg19
(lp779
sg21
I0
sba(iArchitecture
Entity
p780
(dp781
g11
(lp782
sg13
S'android.content.IntentFilter$1'
p783
sg15
(lp784
sg17
(lp785
sg19
(lp786
sg21
I0
sba(iArchitecture
Entity
p787
(dp788
g11
(lp789
sg13
S'android.content.IntentFilter$AuthorityEntry'
p790
sg15
(lp791
sg17
(lp792
sg19
(lp793
sg21
I0
sba(iArchitecture
Entity
p794
(dp795
g11
(lp796
sg13
S'android.content.IntentFilter$MalformedMimeTypeException'
p797
sg15
(lp798
sg17
(lp799
sg19
(lp800
sg21
I0
sbasg50
(lp801
g776
ag783
ag790
ag797
asg21
I0
sg52
S'988'
p802
sba(iArchitecture
Cluster
p803
(dp804
g7
(lp805
(iArchitecture
Entity
p806
(dp807
g11
(lp808
sg13
S'com.android.server.accessibility.KeyEventDispatcher'
p809
sg15
(lp810
sg17
(lp811
sg19
(lp812
sg21
I0
sba(iArchitecture
Entity
p813
(dp814
g11
(lp815
sg13
S'com.android.server.accessibility.KeyEventDispatcher$Callback'
p816
sg15
(lp817
sg17
(lp818
sg19
(lp819
sg21
I0
sba(iArchitecture
Entity
p820
(dp821
g11
(lp822
sg13
S'com.android.server.accessibility.KeyEventDispatcher$PendingKeyEvent'
p823
sg15
(lp824
sg17
(lp825
sg19
(lp826
sg21
I0
sbasg50
(lp827
g809
ag816
ag823
asg21
I0
sg52
S'989'
p828
sba(iArchitecture
Cluster
p829
(dp830
g7
(lp831
(iArchitecture
Entity
p832
(dp833
g11
(lp834
sg13
S'com.android.server.power.WirelessChargerDetector'
p835
sg15
(lp836
sg17
(lp837
sg19
(lp838
sg21
I0
sba(iArchitecture
Entity
p839
(dp840
g11
(lp841
sg13
S'com.android.server.power.WirelessChargerDetector$1'
p842
sg15
(lp843
sg17
(lp844
sg19
(lp845
sg21
I0
sba(iArchitecture
Entity
p846
(dp847
g11
(lp848
sg13
S'com.android.server.power.WirelessChargerDetector$2'
p849
sg15
(lp850
sg17
(lp851
sg19
(lp852
sg21
I0
sbasg50
(lp853
g835
ag842
ag849
asg21
I0
sg52
S'998'
p854
sbasS'target_sub'
p855
S'98'
p856
sg50
(lp857
sS'is_component_arch'
p858
I01
sg52
S'7.0.0_r1'
p859
sba.