(lp0
(iArchitecture
Architecture
p1
(dp2
S'clusters'
p3
(lp4
(iArchitecture
Cluster
p5
(dp6
S'entities'
p7
(lp8
(iArchitecture
Entity
p9
(dp10
S'issue_ids'
p11
(lp12
sS'name'
p13
S'com.android.server.WiredAccessoryManager'
p14
sS'descs'
p15
(lp16
sS'labels'
p17
(lp18
sS'titles'
p19
(lp20
sS'change'
p21
I0
sba(iArchitecture
Entity
p22
(dp23
g11
(lp24
sg13
S'com.android.server.WiredAccessoryManager$1'
p25
sg15
(lp26
sg17
(lp27
sg19
(lp28
sg21
I0
sba(iArchitecture
Entity
p29
(dp30
g11
(lp31
sg13
S'com.android.server.WiredAccessoryManager$WiredAccessoryObserver'
p32
sg15
(lp33
sg17
(lp34
sg19
(lp35
sg21
I0
sba(iArchitecture
Entity
p36
(dp37
g11
(lp38
sg13
S'com.android.server.WiredAccessoryManager$WiredAccessoryObserver$UEventInfo'
p39
sg15
(lp40
sg17
(lp41
sg19
(lp42
sg21
I0
sbasS'classes'
p43
(lp44
g14
ag25
ag32
ag39
asg21
I0
sS'label'
p45
S'1020'
p46
sba(iArchitecture
Cluster
p47
(dp48
g7
(lp49
(iArchitecture
Entity
p50
(dp51
g11
(lp52
sg13
S'com.android.server.usb.UsbPortManager'
p53
sg15
(lp54
sg17
(lp55
sg19
(lp56
sg21
I0
sba(iArchitecture
Entity
p57
(dp58
g11
(lp59
sg13
S'com.android.server.usb.UsbPortManager$1'
p60
sg15
(lp61
sg17
(lp62
sg19
(lp63
sg21
I0
sba(iArchitecture
Entity
p64
(dp65
g11
(lp66
sg13
S'com.android.server.usb.UsbPortManager$2'
p67
sg15
(lp68
sg17
(lp69
sg19
(lp70
sg21
I0
sba(iArchitecture
Entity
p71
(dp72
g11
(lp73
sg13
S'com.android.server.usb.UsbPortManager$3'
p74
sg15
(lp75
sg17
(lp76
sg19
(lp77
sg21
I0
sba(iArchitecture
Entity
p78
(dp79
g11
(lp80
sg13
S'com.android.server.usb.UsbPortManager$PortInfo'
p81
sg15
(lp82
sg17
(lp83
sg19
(lp84
sg21
I0
sba(iArchitecture
Entity
p85
(dp86
g11
(lp87
sg13
S'com.android.server.usb.UsbPortManager$SimulatedPortInfo'
p88
sg15
(lp89
sg17
(lp90
sg19
(lp91
sg21
I0
sbasg43
(lp92
g53
ag60
ag67
ag74
ag81
ag88
asg21
I0
sg45
S'1120'
p93
sba(iArchitecture
Cluster
p94
(dp95
g7
(lp96
(iArchitecture
Entity
p97
(dp98
g11
(lp99
sg13
S'android.net.netlink.NetlinkMessage'
p100
sg15
(lp101
sg17
(lp102
sg19
(lp103
sg21
I0
sbasg43
(lp104
g100
asg21
I0
sg45
S'120'
p105
sba(iArchitecture
Cluster
p106
(dp107
g7
(lp108
(iArchitecture
Entity
p109
(dp110
g11
(lp111
sg13
S'com.android.server.policy.ImmersiveModeConfirmation'
p112
sg15
(lp113
sg17
(lp114
sg19
(lp115
sg21
I0
sba(iArchitecture
Entity
p116
(dp117
g11
(lp118
sg13
S'com.android.server.policy.ImmersiveModeConfirmation$1'
p119
sg15
(lp120
sg17
(lp121
sg19
(lp122
sg21
I0
sba(iArchitecture
Entity
p123
(dp124
g11
(lp125
sg13
S'com.android.server.policy.ImmersiveModeConfirmation$2'
p126
sg15
(lp127
sg17
(lp128
sg19
(lp129
sg21
I0
sba(iArchitecture
Entity
p130
(dp131
g11
(lp132
sg13
S'com.android.server.policy.ImmersiveModeConfirmation$ClingWindowView'
p133
sg15
(lp134
sg17
(lp135
sg19
(lp136
sg21
I0
sba(iArchitecture
Entity
p137
(dp138
g11
(lp139
sg13
S'com.android.server.policy.ImmersiveModeConfirmation$ClingWindowView$1'
p140
sg15
(lp141
sg17
(lp142
sg19
(lp143
sg21
I0
sba(iArchitecture
Entity
p144
(dp145
g11
(lp146
sg13
S'com.android.server.policy.ImmersiveModeConfirmation$ClingWindowView$2'
p147
sg15
(lp148
sg17
(lp149
sg19
(lp150
sg21
I0
sba(iArchitecture
Entity
p151
(dp152
g11
(lp153
sg13
S'com.android.server.policy.ImmersiveModeConfirmation$ClingWindowView$3'
p154
sg15
(lp155
sg17
(lp156
sg19
(lp157
sg21
I0
sba(iArchitecture
Entity
p158
(dp159
g11
(lp160
sg13
S'com.android.server.policy.ImmersiveModeConfirmation$ClingWindowView$4'
p161
sg15
(lp162
sg17
(lp163
sg19
(lp164
sg21
I0
sba(iArchitecture
Entity
p165
(dp166
g11
(lp167
sg13
S'com.android.server.policy.ImmersiveModeConfirmation$ClingWindowView$5'
p168
sg15
(lp169
sg17
(lp170
sg19
(lp171
sg21
I0
sba(iArchitecture
Entity
p172
(dp173
g11
(lp174
sg13
S'com.android.server.policy.ImmersiveModeConfirmation$ClingWindowView$5$1'
p175
sg15
(lp176
sg17
(lp177
sg19
(lp178
sg21
I0
sba(iArchitecture
Entity
p179
(dp180
g11
(lp181
sg13
S'com.android.server.policy.ImmersiveModeConfirmation$H'
p182
sg15
(lp183
sg17
(lp184
sg19
(lp185
sg21
I0
sbasg43
(lp186
g112
ag119
ag126
ag133
ag140
ag147
ag154
ag161
ag168
ag175
ag182
asg21
I0
sg45
S'1200'
p187
sba(iArchitecture
Cluster
p188
(dp189
g7
(lp190
(iArchitecture
Entity
p191
(dp192
g11
(lp193
sg13
S'android.hardware.camera2.legacy.CameraDeviceState'
p194
sg15
(lp195
sg17
(lp196
sg19
(lp197
sg21
I0
sba(iArchitecture
Entity
p198
(dp199
g11
(lp200
sg13
S'android.hardware.camera2.legacy.CameraDeviceState$1'
p201
sg15
(lp202
sg17
(lp203
sg19
(lp204
sg21
I0
sba(iArchitecture
Entity
p205
(dp206
g11
(lp207
sg13
S'android.hardware.camera2.legacy.CameraDeviceState$2'
p208
sg15
(lp209
sg17
(lp210
sg19
(lp211
sg21
I0
sba(iArchitecture
Entity
p212
(dp213
g11
(lp214
sg13
S'android.hardware.camera2.legacy.CameraDeviceState$3'
p215
sg15
(lp216
sg17
(lp217
sg19
(lp218
sg21
I0
sba(iArchitecture
Entity
p219
(dp220
g11
(lp221
sg13
S'android.hardware.camera2.legacy.CameraDeviceState$4'
p222
sg15
(lp223
sg17
(lp224
sg19
(lp225
sg21
I0
sba(iArchitecture
Entity
p226
(dp227
g11
(lp228
sg13
S'android.hardware.camera2.legacy.CameraDeviceState$5'
p229
sg15
(lp230
sg17
(lp231
sg19
(lp232
sg21
I0
sba(iArchitecture
Entity
p233
(dp234
g11
(lp235
sg13
S'android.hardware.camera2.legacy.CameraDeviceState$6'
p236
sg15
(lp237
sg17
(lp238
sg19
(lp239
sg21
I0
sba(iArchitecture
Entity
p240
(dp241
g11
(lp242
sg13
S'android.hardware.camera2.legacy.CameraDeviceState$7'
p243
sg15
(lp244
sg17
(lp245
sg19
(lp246
sg21
I0
sba(iArchitecture
Entity
p247
(dp248
g11
(lp249
sg13
S'android.hardware.camera2.legacy.CameraDeviceState$8'
p250
sg15
(lp251
sg17
(lp252
sg19
(lp253
sg21
I0
sba(iArchitecture
Entity
p254
(dp255
g11
(lp256
sg13
S'android.hardware.camera2.legacy.CameraDeviceState$9'
p257
sg15
(lp258
sg17
(lp259
sg19
(lp260
sg21
I0
sba(iArchitecture
Entity
p261
(dp262
g11
(lp263
sg13
S'android.hardware.camera2.legacy.CameraDeviceState$CameraDeviceStateListener'
p264
sg15
(lp265
sg17
(lp266
sg19
(lp267
sg21
I0
sbasg43
(lp268
g194
ag201
ag208
ag215
ag222
ag229
ag236
ag243
ag250
ag257
ag264
asg21
I0
sg45
S'1201'
p269
sba(iArchitecture
Cluster
p270
(dp271
g7
(lp272
(iArchitecture
Entity
p273
(dp274
g11
(lp275
sg13
S'android.app.Instrumentation'
p276
sg15
(lp277
sg17
(lp278
sg19
(lp279
sg21
I0
sba(iArchitecture
Entity
p280
(dp281
g11
(lp282
sg13
S'android.app.Instrumentation$1ContextMenuRunnable'
p283
sg15
(lp284
sg17
(lp285
sg19
(lp286
sg21
I0
sba(iArchitecture
Entity
p287
(dp288
g11
(lp289
sg13
S'android.app.Instrumentation$1MenuRunnable'
p290
sg15
(lp291
sg17
(lp292
sg19
(lp293
sg21
I0
sba(iArchitecture
Entity
p294
(dp295
g11
(lp296
sg13
S'android.app.Instrumentation$ActivityGoing'
p297
sg15
(lp298
sg17
(lp299
sg19
(lp300
sg21
I0
sba(iArchitecture
Entity
p301
(dp302
g11
(lp303
sg13
S'android.app.Instrumentation$ActivityMonitor'
p304
sg15
(lp305
sg17
(lp306
sg19
(lp307
sg21
I0
sba(iArchitecture
Entity
p308
(dp309
g11
(lp310
sg13
S'android.app.Instrumentation$ActivityResult'
p311
sg15
(lp312
sg17
(lp313
sg19
(lp314
sg21
I0
sba(iArchitecture
Entity
p315
(dp316
g11
(lp317
sg13
S'android.app.Instrumentation$ActivityWaiter'
p318
sg15
(lp319
sg17
(lp320
sg19
(lp321
sg21
I0
sba(iArchitecture
Entity
p322
(dp323
g11
(lp324
sg13
S'android.app.Instrumentation$EmptyRunnable'
p325
sg15
(lp326
sg17
(lp327
sg19
(lp328
sg21
I0
sba(iArchitecture
Entity
p329
(dp330
g11
(lp331
sg13
S'android.app.Instrumentation$Idler'
p332
sg15
(lp333
sg17
(lp334
sg19
(lp335
sg21
I0
sba(iArchitecture
Entity
p336
(dp337
g11
(lp338
sg13
S'android.app.Instrumentation$InstrumentationThread'
p339
sg15
(lp340
sg17
(lp341
sg19
(lp342
sg21
I0
sba(iArchitecture
Entity
p343
(dp344
g11
(lp345
sg13
S'android.app.Instrumentation$SyncRunnable'
p346
sg15
(lp347
sg17
(lp348
sg19
(lp349
sg21
I0
sbasg43
(lp350
g276
ag283
ag290
ag297
ag304
ag311
ag318
ag325
ag332
ag339
ag346
asg21
I0
sg45
S'1202'
p351
sba(iArchitecture
Cluster
p352
(dp353
g7
(lp354
(iArchitecture
Entity
p355
(dp356
g11
(lp357
sg13
S'android.widget.PopupWindow'
p358
sg15
(lp359
sg17
(lp360
sg19
(lp361
sg21
I0
sba(iArchitecture
Entity
p362
(dp363
g11
(lp364
sg13
S'android.widget.PopupWindow$1'
p365
sg15
(lp366
sg17
(lp367
sg19
(lp368
sg21
I0
sba(iArchitecture
Entity
p369
(dp370
g11
(lp371
sg13
S'android.widget.PopupWindow$2'
p372
sg15
(lp373
sg17
(lp374
sg19
(lp375
sg21
I0
sba(iArchitecture
Entity
p376
(dp377
g11
(lp378
sg13
S'android.widget.PopupWindow$3'
p379
sg15
(lp380
sg17
(lp381
sg19
(lp382
sg21
I0
sba(iArchitecture
Entity
p383
(dp384
g11
(lp385
sg13
S'android.widget.PopupWindow$4'
p386
sg15
(lp387
sg17
(lp388
sg19
(lp389
sg21
I0
sba(iArchitecture
Entity
p390
(dp391
g11
(lp392
sg13
S'android.widget.PopupWindow$OnDismissListener'
p393
sg15
(lp394
sg17
(lp395
sg19
(lp396
sg21
I0
sba(iArchitecture
Entity
p397
(dp398
g11
(lp399
sg13
S'android.widget.PopupWindow$PopupBackgroundView'
p400
sg15
(lp401
sg17
(lp402
sg19
(lp403
sg21
I0
sba(iArchitecture
Entity
p404
(dp405
g11
(lp406
sg13
S'android.widget.PopupWindow$PopupDecorView'
p407
sg15
(lp408
sg17
(lp409
sg19
(lp410
sg21
I0
sba(iArchitecture
Entity
p411
(dp412
g11
(lp413
sg13
S'android.widget.PopupWindow$PopupDecorView$1'
p414
sg15
(lp415
sg17
(lp416
sg19
(lp417
sg21
I0
sba(iArchitecture
Entity
p418
(dp419
g11
(lp420
sg13
S'android.widget.PopupWindow$PopupDecorView$2'
p421
sg15
(lp422
sg17
(lp423
sg19
(lp424
sg21
I0
sba(iArchitecture
Entity
p425
(dp426
g11
(lp427
sg13
S'android.widget.PopupWindow$PopupDecorView$2$1'
p428
sg15
(lp429
sg17
(lp430
sg19
(lp431
sg21
I0
sba(iArchitecture
Entity
p432
(dp433
g11
(lp434
sg13
S'android.widget.PopupWindow$PopupDecorView$3'
p435
sg15
(lp436
sg17
(lp437
sg19
(lp438
sg21
I0
sbasg43
(lp439
g358
ag365
ag372
ag379
ag386
ag393
ag400
ag407
ag414
ag421
ag428
ag435
asg21
I0
sg45
S'1203'
p440
sba(iArchitecture
Cluster
p441
(dp442
g7
(lp443
(iArchitecture
Entity
p444
(dp445
g11
(lp446
sg13
S'android.hardware.fingerprint.FingerprintManager'
p447
sg15
(lp448
sg17
(lp449
sg19
(lp450
sg21
I0
sba(iArchitecture
Entity
p451
(dp452
g11
(lp453
sg13
S'android.hardware.fingerprint.FingerprintManager$1'
p454
sg15
(lp455
sg17
(lp456
sg19
(lp457
sg21
I0
sba(iArchitecture
Entity
p458
(dp459
g11
(lp460
sg13
S'android.hardware.fingerprint.FingerprintManager$2'
p461
sg15
(lp462
sg17
(lp463
sg19
(lp464
sg21
I0
sba(iArchitecture
Entity
p465
(dp466
g11
(lp467
sg13
S'android.hardware.fingerprint.FingerprintManager$2$1'
p468
sg15
(lp469
sg17
(lp470
sg19
(lp471
sg21
I0
sba(iArchitecture
Entity
p472
(dp473
g11
(lp474
sg13
S'android.hardware.fingerprint.FingerprintManager$AuthenticationCallback'
p475
sg15
(lp476
sg17
(lp477
sg19
(lp478
sg21
I0
sba(iArchitecture
Entity
p479
(dp480
g11
(lp481
sg13
S'android.hardware.fingerprint.FingerprintManager$AuthenticationResult'
p482
sg15
(lp483
sg17
(lp484
sg19
(lp485
sg21
I0
sba(iArchitecture
Entity
p486
(dp487
g11
(lp488
sg13
S'android.hardware.fingerprint.FingerprintManager$CryptoObject'
p489
sg15
(lp490
sg17
(lp491
sg19
(lp492
sg21
I0
sba(iArchitecture
Entity
p493
(dp494
g11
(lp495
sg13
S'android.hardware.fingerprint.FingerprintManager$EnrollmentCallback'
p496
sg15
(lp497
sg17
(lp498
sg19
(lp499
sg21
I0
sba(iArchitecture
Entity
p500
(dp501
g11
(lp502
sg13
S'android.hardware.fingerprint.FingerprintManager$LockoutResetCallback'
p503
sg15
(lp504
sg17
(lp505
sg19
(lp506
sg21
I0
sba(iArchitecture
Entity
p507
(dp508
g11
(lp509
sg13
S'android.hardware.fingerprint.FingerprintManager$MyHandler'
p510
sg15
(lp511
sg17
(lp512
sg19
(lp513
sg21
I0
sba(iArchitecture
Entity
p514
(dp515
g11
(lp516
sg13
S'android.hardware.fingerprint.FingerprintManager$OnAuthenticationCancelListener'
p517
sg15
(lp518
sg17
(lp519
sg19
(lp520
sg21
I0
sba(iArchitecture
Entity
p521
(dp522
g11
(lp523
sg13
S'android.hardware.fingerprint.FingerprintManager$OnEnrollCancelListener'
p524
sg15
(lp525
sg17
(lp526
sg19
(lp527
sg21
I0
sba(iArchitecture
Entity
p528
(dp529
g11
(lp530
sg13
S'android.hardware.fingerprint.FingerprintManager$RemovalCallback'
p531
sg15
(lp532
sg17
(lp533
sg19
(lp534
sg21
I0
sbasg43
(lp535
g447
ag454
ag461
ag468
ag475
ag482
ag489
ag496
ag503
ag510
ag517
ag524
ag531
asg21
I0
sg45
S'1204'
p536
sba(iArchitecture
Cluster
p537
(dp538
g7
(lp539
(iArchitecture
Entity
p540
(dp541
g11
(lp542
sg13
S'com.android.server.content.SyncStorageEngine'
p543
sg15
(lp544
sg17
(lp545
sg19
(lp546
sg21
I0
sba(iArchitecture
Entity
p547
(dp548
g11
(lp549
sg13
S'com.android.server.content.SyncStorageEngine$AccountInfo'
p550
sg15
(lp551
sg17
(lp552
sg19
(lp553
sg21
I0
sba(iArchitecture
Entity
p554
(dp555
g11
(lp556
sg13
S'com.android.server.content.SyncStorageEngine$AuthorityInfo'
p557
sg15
(lp558
sg17
(lp559
sg19
(lp560
sg21
I0
sba(iArchitecture
Entity
p561
(dp562
g11
(lp563
sg13
S'com.android.server.content.SyncStorageEngine$DayStats'
p564
sg15
(lp565
sg17
(lp566
sg19
(lp567
sg21
I0
sba(iArchitecture
Entity
p568
(dp569
g11
(lp570
sg13
S'com.android.server.content.SyncStorageEngine$EndPoint'
p571
sg15
(lp572
sg17
(lp573
sg19
(lp574
sg21
I0
sba(iArchitecture
Entity
p575
(dp576
g11
(lp577
sg13
S'com.android.server.content.SyncStorageEngine$OnAuthorityRemovedListener'
p578
sg15
(lp579
sg17
(lp580
sg19
(lp581
sg21
I0
sba(iArchitecture
Entity
p582
(dp583
g11
(lp584
sg13
S'com.android.server.content.SyncStorageEngine$OnSyncRequestListener'
p585
sg15
(lp586
sg17
(lp587
sg19
(lp588
sg21
I0
sba(iArchitecture
Entity
p589
(dp590
g11
(lp591
sg13
S'com.android.server.content.SyncStorageEngine$PeriodicSyncAddedListener'
p592
sg15
(lp593
sg17
(lp594
sg19
(lp595
sg21
I0
sba(iArchitecture
Entity
p596
(dp597
g11
(lp598
sg13
S'com.android.server.content.SyncStorageEngine$SyncHistoryItem'
p599
sg15
(lp600
sg17
(lp601
sg19
(lp602
sg21
I0
sbasg43
(lp603
g543
ag550
ag557
ag564
ag571
ag578
ag585
ag592
ag599
asg21
I0
sg45
S'1205'
p604
sba(iArchitecture
Cluster
p605
(dp606
g7
(lp607
(iArchitecture
Entity
p608
(dp609
g11
(lp610
sg13
S'android.service.carrier.CarrierMessagingService'
p611
sg15
(lp612
sg17
(lp613
sg19
(lp614
sg21
I0
sba(iArchitecture
Entity
p615
(dp616
g11
(lp617
sg13
S'android.service.carrier.CarrierMessagingService$1'
p618
sg15
(lp619
sg17
(lp620
sg19
(lp621
sg21
I0
sba(iArchitecture
Entity
p622
(dp623
g11
(lp624
sg13
S'android.service.carrier.CarrierMessagingService$ICarrierMessagingWrapper'
p625
sg15
(lp626
sg17
(lp627
sg19
(lp628
sg21
I0
sba(iArchitecture
Entity
p629
(dp630
g11
(lp631
sg13
S'android.service.carrier.CarrierMessagingService$ICarrierMessagingWrapper$1'
p632
sg15
(lp633
sg17
(lp634
sg19
(lp635
sg21
I0
sba(iArchitecture
Entity
p636
(dp637
g11
(lp638
sg13
S'android.service.carrier.CarrierMessagingService$ICarrierMessagingWrapper$2'
p639
sg15
(lp640
sg17
(lp641
sg19
(lp642
sg21
I0
sba(iArchitecture
Entity
p643
(dp644
g11
(lp645
sg13
S'android.service.carrier.CarrierMessagingService$ICarrierMessagingWrapper$3'
p646
sg15
(lp647
sg17
(lp648
sg19
(lp649
sg21
I0
sba(iArchitecture
Entity
p650
(dp651
g11
(lp652
sg13
S'android.service.carrier.CarrierMessagingService$ICarrierMessagingWrapper$4'
p653
sg15
(lp654
sg17
(lp655
sg19
(lp656
sg21
I0
sba(iArchitecture
Entity
p657
(dp658
g11
(lp659
sg13
S'android.service.carrier.CarrierMessagingService$ICarrierMessagingWrapper$5'
p660
sg15
(lp661
sg17
(lp662
sg19
(lp663
sg21
I0
sba(iArchitecture
Entity
p664
(dp665
g11
(lp666
sg13
S'android.service.carrier.CarrierMessagingService$ICarrierMessagingWrapper$6'
p667
sg15
(lp668
sg17
(lp669
sg19
(lp670
sg21
I0
sba(iArchitecture
Entity
p671
(dp672
g11
(lp673
sg13
S'android.service.carrier.CarrierMessagingService$ResultCallback'
p674
sg15
(lp675
sg17
(lp676
sg19
(lp677
sg21
I0
sba(iArchitecture
Entity
p678
(dp679
g11
(lp680
sg13
S'android.service.carrier.CarrierMessagingService$SendMmsResult'
p681
sg15
(lp682
sg17
(lp683
sg19
(lp684
sg21
I0
sba(iArchitecture
Entity
p685
(dp686
g11
(lp687
sg13
S'android.service.carrier.CarrierMessagingService$SendMultipartSmsResult'
p688
sg15
(lp689
sg17
(lp690
sg19
(lp691
sg21
I0
sba(iArchitecture
Entity
p692
(dp693
g11
(lp694
sg13
S'android.service.carrier.CarrierMessagingService$SendSmsResult'
p695
sg15
(lp696
sg17
(lp697
sg19
(lp698
sg21
I0
sbasg43
(lp699
g611
ag618
ag625
ag632
ag639
ag646
ag653
ag660
ag667
ag674
ag681
ag688
ag695
asg21
I0
sg45
S'1206'
p700
sba(iArchitecture
Cluster
p701
(dp702
g7
(lp703
(iArchitecture
Entity
p704
(dp705
g11
(lp706
sg13
S'android.media.MediaDrm'
p707
sg15
(lp708
sg17
(lp709
sg19
(lp710
sg21
I0
sba(iArchitecture
Entity
p711
(dp712
g11
(lp713
sg13
S'android.media.MediaDrm$Certificate'
p714
sg15
(lp715
sg17
(lp716
sg19
(lp717
sg21
I0
sba(iArchitecture
Entity
p718
(dp719
g11
(lp720
sg13
S'android.media.MediaDrm$CertificateRequest'
p721
sg15
(lp722
sg17
(lp723
sg19
(lp724
sg21
I0
sba(iArchitecture
Entity
p725
(dp726
g11
(lp727
sg13
S'android.media.MediaDrm$CryptoSession'
p728
sg15
(lp729
sg17
(lp730
sg19
(lp731
sg21
I0
sba(iArchitecture
Entity
p732
(dp733
g11
(lp734
sg13
S'android.media.MediaDrm$EventHandler'
p735
sg15
(lp736
sg17
(lp737
sg19
(lp738
sg21
I0
sba(iArchitecture
Entity
p739
(dp740
g11
(lp741
sg13
S'android.media.MediaDrm$KeyRequest'
p742
sg15
(lp743
sg17
(lp744
sg19
(lp745
sg21
I0
sba(iArchitecture
Entity
p746
(dp747
g11
(lp748
sg13
S'android.media.MediaDrm$KeyStatus'
p749
sg15
(lp750
sg17
(lp751
sg19
(lp752
sg21
I0
sba(iArchitecture
Entity
p753
(dp754
g11
(lp755
sg13
S'android.media.MediaDrm$MediaDrmStateException'
p756
sg15
(lp757
sg17
(lp758
sg19
(lp759
sg21
I0
sba(iArchitecture
Entity
p760
(dp761
g11
(lp762
sg13
S'android.media.MediaDrm$OnEventListener'
p763
sg15
(lp764
sg17
(lp765
sg19
(lp766
sg21
I0
sba(iArchitecture
Entity
p767
(dp768
g11
(lp769
sg13
S'android.media.MediaDrm$OnExpirationUpdateListener'
p770
sg15
(lp771
sg17
(lp772
sg19
(lp773
sg21
I0
sba(iArchitecture
Entity
p774
(dp775
g11
(lp776
sg13
S'android.media.MediaDrm$OnKeyStatusChangeListener'
p777
sg15
(lp778
sg17
(lp779
sg19
(lp780
sg21
I0
sba(iArchitecture
Entity
p781
(dp782
g11
(lp783
sg13
S'android.media.MediaDrm$ProvisionRequest'
p784
sg15
(lp785
sg17
(lp786
sg19
(lp787
sg21
I0
sbasg43
(lp788
g707
ag714
ag721
ag728
ag735
ag742
ag749
ag756
ag763
ag770
ag777
ag784
asg21
I0
sg45
S'1207'
p789
sba(iArchitecture
Cluster
p790
(dp791
g7
(lp792
(iArchitecture
Entity
p793
(dp794
g11
(lp795
sg13
S'android.app.ActivityView'
p796
sg15
(lp797
sg17
(lp798
sg19
(lp799
sg21
I0
sba(iArchitecture
Entity
p800
(dp801
g11
(lp802
sg13
S'android.app.ActivityView$1'
p803
sg15
(lp804
sg17
(lp805
sg19
(lp806
sg21
I0
sba(iArchitecture
Entity
p807
(dp808
g11
(lp809
sg13
S'android.app.ActivityView$2'
p810
sg15
(lp811
sg17
(lp812
sg19
(lp813
sg21
I0
sba(iArchitecture
Entity
p814
(dp815
g11
(lp816
sg13
S'android.app.ActivityView$2$1'
p817
sg15
(lp818
sg17
(lp819
sg19
(lp820
sg21
I0
sba(iArchitecture
Entity
p821
(dp822
g11
(lp823
sg13
S'android.app.ActivityView$ActivityContainerCallback'
p824
sg15
(lp825
sg17
(lp826
sg19
(lp827
sg21
I0
sba(iArchitecture
Entity
p828
(dp829
g11
(lp830
sg13
S'android.app.ActivityView$ActivityContainerCallback$1'
p831
sg15
(lp832
sg17
(lp833
sg19
(lp834
sg21
I0
sba(iArchitecture
Entity
p835
(dp836
g11
(lp837
sg13
S'android.app.ActivityView$ActivityContainerWrapper'
p838
sg15
(lp839
sg17
(lp840
sg19
(lp841
sg21
I0
sba(iArchitecture
Entity
p842
(dp843
g11
(lp844
sg13
S'android.app.ActivityView$ActivityViewCallback'
p845
sg15
(lp846
sg17
(lp847
sg19
(lp848
sg21
I0
sba(iArchitecture
Entity
p849
(dp850
g11
(lp851
sg13
S'android.app.ActivityView$ActivityViewSurfaceTextureListener'
p852
sg15
(lp853
sg17
(lp854
sg19
(lp855
sg21
I0
sba(iArchitecture
Entity
p856
(dp857
g11
(lp858
sg13
S'android.app.ActivityView$SerialExecutor'
p859
sg15
(lp860
sg17
(lp861
sg19
(lp862
sg21
I0
sba(iArchitecture
Entity
p863
(dp864
g11
(lp865
sg13
S'android.app.ActivityView$SerialExecutor$1'
p866
sg15
(lp867
sg17
(lp868
sg19
(lp869
sg21
I0
sbasg43
(lp870
g796
ag803
ag810
ag817
ag824
ag831
ag838
ag845
ag852
ag859
ag866
asg21
I0
sg45
S'1208'
p871
sba(iArchitecture
Cluster
p872
(dp873
g7
(lp874
(iArchitecture
Entity
p875
(dp876
g11
(lp877
sg13
S'com.android.server.LockSettingsService'
p878
sg15
(lp879
sg17
(lp880
sg19
(lp881
sg21
I0
sba(iArchitecture
Entity
p882
(dp883
g11
(lp884
sg13
S'com.android.server.LockSettingsService$1'
p885
sg15
(lp886
sg17
(lp887
sg19
(lp888
sg21
I0
sba(iArchitecture
Entity
p889
(dp890
g11
(lp891
sg13
S'com.android.server.LockSettingsService$2'
p892
sg15
(lp893
sg17
(lp894
sg19
(lp895
sg21
I0
sba(iArchitecture
Entity
p896
(dp897
g11
(lp898
sg13
S'com.android.server.LockSettingsService$3'
p899
sg15
(lp900
sg17
(lp901
sg19
(lp902
sg21
I0
sba(iArchitecture
Entity
p903
(dp904
g11
(lp905
sg13
S'com.android.server.LockSettingsService$4'
p906
sg15
(lp907
sg17
(lp908
sg19
(lp909
sg21
I0
sba(iArchitecture
Entity
p910
(dp911
g11
(lp912
sg13
S'com.android.server.LockSettingsService$5'
p913
sg15
(lp914
sg17
(lp915
sg19
(lp916
sg21
I0
sba(iArchitecture
Entity
p917
(dp918
g11
(lp919
sg13
S'com.android.server.LockSettingsService$6'
p920
sg15
(lp921
sg17
(lp922
sg19
(lp923
sg21
I0
sba(iArchitecture
Entity
p924
(dp925
g11
(lp926
sg13
S'com.android.server.LockSettingsService$CredentialUtil'
p927
sg15
(lp928
sg17
(lp929
sg19
(lp930
sg21
I0
sba(iArchitecture
Entity
p931
(dp932
g11
(lp933
sg13
S'com.android.server.LockSettingsService$GateKeeperDiedRecipient'
p934
sg15
(lp935
sg17
(lp936
sg19
(lp937
sg21
I0
sba(iArchitecture
Entity
p938
(dp939
g11
(lp940
sg13
S'com.android.server.LockSettingsService$Lifecycle'
p941
sg15
(lp942
sg17
(lp943
sg19
(lp944
sg21
I0
sba(iArchitecture
Entity
p945
(dp946
g11
(lp947
sg13
S'com.android.server.LockSettingsService$SynchronizedStrongAuthTracker'
p948
sg15
(lp949
sg17
(lp950
sg19
(lp951
sg21
I0
sbasg43
(lp952
g878
ag885
ag892
ag899
ag906
ag913
ag920
ag927
ag934
ag941
ag948
asg21
I0
sg45
S'1209'
p953
sba(iArchitecture
Cluster
p954
(dp955
g7
(lp956
(iArchitecture
Entity
p957
(dp958
g11
(lp959
sg13
S'com.android.server.print.RemotePrintSpooler'
p960
sg15
(lp961
sg17
(lp962
sg19
(lp963
sg21
I0
sba(iArchitecture
Entity
p964
(dp965
g11
(lp966
sg13
S'com.android.server.print.RemotePrintSpooler$BasePrintSpoolerServiceCallbacks'
p967
sg15
(lp968
sg17
(lp969
sg19
(lp970
sg21
I0
sba(iArchitecture
Entity
p971
(dp972
g11
(lp973
sg13
S'com.android.server.print.RemotePrintSpooler$ClearCustomPrinterIconCacheCaller'
p974
sg15
(lp975
sg17
(lp976
sg19
(lp977
sg21
I0
sba(iArchitecture
Entity
p978
(dp979
g11
(lp980
sg13
S'com.android.server.print.RemotePrintSpooler$ClearCustomPrinterIconCacheCaller$1'
p981
sg15
(lp982
sg17
(lp983
sg19
(lp984
sg21
I0
sba(iArchitecture
Entity
p985
(dp986
g11
(lp987
sg13
S'com.android.server.print.RemotePrintSpooler$GetCustomPrinterIconCaller'
p988
sg15
(lp989
sg17
(lp990
sg19
(lp991
sg21
I0
sba(iArchitecture
Entity
p992
(dp993
g11
(lp994
sg13
S'com.android.server.print.RemotePrintSpooler$GetCustomPrinterIconCaller$1'
p995
sg15
(lp996
sg17
(lp997
sg19
(lp998
sg21
I0
sba(iArchitecture
Entity
p999
(dp1000
g11
(lp1001
sg13
S'com.android.server.print.RemotePrintSpooler$GetPrintJobInfoCaller'
p1002
sg15
(lp1003
sg17
(lp1004
sg19
(lp1005
sg21
I0
sba(iArchitecture
Entity
p1006
(dp1007
g11
(lp1008
sg13
S'com.android.server.print.RemotePrintSpooler$GetPrintJobInfoCaller$1'
p1009
sg15
(lp1010
sg17
(lp1011
sg19
(lp1012
sg21
I0
sba(iArchitecture
Entity
p1013
(dp1014
g11
(lp1015
sg13
S'com.android.server.print.RemotePrintSpooler$GetPrintJobInfosCaller'
p1016
sg15
(lp1017
sg17
(lp1018
sg19
(lp1019
sg21
I0
sba(iArchitecture
Entity
p1020
(dp1021
g11
(lp1022
sg13
S'com.android.server.print.RemotePrintSpooler$GetPrintJobInfosCaller$1'
p1023
sg15
(lp1024
sg17
(lp1025
sg19
(lp1026
sg21
I0
sba(iArchitecture
Entity
p1027
(dp1028
g11
(lp1029
sg13
S'com.android.server.print.RemotePrintSpooler$MyServiceConnection'
p1030
sg15
(lp1031
sg17
(lp1032
sg19
(lp1033
sg21
I0
sba(iArchitecture
Entity
p1034
(dp1035
g11
(lp1036
sg13
S'com.android.server.print.RemotePrintSpooler$OnCustomPrinterIconLoadedCaller'
p1037
sg15
(lp1038
sg17
(lp1039
sg19
(lp1040
sg21
I0
sba(iArchitecture
Entity
p1041
(dp1042
g11
(lp1043
sg13
S'com.android.server.print.RemotePrintSpooler$OnCustomPrinterIconLoadedCaller$1'
p1044
sg15
(lp1045
sg17
(lp1046
sg19
(lp1047
sg21
I0
sba(iArchitecture
Entity
p1048
(dp1049
g11
(lp1050
sg13
S'com.android.server.print.RemotePrintSpooler$PrintSpoolerCallbacks'
p1051
sg15
(lp1052
sg17
(lp1053
sg19
(lp1054
sg21
I0
sba(iArchitecture
Entity
p1055
(dp1056
g11
(lp1057
sg13
S'com.android.server.print.RemotePrintSpooler$PrintSpoolerClient'
p1058
sg15
(lp1059
sg17
(lp1060
sg19
(lp1061
sg21
I0
sba(iArchitecture
Entity
p1062
(dp1063
g11
(lp1064
sg13
S'com.android.server.print.RemotePrintSpooler$SetPrintJobStateCaller'
p1065
sg15
(lp1066
sg17
(lp1067
sg19
(lp1068
sg21
I0
sba(iArchitecture
Entity
p1069
(dp1070
g11
(lp1071
sg13
S'com.android.server.print.RemotePrintSpooler$SetPrintJobStateCaller$1'
p1072
sg15
(lp1073
sg17
(lp1074
sg19
(lp1075
sg21
I0
sba(iArchitecture
Entity
p1076
(dp1077
g11
(lp1078
sg13
S'com.android.server.print.RemotePrintSpooler$SetPrintJobTagCaller'
p1079
sg15
(lp1080
sg17
(lp1081
sg19
(lp1082
sg21
I0
sba(iArchitecture
Entity
p1083
(dp1084
g11
(lp1085
sg13
S'com.android.server.print.RemotePrintSpooler$SetPrintJobTagCaller$1'
p1086
sg15
(lp1087
sg17
(lp1088
sg19
(lp1089
sg21
I0
sbasg43
(lp1090
g960
ag967
ag974
ag981
ag988
ag995
ag1002
ag1009
ag1016
ag1023
ag1030
ag1037
ag1044
ag1051
ag1058
ag1065
ag1072
ag1079
ag1086
asg21
I0
sg45
S'1220'
p1091
sba(iArchitecture
Cluster
p1092
(dp1093
g7
(lp1094
(iArchitecture
Entity
p1095
(dp1096
g11
(lp1097
sg13
S'android.filterpacks.videosrc.MediaSource'
p1098
sg15
(lp1099
sg17
(lp1100
sg19
(lp1101
sg21
I0
sba(iArchitecture
Entity
p1102
(dp1103
g11
(lp1104
sg13
S'android.filterpacks.videosrc.MediaSource$1'
p1105
sg15
(lp1106
sg17
(lp1107
sg19
(lp1108
sg21
I0
sba(iArchitecture
Entity
p1109
(dp1110
g11
(lp1111
sg13
S'android.filterpacks.videosrc.MediaSource$2'
p1112
sg15
(lp1113
sg17
(lp1114
sg19
(lp1115
sg21
I0
sba(iArchitecture
Entity
p1116
(dp1117
g11
(lp1118
sg13
S'android.filterpacks.videosrc.MediaSource$3'
p1119
sg15
(lp1120
sg17
(lp1121
sg19
(lp1122
sg21
I0
sba(iArchitecture
Entity
p1123
(dp1124
g11
(lp1125
sg13
S'android.filterpacks.videosrc.MediaSource$4'
p1126
sg15
(lp1127
sg17
(lp1128
sg19
(lp1129
sg21
I0
sba(iArchitecture
Entity
p1130
(dp1131
g11
(lp1132
sg13
S'android.filterpacks.videosrc.SurfaceTextureSource'
p1133
sg15
(lp1134
sg17
(lp1135
sg19
(lp1136
sg21
I0
sba(iArchitecture
Entity
p1137
(dp1138
g11
(lp1139
sg13
S'android.filterpacks.videosrc.SurfaceTextureSource$1'
p1140
sg15
(lp1141
sg17
(lp1142
sg19
(lp1143
sg21
I0
sba(iArchitecture
Entity
p1144
(dp1145
g11
(lp1146
sg13
S'android.filterpacks.videosrc.SurfaceTextureSource$SurfaceTextureSourceListener'
p1147
sg15
(lp1148
sg17
(lp1149
sg19
(lp1150
sg21
I0
sbasg43
(lp1151
g1098
ag1105
ag1112
ag1119
ag1126
ag1133
ag1140
ag1147
asg21
I0
sg45
S'1320'
p1152
sba(iArchitecture
Cluster
p1153
(dp1154
g7
(lp1155
(iArchitecture
Entity
p1156
(dp1157
g11
(lp1158
sg13
S'android.content.pm.AppsQueryHelper'
p1159
sg15
(lp1160
sg17
(lp1161
sg19
(lp1162
sg21
I0
sbasg43
(lp1163
g1159
asg21
I0
sg45
S'20'
p1164
sba(iArchitecture
Cluster
p1165
(dp1166
g7
(lp1167
(iArchitecture
Entity
p1168
(dp1169
g11
(lp1170
sg13
S'android.filterfw.core.ShaderProgram'
p1171
sg15
(lp1172
sg17
(lp1173
sg19
(lp1174
sg21
I0
sbasg43
(lp1175
g1171
asg21
I0
sg45
S'200'
p1176
sba(iArchitecture
Cluster
p1177
(dp1178
g7
(lp1179
(iArchitecture
Entity
p1180
(dp1181
g11
(lp1182
sg13
S'com.android.internal.util.LineBreakBufferedWriter'
p1183
sg15
(lp1184
sg17
(lp1185
sg19
(lp1186
sg21
I0
sbasg43
(lp1187
g1183
asg21
I0
sg45
S'201'
p1188
sba(iArchitecture
Cluster
p1189
(dp1190
g7
(lp1191
(iArchitecture
Entity
p1192
(dp1193
g11
(lp1194
sg13
S'android.content.pm.LimitedLengthInputStream'
p1195
sg15
(lp1196
sg17
(lp1197
sg19
(lp1198
sg21
I0
sbasg43
(lp1199
g1195
asg21
I0
sg45
S'202'
p1200
sba(iArchitecture
Cluster
p1201
(dp1202
g7
(lp1203
(iArchitecture
Entity
p1204
(dp1205
g11
(lp1206
sg13
S'com.android.server.accounts.CryptoHelper'
p1207
sg15
(lp1208
sg17
(lp1209
sg19
(lp1210
sg21
I0
sbasg43
(lp1211
g1207
asg21
I0
sg45
S'203'
p1212
sba(iArchitecture
Cluster
p1213
(dp1214
g7
(lp1215
(iArchitecture
Entity
p1216
(dp1217
g11
(lp1218
sg13
S'android.drm.DrmSupportInfo'
p1219
sg15
(lp1220
sg17
(lp1221
sg19
(lp1222
sg21
I0
sbasg43
(lp1223
g1219
asg21
I0
sg45
S'204'
p1224
sba(iArchitecture
Cluster
p1225
(dp1226
g7
(lp1227
(iArchitecture
Entity
p1228
(dp1229
g11
(lp1230
sg13
S'com.android.server.notification.NotificationComparator'
p1231
sg15
(lp1232
sg17
(lp1233
sg19
(lp1234
sg21
I0
sbasg43
(lp1235
g1231
asg21
I0
sg45
S'205'
p1236
sba(iArchitecture
Cluster
p1237
(dp1238
g7
(lp1239
(iArchitecture
Entity
p1240
(dp1241
g11
(lp1242
sg13
S'android.widget.ScrollBarDrawable'
p1243
sg15
(lp1244
sg17
(lp1245
sg19
(lp1246
sg21
I0
sbasg43
(lp1247
g1243
asg21
I0
sg45
S'206'
p1248
sba(iArchitecture
Cluster
p1249
(dp1250
g7
(lp1251
(iArchitecture
Entity
p1252
(dp1253
g11
(lp1254
sg13
S'android.net.TrafficStats'
p1255
sg15
(lp1256
sg17
(lp1257
sg19
(lp1258
sg21
I0
sbasg43
(lp1259
g1255
asg21
I0
sg45
S'207'
p1260
sba(iArchitecture
Cluster
p1261
(dp1262
g7
(lp1263
(iArchitecture
Entity
p1264
(dp1265
g11
(lp1266
sg13
S'android.text.TextPaint'
p1267
sg15
(lp1268
sg17
(lp1269
sg19
(lp1270
sg21
I0
sbasg43
(lp1271
g1267
asg21
I0
sg45
S'208'
p1272
sba(iArchitecture
Cluster
p1273
(dp1274
g7
(lp1275
(iArchitecture
Entity
p1276
(dp1277
g11
(lp1278
sg13
S'android.util.TimingLogger'
p1279
sg15
(lp1280
sg17
(lp1281
sg19
(lp1282
sg21
I0
sbasg43
(lp1283
g1279
asg21
I0
sg45
S'209'
p1284
sba(iArchitecture
Cluster
p1285
(dp1286
g7
(lp1287
(iArchitecture
Entity
p1288
(dp1289
g11
(lp1290
sg13
S'android.view.inputmethod.InputConnectionWrapper'
p1291
sg15
(lp1292
sg17
(lp1293
sg19
(lp1294
sg21
I0
sbasg43
(lp1295
g1291
asg21
I0
sg45
S'220'
p1296
sba(iArchitecture
Cluster
p1297
(dp1298
g7
(lp1299
(iArchitecture
Entity
p1300
(dp1301
g11
(lp1302
sg13
S'com.android.server.SensorNotificationService'
p1303
sg15
(lp1304
sg17
(lp1305
sg19
(lp1306
sg21
I0
sbasg43
(lp1307
g1303
asg21
I0
sg45
S'320'
p1308
sba(iArchitecture
Cluster
p1309
(dp1310
g7
(lp1311
(iArchitecture
Entity
p1312
(dp1313
g11
(lp1314
sg13
S'android.telephony.DisconnectCause'
p1315
sg15
(lp1316
sg17
(lp1317
sg19
(lp1318
sg21
I0
sbasg43
(lp1319
g1315
asg21
I0
sg45
S'420'
p1320
sba(iArchitecture
Cluster
p1321
(dp1322
g7
(lp1323
(iArchitecture
Entity
p1324
(dp1325
g11
(lp1326
sg13
S'android.telephony.cdma.CdmaSmsCbProgramData'
p1327
sg15
(lp1328
sg17
(lp1329
sg19
(lp1330
sg21
I0
sba(iArchitecture
Entity
p1331
(dp1332
g11
(lp1333
sg13
S'android.telephony.cdma.CdmaSmsCbProgramData$1'
p1334
sg15
(lp1335
sg17
(lp1336
sg19
(lp1337
sg21
I0
sbasg43
(lp1338
g1327
ag1334
asg21
I0
sg45
S'520'
p1339
sba(iArchitecture
Cluster
p1340
(dp1341
g7
(lp1342
(iArchitecture
Entity
p1343
(dp1344
g11
(lp1345
sg13
S'android.app.usage.ConfigurationStats'
p1346
sg15
(lp1347
sg17
(lp1348
sg19
(lp1349
sg21
I0
sba(iArchitecture
Entity
p1350
(dp1351
g11
(lp1352
sg13
S'android.app.usage.ConfigurationStats$1'
p1353
sg15
(lp1354
sg17
(lp1355
sg19
(lp1356
sg21
I0
sbasg43
(lp1357
g1346
ag1353
asg21
I0
sg45
S'620'
p1358
sba(iArchitecture
Cluster
p1359
(dp1360
g7
(lp1361
(iArchitecture
Entity
p1362
(dp1363
g11
(lp1364
sg13
S'android.animation.TimeAnimator'
p1365
sg15
(lp1366
sg17
(lp1367
sg19
(lp1368
sg21
I0
sba(iArchitecture
Entity
p1369
(dp1370
g11
(lp1371
sg13
S'android.animation.TimeAnimator$TimeListener'
p1372
sg15
(lp1373
sg17
(lp1374
sg19
(lp1375
sg21
I0
sbasg43
(lp1376
g1365
ag1372
asg21
I0
sg45
S'720'
p1377
sba(iArchitecture
Cluster
p1378
(dp1379
g7
(lp1380
(iArchitecture
Entity
p1381
(dp1382
g11
(lp1383
sg13
S'android.media.Ringtone'
p1384
sg15
(lp1385
sg17
(lp1386
sg19
(lp1387
sg21
I0
sba(iArchitecture
Entity
p1388
(dp1389
g11
(lp1390
sg13
S'android.media.Ringtone$MyOnCompletionListener'
p1391
sg15
(lp1392
sg17
(lp1393
sg19
(lp1394
sg21
I0
sbasg43
(lp1395
g1384
ag1391
asg21
I0
sg45
S'820'
p1396
sba(iArchitecture
Cluster
p1397
(dp1398
g7
(lp1399
(iArchitecture
Entity
p1400
(dp1401
g11
(lp1402
sg13
S'com.android.internal.os.HandlerCaller'
p1403
sg15
(lp1404
sg17
(lp1405
sg19
(lp1406
sg21
I0
sba(iArchitecture
Entity
p1407
(dp1408
g11
(lp1409
sg13
S'com.android.internal.os.HandlerCaller$Callback'
p1410
sg15
(lp1411
sg17
(lp1412
sg19
(lp1413
sg21
I0
sba(iArchitecture
Entity
p1414
(dp1415
g11
(lp1416
sg13
S'com.android.internal.os.HandlerCaller$MyHandler'
p1417
sg15
(lp1418
sg17
(lp1419
sg19
(lp1420
sg21
I0
sbasg43
(lp1421
g1403
ag1410
ag1417
asg21
I0
sg45
S'920'
p1422
sbasS'target_sub'
p1423
S'20'
p1424
sg43
(lp1425
sS'is_component_arch'
p1426
I01
sg45
S'7.0.0_r1'
p1427
sba.