(lp0
(iArchitecture
Architecture
p1
(dp2
S'clusters'
p3
(lp4
(iArchitecture
Cluster
p5
(dp6
S'entities'
p7
(lp8
(iArchitecture
Entity
p9
(dp10
S'issue_ids'
p11
(lp12
sS'name'
p13
S'android.net.IpConfiguration'
p14
sS'descs'
p15
(lp16
sS'labels'
p17
(lp18
sS'titles'
p19
(lp20
sS'change'
p21
I0
sba(iArchitecture
Entity
p22
(dp23
g11
(lp24
sg13
S'android.net.IpConfiguration$1'
p25
sg15
(lp26
sg17
(lp27
sg19
(lp28
sg21
I0
sba(iArchitecture
Entity
p29
(dp30
g11
(lp31
sg13
S'android.net.IpConfiguration$IpAssignment'
p32
sg15
(lp33
sg17
(lp34
sg19
(lp35
sg21
I0
sba(iArchitecture
Entity
p36
(dp37
g11
(lp38
sg13
S'android.net.IpConfiguration$ProxySettings'
p39
sg15
(lp40
sg17
(lp41
sg19
(lp42
sg21
I0
sbasS'classes'
p43
(lp44
g14
ag25
ag32
ag39
asg21
I0
sS'label'
p45
S'1037'
p46
sba(iArchitecture
Cluster
p47
(dp48
g7
(lp49
(iArchitecture
Entity
p50
(dp51
g11
(lp52
sg13
S'com.android.internal.inputmethod.InputMethodSubtypeSwitchingController'
p53
sg15
(lp54
sg17
(lp55
sg19
(lp56
sg21
I0
sba(iArchitecture
Entity
p57
(dp58
g11
(lp59
sg13
S'com.android.internal.inputmethod.InputMethodSubtypeSwitchingController$ControllerImpl'
p60
sg15
(lp61
sg17
(lp62
sg19
(lp63
sg21
I0
sba(iArchitecture
Entity
p64
(dp65
g11
(lp66
sg13
S'com.android.internal.inputmethod.InputMethodSubtypeSwitchingController$DynamicRotationList'
p67
sg15
(lp68
sg17
(lp69
sg19
(lp70
sg21
I0
sba(iArchitecture
Entity
p71
(dp72
g11
(lp73
sg13
S'com.android.internal.inputmethod.InputMethodSubtypeSwitchingController$ImeSubtypeListItem'
p74
sg15
(lp75
sg17
(lp76
sg19
(lp77
sg21
I0
sba(iArchitecture
Entity
p78
(dp79
g11
(lp80
sg13
S'com.android.internal.inputmethod.InputMethodSubtypeSwitchingController$InputMethodAndSubtypeList'
p81
sg15
(lp82
sg17
(lp83
sg19
(lp84
sg21
I0
sba(iArchitecture
Entity
p85
(dp86
g11
(lp87
sg13
S'com.android.internal.inputmethod.InputMethodSubtypeSwitchingController$InputMethodAndSubtypeList$1'
p88
sg15
(lp89
sg17
(lp90
sg19
(lp91
sg21
I0
sba(iArchitecture
Entity
p92
(dp93
g11
(lp94
sg13
S'com.android.internal.inputmethod.InputMethodSubtypeSwitchingController$StaticRotationList'
p95
sg15
(lp96
sg17
(lp97
sg19
(lp98
sg21
I0
sbasg43
(lp99
g53
ag60
ag67
ag74
ag81
ag88
ag95
asg21
I0
sg45
S'1137'
p100
sba(iArchitecture
Cluster
p101
(dp102
g7
(lp103
(iArchitecture
Entity
p104
(dp105
g11
(lp106
sg13
S'android.telecom.AudioState'
p107
sg15
(lp108
sg17
(lp109
sg19
(lp110
sg21
I0
sba(iArchitecture
Entity
p111
(dp112
g11
(lp113
sg13
S'android.telecom.AudioState$1'
p114
sg15
(lp115
sg17
(lp116
sg19
(lp117
sg21
I0
sba(iArchitecture
Entity
p118
(dp119
g11
(lp120
sg13
S'android.telecom.CallAudioState'
p121
sg15
(lp122
sg17
(lp123
sg19
(lp124
sg21
I0
sba(iArchitecture
Entity
p125
(dp126
g11
(lp127
sg13
S'android.telecom.CallAudioState$1'
p128
sg15
(lp129
sg17
(lp130
sg19
(lp131
sg21
I0
sbasg43
(lp132
g107
ag114
ag121
ag128
asg21
I0
sg45
S'1237'
p133
sba(iArchitecture
Cluster
p134
(dp135
g7
(lp136
(iArchitecture
Entity
p137
(dp138
g11
(lp139
sg13
S'android.widget.ZoomButton'
p140
sg15
(lp141
sg17
(lp142
sg19
(lp143
sg21
I0
sba(iArchitecture
Entity
p144
(dp145
g11
(lp146
sg13
S'android.widget.ZoomButton$1'
p147
sg15
(lp148
sg17
(lp149
sg19
(lp150
sg21
I0
sba(iArchitecture
Entity
p151
(dp152
g11
(lp153
sg13
S'android.widget.ZoomControls'
p154
sg15
(lp155
sg17
(lp156
sg19
(lp157
sg21
I0
sbasg43
(lp158
g140
ag147
ag154
asg21
I0
sg45
S'1337'
p159
sba(iArchitecture
Cluster
p160
(dp161
g7
(lp162
(iArchitecture
Entity
p163
(dp164
g11
(lp165
sg13
S'android.filterfw.core.VertexFrame'
p166
sg15
(lp167
sg17
(lp168
sg19
(lp169
sg21
I0
sbasg43
(lp170
g166
asg21
I0
sg45
S'137'
p171
sba(iArchitecture
Cluster
p172
(dp173
g7
(lp174
(iArchitecture
Entity
p175
(dp176
g11
(lp177
sg13
S'android.location.GnssMeasurement'
p178
sg15
(lp179
sg17
(lp180
sg19
(lp181
sg21
I0
sba(iArchitecture
Entity
p182
(dp183
g11
(lp184
sg13
S'android.location.GnssMeasurement$1'
p185
sg15
(lp186
sg17
(lp187
sg19
(lp188
sg21
I0
sba(iArchitecture
Entity
p189
(dp190
g11
(lp191
sg13
S'android.location.GpsMeasurement'
p192
sg15
(lp193
sg17
(lp194
sg19
(lp195
sg21
I0
sba(iArchitecture
Entity
p196
(dp197
g11
(lp198
sg13
S'android.location.GpsMeasurement$1'
p199
sg15
(lp200
sg17
(lp201
sg19
(lp202
sg21
I0
sbasg43
(lp203
g178
ag185
ag192
ag199
asg21
I0
sg45
S'1370'
p204
sba(iArchitecture
Cluster
p205
(dp206
g7
(lp207
(iArchitecture
Entity
p208
(dp209
g11
(lp210
sg13
S'android.hardware.radio.RadioManager'
p211
sg15
(lp212
sg17
(lp213
sg19
(lp214
sg21
I0
sba(iArchitecture
Entity
p215
(dp216
g11
(lp217
sg13
S'android.hardware.radio.RadioManager$AmBandConfig'
p218
sg15
(lp219
sg17
(lp220
sg19
(lp221
sg21
I0
sba(iArchitecture
Entity
p222
(dp223
g11
(lp224
sg13
S'android.hardware.radio.RadioManager$AmBandConfig$1'
p225
sg15
(lp226
sg17
(lp227
sg19
(lp228
sg21
I0
sba(iArchitecture
Entity
p229
(dp230
g11
(lp231
sg13
S'android.hardware.radio.RadioManager$AmBandConfig$Builder'
p232
sg15
(lp233
sg17
(lp234
sg19
(lp235
sg21
I0
sba(iArchitecture
Entity
p236
(dp237
g11
(lp238
sg13
S'android.hardware.radio.RadioManager$AmBandDescriptor'
p239
sg15
(lp240
sg17
(lp241
sg19
(lp242
sg21
I0
sba(iArchitecture
Entity
p243
(dp244
g11
(lp245
sg13
S'android.hardware.radio.RadioManager$AmBandDescriptor$1'
p246
sg15
(lp247
sg17
(lp248
sg19
(lp249
sg21
I0
sba(iArchitecture
Entity
p250
(dp251
g11
(lp252
sg13
S'android.hardware.radio.RadioManager$BandConfig'
p253
sg15
(lp254
sg17
(lp255
sg19
(lp256
sg21
I0
sba(iArchitecture
Entity
p257
(dp258
g11
(lp259
sg13
S'android.hardware.radio.RadioManager$BandConfig$1'
p260
sg15
(lp261
sg17
(lp262
sg19
(lp263
sg21
I0
sba(iArchitecture
Entity
p264
(dp265
g11
(lp266
sg13
S'android.hardware.radio.RadioManager$BandDescriptor'
p267
sg15
(lp268
sg17
(lp269
sg19
(lp270
sg21
I0
sba(iArchitecture
Entity
p271
(dp272
g11
(lp273
sg13
S'android.hardware.radio.RadioManager$BandDescriptor$1'
p274
sg15
(lp275
sg17
(lp276
sg19
(lp277
sg21
I0
sba(iArchitecture
Entity
p278
(dp279
g11
(lp280
sg13
S'android.hardware.radio.RadioManager$FmBandConfig'
p281
sg15
(lp282
sg17
(lp283
sg19
(lp284
sg21
I0
sba(iArchitecture
Entity
p285
(dp286
g11
(lp287
sg13
S'android.hardware.radio.RadioManager$FmBandConfig$1'
p288
sg15
(lp289
sg17
(lp290
sg19
(lp291
sg21
I0
sba(iArchitecture
Entity
p292
(dp293
g11
(lp294
sg13
S'android.hardware.radio.RadioManager$FmBandConfig$Builder'
p295
sg15
(lp296
sg17
(lp297
sg19
(lp298
sg21
I0
sba(iArchitecture
Entity
p299
(dp300
g11
(lp301
sg13
S'android.hardware.radio.RadioManager$FmBandDescriptor'
p302
sg15
(lp303
sg17
(lp304
sg19
(lp305
sg21
I0
sba(iArchitecture
Entity
p306
(dp307
g11
(lp308
sg13
S'android.hardware.radio.RadioManager$FmBandDescriptor$1'
p309
sg15
(lp310
sg17
(lp311
sg19
(lp312
sg21
I0
sba(iArchitecture
Entity
p313
(dp314
g11
(lp315
sg13
S'android.hardware.radio.RadioManager$ModuleProperties'
p316
sg15
(lp317
sg17
(lp318
sg19
(lp319
sg21
I0
sba(iArchitecture
Entity
p320
(dp321
g11
(lp322
sg13
S'android.hardware.radio.RadioManager$ModuleProperties$1'
p323
sg15
(lp324
sg17
(lp325
sg19
(lp326
sg21
I0
sba(iArchitecture
Entity
p327
(dp328
g11
(lp329
sg13
S'android.hardware.radio.RadioManager$ProgramInfo'
p330
sg15
(lp331
sg17
(lp332
sg19
(lp333
sg21
I0
sba(iArchitecture
Entity
p334
(dp335
g11
(lp336
sg13
S'android.hardware.radio.RadioManager$ProgramInfo$1'
p337
sg15
(lp338
sg17
(lp339
sg19
(lp340
sg21
I0
sba(iArchitecture
Entity
p341
(dp342
g11
(lp343
sg13
S'android.view.inputmethod.CursorAnchorInfo'
p344
sg15
(lp345
sg17
(lp346
sg19
(lp347
sg21
I0
sba(iArchitecture
Entity
p348
(dp349
g11
(lp350
sg13
S'android.view.inputmethod.CursorAnchorInfo$1'
p351
sg15
(lp352
sg17
(lp353
sg19
(lp354
sg21
I0
sba(iArchitecture
Entity
p355
(dp356
g11
(lp357
sg13
S'android.view.inputmethod.CursorAnchorInfo$Builder'
p358
sg15
(lp359
sg17
(lp360
sg19
(lp361
sg21
I0
sbasg43
(lp362
g211
ag218
ag225
ag232
ag239
ag246
ag253
ag260
ag267
ag274
ag281
ag288
ag295
ag302
ag309
ag316
ag323
ag330
ag337
ag344
ag351
ag358
asg21
I0
sg45
S'1371'
p363
sba(iArchitecture
Cluster
p364
(dp365
g7
(lp366
(iArchitecture
Entity
p367
(dp368
g11
(lp369
sg13
S'android.os.health.HealthKeys'
p370
sg15
(lp371
sg17
(lp372
sg19
(lp373
sg21
I0
sba(iArchitecture
Entity
p374
(dp375
g11
(lp376
sg13
S'android.os.health.HealthKeys$Constant'
p377
sg15
(lp378
sg17
(lp379
sg19
(lp380
sg21
I0
sba(iArchitecture
Entity
p381
(dp382
g11
(lp383
sg13
S'android.os.health.HealthKeys$Constants'
p384
sg15
(lp385
sg17
(lp386
sg19
(lp387
sg21
I0
sba(iArchitecture
Entity
p388
(dp389
g11
(lp390
sg13
S'android.os.health.HealthKeys$SortedIntArray'
p391
sg15
(lp392
sg17
(lp393
sg19
(lp394
sg21
I0
sba(iArchitecture
Entity
p395
(dp396
g11
(lp397
sg13
S'android.os.health.PackageHealthStats'
p398
sg15
(lp399
sg17
(lp400
sg19
(lp401
sg21
I0
sba(iArchitecture
Entity
p402
(dp403
g11
(lp404
sg13
S'android.os.health.ProcessHealthStats'
p405
sg15
(lp406
sg17
(lp407
sg19
(lp408
sg21
I0
sba(iArchitecture
Entity
p409
(dp410
g11
(lp411
sg13
S'android.os.health.ServiceHealthStats'
p412
sg15
(lp413
sg17
(lp414
sg19
(lp415
sg21
I0
sbasg43
(lp416
g370
ag377
ag384
ag391
ag398
ag405
ag412
asg21
I0
sg45
S'1372'
p417
sba(iArchitecture
Cluster
p418
(dp419
g7
(lp420
(iArchitecture
Entity
p421
(dp422
g11
(lp423
sg13
S'com.android.server.notification.ManagedServices'
p424
sg15
(lp425
sg17
(lp426
sg19
(lp427
sg21
I0
sba(iArchitecture
Entity
p428
(dp429
g11
(lp430
sg13
S'com.android.server.notification.ManagedServices$1'
p431
sg15
(lp432
sg17
(lp433
sg19
(lp434
sg21
I0
sba(iArchitecture
Entity
p435
(dp436
g11
(lp437
sg13
S'com.android.server.notification.ManagedServices$Config'
p438
sg15
(lp439
sg17
(lp440
sg19
(lp441
sg21
I0
sba(iArchitecture
Entity
p442
(dp443
g11
(lp444
sg13
S'com.android.server.notification.ManagedServices$ManagedServiceInfo'
p445
sg15
(lp446
sg17
(lp447
sg19
(lp448
sg21
I0
sba(iArchitecture
Entity
p449
(dp450
g11
(lp451
sg13
S'com.android.server.notification.ManagedServices$SettingRestoredReceiver'
p452
sg15
(lp453
sg17
(lp454
sg19
(lp455
sg21
I0
sba(iArchitecture
Entity
p456
(dp457
g11
(lp458
sg13
S'com.android.server.notification.ManagedServices$SettingsObserver'
p459
sg15
(lp460
sg17
(lp461
sg19
(lp462
sg21
I0
sba(iArchitecture
Entity
p463
(dp464
g11
(lp465
sg13
S'com.android.server.notification.ManagedServices$UserProfiles'
p466
sg15
(lp467
sg17
(lp468
sg19
(lp469
sg21
I0
sba(iArchitecture
Entity
p470
(dp471
g11
(lp472
sg13
S'com.android.server.voiceinteraction.VoiceInteractionManagerService'
p473
sg15
(lp474
sg17
(lp475
sg19
(lp476
sg21
I0
sba(iArchitecture
Entity
p477
(dp478
g11
(lp479
sg13
S'com.android.server.voiceinteraction.VoiceInteractionManagerService$1'
p480
sg15
(lp481
sg17
(lp482
sg19
(lp483
sg21
I0
sba(iArchitecture
Entity
p484
(dp485
g11
(lp486
sg13
S'com.android.server.voiceinteraction.VoiceInteractionManagerService$LocalService'
p487
sg15
(lp488
sg17
(lp489
sg19
(lp490
sg21
I0
sba(iArchitecture
Entity
p491
(dp492
g11
(lp493
sg13
S'com.android.server.voiceinteraction.VoiceInteractionManagerService$VoiceInteractionManagerServiceStub'
p494
sg15
(lp495
sg17
(lp496
sg19
(lp497
sg21
I0
sba(iArchitecture
Entity
p498
(dp499
g11
(lp500
sg13
S'com.android.server.voiceinteraction.VoiceInteractionManagerService$VoiceInteractionManagerServiceStub$1'
p501
sg15
(lp502
sg17
(lp503
sg19
(lp504
sg21
I0
sba(iArchitecture
Entity
p505
(dp506
g11
(lp507
sg13
S'com.android.server.voiceinteraction.VoiceInteractionManagerService$VoiceInteractionManagerServiceStub$2'
p508
sg15
(lp509
sg17
(lp510
sg19
(lp511
sg21
I0
sba(iArchitecture
Entity
p512
(dp513
g11
(lp514
sg13
S'com.android.server.voiceinteraction.VoiceInteractionManagerService$VoiceInteractionManagerServiceStub$SettingsObserver'
p515
sg15
(lp516
sg17
(lp517
sg19
(lp518
sg21
I0
sba(iArchitecture
Entity
p519
(dp520
g11
(lp521
sg13
S'com.android.server.vr.VrManagerService'
p522
sg15
(lp523
sg17
(lp524
sg19
(lp525
sg21
I0
sba(iArchitecture
Entity
p526
(dp527
g11
(lp528
sg13
S'com.android.server.vr.VrManagerService$1'
p529
sg15
(lp530
sg17
(lp531
sg19
(lp532
sg21
I0
sba(iArchitecture
Entity
p533
(dp534
g11
(lp535
sg13
S'com.android.server.vr.VrManagerService$2'
p536
sg15
(lp537
sg17
(lp538
sg19
(lp539
sg21
I0
sba(iArchitecture
Entity
p540
(dp541
g11
(lp542
sg13
S'com.android.server.vr.VrManagerService$3'
p543
sg15
(lp544
sg17
(lp545
sg19
(lp546
sg21
I0
sba(iArchitecture
Entity
p547
(dp548
g11
(lp549
sg13
S'com.android.server.vr.VrManagerService$4'
p550
sg15
(lp551
sg17
(lp552
sg19
(lp553
sg21
I0
sba(iArchitecture
Entity
p554
(dp555
g11
(lp556
sg13
S'com.android.server.vr.VrManagerService$5'
p557
sg15
(lp558
sg17
(lp559
sg19
(lp560
sg21
I0
sba(iArchitecture
Entity
p561
(dp562
g11
(lp563
sg13
S'com.android.server.vr.VrManagerService$LocalService'
p564
sg15
(lp565
sg17
(lp566
sg19
(lp567
sg21
I0
sba(iArchitecture
Entity
p568
(dp569
g11
(lp570
sg13
S'com.android.server.vr.VrManagerService$NotificationAccessManager'
p571
sg15
(lp572
sg17
(lp573
sg19
(lp574
sg21
I0
sba(iArchitecture
Entity
p575
(dp576
g11
(lp577
sg13
S'com.android.server.vr.VrManagerService$VrState'
p578
sg15
(lp579
sg17
(lp580
sg19
(lp581
sg21
I0
sbasg43
(lp582
g424
ag431
ag438
ag445
ag452
ag459
ag466
ag473
ag480
ag487
ag494
ag501
ag508
ag515
ag522
ag529
ag536
ag543
ag550
ag557
ag564
ag571
ag578
asg21
I0
sg45
S'1373'
p583
sba(iArchitecture
Cluster
p584
(dp585
g7
(lp586
(iArchitecture
Entity
p587
(dp588
g11
(lp589
sg13
S'android.transition.Transition'
p590
sg15
(lp591
sg17
(lp592
sg19
(lp593
sg21
I0
sba(iArchitecture
Entity
p594
(dp595
g11
(lp596
sg13
S'android.transition.Transition$1'
p597
sg15
(lp598
sg17
(lp599
sg19
(lp600
sg21
I0
sba(iArchitecture
Entity
p601
(dp602
g11
(lp603
sg13
S'android.transition.Transition$2'
p604
sg15
(lp605
sg17
(lp606
sg19
(lp607
sg21
I0
sba(iArchitecture
Entity
p608
(dp609
g11
(lp610
sg13
S'android.transition.Transition$3'
p611
sg15
(lp612
sg17
(lp613
sg19
(lp614
sg21
I0
sba(iArchitecture
Entity
p615
(dp616
g11
(lp617
sg13
S'android.transition.Transition$AnimationInfo'
p618
sg15
(lp619
sg17
(lp620
sg19
(lp621
sg21
I0
sba(iArchitecture
Entity
p622
(dp623
g11
(lp624
sg13
S'android.transition.Transition$ArrayListManager'
p625
sg15
(lp626
sg17
(lp627
sg19
(lp628
sg21
I0
sba(iArchitecture
Entity
p629
(dp630
g11
(lp631
sg13
S'android.transition.Transition$EpicenterCallback'
p632
sg15
(lp633
sg17
(lp634
sg19
(lp635
sg21
I0
sba(iArchitecture
Entity
p636
(dp637
g11
(lp638
sg13
S'android.transition.Transition$TransitionListener'
p639
sg15
(lp640
sg17
(lp641
sg19
(lp642
sg21
I0
sba(iArchitecture
Entity
p643
(dp644
g11
(lp645
sg13
S'android.transition.Transition$TransitionListenerAdapter'
p646
sg15
(lp647
sg17
(lp648
sg19
(lp649
sg21
I0
sba(iArchitecture
Entity
p650
(dp651
g11
(lp652
sg13
S'android.transition.TransitionSet'
p653
sg15
(lp654
sg17
(lp655
sg19
(lp656
sg21
I0
sba(iArchitecture
Entity
p657
(dp658
g11
(lp659
sg13
S'android.transition.TransitionSet$1'
p660
sg15
(lp661
sg17
(lp662
sg19
(lp663
sg21
I0
sba(iArchitecture
Entity
p664
(dp665
g11
(lp666
sg13
S'android.transition.TransitionSet$TransitionSetListener'
p667
sg15
(lp668
sg17
(lp669
sg19
(lp670
sg21
I0
sbasg43
(lp671
g590
ag597
ag604
ag611
ag618
ag625
ag632
ag639
ag646
ag653
ag660
ag667
asg21
I0
sg45
S'1374'
p672
sba(iArchitecture
Cluster
p673
(dp674
g7
(lp675
(iArchitecture
Entity
p676
(dp677
g11
(lp678
sg13
S'android.accounts.AccountManager'
p679
sg15
(lp680
sg17
(lp681
sg19
(lp682
sg21
I0
sba(iArchitecture
Entity
p683
(dp684
g11
(lp685
sg13
S'android.accounts.AccountManager$1'
p686
sg15
(lp687
sg17
(lp688
sg19
(lp689
sg21
I0
sba(iArchitecture
Entity
p690
(dp691
g11
(lp692
sg13
S'android.accounts.AccountManager$10'
p693
sg15
(lp694
sg17
(lp695
sg19
(lp696
sg21
I0
sba(iArchitecture
Entity
p697
(dp698
g11
(lp699
sg13
S'android.accounts.AccountManager$11'
p700
sg15
(lp701
sg17
(lp702
sg19
(lp703
sg21
I0
sba(iArchitecture
Entity
p704
(dp705
g11
(lp706
sg13
S'android.accounts.AccountManager$12'
p707
sg15
(lp708
sg17
(lp709
sg19
(lp710
sg21
I0
sba(iArchitecture
Entity
p711
(dp712
g11
(lp713
sg13
S'android.accounts.AccountManager$13'
p714
sg15
(lp715
sg17
(lp716
sg19
(lp717
sg21
I0
sba(iArchitecture
Entity
p718
(dp719
g11
(lp720
sg13
S'android.accounts.AccountManager$14'
p721
sg15
(lp722
sg17
(lp723
sg19
(lp724
sg21
I0
sba(iArchitecture
Entity
p725
(dp726
g11
(lp727
sg13
S'android.accounts.AccountManager$15'
p728
sg15
(lp729
sg17
(lp730
sg19
(lp731
sg21
I0
sba(iArchitecture
Entity
p732
(dp733
g11
(lp734
sg13
S'android.accounts.AccountManager$16'
p735
sg15
(lp736
sg17
(lp737
sg19
(lp738
sg21
I0
sba(iArchitecture
Entity
p739
(dp740
g11
(lp741
sg13
S'android.accounts.AccountManager$17'
p742
sg15
(lp743
sg17
(lp744
sg19
(lp745
sg21
I0
sba(iArchitecture
Entity
p746
(dp747
g11
(lp748
sg13
S'android.accounts.AccountManager$18'
p749
sg15
(lp750
sg17
(lp751
sg19
(lp752
sg21
I0
sba(iArchitecture
Entity
p753
(dp754
g11
(lp755
sg13
S'android.accounts.AccountManager$19'
p756
sg15
(lp757
sg17
(lp758
sg19
(lp759
sg21
I0
sba(iArchitecture
Entity
p760
(dp761
g11
(lp762
sg13
S'android.accounts.AccountManager$2'
p763
sg15
(lp764
sg17
(lp765
sg19
(lp766
sg21
I0
sba(iArchitecture
Entity
p767
(dp768
g11
(lp769
sg13
S'android.accounts.AccountManager$20'
p770
sg15
(lp771
sg17
(lp772
sg19
(lp773
sg21
I0
sba(iArchitecture
Entity
p774
(dp775
g11
(lp776
sg13
S'android.accounts.AccountManager$21'
p777
sg15
(lp778
sg17
(lp779
sg19
(lp780
sg21
I0
sba(iArchitecture
Entity
p781
(dp782
g11
(lp783
sg13
S'android.accounts.AccountManager$22'
p784
sg15
(lp785
sg17
(lp786
sg19
(lp787
sg21
I0
sba(iArchitecture
Entity
p788
(dp789
g11
(lp790
sg13
S'android.accounts.AccountManager$23'
p791
sg15
(lp792
sg17
(lp793
sg19
(lp794
sg21
I0
sba(iArchitecture
Entity
p795
(dp796
g11
(lp797
sg13
S'android.accounts.AccountManager$3'
p798
sg15
(lp799
sg17
(lp800
sg19
(lp801
sg21
I0
sba(iArchitecture
Entity
p802
(dp803
g11
(lp804
sg13
S'android.accounts.AccountManager$4'
p805
sg15
(lp806
sg17
(lp807
sg19
(lp808
sg21
I0
sba(iArchitecture
Entity
p809
(dp810
g11
(lp811
sg13
S'android.accounts.AccountManager$5'
p812
sg15
(lp813
sg17
(lp814
sg19
(lp815
sg21
I0
sba(iArchitecture
Entity
p816
(dp817
g11
(lp818
sg13
S'android.accounts.AccountManager$6'
p819
sg15
(lp820
sg17
(lp821
sg19
(lp822
sg21
I0
sba(iArchitecture
Entity
p823
(dp824
g11
(lp825
sg13
S'android.accounts.AccountManager$7'
p826
sg15
(lp827
sg17
(lp828
sg19
(lp829
sg21
I0
sba(iArchitecture
Entity
p830
(dp831
g11
(lp832
sg13
S'android.accounts.AccountManager$8'
p833
sg15
(lp834
sg17
(lp835
sg19
(lp836
sg21
I0
sba(iArchitecture
Entity
p837
(dp838
g11
(lp839
sg13
S'android.accounts.AccountManager$9'
p840
sg15
(lp841
sg17
(lp842
sg19
(lp843
sg21
I0
sba(iArchitecture
Entity
p844
(dp845
g11
(lp846
sg13
S'android.accounts.AccountManager$AmsTask'
p847
sg15
(lp848
sg17
(lp849
sg19
(lp850
sg21
I0
sba(iArchitecture
Entity
p851
(dp852
g11
(lp853
sg13
S'android.accounts.AccountManager$AmsTask$1'
p854
sg15
(lp855
sg17
(lp856
sg19
(lp857
sg21
I0
sba(iArchitecture
Entity
p858
(dp859
g11
(lp860
sg13
S'android.accounts.AccountManager$AmsTask$Response'
p861
sg15
(lp862
sg17
(lp863
sg19
(lp864
sg21
I0
sba(iArchitecture
Entity
p865
(dp866
g11
(lp867
sg13
S'android.accounts.AccountManager$BaseFutureTask'
p868
sg15
(lp869
sg17
(lp870
sg19
(lp871
sg21
I0
sba(iArchitecture
Entity
p872
(dp873
g11
(lp874
sg13
S'android.accounts.AccountManager$BaseFutureTask$1'
p875
sg15
(lp876
sg17
(lp877
sg19
(lp878
sg21
I0
sba(iArchitecture
Entity
p879
(dp880
g11
(lp881
sg13
S'android.accounts.AccountManager$BaseFutureTask$Response'
p882
sg15
(lp883
sg17
(lp884
sg19
(lp885
sg21
I0
sba(iArchitecture
Entity
p886
(dp887
g11
(lp888
sg13
S'android.accounts.AccountManager$Future2Task'
p889
sg15
(lp890
sg17
(lp891
sg19
(lp892
sg21
I0
sba(iArchitecture
Entity
p893
(dp894
g11
(lp895
sg13
S'android.accounts.AccountManager$Future2Task$1'
p896
sg15
(lp897
sg17
(lp898
sg19
(lp899
sg21
I0
sba(iArchitecture
Entity
p900
(dp901
g11
(lp902
sg13
S'android.accounts.AccountManager$GetAuthTokenByTypeAndFeaturesTask'
p903
sg15
(lp904
sg17
(lp905
sg19
(lp906
sg21
I0
sba(iArchitecture
Entity
p907
(dp908
g11
(lp909
sg13
S'android.accounts.AccountManager$GetAuthTokenByTypeAndFeaturesTask$1'
p910
sg15
(lp911
sg17
(lp912
sg19
(lp913
sg21
I0
sba(iArchitecture
Entity
p914
(dp915
g11
(lp916
sg13
S'android.accounts.AccountManager$GetAuthTokenByTypeAndFeaturesTask$1$1'
p917
sg15
(lp918
sg17
(lp919
sg19
(lp920
sg21
I0
sba(iArchitecture
Entity
p921
(dp922
g11
(lp923
sg13
S'android.accounts.AccountManagerFuture'
p924
sg15
(lp925
sg17
(lp926
sg19
(lp927
sg21
I0
sba(iArchitecture
Entity
p928
(dp929
g11
(lp930
sg13
S'android.os.AsyncTask'
p931
sg15
(lp932
sg17
(lp933
sg19
(lp934
sg21
I0
sba(iArchitecture
Entity
p935
(dp936
g11
(lp937
sg13
S'android.os.AsyncTask$1'
p938
sg15
(lp939
sg17
(lp940
sg19
(lp941
sg21
I0
sba(iArchitecture
Entity
p942
(dp943
g11
(lp944
sg13
S'android.os.AsyncTask$2'
p945
sg15
(lp946
sg17
(lp947
sg19
(lp948
sg21
I0
sba(iArchitecture
Entity
p949
(dp950
g11
(lp951
sg13
S'android.os.AsyncTask$3'
p952
sg15
(lp953
sg17
(lp954
sg19
(lp955
sg21
I0
sba(iArchitecture
Entity
p956
(dp957
g11
(lp958
sg13
S'android.os.AsyncTask$AsyncTaskResult'
p959
sg15
(lp960
sg17
(lp961
sg19
(lp962
sg21
I0
sba(iArchitecture
Entity
p963
(dp964
g11
(lp965
sg13
S'android.os.AsyncTask$InternalHandler'
p966
sg15
(lp967
sg17
(lp968
sg19
(lp969
sg21
I0
sba(iArchitecture
Entity
p970
(dp971
g11
(lp972
sg13
S'android.os.AsyncTask$SerialExecutor'
p973
sg15
(lp974
sg17
(lp975
sg19
(lp976
sg21
I0
sba(iArchitecture
Entity
p977
(dp978
g11
(lp979
sg13
S'android.os.AsyncTask$SerialExecutor$1'
p980
sg15
(lp981
sg17
(lp982
sg19
(lp983
sg21
I0
sba(iArchitecture
Entity
p984
(dp985
g11
(lp986
sg13
S'android.os.AsyncTask$Status'
p987
sg15
(lp988
sg17
(lp989
sg19
(lp990
sg21
I0
sba(iArchitecture
Entity
p991
(dp992
g11
(lp993
sg13
S'android.os.AsyncTask$WorkerRunnable'
p994
sg15
(lp995
sg17
(lp996
sg19
(lp997
sg21
I0
sba(iArchitecture
Entity
p998
(dp999
g11
(lp1000
sg13
S'android.telecom.Call'
p1001
sg15
(lp1002
sg17
(lp1003
sg19
(lp1004
sg21
I0
sba(iArchitecture
Entity
p1005
(dp1006
g11
(lp1007
sg13
S'android.telecom.Call$1'
p1008
sg15
(lp1009
sg17
(lp1010
sg19
(lp1011
sg21
I0
sba(iArchitecture
Entity
p1012
(dp1013
g11
(lp1014
sg13
S'android.telecom.Call$10'
p1015
sg15
(lp1016
sg17
(lp1017
sg19
(lp1018
sg21
I0
sba(iArchitecture
Entity
p1019
(dp1020
g11
(lp1021
sg13
S'android.telecom.Call$2'
p1022
sg15
(lp1023
sg17
(lp1024
sg19
(lp1025
sg21
I0
sba(iArchitecture
Entity
p1026
(dp1027
g11
(lp1028
sg13
S'android.telecom.Call$3'
p1029
sg15
(lp1030
sg17
(lp1031
sg19
(lp1032
sg21
I0
sba(iArchitecture
Entity
p1033
(dp1034
g11
(lp1035
sg13
S'android.telecom.Call$4'
p1036
sg15
(lp1037
sg17
(lp1038
sg19
(lp1039
sg21
I0
sba(iArchitecture
Entity
p1040
(dp1041
g11
(lp1042
sg13
S'android.telecom.Call$5'
p1043
sg15
(lp1044
sg17
(lp1045
sg19
(lp1046
sg21
I0
sba(iArchitecture
Entity
p1047
(dp1048
g11
(lp1049
sg13
S'android.telecom.Call$6'
p1050
sg15
(lp1051
sg17
(lp1052
sg19
(lp1053
sg21
I0
sba(iArchitecture
Entity
p1054
(dp1055
g11
(lp1056
sg13
S'android.telecom.Call$7'
p1057
sg15
(lp1058
sg17
(lp1059
sg19
(lp1060
sg21
I0
sba(iArchitecture
Entity
p1061
(dp1062
g11
(lp1063
sg13
S'android.telecom.Call$8'
p1064
sg15
(lp1065
sg17
(lp1066
sg19
(lp1067
sg21
I0
sba(iArchitecture
Entity
p1068
(dp1069
g11
(lp1070
sg13
S'android.telecom.Call$9'
p1071
sg15
(lp1072
sg17
(lp1073
sg19
(lp1074
sg21
I0
sba(iArchitecture
Entity
p1075
(dp1076
g11
(lp1077
sg13
S'android.telecom.Call$Callback'
p1078
sg15
(lp1079
sg17
(lp1080
sg19
(lp1081
sg21
I0
sba(iArchitecture
Entity
p1082
(dp1083
g11
(lp1084
sg13
S'android.telecom.Call$Details'
p1085
sg15
(lp1086
sg17
(lp1087
sg19
(lp1088
sg21
I0
sba(iArchitecture
Entity
p1089
(dp1090
g11
(lp1091
sg13
S'android.telecom.Call$Listener'
p1092
sg15
(lp1093
sg17
(lp1094
sg19
(lp1095
sg21
I0
sba(iArchitecture
Entity
p1096
(dp1097
g11
(lp1098
sg13
S'android.telecom.InCallAdapter'
p1099
sg15
(lp1100
sg17
(lp1101
sg19
(lp1102
sg21
I0
sbasg43
(lp1103
g679
ag686
ag693
ag700
ag707
ag714
ag721
ag728
ag735
ag742
ag749
ag756
ag763
ag770
ag777
ag784
ag791
ag798
ag805
ag812
ag819
ag826
ag833
ag840
ag847
ag854
ag861
ag868
ag875
ag882
ag889
ag896
ag903
ag910
ag917
ag924
ag931
ag938
ag945
ag952
ag959
ag966
ag973
ag980
ag987
ag994
ag1001
ag1008
ag1015
ag1022
ag1029
ag1036
ag1043
ag1050
ag1057
ag1064
ag1071
ag1078
ag1085
ag1092
ag1099
asg21
I0
sg45
S'1375'
p1104
sba(iArchitecture
Cluster
p1105
(dp1106
g7
(lp1107
(iArchitecture
Entity
p1108
(dp1109
g11
(lp1110
sg13
S'android.net.RouteInfo'
p1111
sg15
(lp1112
sg17
(lp1113
sg19
(lp1114
sg21
I0
sba(iArchitecture
Entity
p1115
(dp1116
g11
(lp1117
sg13
S'android.net.RouteInfo$1'
p1118
sg15
(lp1119
sg17
(lp1120
sg19
(lp1121
sg21
I0
sba(iArchitecture
Entity
p1122
(dp1123
g11
(lp1124
sg13
S'android.net.StaticIpConfiguration'
p1125
sg15
(lp1126
sg17
(lp1127
sg19
(lp1128
sg21
I0
sba(iArchitecture
Entity
p1129
(dp1130
g11
(lp1131
sg13
S'android.net.StaticIpConfiguration$1'
p1132
sg15
(lp1133
sg17
(lp1134
sg19
(lp1135
sg21
I0
sbasg43
(lp1136
g1111
ag1118
ag1125
ag1132
asg21
I0
sg45
S'1376'
p1137
sba(iArchitecture
Cluster
p1138
(dp1139
g7
(lp1140
(iArchitecture
Entity
p1141
(dp1142
g11
(lp1143
sg13
S'android.sax.Element'
p1144
sg15
(lp1145
sg17
(lp1146
sg19
(lp1147
sg21
I0
sba(iArchitecture
Entity
p1148
(dp1149
g11
(lp1150
sg13
S'android.widget.ExpandableListPosition'
p1151
sg15
(lp1152
sg17
(lp1153
sg19
(lp1154
sg21
I0
sbasg43
(lp1155
g1144
ag1151
asg21
I0
sg45
S'1377'
p1156
sba(iArchitecture
Cluster
p1157
(dp1158
g7
(lp1159
(iArchitecture
Entity
p1160
(dp1161
g11
(lp1162
sg13
S'android.database.sqlite.SQLiteConnection'
p1163
sg15
(lp1164
sg17
(lp1165
sg19
(lp1166
sg21
I0
sba(iArchitecture
Entity
p1167
(dp1168
g11
(lp1169
sg13
S'android.database.sqlite.SQLiteConnection$Operation'
p1170
sg15
(lp1171
sg17
(lp1172
sg19
(lp1173
sg21
I0
sba(iArchitecture
Entity
p1174
(dp1175
g11
(lp1176
sg13
S'android.database.sqlite.SQLiteConnection$OperationLog'
p1177
sg15
(lp1178
sg17
(lp1179
sg19
(lp1180
sg21
I0
sba(iArchitecture
Entity
p1181
(dp1182
g11
(lp1183
sg13
S'android.database.sqlite.SQLiteConnection$PreparedStatement'
p1184
sg15
(lp1185
sg17
(lp1186
sg19
(lp1187
sg21
I0
sba(iArchitecture
Entity
p1188
(dp1189
g11
(lp1190
sg13
S'android.database.sqlite.SQLiteConnection$PreparedStatementCache'
p1191
sg15
(lp1192
sg17
(lp1193
sg19
(lp1194
sg21
I0
sba(iArchitecture
Entity
p1195
(dp1196
g11
(lp1197
sg13
S'android.database.sqlite.SQLiteSession'
p1198
sg15
(lp1199
sg17
(lp1200
sg19
(lp1201
sg21
I0
sba(iArchitecture
Entity
p1202
(dp1203
g11
(lp1204
sg13
S'android.database.sqlite.SQLiteSession$Transaction'
p1205
sg15
(lp1206
sg17
(lp1207
sg19
(lp1208
sg21
I0
sbasg43
(lp1209
g1163
ag1170
ag1177
ag1184
ag1191
ag1198
ag1205
asg21
I0
sg45
S'1378'
p1210
sba(iArchitecture
Cluster
p1211
(dp1212
g7
(lp1213
(iArchitecture
Entity
p1214
(dp1215
g11
(lp1216
sg13
S'android.bluetooth.le.ScanCallback'
p1217
sg15
(lp1218
sg17
(lp1219
sg19
(lp1220
sg21
I0
sba(iArchitecture
Entity
p1221
(dp1222
g11
(lp1223
sg13
S'android.net.wifi.BatchedScanResult'
p1224
sg15
(lp1225
sg17
(lp1226
sg19
(lp1227
sg21
I0
sba(iArchitecture
Entity
p1228
(dp1229
g11
(lp1230
sg13
S'android.net.wifi.BatchedScanResult$1'
p1231
sg15
(lp1232
sg17
(lp1233
sg19
(lp1234
sg21
I0
sba(iArchitecture
Entity
p1235
(dp1236
g11
(lp1237
sg13
S'android.net.wifi.ScanSettings'
p1238
sg15
(lp1239
sg17
(lp1240
sg19
(lp1241
sg21
I0
sba(iArchitecture
Entity
p1242
(dp1243
g11
(lp1244
sg13
S'android.net.wifi.ScanSettings$1'
p1245
sg15
(lp1246
sg17
(lp1247
sg19
(lp1248
sg21
I0
sba(iArchitecture
Entity
p1249
(dp1250
g11
(lp1251
sg13
S'android.net.wifi.WifiChannel'
p1252
sg15
(lp1253
sg17
(lp1254
sg19
(lp1255
sg21
I0
sba(iArchitecture
Entity
p1256
(dp1257
g11
(lp1258
sg13
S'android.net.wifi.WifiChannel$1'
p1259
sg15
(lp1260
sg17
(lp1261
sg19
(lp1262
sg21
I0
sba(iArchitecture
Entity
p1263
(dp1264
g11
(lp1265
sg13
S'android.os.health.TimerStat'
p1266
sg15
(lp1267
sg17
(lp1268
sg19
(lp1269
sg21
I0
sba(iArchitecture
Entity
p1270
(dp1271
g11
(lp1272
sg13
S'android.os.health.TimerStat$1'
p1273
sg15
(lp1274
sg17
(lp1275
sg19
(lp1276
sg21
I0
sbasg43
(lp1277
g1217
ag1224
ag1231
ag1238
ag1245
ag1252
ag1259
ag1266
ag1273
asg21
I0
sg45
S'1379'
p1278
sba(iArchitecture
Cluster
p1279
(dp1280
g7
(lp1281
(iArchitecture
Entity
p1282
(dp1283
g11
(lp1284
sg13
S'android.os.StatFs'
p1285
sg15
(lp1286
sg17
(lp1287
sg19
(lp1288
sg21
I0
sbasg43
(lp1289
g1285
asg21
I0
sg45
S'237'
p1290
sba(iArchitecture
Cluster
p1291
(dp1292
g7
(lp1293
(iArchitecture
Entity
p1294
(dp1295
g11
(lp1296
sg13
S'com.android.server.wm.DragAndDropPermissionsHandler'
p1297
sg15
(lp1298
sg17
(lp1299
sg19
(lp1300
sg21
I0
sbasg43
(lp1301
g1297
asg21
I0
sg45
S'337'
p1302
sba(iArchitecture
Cluster
p1303
(dp1304
g7
(lp1305
(iArchitecture
Entity
p1306
(dp1307
g11
(lp1308
sg13
S'android.bluetooth.BluetoothAvrcp'
p1309
sg15
(lp1310
sg17
(lp1311
sg19
(lp1312
sg21
I0
sbasg43
(lp1313
g1309
asg21
I0
sg45
S'37'
p1314
sba(iArchitecture
Cluster
p1315
(dp1316
g7
(lp1317
(iArchitecture
Entity
p1318
(dp1319
g11
(lp1320
sg13
S'com.android.internal.os.CpuPowerCalculator'
p1321
sg15
(lp1322
sg17
(lp1323
sg19
(lp1324
sg21
I0
sbasg43
(lp1325
g1321
asg21
I0
sg45
S'370'
p1326
sba(iArchitecture
Cluster
p1327
(dp1328
g7
(lp1329
(iArchitecture
Entity
p1330
(dp1331
g11
(lp1332
sg13
S'com.android.internal.util.FastXmlSerializer'
p1333
sg15
(lp1334
sg17
(lp1335
sg19
(lp1336
sg21
I0
sbasg43
(lp1337
g1333
asg21
I0
sg45
S'371'
p1338
sba(iArchitecture
Cluster
p1339
(dp1340
g7
(lp1341
(iArchitecture
Entity
p1342
(dp1343
g11
(lp1344
sg13
S'android.security.keystore.ArrayUtils'
p1345
sg15
(lp1346
sg17
(lp1347
sg19
(lp1348
sg21
I0
sbasg43
(lp1349
g1345
asg21
I0
sg45
S'372'
p1350
sba(iArchitecture
Cluster
p1351
(dp1352
g7
(lp1353
(iArchitecture
Entity
p1354
(dp1355
g11
(lp1356
sg13
S'android.net.netlink.NetlinkConstants'
p1357
sg15
(lp1358
sg17
(lp1359
sg19
(lp1360
sg21
I0
sbasg43
(lp1361
g1357
asg21
I0
sg45
S'373'
p1362
sba(iArchitecture
Cluster
p1363
(dp1364
g7
(lp1365
(iArchitecture
Entity
p1366
(dp1367
g11
(lp1368
sg13
S'com.android.server.SystemServiceManager'
p1369
sg15
(lp1370
sg17
(lp1371
sg19
(lp1372
sg21
I0
sbasg43
(lp1373
g1369
asg21
I0
sg45
S'374'
p1374
sba(iArchitecture
Cluster
p1375
(dp1376
g7
(lp1377
(iArchitecture
Entity
p1378
(dp1379
g11
(lp1380
sg13
S'android.media.MediaHTTPConnection'
p1381
sg15
(lp1382
sg17
(lp1383
sg19
(lp1384
sg21
I0
sbasg43
(lp1385
g1381
asg21
I0
sg45
S'375'
p1386
sba(iArchitecture
Cluster
p1387
(dp1388
g7
(lp1389
(iArchitecture
Entity
p1390
(dp1391
g11
(lp1392
sg13
S'com.android.server.updates.TzDataInstallReceiver'
p1393
sg15
(lp1394
sg17
(lp1395
sg19
(lp1396
sg21
I0
sbasg43
(lp1397
g1393
asg21
I0
sg45
S'376'
p1398
sba(iArchitecture
Cluster
p1399
(dp1400
g7
(lp1401
(iArchitecture
Entity
p1402
(dp1403
g11
(lp1404
sg13
S'android.content.UriMatcher'
p1405
sg15
(lp1406
sg17
(lp1407
sg19
(lp1408
sg21
I0
sbasg43
(lp1409
g1405
asg21
I0
sg45
S'377'
p1410
sba(iArchitecture
Cluster
p1411
(dp1412
g7
(lp1413
(iArchitecture
Entity
p1414
(dp1415
g11
(lp1416
sg13
S'com.android.server.pm.SharedUserSetting'
p1417
sg15
(lp1418
sg17
(lp1419
sg19
(lp1420
sg21
I0
sbasg43
(lp1421
g1417
asg21
I0
sg45
S'378'
p1422
sba(iArchitecture
Cluster
p1423
(dp1424
g7
(lp1425
(iArchitecture
Entity
p1426
(dp1427
g11
(lp1428
sg13
S'android.util.Rational'
p1429
sg15
(lp1430
sg17
(lp1431
sg19
(lp1432
sg21
I0
sbasg43
(lp1433
g1429
asg21
I0
sg45
S'379'
p1434
sba(iArchitecture
Cluster
p1435
(dp1436
g7
(lp1437
(iArchitecture
Entity
p1438
(dp1439
g11
(lp1440
sg13
S'android.telecom.RemoteConnectionManager'
p1441
sg15
(lp1442
sg17
(lp1443
sg19
(lp1444
sg21
I0
sbasg43
(lp1445
g1441
asg21
I0
sg45
S'437'
p1446
sba(iArchitecture
Cluster
p1447
(dp1448
g7
(lp1449
(iArchitecture
Entity
p1450
(dp1451
g11
(lp1452
sg13
S'android.bluetooth.UidTraffic'
p1453
sg15
(lp1454
sg17
(lp1455
sg19
(lp1456
sg21
I0
sba(iArchitecture
Entity
p1457
(dp1458
g11
(lp1459
sg13
S'android.bluetooth.UidTraffic$1'
p1460
sg15
(lp1461
sg17
(lp1462
sg19
(lp1463
sg21
I0
sbasg43
(lp1464
g1453
ag1460
asg21
I0
sg45
S'537'
p1465
sba(iArchitecture
Cluster
p1466
(dp1467
g7
(lp1468
(iArchitecture
Entity
p1469
(dp1470
g11
(lp1471
sg13
S'android.media.FaceDetector'
p1472
sg15
(lp1473
sg17
(lp1474
sg19
(lp1475
sg21
I0
sba(iArchitecture
Entity
p1476
(dp1477
g11
(lp1478
sg13
S'android.media.FaceDetector$Face'
p1479
sg15
(lp1480
sg17
(lp1481
sg19
(lp1482
sg21
I0
sbasg43
(lp1483
g1472
ag1479
asg21
I0
sg45
S'637'
p1484
sba(iArchitecture
Cluster
p1485
(dp1486
g7
(lp1487
(iArchitecture
Entity
p1488
(dp1489
g11
(lp1490
sg13
S'android.service.notification.StatusBarNotification'
p1491
sg15
(lp1492
sg17
(lp1493
sg19
(lp1494
sg21
I0
sba(iArchitecture
Entity
p1495
(dp1496
g11
(lp1497
sg13
S'android.service.notification.StatusBarNotification$1'
p1498
sg15
(lp1499
sg17
(lp1500
sg19
(lp1501
sg21
I0
sbasg43
(lp1502
g1491
ag1498
asg21
I0
sg45
S'737'
p1503
sba(iArchitecture
Cluster
p1504
(dp1505
g7
(lp1506
(iArchitecture
Entity
p1507
(dp1508
g11
(lp1509
sg13
S'android.media.ThumbnailUtils'
p1510
sg15
(lp1511
sg17
(lp1512
sg19
(lp1513
sg21
I0
sba(iArchitecture
Entity
p1514
(dp1515
g11
(lp1516
sg13
S'android.media.ThumbnailUtils$SizedThumbnailBitmap'
p1517
sg15
(lp1518
sg17
(lp1519
sg19
(lp1520
sg21
I0
sbasg43
(lp1521
g1510
ag1517
asg21
I0
sg45
S'837'
p1522
sba(iArchitecture
Cluster
p1523
(dp1524
g7
(lp1525
(iArchitecture
Entity
p1526
(dp1527
g11
(lp1528
sg13
S'android.content.pm.EphemeralResolveInfo'
p1529
sg15
(lp1530
sg17
(lp1531
sg19
(lp1532
sg21
I0
sba(iArchitecture
Entity
p1533
(dp1534
g11
(lp1535
sg13
S'android.content.pm.EphemeralResolveInfo$1'
p1536
sg15
(lp1537
sg17
(lp1538
sg19
(lp1539
sg21
I0
sba(iArchitecture
Entity
p1540
(dp1541
g11
(lp1542
sg13
S'android.content.pm.EphemeralResolveInfo$EphemeralResolveIntentInfo'
p1543
sg15
(lp1544
sg17
(lp1545
sg19
(lp1546
sg21
I0
sbasg43
(lp1547
g1529
ag1536
ag1543
asg21
I0
sg45
S'937'
p1548
sbasS'target_sub'
p1549
S'37'
p1550
sg43
(lp1551
sS'is_component_arch'
p1552
I01
sg45
S'7.0.0_r1'
p1553
sba.