(lp0
(iArchitecture
Architecture
p1
(dp2
S'clusters'
p3
(lp4
(iArchitecture
Cluster
p5
(dp6
S'entities'
p7
(lp8
(iArchitecture
Entity
p9
(dp10
S'issue_ids'
p11
(lp12
sS'name'
p13
S'android.widget.ExpandableListConnector'
p14
sS'descs'
p15
(lp16
sS'labels'
p17
(lp18
sS'titles'
p19
(lp20
sS'change'
p21
I0
sba(iArchitecture
Entity
p22
(dp23
g11
(lp24
sg13
S'android.widget.ExpandableListConnector$GroupMetadata'
p25
sg15
(lp26
sg17
(lp27
sg19
(lp28
sg21
I0
sba(iArchitecture
Entity
p29
(dp30
g11
(lp31
sg13
S'android.widget.ExpandableListConnector$GroupMetadata$1'
p32
sg15
(lp33
sg17
(lp34
sg19
(lp35
sg21
I0
sba(iArchitecture
Entity
p36
(dp37
g11
(lp38
sg13
S'android.widget.ExpandableListConnector$MyDataSetObserver'
p39
sg15
(lp40
sg17
(lp41
sg19
(lp42
sg21
I0
sba(iArchitecture
Entity
p43
(dp44
g11
(lp45
sg13
S'android.widget.ExpandableListConnector$PositionMetadata'
p46
sg15
(lp47
sg17
(lp48
sg19
(lp49
sg21
I0
sbasS'classes'
p50
(lp51
g14
ag25
ag32
ag39
ag46
asg21
I0
sS'label'
p52
S'1046'
p53
sba(iArchitecture
Cluster
p54
(dp55
g7
(lp56
(iArchitecture
Entity
p57
(dp58
g11
(lp59
sg13
S'android.media.MediaCodecInfo'
p60
sg15
(lp61
sg17
(lp62
sg19
(lp63
sg21
I0
sba(iArchitecture
Entity
p64
(dp65
g11
(lp66
sg13
S'android.media.MediaCodecInfo$AudioCapabilities'
p67
sg15
(lp68
sg17
(lp69
sg19
(lp70
sg21
I0
sba(iArchitecture
Entity
p71
(dp72
g11
(lp73
sg13
S'android.media.MediaCodecInfo$CodecCapabilities'
p74
sg15
(lp75
sg17
(lp76
sg19
(lp77
sg21
I0
sba(iArchitecture
Entity
p78
(dp79
g11
(lp80
sg13
S'android.media.MediaCodecInfo$CodecProfileLevel'
p81
sg15
(lp82
sg17
(lp83
sg19
(lp84
sg21
I0
sba(iArchitecture
Entity
p85
(dp86
g11
(lp87
sg13
S'android.media.MediaCodecInfo$EncoderCapabilities'
p88
sg15
(lp89
sg17
(lp90
sg19
(lp91
sg21
I0
sba(iArchitecture
Entity
p92
(dp93
g11
(lp94
sg13
S'android.media.MediaCodecInfo$Feature'
p95
sg15
(lp96
sg17
(lp97
sg19
(lp98
sg21
I0
sba(iArchitecture
Entity
p99
(dp100
g11
(lp101
sg13
S'android.media.MediaCodecInfo$VideoCapabilities'
p102
sg15
(lp103
sg17
(lp104
sg19
(lp105
sg21
I0
sbasg50
(lp106
g60
ag67
ag74
ag81
ag88
ag95
ag102
asg21
I0
sg52
S'1146'
p107
sba(iArchitecture
Cluster
p108
(dp109
g7
(lp110
(iArchitecture
Entity
p111
(dp112
g11
(lp113
sg13
S'android.view.OrientationEventListener'
p114
sg15
(lp115
sg17
(lp116
sg19
(lp117
sg21
I0
sba(iArchitecture
Entity
p118
(dp119
g11
(lp120
sg13
S'android.view.OrientationEventListener$SensorEventListenerImpl'
p121
sg15
(lp122
sg17
(lp123
sg19
(lp124
sg21
I0
sba(iArchitecture
Entity
p125
(dp126
g11
(lp127
sg13
S'android.view.OrientationListener'
p128
sg15
(lp129
sg17
(lp130
sg19
(lp131
sg21
I0
sba(iArchitecture
Entity
p132
(dp133
g11
(lp134
sg13
S'android.view.OrientationListener$OrientationEventListenerInternal'
p135
sg15
(lp136
sg17
(lp137
sg19
(lp138
sg21
I0
sbasg50
(lp139
g114
ag121
ag128
ag135
asg21
I0
sg52
S'1246'
p140
sba(iArchitecture
Cluster
p141
(dp142
g7
(lp143
(iArchitecture
Entity
p144
(dp145
g11
(lp146
sg13
S'android.transition.CircularPropagation'
p147
sg15
(lp148
sg17
(lp149
sg19
(lp150
sg21
I0
sba(iArchitecture
Entity
p151
(dp152
g11
(lp153
sg13
S'android.transition.Explode'
p154
sg15
(lp155
sg17
(lp156
sg19
(lp157
sg21
I0
sba(iArchitecture
Entity
p158
(dp159
g11
(lp160
sg13
S'android.transition.SidePropagation'
p161
sg15
(lp162
sg17
(lp163
sg19
(lp164
sg21
I0
sbasg50
(lp165
g147
ag154
ag161
asg21
I0
sg52
S'1346'
p166
sba(iArchitecture
Cluster
p167
(dp168
g7
(lp169
(iArchitecture
Entity
p170
(dp171
g11
(lp172
sg13
S'com.android.internal.app.AlertActivity'
p173
sg15
(lp174
sg17
(lp175
sg19
(lp176
sg21
I0
sbasg50
(lp177
g173
asg21
I0
sg52
S'146'
p178
sba(iArchitecture
Cluster
p179
(dp180
g7
(lp181
(iArchitecture
Entity
p182
(dp183
g11
(lp184
sg13
S'com.android.internal.widget.WeightedLinearLayout'
p185
sg15
(lp186
sg17
(lp187
sg19
(lp188
sg21
I0
sbasg50
(lp189
g185
asg21
I0
sg52
S'246'
p190
sba(iArchitecture
Cluster
p191
(dp192
g7
(lp193
(iArchitecture
Entity
p194
(dp195
g11
(lp196
sg13
S'android.webkit.UrlInterceptRegistry'
p197
sg15
(lp198
sg17
(lp199
sg19
(lp200
sg21
I0
sbasg50
(lp201
g197
asg21
I0
sg52
S'346'
p202
sba(iArchitecture
Cluster
p203
(dp204
g7
(lp205
(iArchitecture
Entity
p206
(dp207
g11
(lp208
sg13
S'com.android.server.backup.BackupUtils'
p209
sg15
(lp210
sg17
(lp211
sg19
(lp212
sg21
I0
sbasg50
(lp213
g209
asg21
I0
sg52
S'446'
p214
sba(iArchitecture
Cluster
p215
(dp216
g7
(lp217
(iArchitecture
Entity
p218
(dp219
g11
(lp220
sg13
S'android.media.AudioTimestamp'
p221
sg15
(lp222
sg17
(lp223
sg19
(lp224
sg21
I0
sbasg50
(lp225
g221
asg21
I0
sg52
S'46'
p226
sba(iArchitecture
Cluster
p227
(dp228
g7
(lp229
(iArchitecture
Entity
p230
(dp231
g11
(lp232
sg13
S'android.security.net.config.Domain'
p233
sg15
(lp234
sg17
(lp235
sg19
(lp236
sg21
I0
sbasg50
(lp237
g233
asg21
I0
sg52
S'460'
p238
sba(iArchitecture
Cluster
p239
(dp240
g7
(lp241
(iArchitecture
Entity
p242
(dp243
g11
(lp244
sg13
S'android.telephony.CellSignalStrength'
p245
sg15
(lp246
sg17
(lp247
sg19
(lp248
sg21
I0
sbasg50
(lp249
g245
asg21
I0
sg52
S'461'
p250
sba(iArchitecture
Cluster
p251
(dp252
g7
(lp253
(iArchitecture
Entity
p254
(dp255
g11
(lp256
sg13
S'android.renderscript.ScriptIntrinsicBlend'
p257
sg15
(lp258
sg17
(lp259
sg19
(lp260
sg21
I0
sbasg50
(lp261
g257
asg21
I0
sg52
S'462'
p262
sba(iArchitecture
Cluster
p263
(dp264
g7
(lp265
(iArchitecture
Entity
p266
(dp267
g11
(lp268
sg13
S'com.android.server.am.ActivityStartInterceptor'
p269
sg15
(lp270
sg17
(lp271
sg19
(lp272
sg21
I0
sbasg50
(lp273
g269
asg21
I0
sg52
S'463'
p274
sba(iArchitecture
Cluster
p275
(dp276
g7
(lp277
(iArchitecture
Entity
p278
(dp279
g11
(lp280
sg13
S'com.android.internal.util.ScreenShapeHelper'
p281
sg15
(lp282
sg17
(lp283
sg19
(lp284
sg21
I0
sbasg50
(lp285
g281
asg21
I0
sg52
S'464'
p286
sba(iArchitecture
Cluster
p287
(dp288
g7
(lp289
(iArchitecture
Entity
p290
(dp291
g11
(lp292
sg13
S'android.test.InstrumentationTestSuite'
p293
sg15
(lp294
sg17
(lp295
sg19
(lp296
sg21
I0
sbasg50
(lp297
g293
asg21
I0
sg52
S'465'
p298
sba(iArchitecture
Cluster
p299
(dp300
g7
(lp301
(iArchitecture
Entity
p302
(dp303
g11
(lp304
sg13
S'android.security.keystore.KeyPermanentlyInvalidatedException'
p305
sg15
(lp306
sg17
(lp307
sg19
(lp308
sg21
I0
sbasg50
(lp309
g305
asg21
I0
sg52
S'466'
p310
sba(iArchitecture
Cluster
p311
(dp312
g7
(lp313
(iArchitecture
Entity
p314
(dp315
g11
(lp316
sg13
S'com.android.internal.os.FlashlightPowerCalculator'
p317
sg15
(lp318
sg17
(lp319
sg19
(lp320
sg21
I0
sbasg50
(lp321
g317
asg21
I0
sg52
S'467'
p322
sba(iArchitecture
Cluster
p323
(dp324
g7
(lp325
(iArchitecture
Entity
p326
(dp327
g11
(lp328
sg13
S'android.location.Geocoder'
p329
sg15
(lp330
sg17
(lp331
sg19
(lp332
sg21
I0
sbasg50
(lp333
g329
asg21
I0
sg52
S'468'
p334
sba(iArchitecture
Cluster
p335
(dp336
g7
(lp337
(iArchitecture
Entity
p338
(dp339
g11
(lp340
sg13
S'android.media.MediaFormat'
p341
sg15
(lp342
sg17
(lp343
sg19
(lp344
sg21
I0
sbasg50
(lp345
g341
asg21
I0
sg52
S'469'
p346
sba(iArchitecture
Cluster
p347
(dp348
g7
(lp349
(iArchitecture
Entity
p350
(dp351
g11
(lp352
sg13
S'android.database.CursorToBulkCursorAdaptor'
p353
sg15
(lp354
sg17
(lp355
sg19
(lp356
sg21
I0
sba(iArchitecture
Entity
p357
(dp358
g11
(lp359
sg13
S'android.database.CursorToBulkCursorAdaptor$ContentObserverProxy'
p360
sg15
(lp361
sg17
(lp362
sg19
(lp363
sg21
I0
sbasg50
(lp364
g353
ag360
asg21
I0
sg52
S'546'
p365
sba(iArchitecture
Cluster
p366
(dp367
g7
(lp368
(iArchitecture
Entity
p369
(dp370
g11
(lp371
sg13
S'android.telecom.ConferenceParticipant'
p372
sg15
(lp373
sg17
(lp374
sg19
(lp375
sg21
I0
sba(iArchitecture
Entity
p376
(dp377
g11
(lp378
sg13
S'android.telecom.ConferenceParticipant$1'
p379
sg15
(lp380
sg17
(lp381
sg19
(lp382
sg21
I0
sbasg50
(lp383
g372
ag379
asg21
I0
sg52
S'646'
p384
sba(iArchitecture
Cluster
p385
(dp386
g7
(lp387
(iArchitecture
Entity
p388
(dp389
g11
(lp390
sg13
S'com.android.internal.view.InputBindResult'
p391
sg15
(lp392
sg17
(lp393
sg19
(lp394
sg21
I0
sba(iArchitecture
Entity
p395
(dp396
g11
(lp397
sg13
S'com.android.internal.view.InputBindResult$1'
p398
sg15
(lp399
sg17
(lp400
sg19
(lp401
sg21
I0
sbasg50
(lp402
g391
ag398
asg21
I0
sg52
S'746'
p403
sba(iArchitecture
Cluster
p404
(dp405
g7
(lp406
(iArchitecture
Entity
p407
(dp408
g11
(lp409
sg13
S'android.media.AudioFormat'
p410
sg15
(lp411
sg17
(lp412
sg19
(lp413
sg21
I0
sba(iArchitecture
Entity
p414
(dp415
g11
(lp416
sg13
S'android.media.AudioFormat$1'
p417
sg15
(lp418
sg17
(lp419
sg19
(lp420
sg21
I0
sba(iArchitecture
Entity
p421
(dp422
g11
(lp423
sg13
S'android.media.AudioFormat$Builder'
p424
sg15
(lp425
sg17
(lp426
sg19
(lp427
sg21
I0
sbasg50
(lp428
g410
ag417
ag424
asg21
I0
sg52
S'846'
p429
sba(iArchitecture
Cluster
p430
(dp431
g7
(lp432
(iArchitecture
Entity
p433
(dp434
g11
(lp435
sg13
S'com.android.server.vr.EnabledComponentsObserver'
p436
sg15
(lp437
sg17
(lp438
sg19
(lp439
sg21
I0
sba(iArchitecture
Entity
p440
(dp441
g11
(lp442
sg13
S'com.android.server.vr.EnabledComponentsObserver$1'
p443
sg15
(lp444
sg17
(lp445
sg19
(lp446
sg21
I0
sba(iArchitecture
Entity
p447
(dp448
g11
(lp449
sg13
S'com.android.server.vr.EnabledComponentsObserver$EnabledComponentChangeListener'
p450
sg15
(lp451
sg17
(lp452
sg19
(lp453
sg21
I0
sbasg50
(lp454
g436
ag443
ag450
asg21
I0
sg52
S'946'
p455
sbasS'target_sub'
p456
S'46'
p457
sg50
(lp458
sS'is_component_arch'
p459
I01
sg52
S'7.0.0_r1'
p460
sba.