(lp0
(iArchitecture
Architecture
p1
(dp2
S'clusters'
p3
(lp4
(iArchitecture
Cluster
p5
(dp6
S'entities'
p7
(lp8
(iArchitecture
Entity
p9
(dp10
S'issue_ids'
p11
(lp12
sS'name'
p13
S'android.widget.Filter'
p14
sS'descs'
p15
(lp16
sS'labels'
p17
(lp18
sS'titles'
p19
(lp20
sS'change'
p21
I0
sba(iArchitecture
Entity
p22
(dp23
g11
(lp24
sg13
S'android.widget.Filter$Delayer'
p25
sg15
(lp26
sg17
(lp27
sg19
(lp28
sg21
I0
sba(iArchitecture
Entity
p29
(dp30
g11
(lp31
sg13
S'android.widget.Filter$FilterListener'
p32
sg15
(lp33
sg17
(lp34
sg19
(lp35
sg21
I0
sba(iArchitecture
Entity
p36
(dp37
g11
(lp38
sg13
S'android.widget.Filter$FilterResults'
p39
sg15
(lp40
sg17
(lp41
sg19
(lp42
sg21
I0
sba(iArchitecture
Entity
p43
(dp44
g11
(lp45
sg13
S'android.widget.Filter$RequestArguments'
p46
sg15
(lp47
sg17
(lp48
sg19
(lp49
sg21
I0
sba(iArchitecture
Entity
p50
(dp51
g11
(lp52
sg13
S'android.widget.Filter$RequestHandler'
p53
sg15
(lp54
sg17
(lp55
sg19
(lp56
sg21
I0
sba(iArchitecture
Entity
p57
(dp58
g11
(lp59
sg13
S'android.widget.Filter$ResultsHandler'
p60
sg15
(lp61
sg17
(lp62
sg19
(lp63
sg21
I0
sbasS'classes'
p64
(lp65
g14
ag25
ag32
ag39
ag46
ag53
ag60
asg21
I0
sS'label'
p66
S'1139'
p67
sba(iArchitecture
Cluster
p68
(dp69
g7
(lp70
(iArchitecture
Entity
p71
(dp72
g11
(lp73
sg13
S'android.hardware.camera2.params.MeteringRectangle'
p74
sg15
(lp75
sg17
(lp76
sg19
(lp77
sg21
I0
sbasg64
(lp78
g74
asg21
I0
sg66
S'139'
p79
sba(iArchitecture
Cluster
p80
(dp81
g7
(lp82
(iArchitecture
Entity
p83
(dp84
g11
(lp85
sg13
S'android.security.KeyPairGeneratorSpec'
p86
sg15
(lp87
sg17
(lp88
sg19
(lp89
sg21
I0
sba(iArchitecture
Entity
p90
(dp91
g11
(lp92
sg13
S'android.security.KeyPairGeneratorSpec$Builder'
p93
sg15
(lp94
sg17
(lp95
sg19
(lp96
sg21
I0
sba(iArchitecture
Entity
p97
(dp98
g11
(lp99
sg13
S'android.security.KeyStoreParameter'
p100
sg15
(lp101
sg17
(lp102
sg19
(lp103
sg21
I0
sba(iArchitecture
Entity
p104
(dp105
g11
(lp106
sg13
S'android.security.KeyStoreParameter$Builder'
p107
sg15
(lp108
sg17
(lp109
sg19
(lp110
sg21
I0
sba(iArchitecture
Entity
p111
(dp112
g11
(lp113
sg13
S'android.security.keystore.KeyGenParameterSpec'
p114
sg15
(lp115
sg17
(lp116
sg19
(lp117
sg21
I0
sba(iArchitecture
Entity
p118
(dp119
g11
(lp120
sg13
S'android.security.keystore.KeyGenParameterSpec$Builder'
p121
sg15
(lp122
sg17
(lp123
sg19
(lp124
sg21
I0
sba(iArchitecture
Entity
p125
(dp126
g11
(lp127
sg13
S'android.security.keystore.KeyInfo'
p128
sg15
(lp129
sg17
(lp130
sg19
(lp131
sg21
I0
sba(iArchitecture
Entity
p132
(dp133
g11
(lp134
sg13
S'android.security.keystore.KeyProtection'
p135
sg15
(lp136
sg17
(lp137
sg19
(lp138
sg21
I0
sba(iArchitecture
Entity
p139
(dp140
g11
(lp141
sg13
S'android.security.keystore.KeyProtection$Builder'
p142
sg15
(lp143
sg17
(lp144
sg19
(lp145
sg21
I0
sbasg64
(lp146
g86
ag93
ag100
ag107
ag114
ag121
ag128
ag135
ag142
asg21
I0
sg66
S'1390'
p147
sba(iArchitecture
Cluster
p148
(dp149
g7
(lp150
(iArchitecture
Entity
p151
(dp152
g11
(lp153
sg13
S'android.view.Surface'
p154
sg15
(lp155
sg17
(lp156
sg19
(lp157
sg21
I0
sba(iArchitecture
Entity
p158
(dp159
g11
(lp160
sg13
S'android.view.Surface$1'
p161
sg15
(lp162
sg17
(lp163
sg19
(lp164
sg21
I0
sba(iArchitecture
Entity
p165
(dp166
g11
(lp167
sg13
S'android.view.Surface$CompatibleCanvas'
p168
sg15
(lp169
sg17
(lp170
sg19
(lp171
sg21
I0
sba(iArchitecture
Entity
p172
(dp173
g11
(lp174
sg13
S'android.view.Surface$HwuiContext'
p175
sg15
(lp176
sg17
(lp177
sg19
(lp178
sg21
I0
sba(iArchitecture
Entity
p179
(dp180
g11
(lp181
sg13
S'android.view.Surface$OutOfResourcesException'
p182
sg15
(lp183
sg17
(lp184
sg19
(lp185
sg21
I0
sba(iArchitecture
Entity
p186
(dp187
g11
(lp188
sg13
S'android.view.SurfaceControl'
p189
sg15
(lp190
sg17
(lp191
sg19
(lp192
sg21
I0
sba(iArchitecture
Entity
p193
(dp194
g11
(lp195
sg13
S'android.view.SurfaceControl$PhysicalDisplayInfo'
p196
sg15
(lp197
sg17
(lp198
sg19
(lp199
sg21
I0
sba(iArchitecture
Entity
p200
(dp201
g11
(lp202
sg13
S'android.view.SurfaceHolder'
p203
sg15
(lp204
sg17
(lp205
sg19
(lp206
sg21
I0
sba(iArchitecture
Entity
p207
(dp208
g11
(lp209
sg13
S'android.view.SurfaceHolder$BadSurfaceTypeException'
p210
sg15
(lp211
sg17
(lp212
sg19
(lp213
sg21
I0
sba(iArchitecture
Entity
p214
(dp215
g11
(lp216
sg13
S'android.view.SurfaceHolder$Callback'
p217
sg15
(lp218
sg17
(lp219
sg19
(lp220
sg21
I0
sba(iArchitecture
Entity
p221
(dp222
g11
(lp223
sg13
S'android.view.SurfaceHolder$Callback2'
p224
sg15
(lp225
sg17
(lp226
sg19
(lp227
sg21
I0
sba(iArchitecture
Entity
p228
(dp229
g11
(lp230
sg13
S'android.view.SurfaceView'
p231
sg15
(lp232
sg17
(lp233
sg19
(lp234
sg21
I0
sba(iArchitecture
Entity
p235
(dp236
g11
(lp237
sg13
S'android.view.SurfaceView$1'
p238
sg15
(lp239
sg17
(lp240
sg19
(lp241
sg21
I0
sba(iArchitecture
Entity
p242
(dp243
g11
(lp244
sg13
S'android.view.SurfaceView$2'
p245
sg15
(lp246
sg17
(lp247
sg19
(lp248
sg21
I0
sba(iArchitecture
Entity
p249
(dp250
g11
(lp251
sg13
S'android.view.SurfaceView$3'
p252
sg15
(lp253
sg17
(lp254
sg19
(lp255
sg21
I0
sba(iArchitecture
Entity
p256
(dp257
g11
(lp258
sg13
S'android.view.SurfaceView$4'
p259
sg15
(lp260
sg17
(lp261
sg19
(lp262
sg21
I0
sba(iArchitecture
Entity
p263
(dp264
g11
(lp265
sg13
S'android.view.SurfaceView$MyWindow'
p266
sg15
(lp267
sg17
(lp268
sg19
(lp269
sg21
I0
sba(iArchitecture
Entity
p270
(dp271
g11
(lp272
sg13
S'android.view.TextureView'
p273
sg15
(lp274
sg17
(lp275
sg19
(lp276
sg21
I0
sba(iArchitecture
Entity
p277
(dp278
g11
(lp279
sg13
S'android.view.TextureView$1'
p280
sg15
(lp281
sg17
(lp282
sg19
(lp283
sg21
I0
sba(iArchitecture
Entity
p284
(dp285
g11
(lp286
sg13
S'android.view.TextureView$SurfaceTextureListener'
p287
sg15
(lp288
sg17
(lp289
sg19
(lp290
sg21
I0
sbasg64
(lp291
g154
ag161
ag168
ag175
ag182
ag189
ag196
ag203
ag210
ag217
ag224
ag231
ag238
ag245
ag252
ag259
ag266
ag273
ag280
ag287
asg21
I0
sg66
S'1391'
p292
sba(iArchitecture
Cluster
p293
(dp294
g7
(lp295
(iArchitecture
Entity
p296
(dp297
g11
(lp298
sg13
S'android.os.UserManager'
p299
sg15
(lp300
sg17
(lp301
sg19
(lp302
sg21
I0
sba(iArchitecture
Entity
p303
(dp304
g11
(lp305
sg13
S'com.android.server.am.UserController'
p306
sg15
(lp307
sg17
(lp308
sg19
(lp309
sg21
I0
sba(iArchitecture
Entity
p310
(dp311
g11
(lp312
sg13
S'com.android.server.am.UserController$1'
p313
sg15
(lp314
sg17
(lp315
sg19
(lp316
sg21
I0
sba(iArchitecture
Entity
p317
(dp318
g11
(lp319
sg13
S'com.android.server.am.UserController$2'
p320
sg15
(lp321
sg17
(lp322
sg19
(lp323
sg21
I0
sba(iArchitecture
Entity
p324
(dp325
g11
(lp326
sg13
S'com.android.server.am.UserController$3'
p327
sg15
(lp328
sg17
(lp329
sg19
(lp330
sg21
I0
sba(iArchitecture
Entity
p331
(dp332
g11
(lp333
sg13
S'com.android.server.am.UserController$4'
p334
sg15
(lp335
sg17
(lp336
sg19
(lp337
sg21
I0
sba(iArchitecture
Entity
p338
(dp339
g11
(lp340
sg13
S'com.android.server.am.UserController$4$1'
p341
sg15
(lp342
sg17
(lp343
sg19
(lp344
sg21
I0
sba(iArchitecture
Entity
p345
(dp346
g11
(lp347
sg13
S'com.android.server.am.UserController$5'
p348
sg15
(lp349
sg17
(lp350
sg19
(lp351
sg21
I0
sba(iArchitecture
Entity
p352
(dp353
g11
(lp354
sg13
S'com.android.server.am.UserController$5$1'
p355
sg15
(lp356
sg17
(lp357
sg19
(lp358
sg21
I0
sba(iArchitecture
Entity
p359
(dp360
g11
(lp361
sg13
S'com.android.server.am.UserController$6'
p362
sg15
(lp363
sg17
(lp364
sg19
(lp365
sg21
I0
sba(iArchitecture
Entity
p366
(dp367
g11
(lp368
sg13
S'com.android.server.am.UserController$7'
p369
sg15
(lp370
sg17
(lp371
sg19
(lp372
sg21
I0
sba(iArchitecture
Entity
p373
(dp374
g11
(lp375
sg13
S'com.android.server.pm.UserManagerService'
p376
sg15
(lp377
sg17
(lp378
sg19
(lp379
sg21
I0
sba(iArchitecture
Entity
p380
(dp381
g11
(lp382
sg13
S'com.android.server.pm.UserManagerService$1'
p383
sg15
(lp384
sg17
(lp385
sg19
(lp386
sg21
I0
sba(iArchitecture
Entity
p387
(dp388
g11
(lp389
sg13
S'com.android.server.pm.UserManagerService$2'
p390
sg15
(lp391
sg17
(lp392
sg19
(lp393
sg21
I0
sba(iArchitecture
Entity
p394
(dp395
g11
(lp396
sg13
S'com.android.server.pm.UserManagerService$3'
p397
sg15
(lp398
sg17
(lp399
sg19
(lp400
sg21
I0
sba(iArchitecture
Entity
p401
(dp402
g11
(lp403
sg13
S'com.android.server.pm.UserManagerService$4'
p404
sg15
(lp405
sg17
(lp406
sg19
(lp407
sg21
I0
sba(iArchitecture
Entity
p408
(dp409
g11
(lp410
sg13
S'com.android.server.pm.UserManagerService$5'
p411
sg15
(lp412
sg17
(lp413
sg19
(lp414
sg21
I0
sba(iArchitecture
Entity
p415
(dp416
g11
(lp417
sg13
S'com.android.server.pm.UserManagerService$6'
p418
sg15
(lp419
sg17
(lp420
sg19
(lp421
sg21
I0
sba(iArchitecture
Entity
p422
(dp423
g11
(lp424
sg13
S'com.android.server.pm.UserManagerService$6$1'
p425
sg15
(lp426
sg17
(lp427
sg19
(lp428
sg21
I0
sba(iArchitecture
Entity
p429
(dp430
g11
(lp431
sg13
S'com.android.server.pm.UserManagerService$LifeCycle'
p432
sg15
(lp433
sg17
(lp434
sg19
(lp435
sg21
I0
sba(iArchitecture
Entity
p436
(dp437
g11
(lp438
sg13
S'com.android.server.pm.UserManagerService$LocalService'
p439
sg15
(lp440
sg17
(lp441
sg19
(lp442
sg21
I0
sba(iArchitecture
Entity
p443
(dp444
g11
(lp445
sg13
S'com.android.server.pm.UserManagerService$LocalService$1'
p446
sg15
(lp447
sg17
(lp448
sg19
(lp449
sg21
I0
sba(iArchitecture
Entity
p450
(dp451
g11
(lp452
sg13
S'com.android.server.pm.UserManagerService$MainHandler'
p453
sg15
(lp454
sg17
(lp455
sg19
(lp456
sg21
I0
sba(iArchitecture
Entity
p457
(dp458
g11
(lp459
sg13
S'com.android.server.pm.UserManagerService$Shell'
p460
sg15
(lp461
sg17
(lp462
sg19
(lp463
sg21
I0
sba(iArchitecture
Entity
p464
(dp465
g11
(lp466
sg13
S'com.android.server.pm.UserManagerService$UserData'
p467
sg15
(lp468
sg17
(lp469
sg19
(lp470
sg21
I0
sbasg64
(lp471
g299
ag306
ag313
ag320
ag327
ag334
ag341
ag348
ag355
ag362
ag369
ag376
ag383
ag390
ag397
ag404
ag411
ag418
ag425
ag432
ag439
ag446
ag453
ag460
ag467
asg21
I0
sg66
S'1392'
p472
sba(iArchitecture
Cluster
p473
(dp474
g7
(lp475
(iArchitecture
Entity
p476
(dp477
g11
(lp478
sg13
S'android.app.BackStackRecord'
p479
sg15
(lp480
sg17
(lp481
sg19
(lp482
sg21
I0
sba(iArchitecture
Entity
p483
(dp484
g11
(lp485
sg13
S'android.app.BackStackRecord$1'
p486
sg15
(lp487
sg17
(lp488
sg19
(lp489
sg21
I0
sba(iArchitecture
Entity
p490
(dp491
g11
(lp492
sg13
S'android.app.BackStackRecord$2'
p493
sg15
(lp494
sg17
(lp495
sg19
(lp496
sg21
I0
sba(iArchitecture
Entity
p497
(dp498
g11
(lp499
sg13
S'android.app.BackStackRecord$3'
p500
sg15
(lp501
sg17
(lp502
sg19
(lp503
sg21
I0
sba(iArchitecture
Entity
p504
(dp505
g11
(lp506
sg13
S'android.app.BackStackRecord$4'
p507
sg15
(lp508
sg17
(lp509
sg19
(lp510
sg21
I0
sba(iArchitecture
Entity
p511
(dp512
g11
(lp513
sg13
S'android.app.BackStackRecord$Op'
p514
sg15
(lp515
sg17
(lp516
sg19
(lp517
sg21
I0
sba(iArchitecture
Entity
p518
(dp519
g11
(lp520
sg13
S'android.app.BackStackRecord$TransitionState'
p521
sg15
(lp522
sg17
(lp523
sg19
(lp524
sg21
I0
sba(iArchitecture
Entity
p525
(dp526
g11
(lp527
sg13
S'android.app.DialogFragment'
p528
sg15
(lp529
sg17
(lp530
sg19
(lp531
sg21
I0
sba(iArchitecture
Entity
p532
(dp533
g11
(lp534
sg13
S'android.app.Fragment'
p535
sg15
(lp536
sg17
(lp537
sg19
(lp538
sg21
I0
sba(iArchitecture
Entity
p539
(dp540
g11
(lp541
sg13
S'android.app.Fragment$1'
p542
sg15
(lp543
sg17
(lp544
sg19
(lp545
sg21
I0
sba(iArchitecture
Entity
p546
(dp547
g11
(lp548
sg13
S'android.app.Fragment$InstantiationException'
p549
sg15
(lp550
sg17
(lp551
sg19
(lp552
sg21
I0
sba(iArchitecture
Entity
p553
(dp554
g11
(lp555
sg13
S'android.app.Fragment$SavedState'
p556
sg15
(lp557
sg17
(lp558
sg19
(lp559
sg21
I0
sba(iArchitecture
Entity
p560
(dp561
g11
(lp562
sg13
S'android.app.Fragment$SavedState$1'
p563
sg15
(lp564
sg17
(lp565
sg19
(lp566
sg21
I0
sba(iArchitecture
Entity
p567
(dp568
g11
(lp569
sg13
S'android.app.FragmentBreadCrumbs'
p570
sg15
(lp571
sg17
(lp572
sg19
(lp573
sg21
I0
sba(iArchitecture
Entity
p574
(dp575
g11
(lp576
sg13
S'android.app.FragmentBreadCrumbs$1'
p577
sg15
(lp578
sg17
(lp579
sg19
(lp580
sg21
I0
sba(iArchitecture
Entity
p581
(dp582
g11
(lp583
sg13
S'android.app.FragmentBreadCrumbs$OnBreadCrumbClickListener'
p584
sg15
(lp585
sg17
(lp586
sg19
(lp587
sg21
I0
sba(iArchitecture
Entity
p588
(dp589
g11
(lp590
sg13
S'android.app.FragmentManager'
p591
sg15
(lp592
sg17
(lp593
sg19
(lp594
sg21
I0
sba(iArchitecture
Entity
p595
(dp596
g11
(lp597
sg13
S'android.app.FragmentManager$BackStackEntry'
p598
sg15
(lp599
sg17
(lp600
sg19
(lp601
sg21
I0
sba(iArchitecture
Entity
p602
(dp603
g11
(lp604
sg13
S'android.app.FragmentManager$OnBackStackChangedListener'
p605
sg15
(lp606
sg17
(lp607
sg19
(lp608
sg21
I0
sba(iArchitecture
Entity
p609
(dp610
g11
(lp611
sg13
S'android.app.FragmentTransaction'
p612
sg15
(lp613
sg17
(lp614
sg19
(lp615
sg21
I0
sba(iArchitecture
Entity
p616
(dp617
g11
(lp618
sg13
S'android.preference.PreferenceActivity'
p619
sg15
(lp620
sg17
(lp621
sg19
(lp622
sg21
I0
sba(iArchitecture
Entity
p623
(dp624
g11
(lp625
sg13
S'android.preference.PreferenceActivity$1'
p626
sg15
(lp627
sg17
(lp628
sg19
(lp629
sg21
I0
sba(iArchitecture
Entity
p630
(dp631
g11
(lp632
sg13
S'android.preference.PreferenceActivity$2'
p633
sg15
(lp634
sg17
(lp635
sg19
(lp636
sg21
I0
sba(iArchitecture
Entity
p637
(dp638
g11
(lp639
sg13
S'android.preference.PreferenceActivity$3'
p640
sg15
(lp641
sg17
(lp642
sg19
(lp643
sg21
I0
sba(iArchitecture
Entity
p644
(dp645
g11
(lp646
sg13
S'android.preference.PreferenceActivity$4'
p647
sg15
(lp648
sg17
(lp649
sg19
(lp650
sg21
I0
sba(iArchitecture
Entity
p651
(dp652
g11
(lp653
sg13
S'android.preference.PreferenceActivity$Header'
p654
sg15
(lp655
sg17
(lp656
sg19
(lp657
sg21
I0
sba(iArchitecture
Entity
p658
(dp659
g11
(lp660
sg13
S'android.preference.PreferenceActivity$Header$1'
p661
sg15
(lp662
sg17
(lp663
sg19
(lp664
sg21
I0
sba(iArchitecture
Entity
p665
(dp666
g11
(lp667
sg13
S'android.preference.PreferenceActivity$HeaderAdapter'
p668
sg15
(lp669
sg17
(lp670
sg19
(lp671
sg21
I0
sba(iArchitecture
Entity
p672
(dp673
g11
(lp674
sg13
S'android.preference.PreferenceActivity$HeaderAdapter$HeaderViewHolder'
p675
sg15
(lp676
sg17
(lp677
sg19
(lp678
sg21
I0
sbasg64
(lp679
g479
ag486
ag493
ag500
ag507
ag514
ag521
ag528
ag535
ag542
ag549
ag556
ag563
ag570
ag577
ag584
ag591
ag598
ag605
ag612
ag619
ag626
ag633
ag640
ag647
ag654
ag661
ag668
ag675
asg21
I0
sg66
S'1393'
p680
sba(iArchitecture
Cluster
p681
(dp682
g7
(lp683
(iArchitecture
Entity
p684
(dp685
g11
(lp686
sg13
S'android.content.DialogInterface'
p687
sg15
(lp688
sg17
(lp689
sg19
(lp690
sg21
I0
sba(iArchitecture
Entity
p691
(dp692
g11
(lp693
sg13
S'android.content.DialogInterface$OnCancelListener'
p694
sg15
(lp695
sg17
(lp696
sg19
(lp697
sg21
I0
sba(iArchitecture
Entity
p698
(dp699
g11
(lp700
sg13
S'android.content.DialogInterface$OnClickListener'
p701
sg15
(lp702
sg17
(lp703
sg19
(lp704
sg21
I0
sba(iArchitecture
Entity
p705
(dp706
g11
(lp707
sg13
S'android.content.DialogInterface$OnDismissListener'
p708
sg15
(lp709
sg17
(lp710
sg19
(lp711
sg21
I0
sba(iArchitecture
Entity
p712
(dp713
g11
(lp714
sg13
S'android.content.DialogInterface$OnKeyListener'
p715
sg15
(lp716
sg17
(lp717
sg19
(lp718
sg21
I0
sba(iArchitecture
Entity
p719
(dp720
g11
(lp721
sg13
S'android.content.DialogInterface$OnMultiChoiceClickListener'
p722
sg15
(lp723
sg17
(lp724
sg19
(lp725
sg21
I0
sba(iArchitecture
Entity
p726
(dp727
g11
(lp728
sg13
S'android.content.DialogInterface$OnShowListener'
p729
sg15
(lp730
sg17
(lp731
sg19
(lp732
sg21
I0
sba(iArchitecture
Entity
p733
(dp734
g11
(lp735
sg13
S'android.hardware.SensorListener'
p736
sg15
(lp737
sg17
(lp738
sg19
(lp739
sg21
I0
sba(iArchitecture
Entity
p740
(dp741
g11
(lp742
sg13
S'android.hardware.TriggerEventListener'
p743
sg15
(lp744
sg17
(lp745
sg19
(lp746
sg21
I0
sba(iArchitecture
Entity
p747
(dp748
g11
(lp749
sg13
S'android.webkit.ServiceWorkerWebSettings'
p750
sg15
(lp751
sg17
(lp752
sg19
(lp753
sg21
I0
sba(iArchitecture
Entity
p754
(dp755
g11
(lp756
sg13
S'org.apache.http.params.HttpParams'
p757
sg15
(lp758
sg17
(lp759
sg19
(lp760
sg21
I0
sbasg64
(lp761
g687
ag694
ag701
ag708
ag715
ag722
ag729
ag736
ag743
ag750
ag757
asg21
I0
sg66
S'1394'
p762
sba(iArchitecture
Cluster
p763
(dp764
g7
(lp765
(iArchitecture
Entity
p766
(dp767
g11
(lp768
sg13
S'android.telecom.ParcelableCall'
p769
sg15
(lp770
sg17
(lp771
sg19
(lp772
sg21
I0
sba(iArchitecture
Entity
p773
(dp774
g11
(lp775
sg13
S'android.telecom.ParcelableCall$1'
p776
sg15
(lp777
sg17
(lp778
sg19
(lp779
sg21
I0
sba(iArchitecture
Entity
p780
(dp781
g11
(lp782
sg13
S'android.telecom.ParcelableConnection'
p783
sg15
(lp784
sg17
(lp785
sg19
(lp786
sg21
I0
sba(iArchitecture
Entity
p787
(dp788
g11
(lp789
sg13
S'android.telecom.ParcelableConnection$1'
p790
sg15
(lp791
sg17
(lp792
sg19
(lp793
sg21
I0
sbasg64
(lp794
g769
ag776
ag783
ag790
asg21
I0
sg66
S'1395'
p795
sba(iArchitecture
Cluster
p796
(dp797
g7
(lp798
(iArchitecture
Entity
p799
(dp800
g11
(lp801
sg13
S'android.app.TabActivity'
p802
sg15
(lp803
sg17
(lp804
sg19
(lp805
sg21
I0
sba(iArchitecture
Entity
p806
(dp807
g11
(lp808
sg13
S'android.app.admin.SecurityLog'
p809
sg15
(lp810
sg17
(lp811
sg19
(lp812
sg21
I0
sba(iArchitecture
Entity
p813
(dp814
g11
(lp815
sg13
S'android.app.admin.SecurityLog$SecurityEvent'
p816
sg15
(lp817
sg17
(lp818
sg19
(lp819
sg21
I0
sba(iArchitecture
Entity
p820
(dp821
g11
(lp822
sg13
S'android.app.admin.SecurityLog$SecurityEvent$1'
p823
sg15
(lp824
sg17
(lp825
sg19
(lp826
sg21
I0
sbasg64
(lp827
g802
ag809
ag816
ag823
asg21
I0
sg66
S'1396'
p828
sba(iArchitecture
Cluster
p829
(dp830
g7
(lp831
(iArchitecture
Entity
p832
(dp833
g11
(lp834
sg13
S'android.nfc.cardemulation.NfcFServiceInfo'
p835
sg15
(lp836
sg17
(lp837
sg19
(lp838
sg21
I0
sba(iArchitecture
Entity
p839
(dp840
g11
(lp841
sg13
S'android.nfc.cardemulation.NfcFServiceInfo$1'
p842
sg15
(lp843
sg17
(lp844
sg19
(lp845
sg21
I0
sba(iArchitecture
Entity
p846
(dp847
g11
(lp848
sg13
S'com.android.server.pm.PreferredComponent'
p849
sg15
(lp850
sg17
(lp851
sg19
(lp852
sg21
I0
sba(iArchitecture
Entity
p853
(dp854
g11
(lp855
sg13
S'com.android.server.pm.PreferredComponent$Callbacks'
p856
sg15
(lp857
sg17
(lp858
sg19
(lp859
sg21
I0
sbasg64
(lp860
g835
ag842
ag849
ag856
asg21
I0
sg66
S'1397'
p861
sba(iArchitecture
Cluster
p862
(dp863
g7
(lp864
(iArchitecture
Entity
p865
(dp866
g11
(lp867
sg13
S'android.graphics.drawable.AnimatedRotateDrawable'
p868
sg15
(lp869
sg17
(lp870
sg19
(lp871
sg21
I0
sba(iArchitecture
Entity
p872
(dp873
g11
(lp874
sg13
S'android.graphics.drawable.AnimatedRotateDrawable$1'
p875
sg15
(lp876
sg17
(lp877
sg19
(lp878
sg21
I0
sba(iArchitecture
Entity
p879
(dp880
g11
(lp881
sg13
S'android.graphics.drawable.AnimatedRotateDrawable$AnimatedRotateState'
p882
sg15
(lp883
sg17
(lp884
sg19
(lp885
sg21
I0
sba(iArchitecture
Entity
p886
(dp887
g11
(lp888
sg13
S'android.graphics.drawable.DrawableInflater'
p889
sg15
(lp890
sg17
(lp891
sg19
(lp892
sg21
I0
sba(iArchitecture
Entity
p893
(dp894
g11
(lp895
sg13
S'android.preference.GenericInflater'
p896
sg15
(lp897
sg17
(lp898
sg19
(lp899
sg21
I0
sba(iArchitecture
Entity
p900
(dp901
g11
(lp902
sg13
S'android.preference.GenericInflater$Factory'
p903
sg15
(lp904
sg17
(lp905
sg19
(lp906
sg21
I0
sba(iArchitecture
Entity
p907
(dp908
g11
(lp909
sg13
S'android.preference.GenericInflater$FactoryMerger'
p910
sg15
(lp911
sg17
(lp912
sg19
(lp913
sg21
I0
sba(iArchitecture
Entity
p914
(dp915
g11
(lp916
sg13
S'android.preference.GenericInflater$Parent'
p917
sg15
(lp918
sg17
(lp919
sg19
(lp920
sg21
I0
sba(iArchitecture
Entity
p921
(dp922
g11
(lp923
sg13
S'android.util.StateSet'
p924
sg15
(lp925
sg17
(lp926
sg19
(lp927
sg21
I0
sba(iArchitecture
Entity
p928
(dp929
g11
(lp930
sg13
S'android.view.LayoutInflater'
p931
sg15
(lp932
sg17
(lp933
sg19
(lp934
sg21
I0
sba(iArchitecture
Entity
p935
(dp936
g11
(lp937
sg13
S'android.view.LayoutInflater$BlinkLayout'
p938
sg15
(lp939
sg17
(lp940
sg19
(lp941
sg21
I0
sba(iArchitecture
Entity
p942
(dp943
g11
(lp944
sg13
S'android.view.LayoutInflater$BlinkLayout$1'
p945
sg15
(lp946
sg17
(lp947
sg19
(lp948
sg21
I0
sba(iArchitecture
Entity
p949
(dp950
g11
(lp951
sg13
S'android.view.LayoutInflater$Factory'
p952
sg15
(lp953
sg17
(lp954
sg19
(lp955
sg21
I0
sba(iArchitecture
Entity
p956
(dp957
g11
(lp958
sg13
S'android.view.LayoutInflater$Factory2'
p959
sg15
(lp960
sg17
(lp961
sg19
(lp962
sg21
I0
sba(iArchitecture
Entity
p963
(dp964
g11
(lp965
sg13
S'android.view.LayoutInflater$FactoryMerger'
p966
sg15
(lp967
sg17
(lp968
sg19
(lp969
sg21
I0
sba(iArchitecture
Entity
p970
(dp971
g11
(lp972
sg13
S'android.view.LayoutInflater$Filter'
p973
sg15
(lp974
sg17
(lp975
sg19
(lp976
sg21
I0
sbasg64
(lp977
g868
ag875
ag882
ag889
ag896
ag903
ag910
ag917
ag924
ag931
ag938
ag945
ag952
ag959
ag966
ag973
asg21
I0
sg66
S'1398'
p978
sba(iArchitecture
Cluster
p979
(dp980
g7
(lp981
(iArchitecture
Entity
p982
(dp983
g11
(lp984
sg13
S'android.content.pm.permission.RuntimePermissionPresentationInfo'
p985
sg15
(lp986
sg17
(lp987
sg19
(lp988
sg21
I0
sba(iArchitecture
Entity
p989
(dp990
g11
(lp991
sg13
S'android.content.pm.permission.RuntimePermissionPresentationInfo$1'
p992
sg15
(lp993
sg17
(lp994
sg19
(lp995
sg21
I0
sba(iArchitecture
Entity
p996
(dp997
g11
(lp998
sg13
S'android.hardware.location.ContextHubMessage'
p999
sg15
(lp1000
sg17
(lp1001
sg19
(lp1002
sg21
I0
sba(iArchitecture
Entity
p1003
(dp1004
g11
(lp1005
sg13
S'android.hardware.location.ContextHubMessage$1'
p1006
sg15
(lp1007
sg17
(lp1008
sg19
(lp1009
sg21
I0
sba(iArchitecture
Entity
p1010
(dp1011
g11
(lp1012
sg13
S'android.location.GeocoderParams'
p1013
sg15
(lp1014
sg17
(lp1015
sg19
(lp1016
sg21
I0
sba(iArchitecture
Entity
p1017
(dp1018
g11
(lp1019
sg13
S'android.location.GeocoderParams$1'
p1020
sg15
(lp1021
sg17
(lp1022
sg19
(lp1023
sg21
I0
sba(iArchitecture
Entity
p1024
(dp1025
g11
(lp1026
sg13
S'com.android.ims.ImsSuppServiceNotification'
p1027
sg15
(lp1028
sg17
(lp1029
sg19
(lp1030
sg21
I0
sba(iArchitecture
Entity
p1031
(dp1032
g11
(lp1033
sg13
S'com.android.ims.ImsSuppServiceNotification$1'
p1034
sg15
(lp1035
sg17
(lp1036
sg19
(lp1037
sg21
I0
sbasg64
(lp1038
g985
ag992
ag999
ag1006
ag1013
ag1020
ag1027
ag1034
asg21
I0
sg66
S'1399'
p1039
sbasS'target_sub'
p1040
S'139'
p1041
sg64
(lp1042
sS'is_component_arch'
p1043
I01
sg66
S'7.0.0_r1'
p1044
sba.