(lp0
(iArchitecture
Architecture
p1
(dp2
S'clusters'
p3
(lp4
(iArchitecture
Cluster
p5
(dp6
S'entities'
p7
(lp8
(iArchitecture
Entity
p9
(dp10
S'issue_ids'
p11
(lp12
sS'name'
p13
S'android.net.Network'
p14
sS'descs'
p15
(lp16
sS'labels'
p17
(lp18
sS'titles'
p19
(lp20
sS'change'
p21
I0
sba(iArchitecture
Entity
p22
(dp23
g11
(lp24
sg13
S'android.net.Network$1'
p25
sg15
(lp26
sg17
(lp27
sg19
(lp28
sg21
I0
sba(iArchitecture
Entity
p29
(dp30
g11
(lp31
sg13
S'android.net.Network$2'
p32
sg15
(lp33
sg17
(lp34
sg19
(lp35
sg21
I0
sba(iArchitecture
Entity
p36
(dp37
g11
(lp38
sg13
S'android.net.Network$NetworkBoundSocketFactory'
p39
sg15
(lp40
sg17
(lp41
sg19
(lp42
sg21
I0
sbasS'classes'
p43
(lp44
g14
ag25
ag32
ag39
asg21
I0
sS'label'
p45
S'1032'
p46
sba(iArchitecture
Cluster
p47
(dp48
g7
(lp49
(iArchitecture
Entity
p50
(dp51
g11
(lp52
sg13
S'android.renderscript.RenderScript'
p53
sg15
(lp54
sg17
(lp55
sg19
(lp56
sg21
I0
sba(iArchitecture
Entity
p57
(dp58
g11
(lp59
sg13
S'android.renderscript.RenderScript$ContextType'
p60
sg15
(lp61
sg17
(lp62
sg19
(lp63
sg21
I0
sba(iArchitecture
Entity
p64
(dp65
g11
(lp66
sg13
S'android.renderscript.RenderScript$MessageThread'
p67
sg15
(lp68
sg17
(lp69
sg19
(lp70
sg21
I0
sba(iArchitecture
Entity
p71
(dp72
g11
(lp73
sg13
S'android.renderscript.RenderScript$Priority'
p74
sg15
(lp75
sg17
(lp76
sg19
(lp77
sg21
I0
sba(iArchitecture
Entity
p78
(dp79
g11
(lp80
sg13
S'android.renderscript.RenderScript$RSErrorHandler'
p81
sg15
(lp82
sg17
(lp83
sg19
(lp84
sg21
I0
sba(iArchitecture
Entity
p85
(dp86
g11
(lp87
sg13
S'android.renderscript.RenderScript$RSMessageHandler'
p88
sg15
(lp89
sg17
(lp90
sg19
(lp91
sg21
I0
sbasg43
(lp92
g53
ag60
ag67
ag74
ag81
ag88
asg21
I0
sg45
S'1132'
p93
sba(iArchitecture
Cluster
p94
(dp95
g7
(lp96
(iArchitecture
Entity
p97
(dp98
g11
(lp99
sg13
S'android.app.SystemServiceRegistry'
p100
sg15
(lp101
sg17
(lp102
sg19
(lp103
sg21
I0
sba(iArchitecture
Entity
p104
(dp105
g11
(lp106
sg13
S'android.app.SystemServiceRegistry$1'
p107
sg15
(lp108
sg17
(lp109
sg19
(lp110
sg21
I0
sba(iArchitecture
Entity
p111
(dp112
g11
(lp113
sg13
S'android.app.SystemServiceRegistry$10'
p114
sg15
(lp115
sg17
(lp116
sg19
(lp117
sg21
I0
sba(iArchitecture
Entity
p118
(dp119
g11
(lp120
sg13
S'android.app.SystemServiceRegistry$11'
p121
sg15
(lp122
sg17
(lp123
sg19
(lp124
sg21
I0
sba(iArchitecture
Entity
p125
(dp126
g11
(lp127
sg13
S'android.app.SystemServiceRegistry$12'
p128
sg15
(lp129
sg17
(lp130
sg19
(lp131
sg21
I0
sba(iArchitecture
Entity
p132
(dp133
g11
(lp134
sg13
S'android.app.SystemServiceRegistry$13'
p135
sg15
(lp136
sg17
(lp137
sg19
(lp138
sg21
I0
sba(iArchitecture
Entity
p139
(dp140
g11
(lp141
sg13
S'android.app.SystemServiceRegistry$14'
p142
sg15
(lp143
sg17
(lp144
sg19
(lp145
sg21
I0
sba(iArchitecture
Entity
p146
(dp147
g11
(lp148
sg13
S'android.app.SystemServiceRegistry$15'
p149
sg15
(lp150
sg17
(lp151
sg19
(lp152
sg21
I0
sba(iArchitecture
Entity
p153
(dp154
g11
(lp155
sg13
S'android.app.SystemServiceRegistry$16'
p156
sg15
(lp157
sg17
(lp158
sg19
(lp159
sg21
I0
sba(iArchitecture
Entity
p160
(dp161
g11
(lp162
sg13
S'android.app.SystemServiceRegistry$17'
p163
sg15
(lp164
sg17
(lp165
sg19
(lp166
sg21
I0
sba(iArchitecture
Entity
p167
(dp168
g11
(lp169
sg13
S'android.app.SystemServiceRegistry$18'
p170
sg15
(lp171
sg17
(lp172
sg19
(lp173
sg21
I0
sba(iArchitecture
Entity
p174
(dp175
g11
(lp176
sg13
S'android.app.SystemServiceRegistry$19'
p177
sg15
(lp178
sg17
(lp179
sg19
(lp180
sg21
I0
sba(iArchitecture
Entity
p181
(dp182
g11
(lp183
sg13
S'android.app.SystemServiceRegistry$2'
p184
sg15
(lp185
sg17
(lp186
sg19
(lp187
sg21
I0
sba(iArchitecture
Entity
p188
(dp189
g11
(lp190
sg13
S'android.app.SystemServiceRegistry$20'
p191
sg15
(lp192
sg17
(lp193
sg19
(lp194
sg21
I0
sba(iArchitecture
Entity
p195
(dp196
g11
(lp197
sg13
S'android.app.SystemServiceRegistry$21'
p198
sg15
(lp199
sg17
(lp200
sg19
(lp201
sg21
I0
sba(iArchitecture
Entity
p202
(dp203
g11
(lp204
sg13
S'android.app.SystemServiceRegistry$22'
p205
sg15
(lp206
sg17
(lp207
sg19
(lp208
sg21
I0
sba(iArchitecture
Entity
p209
(dp210
g11
(lp211
sg13
S'android.app.SystemServiceRegistry$23'
p212
sg15
(lp213
sg17
(lp214
sg19
(lp215
sg21
I0
sba(iArchitecture
Entity
p216
(dp217
g11
(lp218
sg13
S'android.app.SystemServiceRegistry$24'
p219
sg15
(lp220
sg17
(lp221
sg19
(lp222
sg21
I0
sba(iArchitecture
Entity
p223
(dp224
g11
(lp225
sg13
S'android.app.SystemServiceRegistry$25'
p226
sg15
(lp227
sg17
(lp228
sg19
(lp229
sg21
I0
sba(iArchitecture
Entity
p230
(dp231
g11
(lp232
sg13
S'android.app.SystemServiceRegistry$26'
p233
sg15
(lp234
sg17
(lp235
sg19
(lp236
sg21
I0
sba(iArchitecture
Entity
p237
(dp238
g11
(lp239
sg13
S'android.app.SystemServiceRegistry$27'
p240
sg15
(lp241
sg17
(lp242
sg19
(lp243
sg21
I0
sba(iArchitecture
Entity
p244
(dp245
g11
(lp246
sg13
S'android.app.SystemServiceRegistry$28'
p247
sg15
(lp248
sg17
(lp249
sg19
(lp250
sg21
I0
sba(iArchitecture
Entity
p251
(dp252
g11
(lp253
sg13
S'android.app.SystemServiceRegistry$29'
p254
sg15
(lp255
sg17
(lp256
sg19
(lp257
sg21
I0
sba(iArchitecture
Entity
p258
(dp259
g11
(lp260
sg13
S'android.app.SystemServiceRegistry$3'
p261
sg15
(lp262
sg17
(lp263
sg19
(lp264
sg21
I0
sba(iArchitecture
Entity
p265
(dp266
g11
(lp267
sg13
S'android.app.SystemServiceRegistry$30'
p268
sg15
(lp269
sg17
(lp270
sg19
(lp271
sg21
I0
sba(iArchitecture
Entity
p272
(dp273
g11
(lp274
sg13
S'android.app.SystemServiceRegistry$31'
p275
sg15
(lp276
sg17
(lp277
sg19
(lp278
sg21
I0
sba(iArchitecture
Entity
p279
(dp280
g11
(lp281
sg13
S'android.app.SystemServiceRegistry$32'
p282
sg15
(lp283
sg17
(lp284
sg19
(lp285
sg21
I0
sba(iArchitecture
Entity
p286
(dp287
g11
(lp288
sg13
S'android.app.SystemServiceRegistry$33'
p289
sg15
(lp290
sg17
(lp291
sg19
(lp292
sg21
I0
sba(iArchitecture
Entity
p293
(dp294
g11
(lp295
sg13
S'android.app.SystemServiceRegistry$34'
p296
sg15
(lp297
sg17
(lp298
sg19
(lp299
sg21
I0
sba(iArchitecture
Entity
p300
(dp301
g11
(lp302
sg13
S'android.app.SystemServiceRegistry$35'
p303
sg15
(lp304
sg17
(lp305
sg19
(lp306
sg21
I0
sba(iArchitecture
Entity
p307
(dp308
g11
(lp309
sg13
S'android.app.SystemServiceRegistry$36'
p310
sg15
(lp311
sg17
(lp312
sg19
(lp313
sg21
I0
sba(iArchitecture
Entity
p314
(dp315
g11
(lp316
sg13
S'android.app.SystemServiceRegistry$37'
p317
sg15
(lp318
sg17
(lp319
sg19
(lp320
sg21
I0
sba(iArchitecture
Entity
p321
(dp322
g11
(lp323
sg13
S'android.app.SystemServiceRegistry$38'
p324
sg15
(lp325
sg17
(lp326
sg19
(lp327
sg21
I0
sba(iArchitecture
Entity
p328
(dp329
g11
(lp330
sg13
S'android.app.SystemServiceRegistry$39'
p331
sg15
(lp332
sg17
(lp333
sg19
(lp334
sg21
I0
sba(iArchitecture
Entity
p335
(dp336
g11
(lp337
sg13
S'android.app.SystemServiceRegistry$4'
p338
sg15
(lp339
sg17
(lp340
sg19
(lp341
sg21
I0
sba(iArchitecture
Entity
p342
(dp343
g11
(lp344
sg13
S'android.app.SystemServiceRegistry$40'
p345
sg15
(lp346
sg17
(lp347
sg19
(lp348
sg21
I0
sba(iArchitecture
Entity
p349
(dp350
g11
(lp351
sg13
S'android.app.SystemServiceRegistry$41'
p352
sg15
(lp353
sg17
(lp354
sg19
(lp355
sg21
I0
sba(iArchitecture
Entity
p356
(dp357
g11
(lp358
sg13
S'android.app.SystemServiceRegistry$42'
p359
sg15
(lp360
sg17
(lp361
sg19
(lp362
sg21
I0
sba(iArchitecture
Entity
p363
(dp364
g11
(lp365
sg13
S'android.app.SystemServiceRegistry$43'
p366
sg15
(lp367
sg17
(lp368
sg19
(lp369
sg21
I0
sba(iArchitecture
Entity
p370
(dp371
g11
(lp372
sg13
S'android.app.SystemServiceRegistry$44'
p373
sg15
(lp374
sg17
(lp375
sg19
(lp376
sg21
I0
sba(iArchitecture
Entity
p377
(dp378
g11
(lp379
sg13
S'android.app.SystemServiceRegistry$45'
p380
sg15
(lp381
sg17
(lp382
sg19
(lp383
sg21
I0
sba(iArchitecture
Entity
p384
(dp385
g11
(lp386
sg13
S'android.app.SystemServiceRegistry$46'
p387
sg15
(lp388
sg17
(lp389
sg19
(lp390
sg21
I0
sba(iArchitecture
Entity
p391
(dp392
g11
(lp393
sg13
S'android.app.SystemServiceRegistry$47'
p394
sg15
(lp395
sg17
(lp396
sg19
(lp397
sg21
I0
sba(iArchitecture
Entity
p398
(dp399
g11
(lp400
sg13
S'android.app.SystemServiceRegistry$48'
p401
sg15
(lp402
sg17
(lp403
sg19
(lp404
sg21
I0
sba(iArchitecture
Entity
p405
(dp406
g11
(lp407
sg13
S'android.app.SystemServiceRegistry$49'
p408
sg15
(lp409
sg17
(lp410
sg19
(lp411
sg21
I0
sba(iArchitecture
Entity
p412
(dp413
g11
(lp414
sg13
S'android.app.SystemServiceRegistry$5'
p415
sg15
(lp416
sg17
(lp417
sg19
(lp418
sg21
I0
sba(iArchitecture
Entity
p419
(dp420
g11
(lp421
sg13
S'android.app.SystemServiceRegistry$50'
p422
sg15
(lp423
sg17
(lp424
sg19
(lp425
sg21
I0
sba(iArchitecture
Entity
p426
(dp427
g11
(lp428
sg13
S'android.app.SystemServiceRegistry$51'
p429
sg15
(lp430
sg17
(lp431
sg19
(lp432
sg21
I0
sba(iArchitecture
Entity
p433
(dp434
g11
(lp435
sg13
S'android.app.SystemServiceRegistry$52'
p436
sg15
(lp437
sg17
(lp438
sg19
(lp439
sg21
I0
sba(iArchitecture
Entity
p440
(dp441
g11
(lp442
sg13
S'android.app.SystemServiceRegistry$53'
p443
sg15
(lp444
sg17
(lp445
sg19
(lp446
sg21
I0
sba(iArchitecture
Entity
p447
(dp448
g11
(lp449
sg13
S'android.app.SystemServiceRegistry$54'
p450
sg15
(lp451
sg17
(lp452
sg19
(lp453
sg21
I0
sba(iArchitecture
Entity
p454
(dp455
g11
(lp456
sg13
S'android.app.SystemServiceRegistry$55'
p457
sg15
(lp458
sg17
(lp459
sg19
(lp460
sg21
I0
sba(iArchitecture
Entity
p461
(dp462
g11
(lp463
sg13
S'android.app.SystemServiceRegistry$56'
p464
sg15
(lp465
sg17
(lp466
sg19
(lp467
sg21
I0
sba(iArchitecture
Entity
p468
(dp469
g11
(lp470
sg13
S'android.app.SystemServiceRegistry$57'
p471
sg15
(lp472
sg17
(lp473
sg19
(lp474
sg21
I0
sba(iArchitecture
Entity
p475
(dp476
g11
(lp477
sg13
S'android.app.SystemServiceRegistry$58'
p478
sg15
(lp479
sg17
(lp480
sg19
(lp481
sg21
I0
sba(iArchitecture
Entity
p482
(dp483
g11
(lp484
sg13
S'android.app.SystemServiceRegistry$59'
p485
sg15
(lp486
sg17
(lp487
sg19
(lp488
sg21
I0
sba(iArchitecture
Entity
p489
(dp490
g11
(lp491
sg13
S'android.app.SystemServiceRegistry$6'
p492
sg15
(lp493
sg17
(lp494
sg19
(lp495
sg21
I0
sba(iArchitecture
Entity
p496
(dp497
g11
(lp498
sg13
S'android.app.SystemServiceRegistry$60'
p499
sg15
(lp500
sg17
(lp501
sg19
(lp502
sg21
I0
sba(iArchitecture
Entity
p503
(dp504
g11
(lp505
sg13
S'android.app.SystemServiceRegistry$61'
p506
sg15
(lp507
sg17
(lp508
sg19
(lp509
sg21
I0
sba(iArchitecture
Entity
p510
(dp511
g11
(lp512
sg13
S'android.app.SystemServiceRegistry$62'
p513
sg15
(lp514
sg17
(lp515
sg19
(lp516
sg21
I0
sba(iArchitecture
Entity
p517
(dp518
g11
(lp519
sg13
S'android.app.SystemServiceRegistry$63'
p520
sg15
(lp521
sg17
(lp522
sg19
(lp523
sg21
I0
sba(iArchitecture
Entity
p524
(dp525
g11
(lp526
sg13
S'android.app.SystemServiceRegistry$64'
p527
sg15
(lp528
sg17
(lp529
sg19
(lp530
sg21
I0
sba(iArchitecture
Entity
p531
(dp532
g11
(lp533
sg13
S'android.app.SystemServiceRegistry$65'
p534
sg15
(lp535
sg17
(lp536
sg19
(lp537
sg21
I0
sba(iArchitecture
Entity
p538
(dp539
g11
(lp540
sg13
S'android.app.SystemServiceRegistry$66'
p541
sg15
(lp542
sg17
(lp543
sg19
(lp544
sg21
I0
sba(iArchitecture
Entity
p545
(dp546
g11
(lp547
sg13
S'android.app.SystemServiceRegistry$67'
p548
sg15
(lp549
sg17
(lp550
sg19
(lp551
sg21
I0
sba(iArchitecture
Entity
p552
(dp553
g11
(lp554
sg13
S'android.app.SystemServiceRegistry$68'
p555
sg15
(lp556
sg17
(lp557
sg19
(lp558
sg21
I0
sba(iArchitecture
Entity
p559
(dp560
g11
(lp561
sg13
S'android.app.SystemServiceRegistry$69'
p562
sg15
(lp563
sg17
(lp564
sg19
(lp565
sg21
I0
sba(iArchitecture
Entity
p566
(dp567
g11
(lp568
sg13
S'android.app.SystemServiceRegistry$7'
p569
sg15
(lp570
sg17
(lp571
sg19
(lp572
sg21
I0
sba(iArchitecture
Entity
p573
(dp574
g11
(lp575
sg13
S'android.app.SystemServiceRegistry$70'
p576
sg15
(lp577
sg17
(lp578
sg19
(lp579
sg21
I0
sba(iArchitecture
Entity
p580
(dp581
g11
(lp582
sg13
S'android.app.SystemServiceRegistry$71'
p583
sg15
(lp584
sg17
(lp585
sg19
(lp586
sg21
I0
sba(iArchitecture
Entity
p587
(dp588
g11
(lp589
sg13
S'android.app.SystemServiceRegistry$72'
p590
sg15
(lp591
sg17
(lp592
sg19
(lp593
sg21
I0
sba(iArchitecture
Entity
p594
(dp595
g11
(lp596
sg13
S'android.app.SystemServiceRegistry$73'
p597
sg15
(lp598
sg17
(lp599
sg19
(lp600
sg21
I0
sba(iArchitecture
Entity
p601
(dp602
g11
(lp603
sg13
S'android.app.SystemServiceRegistry$74'
p604
sg15
(lp605
sg17
(lp606
sg19
(lp607
sg21
I0
sba(iArchitecture
Entity
p608
(dp609
g11
(lp610
sg13
S'android.app.SystemServiceRegistry$8'
p611
sg15
(lp612
sg17
(lp613
sg19
(lp614
sg21
I0
sba(iArchitecture
Entity
p615
(dp616
g11
(lp617
sg13
S'android.app.SystemServiceRegistry$9'
p618
sg15
(lp619
sg17
(lp620
sg19
(lp621
sg21
I0
sba(iArchitecture
Entity
p622
(dp623
g11
(lp624
sg13
S'android.app.SystemServiceRegistry$CachedServiceFetcher'
p625
sg15
(lp626
sg17
(lp627
sg19
(lp628
sg21
I0
sba(iArchitecture
Entity
p629
(dp630
g11
(lp631
sg13
S'android.app.SystemServiceRegistry$ServiceFetcher'
p632
sg15
(lp633
sg17
(lp634
sg19
(lp635
sg21
I0
sba(iArchitecture
Entity
p636
(dp637
g11
(lp638
sg13
S'android.app.SystemServiceRegistry$StaticApplicationContextServiceFetcher'
p639
sg15
(lp640
sg17
(lp641
sg19
(lp642
sg21
I0
sba(iArchitecture
Entity
p643
(dp644
g11
(lp645
sg13
S'android.app.SystemServiceRegistry$StaticServiceFetcher'
p646
sg15
(lp647
sg17
(lp648
sg19
(lp649
sg21
I0
sbasg43
(lp650
g100
ag107
ag114
ag121
ag128
ag135
ag142
ag149
ag156
ag163
ag170
ag177
ag184
ag191
ag198
ag205
ag212
ag219
ag226
ag233
ag240
ag247
ag254
ag261
ag268
ag275
ag282
ag289
ag296
ag303
ag310
ag317
ag324
ag331
ag338
ag345
ag352
ag359
ag366
ag373
ag380
ag387
ag394
ag401
ag408
ag415
ag422
ag429
ag436
ag443
ag450
ag457
ag464
ag471
ag478
ag485
ag492
ag499
ag506
ag513
ag520
ag527
ag534
ag541
ag548
ag555
ag562
ag569
ag576
ag583
ag590
ag597
ag604
ag611
ag618
ag625
ag632
ag639
ag646
asg21
I0
sg45
S'1232'
p651
sba(iArchitecture
Cluster
p652
(dp653
g7
(lp654
(iArchitecture
Entity
p655
(dp656
g11
(lp657
sg13
S'android.hardware.camera2.TotalCaptureResult'
p658
sg15
(lp659
sg17
(lp660
sg19
(lp661
sg21
I0
sbasg43
(lp662
g658
asg21
I0
sg45
S'132'
p663
sba(iArchitecture
Cluster
p664
(dp665
g7
(lp666
(iArchitecture
Entity
p667
(dp668
g11
(lp669
sg13
S'android.filterpacks.videosrc.MediaSource'
p670
sg15
(lp671
sg17
(lp672
sg19
(lp673
sg21
I0
sba(iArchitecture
Entity
p674
(dp675
g11
(lp676
sg13
S'android.filterpacks.videosrc.MediaSource$1'
p677
sg15
(lp678
sg17
(lp679
sg19
(lp680
sg21
I0
sba(iArchitecture
Entity
p681
(dp682
g11
(lp683
sg13
S'android.filterpacks.videosrc.MediaSource$2'
p684
sg15
(lp685
sg17
(lp686
sg19
(lp687
sg21
I0
sba(iArchitecture
Entity
p688
(dp689
g11
(lp690
sg13
S'android.filterpacks.videosrc.MediaSource$3'
p691
sg15
(lp692
sg17
(lp693
sg19
(lp694
sg21
I0
sba(iArchitecture
Entity
p695
(dp696
g11
(lp697
sg13
S'android.filterpacks.videosrc.MediaSource$4'
p698
sg15
(lp699
sg17
(lp700
sg19
(lp701
sg21
I0
sba(iArchitecture
Entity
p702
(dp703
g11
(lp704
sg13
S'android.filterpacks.videosrc.SurfaceTextureSource'
p705
sg15
(lp706
sg17
(lp707
sg19
(lp708
sg21
I0
sba(iArchitecture
Entity
p709
(dp710
g11
(lp711
sg13
S'android.filterpacks.videosrc.SurfaceTextureSource$1'
p712
sg15
(lp713
sg17
(lp714
sg19
(lp715
sg21
I0
sba(iArchitecture
Entity
p716
(dp717
g11
(lp718
sg13
S'android.filterpacks.videosrc.SurfaceTextureSource$SurfaceTextureSourceListener'
p719
sg15
(lp720
sg17
(lp721
sg19
(lp722
sg21
I0
sbasg43
(lp723
g670
ag677
ag684
ag691
ag698
ag705
ag712
ag719
asg21
I0
sg45
S'1320'
p724
sba(iArchitecture
Cluster
p725
(dp726
g7
(lp727
(iArchitecture
Entity
p728
(dp729
g11
(lp730
sg13
S'android.util.DayOfMonthCursor'
p731
sg15
(lp732
sg17
(lp733
sg19
(lp734
sg21
I0
sba(iArchitecture
Entity
p735
(dp736
g11
(lp737
sg13
S'android.util.MonthDisplayHelper'
p738
sg15
(lp739
sg17
(lp740
sg19
(lp741
sg21
I0
sbasg43
(lp742
g731
ag738
asg21
I0
sg45
S'1321'
p743
sba(iArchitecture
Cluster
p744
(dp745
g7
(lp746
(iArchitecture
Entity
p747
(dp748
g11
(lp749
sg13
S'android.media.MediaRouterClientState'
p750
sg15
(lp751
sg17
(lp752
sg19
(lp753
sg21
I0
sba(iArchitecture
Entity
p754
(dp755
g11
(lp756
sg13
S'android.media.MediaRouterClientState$1'
p757
sg15
(lp758
sg17
(lp759
sg19
(lp760
sg21
I0
sba(iArchitecture
Entity
p761
(dp762
g11
(lp763
sg13
S'android.media.MediaRouterClientState$RouteInfo'
p764
sg15
(lp765
sg17
(lp766
sg19
(lp767
sg21
I0
sba(iArchitecture
Entity
p768
(dp769
g11
(lp770
sg13
S'android.media.MediaRouterClientState$RouteInfo$1'
p771
sg15
(lp772
sg17
(lp773
sg19
(lp774
sg21
I0
sba(iArchitecture
Entity
p775
(dp776
g11
(lp777
sg13
S'android.media.RemoteDisplayState'
p778
sg15
(lp779
sg17
(lp780
sg19
(lp781
sg21
I0
sba(iArchitecture
Entity
p782
(dp783
g11
(lp784
sg13
S'android.media.RemoteDisplayState$1'
p785
sg15
(lp786
sg17
(lp787
sg19
(lp788
sg21
I0
sba(iArchitecture
Entity
p789
(dp790
g11
(lp791
sg13
S'android.media.RemoteDisplayState$RemoteDisplayInfo'
p792
sg15
(lp793
sg17
(lp794
sg19
(lp795
sg21
I0
sba(iArchitecture
Entity
p796
(dp797
g11
(lp798
sg13
S'android.media.RemoteDisplayState$RemoteDisplayInfo$1'
p799
sg15
(lp800
sg17
(lp801
sg19
(lp802
sg21
I0
sbasg43
(lp803
g750
ag757
ag764
ag771
ag778
ag785
ag792
ag799
asg21
I0
sg45
S'1322'
p804
sba(iArchitecture
Cluster
p805
(dp806
g7
(lp807
(iArchitecture
Entity
p808
(dp809
g11
(lp810
sg13
S'com.android.server.accessibility.MagnificationGestureHandler'
p811
sg15
(lp812
sg17
(lp813
sg19
(lp814
sg21
I0
sba(iArchitecture
Entity
p815
(dp816
g11
(lp817
sg13
S'com.android.server.accessibility.MagnificationGestureHandler$DetectingStateHandler'
p818
sg15
(lp819
sg17
(lp820
sg19
(lp821
sg21
I0
sba(iArchitecture
Entity
p822
(dp823
g11
(lp824
sg13
S'com.android.server.accessibility.MagnificationGestureHandler$DetectingStateHandler$1'
p825
sg15
(lp826
sg17
(lp827
sg19
(lp828
sg21
I0
sba(iArchitecture
Entity
p829
(dp830
g11
(lp831
sg13
S'com.android.server.accessibility.MagnificationGestureHandler$MagnifiedContentInteractionStateHandler'
p832
sg15
(lp833
sg17
(lp834
sg19
(lp835
sg21
I0
sba(iArchitecture
Entity
p836
(dp837
g11
(lp838
sg13
S'com.android.server.accessibility.MagnificationGestureHandler$MotionEventHandler'
p839
sg15
(lp840
sg17
(lp841
sg19
(lp842
sg21
I0
sba(iArchitecture
Entity
p843
(dp844
g11
(lp845
sg13
S'com.android.server.accessibility.MagnificationGestureHandler$MotionEventInfo'
p846
sg15
(lp847
sg17
(lp848
sg19
(lp849
sg21
I0
sba(iArchitecture
Entity
p850
(dp851
g11
(lp852
sg13
S'com.android.server.accessibility.MagnificationGestureHandler$StateViewportDraggingHandler'
p853
sg15
(lp854
sg17
(lp855
sg19
(lp856
sg21
I0
sba(iArchitecture
Entity
p857
(dp858
g11
(lp859
sg13
S'com.android.server.accessibility.TouchExplorer'
p860
sg15
(lp861
sg17
(lp862
sg19
(lp863
sg21
I0
sba(iArchitecture
Entity
p864
(dp865
g11
(lp866
sg13
S'com.android.server.accessibility.TouchExplorer$ExitGestureDetectionModeDelayed'
p867
sg15
(lp868
sg17
(lp869
sg19
(lp870
sg21
I0
sba(iArchitecture
Entity
p871
(dp872
g11
(lp873
sg13
S'com.android.server.accessibility.TouchExplorer$InjectedPointerTracker'
p874
sg15
(lp875
sg17
(lp876
sg19
(lp877
sg21
I0
sba(iArchitecture
Entity
p878
(dp879
g11
(lp880
sg13
S'com.android.server.accessibility.TouchExplorer$ReceivedPointerTracker'
p881
sg15
(lp882
sg17
(lp883
sg19
(lp884
sg21
I0
sba(iArchitecture
Entity
p885
(dp886
g11
(lp887
sg13
S'com.android.server.accessibility.TouchExplorer$SendAccessibilityEventDelayed'
p888
sg15
(lp889
sg17
(lp890
sg19
(lp891
sg21
I0
sba(iArchitecture
Entity
p892
(dp893
g11
(lp894
sg13
S'com.android.server.accessibility.TouchExplorer$SendHoverEnterAndMoveDelayed'
p895
sg15
(lp896
sg17
(lp897
sg19
(lp898
sg21
I0
sba(iArchitecture
Entity
p899
(dp900
g11
(lp901
sg13
S'com.android.server.accessibility.TouchExplorer$SendHoverExitDelayed'
p902
sg15
(lp903
sg17
(lp904
sg19
(lp905
sg21
I0
sbasg43
(lp906
g811
ag818
ag825
ag832
ag839
ag846
ag853
ag860
ag867
ag874
ag881
ag888
ag895
ag902
asg21
I0
sg45
S'1323'
p907
sba(iArchitecture
Cluster
p908
(dp909
g7
(lp910
(iArchitecture
Entity
p911
(dp912
g11
(lp913
sg13
S'android.widget.CalendarView'
p914
sg15
(lp915
sg17
(lp916
sg19
(lp917
sg21
I0
sba(iArchitecture
Entity
p918
(dp919
g11
(lp920
sg13
S'android.widget.CalendarView$AbstractCalendarViewDelegate'
p921
sg15
(lp922
sg17
(lp923
sg19
(lp924
sg21
I0
sba(iArchitecture
Entity
p925
(dp926
g11
(lp927
sg13
S'android.widget.CalendarView$CalendarViewDelegate'
p928
sg15
(lp929
sg17
(lp930
sg19
(lp931
sg21
I0
sba(iArchitecture
Entity
p932
(dp933
g11
(lp934
sg13
S'android.widget.CalendarView$OnDateChangeListener'
p935
sg15
(lp936
sg17
(lp937
sg19
(lp938
sg21
I0
sba(iArchitecture
Entity
p939
(dp940
g11
(lp941
sg13
S'android.widget.CalendarViewLegacyDelegate'
p942
sg15
(lp943
sg17
(lp944
sg19
(lp945
sg21
I0
sba(iArchitecture
Entity
p946
(dp947
g11
(lp948
sg13
S'android.widget.CalendarViewLegacyDelegate$1'
p949
sg15
(lp950
sg17
(lp951
sg19
(lp952
sg21
I0
sba(iArchitecture
Entity
p953
(dp954
g11
(lp955
sg13
S'android.widget.CalendarViewLegacyDelegate$2'
p956
sg15
(lp957
sg17
(lp958
sg19
(lp959
sg21
I0
sba(iArchitecture
Entity
p960
(dp961
g11
(lp962
sg13
S'android.widget.CalendarViewLegacyDelegate$ScrollStateRunnable'
p963
sg15
(lp964
sg17
(lp965
sg19
(lp966
sg21
I0
sba(iArchitecture
Entity
p967
(dp968
g11
(lp969
sg13
S'android.widget.CalendarViewLegacyDelegate$WeekView'
p970
sg15
(lp971
sg17
(lp972
sg19
(lp973
sg21
I0
sba(iArchitecture
Entity
p974
(dp975
g11
(lp976
sg13
S'android.widget.CalendarViewLegacyDelegate$WeeksAdapter'
p977
sg15
(lp978
sg17
(lp979
sg19
(lp980
sg21
I0
sba(iArchitecture
Entity
p981
(dp982
g11
(lp983
sg13
S'android.widget.CalendarViewLegacyDelegate$WeeksAdapter$CalendarGestureListener'
p984
sg15
(lp985
sg17
(lp986
sg19
(lp987
sg21
I0
sba(iArchitecture
Entity
p988
(dp989
g11
(lp990
sg13
S'android.widget.DatePicker'
p991
sg15
(lp992
sg17
(lp993
sg19
(lp994
sg21
I0
sba(iArchitecture
Entity
p995
(dp996
g11
(lp997
sg13
S'android.widget.DatePicker$AbstractDatePickerDelegate'
p998
sg15
(lp999
sg17
(lp1000
sg19
(lp1001
sg21
I0
sba(iArchitecture
Entity
p1002
(dp1003
g11
(lp1004
sg13
S'android.widget.DatePicker$AbstractDatePickerDelegate$SavedState'
p1005
sg15
(lp1006
sg17
(lp1007
sg19
(lp1008
sg21
I0
sba(iArchitecture
Entity
p1009
(dp1010
g11
(lp1011
sg13
S'android.widget.DatePicker$AbstractDatePickerDelegate$SavedState$1'
p1012
sg15
(lp1013
sg17
(lp1014
sg19
(lp1015
sg21
I0
sba(iArchitecture
Entity
p1016
(dp1017
g11
(lp1018
sg13
S'android.widget.DatePicker$DatePickerDelegate'
p1019
sg15
(lp1020
sg17
(lp1021
sg19
(lp1022
sg21
I0
sba(iArchitecture
Entity
p1023
(dp1024
g11
(lp1025
sg13
S'android.widget.DatePicker$OnDateChangedListener'
p1026
sg15
(lp1027
sg17
(lp1028
sg19
(lp1029
sg21
I0
sba(iArchitecture
Entity
p1030
(dp1031
g11
(lp1032
sg13
S'android.widget.DatePicker$ValidationCallback'
p1033
sg15
(lp1034
sg17
(lp1035
sg19
(lp1036
sg21
I0
sba(iArchitecture
Entity
p1037
(dp1038
g11
(lp1039
sg13
S'android.widget.DatePickerCalendarDelegate'
p1040
sg15
(lp1041
sg17
(lp1042
sg19
(lp1043
sg21
I0
sba(iArchitecture
Entity
p1044
(dp1045
g11
(lp1046
sg13
S'android.widget.DatePickerCalendarDelegate$1'
p1047
sg15
(lp1048
sg17
(lp1049
sg19
(lp1050
sg21
I0
sba(iArchitecture
Entity
p1051
(dp1052
g11
(lp1053
sg13
S'android.widget.DatePickerCalendarDelegate$2'
p1054
sg15
(lp1055
sg17
(lp1056
sg19
(lp1057
sg21
I0
sba(iArchitecture
Entity
p1058
(dp1059
g11
(lp1060
sg13
S'android.widget.DatePickerCalendarDelegate$3'
p1061
sg15
(lp1062
sg17
(lp1063
sg19
(lp1064
sg21
I0
sba(iArchitecture
Entity
p1065
(dp1066
g11
(lp1067
sg13
S'android.widget.DatePickerCalendarDelegate$4'
p1068
sg15
(lp1069
sg17
(lp1070
sg19
(lp1071
sg21
I0
sba(iArchitecture
Entity
p1072
(dp1073
g11
(lp1074
sg13
S'android.widget.DatePickerSpinnerDelegate'
p1075
sg15
(lp1076
sg17
(lp1077
sg19
(lp1078
sg21
I0
sba(iArchitecture
Entity
p1079
(dp1080
g11
(lp1081
sg13
S'android.widget.DatePickerSpinnerDelegate$1'
p1082
sg15
(lp1083
sg17
(lp1084
sg19
(lp1085
sg21
I0
sba(iArchitecture
Entity
p1086
(dp1087
g11
(lp1088
sg13
S'android.widget.DatePickerSpinnerDelegate$2'
p1089
sg15
(lp1090
sg17
(lp1091
sg19
(lp1092
sg21
I0
sba(iArchitecture
Entity
p1093
(dp1094
g11
(lp1095
sg13
S'android.widget.DayPickerView'
p1096
sg15
(lp1097
sg17
(lp1098
sg19
(lp1099
sg21
I0
sba(iArchitecture
Entity
p1100
(dp1101
g11
(lp1102
sg13
S'android.widget.DayPickerView$1'
p1103
sg15
(lp1104
sg17
(lp1105
sg19
(lp1106
sg21
I0
sba(iArchitecture
Entity
p1107
(dp1108
g11
(lp1109
sg13
S'android.widget.DayPickerView$2'
p1110
sg15
(lp1111
sg17
(lp1112
sg19
(lp1113
sg21
I0
sba(iArchitecture
Entity
p1114
(dp1115
g11
(lp1116
sg13
S'android.widget.DayPickerView$3'
p1117
sg15
(lp1118
sg17
(lp1119
sg19
(lp1120
sg21
I0
sba(iArchitecture
Entity
p1121
(dp1122
g11
(lp1123
sg13
S'android.widget.DayPickerView$OnDaySelectedListener'
p1124
sg15
(lp1125
sg17
(lp1126
sg19
(lp1127
sg21
I0
sbasg43
(lp1128
g914
ag921
ag928
ag935
ag942
ag949
ag956
ag963
ag970
ag977
ag984
ag991
ag998
ag1005
ag1012
ag1019
ag1026
ag1033
ag1040
ag1047
ag1054
ag1061
ag1068
ag1075
ag1082
ag1089
ag1096
ag1103
ag1110
ag1117
ag1124
asg21
I0
sg45
S'1324'
p1129
sba(iArchitecture
Cluster
p1130
(dp1131
g7
(lp1132
(iArchitecture
Entity
p1133
(dp1134
g11
(lp1135
sg13
S'android.media.MediaSyncEvent'
p1136
sg15
(lp1137
sg17
(lp1138
sg19
(lp1139
sg21
I0
sba(iArchitecture
Entity
p1140
(dp1141
g11
(lp1142
sg13
S'android.os.HardwarePropertiesManager'
p1143
sg15
(lp1144
sg17
(lp1145
sg19
(lp1146
sg21
I0
sba(iArchitecture
Entity
p1147
(dp1148
g11
(lp1149
sg13
S'android.speech.tts.AudioPlaybackQueueItem'
p1150
sg15
(lp1151
sg17
(lp1152
sg19
(lp1153
sg21
I0
sba(iArchitecture
Entity
p1154
(dp1155
g11
(lp1156
sg13
S'android.speech.tts.AudioPlaybackQueueItem$1'
p1157
sg15
(lp1158
sg17
(lp1159
sg19
(lp1160
sg21
I0
sba(iArchitecture
Entity
p1161
(dp1162
g11
(lp1163
sg13
S'android.speech.tts.AudioPlaybackQueueItem$2'
p1164
sg15
(lp1165
sg17
(lp1166
sg19
(lp1167
sg21
I0
sbasg43
(lp1168
g1136
ag1143
ag1150
ag1157
ag1164
asg21
I0
sg45
S'1325'
p1169
sba(iArchitecture
Cluster
p1170
(dp1171
g7
(lp1172
(iArchitecture
Entity
p1173
(dp1174
g11
(lp1175
sg13
S'android.service.voice.VoiceInteractionManagerInternal'
p1176
sg15
(lp1177
sg17
(lp1178
sg19
(lp1179
sg21
I0
sba(iArchitecture
Entity
p1180
(dp1181
g11
(lp1182
sg13
S'com.android.internal.os.SensorPowerCalculator'
p1183
sg15
(lp1184
sg17
(lp1185
sg19
(lp1186
sg21
I0
sbasg43
(lp1187
g1176
ag1183
asg21
I0
sg45
S'1326'
p1188
sba(iArchitecture
Cluster
p1189
(dp1190
g7
(lp1191
(iArchitecture
Entity
p1192
(dp1193
g11
(lp1194
sg13
S'android.security.keystore.AndroidKeyStoreAuthenticatedAESCipherSpi'
p1195
sg15
(lp1196
sg17
(lp1197
sg19
(lp1198
sg21
I0
sba(iArchitecture
Entity
p1199
(dp1200
g11
(lp1201
sg13
S'android.security.keystore.AndroidKeyStoreAuthenticatedAESCipherSpi$AdditionalAuthenticationDataStream'
p1202
sg15
(lp1203
sg17
(lp1204
sg19
(lp1205
sg21
I0
sba(iArchitecture
Entity
p1206
(dp1207
g11
(lp1208
sg13
S'android.security.keystore.AndroidKeyStoreAuthenticatedAESCipherSpi$BufferAllOutputUntilDoFinalStreamer'
p1209
sg15
(lp1210
sg17
(lp1211
sg19
(lp1212
sg21
I0
sba(iArchitecture
Entity
p1213
(dp1214
g11
(lp1215
sg13
S'android.security.keystore.AndroidKeyStoreAuthenticatedAESCipherSpi$GCM'
p1216
sg15
(lp1217
sg17
(lp1218
sg19
(lp1219
sg21
I0
sba(iArchitecture
Entity
p1220
(dp1221
g11
(lp1222
sg13
S'android.security.keystore.AndroidKeyStoreAuthenticatedAESCipherSpi$GCM$NoPadding'
p1223
sg15
(lp1224
sg17
(lp1225
sg19
(lp1226
sg21
I0
sba(iArchitecture
Entity
p1227
(dp1228
g11
(lp1229
sg13
S'android.security.keystore.AndroidKeyStoreCipherSpiBase'
p1230
sg15
(lp1231
sg17
(lp1232
sg19
(lp1233
sg21
I0
sba(iArchitecture
Entity
p1234
(dp1235
g11
(lp1236
sg13
S'android.security.keystore.AndroidKeyStoreECDSASignatureSpi'
p1237
sg15
(lp1238
sg17
(lp1239
sg19
(lp1240
sg21
I0
sba(iArchitecture
Entity
p1241
(dp1242
g11
(lp1243
sg13
S'android.security.keystore.AndroidKeyStoreECDSASignatureSpi$NONE'
p1244
sg15
(lp1245
sg17
(lp1246
sg19
(lp1247
sg21
I0
sba(iArchitecture
Entity
p1248
(dp1249
g11
(lp1250
sg13
S'android.security.keystore.AndroidKeyStoreECDSASignatureSpi$NONE$TruncateToFieldSizeMessageStreamer'
p1251
sg15
(lp1252
sg17
(lp1253
sg19
(lp1254
sg21
I0
sba(iArchitecture
Entity
p1255
(dp1256
g11
(lp1257
sg13
S'android.security.keystore.AndroidKeyStoreECDSASignatureSpi$SHA1'
p1258
sg15
(lp1259
sg17
(lp1260
sg19
(lp1261
sg21
I0
sba(iArchitecture
Entity
p1262
(dp1263
g11
(lp1264
sg13
S'android.security.keystore.AndroidKeyStoreECDSASignatureSpi$SHA224'
p1265
sg15
(lp1266
sg17
(lp1267
sg19
(lp1268
sg21
I0
sba(iArchitecture
Entity
p1269
(dp1270
g11
(lp1271
sg13
S'android.security.keystore.AndroidKeyStoreECDSASignatureSpi$SHA256'
p1272
sg15
(lp1273
sg17
(lp1274
sg19
(lp1275
sg21
I0
sba(iArchitecture
Entity
p1276
(dp1277
g11
(lp1278
sg13
S'android.security.keystore.AndroidKeyStoreECDSASignatureSpi$SHA384'
p1279
sg15
(lp1280
sg17
(lp1281
sg19
(lp1282
sg21
I0
sba(iArchitecture
Entity
p1283
(dp1284
g11
(lp1285
sg13
S'android.security.keystore.AndroidKeyStoreECDSASignatureSpi$SHA512'
p1286
sg15
(lp1287
sg17
(lp1288
sg19
(lp1289
sg21
I0
sba(iArchitecture
Entity
p1290
(dp1291
g11
(lp1292
sg13
S'android.security.keystore.AndroidKeyStoreHmacSpi'
p1293
sg15
(lp1294
sg17
(lp1295
sg19
(lp1296
sg21
I0
sba(iArchitecture
Entity
p1297
(dp1298
g11
(lp1299
sg13
S'android.security.keystore.AndroidKeyStoreHmacSpi$HmacSHA1'
p1300
sg15
(lp1301
sg17
(lp1302
sg19
(lp1303
sg21
I0
sba(iArchitecture
Entity
p1304
(dp1305
g11
(lp1306
sg13
S'android.security.keystore.AndroidKeyStoreHmacSpi$HmacSHA224'
p1307
sg15
(lp1308
sg17
(lp1309
sg19
(lp1310
sg21
I0
sba(iArchitecture
Entity
p1311
(dp1312
g11
(lp1313
sg13
S'android.security.keystore.AndroidKeyStoreHmacSpi$HmacSHA256'
p1314
sg15
(lp1315
sg17
(lp1316
sg19
(lp1317
sg21
I0
sba(iArchitecture
Entity
p1318
(dp1319
g11
(lp1320
sg13
S'android.security.keystore.AndroidKeyStoreHmacSpi$HmacSHA384'
p1321
sg15
(lp1322
sg17
(lp1323
sg19
(lp1324
sg21
I0
sba(iArchitecture
Entity
p1325
(dp1326
g11
(lp1327
sg13
S'android.security.keystore.AndroidKeyStoreHmacSpi$HmacSHA512'
p1328
sg15
(lp1329
sg17
(lp1330
sg19
(lp1331
sg21
I0
sba(iArchitecture
Entity
p1332
(dp1333
g11
(lp1334
sg13
S'android.security.keystore.AndroidKeyStoreKeyGeneratorSpi'
p1335
sg15
(lp1336
sg17
(lp1337
sg19
(lp1338
sg21
I0
sba(iArchitecture
Entity
p1339
(dp1340
g11
(lp1341
sg13
S'android.security.keystore.AndroidKeyStoreKeyGeneratorSpi$AES'
p1342
sg15
(lp1343
sg17
(lp1344
sg19
(lp1345
sg21
I0
sba(iArchitecture
Entity
p1346
(dp1347
g11
(lp1348
sg13
S'android.security.keystore.AndroidKeyStoreKeyGeneratorSpi$HmacBase'
p1349
sg15
(lp1350
sg17
(lp1351
sg19
(lp1352
sg21
I0
sba(iArchitecture
Entity
p1353
(dp1354
g11
(lp1355
sg13
S'android.security.keystore.AndroidKeyStoreKeyGeneratorSpi$HmacSHA1'
p1356
sg15
(lp1357
sg17
(lp1358
sg19
(lp1359
sg21
I0
sba(iArchitecture
Entity
p1360
(dp1361
g11
(lp1362
sg13
S'android.security.keystore.AndroidKeyStoreKeyGeneratorSpi$HmacSHA224'
p1363
sg15
(lp1364
sg17
(lp1365
sg19
(lp1366
sg21
I0
sba(iArchitecture
Entity
p1367
(dp1368
g11
(lp1369
sg13
S'android.security.keystore.AndroidKeyStoreKeyGeneratorSpi$HmacSHA256'
p1370
sg15
(lp1371
sg17
(lp1372
sg19
(lp1373
sg21
I0
sba(iArchitecture
Entity
p1374
(dp1375
g11
(lp1376
sg13
S'android.security.keystore.AndroidKeyStoreKeyGeneratorSpi$HmacSHA384'
p1377
sg15
(lp1378
sg17
(lp1379
sg19
(lp1380
sg21
I0
sba(iArchitecture
Entity
p1381
(dp1382
g11
(lp1383
sg13
S'android.security.keystore.AndroidKeyStoreKeyGeneratorSpi$HmacSHA512'
p1384
sg15
(lp1385
sg17
(lp1386
sg19
(lp1387
sg21
I0
sba(iArchitecture
Entity
p1388
(dp1389
g11
(lp1390
sg13
S'android.security.keystore.AndroidKeyStoreKeyPairGeneratorSpi'
p1391
sg15
(lp1392
sg17
(lp1393
sg19
(lp1394
sg21
I0
sba(iArchitecture
Entity
p1395
(dp1396
g11
(lp1397
sg13
S'android.security.keystore.AndroidKeyStoreKeyPairGeneratorSpi$EC'
p1398
sg15
(lp1399
sg17
(lp1400
sg19
(lp1401
sg21
I0
sba(iArchitecture
Entity
p1402
(dp1403
g11
(lp1404
sg13
S'android.security.keystore.AndroidKeyStoreKeyPairGeneratorSpi$RSA'
p1405
sg15
(lp1406
sg17
(lp1407
sg19
(lp1408
sg21
I0
sba(iArchitecture
Entity
p1409
(dp1410
g11
(lp1411
sg13
S'android.security.keystore.AndroidKeyStoreRSACipherSpi'
p1412
sg15
(lp1413
sg17
(lp1414
sg19
(lp1415
sg21
I0
sba(iArchitecture
Entity
p1416
(dp1417
g11
(lp1418
sg13
S'android.security.keystore.AndroidKeyStoreRSACipherSpi$NoPadding'
p1419
sg15
(lp1420
sg17
(lp1421
sg19
(lp1422
sg21
I0
sba(iArchitecture
Entity
p1423
(dp1424
g11
(lp1425
sg13
S'android.security.keystore.AndroidKeyStoreRSACipherSpi$OAEPWithMGF1Padding'
p1426
sg15
(lp1427
sg17
(lp1428
sg19
(lp1429
sg21
I0
sba(iArchitecture
Entity
p1430
(dp1431
g11
(lp1432
sg13
S'android.security.keystore.AndroidKeyStoreRSACipherSpi$OAEPWithSHA1AndMGF1Padding'
p1433
sg15
(lp1434
sg17
(lp1435
sg19
(lp1436
sg21
I0
sba(iArchitecture
Entity
p1437
(dp1438
g11
(lp1439
sg13
S'android.security.keystore.AndroidKeyStoreRSACipherSpi$OAEPWithSHA224AndMGF1Padding'
p1440
sg15
(lp1441
sg17
(lp1442
sg19
(lp1443
sg21
I0
sba(iArchitecture
Entity
p1444
(dp1445
g11
(lp1446
sg13
S'android.security.keystore.AndroidKeyStoreRSACipherSpi$OAEPWithSHA256AndMGF1Padding'
p1447
sg15
(lp1448
sg17
(lp1449
sg19
(lp1450
sg21
I0
sba(iArchitecture
Entity
p1451
(dp1452
g11
(lp1453
sg13
S'android.security.keystore.AndroidKeyStoreRSACipherSpi$OAEPWithSHA384AndMGF1Padding'
p1454
sg15
(lp1455
sg17
(lp1456
sg19
(lp1457
sg21
I0
sba(iArchitecture
Entity
p1458
(dp1459
g11
(lp1460
sg13
S'android.security.keystore.AndroidKeyStoreRSACipherSpi$OAEPWithSHA512AndMGF1Padding'
p1461
sg15
(lp1462
sg17
(lp1463
sg19
(lp1464
sg21
I0
sba(iArchitecture
Entity
p1465
(dp1466
g11
(lp1467
sg13
S'android.security.keystore.AndroidKeyStoreRSACipherSpi$PKCS1Padding'
p1468
sg15
(lp1469
sg17
(lp1470
sg19
(lp1471
sg21
I0
sba(iArchitecture
Entity
p1472
(dp1473
g11
(lp1474
sg13
S'android.security.keystore.AndroidKeyStoreSignatureSpiBase'
p1475
sg15
(lp1476
sg17
(lp1477
sg19
(lp1478
sg21
I0
sba(iArchitecture
Entity
p1479
(dp1480
g11
(lp1481
sg13
S'android.security.keystore.AndroidKeyStoreUnauthenticatedAESCipherSpi'
p1482
sg15
(lp1483
sg17
(lp1484
sg19
(lp1485
sg21
I0
sba(iArchitecture
Entity
p1486
(dp1487
g11
(lp1488
sg13
S'android.security.keystore.AndroidKeyStoreUnauthenticatedAESCipherSpi$CBC'
p1489
sg15
(lp1490
sg17
(lp1491
sg19
(lp1492
sg21
I0
sba(iArchitecture
Entity
p1493
(dp1494
g11
(lp1495
sg13
S'android.security.keystore.AndroidKeyStoreUnauthenticatedAESCipherSpi$CBC$NoPadding'
p1496
sg15
(lp1497
sg17
(lp1498
sg19
(lp1499
sg21
I0
sba(iArchitecture
Entity
p1500
(dp1501
g11
(lp1502
sg13
S'android.security.keystore.AndroidKeyStoreUnauthenticatedAESCipherSpi$CBC$PKCS7Padding'
p1503
sg15
(lp1504
sg17
(lp1505
sg19
(lp1506
sg21
I0
sba(iArchitecture
Entity
p1507
(dp1508
g11
(lp1509
sg13
S'android.security.keystore.AndroidKeyStoreUnauthenticatedAESCipherSpi$CTR'
p1510
sg15
(lp1511
sg17
(lp1512
sg19
(lp1513
sg21
I0
sba(iArchitecture
Entity
p1514
(dp1515
g11
(lp1516
sg13
S'android.security.keystore.AndroidKeyStoreUnauthenticatedAESCipherSpi$CTR$NoPadding'
p1517
sg15
(lp1518
sg17
(lp1519
sg19
(lp1520
sg21
I0
sba(iArchitecture
Entity
p1521
(dp1522
g11
(lp1523
sg13
S'android.security.keystore.AndroidKeyStoreUnauthenticatedAESCipherSpi$ECB'
p1524
sg15
(lp1525
sg17
(lp1526
sg19
(lp1527
sg21
I0
sba(iArchitecture
Entity
p1528
(dp1529
g11
(lp1530
sg13
S'android.security.keystore.AndroidKeyStoreUnauthenticatedAESCipherSpi$ECB$NoPadding'
p1531
sg15
(lp1532
sg17
(lp1533
sg19
(lp1534
sg21
I0
sba(iArchitecture
Entity
p1535
(dp1536
g11
(lp1537
sg13
S'android.security.keystore.AndroidKeyStoreUnauthenticatedAESCipherSpi$ECB$PKCS7Padding'
p1538
sg15
(lp1539
sg17
(lp1540
sg19
(lp1541
sg21
I0
sba(iArchitecture
Entity
p1542
(dp1543
g11
(lp1544
sg13
S'android.security.keystore.KeymasterUtils'
p1545
sg15
(lp1546
sg17
(lp1547
sg19
(lp1548
sg21
I0
sbasg43
(lp1549
g1195
ag1202
ag1209
ag1216
ag1223
ag1230
ag1237
ag1244
ag1251
ag1258
ag1265
ag1272
ag1279
ag1286
ag1293
ag1300
ag1307
ag1314
ag1321
ag1328
ag1335
ag1342
ag1349
ag1356
ag1363
ag1370
ag1377
ag1384
ag1391
ag1398
ag1405
ag1412
ag1419
ag1426
ag1433
ag1440
ag1447
ag1454
ag1461
ag1468
ag1475
ag1482
ag1489
ag1496
ag1503
ag1510
ag1517
ag1524
ag1531
ag1538
ag1545
asg21
I0
sg45
S'1327'
p1550
sba(iArchitecture
Cluster
p1551
(dp1552
g7
(lp1553
(iArchitecture
Entity
p1554
(dp1555
g11
(lp1556
sg13
S'android.speech.tts.FileSynthesisCallback'
p1557
sg15
(lp1558
sg17
(lp1559
sg19
(lp1560
sg21
I0
sba(iArchitecture
Entity
p1561
(dp1562
g11
(lp1563
sg13
S'android.speech.tts.PlaybackSynthesisCallback'
p1564
sg15
(lp1565
sg17
(lp1566
sg19
(lp1567
sg21
I0
sbasg43
(lp1568
g1557
ag1564
asg21
I0
sg45
S'1328'
p1569
sba(iArchitecture
Cluster
p1570
(dp1571
g7
(lp1572
(iArchitecture
Entity
p1573
(dp1574
g11
(lp1575
sg13
S'android.hardware.camera2.marshal.MarshalHelpers'
p1576
sg15
(lp1577
sg17
(lp1578
sg19
(lp1579
sg21
I0
sba(iArchitecture
Entity
p1580
(dp1581
g11
(lp1582
sg13
S'android.hardware.camera2.marshal.MarshalRegistry'
p1583
sg15
(lp1584
sg17
(lp1585
sg19
(lp1586
sg21
I0
sba(iArchitecture
Entity
p1587
(dp1588
g11
(lp1589
sg13
S'android.hardware.camera2.marshal.MarshalRegistry$MarshalToken'
p1590
sg15
(lp1591
sg17
(lp1592
sg19
(lp1593
sg21
I0
sba(iArchitecture
Entity
p1594
(dp1595
g11
(lp1596
sg13
S'android.hardware.camera2.marshal.impl.MarshalQueryableMeteringRectangle'
p1597
sg15
(lp1598
sg17
(lp1599
sg19
(lp1600
sg21
I0
sba(iArchitecture
Entity
p1601
(dp1602
g11
(lp1603
sg13
S'android.hardware.camera2.marshal.impl.MarshalQueryableMeteringRectangle$MarshalerMeteringRectangle'
p1604
sg15
(lp1605
sg17
(lp1606
sg19
(lp1607
sg21
I0
sba(iArchitecture
Entity
p1608
(dp1609
g11
(lp1610
sg13
S'android.hardware.camera2.marshal.impl.MarshalQueryablePrimitive'
p1611
sg15
(lp1612
sg17
(lp1613
sg19
(lp1614
sg21
I0
sba(iArchitecture
Entity
p1615
(dp1616
g11
(lp1617
sg13
S'android.hardware.camera2.marshal.impl.MarshalQueryablePrimitive$MarshalerPrimitive'
p1618
sg15
(lp1619
sg17
(lp1620
sg19
(lp1621
sg21
I0
sba(iArchitecture
Entity
p1622
(dp1623
g11
(lp1624
sg13
S'com.android.internal.os.SomeArgs'
p1625
sg15
(lp1626
sg17
(lp1627
sg19
(lp1628
sg21
I0
sbasg43
(lp1629
g1576
ag1583
ag1590
ag1597
ag1604
ag1611
ag1618
ag1625
asg21
I0
sg45
S'1329'
p1630
sba(iArchitecture
Cluster
p1631
(dp1632
g7
(lp1633
(iArchitecture
Entity
p1634
(dp1635
g11
(lp1636
sg13
S'android.hardware.camera2.params.StreamConfiguration'
p1637
sg15
(lp1638
sg17
(lp1639
sg19
(lp1640
sg21
I0
sba(iArchitecture
Entity
p1641
(dp1642
g11
(lp1643
sg13
S'android.hardware.camera2.params.StreamConfigurationDuration'
p1644
sg15
(lp1645
sg17
(lp1646
sg19
(lp1647
sg21
I0
sba(iArchitecture
Entity
p1648
(dp1649
g11
(lp1650
sg13
S'android.media.tv.TvStreamConfig'
p1651
sg15
(lp1652
sg17
(lp1653
sg19
(lp1654
sg21
I0
sba(iArchitecture
Entity
p1655
(dp1656
g11
(lp1657
sg13
S'android.media.tv.TvStreamConfig$1'
p1658
sg15
(lp1659
sg17
(lp1660
sg19
(lp1661
sg21
I0
sba(iArchitecture
Entity
p1662
(dp1663
g11
(lp1664
sg13
S'android.media.tv.TvStreamConfig$Builder'
p1665
sg15
(lp1666
sg17
(lp1667
sg19
(lp1668
sg21
I0
sbasg43
(lp1669
g1637
ag1644
ag1651
ag1658
ag1665
asg21
I0
sg45
S'1332'
p1670
sba(iArchitecture
Cluster
p1671
(dp1672
g7
(lp1673
(iArchitecture
Entity
p1674
(dp1675
g11
(lp1676
sg13
S'android.view.inputmethod.InputMethodSubtypeArray'
p1677
sg15
(lp1678
sg17
(lp1679
sg19
(lp1680
sg21
I0
sbasg43
(lp1681
g1677
asg21
I0
sg45
S'232'
p1682
sba(iArchitecture
Cluster
p1683
(dp1684
g7
(lp1685
(iArchitecture
Entity
p1686
(dp1687
g11
(lp1688
sg13
S'android.gesture.GestureUtils'
p1689
sg15
(lp1690
sg17
(lp1691
sg19
(lp1692
sg21
I0
sbasg43
(lp1693
g1689
asg21
I0
sg45
S'32'
p1694
sba(iArchitecture
Cluster
p1695
(dp1696
g7
(lp1697
(iArchitecture
Entity
p1698
(dp1699
g11
(lp1700
sg13
S'com.android.server.SensorNotificationService'
p1701
sg15
(lp1702
sg17
(lp1703
sg19
(lp1704
sg21
I0
sbasg43
(lp1705
g1701
asg21
I0
sg45
S'320'
p1706
sba(iArchitecture
Cluster
p1707
(dp1708
g7
(lp1709
(iArchitecture
Entity
p1710
(dp1711
g11
(lp1712
sg13
S'com.android.internal.app.procstats.PssTable'
p1713
sg15
(lp1714
sg17
(lp1715
sg19
(lp1716
sg21
I0
sbasg43
(lp1717
g1713
asg21
I0
sg45
S'321'
p1718
sba(iArchitecture
Cluster
p1719
(dp1720
g7
(lp1721
(iArchitecture
Entity
p1722
(dp1723
g11
(lp1724
sg13
S'android.security.keymaster.KeymasterDefs'
p1725
sg15
(lp1726
sg17
(lp1727
sg19
(lp1728
sg21
I0
sbasg43
(lp1729
g1725
asg21
I0
sg45
S'322'
p1730
sba(iArchitecture
Cluster
p1731
(dp1732
g7
(lp1733
(iArchitecture
Entity
p1734
(dp1735
g11
(lp1736
sg13
S'android.telephony.Rlog'
p1737
sg15
(lp1738
sg17
(lp1739
sg19
(lp1740
sg21
I0
sbasg43
(lp1741
g1737
asg21
I0
sg45
S'323'
p1742
sba(iArchitecture
Cluster
p1743
(dp1744
g7
(lp1745
(iArchitecture
Entity
p1746
(dp1747
g11
(lp1748
sg13
S'android.media.ToneGenerator'
p1749
sg15
(lp1750
sg17
(lp1751
sg19
(lp1752
sg21
I0
sbasg43
(lp1753
g1749
asg21
I0
sg45
S'324'
p1754
sba(iArchitecture
Cluster
p1755
(dp1756
g7
(lp1757
(iArchitecture
Entity
p1758
(dp1759
g11
(lp1760
sg13
S'android.provider.SearchIndexablesProvider'
p1761
sg15
(lp1762
sg17
(lp1763
sg19
(lp1764
sg21
I0
sbasg43
(lp1765
g1761
asg21
I0
sg45
S'325'
p1766
sba(iArchitecture
Cluster
p1767
(dp1768
g7
(lp1769
(iArchitecture
Entity
p1770
(dp1771
g11
(lp1772
sg13
S'com.android.server.am.AppTimeTracker'
p1773
sg15
(lp1774
sg17
(lp1775
sg19
(lp1776
sg21
I0
sbasg43
(lp1777
g1773
asg21
I0
sg45
S'326'
p1778
sba(iArchitecture
Cluster
p1779
(dp1780
g7
(lp1781
(iArchitecture
Entity
p1782
(dp1783
g11
(lp1784
sg13
S'android.graphics.ComposeShader'
p1785
sg15
(lp1786
sg17
(lp1787
sg19
(lp1788
sg21
I0
sbasg43
(lp1789
g1785
asg21
I0
sg45
S'327'
p1790
sba(iArchitecture
Cluster
p1791
(dp1792
g7
(lp1793
(iArchitecture
Entity
p1794
(dp1795
g11
(lp1796
sg13
S'android.bluetooth.le.TruncatedFilter'
p1797
sg15
(lp1798
sg17
(lp1799
sg19
(lp1800
sg21
I0
sbasg43
(lp1801
g1797
asg21
I0
sg45
S'328'
p1802
sba(iArchitecture
Cluster
p1803
(dp1804
g7
(lp1805
(iArchitecture
Entity
p1806
(dp1807
g11
(lp1808
sg13
S'com.android.server.location.GeofenceState'
p1809
sg15
(lp1810
sg17
(lp1811
sg19
(lp1812
sg21
I0
sbasg43
(lp1813
g1809
asg21
I0
sg45
S'329'
p1814
sba(iArchitecture
Cluster
p1815
(dp1816
g7
(lp1817
(iArchitecture
Entity
p1818
(dp1819
g11
(lp1820
sg13
S'android.webkit.CookieManager'
p1821
sg15
(lp1822
sg17
(lp1823
sg19
(lp1824
sg21
I0
sbasg43
(lp1825
g1821
asg21
I0
sg45
S'332'
p1826
sba(iArchitecture
Cluster
p1827
(dp1828
g7
(lp1829
(iArchitecture
Entity
p1830
(dp1831
g11
(lp1832
sg13
S'android.net.PskKeyManager'
p1833
sg15
(lp1834
sg17
(lp1835
sg19
(lp1836
sg21
I0
sbasg43
(lp1837
g1833
asg21
I0
sg45
S'432'
p1838
sba(iArchitecture
Cluster
p1839
(dp1840
g7
(lp1841
(iArchitecture
Entity
p1842
(dp1843
g11
(lp1844
sg13
S'com.android.server.net.LockdownVpnTracker'
p1845
sg15
(lp1846
sg17
(lp1847
sg19
(lp1848
sg21
I0
sba(iArchitecture
Entity
p1849
(dp1850
g11
(lp1851
sg13
S'com.android.server.net.LockdownVpnTracker$1'
p1852
sg15
(lp1853
sg17
(lp1854
sg19
(lp1855
sg21
I0
sbasg43
(lp1856
g1845
ag1852
asg21
I0
sg45
S'532'
p1857
sba(iArchitecture
Cluster
p1858
(dp1859
g7
(lp1860
(iArchitecture
Entity
p1861
(dp1862
g11
(lp1863
sg13
S'com.android.server.connectivity.KeepalivePacketData'
p1864
sg15
(lp1865
sg17
(lp1866
sg19
(lp1867
sg21
I0
sba(iArchitecture
Entity
p1868
(dp1869
g11
(lp1870
sg13
S'com.android.server.connectivity.KeepalivePacketData$InvalidPacketException'
p1871
sg15
(lp1872
sg17
(lp1873
sg19
(lp1874
sg21
I0
sbasg43
(lp1875
g1864
ag1871
asg21
I0
sg45
S'632'
p1876
sba(iArchitecture
Cluster
p1877
(dp1878
g7
(lp1879
(iArchitecture
Entity
p1880
(dp1881
g11
(lp1882
sg13
S'android.hardware.camera2.marshal.impl.MarshalQueryableColorSpaceTransform'
p1883
sg15
(lp1884
sg17
(lp1885
sg19
(lp1886
sg21
I0
sba(iArchitecture
Entity
p1887
(dp1888
g11
(lp1889
sg13
S'android.hardware.camera2.marshal.impl.MarshalQueryableColorSpaceTransform$MarshalerColorSpaceTransform'
p1890
sg15
(lp1891
sg17
(lp1892
sg19
(lp1893
sg21
I0
sbasg43
(lp1894
g1883
ag1890
asg21
I0
sg45
S'732'
p1895
sba(iArchitecture
Cluster
p1896
(dp1897
g7
(lp1898
(iArchitecture
Entity
p1899
(dp1900
g11
(lp1901
sg13
S'android.preference.SwitchPreference'
p1902
sg15
(lp1903
sg17
(lp1904
sg19
(lp1905
sg21
I0
sba(iArchitecture
Entity
p1906
(dp1907
g11
(lp1908
sg13
S'android.preference.SwitchPreference$Listener'
p1909
sg15
(lp1910
sg17
(lp1911
sg19
(lp1912
sg21
I0
sbasg43
(lp1913
g1902
ag1909
asg21
I0
sg45
S'832'
p1914
sba(iArchitecture
Cluster
p1915
(dp1916
g7
(lp1917
(iArchitecture
Entity
p1918
(dp1919
g11
(lp1920
sg13
S'com.android.server.location.GeofenceProxy'
p1921
sg15
(lp1922
sg17
(lp1923
sg19
(lp1924
sg21
I0
sba(iArchitecture
Entity
p1925
(dp1926
g11
(lp1927
sg13
S'com.android.server.location.GeofenceProxy$1'
p1928
sg15
(lp1929
sg17
(lp1930
sg19
(lp1931
sg21
I0
sba(iArchitecture
Entity
p1932
(dp1933
g11
(lp1934
sg13
S'com.android.server.location.GeofenceProxy$2'
p1935
sg15
(lp1936
sg17
(lp1937
sg19
(lp1938
sg21
I0
sba(iArchitecture
Entity
p1939
(dp1940
g11
(lp1941
sg13
S'com.android.server.location.GeofenceProxy$3'
p1942
sg15
(lp1943
sg17
(lp1944
sg19
(lp1945
sg21
I0
sbasg43
(lp1946
g1921
ag1928
ag1935
ag1942
asg21
I0
sg45
S'932'
p1947
sbasS'target_sub'
p1948
S'32'
p1949
sg43
(lp1950
sS'is_component_arch'
p1951
I01
sg45
S'7.0.0_r1'
p1952
sba.