(lp0
(iArchitecture
Architecture
p1
(dp2
S'clusters'
p3
(lp4
(iArchitecture
Cluster
p5
(dp6
S'entities'
p7
(lp8
(iArchitecture
Entity
p9
(dp10
S'issue_ids'
p11
(lp12
sS'name'
p13
S'android.media.session.PlaybackState'
p14
sS'descs'
p15
(lp16
sS'labels'
p17
(lp18
sS'titles'
p19
(lp20
sS'change'
p21
I0
sba(iArchitecture
Entity
p22
(dp23
g11
(lp24
sg13
S'android.media.session.PlaybackState$1'
p25
sg15
(lp26
sg17
(lp27
sg19
(lp28
sg21
I0
sba(iArchitecture
Entity
p29
(dp30
g11
(lp31
sg13
S'android.media.session.PlaybackState$Builder'
p32
sg15
(lp33
sg17
(lp34
sg19
(lp35
sg21
I0
sba(iArchitecture
Entity
p36
(dp37
g11
(lp38
sg13
S'android.media.session.PlaybackState$CustomAction'
p39
sg15
(lp40
sg17
(lp41
sg19
(lp42
sg21
I0
sba(iArchitecture
Entity
p43
(dp44
g11
(lp45
sg13
S'android.media.session.PlaybackState$CustomAction$1'
p46
sg15
(lp47
sg17
(lp48
sg19
(lp49
sg21
I0
sba(iArchitecture
Entity
p50
(dp51
g11
(lp52
sg13
S'android.media.session.PlaybackState$CustomAction$Builder'
p53
sg15
(lp54
sg17
(lp55
sg19
(lp56
sg21
I0
sbasS'classes'
p57
(lp58
g14
ag25
ag32
ag39
ag46
ag53
asg21
I0
sS'label'
p59
S'1099'
p60
sba(iArchitecture
Cluster
p61
(dp62
g7
(lp63
(iArchitecture
Entity
p64
(dp65
g11
(lp66
sg13
S'com.android.server.connectivity.NetworkMonitor'
p67
sg15
(lp68
sg17
(lp69
sg19
(lp70
sg21
I0
sba(iArchitecture
Entity
p71
(dp72
g11
(lp73
sg13
S'com.android.server.connectivity.NetworkMonitor$1ProbeThread'
p74
sg15
(lp75
sg17
(lp76
sg19
(lp77
sg21
I0
sba(iArchitecture
Entity
p78
(dp79
g11
(lp80
sg13
S'com.android.server.connectivity.NetworkMonitor$CaptivePortalProbeResult'
p81
sg15
(lp82
sg17
(lp83
sg19
(lp84
sg21
I0
sba(iArchitecture
Entity
p85
(dp86
g11
(lp87
sg13
S'com.android.server.connectivity.NetworkMonitor$CaptivePortalState'
p88
sg15
(lp89
sg17
(lp90
sg19
(lp91
sg21
I0
sba(iArchitecture
Entity
p92
(dp93
g11
(lp94
sg13
S'com.android.server.connectivity.NetworkMonitor$CustomIntentReceiver'
p95
sg15
(lp96
sg17
(lp97
sg19
(lp98
sg21
I0
sba(iArchitecture
Entity
p99
(dp100
g11
(lp101
sg13
S'com.android.server.connectivity.NetworkMonitor$DefaultState'
p102
sg15
(lp103
sg17
(lp104
sg19
(lp105
sg21
I0
sba(iArchitecture
Entity
p106
(dp107
g11
(lp108
sg13
S'com.android.server.connectivity.NetworkMonitor$EvaluatingState'
p109
sg15
(lp110
sg17
(lp111
sg19
(lp112
sg21
I0
sba(iArchitecture
Entity
p113
(dp114
g11
(lp115
sg13
S'com.android.server.connectivity.NetworkMonitor$LingeringState'
p116
sg15
(lp117
sg17
(lp118
sg19
(lp119
sg21
I0
sba(iArchitecture
Entity
p120
(dp121
g11
(lp122
sg13
S'com.android.server.connectivity.NetworkMonitor$MaybeNotifyState'
p123
sg15
(lp124
sg17
(lp125
sg19
(lp126
sg21
I0
sba(iArchitecture
Entity
p127
(dp128
g11
(lp129
sg13
S'com.android.server.connectivity.NetworkMonitor$MaybeNotifyState$1'
p130
sg15
(lp131
sg17
(lp132
sg19
(lp133
sg21
I0
sba(iArchitecture
Entity
p134
(dp135
g11
(lp136
sg13
S'com.android.server.connectivity.NetworkMonitor$ValidatedState'
p137
sg15
(lp138
sg17
(lp139
sg19
(lp140
sg21
I0
sbasg57
(lp141
g67
ag74
ag81
ag88
ag95
ag102
ag109
ag116
ag123
ag130
ag137
asg21
I0
sg59
S'1199'
p142
sba(iArchitecture
Cluster
p143
(dp144
g7
(lp145
(iArchitecture
Entity
p146
(dp147
g11
(lp148
sg13
S'android.mtp.MtpServer'
p149
sg15
(lp150
sg17
(lp151
sg19
(lp152
sg21
I0
sba(iArchitecture
Entity
p153
(dp154
g11
(lp155
sg13
S'android.mtp.MtpStorage'
p156
sg15
(lp157
sg17
(lp158
sg19
(lp159
sg21
I0
sba(iArchitecture
Entity
p160
(dp161
g11
(lp162
sg13
S'android.mtp.MtpStorageInfo'
p163
sg15
(lp164
sg17
(lp165
sg19
(lp166
sg21
I0
sbasg57
(lp167
g149
ag156
ag163
asg21
I0
sg59
S'1299'
p168
sba(iArchitecture
Cluster
p169
(dp170
g7
(lp171
(iArchitecture
Entity
p172
(dp173
g11
(lp174
sg13
S'android.content.pm.permission.RuntimePermissionPresentationInfo'
p175
sg15
(lp176
sg17
(lp177
sg19
(lp178
sg21
I0
sba(iArchitecture
Entity
p179
(dp180
g11
(lp181
sg13
S'android.content.pm.permission.RuntimePermissionPresentationInfo$1'
p182
sg15
(lp183
sg17
(lp184
sg19
(lp185
sg21
I0
sba(iArchitecture
Entity
p186
(dp187
g11
(lp188
sg13
S'android.hardware.location.ContextHubMessage'
p189
sg15
(lp190
sg17
(lp191
sg19
(lp192
sg21
I0
sba(iArchitecture
Entity
p193
(dp194
g11
(lp195
sg13
S'android.hardware.location.ContextHubMessage$1'
p196
sg15
(lp197
sg17
(lp198
sg19
(lp199
sg21
I0
sba(iArchitecture
Entity
p200
(dp201
g11
(lp202
sg13
S'android.location.GeocoderParams'
p203
sg15
(lp204
sg17
(lp205
sg19
(lp206
sg21
I0
sba(iArchitecture
Entity
p207
(dp208
g11
(lp209
sg13
S'android.location.GeocoderParams$1'
p210
sg15
(lp211
sg17
(lp212
sg19
(lp213
sg21
I0
sba(iArchitecture
Entity
p214
(dp215
g11
(lp216
sg13
S'com.android.ims.ImsSuppServiceNotification'
p217
sg15
(lp218
sg17
(lp219
sg19
(lp220
sg21
I0
sba(iArchitecture
Entity
p221
(dp222
g11
(lp223
sg13
S'com.android.ims.ImsSuppServiceNotification$1'
p224
sg15
(lp225
sg17
(lp226
sg19
(lp227
sg21
I0
sbasg57
(lp228
g175
ag182
ag189
ag196
ag203
ag210
ag217
ag224
asg21
I0
sg59
S'1399'
p229
sba(iArchitecture
Cluster
p230
(dp231
g7
(lp232
(iArchitecture
Entity
p233
(dp234
g11
(lp235
sg13
S'android.app.admin.DeviceAdminReceiver'
p236
sg15
(lp237
sg17
(lp238
sg19
(lp239
sg21
I0
sbasg57
(lp240
g236
asg21
I0
sg59
S'199'
p241
sba(iArchitecture
Cluster
p242
(dp243
g7
(lp244
(iArchitecture
Entity
p245
(dp246
g11
(lp247
sg13
S'android.graphics.drawable.shapes.RoundRectShape'
p248
sg15
(lp249
sg17
(lp250
sg19
(lp251
sg21
I0
sbasg57
(lp252
g248
asg21
I0
sg59
S'299'
p253
sba(iArchitecture
Cluster
p254
(dp255
g7
(lp256
(iArchitecture
Entity
p257
(dp258
g11
(lp259
sg13
S'android.content.SyncActivityTooManyDeletes'
p260
sg15
(lp261
sg17
(lp262
sg19
(lp263
sg21
I0
sbasg57
(lp264
g260
asg21
I0
sg59
S'399'
p265
sba(iArchitecture
Cluster
p266
(dp267
g7
(lp268
(iArchitecture
Entity
p269
(dp270
g11
(lp271
sg13
S'com.android.internal.app.LocaleStore'
p272
sg15
(lp273
sg17
(lp274
sg19
(lp275
sg21
I0
sba(iArchitecture
Entity
p276
(dp277
g11
(lp278
sg13
S'com.android.internal.app.LocaleStore$LocaleInfo'
p279
sg15
(lp280
sg17
(lp281
sg19
(lp282
sg21
I0
sbasg57
(lp283
g272
ag279
asg21
I0
sg59
S'499'
p284
sba(iArchitecture
Cluster
p285
(dp286
g7
(lp287
(iArchitecture
Entity
p288
(dp289
g11
(lp290
sg13
S'android.media.AudioRoutesInfo'
p291
sg15
(lp292
sg17
(lp293
sg19
(lp294
sg21
I0
sba(iArchitecture
Entity
p295
(dp296
g11
(lp297
sg13
S'android.media.AudioRoutesInfo$1'
p298
sg15
(lp299
sg17
(lp300
sg19
(lp301
sg21
I0
sbasg57
(lp302
g291
ag298
asg21
I0
sg59
S'599'
p303
sba(iArchitecture
Cluster
p304
(dp305
g7
(lp306
(iArchitecture
Entity
p307
(dp308
g11
(lp309
sg13
S'android.view.inputmethod.InputMethodInfo'
p310
sg15
(lp311
sg17
(lp312
sg19
(lp313
sg21
I0
sba(iArchitecture
Entity
p314
(dp315
g11
(lp316
sg13
S'android.view.inputmethod.InputMethodInfo$1'
p317
sg15
(lp318
sg17
(lp319
sg19
(lp320
sg21
I0
sbasg57
(lp321
g310
ag317
asg21
I0
sg59
S'699'
p322
sba(iArchitecture
Cluster
p323
(dp324
g7
(lp325
(iArchitecture
Entity
p326
(dp327
g11
(lp328
sg13
S'android.hardware.camera2.legacy.RequestHolder'
p329
sg15
(lp330
sg17
(lp331
sg19
(lp332
sg21
I0
sba(iArchitecture
Entity
p333
(dp334
g11
(lp335
sg13
S'android.hardware.camera2.legacy.RequestHolder$Builder'
p336
sg15
(lp337
sg17
(lp338
sg19
(lp339
sg21
I0
sbasg57
(lp340
g329
ag336
asg21
I0
sg59
S'799'
p341
sba(iArchitecture
Cluster
p342
(dp343
g7
(lp344
(iArchitecture
Entity
p345
(dp346
g11
(lp347
sg13
S'android.content.res.StringBlock'
p348
sg15
(lp349
sg17
(lp350
sg19
(lp351
sg21
I0
sba(iArchitecture
Entity
p352
(dp353
g11
(lp354
sg13
S'android.content.res.StringBlock$Height'
p355
sg15
(lp356
sg17
(lp357
sg19
(lp358
sg21
I0
sba(iArchitecture
Entity
p359
(dp360
g11
(lp361
sg13
S'android.content.res.StringBlock$StyleIDs'
p362
sg15
(lp363
sg17
(lp364
sg19
(lp365
sg21
I0
sbasg57
(lp366
g348
ag355
ag362
asg21
I0
sg59
S'899'
p367
sba(iArchitecture
Cluster
p368
(dp369
g7
(lp370
(iArchitecture
Entity
p371
(dp372
g11
(lp373
sg13
S'android.opengl.GLU'
p374
sg15
(lp375
sg17
(lp376
sg19
(lp377
sg21
I0
sbasg57
(lp378
g374
asg21
I0
sg59
S'99'
p379
sba(iArchitecture
Cluster
p380
(dp381
g7
(lp382
(iArchitecture
Entity
p383
(dp384
g11
(lp385
sg13
S'android.widget.DateTimeView'
p386
sg15
(lp387
sg17
(lp388
sg19
(lp389
sg21
I0
sba(iArchitecture
Entity
p390
(dp391
g11
(lp392
sg13
S'android.widget.DateTimeView$ReceiverInfo'
p393
sg15
(lp394
sg17
(lp395
sg19
(lp396
sg21
I0
sba(iArchitecture
Entity
p397
(dp398
g11
(lp399
sg13
S'android.widget.DateTimeView$ReceiverInfo$1'
p400
sg15
(lp401
sg17
(lp402
sg19
(lp403
sg21
I0
sba(iArchitecture
Entity
p404
(dp405
g11
(lp406
sg13
S'android.widget.DateTimeView$ReceiverInfo$2'
p407
sg15
(lp408
sg17
(lp409
sg19
(lp410
sg21
I0
sbasg57
(lp411
g386
ag393
ag400
ag407
asg21
I0
sg59
S'990'
p412
sba(iArchitecture
Cluster
p413
(dp414
g7
(lp415
(iArchitecture
Entity
p416
(dp417
g11
(lp418
sg13
S'android.hardware.display.DisplayManagerInternal'
p419
sg15
(lp420
sg17
(lp421
sg19
(lp422
sg21
I0
sba(iArchitecture
Entity
p423
(dp424
g11
(lp425
sg13
S'android.hardware.display.DisplayManagerInternal$DisplayPowerCallbacks'
p426
sg15
(lp427
sg17
(lp428
sg19
(lp429
sg21
I0
sba(iArchitecture
Entity
p430
(dp431
g11
(lp432
sg13
S'android.hardware.display.DisplayManagerInternal$DisplayPowerRequest'
p433
sg15
(lp434
sg17
(lp435
sg19
(lp436
sg21
I0
sba(iArchitecture
Entity
p437
(dp438
g11
(lp439
sg13
S'android.hardware.display.DisplayManagerInternal$DisplayTransactionListener'
p440
sg15
(lp441
sg17
(lp442
sg19
(lp443
sg21
I0
sbasg57
(lp444
g419
ag426
ag433
ag440
asg21
I0
sg59
S'991'
p445
sba(iArchitecture
Cluster
p446
(dp447
g7
(lp448
(iArchitecture
Entity
p449
(dp450
g11
(lp451
sg13
S'com.android.server.display.RampAnimator'
p452
sg15
(lp453
sg17
(lp454
sg19
(lp455
sg21
I0
sba(iArchitecture
Entity
p456
(dp457
g11
(lp458
sg13
S'com.android.server.display.RampAnimator$1'
p459
sg15
(lp460
sg17
(lp461
sg19
(lp462
sg21
I0
sba(iArchitecture
Entity
p463
(dp464
g11
(lp465
sg13
S'com.android.server.display.RampAnimator$Listener'
p466
sg15
(lp467
sg17
(lp468
sg19
(lp469
sg21
I0
sbasg57
(lp470
g452
ag459
ag466
asg21
I0
sg59
S'992'
p471
sba(iArchitecture
Cluster
p472
(dp473
g7
(lp474
(iArchitecture
Entity
p475
(dp476
g11
(lp477
sg13
S'android.media.session.MediaSessionLegacyHelper'
p478
sg15
(lp479
sg17
(lp480
sg19
(lp481
sg21
I0
sba(iArchitecture
Entity
p482
(dp483
g11
(lp484
sg13
S'android.media.session.MediaSessionLegacyHelper$MediaButtonListener'
p485
sg15
(lp486
sg17
(lp487
sg19
(lp488
sg21
I0
sba(iArchitecture
Entity
p489
(dp490
g11
(lp491
sg13
S'android.media.session.MediaSessionLegacyHelper$SessionHolder'
p492
sg15
(lp493
sg17
(lp494
sg19
(lp495
sg21
I0
sba(iArchitecture
Entity
p496
(dp497
g11
(lp498
sg13
S'android.media.session.MediaSessionLegacyHelper$SessionHolder$SessionCallback'
p499
sg15
(lp500
sg17
(lp501
sg19
(lp502
sg21
I0
sbasg57
(lp503
g478
ag485
ag492
ag499
asg21
I0
sg59
S'993'
p504
sba(iArchitecture
Cluster
p505
(dp506
g7
(lp507
(iArchitecture
Entity
p508
(dp509
g11
(lp510
sg13
S'android.security.keystore.KeyStoreCryptoOperationChunkedStreamer'
p511
sg15
(lp512
sg17
(lp513
sg19
(lp514
sg21
I0
sba(iArchitecture
Entity
p515
(dp516
g11
(lp517
sg13
S'android.security.keystore.KeyStoreCryptoOperationChunkedStreamer$MainDataStream'
p518
sg15
(lp519
sg17
(lp520
sg19
(lp521
sg21
I0
sba(iArchitecture
Entity
p522
(dp523
g11
(lp524
sg13
S'android.security.keystore.KeyStoreCryptoOperationChunkedStreamer$Stream'
p525
sg15
(lp526
sg17
(lp527
sg19
(lp528
sg21
I0
sbasg57
(lp529
g511
ag518
ag525
asg21
I0
sg59
S'994'
p530
sba(iArchitecture
Cluster
p531
(dp532
g7
(lp533
(iArchitecture
Entity
p534
(dp535
g11
(lp536
sg13
S'android.content.ClipboardManager'
p537
sg15
(lp538
sg17
(lp539
sg19
(lp540
sg21
I0
sba(iArchitecture
Entity
p541
(dp542
g11
(lp543
sg13
S'android.content.ClipboardManager$1'
p544
sg15
(lp545
sg17
(lp546
sg19
(lp547
sg21
I0
sba(iArchitecture
Entity
p548
(dp549
g11
(lp550
sg13
S'android.content.ClipboardManager$2'
p551
sg15
(lp552
sg17
(lp553
sg19
(lp554
sg21
I0
sba(iArchitecture
Entity
p555
(dp556
g11
(lp557
sg13
S'android.content.ClipboardManager$OnPrimaryClipChangedListener'
p558
sg15
(lp559
sg17
(lp560
sg19
(lp561
sg21
I0
sbasg57
(lp562
g537
ag544
ag551
ag558
asg21
I0
sg59
S'995'
p563
sba(iArchitecture
Cluster
p564
(dp565
g7
(lp566
(iArchitecture
Entity
p567
(dp568
g11
(lp569
sg13
S'android.hardware.camera2.legacy.LegacyFocusStateMapper'
p570
sg15
(lp571
sg17
(lp572
sg19
(lp573
sg21
I0
sba(iArchitecture
Entity
p574
(dp575
g11
(lp576
sg13
S'android.hardware.camera2.legacy.LegacyFocusStateMapper$1'
p577
sg15
(lp578
sg17
(lp579
sg19
(lp580
sg21
I0
sba(iArchitecture
Entity
p581
(dp582
g11
(lp583
sg13
S'android.hardware.camera2.legacy.LegacyFocusStateMapper$2'
p584
sg15
(lp585
sg17
(lp586
sg19
(lp587
sg21
I0
sbasg57
(lp588
g570
ag577
ag584
asg21
I0
sg59
S'996'
p589
sba(iArchitecture
Cluster
p590
(dp591
g7
(lp592
(iArchitecture
Entity
p593
(dp594
g11
(lp595
sg13
S'android.net.wifi.p2p.WifiP2pGroupList'
p596
sg15
(lp597
sg17
(lp598
sg19
(lp599
sg21
I0
sba(iArchitecture
Entity
p600
(dp601
g11
(lp602
sg13
S'android.net.wifi.p2p.WifiP2pGroupList$1'
p603
sg15
(lp604
sg17
(lp605
sg19
(lp606
sg21
I0
sba(iArchitecture
Entity
p607
(dp608
g11
(lp609
sg13
S'android.net.wifi.p2p.WifiP2pGroupList$2'
p610
sg15
(lp611
sg17
(lp612
sg19
(lp613
sg21
I0
sba(iArchitecture
Entity
p614
(dp615
g11
(lp616
sg13
S'android.net.wifi.p2p.WifiP2pGroupList$GroupDeleteListener'
p617
sg15
(lp618
sg17
(lp619
sg19
(lp620
sg21
I0
sbasg57
(lp621
g596
ag603
ag610
ag617
asg21
I0
sg59
S'997'
p622
sba(iArchitecture
Cluster
p623
(dp624
g7
(lp625
(iArchitecture
Entity
p626
(dp627
g11
(lp628
sg13
S'com.android.server.power.WirelessChargerDetector'
p629
sg15
(lp630
sg17
(lp631
sg19
(lp632
sg21
I0
sba(iArchitecture
Entity
p633
(dp634
g11
(lp635
sg13
S'com.android.server.power.WirelessChargerDetector$1'
p636
sg15
(lp637
sg17
(lp638
sg19
(lp639
sg21
I0
sba(iArchitecture
Entity
p640
(dp641
g11
(lp642
sg13
S'com.android.server.power.WirelessChargerDetector$2'
p643
sg15
(lp644
sg17
(lp645
sg19
(lp646
sg21
I0
sbasg57
(lp647
g629
ag636
ag643
asg21
I0
sg59
S'998'
p648
sba(iArchitecture
Cluster
p649
(dp650
g7
(lp651
(iArchitecture
Entity
p652
(dp653
g11
(lp654
sg13
S'com.android.server.search.SearchManagerService'
p655
sg15
(lp656
sg17
(lp657
sg19
(lp658
sg21
I0
sba(iArchitecture
Entity
p659
(dp660
g11
(lp661
sg13
S'com.android.server.search.SearchManagerService$GlobalSearchProviderObserver'
p662
sg15
(lp663
sg17
(lp664
sg19
(lp665
sg21
I0
sba(iArchitecture
Entity
p666
(dp667
g11
(lp668
sg13
S'com.android.server.search.SearchManagerService$Lifecycle'
p669
sg15
(lp670
sg17
(lp671
sg19
(lp672
sg21
I0
sba(iArchitecture
Entity
p673
(dp674
g11
(lp675
sg13
S'com.android.server.search.SearchManagerService$MyPackageMonitor'
p676
sg15
(lp677
sg17
(lp678
sg19
(lp679
sg21
I0
sbasg57
(lp680
g655
ag662
ag669
ag676
asg21
I0
sg59
S'999'
p681
sbasS'target_sub'
p682
S'99'
p683
sg57
(lp684
sS'is_component_arch'
p685
I01
sg59
S'7.0.0_r1'
p686
sba.