(lp0
(iArchitecture
Architecture
p1
(dp2
S'clusters'
p3
(lp4
(iArchitecture
Cluster
p5
(dp6
S'entities'
p7
(lp8
(iArchitecture
Entity
p9
(dp10
S'issue_ids'
p11
(lp12
sS'name'
p13
S'android.hardware.hdmi.HdmiPlaybackClient'
p14
sS'descs'
p15
(lp16
sS'labels'
p17
(lp18
sS'titles'
p19
(lp20
sS'change'
p21
I0
sba(iArchitecture
Entity
p22
(dp23
g11
(lp24
sg13
S'android.hardware.hdmi.HdmiPlaybackClient$1'
p25
sg15
(lp26
sg17
(lp27
sg19
(lp28
sg21
I0
sba(iArchitecture
Entity
p29
(dp30
g11
(lp31
sg13
S'android.hardware.hdmi.HdmiPlaybackClient$2'
p32
sg15
(lp33
sg17
(lp34
sg19
(lp35
sg21
I0
sba(iArchitecture
Entity
p36
(dp37
g11
(lp38
sg13
S'android.hardware.hdmi.HdmiPlaybackClient$DisplayStatusCallback'
p39
sg15
(lp40
sg17
(lp41
sg19
(lp42
sg21
I0
sba(iArchitecture
Entity
p43
(dp44
g11
(lp45
sg13
S'android.hardware.hdmi.HdmiPlaybackClient$OneTouchPlayCallback'
p46
sg15
(lp47
sg17
(lp48
sg19
(lp49
sg21
I0
sbasS'classes'
p50
(lp51
g14
ag25
ag32
ag39
ag46
asg21
I0
sS'label'
p52
S'1088'
p53
sba(iArchitecture
Cluster
p54
(dp55
g7
(lp56
(iArchitecture
Entity
p57
(dp58
g11
(lp59
sg13
S'android.transition.ChangeBounds'
p60
sg15
(lp61
sg17
(lp62
sg19
(lp63
sg21
I0
sba(iArchitecture
Entity
p64
(dp65
g11
(lp66
sg13
S'android.transition.ChangeBounds$1'
p67
sg15
(lp68
sg17
(lp69
sg19
(lp70
sg21
I0
sba(iArchitecture
Entity
p71
(dp72
g11
(lp73
sg13
S'android.transition.ChangeBounds$10'
p74
sg15
(lp75
sg17
(lp76
sg19
(lp77
sg21
I0
sba(iArchitecture
Entity
p78
(dp79
g11
(lp80
sg13
S'android.transition.ChangeBounds$2'
p81
sg15
(lp82
sg17
(lp83
sg19
(lp84
sg21
I0
sba(iArchitecture
Entity
p85
(dp86
g11
(lp87
sg13
S'android.transition.ChangeBounds$3'
p88
sg15
(lp89
sg17
(lp90
sg19
(lp91
sg21
I0
sba(iArchitecture
Entity
p92
(dp93
g11
(lp94
sg13
S'android.transition.ChangeBounds$4'
p95
sg15
(lp96
sg17
(lp97
sg19
(lp98
sg21
I0
sba(iArchitecture
Entity
p99
(dp100
g11
(lp101
sg13
S'android.transition.ChangeBounds$5'
p102
sg15
(lp103
sg17
(lp104
sg19
(lp105
sg21
I0
sba(iArchitecture
Entity
p106
(dp107
g11
(lp108
sg13
S'android.transition.ChangeBounds$6'
p109
sg15
(lp110
sg17
(lp111
sg19
(lp112
sg21
I0
sba(iArchitecture
Entity
p113
(dp114
g11
(lp115
sg13
S'android.transition.ChangeBounds$7'
p116
sg15
(lp117
sg17
(lp118
sg19
(lp119
sg21
I0
sba(iArchitecture
Entity
p120
(dp121
g11
(lp122
sg13
S'android.transition.ChangeBounds$8'
p123
sg15
(lp124
sg17
(lp125
sg19
(lp126
sg21
I0
sba(iArchitecture
Entity
p127
(dp128
g11
(lp129
sg13
S'android.transition.ChangeBounds$9'
p130
sg15
(lp131
sg17
(lp132
sg19
(lp133
sg21
I0
sba(iArchitecture
Entity
p134
(dp135
g11
(lp136
sg13
S'android.transition.ChangeBounds$ViewBounds'
p137
sg15
(lp138
sg17
(lp139
sg19
(lp140
sg21
I0
sbasg50
(lp141
g60
ag67
ag74
ag81
ag88
ag95
ag102
ag109
ag116
ag123
ag130
ag137
asg21
I0
sg52
S'1188'
p142
sba(iArchitecture
Cluster
p143
(dp144
g7
(lp145
(iArchitecture
Entity
p146
(dp147
g11
(lp148
sg13
S'android.location.LocationProvider'
p149
sg15
(lp150
sg17
(lp151
sg19
(lp152
sg21
I0
sba(iArchitecture
Entity
p153
(dp154
g11
(lp155
sg13
S'com.android.internal.location.ProviderProperties'
p156
sg15
(lp157
sg17
(lp158
sg19
(lp159
sg21
I0
sba(iArchitecture
Entity
p160
(dp161
g11
(lp162
sg13
S'com.android.internal.location.ProviderProperties$1'
p163
sg15
(lp164
sg17
(lp165
sg19
(lp166
sg21
I0
sbasg50
(lp167
g149
ag156
ag163
asg21
I0
sg52
S'1288'
p168
sba(iArchitecture
Cluster
p169
(dp170
g7
(lp171
(iArchitecture
Entity
p172
(dp173
g11
(lp174
sg13
S'android.graphics.drawable.DrawableContainer'
p175
sg15
(lp176
sg17
(lp177
sg19
(lp178
sg21
I0
sba(iArchitecture
Entity
p179
(dp180
g11
(lp181
sg13
S'android.graphics.drawable.DrawableContainer$1'
p182
sg15
(lp183
sg17
(lp184
sg19
(lp185
sg21
I0
sba(iArchitecture
Entity
p186
(dp187
g11
(lp188
sg13
S'android.graphics.drawable.DrawableContainer$BlockInvalidateCallback'
p189
sg15
(lp190
sg17
(lp191
sg19
(lp192
sg21
I0
sba(iArchitecture
Entity
p193
(dp194
g11
(lp195
sg13
S'android.graphics.drawable.DrawableContainer$DrawableContainerState'
p196
sg15
(lp197
sg17
(lp198
sg19
(lp199
sg21
I0
sba(iArchitecture
Entity
p200
(dp201
g11
(lp202
sg13
S'android.graphics.drawable.DrawableWrapper'
p203
sg15
(lp204
sg17
(lp205
sg19
(lp206
sg21
I0
sba(iArchitecture
Entity
p207
(dp208
g11
(lp209
sg13
S'android.graphics.drawable.DrawableWrapper$DrawableWrapperState'
p210
sg15
(lp211
sg17
(lp212
sg19
(lp213
sg21
I0
sba(iArchitecture
Entity
p214
(dp215
g11
(lp216
sg13
S'android.graphics.drawable.NinePatchDrawable'
p217
sg15
(lp218
sg17
(lp219
sg19
(lp220
sg21
I0
sba(iArchitecture
Entity
p221
(dp222
g11
(lp223
sg13
S'android.graphics.drawable.NinePatchDrawable$NinePatchState'
p224
sg15
(lp225
sg17
(lp226
sg19
(lp227
sg21
I0
sbasg50
(lp228
g175
ag182
ag189
ag196
ag203
ag210
ag217
ag224
asg21
I0
sg52
S'1388'
p229
sba(iArchitecture
Cluster
p230
(dp231
g7
(lp232
(iArchitecture
Entity
p233
(dp234
g11
(lp235
sg13
S'android.util.KeyValueListParser'
p236
sg15
(lp237
sg17
(lp238
sg19
(lp239
sg21
I0
sbasg50
(lp240
g236
asg21
I0
sg52
S'188'
p241
sba(iArchitecture
Cluster
p242
(dp243
g7
(lp244
(iArchitecture
Entity
p245
(dp246
g11
(lp247
sg13
S'android.os.health.PidHealthStats'
p248
sg15
(lp249
sg17
(lp250
sg19
(lp251
sg21
I0
sbasg50
(lp252
g248
asg21
I0
sg52
S'288'
p253
sba(iArchitecture
Cluster
p254
(dp255
g7
(lp256
(iArchitecture
Entity
p257
(dp258
g11
(lp259
sg13
S'com.android.internal.app.procstats.ServiceState'
p260
sg15
(lp261
sg17
(lp262
sg19
(lp263
sg21
I0
sbasg50
(lp264
g260
asg21
I0
sg52
S'388'
p265
sba(iArchitecture
Cluster
p266
(dp267
g7
(lp268
(iArchitecture
Entity
p269
(dp270
g11
(lp271
sg13
S'android.content.ComponentCallbacks2'
p272
sg15
(lp273
sg17
(lp274
sg19
(lp275
sg21
I0
sbasg50
(lp276
g272
asg21
I0
sg52
S'488'
p277
sba(iArchitecture
Cluster
p278
(dp279
g7
(lp280
(iArchitecture
Entity
p281
(dp282
g11
(lp283
sg13
S'android.location.Country'
p284
sg15
(lp285
sg17
(lp286
sg19
(lp287
sg21
I0
sba(iArchitecture
Entity
p288
(dp289
g11
(lp290
sg13
S'android.location.Country$1'
p291
sg15
(lp292
sg17
(lp293
sg19
(lp294
sg21
I0
sbasg50
(lp295
g284
ag291
asg21
I0
sg52
S'588'
p296
sba(iArchitecture
Cluster
p297
(dp298
g7
(lp299
(iArchitecture
Entity
p300
(dp301
g11
(lp302
sg13
S'android.mtp.MtpEvent'
p303
sg15
(lp304
sg17
(lp305
sg19
(lp306
sg21
I0
sba(iArchitecture
Entity
p307
(dp308
g11
(lp309
sg13
S'android.mtp.MtpEvent$IllegalParameterAccess'
p310
sg15
(lp311
sg17
(lp312
sg19
(lp313
sg21
I0
sbasg50
(lp314
g303
ag310
asg21
I0
sg52
S'688'
p315
sba(iArchitecture
Cluster
p316
(dp317
g7
(lp318
(iArchitecture
Entity
p319
(dp320
g11
(lp321
sg13
S'android.security.net.config.RootTrustManagerFactorySpi'
p322
sg15
(lp323
sg17
(lp324
sg19
(lp325
sg21
I0
sba(iArchitecture
Entity
p326
(dp327
g11
(lp328
sg13
S'android.security.net.config.RootTrustManagerFactorySpi$ApplicationConfigParameters'
p329
sg15
(lp330
sg17
(lp331
sg19
(lp332
sg21
I0
sbasg50
(lp333
g322
ag329
asg21
I0
sg52
S'788'
p334
sba(iArchitecture
Cluster
p335
(dp336
g7
(lp337
(iArchitecture
Entity
p338
(dp339
g11
(lp340
sg13
S'com.android.server.devicepolicy.SecurityLogMonitor'
p341
sg15
(lp342
sg17
(lp343
sg19
(lp344
sg21
I0
sbasg50
(lp345
g341
asg21
I0
sg52
S'88'
p346
sba(iArchitecture
Cluster
p347
(dp348
g7
(lp349
(iArchitecture
Entity
p350
(dp351
g11
(lp352
sg13
S'com.android.server.usb.UsbAlsaManager'
p353
sg15
(lp354
sg17
(lp355
sg19
(lp356
sg21
I0
sba(iArchitecture
Entity
p357
(dp358
g11
(lp359
sg13
S'com.android.server.usb.UsbAlsaManager$1'
p360
sg15
(lp361
sg17
(lp362
sg19
(lp363
sg21
I0
sba(iArchitecture
Entity
p364
(dp365
g11
(lp366
sg13
S'com.android.server.usb.UsbAlsaManager$AlsaDevice'
p367
sg15
(lp368
sg17
(lp369
sg19
(lp370
sg21
I0
sbasg50
(lp371
g353
ag360
ag367
asg21
I0
sg52
S'880'
p372
sba(iArchitecture
Cluster
p373
(dp374
g7
(lp375
(iArchitecture
Entity
p376
(dp377
g11
(lp378
sg13
S'android.transition.Crossfade'
p379
sg15
(lp380
sg17
(lp381
sg19
(lp382
sg21
I0
sba(iArchitecture
Entity
p383
(dp384
g11
(lp385
sg13
S'android.transition.Crossfade$1'
p386
sg15
(lp387
sg17
(lp388
sg19
(lp389
sg21
I0
sba(iArchitecture
Entity
p390
(dp391
g11
(lp392
sg13
S'android.transition.Crossfade$2'
p393
sg15
(lp394
sg17
(lp395
sg19
(lp396
sg21
I0
sbasg50
(lp397
g379
ag386
ag393
asg21
I0
sg52
S'881'
p398
sba(iArchitecture
Cluster
p399
(dp400
g7
(lp401
(iArchitecture
Entity
p402
(dp403
g11
(lp404
sg13
S'android.view.ViewOutlineProvider'
p405
sg15
(lp406
sg17
(lp407
sg19
(lp408
sg21
I0
sba(iArchitecture
Entity
p409
(dp410
g11
(lp411
sg13
S'android.view.ViewOutlineProvider$1'
p412
sg15
(lp413
sg17
(lp414
sg19
(lp415
sg21
I0
sba(iArchitecture
Entity
p416
(dp417
g11
(lp418
sg13
S'android.view.ViewOutlineProvider$2'
p419
sg15
(lp420
sg17
(lp421
sg19
(lp422
sg21
I0
sba(iArchitecture
Entity
p423
(dp424
g11
(lp425
sg13
S'android.view.ViewOutlineProvider$3'
p426
sg15
(lp427
sg17
(lp428
sg19
(lp429
sg21
I0
sbasg50
(lp430
g405
ag412
ag419
ag426
asg21
I0
sg52
S'882'
p431
sba(iArchitecture
Cluster
p432
(dp433
g7
(lp434
(iArchitecture
Entity
p435
(dp436
g11
(lp437
sg13
S'android.net.metrics.DhcpErrorEvent'
p438
sg15
(lp439
sg17
(lp440
sg19
(lp441
sg21
I0
sba(iArchitecture
Entity
p442
(dp443
g11
(lp444
sg13
S'android.net.metrics.DhcpErrorEvent$1'
p445
sg15
(lp446
sg17
(lp447
sg19
(lp448
sg21
I0
sba(iArchitecture
Entity
p449
(dp450
g11
(lp451
sg13
S'android.net.metrics.DhcpErrorEvent$Decoder'
p452
sg15
(lp453
sg17
(lp454
sg19
(lp455
sg21
I0
sbasg50
(lp456
g438
ag445
ag452
asg21
I0
sg52
S'883'
p457
sba(iArchitecture
Cluster
p458
(dp459
g7
(lp460
(iArchitecture
Entity
p461
(dp462
g11
(lp463
sg13
S'android.hardware.soundtrigger.SoundTriggerModule'
p464
sg15
(lp465
sg17
(lp466
sg19
(lp467
sg21
I0
sba(iArchitecture
Entity
p468
(dp469
g11
(lp470
sg13
S'android.hardware.soundtrigger.SoundTriggerModule$NativeEventHandlerDelegate'
p471
sg15
(lp472
sg17
(lp473
sg19
(lp474
sg21
I0
sba(iArchitecture
Entity
p475
(dp476
g11
(lp477
sg13
S'android.hardware.soundtrigger.SoundTriggerModule$NativeEventHandlerDelegate$1'
p478
sg15
(lp479
sg17
(lp480
sg19
(lp481
sg21
I0
sbasg50
(lp482
g464
ag471
ag478
asg21
I0
sg52
S'884'
p483
sba(iArchitecture
Cluster
p484
(dp485
g7
(lp486
(iArchitecture
Entity
p487
(dp488
g11
(lp489
sg13
S'com.android.server.wm.TaskPositioner'
p490
sg15
(lp491
sg17
(lp492
sg19
(lp493
sg21
I0
sba(iArchitecture
Entity
p494
(dp495
g11
(lp496
sg13
S'com.android.server.wm.TaskPositioner$CtrlType'
p497
sg15
(lp498
sg17
(lp499
sg19
(lp500
sg21
I0
sba(iArchitecture
Entity
p501
(dp502
g11
(lp503
sg13
S'com.android.server.wm.TaskPositioner$WindowPositionerEventReceiver'
p504
sg15
(lp505
sg17
(lp506
sg19
(lp507
sg21
I0
sbasg50
(lp508
g490
ag497
ag504
asg21
I0
sg52
S'885'
p509
sba(iArchitecture
Cluster
p510
(dp511
g7
(lp512
(iArchitecture
Entity
p513
(dp514
g11
(lp515
sg13
S'android.nfc.NfcActivityManager'
p516
sg15
(lp517
sg17
(lp518
sg19
(lp519
sg21
I0
sba(iArchitecture
Entity
p520
(dp521
g11
(lp522
sg13
S'android.nfc.NfcActivityManager$NfcActivityState'
p523
sg15
(lp524
sg17
(lp525
sg19
(lp526
sg21
I0
sba(iArchitecture
Entity
p527
(dp528
g11
(lp529
sg13
S'android.nfc.NfcActivityManager$NfcApplicationState'
p530
sg15
(lp531
sg17
(lp532
sg19
(lp533
sg21
I0
sbasg50
(lp534
g516
ag523
ag530
asg21
I0
sg52
S'886'
p535
sba(iArchitecture
Cluster
p536
(dp537
g7
(lp538
(iArchitecture
Entity
p539
(dp540
g11
(lp541
sg13
S'android.bluetooth.le.AdvertiseSettings'
p542
sg15
(lp543
sg17
(lp544
sg19
(lp545
sg21
I0
sba(iArchitecture
Entity
p546
(dp547
g11
(lp548
sg13
S'android.bluetooth.le.AdvertiseSettings$1'
p549
sg15
(lp550
sg17
(lp551
sg19
(lp552
sg21
I0
sba(iArchitecture
Entity
p553
(dp554
g11
(lp555
sg13
S'android.bluetooth.le.AdvertiseSettings$Builder'
p556
sg15
(lp557
sg17
(lp558
sg19
(lp559
sg21
I0
sbasg50
(lp560
g542
ag549
ag556
asg21
I0
sg52
S'887'
p561
sba(iArchitecture
Cluster
p562
(dp563
g7
(lp564
(iArchitecture
Entity
p565
(dp566
g11
(lp567
sg13
S'android.transition.TransitionManager'
p568
sg15
(lp569
sg17
(lp570
sg19
(lp571
sg21
I0
sba(iArchitecture
Entity
p572
(dp573
g11
(lp574
sg13
S'android.transition.TransitionManager$MultiListener'
p575
sg15
(lp576
sg17
(lp577
sg19
(lp578
sg21
I0
sba(iArchitecture
Entity
p579
(dp580
g11
(lp581
sg13
S'android.transition.TransitionManager$MultiListener$1'
p582
sg15
(lp583
sg17
(lp584
sg19
(lp585
sg21
I0
sbasg50
(lp586
g568
ag575
ag582
asg21
I0
sg52
S'888'
p587
sba(iArchitecture
Cluster
p588
(dp589
g7
(lp590
(iArchitecture
Entity
p591
(dp592
g11
(lp593
sg13
S'android.widget.SimpleMonthView'
p594
sg15
(lp595
sg17
(lp596
sg19
(lp597
sg21
I0
sba(iArchitecture
Entity
p598
(dp599
g11
(lp600
sg13
S'android.widget.SimpleMonthView$MonthViewTouchHelper'
p601
sg15
(lp602
sg17
(lp603
sg19
(lp604
sg21
I0
sba(iArchitecture
Entity
p605
(dp606
g11
(lp607
sg13
S'android.widget.SimpleMonthView$OnDayClickListener'
p608
sg15
(lp609
sg17
(lp610
sg19
(lp611
sg21
I0
sbasg50
(lp612
g594
ag601
ag608
asg21
I0
sg52
S'889'
p613
sba(iArchitecture
Cluster
p614
(dp615
g7
(lp616
(iArchitecture
Entity
p617
(dp618
g11
(lp619
sg13
S'android.content.IntentFilter'
p620
sg15
(lp621
sg17
(lp622
sg19
(lp623
sg21
I0
sba(iArchitecture
Entity
p624
(dp625
g11
(lp626
sg13
S'android.content.IntentFilter$1'
p627
sg15
(lp628
sg17
(lp629
sg19
(lp630
sg21
I0
sba(iArchitecture
Entity
p631
(dp632
g11
(lp633
sg13
S'android.content.IntentFilter$AuthorityEntry'
p634
sg15
(lp635
sg17
(lp636
sg19
(lp637
sg21
I0
sba(iArchitecture
Entity
p638
(dp639
g11
(lp640
sg13
S'android.content.IntentFilter$MalformedMimeTypeException'
p641
sg15
(lp642
sg17
(lp643
sg19
(lp644
sg21
I0
sbasg50
(lp645
g620
ag627
ag634
ag641
asg21
I0
sg52
S'988'
p646
sbasS'target_sub'
p647
S'88'
p648
sg50
(lp649
sS'is_component_arch'
p650
I01
sg52
S'7.0.0_r1'
p651
sba.