(lp0
(iArchitecture
Architecture
p1
(dp2
S'clusters'
p3
(lp4
(iArchitecture
Cluster
p5
(dp6
S'entities'
p7
(lp8
(iArchitecture
Entity
p9
(dp10
S'issue_ids'
p11
(lp12
sS'name'
p13
S'com.android.server.job.controllers.AppIdleController'
p14
sS'descs'
p15
(lp16
sS'labels'
p17
(lp18
sS'titles'
p19
(lp20
sS'change'
p21
I0
sba(iArchitecture
Entity
p22
(dp23
g11
(lp24
sg13
S'com.android.server.job.controllers.AppIdleController$1'
p25
sg15
(lp26
sg17
(lp27
sg19
(lp28
sg21
I0
sba(iArchitecture
Entity
p29
(dp30
g11
(lp31
sg13
S'com.android.server.job.controllers.AppIdleController$AppIdleStateChangeListener'
p32
sg15
(lp33
sg17
(lp34
sg19
(lp35
sg21
I0
sba(iArchitecture
Entity
p36
(dp37
g11
(lp38
sg13
S'com.android.server.job.controllers.AppIdleController$GlobalUpdateFunc'
p39
sg15
(lp40
sg17
(lp41
sg19
(lp42
sg21
I0
sba(iArchitecture
Entity
p43
(dp44
g11
(lp45
sg13
S'com.android.server.job.controllers.AppIdleController$PackageUpdateFunc'
p46
sg15
(lp47
sg17
(lp48
sg19
(lp49
sg21
I0
sbasS'classes'
p50
(lp51
g14
ag25
ag32
ag39
ag46
asg21
I0
sS'label'
p52
S'1047'
p53
sba(iArchitecture
Cluster
p54
(dp55
g7
(lp56
(iArchitecture
Entity
p57
(dp58
g11
(lp59
sg13
S'com.android.server.Watchdog'
p60
sg15
(lp61
sg17
(lp62
sg19
(lp63
sg21
I0
sba(iArchitecture
Entity
p64
(dp65
g11
(lp66
sg13
S'com.android.server.Watchdog$1'
p67
sg15
(lp68
sg17
(lp69
sg19
(lp70
sg21
I0
sba(iArchitecture
Entity
p71
(dp72
g11
(lp73
sg13
S'com.android.server.Watchdog$BinderThreadMonitor'
p74
sg15
(lp75
sg17
(lp76
sg19
(lp77
sg21
I0
sba(iArchitecture
Entity
p78
(dp79
g11
(lp80
sg13
S'com.android.server.Watchdog$HandlerChecker'
p81
sg15
(lp82
sg17
(lp83
sg19
(lp84
sg21
I0
sba(iArchitecture
Entity
p85
(dp86
g11
(lp87
sg13
S'com.android.server.Watchdog$Monitor'
p88
sg15
(lp89
sg17
(lp90
sg19
(lp91
sg21
I0
sba(iArchitecture
Entity
p92
(dp93
g11
(lp94
sg13
S'com.android.server.Watchdog$RebootRequestReceiver'
p95
sg15
(lp96
sg17
(lp97
sg19
(lp98
sg21
I0
sbasg50
(lp99
g60
ag67
ag74
ag81
ag88
ag95
asg21
I0
sg52
S'1147'
p100
sba(iArchitecture
Cluster
p101
(dp102
g7
(lp103
(iArchitecture
Entity
p104
(dp105
g11
(lp106
sg13
S'android.animation.ObjectAnimator'
p107
sg15
(lp108
sg17
(lp109
sg19
(lp110
sg21
I0
sba(iArchitecture
Entity
p111
(dp112
g11
(lp113
sg13
S'android.animation.PropertyValuesHolder'
p114
sg15
(lp115
sg17
(lp116
sg19
(lp117
sg21
I0
sba(iArchitecture
Entity
p118
(dp119
g11
(lp120
sg13
S'android.animation.PropertyValuesHolder$1'
p121
sg15
(lp122
sg17
(lp123
sg19
(lp124
sg21
I0
sba(iArchitecture
Entity
p125
(dp126
g11
(lp127
sg13
S'android.animation.PropertyValuesHolder$FloatPropertyValuesHolder'
p128
sg15
(lp129
sg17
(lp130
sg19
(lp131
sg21
I0
sba(iArchitecture
Entity
p132
(dp133
g11
(lp134
sg13
S'android.animation.PropertyValuesHolder$IntPropertyValuesHolder'
p135
sg15
(lp136
sg17
(lp137
sg19
(lp138
sg21
I0
sba(iArchitecture
Entity
p139
(dp140
g11
(lp141
sg13
S'android.animation.PropertyValuesHolder$MultiFloatValuesHolder'
p142
sg15
(lp143
sg17
(lp144
sg19
(lp145
sg21
I0
sba(iArchitecture
Entity
p146
(dp147
g11
(lp148
sg13
S'android.animation.PropertyValuesHolder$MultiIntValuesHolder'
p149
sg15
(lp150
sg17
(lp151
sg19
(lp152
sg21
I0
sba(iArchitecture
Entity
p153
(dp154
g11
(lp155
sg13
S'android.animation.PropertyValuesHolder$PointFToFloatArray'
p156
sg15
(lp157
sg17
(lp158
sg19
(lp159
sg21
I0
sba(iArchitecture
Entity
p160
(dp161
g11
(lp162
sg13
S'android.animation.PropertyValuesHolder$PointFToIntArray'
p163
sg15
(lp164
sg17
(lp165
sg19
(lp166
sg21
I0
sba(iArchitecture
Entity
p167
(dp168
g11
(lp169
sg13
S'android.animation.PropertyValuesHolder$PropertyValues'
p170
sg15
(lp171
sg17
(lp172
sg19
(lp173
sg21
I0
sba(iArchitecture
Entity
p174
(dp175
g11
(lp176
sg13
S'android.animation.PropertyValuesHolder$PropertyValues$DataSource'
p177
sg15
(lp178
sg17
(lp179
sg19
(lp180
sg21
I0
sbasg50
(lp181
g107
ag114
ag121
ag128
ag135
ag142
ag149
ag156
ag163
ag170
ag177
asg21
I0
sg52
S'1247'
p182
sba(iArchitecture
Cluster
p183
(dp184
g7
(lp185
(iArchitecture
Entity
p186
(dp187
g11
(lp188
sg13
S'android.telephony.CellIdentityGsm'
p189
sg15
(lp190
sg17
(lp191
sg19
(lp192
sg21
I0
sba(iArchitecture
Entity
p193
(dp194
g11
(lp195
sg13
S'android.telephony.CellIdentityGsm$1'
p196
sg15
(lp197
sg17
(lp198
sg19
(lp199
sg21
I0
sba(iArchitecture
Entity
p200
(dp201
g11
(lp202
sg13
S'android.telephony.CellIdentityWcdma'
p203
sg15
(lp204
sg17
(lp205
sg19
(lp206
sg21
I0
sba(iArchitecture
Entity
p207
(dp208
g11
(lp209
sg13
S'android.telephony.CellIdentityWcdma$1'
p210
sg15
(lp211
sg17
(lp212
sg19
(lp213
sg21
I0
sbasg50
(lp214
g189
ag196
ag203
ag210
asg21
I0
sg52
S'1347'
p215
sba(iArchitecture
Cluster
p216
(dp217
g7
(lp218
(iArchitecture
Entity
p219
(dp220
g11
(lp221
sg13
S'com.android.server.am.LaunchingTaskPositioner'
p222
sg15
(lp223
sg17
(lp224
sg19
(lp225
sg21
I0
sbasg50
(lp226
g222
asg21
I0
sg52
S'147'
p227
sba(iArchitecture
Cluster
p228
(dp229
g7
(lp230
(iArchitecture
Entity
p231
(dp232
g11
(lp233
sg13
S'android.util.FloatMath'
p234
sg15
(lp235
sg17
(lp236
sg19
(lp237
sg21
I0
sbasg50
(lp238
g234
asg21
I0
sg52
S'247'
p239
sba(iArchitecture
Cluster
p240
(dp241
g7
(lp242
(iArchitecture
Entity
p243
(dp244
g11
(lp245
sg13
S'com.android.server.usage.UnixCalendar'
p246
sg15
(lp247
sg17
(lp248
sg19
(lp249
sg21
I0
sbasg50
(lp250
g246
asg21
I0
sg52
S'347'
p251
sba(iArchitecture
Cluster
p252
(dp253
g7
(lp254
(iArchitecture
Entity
p255
(dp256
g11
(lp257
sg13
S'android.graphics.Color'
p258
sg15
(lp259
sg17
(lp260
sg19
(lp261
sg21
I0
sbasg50
(lp262
g258
asg21
I0
sg52
S'447'
p263
sba(iArchitecture
Cluster
p264
(dp265
g7
(lp266
(iArchitecture
Entity
p267
(dp268
g11
(lp269
sg13
S'android.webkit.CookieSyncManager'
p270
sg15
(lp271
sg17
(lp272
sg19
(lp273
sg21
I0
sbasg50
(lp274
g270
asg21
I0
sg52
S'47'
p275
sba(iArchitecture
Cluster
p276
(dp277
g7
(lp278
(iArchitecture
Entity
p279
(dp280
g11
(lp281
sg13
S'android.text.style.EasyEditSpan'
p282
sg15
(lp283
sg17
(lp284
sg19
(lp285
sg21
I0
sbasg50
(lp286
g282
asg21
I0
sg52
S'470'
p287
sba(iArchitecture
Cluster
p288
(dp289
g7
(lp290
(iArchitecture
Entity
p291
(dp292
g11
(lp293
sg13
S'android.webkit.PluginData'
p294
sg15
(lp295
sg17
(lp296
sg19
(lp297
sg21
I0
sbasg50
(lp298
g294
asg21
I0
sg52
S'471'
p299
sba(iArchitecture
Cluster
p300
(dp301
g7
(lp302
(iArchitecture
Entity
p303
(dp304
g11
(lp305
sg13
S'android.preference.PreferenceGroup'
p306
sg15
(lp307
sg17
(lp308
sg19
(lp309
sg21
I0
sbasg50
(lp310
g306
asg21
I0
sg52
S'472'
p311
sba(iArchitecture
Cluster
p312
(dp313
g7
(lp314
(iArchitecture
Entity
p315
(dp316
g11
(lp317
sg13
S'android.hardware.camera2.legacy.PerfMeasurement'
p318
sg15
(lp319
sg17
(lp320
sg19
(lp321
sg21
I0
sbasg50
(lp322
g318
asg21
I0
sg52
S'473'
p323
sba(iArchitecture
Cluster
p324
(dp325
g7
(lp326
(iArchitecture
Entity
p327
(dp328
g11
(lp329
sg13
S'com.android.server.location.GeocoderProxy'
p330
sg15
(lp331
sg17
(lp332
sg19
(lp333
sg21
I0
sbasg50
(lp334
g330
asg21
I0
sg52
S'474'
p335
sba(iArchitecture
Cluster
p336
(dp337
g7
(lp338
(iArchitecture
Entity
p339
(dp340
g11
(lp341
sg13
S'android.net.WebAddress'
p342
sg15
(lp343
sg17
(lp344
sg19
(lp345
sg21
I0
sbasg50
(lp346
g342
asg21
I0
sg52
S'475'
p347
sba(iArchitecture
Cluster
p348
(dp349
g7
(lp350
(iArchitecture
Entity
p351
(dp352
g11
(lp353
sg13
S'android.os.Looper'
p354
sg15
(lp355
sg17
(lp356
sg19
(lp357
sg21
I0
sbasg50
(lp358
g354
asg21
I0
sg52
S'476'
p359
sba(iArchitecture
Cluster
p360
(dp361
g7
(lp362
(iArchitecture
Entity
p363
(dp364
g11
(lp365
sg13
S'com.android.server.pm.PackageSettingBase'
p366
sg15
(lp367
sg17
(lp368
sg19
(lp369
sg21
I0
sbasg50
(lp370
g366
asg21
I0
sg52
S'477'
p371
sba(iArchitecture
Cluster
p372
(dp373
g7
(lp374
(iArchitecture
Entity
p375
(dp376
g11
(lp377
sg13
S'android.view.inputmethod.InputConnectionInspector'
p378
sg15
(lp379
sg17
(lp380
sg19
(lp381
sg21
I0
sbasg50
(lp382
g378
asg21
I0
sg52
S'478'
p383
sba(iArchitecture
Cluster
p384
(dp385
g7
(lp386
(iArchitecture
Entity
p387
(dp388
g11
(lp389
sg13
S'android.app.FragmentHostCallback'
p390
sg15
(lp391
sg17
(lp392
sg19
(lp393
sg21
I0
sbasg50
(lp394
g390
asg21
I0
sg52
S'479'
p395
sba(iArchitecture
Cluster
p396
(dp397
g7
(lp398
(iArchitecture
Entity
p399
(dp400
g11
(lp401
sg13
S'android.app.TimePickerDialog'
p402
sg15
(lp403
sg17
(lp404
sg19
(lp405
sg21
I0
sba(iArchitecture
Entity
p406
(dp407
g11
(lp408
sg13
S'android.app.TimePickerDialog$OnTimeSetListener'
p409
sg15
(lp410
sg17
(lp411
sg19
(lp412
sg21
I0
sbasg50
(lp413
g402
ag409
asg21
I0
sg52
S'547'
p414
sba(iArchitecture
Cluster
p415
(dp416
g7
(lp417
(iArchitecture
Entity
p418
(dp419
g11
(lp420
sg13
S'android.telephony.PreciseCallState'
p421
sg15
(lp422
sg17
(lp423
sg19
(lp424
sg21
I0
sba(iArchitecture
Entity
p425
(dp426
g11
(lp427
sg13
S'android.telephony.PreciseCallState$1'
p428
sg15
(lp429
sg17
(lp430
sg19
(lp431
sg21
I0
sbasg50
(lp432
g421
ag428
asg21
I0
sg52
S'647'
p433
sba(iArchitecture
Cluster
p434
(dp435
g7
(lp436
(iArchitecture
Entity
p437
(dp438
g11
(lp439
sg13
S'android.telephony.PreciseDataConnectionState'
p440
sg15
(lp441
sg17
(lp442
sg19
(lp443
sg21
I0
sba(iArchitecture
Entity
p444
(dp445
g11
(lp446
sg13
S'android.telephony.PreciseDataConnectionState$1'
p447
sg15
(lp448
sg17
(lp449
sg19
(lp450
sg21
I0
sbasg50
(lp451
g440
ag447
asg21
I0
sg52
S'747'
p452
sba(iArchitecture
Cluster
p453
(dp454
g7
(lp455
(iArchitecture
Entity
p456
(dp457
g11
(lp458
sg13
S'android.widget.DigitalClock'
p459
sg15
(lp460
sg17
(lp461
sg19
(lp462
sg21
I0
sba(iArchitecture
Entity
p463
(dp464
g11
(lp465
sg13
S'android.widget.DigitalClock$1'
p466
sg15
(lp467
sg17
(lp468
sg19
(lp469
sg21
I0
sba(iArchitecture
Entity
p470
(dp471
g11
(lp472
sg13
S'android.widget.DigitalClock$FormatChangeObserver'
p473
sg15
(lp474
sg17
(lp475
sg19
(lp476
sg21
I0
sbasg50
(lp477
g459
ag466
ag473
asg21
I0
sg52
S'847'
p478
sba(iArchitecture
Cluster
p479
(dp480
g7
(lp481
(iArchitecture
Entity
p482
(dp483
g11
(lp484
sg13
S'android.graphics.Canvas'
p485
sg15
(lp486
sg17
(lp487
sg19
(lp488
sg21
I0
sba(iArchitecture
Entity
p489
(dp490
g11
(lp491
sg13
S'android.graphics.Canvas$EdgeType'
p492
sg15
(lp493
sg17
(lp494
sg19
(lp495
sg21
I0
sba(iArchitecture
Entity
p496
(dp497
g11
(lp498
sg13
S'android.graphics.Canvas$NoImagePreloadHolder'
p499
sg15
(lp500
sg17
(lp501
sg19
(lp502
sg21
I0
sba(iArchitecture
Entity
p503
(dp504
g11
(lp505
sg13
S'android.graphics.Canvas$VertexMode'
p506
sg15
(lp507
sg17
(lp508
sg19
(lp509
sg21
I0
sbasg50
(lp510
g485
ag492
ag499
ag506
asg21
I0
sg52
S'947'
p511
sbasS'target_sub'
p512
S'47'
p513
sg50
(lp514
sS'is_component_arch'
p515
I01
sg52
S'7.0.0_r1'
p516
sba.