(lp0
(iArchitecture
Architecture
p1
(dp2
S'clusters'
p3
(lp4
(iArchitecture
Cluster
p5
(dp6
S'entities'
p7
(lp8
(iArchitecture
Entity
p9
(dp10
S'issue_ids'
p11
(lp12
sS'name'
p13
S'android.view.ViewPropertyAnimator'
p14
sS'descs'
p15
(lp16
sS'labels'
p17
(lp18
sS'titles'
p19
(lp20
sS'change'
p21
I0
sba(iArchitecture
Entity
p22
(dp23
g11
(lp24
sg13
S'android.view.ViewPropertyAnimator$1'
p25
sg15
(lp26
sg17
(lp27
sg19
(lp28
sg21
I0
sba(iArchitecture
Entity
p29
(dp30
g11
(lp31
sg13
S'android.view.ViewPropertyAnimator$2'
p32
sg15
(lp33
sg17
(lp34
sg19
(lp35
sg21
I0
sba(iArchitecture
Entity
p36
(dp37
g11
(lp38
sg13
S'android.view.ViewPropertyAnimator$3'
p39
sg15
(lp40
sg17
(lp41
sg19
(lp42
sg21
I0
sba(iArchitecture
Entity
p43
(dp44
g11
(lp45
sg13
S'android.view.ViewPropertyAnimator$AnimatorEventListener'
p46
sg15
(lp47
sg17
(lp48
sg19
(lp49
sg21
I0
sba(iArchitecture
Entity
p50
(dp51
g11
(lp52
sg13
S'android.view.ViewPropertyAnimator$NameValuesHolder'
p53
sg15
(lp54
sg17
(lp55
sg19
(lp56
sg21
I0
sba(iArchitecture
Entity
p57
(dp58
g11
(lp59
sg13
S'android.view.ViewPropertyAnimator$PropertyBundle'
p60
sg15
(lp61
sg17
(lp62
sg19
(lp63
sg21
I0
sbasS'classes'
p64
(lp65
g14
ag25
ag32
ag39
ag46
ag53
ag60
asg21
I0
sS'label'
p66
S'1070'
p67
sba(iArchitecture
Cluster
p68
(dp69
g7
(lp70
(iArchitecture
Entity
p71
(dp72
g11
(lp73
sg13
S'android.view.textservice.SpellCheckerSession'
p74
sg15
(lp75
sg17
(lp76
sg19
(lp77
sg21
I0
sba(iArchitecture
Entity
p78
(dp79
g11
(lp80
sg13
S'android.view.textservice.SpellCheckerSession$1'
p81
sg15
(lp82
sg17
(lp83
sg19
(lp84
sg21
I0
sba(iArchitecture
Entity
p85
(dp86
g11
(lp87
sg13
S'android.view.textservice.SpellCheckerSession$InternalListener'
p88
sg15
(lp89
sg17
(lp90
sg19
(lp91
sg21
I0
sba(iArchitecture
Entity
p92
(dp93
g11
(lp94
sg13
S'android.view.textservice.SpellCheckerSession$SpellCheckerSessionListener'
p95
sg15
(lp96
sg17
(lp97
sg19
(lp98
sg21
I0
sba(iArchitecture
Entity
p99
(dp100
g11
(lp101
sg13
S'android.view.textservice.SpellCheckerSession$SpellCheckerSessionListenerImpl'
p102
sg15
(lp103
sg17
(lp104
sg19
(lp105
sg21
I0
sba(iArchitecture
Entity
p106
(dp107
g11
(lp108
sg13
S'android.view.textservice.SpellCheckerSession$SpellCheckerSessionListenerImpl$1'
p109
sg15
(lp110
sg17
(lp111
sg19
(lp112
sg21
I0
sba(iArchitecture
Entity
p113
(dp114
g11
(lp115
sg13
S'android.view.textservice.SpellCheckerSession$SpellCheckerSessionListenerImpl$SpellCheckerParams'
p116
sg15
(lp117
sg17
(lp118
sg19
(lp119
sg21
I0
sbasg64
(lp120
g74
ag81
ag88
ag95
ag102
ag109
ag116
asg21
I0
sg66
S'1170'
p121
sba(iArchitecture
Cluster
p122
(dp123
g7
(lp124
(iArchitecture
Entity
p125
(dp126
g11
(lp127
sg13
S'android.view.animation.RotateAnimation'
p128
sg15
(lp129
sg17
(lp130
sg19
(lp131
sg21
I0
sba(iArchitecture
Entity
p132
(dp133
g11
(lp134
sg13
S'android.view.animation.ScaleAnimation'
p135
sg15
(lp136
sg17
(lp137
sg19
(lp138
sg21
I0
sbasg64
(lp139
g128
ag135
asg21
I0
sg66
S'1270'
p140
sba(iArchitecture
Cluster
p141
(dp142
g7
(lp143
(iArchitecture
Entity
p144
(dp145
g11
(lp146
sg13
S'android.location.GnssMeasurement'
p147
sg15
(lp148
sg17
(lp149
sg19
(lp150
sg21
I0
sba(iArchitecture
Entity
p151
(dp152
g11
(lp153
sg13
S'android.location.GnssMeasurement$1'
p154
sg15
(lp155
sg17
(lp156
sg19
(lp157
sg21
I0
sba(iArchitecture
Entity
p158
(dp159
g11
(lp160
sg13
S'android.location.GpsMeasurement'
p161
sg15
(lp162
sg17
(lp163
sg19
(lp164
sg21
I0
sba(iArchitecture
Entity
p165
(dp166
g11
(lp167
sg13
S'android.location.GpsMeasurement$1'
p168
sg15
(lp169
sg17
(lp170
sg19
(lp171
sg21
I0
sbasg64
(lp172
g147
ag154
ag161
ag168
asg21
I0
sg66
S'1370'
p173
sba(iArchitecture
Cluster
p174
(dp175
g7
(lp176
(iArchitecture
Entity
p177
(dp178
g11
(lp179
sg13
S'android.text.style.BulletSpan'
p180
sg15
(lp181
sg17
(lp182
sg19
(lp183
sg21
I0
sbasg64
(lp184
g180
asg21
I0
sg66
S'170'
p185
sba(iArchitecture
Cluster
p186
(dp187
g7
(lp188
(iArchitecture
Entity
p189
(dp190
g11
(lp191
sg13
S'android.database.BulkCursorToCursorAdaptor'
p192
sg15
(lp193
sg17
(lp194
sg19
(lp195
sg21
I0
sbasg64
(lp196
g192
asg21
I0
sg66
S'270'
p197
sba(iArchitecture
Cluster
p198
(dp199
g7
(lp200
(iArchitecture
Entity
p201
(dp202
g11
(lp203
sg13
S'com.android.internal.os.CpuPowerCalculator'
p204
sg15
(lp205
sg17
(lp206
sg19
(lp207
sg21
I0
sbasg64
(lp208
g204
asg21
I0
sg66
S'370'
p209
sba(iArchitecture
Cluster
p210
(dp211
g7
(lp212
(iArchitecture
Entity
p213
(dp214
g11
(lp215
sg13
S'android.text.style.EasyEditSpan'
p216
sg15
(lp217
sg17
(lp218
sg19
(lp219
sg21
I0
sbasg64
(lp220
g216
asg21
I0
sg66
S'470'
p221
sba(iArchitecture
Cluster
p222
(dp223
g7
(lp224
(iArchitecture
Entity
p225
(dp226
g11
(lp227
sg13
S'com.android.internal.widget.TextViewInputDisabler'
p228
sg15
(lp229
sg17
(lp230
sg19
(lp231
sg21
I0
sba(iArchitecture
Entity
p232
(dp233
g11
(lp234
sg13
S'com.android.internal.widget.TextViewInputDisabler$1'
p235
sg15
(lp236
sg17
(lp237
sg19
(lp238
sg21
I0
sbasg64
(lp239
g228
ag235
asg21
I0
sg66
S'570'
p240
sba(iArchitecture
Cluster
p241
(dp242
g7
(lp243
(iArchitecture
Entity
p244
(dp245
g11
(lp246
sg13
S'com.android.server.location.FusedProxy'
p247
sg15
(lp248
sg17
(lp249
sg19
(lp250
sg21
I0
sba(iArchitecture
Entity
p251
(dp252
g11
(lp253
sg13
S'com.android.server.location.FusedProxy$1'
p254
sg15
(lp255
sg17
(lp256
sg19
(lp257
sg21
I0
sbasg64
(lp258
g247
ag254
asg21
I0
sg66
S'670'
p259
sba(iArchitecture
Cluster
p260
(dp261
g7
(lp262
(iArchitecture
Entity
p263
(dp264
g11
(lp265
sg13
S'android.service.voice.VoiceInteractionServiceInfo'
p266
sg15
(lp267
sg17
(lp268
sg19
(lp269
sg21
I0
sbasg64
(lp270
g266
asg21
I0
sg66
S'70'
p271
sba(iArchitecture
Cluster
p272
(dp273
g7
(lp274
(iArchitecture
Entity
p275
(dp276
g11
(lp277
sg13
S'android.media.effect.effects.BackDropperEffect'
p278
sg15
(lp279
sg17
(lp280
sg19
(lp281
sg21
I0
sba(iArchitecture
Entity
p282
(dp283
g11
(lp284
sg13
S'android.media.effect.effects.BackDropperEffect$1'
p285
sg15
(lp286
sg17
(lp287
sg19
(lp288
sg21
I0
sbasg64
(lp289
g278
ag285
asg21
I0
sg66
S'700'
p290
sba(iArchitecture
Cluster
p291
(dp292
g7
(lp293
(iArchitecture
Entity
p294
(dp295
g11
(lp296
sg13
S'android.net.RssiCurve'
p297
sg15
(lp298
sg17
(lp299
sg19
(lp300
sg21
I0
sba(iArchitecture
Entity
p301
(dp302
g11
(lp303
sg13
S'android.net.RssiCurve$1'
p304
sg15
(lp305
sg17
(lp306
sg19
(lp307
sg21
I0
sbasg64
(lp308
g297
ag304
asg21
I0
sg66
S'701'
p309
sba(iArchitecture
Cluster
p310
(dp311
g7
(lp312
(iArchitecture
Entity
p313
(dp314
g11
(lp315
sg13
S'android.content.pm.IntentFilterVerificationInfo'
p316
sg15
(lp317
sg17
(lp318
sg19
(lp319
sg21
I0
sba(iArchitecture
Entity
p320
(dp321
g11
(lp322
sg13
S'android.content.pm.IntentFilterVerificationInfo$1'
p323
sg15
(lp324
sg17
(lp325
sg19
(lp326
sg21
I0
sbasg64
(lp327
g316
ag323
asg21
I0
sg66
S'702'
p328
sba(iArchitecture
Cluster
p329
(dp330
g7
(lp331
(iArchitecture
Entity
p332
(dp333
g11
(lp334
sg13
S'android.net.wifi.p2p.WifiP2pDeviceList'
p335
sg15
(lp336
sg17
(lp337
sg19
(lp338
sg21
I0
sba(iArchitecture
Entity
p339
(dp340
g11
(lp341
sg13
S'android.net.wifi.p2p.WifiP2pDeviceList$1'
p342
sg15
(lp343
sg17
(lp344
sg19
(lp345
sg21
I0
sbasg64
(lp346
g335
ag342
asg21
I0
sg66
S'703'
p347
sba(iArchitecture
Cluster
p348
(dp349
g7
(lp350
(iArchitecture
Entity
p351
(dp352
g11
(lp353
sg13
S'android.nfc.TechListParcel'
p354
sg15
(lp355
sg17
(lp356
sg19
(lp357
sg21
I0
sba(iArchitecture
Entity
p358
(dp359
g11
(lp360
sg13
S'android.nfc.TechListParcel$1'
p361
sg15
(lp362
sg17
(lp363
sg19
(lp364
sg21
I0
sbasg64
(lp365
g354
ag361
asg21
I0
sg66
S'704'
p366
sba(iArchitecture
Cluster
p367
(dp368
g7
(lp369
(iArchitecture
Entity
p370
(dp371
g11
(lp372
sg13
S'android.nfc.BeamShareData'
p373
sg15
(lp374
sg17
(lp375
sg19
(lp376
sg21
I0
sba(iArchitecture
Entity
p377
(dp378
g11
(lp379
sg13
S'android.nfc.BeamShareData$1'
p380
sg15
(lp381
sg17
(lp382
sg19
(lp383
sg21
I0
sbasg64
(lp384
g373
ag380
asg21
I0
sg66
S'705'
p385
sba(iArchitecture
Cluster
p386
(dp387
g7
(lp388
(iArchitecture
Entity
p389
(dp390
g11
(lp391
sg13
S'com.android.ims.internal.uce.common.CapInfo'
p392
sg15
(lp393
sg17
(lp394
sg19
(lp395
sg21
I0
sba(iArchitecture
Entity
p396
(dp397
g11
(lp398
sg13
S'com.android.ims.internal.uce.common.CapInfo$1'
p399
sg15
(lp400
sg17
(lp401
sg19
(lp402
sg21
I0
sbasg64
(lp403
g392
ag399
asg21
I0
sg66
S'706'
p404
sba(iArchitecture
Cluster
p405
(dp406
g7
(lp407
(iArchitecture
Entity
p408
(dp409
g11
(lp410
sg13
S'android.media.PlaybackParams'
p411
sg15
(lp412
sg17
(lp413
sg19
(lp414
sg21
I0
sba(iArchitecture
Entity
p415
(dp416
g11
(lp417
sg13
S'android.media.PlaybackParams$1'
p418
sg15
(lp419
sg17
(lp420
sg19
(lp421
sg21
I0
sbasg64
(lp422
g411
ag418
asg21
I0
sg66
S'707'
p423
sba(iArchitecture
Cluster
p424
(dp425
g7
(lp426
(iArchitecture
Entity
p427
(dp428
g11
(lp429
sg13
S'android.app.ActivityManagerNative'
p430
sg15
(lp431
sg17
(lp432
sg19
(lp433
sg21
I0
sba(iArchitecture
Entity
p434
(dp435
g11
(lp436
sg13
S'android.app.ActivityManagerNative$1'
p437
sg15
(lp438
sg17
(lp439
sg19
(lp440
sg21
I0
sbasg64
(lp441
g430
ag437
asg21
I0
sg66
S'708'
p442
sba(iArchitecture
Cluster
p443
(dp444
g7
(lp445
(iArchitecture
Entity
p446
(dp447
g11
(lp448
sg13
S'android.os.PowerManagerInternal'
p449
sg15
(lp450
sg17
(lp451
sg19
(lp452
sg21
I0
sba(iArchitecture
Entity
p453
(dp454
g11
(lp455
sg13
S'android.os.PowerManagerInternal$LowPowerModeListener'
p456
sg15
(lp457
sg17
(lp458
sg19
(lp459
sg21
I0
sbasg64
(lp460
g449
ag456
asg21
I0
sg66
S'709'
p461
sba(iArchitecture
Cluster
p462
(dp463
g7
(lp464
(iArchitecture
Entity
p465
(dp466
g11
(lp467
sg13
S'android.content.pm.InstrumentationInfo'
p468
sg15
(lp469
sg17
(lp470
sg19
(lp471
sg21
I0
sba(iArchitecture
Entity
p472
(dp473
g11
(lp474
sg13
S'android.content.pm.InstrumentationInfo$1'
p475
sg15
(lp476
sg17
(lp477
sg19
(lp478
sg21
I0
sbasg64
(lp479
g468
ag475
asg21
I0
sg66
S'770'
p480
sba(iArchitecture
Cluster
p481
(dp482
g7
(lp483
(iArchitecture
Entity
p484
(dp485
g11
(lp486
sg13
S'android.inputmethodservice.IInputMethodWrapper'
p487
sg15
(lp488
sg17
(lp489
sg19
(lp490
sg21
I0
sba(iArchitecture
Entity
p491
(dp492
g11
(lp493
sg13
S'android.inputmethodservice.IInputMethodWrapper$InputMethodSessionCallbackWrapper'
p494
sg15
(lp495
sg17
(lp496
sg19
(lp497
sg21
I0
sba(iArchitecture
Entity
p498
(dp499
g11
(lp500
sg13
S'android.inputmethodservice.IInputMethodWrapper$Notifier'
p501
sg15
(lp502
sg17
(lp503
sg19
(lp504
sg21
I0
sbasg64
(lp505
g487
ag494
ag501
asg21
I0
sg66
S'870'
p506
sba(iArchitecture
Cluster
p507
(dp508
g7
(lp509
(iArchitecture
Entity
p510
(dp511
g11
(lp512
sg13
S'com.android.server.NetworkManagementSocketTagger'
p513
sg15
(lp514
sg17
(lp515
sg19
(lp516
sg21
I0
sba(iArchitecture
Entity
p517
(dp518
g11
(lp519
sg13
S'com.android.server.NetworkManagementSocketTagger$1'
p520
sg15
(lp521
sg17
(lp522
sg19
(lp523
sg21
I0
sba(iArchitecture
Entity
p524
(dp525
g11
(lp526
sg13
S'com.android.server.NetworkManagementSocketTagger$SocketTags'
p527
sg15
(lp528
sg17
(lp529
sg19
(lp530
sg21
I0
sbasg64
(lp531
g513
ag520
ag527
asg21
I0
sg66
S'970'
p532
sbasS'target_sub'
p533
S'70'
p534
sg64
(lp535
sS'is_component_arch'
p536
I01
sg66
S'7.0.0_r1'
p537
sba.