(lp0
(iArchitecture
Architecture
p1
(dp2
S'clusters'
p3
(lp4
(iArchitecture
Cluster
p5
(dp6
S'entities'
p7
(lp8
(iArchitecture
Entity
p9
(dp10
S'issue_ids'
p11
(lp12
sS'name'
p13
S'android.media.TimedText'
p14
sS'descs'
p15
(lp16
sS'labels'
p17
(lp18
sS'titles'
p19
(lp20
sS'change'
p21
I0
sba(iArchitecture
Entity
p22
(dp23
g11
(lp24
sg13
S'android.media.TimedText$CharPos'
p25
sg15
(lp26
sg17
(lp27
sg19
(lp28
sg21
I0
sba(iArchitecture
Entity
p29
(dp30
g11
(lp31
sg13
S'android.media.TimedText$Font'
p32
sg15
(lp33
sg17
(lp34
sg19
(lp35
sg21
I0
sba(iArchitecture
Entity
p36
(dp37
g11
(lp38
sg13
S'android.media.TimedText$HyperText'
p39
sg15
(lp40
sg17
(lp41
sg19
(lp42
sg21
I0
sba(iArchitecture
Entity
p43
(dp44
g11
(lp45
sg13
S'android.media.TimedText$Justification'
p46
sg15
(lp47
sg17
(lp48
sg19
(lp49
sg21
I0
sba(iArchitecture
Entity
p50
(dp51
g11
(lp52
sg13
S'android.media.TimedText$Karaoke'
p53
sg15
(lp54
sg17
(lp55
sg19
(lp56
sg21
I0
sba(iArchitecture
Entity
p57
(dp58
g11
(lp59
sg13
S'android.media.TimedText$Style'
p60
sg15
(lp61
sg17
(lp62
sg19
(lp63
sg21
I0
sbasS'classes'
p64
(lp65
g14
ag25
ag32
ag39
ag46
ag53
ag60
asg21
I0
sS'label'
p66
S'1113'
p67
sba(iArchitecture
Cluster
p68
(dp69
g7
(lp70
(iArchitecture
Entity
p71
(dp72
g11
(lp73
sg13
S'android.provider.LiveFolders'
p74
sg15
(lp75
sg17
(lp76
sg19
(lp77
sg21
I0
sbasg64
(lp78
g74
asg21
I0
sg66
S'113'
p79
sba(iArchitecture
Cluster
p80
(dp81
g7
(lp82
(iArchitecture
Entity
p83
(dp84
g11
(lp85
sg13
S'android.text.TextDirectionHeuristics'
p86
sg15
(lp87
sg17
(lp88
sg19
(lp89
sg21
I0
sba(iArchitecture
Entity
p90
(dp91
g11
(lp92
sg13
S'android.text.TextDirectionHeuristics$AnyStrong'
p93
sg15
(lp94
sg17
(lp95
sg19
(lp96
sg21
I0
sba(iArchitecture
Entity
p97
(dp98
g11
(lp99
sg13
S'android.text.TextDirectionHeuristics$FirstStrong'
p100
sg15
(lp101
sg17
(lp102
sg19
(lp103
sg21
I0
sba(iArchitecture
Entity
p104
(dp105
g11
(lp106
sg13
S'android.text.TextDirectionHeuristics$TextDirectionAlgorithm'
p107
sg15
(lp108
sg17
(lp109
sg19
(lp110
sg21
I0
sba(iArchitecture
Entity
p111
(dp112
g11
(lp113
sg13
S'android.text.TextDirectionHeuristics$TextDirectionHeuristicImpl'
p114
sg15
(lp115
sg17
(lp116
sg19
(lp117
sg21
I0
sba(iArchitecture
Entity
p118
(dp119
g11
(lp120
sg13
S'android.text.TextDirectionHeuristics$TextDirectionHeuristicInternal'
p121
sg15
(lp122
sg17
(lp123
sg19
(lp124
sg21
I0
sba(iArchitecture
Entity
p125
(dp126
g11
(lp127
sg13
S'android.text.TextDirectionHeuristics$TextDirectionHeuristicLocale'
p128
sg15
(lp129
sg17
(lp130
sg19
(lp131
sg21
I0
sbasg64
(lp132
g86
ag93
ag100
ag107
ag114
ag121
ag128
asg21
I0
sg66
S'1130'
p133
sba(iArchitecture
Cluster
p134
(dp135
g7
(lp136
(iArchitecture
Entity
p137
(dp138
g11
(lp139
sg13
S'android.drm.DrmManagerClient'
p140
sg15
(lp141
sg17
(lp142
sg19
(lp143
sg21
I0
sba(iArchitecture
Entity
p144
(dp145
g11
(lp146
sg13
S'android.drm.DrmManagerClient$EventHandler'
p147
sg15
(lp148
sg17
(lp149
sg19
(lp150
sg21
I0
sba(iArchitecture
Entity
p151
(dp152
g11
(lp153
sg13
S'android.drm.DrmManagerClient$InfoHandler'
p154
sg15
(lp155
sg17
(lp156
sg19
(lp157
sg21
I0
sba(iArchitecture
Entity
p158
(dp159
g11
(lp160
sg13
S'android.drm.DrmManagerClient$OnErrorListener'
p161
sg15
(lp162
sg17
(lp163
sg19
(lp164
sg21
I0
sba(iArchitecture
Entity
p165
(dp166
g11
(lp167
sg13
S'android.drm.DrmManagerClient$OnEventListener'
p168
sg15
(lp169
sg17
(lp170
sg19
(lp171
sg21
I0
sba(iArchitecture
Entity
p172
(dp173
g11
(lp174
sg13
S'android.drm.DrmManagerClient$OnInfoListener'
p175
sg15
(lp176
sg17
(lp177
sg19
(lp178
sg21
I0
sbasg64
(lp179
g140
ag147
ag154
ag161
ag168
ag175
asg21
I0
sg66
S'1131'
p180
sba(iArchitecture
Cluster
p181
(dp182
g7
(lp183
(iArchitecture
Entity
p184
(dp185
g11
(lp186
sg13
S'android.renderscript.RenderScript'
p187
sg15
(lp188
sg17
(lp189
sg19
(lp190
sg21
I0
sba(iArchitecture
Entity
p191
(dp192
g11
(lp193
sg13
S'android.renderscript.RenderScript$ContextType'
p194
sg15
(lp195
sg17
(lp196
sg19
(lp197
sg21
I0
sba(iArchitecture
Entity
p198
(dp199
g11
(lp200
sg13
S'android.renderscript.RenderScript$MessageThread'
p201
sg15
(lp202
sg17
(lp203
sg19
(lp204
sg21
I0
sba(iArchitecture
Entity
p205
(dp206
g11
(lp207
sg13
S'android.renderscript.RenderScript$Priority'
p208
sg15
(lp209
sg17
(lp210
sg19
(lp211
sg21
I0
sba(iArchitecture
Entity
p212
(dp213
g11
(lp214
sg13
S'android.renderscript.RenderScript$RSErrorHandler'
p215
sg15
(lp216
sg17
(lp217
sg19
(lp218
sg21
I0
sba(iArchitecture
Entity
p219
(dp220
g11
(lp221
sg13
S'android.renderscript.RenderScript$RSMessageHandler'
p222
sg15
(lp223
sg17
(lp224
sg19
(lp225
sg21
I0
sbasg64
(lp226
g187
ag194
ag201
ag208
ag215
ag222
asg21
I0
sg66
S'1132'
p227
sba(iArchitecture
Cluster
p228
(dp229
g7
(lp230
(iArchitecture
Entity
p231
(dp232
g11
(lp233
sg13
S'android.view.accessibility.AccessibilityManager'
p234
sg15
(lp235
sg17
(lp236
sg19
(lp237
sg21
I0
sba(iArchitecture
Entity
p238
(dp239
g11
(lp240
sg13
S'android.view.accessibility.AccessibilityManager$1'
p241
sg15
(lp242
sg17
(lp243
sg19
(lp244
sg21
I0
sba(iArchitecture
Entity
p245
(dp246
g11
(lp247
sg13
S'android.view.accessibility.AccessibilityManager$AccessibilityStateChangeListener'
p248
sg15
(lp249
sg17
(lp250
sg19
(lp251
sg21
I0
sba(iArchitecture
Entity
p252
(dp253
g11
(lp254
sg13
S'android.view.accessibility.AccessibilityManager$HighTextContrastChangeListener'
p255
sg15
(lp256
sg17
(lp257
sg19
(lp258
sg21
I0
sba(iArchitecture
Entity
p259
(dp260
g11
(lp261
sg13
S'android.view.accessibility.AccessibilityManager$MyHandler'
p262
sg15
(lp263
sg17
(lp264
sg19
(lp265
sg21
I0
sba(iArchitecture
Entity
p266
(dp267
g11
(lp268
sg13
S'android.view.accessibility.AccessibilityManager$TouchExplorationStateChangeListener'
p269
sg15
(lp270
sg17
(lp271
sg19
(lp272
sg21
I0
sbasg64
(lp273
g234
ag241
ag248
ag255
ag262
ag269
asg21
I0
sg66
S'1133'
p274
sba(iArchitecture
Cluster
p275
(dp276
g7
(lp277
(iArchitecture
Entity
p278
(dp279
g11
(lp280
sg13
S'android.print.PrinterCapabilitiesInfo'
p281
sg15
(lp282
sg17
(lp283
sg19
(lp284
sg21
I0
sba(iArchitecture
Entity
p285
(dp286
g11
(lp287
sg13
S'android.print.PrinterCapabilitiesInfo$1'
p288
sg15
(lp289
sg17
(lp290
sg19
(lp291
sg21
I0
sba(iArchitecture
Entity
p292
(dp293
g11
(lp294
sg13
S'android.print.PrinterCapabilitiesInfo$Builder'
p295
sg15
(lp296
sg17
(lp297
sg19
(lp298
sg21
I0
sba(iArchitecture
Entity
p299
(dp300
g11
(lp301
sg13
S'android.print.PrinterCapabilitiesInfo$Builder$_android_print_PrinterCapabilitiesInfo$Builder_setColorModes_int_colorModes_int_defaultColorMode_LambdaImpl0'
p302
sg15
(lp303
sg17
(lp304
sg19
(lp305
sg21
I0
sba(iArchitecture
Entity
p306
(dp307
g11
(lp308
sg13
S'android.print.PrinterCapabilitiesInfo$Builder$_android_print_PrinterCapabilitiesInfo$Builder_setDuplexModes_int_duplexModes_int_defaultDuplexMode_LambdaImpl0'
p309
sg15
(lp310
sg17
(lp311
sg19
(lp312
sg21
I0
sba(iArchitecture
Entity
p313
(dp314
g11
(lp315
sg13
S'android.print.PrinterCapabilitiesInfo$_void__init__android_os_Parcel_parcel_LambdaImpl0'
p316
sg15
(lp317
sg17
(lp318
sg19
(lp319
sg21
I0
sba(iArchitecture
Entity
p320
(dp321
g11
(lp322
sg13
S'android.print.PrinterCapabilitiesInfo$_void__init__android_os_Parcel_parcel_LambdaImpl1'
p323
sg15
(lp324
sg17
(lp325
sg19
(lp326
sg21
I0
sbasg64
(lp327
g281
ag288
ag295
ag302
ag309
ag316
ag323
asg21
I0
sg66
S'1134'
p328
sba(iArchitecture
Cluster
p329
(dp330
g7
(lp331
(iArchitecture
Entity
p332
(dp333
g11
(lp334
sg13
S'com.android.server.BluetoothManagerService'
p335
sg15
(lp336
sg17
(lp337
sg19
(lp338
sg21
I0
sba(iArchitecture
Entity
p339
(dp340
g11
(lp341
sg13
S'com.android.server.BluetoothManagerService$1'
p342
sg15
(lp343
sg17
(lp344
sg19
(lp345
sg21
I0
sba(iArchitecture
Entity
p346
(dp347
g11
(lp348
sg13
S'com.android.server.BluetoothManagerService$2'
p349
sg15
(lp350
sg17
(lp351
sg19
(lp352
sg21
I0
sba(iArchitecture
Entity
p353
(dp354
g11
(lp355
sg13
S'com.android.server.BluetoothManagerService$3'
p356
sg15
(lp357
sg17
(lp358
sg19
(lp359
sg21
I0
sba(iArchitecture
Entity
p360
(dp361
g11
(lp362
sg13
S'com.android.server.BluetoothManagerService$BluetoothHandler'
p363
sg15
(lp364
sg17
(lp365
sg19
(lp366
sg21
I0
sba(iArchitecture
Entity
p367
(dp368
g11
(lp369
sg13
S'com.android.server.BluetoothManagerService$BluetoothServiceConnection'
p370
sg15
(lp371
sg17
(lp372
sg19
(lp373
sg21
I0
sba(iArchitecture
Entity
p374
(dp375
g11
(lp376
sg13
S'com.android.server.BluetoothManagerService$ClientDeathRecipient'
p377
sg15
(lp378
sg17
(lp379
sg19
(lp380
sg21
I0
sba(iArchitecture
Entity
p381
(dp382
g11
(lp383
sg13
S'com.android.server.BluetoothManagerService$ProfileServiceConnections'
p384
sg15
(lp385
sg17
(lp386
sg19
(lp387
sg21
I0
sbasg64
(lp388
g335
ag342
ag349
ag356
ag363
ag370
ag377
ag384
asg21
I0
sg66
S'1135'
p389
sba(iArchitecture
Cluster
p390
(dp391
g7
(lp392
(iArchitecture
Entity
p393
(dp394
g11
(lp395
sg13
S'android.content.pm.LauncherApps'
p396
sg15
(lp397
sg17
(lp398
sg19
(lp399
sg21
I0
sba(iArchitecture
Entity
p400
(dp401
g11
(lp402
sg13
S'android.content.pm.LauncherApps$1'
p403
sg15
(lp404
sg17
(lp405
sg19
(lp406
sg21
I0
sba(iArchitecture
Entity
p407
(dp408
g11
(lp409
sg13
S'android.content.pm.LauncherApps$Callback'
p410
sg15
(lp411
sg17
(lp412
sg19
(lp413
sg21
I0
sba(iArchitecture
Entity
p414
(dp415
g11
(lp416
sg13
S'android.content.pm.LauncherApps$CallbackMessageHandler'
p417
sg15
(lp418
sg17
(lp419
sg19
(lp420
sg21
I0
sba(iArchitecture
Entity
p421
(dp422
g11
(lp423
sg13
S'android.content.pm.LauncherApps$CallbackMessageHandler$CallbackInfo'
p424
sg15
(lp425
sg17
(lp426
sg19
(lp427
sg21
I0
sba(iArchitecture
Entity
p428
(dp429
g11
(lp430
sg13
S'android.content.pm.LauncherApps$ShortcutQuery'
p431
sg15
(lp432
sg17
(lp433
sg19
(lp434
sg21
I0
sbasg64
(lp435
g396
ag403
ag410
ag417
ag424
ag431
asg21
I0
sg66
S'1136'
p436
sba(iArchitecture
Cluster
p437
(dp438
g7
(lp439
(iArchitecture
Entity
p440
(dp441
g11
(lp442
sg13
S'com.android.internal.inputmethod.InputMethodSubtypeSwitchingController'
p443
sg15
(lp444
sg17
(lp445
sg19
(lp446
sg21
I0
sba(iArchitecture
Entity
p447
(dp448
g11
(lp449
sg13
S'com.android.internal.inputmethod.InputMethodSubtypeSwitchingController$ControllerImpl'
p450
sg15
(lp451
sg17
(lp452
sg19
(lp453
sg21
I0
sba(iArchitecture
Entity
p454
(dp455
g11
(lp456
sg13
S'com.android.internal.inputmethod.InputMethodSubtypeSwitchingController$DynamicRotationList'
p457
sg15
(lp458
sg17
(lp459
sg19
(lp460
sg21
I0
sba(iArchitecture
Entity
p461
(dp462
g11
(lp463
sg13
S'com.android.internal.inputmethod.InputMethodSubtypeSwitchingController$ImeSubtypeListItem'
p464
sg15
(lp465
sg17
(lp466
sg19
(lp467
sg21
I0
sba(iArchitecture
Entity
p468
(dp469
g11
(lp470
sg13
S'com.android.internal.inputmethod.InputMethodSubtypeSwitchingController$InputMethodAndSubtypeList'
p471
sg15
(lp472
sg17
(lp473
sg19
(lp474
sg21
I0
sba(iArchitecture
Entity
p475
(dp476
g11
(lp477
sg13
S'com.android.internal.inputmethod.InputMethodSubtypeSwitchingController$InputMethodAndSubtypeList$1'
p478
sg15
(lp479
sg17
(lp480
sg19
(lp481
sg21
I0
sba(iArchitecture
Entity
p482
(dp483
g11
(lp484
sg13
S'com.android.internal.inputmethod.InputMethodSubtypeSwitchingController$StaticRotationList'
p485
sg15
(lp486
sg17
(lp487
sg19
(lp488
sg21
I0
sbasg64
(lp489
g443
ag450
ag457
ag464
ag471
ag478
ag485
asg21
I0
sg66
S'1137'
p490
sba(iArchitecture
Cluster
p491
(dp492
g7
(lp493
(iArchitecture
Entity
p494
(dp495
g11
(lp496
sg13
S'android.filterfw.io.TextGraphReader'
p497
sg15
(lp498
sg17
(lp499
sg19
(lp500
sg21
I0
sba(iArchitecture
Entity
p501
(dp502
g11
(lp503
sg13
S'android.filterfw.io.TextGraphReader$AddLibraryCommand'
p504
sg15
(lp505
sg17
(lp506
sg19
(lp507
sg21
I0
sba(iArchitecture
Entity
p508
(dp509
g11
(lp510
sg13
S'android.filterfw.io.TextGraphReader$AllocateFilterCommand'
p511
sg15
(lp512
sg17
(lp513
sg19
(lp514
sg21
I0
sba(iArchitecture
Entity
p515
(dp516
g11
(lp517
sg13
S'android.filterfw.io.TextGraphReader$Command'
p518
sg15
(lp519
sg17
(lp520
sg19
(lp521
sg21
I0
sba(iArchitecture
Entity
p522
(dp523
g11
(lp524
sg13
S'android.filterfw.io.TextGraphReader$ConnectCommand'
p525
sg15
(lp526
sg17
(lp527
sg19
(lp528
sg21
I0
sba(iArchitecture
Entity
p529
(dp530
g11
(lp531
sg13
S'android.filterfw.io.TextGraphReader$ImportPackageCommand'
p532
sg15
(lp533
sg17
(lp534
sg19
(lp535
sg21
I0
sba(iArchitecture
Entity
p536
(dp537
g11
(lp538
sg13
S'android.filterfw.io.TextGraphReader$InitFilterCommand'
p539
sg15
(lp540
sg17
(lp541
sg19
(lp542
sg21
I0
sbasg64
(lp543
g497
ag504
ag511
ag518
ag525
ag532
ag539
asg21
I0
sg66
S'1138'
p544
sba(iArchitecture
Cluster
p545
(dp546
g7
(lp547
(iArchitecture
Entity
p548
(dp549
g11
(lp550
sg13
S'android.widget.Filter'
p551
sg15
(lp552
sg17
(lp553
sg19
(lp554
sg21
I0
sba(iArchitecture
Entity
p555
(dp556
g11
(lp557
sg13
S'android.widget.Filter$Delayer'
p558
sg15
(lp559
sg17
(lp560
sg19
(lp561
sg21
I0
sba(iArchitecture
Entity
p562
(dp563
g11
(lp564
sg13
S'android.widget.Filter$FilterListener'
p565
sg15
(lp566
sg17
(lp567
sg19
(lp568
sg21
I0
sba(iArchitecture
Entity
p569
(dp570
g11
(lp571
sg13
S'android.widget.Filter$FilterResults'
p572
sg15
(lp573
sg17
(lp574
sg19
(lp575
sg21
I0
sba(iArchitecture
Entity
p576
(dp577
g11
(lp578
sg13
S'android.widget.Filter$RequestArguments'
p579
sg15
(lp580
sg17
(lp581
sg19
(lp582
sg21
I0
sba(iArchitecture
Entity
p583
(dp584
g11
(lp585
sg13
S'android.widget.Filter$RequestHandler'
p586
sg15
(lp587
sg17
(lp588
sg19
(lp589
sg21
I0
sba(iArchitecture
Entity
p590
(dp591
g11
(lp592
sg13
S'android.widget.Filter$ResultsHandler'
p593
sg15
(lp594
sg17
(lp595
sg19
(lp596
sg21
I0
sbasg64
(lp597
g551
ag558
ag565
ag572
ag579
ag586
ag593
asg21
I0
sg66
S'1139'
p598
sbasS'target_sub'
p599
S'113'
p600
sg64
(lp601
sS'is_component_arch'
p602
I01
sg66
S'7.0.0_r1'
p603
sba.