(lp0
(iArchitecture
Architecture
p1
(dp2
S'clusters'
p3
(lp4
(iArchitecture
Cluster
p5
(dp6
S'entities'
p7
(lp8
(iArchitecture
Entity
p9
(dp10
S'issue_ids'
p11
(lp12
sS'name'
p13
S'android.text.style.LocaleSpan'
p14
sS'descs'
p15
(lp16
sS'labels'
p17
(lp18
sS'titles'
p19
(lp20
sS'change'
p21
I0
sbasS'classes'
p22
(lp23
g14
asg21
I0
sS'label'
p24
S'101'
p25
sba(iArchitecture
Cluster
p26
(dp27
g7
(lp28
(iArchitecture
Entity
p29
(dp30
g11
(lp31
sg13
S'android.widget.TextClock'
p32
sg15
(lp33
sg17
(lp34
sg19
(lp35
sg21
I0
sba(iArchitecture
Entity
p36
(dp37
g11
(lp38
sg13
S'android.widget.TextClock$1'
p39
sg15
(lp40
sg17
(lp41
sg19
(lp42
sg21
I0
sba(iArchitecture
Entity
p43
(dp44
g11
(lp45
sg13
S'android.widget.TextClock$2'
p46
sg15
(lp47
sg17
(lp48
sg19
(lp49
sg21
I0
sba(iArchitecture
Entity
p50
(dp51
g11
(lp52
sg13
S'android.widget.TextClock$FormatChangeObserver'
p53
sg15
(lp54
sg17
(lp55
sg19
(lp56
sg21
I0
sbasg22
(lp57
g32
ag39
ag46
ag53
asg21
I0
sg24
S'1010'
p58
sba(iArchitecture
Cluster
p59
(dp60
g7
(lp61
(iArchitecture
Entity
p62
(dp63
g11
(lp64
sg13
S'android.view.MotionEvent'
p65
sg15
(lp66
sg17
(lp67
sg19
(lp68
sg21
I0
sba(iArchitecture
Entity
p69
(dp70
g11
(lp71
sg13
S'android.view.MotionEvent$1'
p72
sg15
(lp73
sg17
(lp74
sg19
(lp75
sg21
I0
sba(iArchitecture
Entity
p76
(dp77
g11
(lp78
sg13
S'android.view.MotionEvent$PointerCoords'
p79
sg15
(lp80
sg17
(lp81
sg19
(lp82
sg21
I0
sba(iArchitecture
Entity
p83
(dp84
g11
(lp85
sg13
S'android.view.MotionEvent$PointerProperties'
p86
sg15
(lp87
sg17
(lp88
sg19
(lp89
sg21
I0
sbasg22
(lp90
g65
ag72
ag79
ag86
asg21
I0
sg24
S'1011'
p91
sba(iArchitecture
Cluster
p92
(dp93
g7
(lp94
(iArchitecture
Entity
p95
(dp96
g11
(lp97
sg13
S'android.view.PixelCopy'
p98
sg15
(lp99
sg17
(lp100
sg19
(lp101
sg21
I0
sba(iArchitecture
Entity
p102
(dp103
g11
(lp104
sg13
S'android.view.PixelCopy$1'
p105
sg15
(lp106
sg17
(lp107
sg19
(lp108
sg21
I0
sba(iArchitecture
Entity
p109
(dp110
g11
(lp111
sg13
S'android.view.PixelCopy$OnPixelCopyFinishedListener'
p112
sg15
(lp113
sg17
(lp114
sg19
(lp115
sg21
I0
sbasg22
(lp116
g98
ag105
ag112
asg21
I0
sg24
S'1012'
p117
sba(iArchitecture
Cluster
p118
(dp119
g7
(lp120
(iArchitecture
Entity
p121
(dp122
g11
(lp123
sg13
S'android.util.Xml'
p124
sg15
(lp125
sg17
(lp126
sg19
(lp127
sg21
I0
sba(iArchitecture
Entity
p128
(dp129
g11
(lp130
sg13
S'android.util.Xml$Encoding'
p131
sg15
(lp132
sg17
(lp133
sg19
(lp134
sg21
I0
sba(iArchitecture
Entity
p135
(dp136
g11
(lp137
sg13
S'android.util.Xml$XmlSerializerFactory'
p138
sg15
(lp139
sg17
(lp140
sg19
(lp141
sg21
I0
sbasg22
(lp142
g124
ag131
ag138
asg21
I0
sg24
S'1013'
p143
sba(iArchitecture
Cluster
p144
(dp145
g7
(lp146
(iArchitecture
Entity
p147
(dp148
g11
(lp149
sg13
S'android.graphics.SurfaceTexture'
p150
sg15
(lp151
sg17
(lp152
sg19
(lp153
sg21
I0
sba(iArchitecture
Entity
p154
(dp155
g11
(lp156
sg13
S'android.graphics.SurfaceTexture$1'
p157
sg15
(lp158
sg17
(lp159
sg19
(lp160
sg21
I0
sba(iArchitecture
Entity
p161
(dp162
g11
(lp163
sg13
S'android.graphics.SurfaceTexture$OnFrameAvailableListener'
p164
sg15
(lp165
sg17
(lp166
sg19
(lp167
sg21
I0
sba(iArchitecture
Entity
p168
(dp169
g11
(lp170
sg13
S'android.graphics.SurfaceTexture$OutOfResourcesException'
p171
sg15
(lp172
sg17
(lp173
sg19
(lp174
sg21
I0
sbasg22
(lp175
g150
ag157
ag164
ag171
asg21
I0
sg24
S'1014'
p176
sba(iArchitecture
Cluster
p177
(dp178
g7
(lp179
(iArchitecture
Entity
p180
(dp181
g11
(lp182
sg13
S'android.security.KeyChain'
p183
sg15
(lp184
sg17
(lp185
sg19
(lp186
sg21
I0
sba(iArchitecture
Entity
p187
(dp188
g11
(lp189
sg13
S'android.security.KeyChain$1'
p190
sg15
(lp191
sg17
(lp192
sg19
(lp193
sg21
I0
sba(iArchitecture
Entity
p194
(dp195
g11
(lp196
sg13
S'android.security.KeyChain$AliasResponse'
p197
sg15
(lp198
sg17
(lp199
sg19
(lp200
sg21
I0
sba(iArchitecture
Entity
p201
(dp202
g11
(lp203
sg13
S'android.security.KeyChain$KeyChainConnection'
p204
sg15
(lp205
sg17
(lp206
sg19
(lp207
sg21
I0
sbasg22
(lp208
g183
ag190
ag197
ag204
asg21
I0
sg24
S'1015'
p209
sba(iArchitecture
Cluster
p210
(dp211
g7
(lp212
(iArchitecture
Entity
p213
(dp214
g11
(lp215
sg13
S'android.net.NetworkStats'
p216
sg15
(lp217
sg17
(lp218
sg19
(lp219
sg21
I0
sba(iArchitecture
Entity
p220
(dp221
g11
(lp222
sg13
S'android.net.NetworkStats$1'
p223
sg15
(lp224
sg17
(lp225
sg19
(lp226
sg21
I0
sba(iArchitecture
Entity
p227
(dp228
g11
(lp229
sg13
S'android.net.NetworkStats$Entry'
p230
sg15
(lp231
sg17
(lp232
sg19
(lp233
sg21
I0
sba(iArchitecture
Entity
p234
(dp235
g11
(lp236
sg13
S'android.net.NetworkStats$NonMonotonicObserver'
p237
sg15
(lp238
sg17
(lp239
sg19
(lp240
sg21
I0
sbasg22
(lp241
g216
ag223
ag230
ag237
asg21
I0
sg24
S'1016'
p242
sba(iArchitecture
Cluster
p243
(dp244
g7
(lp245
(iArchitecture
Entity
p246
(dp247
g11
(lp248
sg13
S'android.widget.ShareActionProvider'
p249
sg15
(lp250
sg17
(lp251
sg19
(lp252
sg21
I0
sba(iArchitecture
Entity
p253
(dp254
g11
(lp255
sg13
S'android.widget.ShareActionProvider$OnShareTargetSelectedListener'
p256
sg15
(lp257
sg17
(lp258
sg19
(lp259
sg21
I0
sba(iArchitecture
Entity
p260
(dp261
g11
(lp262
sg13
S'android.widget.ShareActionProvider$ShareActivityChooserModelPolicy'
p263
sg15
(lp264
sg17
(lp265
sg19
(lp266
sg21
I0
sba(iArchitecture
Entity
p267
(dp268
g11
(lp269
sg13
S'android.widget.ShareActionProvider$ShareMenuItemOnMenuItemClickListener'
p270
sg15
(lp271
sg17
(lp272
sg19
(lp273
sg21
I0
sbasg22
(lp274
g249
ag256
ag263
ag270
asg21
I0
sg24
S'1017'
p275
sba(iArchitecture
Cluster
p276
(dp277
g7
(lp278
(iArchitecture
Entity
p279
(dp280
g11
(lp281
sg13
S'android.os.MessageQueue'
p282
sg15
(lp283
sg17
(lp284
sg19
(lp285
sg21
I0
sba(iArchitecture
Entity
p286
(dp287
g11
(lp288
sg13
S'android.os.MessageQueue$FileDescriptorRecord'
p289
sg15
(lp290
sg17
(lp291
sg19
(lp292
sg21
I0
sba(iArchitecture
Entity
p293
(dp294
g11
(lp295
sg13
S'android.os.MessageQueue$IdleHandler'
p296
sg15
(lp297
sg17
(lp298
sg19
(lp299
sg21
I0
sba(iArchitecture
Entity
p300
(dp301
g11
(lp302
sg13
S'android.os.MessageQueue$OnFileDescriptorEventListener'
p303
sg15
(lp304
sg17
(lp305
sg19
(lp306
sg21
I0
sbasg22
(lp307
g282
ag289
ag296
ag303
asg21
I0
sg24
S'1018'
p308
sba(iArchitecture
Cluster
p309
(dp310
g7
(lp311
(iArchitecture
Entity
p312
(dp313
g11
(lp314
sg13
S'android.content.res.CompatibilityInfo'
p315
sg15
(lp316
sg17
(lp317
sg19
(lp318
sg21
I0
sba(iArchitecture
Entity
p319
(dp320
g11
(lp321
sg13
S'android.content.res.CompatibilityInfo$1'
p322
sg15
(lp323
sg17
(lp324
sg19
(lp325
sg21
I0
sba(iArchitecture
Entity
p326
(dp327
g11
(lp328
sg13
S'android.content.res.CompatibilityInfo$2'
p329
sg15
(lp330
sg17
(lp331
sg19
(lp332
sg21
I0
sba(iArchitecture
Entity
p333
(dp334
g11
(lp335
sg13
S'android.content.res.CompatibilityInfo$Translator'
p336
sg15
(lp337
sg17
(lp338
sg19
(lp339
sg21
I0
sbasg22
(lp340
g315
ag322
ag329
ag336
asg21
I0
sg24
S'1019'
p341
sba(iArchitecture
Cluster
p342
(dp343
g7
(lp344
(iArchitecture
Entity
p345
(dp346
g11
(lp347
sg13
S'android.os.CommonClock'
p348
sg15
(lp349
sg17
(lp350
sg19
(lp351
sg21
I0
sba(iArchitecture
Entity
p352
(dp353
g11
(lp354
sg13
S'android.os.CommonClock$1'
p355
sg15
(lp356
sg17
(lp357
sg19
(lp358
sg21
I0
sba(iArchitecture
Entity
p359
(dp360
g11
(lp361
sg13
S'android.os.CommonClock$OnServerDiedListener'
p362
sg15
(lp363
sg17
(lp364
sg19
(lp365
sg21
I0
sba(iArchitecture
Entity
p366
(dp367
g11
(lp368
sg13
S'android.os.CommonClock$OnTimelineChangedListener'
p369
sg15
(lp370
sg17
(lp371
sg19
(lp372
sg21
I0
sba(iArchitecture
Entity
p373
(dp374
g11
(lp375
sg13
S'android.os.CommonClock$TimelineChangedListener'
p376
sg15
(lp377
sg17
(lp378
sg19
(lp379
sg21
I0
sbasg22
(lp380
g348
ag355
ag362
ag369
ag376
asg21
I0
sg24
S'1101'
p381
sbasS'target_sub'
p382
S'101'
p383
sg22
(lp384
sS'is_component_arch'
p385
I01
sg24
S'7.0.0_r1'
p386
sba.