(lp0
(iArchitecture
Architecture
p1
(dp2
S'clusters'
p3
(lp4
(iArchitecture
Cluster
p5
(dp6
S'entities'
p7
(lp8
(iArchitecture
Entity
p9
(dp10
S'issue_ids'
p11
(lp12
sS'name'
p13
S'android.telecom.RemoteConnectionService'
p14
sS'descs'
p15
(lp16
sS'labels'
p17
(lp18
sS'titles'
p19
(lp20
sS'change'
p21
I0
sba(iArchitecture
Entity
p22
(dp23
g11
(lp24
sg13
S'android.telecom.RemoteConnectionService$1'
p25
sg15
(lp26
sg17
(lp27
sg19
(lp28
sg21
I0
sba(iArchitecture
Entity
p29
(dp30
g11
(lp31
sg13
S'android.telecom.RemoteConnectionService$1$1'
p32
sg15
(lp33
sg17
(lp34
sg19
(lp35
sg21
I0
sba(iArchitecture
Entity
p36
(dp37
g11
(lp38
sg13
S'android.telecom.RemoteConnectionService$2'
p39
sg15
(lp40
sg17
(lp41
sg19
(lp42
sg21
I0
sba(iArchitecture
Entity
p43
(dp44
g11
(lp45
sg13
S'android.telecom.RemoteConnectionService$3'
p46
sg15
(lp47
sg17
(lp48
sg19
(lp49
sg21
I0
sbasS'classes'
p50
(lp51
g14
ag25
ag32
ag39
ag46
asg21
I0
sS'label'
p52
S'1049'
p53
sba(iArchitecture
Cluster
p54
(dp55
g7
(lp56
(iArchitecture
Entity
p57
(dp58
g11
(lp59
sg13
S'android.widget.ActivityChooserView'
p60
sg15
(lp61
sg17
(lp62
sg19
(lp63
sg21
I0
sba(iArchitecture
Entity
p64
(dp65
g11
(lp66
sg13
S'android.widget.ActivityChooserView$1'
p67
sg15
(lp68
sg17
(lp69
sg19
(lp70
sg21
I0
sba(iArchitecture
Entity
p71
(dp72
g11
(lp73
sg13
S'android.widget.ActivityChooserView$2'
p74
sg15
(lp75
sg17
(lp76
sg19
(lp77
sg21
I0
sba(iArchitecture
Entity
p78
(dp79
g11
(lp80
sg13
S'android.widget.ActivityChooserView$3'
p81
sg15
(lp82
sg17
(lp83
sg19
(lp84
sg21
I0
sba(iArchitecture
Entity
p85
(dp86
g11
(lp87
sg13
S'android.widget.ActivityChooserView$4'
p88
sg15
(lp89
sg17
(lp90
sg19
(lp91
sg21
I0
sba(iArchitecture
Entity
p92
(dp93
g11
(lp94
sg13
S'android.widget.ActivityChooserView$5'
p95
sg15
(lp96
sg17
(lp97
sg19
(lp98
sg21
I0
sba(iArchitecture
Entity
p99
(dp100
g11
(lp101
sg13
S'android.widget.ActivityChooserView$ActivityChooserViewAdapter'
p102
sg15
(lp103
sg17
(lp104
sg19
(lp105
sg21
I0
sba(iArchitecture
Entity
p106
(dp107
g11
(lp108
sg13
S'android.widget.ActivityChooserView$Callbacks'
p109
sg15
(lp110
sg17
(lp111
sg19
(lp112
sg21
I0
sbasg50
(lp113
g60
ag67
ag74
ag81
ag88
ag95
ag102
ag109
asg21
I0
sg52
S'1149'
p114
sba(iArchitecture
Cluster
p115
(dp116
g7
(lp117
(iArchitecture
Entity
p118
(dp119
g11
(lp120
sg13
S'com.android.internal.os.BluetoothPowerCalculator'
p121
sg15
(lp122
sg17
(lp123
sg19
(lp124
sg21
I0
sba(iArchitecture
Entity
p125
(dp126
g11
(lp127
sg13
S'com.android.internal.os.WifiPowerCalculator'
p128
sg15
(lp129
sg17
(lp130
sg19
(lp131
sg21
I0
sbasg50
(lp132
g121
ag128
asg21
I0
sg52
S'1249'
p133
sba(iArchitecture
Cluster
p134
(dp135
g7
(lp136
(iArchitecture
Entity
p137
(dp138
g11
(lp139
sg13
S'com.android.server.job.controllers.DeviceIdleJobsController'
p140
sg15
(lp141
sg17
(lp142
sg19
(lp143
sg21
I0
sba(iArchitecture
Entity
p144
(dp145
g11
(lp146
sg13
S'com.android.server.job.controllers.DeviceIdleJobsController$1'
p147
sg15
(lp148
sg17
(lp149
sg19
(lp150
sg21
I0
sba(iArchitecture
Entity
p151
(dp152
g11
(lp153
sg13
S'com.android.server.job.controllers.DeviceIdleJobsController$2'
p154
sg15
(lp155
sg17
(lp156
sg19
(lp157
sg21
I0
sba(iArchitecture
Entity
p158
(dp159
g11
(lp160
sg13
S'com.android.server.job.controllers.DeviceIdleJobsController$3'
p161
sg15
(lp162
sg17
(lp163
sg19
(lp164
sg21
I0
sba(iArchitecture
Entity
p165
(dp166
g11
(lp167
sg13
S'com.android.server.job.controllers.IdleController'
p168
sg15
(lp169
sg17
(lp170
sg19
(lp171
sg21
I0
sba(iArchitecture
Entity
p172
(dp173
g11
(lp174
sg13
S'com.android.server.job.controllers.IdleController$IdlenessTracker'
p175
sg15
(lp176
sg17
(lp177
sg19
(lp178
sg21
I0
sbasg50
(lp179
g140
ag147
ag154
ag161
ag168
ag175
asg21
I0
sg52
S'1349'
p180
sba(iArchitecture
Cluster
p181
(dp182
g7
(lp183
(iArchitecture
Entity
p184
(dp185
g11
(lp186
sg13
S'android.hardware.soundtrigger.KeyphraseEnrollmentInfo'
p187
sg15
(lp188
sg17
(lp189
sg19
(lp190
sg21
I0
sbasg50
(lp191
g187
asg21
I0
sg52
S'149'
p192
sba(iArchitecture
Cluster
p193
(dp194
g7
(lp195
(iArchitecture
Entity
p196
(dp197
g11
(lp198
sg13
S'android.opengl.GLErrorWrapper'
p199
sg15
(lp200
sg17
(lp201
sg19
(lp202
sg21
I0
sbasg50
(lp203
g199
asg21
I0
sg52
S'249'
p204
sba(iArchitecture
Cluster
p205
(dp206
g7
(lp207
(iArchitecture
Entity
p208
(dp209
g11
(lp210
sg13
S'android.filterfw.format.PrimitiveFormat'
p211
sg15
(lp212
sg17
(lp213
sg19
(lp214
sg21
I0
sbasg50
(lp215
g211
asg21
I0
sg52
S'349'
p216
sba(iArchitecture
Cluster
p217
(dp218
g7
(lp219
(iArchitecture
Entity
p220
(dp221
g11
(lp222
sg13
S'com.android.server.wm.animation.ClipRectTBAnimation'
p223
sg15
(lp224
sg17
(lp225
sg19
(lp226
sg21
I0
sbasg50
(lp227
g223
asg21
I0
sg52
S'449'
p228
sba(iArchitecture
Cluster
p229
(dp230
g7
(lp231
(iArchitecture
Entity
p232
(dp233
g11
(lp234
sg13
S'android.widget.RtlSpacingHelper'
p235
sg15
(lp236
sg17
(lp237
sg19
(lp238
sg21
I0
sbasg50
(lp239
g235
asg21
I0
sg52
S'49'
p240
sba(iArchitecture
Cluster
p241
(dp242
g7
(lp243
(iArchitecture
Entity
p244
(dp245
g11
(lp246
sg13
S'android.inputmethodservice.CompactExtractEditLayout'
p247
sg15
(lp248
sg17
(lp249
sg19
(lp250
sg21
I0
sbasg50
(lp251
g247
asg21
I0
sg52
S'490'
p252
sba(iArchitecture
Cluster
p253
(dp254
g7
(lp255
(iArchitecture
Entity
p256
(dp257
g11
(lp258
sg13
S'com.android.internal.telephony.CarrierAppUtils'
p259
sg15
(lp260
sg17
(lp261
sg19
(lp262
sg21
I0
sbasg50
(lp263
g259
asg21
I0
sg52
S'491'
p264
sba(iArchitecture
Cluster
p265
(dp266
g7
(lp267
(iArchitecture
Entity
p268
(dp269
g11
(lp270
sg13
S'android.hardware.location.ContextHubInfo'
p271
sg15
(lp272
sg17
(lp273
sg19
(lp274
sg21
I0
sba(iArchitecture
Entity
p275
(dp276
g11
(lp277
sg13
S'android.hardware.location.ContextHubInfo$1'
p278
sg15
(lp279
sg17
(lp280
sg19
(lp281
sg21
I0
sbasg50
(lp282
g271
ag278
asg21
I0
sg52
S'492'
p283
sba(iArchitecture
Cluster
p284
(dp285
g7
(lp286
(iArchitecture
Entity
p287
(dp288
g11
(lp289
sg13
S'android.view.InputChannel'
p290
sg15
(lp291
sg17
(lp292
sg19
(lp293
sg21
I0
sba(iArchitecture
Entity
p294
(dp295
g11
(lp296
sg13
S'android.view.InputChannel$1'
p297
sg15
(lp298
sg17
(lp299
sg19
(lp300
sg21
I0
sbasg50
(lp301
g290
ag297
asg21
I0
sg52
S'493'
p302
sba(iArchitecture
Cluster
p303
(dp304
g7
(lp305
(iArchitecture
Entity
p306
(dp307
g11
(lp308
sg13
S'android.view.accessibility.AccessibilityWindowInfo'
p309
sg15
(lp310
sg17
(lp311
sg19
(lp312
sg21
I0
sba(iArchitecture
Entity
p313
(dp314
g11
(lp315
sg13
S'android.view.accessibility.AccessibilityWindowInfo$1'
p316
sg15
(lp317
sg17
(lp318
sg19
(lp319
sg21
I0
sbasg50
(lp320
g309
ag316
asg21
I0
sg52
S'494'
p321
sba(iArchitecture
Cluster
p322
(dp323
g7
(lp324
(iArchitecture
Entity
p325
(dp326
g11
(lp327
sg13
S'org.apache.http.conn.ssl.SSLSocketFactory'
p328
sg15
(lp329
sg17
(lp330
sg19
(lp331
sg21
I0
sba(iArchitecture
Entity
p332
(dp333
g11
(lp334
sg13
S'org.apache.http.conn.ssl.SSLSocketFactory$NoPreloadHolder'
p335
sg15
(lp336
sg17
(lp337
sg19
(lp338
sg21
I0
sbasg50
(lp339
g328
ag335
asg21
I0
sg52
S'495'
p340
sba(iArchitecture
Cluster
p341
(dp342
g7
(lp343
(iArchitecture
Entity
p344
(dp345
g11
(lp346
sg13
S'com.android.server.policy.BarController'
p347
sg15
(lp348
sg17
(lp349
sg19
(lp350
sg21
I0
sba(iArchitecture
Entity
p351
(dp352
g11
(lp353
sg13
S'com.android.server.policy.BarController$1'
p354
sg15
(lp355
sg17
(lp356
sg19
(lp357
sg21
I0
sbasg50
(lp358
g347
ag354
asg21
I0
sg52
S'496'
p359
sba(iArchitecture
Cluster
p360
(dp361
g7
(lp362
(iArchitecture
Entity
p363
(dp364
g11
(lp365
sg13
S'android.content.pm.UserInfo'
p366
sg15
(lp367
sg17
(lp368
sg19
(lp369
sg21
I0
sba(iArchitecture
Entity
p370
(dp371
g11
(lp372
sg13
S'android.content.pm.UserInfo$1'
p373
sg15
(lp374
sg17
(lp375
sg19
(lp376
sg21
I0
sbasg50
(lp377
g366
ag373
asg21
I0
sg52
S'497'
p378
sba(iArchitecture
Cluster
p379
(dp380
g7
(lp381
(iArchitecture
Entity
p382
(dp383
g11
(lp384
sg13
S'android.content.UriPermission'
p385
sg15
(lp386
sg17
(lp387
sg19
(lp388
sg21
I0
sba(iArchitecture
Entity
p389
(dp390
g11
(lp391
sg13
S'android.content.UriPermission$1'
p392
sg15
(lp393
sg17
(lp394
sg19
(lp395
sg21
I0
sbasg50
(lp396
g385
ag392
asg21
I0
sg52
S'498'
p397
sba(iArchitecture
Cluster
p398
(dp399
g7
(lp400
(iArchitecture
Entity
p401
(dp402
g11
(lp403
sg13
S'com.android.internal.app.LocaleStore'
p404
sg15
(lp405
sg17
(lp406
sg19
(lp407
sg21
I0
sba(iArchitecture
Entity
p408
(dp409
g11
(lp410
sg13
S'com.android.internal.app.LocaleStore$LocaleInfo'
p411
sg15
(lp412
sg17
(lp413
sg19
(lp414
sg21
I0
sbasg50
(lp415
g404
ag411
asg21
I0
sg52
S'499'
p416
sba(iArchitecture
Cluster
p417
(dp418
g7
(lp419
(iArchitecture
Entity
p420
(dp421
g11
(lp422
sg13
S'android.app.assist.AssistContent'
p423
sg15
(lp424
sg17
(lp425
sg19
(lp426
sg21
I0
sba(iArchitecture
Entity
p427
(dp428
g11
(lp429
sg13
S'android.app.assist.AssistContent$1'
p430
sg15
(lp431
sg17
(lp432
sg19
(lp433
sg21
I0
sbasg50
(lp434
g423
ag430
asg21
I0
sg52
S'549'
p435
sba(iArchitecture
Cluster
p436
(dp437
g7
(lp438
(iArchitecture
Entity
p439
(dp440
g11
(lp441
sg13
S'com.android.server.connectivity.KeepaliveTracker'
p442
sg15
(lp443
sg17
(lp444
sg19
(lp445
sg21
I0
sba(iArchitecture
Entity
p446
(dp447
g11
(lp448
sg13
S'com.android.server.connectivity.KeepaliveTracker$KeepaliveInfo'
p449
sg15
(lp450
sg17
(lp451
sg19
(lp452
sg21
I0
sbasg50
(lp453
g442
ag449
asg21
I0
sg52
S'649'
p454
sba(iArchitecture
Cluster
p455
(dp456
g7
(lp457
(iArchitecture
Entity
p458
(dp459
g11
(lp460
sg13
S'android.bluetooth.BluetoothGattCharacteristic'
p461
sg15
(lp462
sg17
(lp463
sg19
(lp464
sg21
I0
sba(iArchitecture
Entity
p465
(dp466
g11
(lp467
sg13
S'android.bluetooth.BluetoothGattCharacteristic$1'
p468
sg15
(lp469
sg17
(lp470
sg19
(lp471
sg21
I0
sbasg50
(lp472
g461
ag468
asg21
I0
sg52
S'749'
p473
sba(iArchitecture
Cluster
p474
(dp475
g7
(lp476
(iArchitecture
Entity
p477
(dp478
g11
(lp479
sg13
S'android.preference.PreferenceGroupAdapter'
p480
sg15
(lp481
sg17
(lp482
sg19
(lp483
sg21
I0
sba(iArchitecture
Entity
p484
(dp485
g11
(lp486
sg13
S'android.preference.PreferenceGroupAdapter$1'
p487
sg15
(lp488
sg17
(lp489
sg19
(lp490
sg21
I0
sba(iArchitecture
Entity
p491
(dp492
g11
(lp493
sg13
S'android.preference.PreferenceGroupAdapter$PreferenceLayout'
p494
sg15
(lp495
sg17
(lp496
sg19
(lp497
sg21
I0
sbasg50
(lp498
g480
ag487
ag494
asg21
I0
sg52
S'849'
p499
sba(iArchitecture
Cluster
p500
(dp501
g7
(lp502
(iArchitecture
Entity
p503
(dp504
g11
(lp505
sg13
S'android.app.DatePickerDialog'
p506
sg15
(lp507
sg17
(lp508
sg19
(lp509
sg21
I0
sba(iArchitecture
Entity
p510
(dp511
g11
(lp512
sg13
S'android.app.DatePickerDialog$1'
p513
sg15
(lp514
sg17
(lp515
sg19
(lp516
sg21
I0
sba(iArchitecture
Entity
p517
(dp518
g11
(lp519
sg13
S'android.app.DatePickerDialog$OnDateSetListener'
p520
sg15
(lp521
sg17
(lp522
sg19
(lp523
sg21
I0
sbasg50
(lp524
g506
ag513
ag520
asg21
I0
sg52
S'949'
p525
sbasS'target_sub'
p526
S'49'
p527
sg50
(lp528
sS'is_component_arch'
p529
I01
sg52
S'7.0.0_r1'
p530
sba.