(lp0
(iArchitecture
Architecture
p1
(dp2
S'clusters'
p3
(lp4
(iArchitecture
Cluster
p5
(dp6
S'entities'
p7
(lp8
(iArchitecture
Entity
p9
(dp10
S'issue_ids'
p11
(lp12
sS'name'
p13
S'android.hardware.location.GeofenceHardwareRequest'
p14
sS'descs'
p15
(lp16
sS'labels'
p17
(lp18
sS'titles'
p19
(lp20
sS'change'
p21
I0
sbasS'classes'
p22
(lp23
g14
asg21
I0
sS'label'
p24
S'103'
p25
sba(iArchitecture
Cluster
p26
(dp27
g7
(lp28
(iArchitecture
Entity
p29
(dp30
g11
(lp31
sg13
S'com.android.internal.widget.AutoScrollHelper'
p32
sg15
(lp33
sg17
(lp34
sg19
(lp35
sg21
I0
sba(iArchitecture
Entity
p36
(dp37
g11
(lp38
sg13
S'com.android.internal.widget.AutoScrollHelper$AbsListViewAutoScroller'
p39
sg15
(lp40
sg17
(lp41
sg19
(lp42
sg21
I0
sba(iArchitecture
Entity
p43
(dp44
g11
(lp45
sg13
S'com.android.internal.widget.AutoScrollHelper$ClampedScroller'
p46
sg15
(lp47
sg17
(lp48
sg19
(lp49
sg21
I0
sba(iArchitecture
Entity
p50
(dp51
g11
(lp52
sg13
S'com.android.internal.widget.AutoScrollHelper$ScrollAnimationRunnable'
p53
sg15
(lp54
sg17
(lp55
sg19
(lp56
sg21
I0
sbasg22
(lp57
g32
ag39
ag46
ag53
asg21
I0
sg24
S'1030'
p58
sba(iArchitecture
Cluster
p59
(dp60
g7
(lp61
(iArchitecture
Entity
p62
(dp63
g11
(lp64
sg13
S'com.android.server.display.VirtualDisplayAdapter'
p65
sg15
(lp66
sg17
(lp67
sg19
(lp68
sg21
I0
sba(iArchitecture
Entity
p69
(dp70
g11
(lp71
sg13
S'com.android.server.display.VirtualDisplayAdapter$Callback'
p72
sg15
(lp73
sg17
(lp74
sg19
(lp75
sg21
I0
sba(iArchitecture
Entity
p76
(dp77
g11
(lp78
sg13
S'com.android.server.display.VirtualDisplayAdapter$MediaProjectionCallback'
p79
sg15
(lp80
sg17
(lp81
sg19
(lp82
sg21
I0
sba(iArchitecture
Entity
p83
(dp84
g11
(lp85
sg13
S'com.android.server.display.VirtualDisplayAdapter$VirtualDisplayDevice'
p86
sg15
(lp87
sg17
(lp88
sg19
(lp89
sg21
I0
sbasg22
(lp90
g65
ag72
ag79
ag86
asg21
I0
sg24
S'1031'
p91
sba(iArchitecture
Cluster
p92
(dp93
g7
(lp94
(iArchitecture
Entity
p95
(dp96
g11
(lp97
sg13
S'android.net.Network'
p98
sg15
(lp99
sg17
(lp100
sg19
(lp101
sg21
I0
sba(iArchitecture
Entity
p102
(dp103
g11
(lp104
sg13
S'android.net.Network$1'
p105
sg15
(lp106
sg17
(lp107
sg19
(lp108
sg21
I0
sba(iArchitecture
Entity
p109
(dp110
g11
(lp111
sg13
S'android.net.Network$2'
p112
sg15
(lp113
sg17
(lp114
sg19
(lp115
sg21
I0
sba(iArchitecture
Entity
p116
(dp117
g11
(lp118
sg13
S'android.net.Network$NetworkBoundSocketFactory'
p119
sg15
(lp120
sg17
(lp121
sg19
(lp122
sg21
I0
sbasg22
(lp123
g98
ag105
ag112
ag119
asg21
I0
sg24
S'1032'
p124
sba(iArchitecture
Cluster
p125
(dp126
g7
(lp127
(iArchitecture
Entity
p128
(dp129
g11
(lp130
sg13
S'com.android.server.print.RemotePrintServiceRecommendationService'
p131
sg15
(lp132
sg17
(lp133
sg19
(lp134
sg21
I0
sba(iArchitecture
Entity
p135
(dp136
g11
(lp137
sg13
S'com.android.server.print.RemotePrintServiceRecommendationService$Connection'
p138
sg15
(lp139
sg17
(lp140
sg19
(lp141
sg21
I0
sba(iArchitecture
Entity
p142
(dp143
g11
(lp144
sg13
S'com.android.server.print.RemotePrintServiceRecommendationService$Connection$1'
p145
sg15
(lp146
sg17
(lp147
sg19
(lp148
sg21
I0
sba(iArchitecture
Entity
p149
(dp150
g11
(lp151
sg13
S'com.android.server.print.RemotePrintServiceRecommendationService$RemotePrintServiceRecommendationServiceCallbacks'
p152
sg15
(lp153
sg17
(lp154
sg19
(lp155
sg21
I0
sbasg22
(lp156
g131
ag138
ag145
ag152
asg21
I0
sg24
S'1033'
p157
sba(iArchitecture
Cluster
p158
(dp159
g7
(lp160
(iArchitecture
Entity
p161
(dp162
g11
(lp163
sg13
S'android.net.LinkProperties'
p164
sg15
(lp165
sg17
(lp166
sg19
(lp167
sg21
I0
sba(iArchitecture
Entity
p168
(dp169
g11
(lp170
sg13
S'android.net.LinkProperties$1'
p171
sg15
(lp172
sg17
(lp173
sg19
(lp174
sg21
I0
sba(iArchitecture
Entity
p175
(dp176
g11
(lp177
sg13
S'android.net.LinkProperties$CompareResult'
p178
sg15
(lp179
sg17
(lp180
sg19
(lp181
sg21
I0
sba(iArchitecture
Entity
p182
(dp183
g11
(lp184
sg13
S'android.net.LinkProperties$ProvisioningChange'
p185
sg15
(lp186
sg17
(lp187
sg19
(lp188
sg21
I0
sbasg22
(lp189
g164
ag171
ag178
ag185
asg21
I0
sg24
S'1034'
p190
sba(iArchitecture
Cluster
p191
(dp192
g7
(lp193
(iArchitecture
Entity
p194
(dp195
g11
(lp196
sg13
S'android.content.pm.PackageManagerInternal'
p197
sg15
(lp198
sg17
(lp199
sg19
(lp200
sg21
I0
sba(iArchitecture
Entity
p201
(dp202
g11
(lp203
sg13
S'android.content.pm.PackageManagerInternal$PackagesProvider'
p204
sg15
(lp205
sg17
(lp206
sg19
(lp207
sg21
I0
sba(iArchitecture
Entity
p208
(dp209
g11
(lp210
sg13
S'android.content.pm.PackageManagerInternal$SyncAdapterPackagesProvider'
p211
sg15
(lp212
sg17
(lp213
sg19
(lp214
sg21
I0
sbasg22
(lp215
g197
ag204
ag211
asg21
I0
sg24
S'1035'
p216
sba(iArchitecture
Cluster
p217
(dp218
g7
(lp219
(iArchitecture
Entity
p220
(dp221
g11
(lp222
sg13
S'android.bluetooth.le.BluetoothLeAdvertiser'
p223
sg15
(lp224
sg17
(lp225
sg19
(lp226
sg21
I0
sba(iArchitecture
Entity
p227
(dp228
g11
(lp229
sg13
S'android.bluetooth.le.BluetoothLeAdvertiser$1'
p230
sg15
(lp231
sg17
(lp232
sg19
(lp233
sg21
I0
sba(iArchitecture
Entity
p234
(dp235
g11
(lp236
sg13
S'android.bluetooth.le.BluetoothLeAdvertiser$2'
p237
sg15
(lp238
sg17
(lp239
sg19
(lp240
sg21
I0
sba(iArchitecture
Entity
p241
(dp242
g11
(lp243
sg13
S'android.bluetooth.le.BluetoothLeAdvertiser$AdvertiseCallbackWrapper'
p244
sg15
(lp245
sg17
(lp246
sg19
(lp247
sg21
I0
sbasg22
(lp248
g223
ag230
ag237
ag244
asg21
I0
sg24
S'1036'
p249
sba(iArchitecture
Cluster
p250
(dp251
g7
(lp252
(iArchitecture
Entity
p253
(dp254
g11
(lp255
sg13
S'android.net.IpConfiguration'
p256
sg15
(lp257
sg17
(lp258
sg19
(lp259
sg21
I0
sba(iArchitecture
Entity
p260
(dp261
g11
(lp262
sg13
S'android.net.IpConfiguration$1'
p263
sg15
(lp264
sg17
(lp265
sg19
(lp266
sg21
I0
sba(iArchitecture
Entity
p267
(dp268
g11
(lp269
sg13
S'android.net.IpConfiguration$IpAssignment'
p270
sg15
(lp271
sg17
(lp272
sg19
(lp273
sg21
I0
sba(iArchitecture
Entity
p274
(dp275
g11
(lp276
sg13
S'android.net.IpConfiguration$ProxySettings'
p277
sg15
(lp278
sg17
(lp279
sg19
(lp280
sg21
I0
sbasg22
(lp281
g256
ag263
ag270
ag277
asg21
I0
sg24
S'1037'
p282
sba(iArchitecture
Cluster
p283
(dp284
g7
(lp285
(iArchitecture
Entity
p286
(dp287
g11
(lp288
sg13
S'android.security.net.config.NetworkSecurityConfig'
p289
sg15
(lp290
sg17
(lp291
sg19
(lp292
sg21
I0
sba(iArchitecture
Entity
p293
(dp294
g11
(lp295
sg13
S'android.security.net.config.NetworkSecurityConfig$1'
p296
sg15
(lp297
sg17
(lp298
sg19
(lp299
sg21
I0
sba(iArchitecture
Entity
p300
(dp301
g11
(lp302
sg13
S'android.security.net.config.NetworkSecurityConfig$Builder'
p303
sg15
(lp304
sg17
(lp305
sg19
(lp306
sg21
I0
sbasg22
(lp307
g289
ag296
ag303
asg21
I0
sg24
S'1038'
p308
sba(iArchitecture
Cluster
p309
(dp310
g7
(lp311
(iArchitecture
Entity
p312
(dp313
g11
(lp314
sg13
S'com.android.server.vr.SettingsObserver'
p315
sg15
(lp316
sg17
(lp317
sg19
(lp318
sg21
I0
sba(iArchitecture
Entity
p319
(dp320
g11
(lp321
sg13
S'com.android.server.vr.SettingsObserver$1'
p322
sg15
(lp323
sg17
(lp324
sg19
(lp325
sg21
I0
sba(iArchitecture
Entity
p326
(dp327
g11
(lp328
sg13
S'com.android.server.vr.SettingsObserver$2'
p329
sg15
(lp330
sg17
(lp331
sg19
(lp332
sg21
I0
sba(iArchitecture
Entity
p333
(dp334
g11
(lp335
sg13
S'com.android.server.vr.SettingsObserver$SettingChangeListener'
p336
sg15
(lp337
sg17
(lp338
sg19
(lp339
sg21
I0
sbasg22
(lp340
g315
ag322
ag329
ag336
asg21
I0
sg24
S'1039'
p341
sba(iArchitecture
Cluster
p342
(dp343
g7
(lp344
(iArchitecture
Entity
p345
(dp346
g11
(lp347
sg13
S'android.media.ExifInterface'
p348
sg15
(lp349
sg17
(lp350
sg19
(lp351
sg21
I0
sba(iArchitecture
Entity
p352
(dp353
g11
(lp354
sg13
S'android.media.ExifInterface$ByteOrderAwarenessDataInputStream'
p355
sg15
(lp356
sg17
(lp357
sg19
(lp358
sg21
I0
sba(iArchitecture
Entity
p359
(dp360
g11
(lp361
sg13
S'android.media.ExifInterface$ByteOrderAwarenessDataOutputStream'
p362
sg15
(lp363
sg17
(lp364
sg19
(lp365
sg21
I0
sba(iArchitecture
Entity
p366
(dp367
g11
(lp368
sg13
S'android.media.ExifInterface$ExifAttribute'
p369
sg15
(lp370
sg17
(lp371
sg19
(lp372
sg21
I0
sba(iArchitecture
Entity
p373
(dp374
g11
(lp375
sg13
S'android.media.ExifInterface$ExifTag'
p376
sg15
(lp377
sg17
(lp378
sg19
(lp379
sg21
I0
sba(iArchitecture
Entity
p380
(dp381
g11
(lp382
sg13
S'android.media.ExifInterface$Rational'
p383
sg15
(lp384
sg17
(lp385
sg19
(lp386
sg21
I0
sbasg22
(lp387
g348
ag355
ag362
ag369
ag376
ag383
asg21
I0
sg24
S'1103'
p388
sbasS'target_sub'
p389
S'103'
p390
sg22
(lp391
sS'is_component_arch'
p392
I01
sg24
S'7.0.0_r1'
p393
sba.