(lp0
(iArchitecture
Architecture
p1
(dp2
S'clusters'
p3
(lp4
(iArchitecture
Cluster
p5
(dp6
S'entities'
p7
(lp8
(iArchitecture
Entity
p9
(dp10
S'issue_ids'
p11
(lp12
sS'name'
p13
S'com.android.server.policy.StatusBarController'
p14
sS'descs'
p15
(lp16
sS'labels'
p17
(lp18
sS'titles'
p19
(lp20
sS'change'
p21
I0
sba(iArchitecture
Entity
p22
(dp23
g11
(lp24
sg13
S'com.android.server.policy.StatusBarController$1'
p25
sg15
(lp26
sg17
(lp27
sg19
(lp28
sg21
I0
sba(iArchitecture
Entity
p29
(dp30
g11
(lp31
sg13
S'com.android.server.policy.StatusBarController$1$1'
p32
sg15
(lp33
sg17
(lp34
sg19
(lp35
sg21
I0
sba(iArchitecture
Entity
p36
(dp37
g11
(lp38
sg13
S'com.android.server.policy.StatusBarController$1$2'
p39
sg15
(lp40
sg17
(lp41
sg19
(lp42
sg21
I0
sba(iArchitecture
Entity
p43
(dp44
g11
(lp45
sg13
S'com.android.server.policy.StatusBarController$1$3'
p46
sg15
(lp47
sg17
(lp48
sg19
(lp49
sg21
I0
sba(iArchitecture
Entity
p50
(dp51
g11
(lp52
sg13
S'com.android.server.policy.StatusBarController$1$4'
p53
sg15
(lp54
sg17
(lp55
sg19
(lp56
sg21
I0
sbasS'classes'
p57
(lp58
g14
ag25
ag32
ag39
ag46
ag53
asg21
I0
sS'label'
p59
S'1052'
p60
sba(iArchitecture
Cluster
p61
(dp62
g7
(lp63
(iArchitecture
Entity
p64
(dp65
g11
(lp66
sg13
S'android.service.dreams.DreamService'
p67
sg15
(lp68
sg17
(lp69
sg19
(lp70
sg21
I0
sba(iArchitecture
Entity
p71
(dp72
g11
(lp73
sg13
S'android.service.dreams.DreamService$1'
p74
sg15
(lp75
sg17
(lp76
sg19
(lp77
sg21
I0
sba(iArchitecture
Entity
p78
(dp79
g11
(lp80
sg13
S'android.service.dreams.DreamService$2'
p81
sg15
(lp82
sg17
(lp83
sg19
(lp84
sg21
I0
sba(iArchitecture
Entity
p85
(dp86
g11
(lp87
sg13
S'android.service.dreams.DreamService$DreamServiceWrapper'
p88
sg15
(lp89
sg17
(lp90
sg19
(lp91
sg21
I0
sba(iArchitecture
Entity
p92
(dp93
g11
(lp94
sg13
S'android.service.dreams.DreamService$DreamServiceWrapper$1'
p95
sg15
(lp96
sg17
(lp97
sg19
(lp98
sg21
I0
sba(iArchitecture
Entity
p99
(dp100
g11
(lp101
sg13
S'android.service.dreams.DreamService$DreamServiceWrapper$2'
p102
sg15
(lp103
sg17
(lp104
sg19
(lp105
sg21
I0
sba(iArchitecture
Entity
p106
(dp107
g11
(lp108
sg13
S'android.service.dreams.DreamService$DreamServiceWrapper$3'
p109
sg15
(lp110
sg17
(lp111
sg19
(lp112
sg21
I0
sbasg57
(lp113
g67
ag74
ag81
ag88
ag95
ag102
ag109
asg21
I0
sg59
S'1152'
p114
sba(iArchitecture
Cluster
p115
(dp116
g7
(lp117
(iArchitecture
Entity
p118
(dp119
g11
(lp120
sg13
S'com.android.server.location.MockProvider'
p121
sg15
(lp122
sg17
(lp123
sg19
(lp124
sg21
I0
sba(iArchitecture
Entity
p125
(dp126
g11
(lp127
sg13
S'com.android.server.location.PassiveProvider'
p128
sg15
(lp129
sg17
(lp130
sg19
(lp131
sg21
I0
sbasg57
(lp132
g121
ag128
asg21
I0
sg59
S'1252'
p133
sba(iArchitecture
Cluster
p134
(dp135
g7
(lp136
(iArchitecture
Entity
p137
(dp138
g11
(lp139
sg13
S'android.annotation.IntDef'
p140
sg15
(lp141
sg17
(lp142
sg19
(lp143
sg21
I0
sba(iArchitecture
Entity
p144
(dp145
g11
(lp146
sg13
S'android.view.HapticFeedbackConstants'
p147
sg15
(lp148
sg17
(lp149
sg19
(lp150
sg21
I0
sbasg57
(lp151
g140
ag147
asg21
I0
sg59
S'1352'
p152
sba(iArchitecture
Cluster
p153
(dp154
g7
(lp155
(iArchitecture
Entity
p156
(dp157
g11
(lp158
sg13
S'com.android.server.soundtrigger.SoundTriggerInternal'
p159
sg15
(lp160
sg17
(lp161
sg19
(lp162
sg21
I0
sbasg57
(lp163
g159
asg21
I0
sg59
S'152'
p164
sba(iArchitecture
Cluster
p165
(dp166
g7
(lp167
(iArchitecture
Entity
p168
(dp169
g11
(lp170
sg13
S'com.android.internal.view.animation.FallbackLUTInterpolator'
p171
sg15
(lp172
sg17
(lp173
sg19
(lp174
sg21
I0
sbasg57
(lp175
g171
asg21
I0
sg59
S'252'
p176
sba(iArchitecture
Cluster
p177
(dp178
g7
(lp179
(iArchitecture
Entity
p180
(dp181
g11
(lp182
sg13
S'android.hardware.camera2.legacy.RequestQueue'
p183
sg15
(lp184
sg17
(lp185
sg19
(lp186
sg21
I0
sbasg57
(lp187
g183
asg21
I0
sg59
S'352'
p188
sba(iArchitecture
Cluster
p189
(dp190
g7
(lp191
(iArchitecture
Entity
p192
(dp193
g11
(lp194
sg13
S'android.hardware.camera2.params.Face'
p195
sg15
(lp196
sg17
(lp197
sg19
(lp198
sg21
I0
sbasg57
(lp199
g195
asg21
I0
sg59
S'452'
p200
sba(iArchitecture
Cluster
p201
(dp202
g7
(lp203
(iArchitecture
Entity
p204
(dp205
g11
(lp206
sg13
S'android.graphics.ColorMatrixColorFilter'
p207
sg15
(lp208
sg17
(lp209
sg19
(lp210
sg21
I0
sbasg57
(lp211
g207
asg21
I0
sg59
S'52'
p212
sba(iArchitecture
Cluster
p213
(dp214
g7
(lp215
(iArchitecture
Entity
p216
(dp217
g11
(lp218
sg13
S'android.telephony.cdma.CdmaSmsCbProgramData'
p219
sg15
(lp220
sg17
(lp221
sg19
(lp222
sg21
I0
sba(iArchitecture
Entity
p223
(dp224
g11
(lp225
sg13
S'android.telephony.cdma.CdmaSmsCbProgramData$1'
p226
sg15
(lp227
sg17
(lp228
sg19
(lp229
sg21
I0
sbasg57
(lp230
g219
ag226
asg21
I0
sg59
S'520'
p231
sba(iArchitecture
Cluster
p232
(dp233
g7
(lp234
(iArchitecture
Entity
p235
(dp236
g11
(lp237
sg13
S'android.view.InputEventConsistencyVerifier'
p238
sg15
(lp239
sg17
(lp240
sg19
(lp241
sg21
I0
sba(iArchitecture
Entity
p242
(dp243
g11
(lp244
sg13
S'android.view.InputEventConsistencyVerifier$KeyState'
p245
sg15
(lp246
sg17
(lp247
sg19
(lp248
sg21
I0
sbasg57
(lp249
g238
ag245
asg21
I0
sg59
S'521'
p250
sba(iArchitecture
Cluster
p251
(dp252
g7
(lp253
(iArchitecture
Entity
p254
(dp255
g11
(lp256
sg13
S'com.android.ims.ImsStreamMediaProfile'
p257
sg15
(lp258
sg17
(lp259
sg19
(lp260
sg21
I0
sba(iArchitecture
Entity
p261
(dp262
g11
(lp263
sg13
S'com.android.ims.ImsStreamMediaProfile$1'
p264
sg15
(lp265
sg17
(lp266
sg19
(lp267
sg21
I0
sbasg57
(lp268
g257
ag264
asg21
I0
sg59
S'522'
p269
sba(iArchitecture
Cluster
p270
(dp271
g7
(lp272
(iArchitecture
Entity
p273
(dp274
g11
(lp275
sg13
S'android.net.wifi.PasspointManagementObjectDefinition'
p276
sg15
(lp277
sg17
(lp278
sg19
(lp279
sg21
I0
sba(iArchitecture
Entity
p280
(dp281
g11
(lp282
sg13
S'android.net.wifi.PasspointManagementObjectDefinition$1'
p283
sg15
(lp284
sg17
(lp285
sg19
(lp286
sg21
I0
sbasg57
(lp287
g276
ag283
asg21
I0
sg59
S'523'
p288
sba(iArchitecture
Cluster
p289
(dp290
g7
(lp291
(iArchitecture
Entity
p292
(dp293
g11
(lp294
sg13
S'android.view.InputFilter'
p295
sg15
(lp296
sg17
(lp297
sg19
(lp298
sg21
I0
sba(iArchitecture
Entity
p299
(dp300
g11
(lp301
sg13
S'android.view.InputFilter$H'
p302
sg15
(lp303
sg17
(lp304
sg19
(lp305
sg21
I0
sbasg57
(lp306
g295
ag302
asg21
I0
sg59
S'524'
p307
sba(iArchitecture
Cluster
p308
(dp309
g7
(lp310
(iArchitecture
Entity
p311
(dp312
g11
(lp313
sg13
S'com.android.ims.internal.uce.presence.PresPublishTriggerType'
p314
sg15
(lp315
sg17
(lp316
sg19
(lp317
sg21
I0
sba(iArchitecture
Entity
p318
(dp319
g11
(lp320
sg13
S'com.android.ims.internal.uce.presence.PresPublishTriggerType$1'
p321
sg15
(lp322
sg17
(lp323
sg19
(lp324
sg21
I0
sbasg57
(lp325
g314
ag321
asg21
I0
sg59
S'525'
p326
sba(iArchitecture
Cluster
p327
(dp328
g7
(lp329
(iArchitecture
Entity
p330
(dp331
g11
(lp332
sg13
S'com.android.server.tv.TvInputHal'
p333
sg15
(lp334
sg17
(lp335
sg19
(lp336
sg21
I0
sba(iArchitecture
Entity
p337
(dp338
g11
(lp339
sg13
S'com.android.server.tv.TvInputHal$Callback'
p340
sg15
(lp341
sg17
(lp342
sg19
(lp343
sg21
I0
sbasg57
(lp344
g333
ag340
asg21
I0
sg59
S'526'
p345
sba(iArchitecture
Cluster
p346
(dp347
g7
(lp348
(iArchitecture
Entity
p349
(dp350
g11
(lp351
sg13
S'android.content.res.Configuration'
p352
sg15
(lp353
sg17
(lp354
sg19
(lp355
sg21
I0
sba(iArchitecture
Entity
p356
(dp357
g11
(lp358
sg13
S'android.content.res.Configuration$1'
p359
sg15
(lp360
sg17
(lp361
sg19
(lp362
sg21
I0
sbasg57
(lp363
g352
ag359
asg21
I0
sg59
S'527'
p364
sba(iArchitecture
Cluster
p365
(dp366
g7
(lp367
(iArchitecture
Entity
p368
(dp369
g11
(lp370
sg13
S'com.android.internal.util.NotificationColorUtil'
p371
sg15
(lp372
sg17
(lp373
sg19
(lp374
sg21
I0
sba(iArchitecture
Entity
p375
(dp376
g11
(lp377
sg13
S'com.android.internal.util.NotificationColorUtil$ColorUtilsFromCompat'
p378
sg15
(lp379
sg17
(lp380
sg19
(lp381
sg21
I0
sbasg57
(lp382
g371
ag378
asg21
I0
sg59
S'528'
p383
sba(iArchitecture
Cluster
p384
(dp385
g7
(lp386
(iArchitecture
Entity
p387
(dp388
g11
(lp389
sg13
S'android.hardware.camera2.legacy.LegacyExceptionUtils'
p390
sg15
(lp391
sg17
(lp392
sg19
(lp393
sg21
I0
sba(iArchitecture
Entity
p394
(dp395
g11
(lp396
sg13
S'android.hardware.camera2.legacy.LegacyExceptionUtils$BufferQueueAbandonedException'
p397
sg15
(lp398
sg17
(lp399
sg19
(lp400
sg21
I0
sbasg57
(lp401
g390
ag397
asg21
I0
sg59
S'529'
p402
sba(iArchitecture
Cluster
p403
(dp404
g7
(lp405
(iArchitecture
Entity
p406
(dp407
g11
(lp408
sg13
S'android.telecom.ParcelableCallAnalytics'
p409
sg15
(lp410
sg17
(lp411
sg19
(lp412
sg21
I0
sba(iArchitecture
Entity
p413
(dp414
g11
(lp415
sg13
S'android.telecom.ParcelableCallAnalytics$1'
p416
sg15
(lp417
sg17
(lp418
sg19
(lp419
sg21
I0
sbasg57
(lp420
g409
ag416
asg21
I0
sg59
S'552'
p421
sba(iArchitecture
Cluster
p422
(dp423
g7
(lp424
(iArchitecture
Entity
p425
(dp426
g11
(lp427
sg13
S'android.os.LocaleList'
p428
sg15
(lp429
sg17
(lp430
sg19
(lp431
sg21
I0
sba(iArchitecture
Entity
p432
(dp433
g11
(lp434
sg13
S'android.os.LocaleList$1'
p435
sg15
(lp436
sg17
(lp437
sg19
(lp438
sg21
I0
sbasg57
(lp439
g428
ag435
asg21
I0
sg59
S'652'
p440
sba(iArchitecture
Cluster
p441
(dp442
g7
(lp443
(iArchitecture
Entity
p444
(dp445
g11
(lp446
sg13
S'android.filterpacks.videoproc.BackDropperFilter'
p447
sg15
(lp448
sg17
(lp449
sg19
(lp450
sg21
I0
sba(iArchitecture
Entity
p451
(dp452
g11
(lp453
sg13
S'android.filterpacks.videoproc.BackDropperFilter$LearningDoneListener'
p454
sg15
(lp455
sg17
(lp456
sg19
(lp457
sg21
I0
sbasg57
(lp458
g447
ag454
asg21
I0
sg59
S'752'
p459
sba(iArchitecture
Cluster
p460
(dp461
g7
(lp462
(iArchitecture
Entity
p463
(dp464
g11
(lp465
sg13
S'com.android.server.accessibility.AutoclickController'
p466
sg15
(lp467
sg17
(lp468
sg19
(lp469
sg21
I0
sba(iArchitecture
Entity
p470
(dp471
g11
(lp472
sg13
S'com.android.server.accessibility.AutoclickController$ClickDelayObserver'
p473
sg15
(lp474
sg17
(lp475
sg19
(lp476
sg21
I0
sba(iArchitecture
Entity
p477
(dp478
g11
(lp479
sg13
S'com.android.server.accessibility.AutoclickController$ClickScheduler'
p480
sg15
(lp481
sg17
(lp482
sg19
(lp483
sg21
I0
sbasg57
(lp484
g466
ag473
ag480
asg21
I0
sg59
S'852'
p485
sba(iArchitecture
Cluster
p486
(dp487
g7
(lp488
(iArchitecture
Entity
p489
(dp490
g11
(lp491
sg13
S'android.view.RenderNodeAnimator'
p492
sg15
(lp493
sg17
(lp494
sg19
(lp495
sg21
I0
sba(iArchitecture
Entity
p496
(dp497
g11
(lp498
sg13
S'android.view.RenderNodeAnimator$1'
p499
sg15
(lp500
sg17
(lp501
sg19
(lp502
sg21
I0
sba(iArchitecture
Entity
p503
(dp504
g11
(lp505
sg13
S'android.view.RenderNodeAnimator$DelayedAnimationHelper'
p506
sg15
(lp507
sg17
(lp508
sg19
(lp509
sg21
I0
sbasg57
(lp510
g492
ag499
ag506
asg21
I0
sg59
S'952'
p511
sbasS'target_sub'
p512
S'52'
p513
sg57
(lp514
sS'is_component_arch'
p515
I01
sg59
S'7.0.0_r1'
p516
sba.