(lp0
(iArchitecture
Architecture
p1
(dp2
S'clusters'
p3
(lp4
(iArchitecture
Cluster
p5
(dp6
S'entities'
p7
(lp8
(iArchitecture
Entity
p9
(dp10
S'issue_ids'
p11
(lp12
sS'name'
p13
S'com.android.internal.widget.SlidingTab'
p14
sS'descs'
p15
(lp16
sS'labels'
p17
(lp18
sS'titles'
p19
(lp20
sS'change'
p21
I0
sba(iArchitecture
Entity
p22
(dp23
g11
(lp24
sg13
S'com.android.internal.widget.SlidingTab$1'
p25
sg15
(lp26
sg17
(lp27
sg19
(lp28
sg21
I0
sba(iArchitecture
Entity
p29
(dp30
g11
(lp31
sg13
S'com.android.internal.widget.SlidingTab$2'
p32
sg15
(lp33
sg17
(lp34
sg19
(lp35
sg21
I0
sba(iArchitecture
Entity
p36
(dp37
g11
(lp38
sg13
S'com.android.internal.widget.SlidingTab$OnTriggerListener'
p39
sg15
(lp40
sg17
(lp41
sg19
(lp42
sg21
I0
sba(iArchitecture
Entity
p43
(dp44
g11
(lp45
sg13
S'com.android.internal.widget.SlidingTab$Slider'
p46
sg15
(lp47
sg17
(lp48
sg19
(lp49
sg21
I0
sbasS'classes'
p50
(lp51
g14
ag25
ag32
ag39
ag46
asg21
I0
sS'label'
p52
S'1044'
p53
sba(iArchitecture
Cluster
p54
(dp55
g7
(lp56
(iArchitecture
Entity
p57
(dp58
g11
(lp59
sg13
S'com.android.server.NetworkManagementService'
p60
sg15
(lp61
sg17
(lp62
sg19
(lp63
sg21
I0
sba(iArchitecture
Entity
p64
(dp65
g11
(lp66
sg13
S'com.android.server.NetworkManagementService$1'
p67
sg15
(lp68
sg17
(lp69
sg19
(lp70
sg21
I0
sba(iArchitecture
Entity
p71
(dp72
g11
(lp73
sg13
S'com.android.server.NetworkManagementService$2'
p74
sg15
(lp75
sg17
(lp76
sg19
(lp77
sg21
I0
sba(iArchitecture
Entity
p78
(dp79
g11
(lp80
sg13
S'com.android.server.NetworkManagementService$IdleTimerParams'
p81
sg15
(lp82
sg17
(lp83
sg19
(lp84
sg21
I0
sba(iArchitecture
Entity
p85
(dp86
g11
(lp87
sg13
S'com.android.server.NetworkManagementService$NetdCallbackReceiver'
p88
sg15
(lp89
sg17
(lp90
sg19
(lp91
sg21
I0
sba(iArchitecture
Entity
p92
(dp93
g11
(lp94
sg13
S'com.android.server.NetworkManagementService$NetdCallbackReceiver$1'
p95
sg15
(lp96
sg17
(lp97
sg19
(lp98
sg21
I0
sba(iArchitecture
Entity
p99
(dp100
g11
(lp101
sg13
S'com.android.server.NetworkManagementService$NetdResponseCode'
p102
sg15
(lp103
sg17
(lp104
sg19
(lp105
sg21
I0
sbasg50
(lp106
g60
ag67
ag74
ag81
ag88
ag95
ag102
asg21
I0
sg52
S'1144'
p107
sba(iArchitecture
Cluster
p108
(dp109
g7
(lp110
(iArchitecture
Entity
p111
(dp112
g11
(lp113
sg13
S'android.nfc.cardemulation.CardEmulation'
p114
sg15
(lp115
sg17
(lp116
sg19
(lp117
sg21
I0
sba(iArchitecture
Entity
p118
(dp119
g11
(lp120
sg13
S'android.nfc.cardemulation.NfcFCardEmulation'
p121
sg15
(lp122
sg17
(lp123
sg19
(lp124
sg21
I0
sbasg50
(lp125
g114
ag121
asg21
I0
sg52
S'1244'
p126
sba(iArchitecture
Cluster
p127
(dp128
g7
(lp129
(iArchitecture
Entity
p130
(dp131
g11
(lp132
sg13
S'android.graphics.Shader'
p133
sg15
(lp134
sg17
(lp135
sg19
(lp136
sg21
I0
sba(iArchitecture
Entity
p137
(dp138
g11
(lp139
sg13
S'android.graphics.Shader$TileMode'
p140
sg15
(lp141
sg17
(lp142
sg19
(lp143
sg21
I0
sba(iArchitecture
Entity
p144
(dp145
g11
(lp146
sg13
S'com.android.internal.util.UserIcons'
p147
sg15
(lp148
sg17
(lp149
sg19
(lp150
sg21
I0
sbasg50
(lp151
g133
ag140
ag147
asg21
I0
sg52
S'1344'
p152
sba(iArchitecture
Cluster
p153
(dp154
g7
(lp155
(iArchitecture
Entity
p156
(dp157
g11
(lp158
sg13
S'android.security.keystore.AndroidKeyStoreProvider'
p159
sg15
(lp160
sg17
(lp161
sg19
(lp162
sg21
I0
sbasg50
(lp163
g159
asg21
I0
sg52
S'144'
p164
sba(iArchitecture
Cluster
p165
(dp166
g7
(lp167
(iArchitecture
Entity
p168
(dp169
g11
(lp170
sg13
S'android.speech.tts.PlaybackQueueItem'
p171
sg15
(lp172
sg17
(lp173
sg19
(lp174
sg21
I0
sbasg50
(lp175
g171
asg21
I0
sg52
S'244'
p176
sba(iArchitecture
Cluster
p177
(dp178
g7
(lp179
(iArchitecture
Entity
p180
(dp181
g11
(lp182
sg13
S'android.graphics.LightingColorFilter'
p183
sg15
(lp184
sg17
(lp185
sg19
(lp186
sg21
I0
sbasg50
(lp187
g183
asg21
I0
sg52
S'344'
p188
sba(iArchitecture
Cluster
p189
(dp190
g7
(lp191
(iArchitecture
Entity
p192
(dp193
g11
(lp194
sg13
S'android.os.ShellCommand'
p195
sg15
(lp196
sg17
(lp197
sg19
(lp198
sg21
I0
sbasg50
(lp199
g195
asg21
I0
sg52
S'44'
p200
sba(iArchitecture
Cluster
p201
(dp202
g7
(lp203
(iArchitecture
Entity
p204
(dp205
g11
(lp206
sg13
S'android.service.dreams.Sandman'
p207
sg15
(lp208
sg17
(lp209
sg19
(lp210
sg21
I0
sbasg50
(lp211
g207
asg21
I0
sg52
S'440'
p212
sba(iArchitecture
Cluster
p213
(dp214
g7
(lp215
(iArchitecture
Entity
p216
(dp217
g11
(lp218
sg13
S'android.content.CursorLoader'
p219
sg15
(lp220
sg17
(lp221
sg19
(lp222
sg21
I0
sbasg50
(lp223
g219
asg21
I0
sg52
S'441'
p224
sba(iArchitecture
Cluster
p225
(dp226
g7
(lp227
(iArchitecture
Entity
p228
(dp229
g11
(lp230
sg13
S'com.android.server.pm.InstructionSets'
p231
sg15
(lp232
sg17
(lp233
sg19
(lp234
sg21
I0
sbasg50
(lp235
g231
asg21
I0
sg52
S'442'
p236
sba(iArchitecture
Cluster
p237
(dp238
g7
(lp239
(iArchitecture
Entity
p240
(dp241
g11
(lp242
sg13
S'android.webkit.PluginList'
p243
sg15
(lp244
sg17
(lp245
sg19
(lp246
sg21
I0
sbasg50
(lp247
g243
asg21
I0
sg52
S'443'
p248
sba(iArchitecture
Cluster
p249
(dp250
g7
(lp251
(iArchitecture
Entity
p252
(dp253
g11
(lp254
sg13
S'android.os.storage.OnObbStateChangeListener'
p255
sg15
(lp256
sg17
(lp257
sg19
(lp258
sg21
I0
sbasg50
(lp259
g255
asg21
I0
sg52
S'444'
p260
sba(iArchitecture
Cluster
p261
(dp262
g7
(lp263
(iArchitecture
Entity
p264
(dp265
g11
(lp266
sg13
S'com.android.internal.widget.ImageFloatingTextView'
p267
sg15
(lp268
sg17
(lp269
sg19
(lp270
sg21
I0
sbasg50
(lp271
g267
asg21
I0
sg52
S'445'
p272
sba(iArchitecture
Cluster
p273
(dp274
g7
(lp275
(iArchitecture
Entity
p276
(dp277
g11
(lp278
sg13
S'com.android.server.backup.BackupUtils'
p279
sg15
(lp280
sg17
(lp281
sg19
(lp282
sg21
I0
sbasg50
(lp283
g279
asg21
I0
sg52
S'446'
p284
sba(iArchitecture
Cluster
p285
(dp286
g7
(lp287
(iArchitecture
Entity
p288
(dp289
g11
(lp290
sg13
S'android.graphics.Color'
p291
sg15
(lp292
sg17
(lp293
sg19
(lp294
sg21
I0
sbasg50
(lp295
g291
asg21
I0
sg52
S'447'
p296
sba(iArchitecture
Cluster
p297
(dp298
g7
(lp299
(iArchitecture
Entity
p300
(dp301
g11
(lp302
sg13
S'android.security.net.config.Pin'
p303
sg15
(lp304
sg17
(lp305
sg19
(lp306
sg21
I0
sbasg50
(lp307
g303
asg21
I0
sg52
S'448'
p308
sba(iArchitecture
Cluster
p309
(dp310
g7
(lp311
(iArchitecture
Entity
p312
(dp313
g11
(lp314
sg13
S'com.android.server.wm.animation.ClipRectTBAnimation'
p315
sg15
(lp316
sg17
(lp317
sg19
(lp318
sg21
I0
sbasg50
(lp319
g315
asg21
I0
sg52
S'449'
p320
sba(iArchitecture
Cluster
p321
(dp322
g7
(lp323
(iArchitecture
Entity
p324
(dp325
g11
(lp326
sg13
S'android.content.RestrictionEntry'
p327
sg15
(lp328
sg17
(lp329
sg19
(lp330
sg21
I0
sba(iArchitecture
Entity
p331
(dp332
g11
(lp333
sg13
S'android.content.RestrictionEntry$1'
p334
sg15
(lp335
sg17
(lp336
sg19
(lp337
sg21
I0
sbasg50
(lp338
g327
ag334
asg21
I0
sg52
S'544'
p339
sba(iArchitecture
Cluster
p340
(dp341
g7
(lp342
(iArchitecture
Entity
p343
(dp344
g11
(lp345
sg13
S'android.filterfw.GraphEnvironment'
p346
sg15
(lp347
sg17
(lp348
sg19
(lp349
sg21
I0
sba(iArchitecture
Entity
p350
(dp351
g11
(lp352
sg13
S'android.filterfw.GraphEnvironment$GraphHandle'
p353
sg15
(lp354
sg17
(lp355
sg19
(lp356
sg21
I0
sbasg50
(lp357
g346
ag353
asg21
I0
sg52
S'644'
p358
sba(iArchitecture
Cluster
p359
(dp360
g7
(lp361
(iArchitecture
Entity
p362
(dp363
g11
(lp364
sg13
S'android.os.health.HealthStatsParceler'
p365
sg15
(lp366
sg17
(lp367
sg19
(lp368
sg21
I0
sba(iArchitecture
Entity
p369
(dp370
g11
(lp371
sg13
S'android.os.health.HealthStatsParceler$1'
p372
sg15
(lp373
sg17
(lp374
sg19
(lp375
sg21
I0
sbasg50
(lp376
g365
ag372
asg21
I0
sg52
S'744'
p377
sba(iArchitecture
Cluster
p378
(dp379
g7
(lp380
(iArchitecture
Entity
p381
(dp382
g11
(lp383
sg13
S'android.content.ContentProviderClient'
p384
sg15
(lp385
sg17
(lp386
sg19
(lp387
sg21
I0
sba(iArchitecture
Entity
p388
(dp389
g11
(lp390
sg13
S'android.content.ContentProviderClient$CursorWrapperInner'
p391
sg15
(lp392
sg17
(lp393
sg19
(lp394
sg21
I0
sba(iArchitecture
Entity
p395
(dp396
g11
(lp397
sg13
S'android.content.ContentProviderClient$NotRespondingRunnable'
p398
sg15
(lp399
sg17
(lp400
sg19
(lp401
sg21
I0
sbasg50
(lp402
g384
ag391
ag398
asg21
I0
sg52
S'844'
p403
sba(iArchitecture
Cluster
p404
(dp405
g7
(lp406
(iArchitecture
Entity
p407
(dp408
g11
(lp409
sg13
S'android.webkit.Plugin'
p410
sg15
(lp411
sg17
(lp412
sg19
(lp413
sg21
I0
sba(iArchitecture
Entity
p414
(dp415
g11
(lp416
sg13
S'android.webkit.Plugin$DefaultClickHandler'
p417
sg15
(lp418
sg17
(lp419
sg19
(lp420
sg21
I0
sba(iArchitecture
Entity
p421
(dp422
g11
(lp423
sg13
S'android.webkit.Plugin$PreferencesClickHandler'
p424
sg15
(lp425
sg17
(lp426
sg19
(lp427
sg21
I0
sbasg50
(lp428
g410
ag417
ag424
asg21
I0
sg52
S'944'
p429
sbasS'target_sub'
p430
S'44'
p431
sg50
(lp432
sS'is_component_arch'
p433
I01
sg52
S'7.0.0_r1'
p434
sba.