(lp0
(iArchitecture
Architecture
p1
(dp2
S'clusters'
p3
(lp4
(iArchitecture
Cluster
p5
(dp6
S'entities'
p7
(lp8
(iArchitecture
Entity
p9
(dp10
S'issue_ids'
p11
(lp12
sS'name'
p13
S'android.net.NetworkStats'
p14
sS'descs'
p15
(lp16
sS'labels'
p17
(lp18
sS'titles'
p19
(lp20
sS'change'
p21
I0
sba(iArchitecture
Entity
p22
(dp23
g11
(lp24
sg13
S'android.net.NetworkStats$1'
p25
sg15
(lp26
sg17
(lp27
sg19
(lp28
sg21
I0
sba(iArchitecture
Entity
p29
(dp30
g11
(lp31
sg13
S'android.net.NetworkStats$Entry'
p32
sg15
(lp33
sg17
(lp34
sg19
(lp35
sg21
I0
sba(iArchitecture
Entity
p36
(dp37
g11
(lp38
sg13
S'android.net.NetworkStats$NonMonotonicObserver'
p39
sg15
(lp40
sg17
(lp41
sg19
(lp42
sg21
I0
sbasS'classes'
p43
(lp44
g14
ag25
ag32
ag39
asg21
I0
sS'label'
p45
S'1016'
p46
sba(iArchitecture
Cluster
p47
(dp48
g7
(lp49
(iArchitecture
Entity
p50
(dp51
g11
(lp52
sg13
S'android.graphics.drawable.AnimatedStateListDrawable'
p53
sg15
(lp54
sg17
(lp55
sg19
(lp56
sg21
I0
sba(iArchitecture
Entity
p57
(dp58
g11
(lp59
sg13
S'android.graphics.drawable.AnimatedStateListDrawable$AnimatableTransition'
p60
sg15
(lp61
sg17
(lp62
sg19
(lp63
sg21
I0
sba(iArchitecture
Entity
p64
(dp65
g11
(lp66
sg13
S'android.graphics.drawable.AnimatedStateListDrawable$AnimatedStateListState'
p67
sg15
(lp68
sg17
(lp69
sg19
(lp70
sg21
I0
sba(iArchitecture
Entity
p71
(dp72
g11
(lp73
sg13
S'android.graphics.drawable.AnimatedStateListDrawable$AnimatedVectorDrawableTransition'
p74
sg15
(lp75
sg17
(lp76
sg19
(lp77
sg21
I0
sba(iArchitecture
Entity
p78
(dp79
g11
(lp80
sg13
S'android.graphics.drawable.AnimatedStateListDrawable$AnimationDrawableTransition'
p81
sg15
(lp82
sg17
(lp83
sg19
(lp84
sg21
I0
sba(iArchitecture
Entity
p85
(dp86
g11
(lp87
sg13
S'android.graphics.drawable.AnimatedStateListDrawable$FrameInterpolator'
p88
sg15
(lp89
sg17
(lp90
sg19
(lp91
sg21
I0
sba(iArchitecture
Entity
p92
(dp93
g11
(lp94
sg13
S'android.graphics.drawable.AnimatedStateListDrawable$Transition'
p95
sg15
(lp96
sg17
(lp97
sg19
(lp98
sg21
I0
sbasg43
(lp99
g53
ag60
ag67
ag74
ag81
ag88
ag95
asg21
I0
sg45
S'1116'
p100
sba(iArchitecture
Cluster
p101
(dp102
g7
(lp103
(iArchitecture
Entity
p104
(dp105
g11
(lp106
sg13
S'com.android.server.pm.UserRestrictionsUtils'
p107
sg15
(lp108
sg17
(lp109
sg19
(lp110
sg21
I0
sbasg43
(lp111
g107
asg21
I0
sg45
S'116'
p112
sba(iArchitecture
Cluster
p113
(dp114
g7
(lp115
(iArchitecture
Entity
p116
(dp117
g11
(lp118
sg13
S'com.android.internal.widget.ActionBarOverlayLayout'
p119
sg15
(lp120
sg17
(lp121
sg19
(lp122
sg21
I0
sba(iArchitecture
Entity
p123
(dp124
g11
(lp125
sg13
S'com.android.internal.widget.ActionBarOverlayLayout$1'
p126
sg15
(lp127
sg17
(lp128
sg19
(lp129
sg21
I0
sba(iArchitecture
Entity
p130
(dp131
g11
(lp132
sg13
S'com.android.internal.widget.ActionBarOverlayLayout$2'
p133
sg15
(lp134
sg17
(lp135
sg19
(lp136
sg21
I0
sba(iArchitecture
Entity
p137
(dp138
g11
(lp139
sg13
S'com.android.internal.widget.ActionBarOverlayLayout$3'
p140
sg15
(lp141
sg17
(lp142
sg19
(lp143
sg21
I0
sba(iArchitecture
Entity
p144
(dp145
g11
(lp146
sg13
S'com.android.internal.widget.ActionBarOverlayLayout$4'
p147
sg15
(lp148
sg17
(lp149
sg19
(lp150
sg21
I0
sba(iArchitecture
Entity
p151
(dp152
g11
(lp153
sg13
S'com.android.internal.widget.ActionBarOverlayLayout$5'
p154
sg15
(lp155
sg17
(lp156
sg19
(lp157
sg21
I0
sba(iArchitecture
Entity
p158
(dp159
g11
(lp160
sg13
S'com.android.internal.widget.ActionBarOverlayLayout$ActionBarVisibilityCallback'
p161
sg15
(lp162
sg17
(lp163
sg19
(lp164
sg21
I0
sba(iArchitecture
Entity
p165
(dp166
g11
(lp167
sg13
S'com.android.internal.widget.ActionBarOverlayLayout$LayoutParams'
p168
sg15
(lp169
sg17
(lp170
sg19
(lp171
sg21
I0
sbasg43
(lp172
g119
ag126
ag133
ag140
ag147
ag154
ag161
ag168
asg21
I0
sg45
S'1160'
p173
sba(iArchitecture
Cluster
p174
(dp175
g7
(lp176
(iArchitecture
Entity
p177
(dp178
g11
(lp179
sg13
S'android.security.keystore.KeyProperties'
p180
sg15
(lp181
sg17
(lp182
sg19
(lp183
sg21
I0
sba(iArchitecture
Entity
p184
(dp185
g11
(lp186
sg13
S'android.security.keystore.KeyProperties$BlockMode'
p187
sg15
(lp188
sg17
(lp189
sg19
(lp190
sg21
I0
sba(iArchitecture
Entity
p191
(dp192
g11
(lp193
sg13
S'android.security.keystore.KeyProperties$Digest'
p194
sg15
(lp195
sg17
(lp196
sg19
(lp197
sg21
I0
sba(iArchitecture
Entity
p198
(dp199
g11
(lp200
sg13
S'android.security.keystore.KeyProperties$EncryptionPadding'
p201
sg15
(lp202
sg17
(lp203
sg19
(lp204
sg21
I0
sba(iArchitecture
Entity
p205
(dp206
g11
(lp207
sg13
S'android.security.keystore.KeyProperties$KeyAlgorithm'
p208
sg15
(lp209
sg17
(lp210
sg19
(lp211
sg21
I0
sba(iArchitecture
Entity
p212
(dp213
g11
(lp214
sg13
S'android.security.keystore.KeyProperties$Origin'
p215
sg15
(lp216
sg17
(lp217
sg19
(lp218
sg21
I0
sba(iArchitecture
Entity
p219
(dp220
g11
(lp221
sg13
S'android.security.keystore.KeyProperties$Purpose'
p222
sg15
(lp223
sg17
(lp224
sg19
(lp225
sg21
I0
sba(iArchitecture
Entity
p226
(dp227
g11
(lp228
sg13
S'android.security.keystore.KeyProperties$SignaturePadding'
p229
sg15
(lp230
sg17
(lp231
sg19
(lp232
sg21
I0
sbasg43
(lp233
g180
ag187
ag194
ag201
ag208
ag215
ag222
ag229
asg21
I0
sg45
S'1161'
p234
sba(iArchitecture
Cluster
p235
(dp236
g7
(lp237
(iArchitecture
Entity
p238
(dp239
g11
(lp240
sg13
S'com.android.server.media.RemoteDisplayProviderProxy'
p241
sg15
(lp242
sg17
(lp243
sg19
(lp244
sg21
I0
sba(iArchitecture
Entity
p245
(dp246
g11
(lp247
sg13
S'com.android.server.media.RemoteDisplayProviderProxy$1'
p248
sg15
(lp249
sg17
(lp250
sg19
(lp251
sg21
I0
sba(iArchitecture
Entity
p252
(dp253
g11
(lp254
sg13
S'com.android.server.media.RemoteDisplayProviderProxy$Callback'
p255
sg15
(lp256
sg17
(lp257
sg19
(lp258
sg21
I0
sba(iArchitecture
Entity
p259
(dp260
g11
(lp261
sg13
S'com.android.server.media.RemoteDisplayProviderProxy$Connection'
p262
sg15
(lp263
sg17
(lp264
sg19
(lp265
sg21
I0
sba(iArchitecture
Entity
p266
(dp267
g11
(lp268
sg13
S'com.android.server.media.RemoteDisplayProviderProxy$Connection$1'
p269
sg15
(lp270
sg17
(lp271
sg19
(lp272
sg21
I0
sba(iArchitecture
Entity
p273
(dp274
g11
(lp275
sg13
S'com.android.server.media.RemoteDisplayProviderProxy$Connection$2'
p276
sg15
(lp277
sg17
(lp278
sg19
(lp279
sg21
I0
sba(iArchitecture
Entity
p280
(dp281
g11
(lp282
sg13
S'com.android.server.media.RemoteDisplayProviderProxy$Connection$3'
p283
sg15
(lp284
sg17
(lp285
sg19
(lp286
sg21
I0
sba(iArchitecture
Entity
p287
(dp288
g11
(lp289
sg13
S'com.android.server.media.RemoteDisplayProviderProxy$ProviderCallback'
p290
sg15
(lp291
sg17
(lp292
sg19
(lp293
sg21
I0
sbasg43
(lp294
g241
ag248
ag255
ag262
ag269
ag276
ag283
ag290
asg21
I0
sg45
S'1162'
p295
sba(iArchitecture
Cluster
p296
(dp297
g7
(lp298
(iArchitecture
Entity
p299
(dp300
g11
(lp301
sg13
S'android.util.apk.ApkSignatureSchemeV2Verifier'
p302
sg15
(lp303
sg17
(lp304
sg19
(lp305
sg21
I0
sba(iArchitecture
Entity
p306
(dp307
g11
(lp308
sg13
S'android.util.apk.ApkSignatureSchemeV2Verifier$ByteBufferDataSource'
p309
sg15
(lp310
sg17
(lp311
sg19
(lp312
sg21
I0
sba(iArchitecture
Entity
p313
(dp314
g11
(lp315
sg13
S'android.util.apk.ApkSignatureSchemeV2Verifier$DataSource'
p316
sg15
(lp317
sg17
(lp318
sg19
(lp319
sg21
I0
sba(iArchitecture
Entity
p320
(dp321
g11
(lp322
sg13
S'android.util.apk.ApkSignatureSchemeV2Verifier$MemoryMappedFileDataSource'
p323
sg15
(lp324
sg17
(lp325
sg19
(lp326
sg21
I0
sba(iArchitecture
Entity
p327
(dp328
g11
(lp329
sg13
S'android.util.apk.ApkSignatureSchemeV2Verifier$SignatureInfo'
p330
sg15
(lp331
sg17
(lp332
sg19
(lp333
sg21
I0
sba(iArchitecture
Entity
p334
(dp335
g11
(lp336
sg13
S'android.util.apk.ApkSignatureSchemeV2Verifier$SignatureNotFoundException'
p337
sg15
(lp338
sg17
(lp339
sg19
(lp340
sg21
I0
sba(iArchitecture
Entity
p341
(dp342
g11
(lp343
sg13
S'android.util.apk.ApkSignatureSchemeV2Verifier$VerbatimX509Certificate'
p344
sg15
(lp345
sg17
(lp346
sg19
(lp347
sg21
I0
sba(iArchitecture
Entity
p348
(dp349
g11
(lp350
sg13
S'android.util.apk.ApkSignatureSchemeV2Verifier$WrappedX509Certificate'
p351
sg15
(lp352
sg17
(lp353
sg19
(lp354
sg21
I0
sbasg43
(lp355
g302
ag309
ag316
ag323
ag330
ag337
ag344
ag351
asg21
I0
sg45
S'1163'
p356
sba(iArchitecture
Cluster
p357
(dp358
g7
(lp359
(iArchitecture
Entity
p360
(dp361
g11
(lp362
sg13
S'android.renderscript.Script'
p363
sg15
(lp364
sg17
(lp365
sg19
(lp366
sg21
I0
sba(iArchitecture
Entity
p367
(dp368
g11
(lp369
sg13
S'android.renderscript.Script$Builder'
p370
sg15
(lp371
sg17
(lp372
sg19
(lp373
sg21
I0
sba(iArchitecture
Entity
p374
(dp375
g11
(lp376
sg13
S'android.renderscript.Script$FieldBase'
p377
sg15
(lp378
sg17
(lp379
sg19
(lp380
sg21
I0
sba(iArchitecture
Entity
p381
(dp382
g11
(lp383
sg13
S'android.renderscript.Script$FieldID'
p384
sg15
(lp385
sg17
(lp386
sg19
(lp387
sg21
I0
sba(iArchitecture
Entity
p388
(dp389
g11
(lp390
sg13
S'android.renderscript.Script$InvokeID'
p391
sg15
(lp392
sg17
(lp393
sg19
(lp394
sg21
I0
sba(iArchitecture
Entity
p395
(dp396
g11
(lp397
sg13
S'android.renderscript.Script$KernelID'
p398
sg15
(lp399
sg17
(lp400
sg19
(lp401
sg21
I0
sba(iArchitecture
Entity
p402
(dp403
g11
(lp404
sg13
S'android.renderscript.Script$LaunchOptions'
p405
sg15
(lp406
sg17
(lp407
sg19
(lp408
sg21
I0
sbasg43
(lp409
g363
ag370
ag377
ag384
ag391
ag398
ag405
asg21
I0
sg45
S'1164'
p410
sba(iArchitecture
Cluster
p411
(dp412
g7
(lp413
(iArchitecture
Entity
p414
(dp415
g11
(lp416
sg13
S'com.android.server.accessibility.AccessibilityInputFilter'
p417
sg15
(lp418
sg17
(lp419
sg19
(lp420
sg21
I0
sba(iArchitecture
Entity
p421
(dp422
g11
(lp423
sg13
S'com.android.server.accessibility.AccessibilityInputFilter$1'
p424
sg15
(lp425
sg17
(lp426
sg19
(lp427
sg21
I0
sba(iArchitecture
Entity
p428
(dp429
g11
(lp430
sg13
S'com.android.server.accessibility.AccessibilityInputFilter$EventStreamState'
p431
sg15
(lp432
sg17
(lp433
sg19
(lp434
sg21
I0
sba(iArchitecture
Entity
p435
(dp436
g11
(lp437
sg13
S'com.android.server.accessibility.AccessibilityInputFilter$KeyboardEventStreamState'
p438
sg15
(lp439
sg17
(lp440
sg19
(lp441
sg21
I0
sba(iArchitecture
Entity
p442
(dp443
g11
(lp444
sg13
S'com.android.server.accessibility.AccessibilityInputFilter$MotionEventHolder'
p445
sg15
(lp446
sg17
(lp447
sg19
(lp448
sg21
I0
sba(iArchitecture
Entity
p449
(dp450
g11
(lp451
sg13
S'com.android.server.accessibility.AccessibilityInputFilter$MouseEventStreamState'
p452
sg15
(lp453
sg17
(lp454
sg19
(lp455
sg21
I0
sba(iArchitecture
Entity
p456
(dp457
g11
(lp458
sg13
S'com.android.server.accessibility.AccessibilityInputFilter$TouchScreenEventStreamState'
p459
sg15
(lp460
sg17
(lp461
sg19
(lp462
sg21
I0
sbasg43
(lp463
g417
ag424
ag431
ag438
ag445
ag452
ag459
asg21
I0
sg45
S'1165'
p464
sba(iArchitecture
Cluster
p465
(dp466
g7
(lp467
(iArchitecture
Entity
p468
(dp469
g11
(lp470
sg13
S'android.widget.ProgressBar'
p471
sg15
(lp472
sg17
(lp473
sg19
(lp474
sg21
I0
sba(iArchitecture
Entity
p475
(dp476
g11
(lp477
sg13
S'android.widget.ProgressBar$1'
p478
sg15
(lp479
sg17
(lp480
sg19
(lp481
sg21
I0
sba(iArchitecture
Entity
p482
(dp483
g11
(lp484
sg13
S'android.widget.ProgressBar$AccessibilityEventSender'
p485
sg15
(lp486
sg17
(lp487
sg19
(lp488
sg21
I0
sba(iArchitecture
Entity
p489
(dp490
g11
(lp491
sg13
S'android.widget.ProgressBar$ProgressTintInfo'
p492
sg15
(lp493
sg17
(lp494
sg19
(lp495
sg21
I0
sba(iArchitecture
Entity
p496
(dp497
g11
(lp498
sg13
S'android.widget.ProgressBar$RefreshData'
p499
sg15
(lp500
sg17
(lp501
sg19
(lp502
sg21
I0
sba(iArchitecture
Entity
p503
(dp504
g11
(lp505
sg13
S'android.widget.ProgressBar$RefreshProgressRunnable'
p506
sg15
(lp507
sg17
(lp508
sg19
(lp509
sg21
I0
sba(iArchitecture
Entity
p510
(dp511
g11
(lp512
sg13
S'android.widget.ProgressBar$SavedState'
p513
sg15
(lp514
sg17
(lp515
sg19
(lp516
sg21
I0
sba(iArchitecture
Entity
p517
(dp518
g11
(lp519
sg13
S'android.widget.ProgressBar$SavedState$1'
p520
sg15
(lp521
sg17
(lp522
sg19
(lp523
sg21
I0
sbasg43
(lp524
g471
ag478
ag485
ag492
ag499
ag506
ag513
ag520
asg21
I0
sg45
S'1166'
p525
sba(iArchitecture
Cluster
p526
(dp527
g7
(lp528
(iArchitecture
Entity
p529
(dp530
g11
(lp531
sg13
S'com.android.server.notification.ZenModeHelper'
p532
sg15
(lp533
sg17
(lp534
sg19
(lp535
sg21
I0
sba(iArchitecture
Entity
p536
(dp537
g11
(lp538
sg13
S'com.android.server.notification.ZenModeHelper$1'
p539
sg15
(lp540
sg17
(lp541
sg19
(lp542
sg21
I0
sba(iArchitecture
Entity
p543
(dp544
g11
(lp545
sg13
S'com.android.server.notification.ZenModeHelper$Callback'
p546
sg15
(lp547
sg17
(lp548
sg19
(lp549
sg21
I0
sba(iArchitecture
Entity
p550
(dp551
g11
(lp552
sg13
S'com.android.server.notification.ZenModeHelper$H'
p553
sg15
(lp554
sg17
(lp555
sg19
(lp556
sg21
I0
sba(iArchitecture
Entity
p557
(dp558
g11
(lp559
sg13
S'com.android.server.notification.ZenModeHelper$H$ConfigMessageData'
p560
sg15
(lp561
sg17
(lp562
sg19
(lp563
sg21
I0
sba(iArchitecture
Entity
p564
(dp565
g11
(lp566
sg13
S'com.android.server.notification.ZenModeHelper$Metrics'
p567
sg15
(lp568
sg17
(lp569
sg19
(lp570
sg21
I0
sba(iArchitecture
Entity
p571
(dp572
g11
(lp573
sg13
S'com.android.server.notification.ZenModeHelper$RingerModeDelegate'
p574
sg15
(lp575
sg17
(lp576
sg19
(lp577
sg21
I0
sba(iArchitecture
Entity
p578
(dp579
g11
(lp580
sg13
S'com.android.server.notification.ZenModeHelper$SettingsObserver'
p581
sg15
(lp582
sg17
(lp583
sg19
(lp584
sg21
I0
sbasg43
(lp585
g532
ag539
ag546
ag553
ag560
ag567
ag574
ag581
asg21
I0
sg45
S'1167'
p586
sba(iArchitecture
Cluster
p587
(dp588
g7
(lp589
(iArchitecture
Entity
p590
(dp591
g11
(lp592
sg13
S'android.widget.ExpandableListView'
p593
sg15
(lp594
sg17
(lp595
sg19
(lp596
sg21
I0
sba(iArchitecture
Entity
p597
(dp598
g11
(lp599
sg13
S'android.widget.ExpandableListView$ExpandableListContextMenuInfo'
p600
sg15
(lp601
sg17
(lp602
sg19
(lp603
sg21
I0
sba(iArchitecture
Entity
p604
(dp605
g11
(lp606
sg13
S'android.widget.ExpandableListView$OnChildClickListener'
p607
sg15
(lp608
sg17
(lp609
sg19
(lp610
sg21
I0
sba(iArchitecture
Entity
p611
(dp612
g11
(lp613
sg13
S'android.widget.ExpandableListView$OnGroupClickListener'
p614
sg15
(lp615
sg17
(lp616
sg19
(lp617
sg21
I0
sba(iArchitecture
Entity
p618
(dp619
g11
(lp620
sg13
S'android.widget.ExpandableListView$OnGroupCollapseListener'
p621
sg15
(lp622
sg17
(lp623
sg19
(lp624
sg21
I0
sba(iArchitecture
Entity
p625
(dp626
g11
(lp627
sg13
S'android.widget.ExpandableListView$OnGroupExpandListener'
p628
sg15
(lp629
sg17
(lp630
sg19
(lp631
sg21
I0
sba(iArchitecture
Entity
p632
(dp633
g11
(lp634
sg13
S'android.widget.ExpandableListView$SavedState'
p635
sg15
(lp636
sg17
(lp637
sg19
(lp638
sg21
I0
sba(iArchitecture
Entity
p639
(dp640
g11
(lp641
sg13
S'android.widget.ExpandableListView$SavedState$1'
p642
sg15
(lp643
sg17
(lp644
sg19
(lp645
sg21
I0
sbasg43
(lp646
g593
ag600
ag607
ag614
ag621
ag628
ag635
ag642
asg21
I0
sg45
S'1168'
p647
sba(iArchitecture
Cluster
p648
(dp649
g7
(lp650
(iArchitecture
Entity
p651
(dp652
g11
(lp653
sg13
S'android.transition.ChangeText'
p654
sg15
(lp655
sg17
(lp656
sg19
(lp657
sg21
I0
sba(iArchitecture
Entity
p658
(dp659
g11
(lp660
sg13
S'android.transition.ChangeText$1'
p661
sg15
(lp662
sg17
(lp663
sg19
(lp664
sg21
I0
sba(iArchitecture
Entity
p665
(dp666
g11
(lp667
sg13
S'android.transition.ChangeText$2'
p668
sg15
(lp669
sg17
(lp670
sg19
(lp671
sg21
I0
sba(iArchitecture
Entity
p672
(dp673
g11
(lp674
sg13
S'android.transition.ChangeText$3'
p675
sg15
(lp676
sg17
(lp677
sg19
(lp678
sg21
I0
sba(iArchitecture
Entity
p679
(dp680
g11
(lp681
sg13
S'android.transition.ChangeText$4'
p682
sg15
(lp683
sg17
(lp684
sg19
(lp685
sg21
I0
sba(iArchitecture
Entity
p686
(dp687
g11
(lp688
sg13
S'android.transition.ChangeText$5'
p689
sg15
(lp690
sg17
(lp691
sg19
(lp692
sg21
I0
sba(iArchitecture
Entity
p693
(dp694
g11
(lp695
sg13
S'android.transition.ChangeText$6'
p696
sg15
(lp697
sg17
(lp698
sg19
(lp699
sg21
I0
sbasg43
(lp700
g654
ag661
ag668
ag675
ag682
ag689
ag696
asg21
I0
sg45
S'1169'
p701
sba(iArchitecture
Cluster
p702
(dp703
g7
(lp704
(iArchitecture
Entity
p705
(dp706
g11
(lp707
sg13
S'android.security.keystore.AndroidKeyStoreRSASignatureSpi'
p708
sg15
(lp709
sg17
(lp710
sg19
(lp711
sg21
I0
sba(iArchitecture
Entity
p712
(dp713
g11
(lp714
sg13
S'android.security.keystore.AndroidKeyStoreRSASignatureSpi$MD5WithPKCS1Padding'
p715
sg15
(lp716
sg17
(lp717
sg19
(lp718
sg21
I0
sba(iArchitecture
Entity
p719
(dp720
g11
(lp721
sg13
S'android.security.keystore.AndroidKeyStoreRSASignatureSpi$NONEWithPKCS1Padding'
p722
sg15
(lp723
sg17
(lp724
sg19
(lp725
sg21
I0
sba(iArchitecture
Entity
p726
(dp727
g11
(lp728
sg13
S'android.security.keystore.AndroidKeyStoreRSASignatureSpi$PKCS1Padding'
p729
sg15
(lp730
sg17
(lp731
sg19
(lp732
sg21
I0
sba(iArchitecture
Entity
p733
(dp734
g11
(lp735
sg13
S'android.security.keystore.AndroidKeyStoreRSASignatureSpi$PSSPadding'
p736
sg15
(lp737
sg17
(lp738
sg19
(lp739
sg21
I0
sba(iArchitecture
Entity
p740
(dp741
g11
(lp742
sg13
S'android.security.keystore.AndroidKeyStoreRSASignatureSpi$SHA1WithPKCS1Padding'
p743
sg15
(lp744
sg17
(lp745
sg19
(lp746
sg21
I0
sba(iArchitecture
Entity
p747
(dp748
g11
(lp749
sg13
S'android.security.keystore.AndroidKeyStoreRSASignatureSpi$SHA1WithPSSPadding'
p750
sg15
(lp751
sg17
(lp752
sg19
(lp753
sg21
I0
sba(iArchitecture
Entity
p754
(dp755
g11
(lp756
sg13
S'android.security.keystore.AndroidKeyStoreRSASignatureSpi$SHA224WithPKCS1Padding'
p757
sg15
(lp758
sg17
(lp759
sg19
(lp760
sg21
I0
sba(iArchitecture
Entity
p761
(dp762
g11
(lp763
sg13
S'android.security.keystore.AndroidKeyStoreRSASignatureSpi$SHA224WithPSSPadding'
p764
sg15
(lp765
sg17
(lp766
sg19
(lp767
sg21
I0
sba(iArchitecture
Entity
p768
(dp769
g11
(lp770
sg13
S'android.security.keystore.AndroidKeyStoreRSASignatureSpi$SHA256WithPKCS1Padding'
p771
sg15
(lp772
sg17
(lp773
sg19
(lp774
sg21
I0
sba(iArchitecture
Entity
p775
(dp776
g11
(lp777
sg13
S'android.security.keystore.AndroidKeyStoreRSASignatureSpi$SHA256WithPSSPadding'
p778
sg15
(lp779
sg17
(lp780
sg19
(lp781
sg21
I0
sba(iArchitecture
Entity
p782
(dp783
g11
(lp784
sg13
S'android.security.keystore.AndroidKeyStoreRSASignatureSpi$SHA384WithPKCS1Padding'
p785
sg15
(lp786
sg17
(lp787
sg19
(lp788
sg21
I0
sba(iArchitecture
Entity
p789
(dp790
g11
(lp791
sg13
S'android.security.keystore.AndroidKeyStoreRSASignatureSpi$SHA384WithPSSPadding'
p792
sg15
(lp793
sg17
(lp794
sg19
(lp795
sg21
I0
sba(iArchitecture
Entity
p796
(dp797
g11
(lp798
sg13
S'android.security.keystore.AndroidKeyStoreRSASignatureSpi$SHA512WithPKCS1Padding'
p799
sg15
(lp800
sg17
(lp801
sg19
(lp802
sg21
I0
sba(iArchitecture
Entity
p803
(dp804
g11
(lp805
sg13
S'android.security.keystore.AndroidKeyStoreRSASignatureSpi$SHA512WithPSSPadding'
p806
sg15
(lp807
sg17
(lp808
sg19
(lp809
sg21
I0
sbasg43
(lp810
g708
ag715
ag722
ag729
ag736
ag743
ag750
ag757
ag764
ag771
ag778
ag785
ag792
ag799
ag806
asg21
I0
sg45
S'1216'
p811
sba(iArchitecture
Cluster
p812
(dp813
g7
(lp814
(iArchitecture
Entity
p815
(dp816
g11
(lp817
sg13
S'android.security.net.config.CertificatesEntryRef'
p818
sg15
(lp819
sg17
(lp820
sg19
(lp821
sg21
I0
sba(iArchitecture
Entity
p822
(dp823
g11
(lp824
sg13
S'android.security.net.config.DirectoryCertificateSource'
p825
sg15
(lp826
sg17
(lp827
sg19
(lp828
sg21
I0
sba(iArchitecture
Entity
p829
(dp830
g11
(lp831
sg13
S'android.security.net.config.DirectoryCertificateSource$1'
p832
sg15
(lp833
sg17
(lp834
sg19
(lp835
sg21
I0
sba(iArchitecture
Entity
p836
(dp837
g11
(lp838
sg13
S'android.security.net.config.DirectoryCertificateSource$2'
p839
sg15
(lp840
sg17
(lp841
sg19
(lp842
sg21
I0
sba(iArchitecture
Entity
p843
(dp844
g11
(lp845
sg13
S'android.security.net.config.DirectoryCertificateSource$3'
p846
sg15
(lp847
sg17
(lp848
sg19
(lp849
sg21
I0
sba(iArchitecture
Entity
p850
(dp851
g11
(lp852
sg13
S'android.security.net.config.DirectoryCertificateSource$CertSelector'
p853
sg15
(lp854
sg17
(lp855
sg19
(lp856
sg21
I0
sba(iArchitecture
Entity
p857
(dp858
g11
(lp859
sg13
S'android.security.net.config.KeyStoreCertificateSource'
p860
sg15
(lp861
sg17
(lp862
sg19
(lp863
sg21
I0
sba(iArchitecture
Entity
p864
(dp865
g11
(lp866
sg13
S'android.security.net.config.ResourceCertificateSource'
p867
sg15
(lp868
sg17
(lp869
sg19
(lp870
sg21
I0
sba(iArchitecture
Entity
p871
(dp872
g11
(lp873
sg13
S'android.security.net.config.TrustedCertificateStoreAdapter'
p874
sg15
(lp875
sg17
(lp876
sg19
(lp877
sg21
I0
sbasg43
(lp878
g818
ag825
ag832
ag839
ag846
ag853
ag860
ag867
ag874
asg21
I0
sg45
S'1316'
p879
sba(iArchitecture
Cluster
p880
(dp881
g7
(lp882
(iArchitecture
Entity
p883
(dp884
g11
(lp885
sg13
S'android.database.sqlite.SQLiteDebug'
p886
sg15
(lp887
sg17
(lp888
sg19
(lp889
sg21
I0
sba(iArchitecture
Entity
p890
(dp891
g11
(lp892
sg13
S'android.database.sqlite.SQLiteDebug$DbStats'
p893
sg15
(lp894
sg17
(lp895
sg19
(lp896
sg21
I0
sba(iArchitecture
Entity
p897
(dp898
g11
(lp899
sg13
S'android.database.sqlite.SQLiteDebug$PagerStats'
p900
sg15
(lp901
sg17
(lp902
sg19
(lp903
sg21
I0
sba(iArchitecture
Entity
p904
(dp905
g11
(lp906
sg13
S'android.drm.DrmUtils'
p907
sg15
(lp908
sg17
(lp909
sg19
(lp910
sg21
I0
sba(iArchitecture
Entity
p911
(dp912
g11
(lp913
sg13
S'android.drm.DrmUtils$ExtendedMetadataParser'
p914
sg15
(lp915
sg17
(lp916
sg19
(lp917
sg21
I0
sba(iArchitecture
Entity
p918
(dp919
g11
(lp920
sg13
S'android.filterfw.core.KeyValueMap'
p921
sg15
(lp922
sg17
(lp923
sg19
(lp924
sg21
I0
sba(iArchitecture
Entity
p925
(dp926
g11
(lp927
sg13
S'android.hardware.camera2.impl.CaptureResultExtras'
p928
sg15
(lp929
sg17
(lp930
sg19
(lp931
sg21
I0
sba(iArchitecture
Entity
p932
(dp933
g11
(lp934
sg13
S'android.hardware.camera2.impl.CaptureResultExtras$1'
p935
sg15
(lp936
sg17
(lp937
sg19
(lp938
sg21
I0
sba(iArchitecture
Entity
p939
(dp940
g11
(lp941
sg13
S'android.hardware.camera2.marshal.impl.MarshalQueryableStreamConfiguration'
p942
sg15
(lp943
sg17
(lp944
sg19
(lp945
sg21
I0
sba(iArchitecture
Entity
p946
(dp947
g11
(lp948
sg13
S'android.hardware.camera2.marshal.impl.MarshalQueryableStreamConfiguration$MarshalerStreamConfiguration'
p949
sg15
(lp950
sg17
(lp951
sg19
(lp952
sg21
I0
sba(iArchitecture
Entity
p953
(dp954
g11
(lp955
sg13
S'android.hardware.camera2.marshal.impl.MarshalQueryableStreamConfigurationDuration'
p956
sg15
(lp957
sg17
(lp958
sg19
(lp959
sg21
I0
sba(iArchitecture
Entity
p960
(dp961
g11
(lp962
sg13
S'android.hardware.camera2.marshal.impl.MarshalQueryableStreamConfigurationDuration$MarshalerStreamConfigurationDuration'
p963
sg15
(lp964
sg17
(lp965
sg19
(lp966
sg21
I0
sba(iArchitecture
Entity
p967
(dp968
g11
(lp969
sg13
S'android.media.midi.MidiDevice'
p970
sg15
(lp971
sg17
(lp972
sg19
(lp973
sg21
I0
sba(iArchitecture
Entity
p974
(dp975
g11
(lp976
sg13
S'android.media.midi.MidiDevice$MidiConnection'
p977
sg15
(lp978
sg17
(lp979
sg19
(lp980
sg21
I0
sba(iArchitecture
Entity
p981
(dp982
g11
(lp983
sg13
S'android.media.midi.MidiDeviceInfo'
p984
sg15
(lp985
sg17
(lp986
sg19
(lp987
sg21
I0
sba(iArchitecture
Entity
p988
(dp989
g11
(lp990
sg13
S'android.media.midi.MidiDeviceInfo$1'
p991
sg15
(lp992
sg17
(lp993
sg19
(lp994
sg21
I0
sba(iArchitecture
Entity
p995
(dp996
g11
(lp997
sg13
S'android.media.midi.MidiDeviceInfo$PortInfo'
p998
sg15
(lp999
sg17
(lp1000
sg19
(lp1001
sg21
I0
sba(iArchitecture
Entity
p1002
(dp1003
g11
(lp1004
sg13
S'android.media.midi.MidiDeviceServer'
p1005
sg15
(lp1006
sg17
(lp1007
sg19
(lp1008
sg21
I0
sba(iArchitecture
Entity
p1009
(dp1010
g11
(lp1011
sg13
S'android.media.midi.MidiDeviceServer$1'
p1012
sg15
(lp1013
sg17
(lp1014
sg19
(lp1015
sg21
I0
sba(iArchitecture
Entity
p1016
(dp1017
g11
(lp1018
sg13
S'android.media.midi.MidiDeviceServer$Callback'
p1019
sg15
(lp1020
sg17
(lp1021
sg19
(lp1022
sg21
I0
sba(iArchitecture
Entity
p1023
(dp1024
g11
(lp1025
sg13
S'android.media.midi.MidiDeviceServer$InputPortClient'
p1026
sg15
(lp1027
sg17
(lp1028
sg19
(lp1029
sg21
I0
sba(iArchitecture
Entity
p1030
(dp1031
g11
(lp1032
sg13
S'android.media.midi.MidiDeviceServer$OutputPortClient'
p1033
sg15
(lp1034
sg17
(lp1035
sg19
(lp1036
sg21
I0
sba(iArchitecture
Entity
p1037
(dp1038
g11
(lp1039
sg13
S'android.media.midi.MidiDeviceServer$PortClient'
p1040
sg15
(lp1041
sg17
(lp1042
sg19
(lp1043
sg21
I0
sba(iArchitecture
Entity
p1044
(dp1045
g11
(lp1046
sg13
S'android.media.midi.MidiDeviceService'
p1047
sg15
(lp1048
sg17
(lp1049
sg19
(lp1050
sg21
I0
sba(iArchitecture
Entity
p1051
(dp1052
g11
(lp1053
sg13
S'android.media.midi.MidiDeviceService$1'
p1054
sg15
(lp1055
sg17
(lp1056
sg19
(lp1057
sg21
I0
sba(iArchitecture
Entity
p1058
(dp1059
g11
(lp1060
sg13
S'android.media.midi.MidiDeviceStatus'
p1061
sg15
(lp1062
sg17
(lp1063
sg19
(lp1064
sg21
I0
sba(iArchitecture
Entity
p1065
(dp1066
g11
(lp1067
sg13
S'android.media.midi.MidiDeviceStatus$1'
p1068
sg15
(lp1069
sg17
(lp1070
sg19
(lp1071
sg21
I0
sba(iArchitecture
Entity
p1072
(dp1073
g11
(lp1074
sg13
S'android.security.SystemKeyStore'
p1075
sg15
(lp1076
sg17
(lp1077
sg19
(lp1078
sg21
I0
sba(iArchitecture
Entity
p1079
(dp1080
g11
(lp1081
sg13
S'android.view.inputmethod.ExtractedText'
p1082
sg15
(lp1083
sg17
(lp1084
sg19
(lp1085
sg21
I0
sba(iArchitecture
Entity
p1086
(dp1087
g11
(lp1088
sg13
S'android.view.inputmethod.ExtractedText$1'
p1089
sg15
(lp1090
sg17
(lp1091
sg19
(lp1092
sg21
I0
sba(iArchitecture
Entity
p1093
(dp1094
g11
(lp1095
sg13
S'android.webkit.CacheManager'
p1096
sg15
(lp1097
sg17
(lp1098
sg19
(lp1099
sg21
I0
sba(iArchitecture
Entity
p1100
(dp1101
g11
(lp1102
sg13
S'android.webkit.CacheManager$CacheResult'
p1103
sg15
(lp1104
sg17
(lp1105
sg19
(lp1106
sg21
I0
sba(iArchitecture
Entity
p1107
(dp1108
g11
(lp1109
sg13
S'com.android.internal.midi.MidiEventScheduler'
p1110
sg15
(lp1111
sg17
(lp1112
sg19
(lp1113
sg21
I0
sba(iArchitecture
Entity
p1114
(dp1115
g11
(lp1116
sg13
S'com.android.internal.midi.MidiEventScheduler$MidiEvent'
p1117
sg15
(lp1118
sg17
(lp1119
sg19
(lp1120
sg21
I0
sba(iArchitecture
Entity
p1121
(dp1122
g11
(lp1123
sg13
S'com.android.internal.midi.MidiEventScheduler$SchedulingReceiver'
p1124
sg15
(lp1125
sg17
(lp1126
sg19
(lp1127
sg21
I0
sba(iArchitecture
Entity
p1128
(dp1129
g11
(lp1130
sg13
S'com.android.internal.midi.MidiFramer'
p1131
sg15
(lp1132
sg17
(lp1133
sg19
(lp1134
sg21
I0
sba(iArchitecture
Entity
p1135
(dp1136
g11
(lp1137
sg13
S'com.android.internal.statusbar.NotificationVisibility'
p1138
sg15
(lp1139
sg17
(lp1140
sg19
(lp1141
sg21
I0
sba(iArchitecture
Entity
p1142
(dp1143
g11
(lp1144
sg13
S'com.android.internal.statusbar.NotificationVisibility$1'
p1145
sg15
(lp1146
sg17
(lp1147
sg19
(lp1148
sg21
I0
sba(iArchitecture
Entity
p1149
(dp1150
g11
(lp1151
sg13
S'com.android.server.hdmi.ActiveSourceHandler'
p1152
sg15
(lp1153
sg17
(lp1154
sg19
(lp1155
sg21
I0
sba(iArchitecture
Entity
p1156
(dp1157
g11
(lp1158
sg13
S'com.android.server.hdmi.SelectRequestBuffer'
p1159
sg15
(lp1160
sg17
(lp1161
sg19
(lp1162
sg21
I0
sba(iArchitecture
Entity
p1163
(dp1164
g11
(lp1165
sg13
S'com.android.server.hdmi.SelectRequestBuffer$1'
p1166
sg15
(lp1167
sg17
(lp1168
sg19
(lp1169
sg21
I0
sba(iArchitecture
Entity
p1170
(dp1171
g11
(lp1172
sg13
S'com.android.server.hdmi.SelectRequestBuffer$DeviceSelectRequest'
p1173
sg15
(lp1174
sg17
(lp1175
sg19
(lp1176
sg21
I0
sba(iArchitecture
Entity
p1177
(dp1178
g11
(lp1179
sg13
S'com.android.server.hdmi.SelectRequestBuffer$PortSelectRequest'
p1180
sg15
(lp1181
sg17
(lp1182
sg19
(lp1183
sg21
I0
sba(iArchitecture
Entity
p1184
(dp1185
g11
(lp1186
sg13
S'com.android.server.hdmi.SelectRequestBuffer$SelectRequest'
p1187
sg15
(lp1188
sg17
(lp1189
sg19
(lp1190
sg21
I0
sba(iArchitecture
Entity
p1191
(dp1192
g11
(lp1193
sg13
S'com.android.server.usb.UsbMidiDevice'
p1194
sg15
(lp1195
sg17
(lp1196
sg19
(lp1197
sg21
I0
sba(iArchitecture
Entity
p1198
(dp1199
g11
(lp1200
sg13
S'com.android.server.usb.UsbMidiDevice$1'
p1201
sg15
(lp1202
sg17
(lp1203
sg19
(lp1204
sg21
I0
sba(iArchitecture
Entity
p1205
(dp1206
g11
(lp1207
sg13
S'com.android.server.usb.UsbMidiDevice$2'
p1208
sg15
(lp1209
sg17
(lp1210
sg19
(lp1211
sg21
I0
sba(iArchitecture
Entity
p1212
(dp1213
g11
(lp1214
sg13
S'com.android.server.usb.UsbMidiDevice$3'
p1215
sg15
(lp1216
sg17
(lp1217
sg19
(lp1218
sg21
I0
sba(iArchitecture
Entity
p1219
(dp1220
g11
(lp1221
sg13
S'com.android.server.usb.UsbMidiDevice$InputReceiverProxy'
p1222
sg15
(lp1223
sg17
(lp1224
sg19
(lp1225
sg21
I0
sbasg43
(lp1226
g886
ag893
ag900
ag907
ag914
ag921
ag928
ag935
ag942
ag949
ag956
ag963
ag970
ag977
ag984
ag991
ag998
ag1005
ag1012
ag1019
ag1026
ag1033
ag1040
ag1047
ag1054
ag1061
ag1068
ag1075
ag1082
ag1089
ag1096
ag1103
ag1110
ag1117
ag1124
ag1131
ag1138
ag1145
ag1152
ag1159
ag1166
ag1173
ag1180
ag1187
ag1194
ag1201
ag1208
ag1215
ag1222
asg21
I0
sg45
S'1416'
p1227
sba(iArchitecture
Cluster
p1228
(dp1229
g7
(lp1230
(iArchitecture
Entity
p1231
(dp1232
g11
(lp1233
sg13
S'android.hardware.camera2.impl.ICameraDeviceUserWrapper'
p1234
sg15
(lp1235
sg17
(lp1236
sg19
(lp1237
sg21
I0
sbasg43
(lp1238
g1234
asg21
I0
sg45
S'16'
p1239
sba(iArchitecture
Cluster
p1240
(dp1241
g7
(lp1242
(iArchitecture
Entity
p1243
(dp1244
g11
(lp1245
sg13
S'android.filterfw.core.NativeBuffer'
p1246
sg15
(lp1247
sg17
(lp1248
sg19
(lp1249
sg21
I0
sbasg43
(lp1250
g1246
asg21
I0
sg45
S'160'
p1251
sba(iArchitecture
Cluster
p1252
(dp1253
g7
(lp1254
(iArchitecture
Entity
p1255
(dp1256
g11
(lp1257
sg13
S'android.media.audiofx.AutomaticGainControl'
p1258
sg15
(lp1259
sg17
(lp1260
sg19
(lp1261
sg21
I0
sbasg43
(lp1262
g1258
asg21
I0
sg45
S'161'
p1263
sba(iArchitecture
Cluster
p1264
(dp1265
g7
(lp1266
(iArchitecture
Entity
p1267
(dp1268
g11
(lp1269
sg13
S'android.hardware.camera2.utils.ArrayUtils'
p1270
sg15
(lp1271
sg17
(lp1272
sg19
(lp1273
sg21
I0
sbasg43
(lp1274
g1270
asg21
I0
sg45
S'162'
p1275
sba(iArchitecture
Cluster
p1276
(dp1277
g7
(lp1278
(iArchitecture
Entity
p1279
(dp1280
g11
(lp1281
sg13
S'android.text.format.DateUtils'
p1282
sg15
(lp1283
sg17
(lp1284
sg19
(lp1285
sg21
I0
sbasg43
(lp1286
g1282
asg21
I0
sg45
S'163'
p1287
sba(iArchitecture
Cluster
p1288
(dp1289
g7
(lp1290
(iArchitecture
Entity
p1291
(dp1292
g11
(lp1293
sg13
S'android.bluetooth.BluetoothManager'
p1294
sg15
(lp1295
sg17
(lp1296
sg19
(lp1297
sg21
I0
sbasg43
(lp1298
g1294
asg21
I0
sg45
S'164'
p1299
sba(iArchitecture
Cluster
p1300
(dp1301
g7
(lp1302
(iArchitecture
Entity
p1303
(dp1304
g11
(lp1305
sg13
S'android.webkit.UrlInterceptHandler'
p1306
sg15
(lp1307
sg17
(lp1308
sg19
(lp1309
sg21
I0
sbasg43
(lp1310
g1306
asg21
I0
sg45
S'165'
p1311
sba(iArchitecture
Cluster
p1312
(dp1313
g7
(lp1314
(iArchitecture
Entity
p1315
(dp1316
g11
(lp1317
sg13
S'android.net.NetworkPolicyManager'
p1318
sg15
(lp1319
sg17
(lp1320
sg19
(lp1321
sg21
I0
sbasg43
(lp1322
g1318
asg21
I0
sg45
S'166'
p1323
sba(iArchitecture
Cluster
p1324
(dp1325
g7
(lp1326
(iArchitecture
Entity
p1327
(dp1328
g11
(lp1329
sg13
S'android.webkit.PermissionRequest'
p1330
sg15
(lp1331
sg17
(lp1332
sg19
(lp1333
sg21
I0
sbasg43
(lp1334
g1330
asg21
I0
sg45
S'167'
p1335
sba(iArchitecture
Cluster
p1336
(dp1337
g7
(lp1338
(iArchitecture
Entity
p1339
(dp1340
g11
(lp1341
sg13
S'android.graphics.PorterDuffColorFilter'
p1342
sg15
(lp1343
sg17
(lp1344
sg19
(lp1345
sg21
I0
sbasg43
(lp1346
g1342
asg21
I0
sg45
S'168'
p1347
sba(iArchitecture
Cluster
p1348
(dp1349
g7
(lp1350
(iArchitecture
Entity
p1351
(dp1352
g11
(lp1353
sg13
S'android.database.sqlite.SQLiteQuery'
p1354
sg15
(lp1355
sg17
(lp1356
sg19
(lp1357
sg21
I0
sbasg43
(lp1358
g1354
asg21
I0
sg45
S'169'
p1359
sba(iArchitecture
Cluster
p1360
(dp1361
g7
(lp1362
(iArchitecture
Entity
p1363
(dp1364
g11
(lp1365
sg13
S'android.net.MobileLinkQualityInfo'
p1366
sg15
(lp1367
sg17
(lp1368
sg19
(lp1369
sg21
I0
sbasg43
(lp1370
g1366
asg21
I0
sg45
S'216'
p1371
sba(iArchitecture
Cluster
p1372
(dp1373
g7
(lp1374
(iArchitecture
Entity
p1375
(dp1376
g11
(lp1377
sg13
S'com.android.server.wm.PointerEventDispatcher'
p1378
sg15
(lp1379
sg17
(lp1380
sg19
(lp1381
sg21
I0
sbasg43
(lp1382
g1378
asg21
I0
sg45
S'316'
p1383
sba(iArchitecture
Cluster
p1384
(dp1385
g7
(lp1386
(iArchitecture
Entity
p1387
(dp1388
g11
(lp1389
sg13
S'android.util.AttributeSet'
p1390
sg15
(lp1391
sg17
(lp1392
sg19
(lp1393
sg21
I0
sbasg43
(lp1394
g1390
asg21
I0
sg45
S'416'
p1395
sba(iArchitecture
Cluster
p1396
(dp1397
g7
(lp1398
(iArchitecture
Entity
p1399
(dp1400
g11
(lp1401
sg13
S'android.net.wifi.WifiLinkLayerStats'
p1402
sg15
(lp1403
sg17
(lp1404
sg19
(lp1405
sg21
I0
sba(iArchitecture
Entity
p1406
(dp1407
g11
(lp1408
sg13
S'android.net.wifi.WifiLinkLayerStats$1'
p1409
sg15
(lp1410
sg17
(lp1411
sg19
(lp1412
sg21
I0
sbasg43
(lp1413
g1402
ag1409
asg21
I0
sg45
S'516'
p1414
sba(iArchitecture
Cluster
p1415
(dp1416
g7
(lp1417
(iArchitecture
Entity
p1418
(dp1419
g11
(lp1420
sg13
S'com.android.server.wm.WindowSurfacePlacer'
p1421
sg15
(lp1422
sg17
(lp1423
sg19
(lp1424
sg21
I0
sba(iArchitecture
Entity
p1425
(dp1426
g11
(lp1427
sg13
S'com.android.server.wm.WindowSurfacePlacer$LayerAndToken'
p1428
sg15
(lp1429
sg17
(lp1430
sg19
(lp1431
sg21
I0
sbasg43
(lp1432
g1421
ag1428
asg21
I0
sg45
S'616'
p1433
sba(iArchitecture
Cluster
p1434
(dp1435
g7
(lp1436
(iArchitecture
Entity
p1437
(dp1438
g11
(lp1439
sg13
S'com.android.server.LockGuard'
p1440
sg15
(lp1441
sg17
(lp1442
sg19
(lp1443
sg21
I0
sba(iArchitecture
Entity
p1444
(dp1445
g11
(lp1446
sg13
S'com.android.server.LockGuard$LockInfo'
p1447
sg15
(lp1448
sg17
(lp1449
sg19
(lp1450
sg21
I0
sbasg43
(lp1451
g1440
ag1447
asg21
I0
sg45
S'716'
p1452
sba(iArchitecture
Cluster
p1453
(dp1454
g7
(lp1455
(iArchitecture
Entity
p1456
(dp1457
g11
(lp1458
sg13
S'android.os.UserManagerInternal'
p1459
sg15
(lp1460
sg17
(lp1461
sg19
(lp1462
sg21
I0
sba(iArchitecture
Entity
p1463
(dp1464
g11
(lp1465
sg13
S'android.os.UserManagerInternal$UserRestrictionsListener'
p1466
sg15
(lp1467
sg17
(lp1468
sg19
(lp1469
sg21
I0
sbasg43
(lp1470
g1459
ag1466
asg21
I0
sg45
S'816'
p1471
sba(iArchitecture
Cluster
p1472
(dp1473
g7
(lp1474
(iArchitecture
Entity
p1475
(dp1476
g11
(lp1477
sg13
S'android.content.ClipData'
p1478
sg15
(lp1479
sg17
(lp1480
sg19
(lp1481
sg21
I0
sba(iArchitecture
Entity
p1482
(dp1483
g11
(lp1484
sg13
S'android.content.ClipData$1'
p1485
sg15
(lp1486
sg17
(lp1487
sg19
(lp1488
sg21
I0
sba(iArchitecture
Entity
p1489
(dp1490
g11
(lp1491
sg13
S'android.content.ClipData$Item'
p1492
sg15
(lp1493
sg17
(lp1494
sg19
(lp1495
sg21
I0
sbasg43
(lp1496
g1478
ag1485
ag1492
asg21
I0
sg45
S'916'
p1497
sbasS'target_sub'
p1498
S'16'
p1499
sg43
(lp1500
sS'is_component_arch'
p1501
I01
sg45
S'7.0.0_r1'
p1502
sba.