(lp0
(iArchitecture
Architecture
p1
(dp2
S'clusters'
p3
(lp4
(iArchitecture
Cluster
p5
(dp6
S'entities'
p7
(lp8
(iArchitecture
Entity
p9
(dp10
S'issue_ids'
p11
(lp12
sS'name'
p13
S'android.preference.PreferenceManager'
p14
sS'descs'
p15
(lp16
sS'labels'
p17
(lp18
sS'titles'
p19
(lp20
sS'change'
p21
I0
sba(iArchitecture
Entity
p22
(dp23
g11
(lp24
sg13
S'android.preference.PreferenceManager$OnActivityDestroyListener'
p25
sg15
(lp26
sg17
(lp27
sg19
(lp28
sg21
I0
sba(iArchitecture
Entity
p29
(dp30
g11
(lp31
sg13
S'android.preference.PreferenceManager$OnActivityResultListener'
p32
sg15
(lp33
sg17
(lp34
sg19
(lp35
sg21
I0
sba(iArchitecture
Entity
p36
(dp37
g11
(lp38
sg13
S'android.preference.PreferenceManager$OnActivityStopListener'
p39
sg15
(lp40
sg17
(lp41
sg19
(lp42
sg21
I0
sba(iArchitecture
Entity
p43
(dp44
g11
(lp45
sg13
S'android.preference.PreferenceManager$OnPreferenceTreeClickListener'
p46
sg15
(lp47
sg17
(lp48
sg19
(lp49
sg21
I0
sbasS'classes'
p50
(lp51
g14
ag25
ag32
ag39
ag46
asg21
I0
sS'label'
p52
S'1074'
p53
sba(iArchitecture
Cluster
p54
(dp55
g7
(lp56
(iArchitecture
Entity
p57
(dp58
g11
(lp59
sg13
S'android.app.SharedPreferencesImpl'
p60
sg15
(lp61
sg17
(lp62
sg19
(lp63
sg21
I0
sba(iArchitecture
Entity
p64
(dp65
g11
(lp66
sg13
S'android.app.SharedPreferencesImpl$1'
p67
sg15
(lp68
sg17
(lp69
sg19
(lp70
sg21
I0
sba(iArchitecture
Entity
p71
(dp72
g11
(lp73
sg13
S'android.app.SharedPreferencesImpl$2'
p74
sg15
(lp75
sg17
(lp76
sg19
(lp77
sg21
I0
sba(iArchitecture
Entity
p78
(dp79
g11
(lp80
sg13
S'android.app.SharedPreferencesImpl$EditorImpl'
p81
sg15
(lp82
sg17
(lp83
sg19
(lp84
sg21
I0
sba(iArchitecture
Entity
p85
(dp86
g11
(lp87
sg13
S'android.app.SharedPreferencesImpl$EditorImpl$1'
p88
sg15
(lp89
sg17
(lp90
sg19
(lp91
sg21
I0
sba(iArchitecture
Entity
p92
(dp93
g11
(lp94
sg13
S'android.app.SharedPreferencesImpl$EditorImpl$2'
p95
sg15
(lp96
sg17
(lp97
sg19
(lp98
sg21
I0
sba(iArchitecture
Entity
p99
(dp100
g11
(lp101
sg13
S'android.app.SharedPreferencesImpl$EditorImpl$3'
p102
sg15
(lp103
sg17
(lp104
sg19
(lp105
sg21
I0
sba(iArchitecture
Entity
p106
(dp107
g11
(lp108
sg13
S'android.app.SharedPreferencesImpl$MemoryCommitResult'
p109
sg15
(lp110
sg17
(lp111
sg19
(lp112
sg21
I0
sbasg50
(lp113
g60
ag67
ag74
ag81
ag88
ag95
ag102
ag109
asg21
I0
sg52
S'1174'
p114
sba(iArchitecture
Cluster
p115
(dp116
g7
(lp117
(iArchitecture
Entity
p118
(dp119
g11
(lp120
sg13
S'android.widget.ResourceCursorTreeAdapter'
p121
sg15
(lp122
sg17
(lp123
sg19
(lp124
sg21
I0
sba(iArchitecture
Entity
p125
(dp126
g11
(lp127
sg13
S'android.widget.SimpleCursorTreeAdapter'
p128
sg15
(lp129
sg17
(lp130
sg19
(lp131
sg21
I0
sba(iArchitecture
Entity
p132
(dp133
g11
(lp134
sg13
S'android.widget.SimpleCursorTreeAdapter$ViewBinder'
p135
sg15
(lp136
sg17
(lp137
sg19
(lp138
sg21
I0
sba(iArchitecture
Entity
p139
(dp140
g11
(lp141
sg13
S'android.widget.SimpleExpandableListAdapter'
p142
sg15
(lp143
sg17
(lp144
sg19
(lp145
sg21
I0
sbasg50
(lp146
g121
ag128
ag135
ag142
asg21
I0
sg52
S'1274'
p147
sba(iArchitecture
Cluster
p148
(dp149
g7
(lp150
(iArchitecture
Entity
p151
(dp152
g11
(lp153
sg13
S'android.transition.Transition'
p154
sg15
(lp155
sg17
(lp156
sg19
(lp157
sg21
I0
sba(iArchitecture
Entity
p158
(dp159
g11
(lp160
sg13
S'android.transition.Transition$1'
p161
sg15
(lp162
sg17
(lp163
sg19
(lp164
sg21
I0
sba(iArchitecture
Entity
p165
(dp166
g11
(lp167
sg13
S'android.transition.Transition$2'
p168
sg15
(lp169
sg17
(lp170
sg19
(lp171
sg21
I0
sba(iArchitecture
Entity
p172
(dp173
g11
(lp174
sg13
S'android.transition.Transition$3'
p175
sg15
(lp176
sg17
(lp177
sg19
(lp178
sg21
I0
sba(iArchitecture
Entity
p179
(dp180
g11
(lp181
sg13
S'android.transition.Transition$AnimationInfo'
p182
sg15
(lp183
sg17
(lp184
sg19
(lp185
sg21
I0
sba(iArchitecture
Entity
p186
(dp187
g11
(lp188
sg13
S'android.transition.Transition$ArrayListManager'
p189
sg15
(lp190
sg17
(lp191
sg19
(lp192
sg21
I0
sba(iArchitecture
Entity
p193
(dp194
g11
(lp195
sg13
S'android.transition.Transition$EpicenterCallback'
p196
sg15
(lp197
sg17
(lp198
sg19
(lp199
sg21
I0
sba(iArchitecture
Entity
p200
(dp201
g11
(lp202
sg13
S'android.transition.Transition$TransitionListener'
p203
sg15
(lp204
sg17
(lp205
sg19
(lp206
sg21
I0
sba(iArchitecture
Entity
p207
(dp208
g11
(lp209
sg13
S'android.transition.Transition$TransitionListenerAdapter'
p210
sg15
(lp211
sg17
(lp212
sg19
(lp213
sg21
I0
sba(iArchitecture
Entity
p214
(dp215
g11
(lp216
sg13
S'android.transition.TransitionSet'
p217
sg15
(lp218
sg17
(lp219
sg19
(lp220
sg21
I0
sba(iArchitecture
Entity
p221
(dp222
g11
(lp223
sg13
S'android.transition.TransitionSet$1'
p224
sg15
(lp225
sg17
(lp226
sg19
(lp227
sg21
I0
sba(iArchitecture
Entity
p228
(dp229
g11
(lp230
sg13
S'android.transition.TransitionSet$TransitionSetListener'
p231
sg15
(lp232
sg17
(lp233
sg19
(lp234
sg21
I0
sbasg50
(lp235
g154
ag161
ag168
ag175
ag182
ag189
ag196
ag203
ag210
ag217
ag224
ag231
asg21
I0
sg52
S'1374'
p236
sba(iArchitecture
Cluster
p237
(dp238
g7
(lp239
(iArchitecture
Entity
p240
(dp241
g11
(lp242
sg13
S'com.android.server.DiskStatsService'
p243
sg15
(lp244
sg17
(lp245
sg19
(lp246
sg21
I0
sbasg50
(lp247
g243
asg21
I0
sg52
S'174'
p248
sba(iArchitecture
Cluster
p249
(dp250
g7
(lp251
(iArchitecture
Entity
p252
(dp253
g11
(lp254
sg13
S'android.print.pdf.PrintedPdfDocument'
p255
sg15
(lp256
sg17
(lp257
sg19
(lp258
sg21
I0
sbasg50
(lp259
g255
asg21
I0
sg52
S'274'
p260
sba(iArchitecture
Cluster
p261
(dp262
g7
(lp263
(iArchitecture
Entity
p264
(dp265
g11
(lp266
sg13
S'com.android.server.SystemServiceManager'
p267
sg15
(lp268
sg17
(lp269
sg19
(lp270
sg21
I0
sbasg50
(lp271
g267
asg21
I0
sg52
S'374'
p272
sba(iArchitecture
Cluster
p273
(dp274
g7
(lp275
(iArchitecture
Entity
p276
(dp277
g11
(lp278
sg13
S'com.android.server.location.GeocoderProxy'
p279
sg15
(lp280
sg17
(lp281
sg19
(lp282
sg21
I0
sbasg50
(lp283
g279
asg21
I0
sg52
S'474'
p284
sba(iArchitecture
Cluster
p285
(dp286
g7
(lp287
(iArchitecture
Entity
p288
(dp289
g11
(lp290
sg13
S'com.android.internal.midi.MidiDispatcher'
p291
sg15
(lp292
sg17
(lp293
sg19
(lp294
sg21
I0
sba(iArchitecture
Entity
p295
(dp296
g11
(lp297
sg13
S'com.android.internal.midi.MidiDispatcher$1'
p298
sg15
(lp299
sg17
(lp300
sg19
(lp301
sg21
I0
sbasg50
(lp302
g291
ag298
asg21
I0
sg52
S'574'
p303
sba(iArchitecture
Cluster
p304
(dp305
g7
(lp306
(iArchitecture
Entity
p307
(dp308
g11
(lp309
sg13
S'android.inputmethodservice.IInputMethodSessionWrapper'
p310
sg15
(lp311
sg17
(lp312
sg19
(lp313
sg21
I0
sba(iArchitecture
Entity
p314
(dp315
g11
(lp316
sg13
S'android.inputmethodservice.IInputMethodSessionWrapper$ImeInputEventReceiver'
p317
sg15
(lp318
sg17
(lp319
sg19
(lp320
sg21
I0
sbasg50
(lp321
g310
ag317
asg21
I0
sg52
S'674'
p322
sba(iArchitecture
Cluster
p323
(dp324
g7
(lp325
(iArchitecture
Entity
p326
(dp327
g11
(lp328
sg13
S'android.text.SpannableStringBuilder'
p329
sg15
(lp330
sg17
(lp331
sg19
(lp332
sg21
I0
sbasg50
(lp333
g329
asg21
I0
sg52
S'74'
p334
sba(iArchitecture
Cluster
p335
(dp336
g7
(lp337
(iArchitecture
Entity
p338
(dp339
g11
(lp340
sg13
S'com.android.server.net.NetlinkTracker'
p341
sg15
(lp342
sg17
(lp343
sg19
(lp344
sg21
I0
sba(iArchitecture
Entity
p345
(dp346
g11
(lp347
sg13
S'com.android.server.net.NetlinkTracker$Callback'
p348
sg15
(lp349
sg17
(lp350
sg19
(lp351
sg21
I0
sbasg50
(lp352
g341
ag348
asg21
I0
sg52
S'740'
p353
sba(iArchitecture
Cluster
p354
(dp355
g7
(lp356
(iArchitecture
Entity
p357
(dp358
g11
(lp359
sg13
S'android.media.AudioRouting'
p360
sg15
(lp361
sg17
(lp362
sg19
(lp363
sg21
I0
sba(iArchitecture
Entity
p364
(dp365
g11
(lp366
sg13
S'android.media.AudioRouting$OnRoutingChangedListener'
p367
sg15
(lp368
sg17
(lp369
sg19
(lp370
sg21
I0
sbasg50
(lp371
g360
ag367
asg21
I0
sg52
S'741'
p372
sba(iArchitecture
Cluster
p373
(dp374
g7
(lp375
(iArchitecture
Entity
p376
(dp377
g11
(lp378
sg13
S'com.android.server.location.GeofenceManager'
p379
sg15
(lp380
sg17
(lp381
sg19
(lp382
sg21
I0
sba(iArchitecture
Entity
p383
(dp384
g11
(lp385
sg13
S'com.android.server.location.GeofenceManager$GeofenceHandler'
p386
sg15
(lp387
sg17
(lp388
sg19
(lp389
sg21
I0
sbasg50
(lp390
g379
ag386
asg21
I0
sg52
S'742'
p391
sba(iArchitecture
Cluster
p392
(dp393
g7
(lp394
(iArchitecture
Entity
p395
(dp396
g11
(lp397
sg13
S'android.graphics.BitmapFactory'
p398
sg15
(lp399
sg17
(lp400
sg19
(lp401
sg21
I0
sba(iArchitecture
Entity
p402
(dp403
g11
(lp404
sg13
S'android.graphics.BitmapFactory$Options'
p405
sg15
(lp406
sg17
(lp407
sg19
(lp408
sg21
I0
sbasg50
(lp409
g398
ag405
asg21
I0
sg52
S'743'
p410
sba(iArchitecture
Cluster
p411
(dp412
g7
(lp413
(iArchitecture
Entity
p414
(dp415
g11
(lp416
sg13
S'android.os.health.HealthStatsParceler'
p417
sg15
(lp418
sg17
(lp419
sg19
(lp420
sg21
I0
sba(iArchitecture
Entity
p421
(dp422
g11
(lp423
sg13
S'android.os.health.HealthStatsParceler$1'
p424
sg15
(lp425
sg17
(lp426
sg19
(lp427
sg21
I0
sbasg50
(lp428
g417
ag424
asg21
I0
sg52
S'744'
p429
sba(iArchitecture
Cluster
p430
(dp431
g7
(lp432
(iArchitecture
Entity
p433
(dp434
g11
(lp435
sg13
S'android.view.textservice.SentenceSuggestionsInfo'
p436
sg15
(lp437
sg17
(lp438
sg19
(lp439
sg21
I0
sba(iArchitecture
Entity
p440
(dp441
g11
(lp442
sg13
S'android.view.textservice.SentenceSuggestionsInfo$1'
p443
sg15
(lp444
sg17
(lp445
sg19
(lp446
sg21
I0
sbasg50
(lp447
g436
ag443
asg21
I0
sg52
S'745'
p448
sba(iArchitecture
Cluster
p449
(dp450
g7
(lp451
(iArchitecture
Entity
p452
(dp453
g11
(lp454
sg13
S'com.android.internal.view.InputBindResult'
p455
sg15
(lp456
sg17
(lp457
sg19
(lp458
sg21
I0
sba(iArchitecture
Entity
p459
(dp460
g11
(lp461
sg13
S'com.android.internal.view.InputBindResult$1'
p462
sg15
(lp463
sg17
(lp464
sg19
(lp465
sg21
I0
sbasg50
(lp466
g455
ag462
asg21
I0
sg52
S'746'
p467
sba(iArchitecture
Cluster
p468
(dp469
g7
(lp470
(iArchitecture
Entity
p471
(dp472
g11
(lp473
sg13
S'android.telephony.PreciseDataConnectionState'
p474
sg15
(lp475
sg17
(lp476
sg19
(lp477
sg21
I0
sba(iArchitecture
Entity
p478
(dp479
g11
(lp480
sg13
S'android.telephony.PreciseDataConnectionState$1'
p481
sg15
(lp482
sg17
(lp483
sg19
(lp484
sg21
I0
sbasg50
(lp485
g474
ag481
asg21
I0
sg52
S'747'
p486
sba(iArchitecture
Cluster
p487
(dp488
g7
(lp489
(iArchitecture
Entity
p490
(dp491
g11
(lp492
sg13
S'android.hardware.camera2.marshal.impl.MarshalQueryableRggbChannelVector'
p493
sg15
(lp494
sg17
(lp495
sg19
(lp496
sg21
I0
sba(iArchitecture
Entity
p497
(dp498
g11
(lp499
sg13
S'android.hardware.camera2.marshal.impl.MarshalQueryableRggbChannelVector$MarshalerRggbChannelVector'
p500
sg15
(lp501
sg17
(lp502
sg19
(lp503
sg21
I0
sbasg50
(lp504
g493
ag500
asg21
I0
sg52
S'748'
p505
sba(iArchitecture
Cluster
p506
(dp507
g7
(lp508
(iArchitecture
Entity
p509
(dp510
g11
(lp511
sg13
S'android.bluetooth.BluetoothGattCharacteristic'
p512
sg15
(lp513
sg17
(lp514
sg19
(lp515
sg21
I0
sba(iArchitecture
Entity
p516
(dp517
g11
(lp518
sg13
S'android.bluetooth.BluetoothGattCharacteristic$1'
p519
sg15
(lp520
sg17
(lp521
sg19
(lp522
sg21
I0
sbasg50
(lp523
g512
ag519
asg21
I0
sg52
S'749'
p524
sba(iArchitecture
Cluster
p525
(dp526
g7
(lp527
(iArchitecture
Entity
p528
(dp529
g11
(lp530
sg13
S'android.telecom.GatewayInfo'
p531
sg15
(lp532
sg17
(lp533
sg19
(lp534
sg21
I0
sba(iArchitecture
Entity
p535
(dp536
g11
(lp537
sg13
S'android.telecom.GatewayInfo$1'
p538
sg15
(lp539
sg17
(lp540
sg19
(lp541
sg21
I0
sbasg50
(lp542
g531
ag538
asg21
I0
sg52
S'774'
p543
sba(iArchitecture
Cluster
p544
(dp545
g7
(lp546
(iArchitecture
Entity
p547
(dp548
g11
(lp549
sg13
S'android.widget.SpellChecker'
p550
sg15
(lp551
sg17
(lp552
sg19
(lp553
sg21
I0
sba(iArchitecture
Entity
p554
(dp555
g11
(lp556
sg13
S'android.widget.SpellChecker$1'
p557
sg15
(lp558
sg17
(lp559
sg19
(lp560
sg21
I0
sba(iArchitecture
Entity
p561
(dp562
g11
(lp563
sg13
S'android.widget.SpellChecker$SpellParser'
p564
sg15
(lp565
sg17
(lp566
sg19
(lp567
sg21
I0
sbasg50
(lp568
g550
ag557
ag564
asg21
I0
sg52
S'874'
p569
sba(iArchitecture
Cluster
p570
(dp571
g7
(lp572
(iArchitecture
Entity
p573
(dp574
g11
(lp575
sg13
S'android.view.InputDevice'
p576
sg15
(lp577
sg17
(lp578
sg19
(lp579
sg21
I0
sba(iArchitecture
Entity
p580
(dp581
g11
(lp582
sg13
S'android.view.InputDevice$1'
p583
sg15
(lp584
sg17
(lp585
sg19
(lp586
sg21
I0
sba(iArchitecture
Entity
p587
(dp588
g11
(lp589
sg13
S'android.view.InputDevice$MotionRange'
p590
sg15
(lp591
sg17
(lp592
sg19
(lp593
sg21
I0
sbasg50
(lp594
g576
ag583
ag590
asg21
I0
sg52
S'974'
p595
sbasS'target_sub'
p596
S'74'
p597
sg50
(lp598
sS'is_component_arch'
p599
I01
sg52
S'7.0.0_r1'
p600
sba.