(lp0
(iArchitecture
Architecture
p1
(dp2
S'clusters'
p3
(lp4
(iArchitecture
Cluster
p5
(dp6
S'entities'
p7
(lp8
(iArchitecture
Entity
p9
(dp10
S'issue_ids'
p11
(lp12
sS'name'
p13
S'android.security.keystore.AndroidKeyStoreBCWorkaroundProvider'
p14
sS'descs'
p15
(lp16
sS'labels'
p17
(lp18
sS'titles'
p19
(lp20
sS'change'
p21
I0
sbasS'classes'
p22
(lp23
g14
asg21
I0
sS'label'
p24
S'110'
p25
sba(iArchitecture
Cluster
p26
(dp27
g7
(lp28
(iArchitecture
Entity
p29
(dp30
g11
(lp31
sg13
S'android.text.util.Linkify'
p32
sg15
(lp33
sg17
(lp34
sg19
(lp35
sg21
I0
sba(iArchitecture
Entity
p36
(dp37
g11
(lp38
sg13
S'android.text.util.Linkify$1'
p39
sg15
(lp40
sg17
(lp41
sg19
(lp42
sg21
I0
sba(iArchitecture
Entity
p43
(dp44
g11
(lp45
sg13
S'android.text.util.Linkify$2'
p46
sg15
(lp47
sg17
(lp48
sg19
(lp49
sg21
I0
sba(iArchitecture
Entity
p50
(dp51
g11
(lp52
sg13
S'android.text.util.Linkify$3'
p53
sg15
(lp54
sg17
(lp55
sg19
(lp56
sg21
I0
sba(iArchitecture
Entity
p57
(dp58
g11
(lp59
sg13
S'android.text.util.Linkify$4'
p60
sg15
(lp61
sg17
(lp62
sg19
(lp63
sg21
I0
sba(iArchitecture
Entity
p64
(dp65
g11
(lp66
sg13
S'android.text.util.Linkify$MatchFilter'
p67
sg15
(lp68
sg17
(lp69
sg19
(lp70
sg21
I0
sba(iArchitecture
Entity
p71
(dp72
g11
(lp73
sg13
S'android.text.util.Linkify$TransformFilter'
p74
sg15
(lp75
sg17
(lp76
sg19
(lp77
sg21
I0
sbasg22
(lp78
g32
ag39
ag46
ag53
ag60
ag67
ag74
asg21
I0
sg24
S'1100'
p79
sba(iArchitecture
Cluster
p80
(dp81
g7
(lp82
(iArchitecture
Entity
p83
(dp84
g11
(lp85
sg13
S'android.os.CommonClock'
p86
sg15
(lp87
sg17
(lp88
sg19
(lp89
sg21
I0
sba(iArchitecture
Entity
p90
(dp91
g11
(lp92
sg13
S'android.os.CommonClock$1'
p93
sg15
(lp94
sg17
(lp95
sg19
(lp96
sg21
I0
sba(iArchitecture
Entity
p97
(dp98
g11
(lp99
sg13
S'android.os.CommonClock$OnServerDiedListener'
p100
sg15
(lp101
sg17
(lp102
sg19
(lp103
sg21
I0
sba(iArchitecture
Entity
p104
(dp105
g11
(lp106
sg13
S'android.os.CommonClock$OnTimelineChangedListener'
p107
sg15
(lp108
sg17
(lp109
sg19
(lp110
sg21
I0
sba(iArchitecture
Entity
p111
(dp112
g11
(lp113
sg13
S'android.os.CommonClock$TimelineChangedListener'
p114
sg15
(lp115
sg17
(lp116
sg19
(lp117
sg21
I0
sbasg22
(lp118
g86
ag93
ag100
ag107
ag114
asg21
I0
sg24
S'1101'
p119
sba(iArchitecture
Cluster
p120
(dp121
g7
(lp122
(iArchitecture
Entity
p123
(dp124
g11
(lp125
sg13
S'com.android.internal.widget.LockPatternChecker'
p126
sg15
(lp127
sg17
(lp128
sg19
(lp129
sg21
I0
sba(iArchitecture
Entity
p130
(dp131
g11
(lp132
sg13
S'com.android.internal.widget.LockPatternChecker$1'
p133
sg15
(lp134
sg17
(lp135
sg19
(lp136
sg21
I0
sba(iArchitecture
Entity
p137
(dp138
g11
(lp139
sg13
S'com.android.internal.widget.LockPatternChecker$2'
p140
sg15
(lp141
sg17
(lp142
sg19
(lp143
sg21
I0
sba(iArchitecture
Entity
p144
(dp145
g11
(lp146
sg13
S'com.android.internal.widget.LockPatternChecker$3'
p147
sg15
(lp148
sg17
(lp149
sg19
(lp150
sg21
I0
sba(iArchitecture
Entity
p151
(dp152
g11
(lp153
sg13
S'com.android.internal.widget.LockPatternChecker$4'
p154
sg15
(lp155
sg17
(lp156
sg19
(lp157
sg21
I0
sba(iArchitecture
Entity
p158
(dp159
g11
(lp160
sg13
S'com.android.internal.widget.LockPatternChecker$5'
p161
sg15
(lp162
sg17
(lp163
sg19
(lp164
sg21
I0
sba(iArchitecture
Entity
p165
(dp166
g11
(lp167
sg13
S'com.android.internal.widget.LockPatternChecker$OnCheckCallback'
p168
sg15
(lp169
sg17
(lp170
sg19
(lp171
sg21
I0
sba(iArchitecture
Entity
p172
(dp173
g11
(lp174
sg13
S'com.android.internal.widget.LockPatternChecker$OnVerifyCallback'
p175
sg15
(lp176
sg17
(lp177
sg19
(lp178
sg21
I0
sbasg22
(lp179
g126
ag133
ag140
ag147
ag154
ag161
ag168
ag175
asg21
I0
sg24
S'1102'
p180
sba(iArchitecture
Cluster
p181
(dp182
g7
(lp183
(iArchitecture
Entity
p184
(dp185
g11
(lp186
sg13
S'android.media.ExifInterface'
p187
sg15
(lp188
sg17
(lp189
sg19
(lp190
sg21
I0
sba(iArchitecture
Entity
p191
(dp192
g11
(lp193
sg13
S'android.media.ExifInterface$ByteOrderAwarenessDataInputStream'
p194
sg15
(lp195
sg17
(lp196
sg19
(lp197
sg21
I0
sba(iArchitecture
Entity
p198
(dp199
g11
(lp200
sg13
S'android.media.ExifInterface$ByteOrderAwarenessDataOutputStream'
p201
sg15
(lp202
sg17
(lp203
sg19
(lp204
sg21
I0
sba(iArchitecture
Entity
p205
(dp206
g11
(lp207
sg13
S'android.media.ExifInterface$ExifAttribute'
p208
sg15
(lp209
sg17
(lp210
sg19
(lp211
sg21
I0
sba(iArchitecture
Entity
p212
(dp213
g11
(lp214
sg13
S'android.media.ExifInterface$ExifTag'
p215
sg15
(lp216
sg17
(lp217
sg19
(lp218
sg21
I0
sba(iArchitecture
Entity
p219
(dp220
g11
(lp221
sg13
S'android.media.ExifInterface$Rational'
p222
sg15
(lp223
sg17
(lp224
sg19
(lp225
sg21
I0
sbasg22
(lp226
g187
ag194
ag201
ag208
ag215
ag222
asg21
I0
sg24
S'1103'
p227
sba(iArchitecture
Cluster
p228
(dp229
g7
(lp230
(iArchitecture
Entity
p231
(dp232
g11
(lp233
sg13
S'com.android.server.display.LocalDisplayAdapter'
p234
sg15
(lp235
sg17
(lp236
sg19
(lp237
sg21
I0
sba(iArchitecture
Entity
p238
(dp239
g11
(lp240
sg13
S'com.android.server.display.LocalDisplayAdapter$DisplayModeRecord'
p241
sg15
(lp242
sg17
(lp243
sg19
(lp244
sg21
I0
sba(iArchitecture
Entity
p245
(dp246
g11
(lp247
sg13
S'com.android.server.display.LocalDisplayAdapter$HotplugDisplayEventReceiver'
p248
sg15
(lp249
sg17
(lp250
sg19
(lp251
sg21
I0
sba(iArchitecture
Entity
p252
(dp253
g11
(lp254
sg13
S'com.android.server.display.LocalDisplayAdapter$LocalDisplayDevice'
p255
sg15
(lp256
sg17
(lp257
sg19
(lp258
sg21
I0
sba(iArchitecture
Entity
p259
(dp260
g11
(lp261
sg13
S'com.android.server.display.LocalDisplayAdapter$LocalDisplayDevice$1'
p262
sg15
(lp263
sg17
(lp264
sg19
(lp265
sg21
I0
sbasg22
(lp266
g234
ag241
ag248
ag255
ag262
asg21
I0
sg24
S'1104'
p267
sba(iArchitecture
Cluster
p268
(dp269
g7
(lp270
(iArchitecture
Entity
p271
(dp272
g11
(lp273
sg13
S'com.android.server.firewall.IntentFirewall'
p274
sg15
(lp275
sg17
(lp276
sg19
(lp277
sg21
I0
sba(iArchitecture
Entity
p278
(dp279
g11
(lp280
sg13
S'com.android.server.firewall.IntentFirewall$AMSInterface'
p281
sg15
(lp282
sg17
(lp283
sg19
(lp284
sg21
I0
sba(iArchitecture
Entity
p285
(dp286
g11
(lp287
sg13
S'com.android.server.firewall.IntentFirewall$FirewallHandler'
p288
sg15
(lp289
sg17
(lp290
sg19
(lp291
sg21
I0
sba(iArchitecture
Entity
p292
(dp293
g11
(lp294
sg13
S'com.android.server.firewall.IntentFirewall$FirewallIntentFilter'
p295
sg15
(lp296
sg17
(lp297
sg19
(lp298
sg21
I0
sba(iArchitecture
Entity
p299
(dp300
g11
(lp301
sg13
S'com.android.server.firewall.IntentFirewall$FirewallIntentResolver'
p302
sg15
(lp303
sg17
(lp304
sg19
(lp305
sg21
I0
sba(iArchitecture
Entity
p306
(dp307
g11
(lp308
sg13
S'com.android.server.firewall.IntentFirewall$Rule'
p309
sg15
(lp310
sg17
(lp311
sg19
(lp312
sg21
I0
sba(iArchitecture
Entity
p313
(dp314
g11
(lp315
sg13
S'com.android.server.firewall.IntentFirewall$RuleObserver'
p316
sg15
(lp317
sg17
(lp318
sg19
(lp319
sg21
I0
sbasg22
(lp320
g274
ag281
ag288
ag295
ag302
ag309
ag316
asg21
I0
sg24
S'1105'
p321
sba(iArchitecture
Cluster
p322
(dp323
g7
(lp324
(iArchitecture
Entity
p325
(dp326
g11
(lp327
sg13
S'com.android.server.CommonTimeManagementService'
p328
sg15
(lp329
sg17
(lp330
sg19
(lp331
sg21
I0
sba(iArchitecture
Entity
p332
(dp333
g11
(lp334
sg13
S'com.android.server.CommonTimeManagementService$1'
p335
sg15
(lp336
sg17
(lp337
sg19
(lp338
sg21
I0
sba(iArchitecture
Entity
p339
(dp340
g11
(lp341
sg13
S'com.android.server.CommonTimeManagementService$2'
p342
sg15
(lp343
sg17
(lp344
sg19
(lp345
sg21
I0
sba(iArchitecture
Entity
p346
(dp347
g11
(lp348
sg13
S'com.android.server.CommonTimeManagementService$3'
p349
sg15
(lp350
sg17
(lp351
sg19
(lp352
sg21
I0
sba(iArchitecture
Entity
p353
(dp354
g11
(lp355
sg13
S'com.android.server.CommonTimeManagementService$4'
p356
sg15
(lp357
sg17
(lp358
sg19
(lp359
sg21
I0
sba(iArchitecture
Entity
p360
(dp361
g11
(lp362
sg13
S'com.android.server.CommonTimeManagementService$5'
p363
sg15
(lp364
sg17
(lp365
sg19
(lp366
sg21
I0
sba(iArchitecture
Entity
p367
(dp368
g11
(lp369
sg13
S'com.android.server.CommonTimeManagementService$InterfaceScoreRule'
p370
sg15
(lp371
sg17
(lp372
sg19
(lp373
sg21
I0
sbasg22
(lp374
g328
ag335
ag342
ag349
ag356
ag363
ag370
asg21
I0
sg24
S'1106'
p375
sba(iArchitecture
Cluster
p376
(dp377
g7
(lp378
(iArchitecture
Entity
p379
(dp380
g11
(lp381
sg13
S'com.android.server.AnyMotionDetector'
p382
sg15
(lp383
sg17
(lp384
sg19
(lp385
sg21
I0
sba(iArchitecture
Entity
p386
(dp387
g11
(lp388
sg13
S'com.android.server.AnyMotionDetector$1'
p389
sg15
(lp390
sg17
(lp391
sg19
(lp392
sg21
I0
sba(iArchitecture
Entity
p393
(dp394
g11
(lp395
sg13
S'com.android.server.AnyMotionDetector$2'
p396
sg15
(lp397
sg17
(lp398
sg19
(lp399
sg21
I0
sba(iArchitecture
Entity
p400
(dp401
g11
(lp402
sg13
S'com.android.server.AnyMotionDetector$3'
p403
sg15
(lp404
sg17
(lp405
sg19
(lp406
sg21
I0
sba(iArchitecture
Entity
p407
(dp408
g11
(lp409
sg13
S'com.android.server.AnyMotionDetector$DeviceIdleCallback'
p410
sg15
(lp411
sg17
(lp412
sg19
(lp413
sg21
I0
sba(iArchitecture
Entity
p414
(dp415
g11
(lp416
sg13
S'com.android.server.AnyMotionDetector$RunningSignalStats'
p417
sg15
(lp418
sg17
(lp419
sg19
(lp420
sg21
I0
sba(iArchitecture
Entity
p421
(dp422
g11
(lp423
sg13
S'com.android.server.AnyMotionDetector$Vector3'
p424
sg15
(lp425
sg17
(lp426
sg19
(lp427
sg21
I0
sbasg22
(lp428
g382
ag389
ag396
ag403
ag410
ag417
ag424
asg21
I0
sg24
S'1107'
p429
sba(iArchitecture
Cluster
p430
(dp431
g7
(lp432
(iArchitecture
Entity
p433
(dp434
g11
(lp435
sg13
S'com.android.server.display.AutomaticBrightnessController'
p436
sg15
(lp437
sg17
(lp438
sg19
(lp439
sg21
I0
sba(iArchitecture
Entity
p440
(dp441
g11
(lp442
sg13
S'com.android.server.display.AutomaticBrightnessController$1'
p443
sg15
(lp444
sg17
(lp445
sg19
(lp446
sg21
I0
sba(iArchitecture
Entity
p447
(dp448
g11
(lp449
sg13
S'com.android.server.display.AutomaticBrightnessController$2'
p450
sg15
(lp451
sg17
(lp452
sg19
(lp453
sg21
I0
sba(iArchitecture
Entity
p454
(dp455
g11
(lp456
sg13
S'com.android.server.display.AutomaticBrightnessController$AmbientLightRingBuffer'
p457
sg15
(lp458
sg17
(lp459
sg19
(lp460
sg21
I0
sba(iArchitecture
Entity
p461
(dp462
g11
(lp463
sg13
S'com.android.server.display.AutomaticBrightnessController$AutomaticBrightnessHandler'
p464
sg15
(lp465
sg17
(lp466
sg19
(lp467
sg21
I0
sba(iArchitecture
Entity
p468
(dp469
g11
(lp470
sg13
S'com.android.server.display.AutomaticBrightnessController$Callbacks'
p471
sg15
(lp472
sg17
(lp473
sg19
(lp474
sg21
I0
sbasg22
(lp475
g436
ag443
ag450
ag457
ag464
ag471
asg21
I0
sg24
S'1108'
p476
sba(iArchitecture
Cluster
p477
(dp478
g7
(lp479
(iArchitecture
Entity
p480
(dp481
g11
(lp482
sg13
S'android.media.RemoteControlClient'
p483
sg15
(lp484
sg17
(lp485
sg19
(lp486
sg21
I0
sba(iArchitecture
Entity
p487
(dp488
g11
(lp489
sg13
S'android.media.RemoteControlClient$1'
p490
sg15
(lp491
sg17
(lp492
sg19
(lp493
sg21
I0
sba(iArchitecture
Entity
p494
(dp495
g11
(lp496
sg13
S'android.media.RemoteControlClient$MetadataEditor'
p497
sg15
(lp498
sg17
(lp499
sg19
(lp500
sg21
I0
sba(iArchitecture
Entity
p501
(dp502
g11
(lp503
sg13
S'android.media.RemoteControlClient$OnGetPlaybackPositionListener'
p504
sg15
(lp505
sg17
(lp506
sg19
(lp507
sg21
I0
sba(iArchitecture
Entity
p508
(dp509
g11
(lp510
sg13
S'android.media.RemoteControlClient$OnMetadataUpdateListener'
p511
sg15
(lp512
sg17
(lp513
sg19
(lp514
sg21
I0
sba(iArchitecture
Entity
p515
(dp516
g11
(lp517
sg13
S'android.media.RemoteControlClient$OnPlaybackPositionUpdateListener'
p518
sg15
(lp519
sg17
(lp520
sg19
(lp521
sg21
I0
sbasg22
(lp522
g483
ag490
ag497
ag504
ag511
ag518
asg21
I0
sg24
S'1109'
p523
sba(iArchitecture
Cluster
p524
(dp525
g7
(lp526
(iArchitecture
Entity
p527
(dp528
g11
(lp529
sg13
S'android.bluetooth.BluetoothClass'
p530
sg15
(lp531
sg17
(lp532
sg19
(lp533
sg21
I0
sba(iArchitecture
Entity
p534
(dp535
g11
(lp536
sg13
S'android.bluetooth.BluetoothClass$1'
p537
sg15
(lp538
sg17
(lp539
sg19
(lp540
sg21
I0
sba(iArchitecture
Entity
p541
(dp542
g11
(lp543
sg13
S'android.bluetooth.BluetoothClass$Device'
p544
sg15
(lp545
sg17
(lp546
sg19
(lp547
sg21
I0
sba(iArchitecture
Entity
p548
(dp549
g11
(lp550
sg13
S'android.bluetooth.BluetoothClass$Device$Major'
p551
sg15
(lp552
sg17
(lp553
sg19
(lp554
sg21
I0
sba(iArchitecture
Entity
p555
(dp556
g11
(lp557
sg13
S'android.bluetooth.BluetoothClass$Service'
p558
sg15
(lp559
sg17
(lp560
sg19
(lp561
sg21
I0
sbasg22
(lp562
g530
ag537
ag544
ag551
ag558
asg21
I0
sg24
S'1110'
p563
sbasS'target_sub'
p564
S'110'
p565
sg22
(lp566
sS'is_component_arch'
p567
I01
sg24
S'7.0.0_r1'
p568
sba.