(lp0
(iArchitecture
Architecture
p1
(dp2
S'clusters'
p3
(lp4
(iArchitecture
Cluster
p5
(dp6
S'entities'
p7
(lp8
(iArchitecture
Entity
p9
(dp10
S'issue_ids'
p11
(lp12
sS'name'
p13
S'android.graphics.FontListParser'
p14
sS'descs'
p15
(lp16
sS'labels'
p17
(lp18
sS'titles'
p19
(lp20
sS'change'
p21
I0
sba(iArchitecture
Entity
p22
(dp23
g11
(lp24
sg13
S'android.graphics.FontListParser$Alias'
p25
sg15
(lp26
sg17
(lp27
sg19
(lp28
sg21
I0
sba(iArchitecture
Entity
p29
(dp30
g11
(lp31
sg13
S'android.graphics.FontListParser$Axis'
p32
sg15
(lp33
sg17
(lp34
sg19
(lp35
sg21
I0
sba(iArchitecture
Entity
p36
(dp37
g11
(lp38
sg13
S'android.graphics.FontListParser$Config'
p39
sg15
(lp40
sg17
(lp41
sg19
(lp42
sg21
I0
sba(iArchitecture
Entity
p43
(dp44
g11
(lp45
sg13
S'android.graphics.FontListParser$Family'
p46
sg15
(lp47
sg17
(lp48
sg19
(lp49
sg21
I0
sba(iArchitecture
Entity
p50
(dp51
g11
(lp52
sg13
S'android.graphics.FontListParser$Font'
p53
sg15
(lp54
sg17
(lp55
sg19
(lp56
sg21
I0
sbasS'classes'
p57
(lp58
g14
ag25
ag32
ag39
ag46
ag53
asg21
I0
sS'label'
p59
S'1121'
p60
sba(iArchitecture
Cluster
p61
(dp62
g7
(lp63
(iArchitecture
Entity
p64
(dp65
g11
(lp66
sg13
S'android.util.TypedValue'
p67
sg15
(lp68
sg17
(lp69
sg19
(lp70
sg21
I0
sbasg57
(lp71
g67
asg21
I0
sg59
S'121'
p72
sba(iArchitecture
Cluster
p73
(dp74
g7
(lp75
(iArchitecture
Entity
p76
(dp77
g11
(lp78
sg13
S'android.telecom.RemoteConference'
p79
sg15
(lp80
sg17
(lp81
sg19
(lp82
sg21
I0
sba(iArchitecture
Entity
p83
(dp84
g11
(lp85
sg13
S'android.telecom.RemoteConference$1'
p86
sg15
(lp87
sg17
(lp88
sg19
(lp89
sg21
I0
sba(iArchitecture
Entity
p90
(dp91
g11
(lp92
sg13
S'android.telecom.RemoteConference$2'
p93
sg15
(lp94
sg17
(lp95
sg19
(lp96
sg21
I0
sba(iArchitecture
Entity
p97
(dp98
g11
(lp99
sg13
S'android.telecom.RemoteConference$3'
p100
sg15
(lp101
sg17
(lp102
sg19
(lp103
sg21
I0
sba(iArchitecture
Entity
p104
(dp105
g11
(lp106
sg13
S'android.telecom.RemoteConference$4'
p107
sg15
(lp108
sg17
(lp109
sg19
(lp110
sg21
I0
sba(iArchitecture
Entity
p111
(dp112
g11
(lp113
sg13
S'android.telecom.RemoteConference$5'
p114
sg15
(lp115
sg17
(lp116
sg19
(lp117
sg21
I0
sba(iArchitecture
Entity
p118
(dp119
g11
(lp120
sg13
S'android.telecom.RemoteConference$6'
p121
sg15
(lp122
sg17
(lp123
sg19
(lp124
sg21
I0
sba(iArchitecture
Entity
p125
(dp126
g11
(lp127
sg13
S'android.telecom.RemoteConference$7'
p128
sg15
(lp129
sg17
(lp130
sg19
(lp131
sg21
I0
sba(iArchitecture
Entity
p132
(dp133
g11
(lp134
sg13
S'android.telecom.RemoteConference$8'
p135
sg15
(lp136
sg17
(lp137
sg19
(lp138
sg21
I0
sba(iArchitecture
Entity
p139
(dp140
g11
(lp141
sg13
S'android.telecom.RemoteConference$9'
p142
sg15
(lp143
sg17
(lp144
sg19
(lp145
sg21
I0
sba(iArchitecture
Entity
p146
(dp147
g11
(lp148
sg13
S'android.telecom.RemoteConference$Callback'
p149
sg15
(lp150
sg17
(lp151
sg19
(lp152
sg21
I0
sbasg57
(lp153
g79
ag86
ag93
ag100
ag107
ag114
ag121
ag128
ag135
ag142
ag149
asg21
I0
sg59
S'1210'
p154
sba(iArchitecture
Cluster
p155
(dp156
g7
(lp157
(iArchitecture
Entity
p158
(dp159
g11
(lp160
sg13
S'android.net.Uri'
p161
sg15
(lp162
sg17
(lp163
sg19
(lp164
sg21
I0
sba(iArchitecture
Entity
p165
(dp166
g11
(lp167
sg13
S'android.net.Uri$1'
p168
sg15
(lp169
sg17
(lp170
sg19
(lp171
sg21
I0
sba(iArchitecture
Entity
p172
(dp173
g11
(lp174
sg13
S'android.net.Uri$AbstractHierarchicalUri'
p175
sg15
(lp176
sg17
(lp177
sg19
(lp178
sg21
I0
sba(iArchitecture
Entity
p179
(dp180
g11
(lp181
sg13
S'android.net.Uri$AbstractPart'
p182
sg15
(lp183
sg17
(lp184
sg19
(lp185
sg21
I0
sba(iArchitecture
Entity
p186
(dp187
g11
(lp188
sg13
S'android.net.Uri$AbstractPart$Representation'
p189
sg15
(lp190
sg17
(lp191
sg19
(lp192
sg21
I0
sba(iArchitecture
Entity
p193
(dp194
g11
(lp195
sg13
S'android.net.Uri$Builder'
p196
sg15
(lp197
sg17
(lp198
sg19
(lp199
sg21
I0
sba(iArchitecture
Entity
p200
(dp201
g11
(lp202
sg13
S'android.net.Uri$HierarchicalUri'
p203
sg15
(lp204
sg17
(lp205
sg19
(lp206
sg21
I0
sba(iArchitecture
Entity
p207
(dp208
g11
(lp209
sg13
S'android.net.Uri$OpaqueUri'
p210
sg15
(lp211
sg17
(lp212
sg19
(lp213
sg21
I0
sba(iArchitecture
Entity
p214
(dp215
g11
(lp216
sg13
S'android.net.Uri$Part'
p217
sg15
(lp218
sg17
(lp219
sg19
(lp220
sg21
I0
sba(iArchitecture
Entity
p221
(dp222
g11
(lp223
sg13
S'android.net.Uri$Part$EmptyPart'
p224
sg15
(lp225
sg17
(lp226
sg19
(lp227
sg21
I0
sba(iArchitecture
Entity
p228
(dp229
g11
(lp230
sg13
S'android.net.Uri$PathPart'
p231
sg15
(lp232
sg17
(lp233
sg19
(lp234
sg21
I0
sba(iArchitecture
Entity
p235
(dp236
g11
(lp237
sg13
S'android.net.Uri$PathSegments'
p238
sg15
(lp239
sg17
(lp240
sg19
(lp241
sg21
I0
sba(iArchitecture
Entity
p242
(dp243
g11
(lp244
sg13
S'android.net.Uri$PathSegmentsBuilder'
p245
sg15
(lp246
sg17
(lp247
sg19
(lp248
sg21
I0
sba(iArchitecture
Entity
p249
(dp250
g11
(lp251
sg13
S'android.net.Uri$StringUri'
p252
sg15
(lp253
sg17
(lp254
sg19
(lp255
sg21
I0
sbasg57
(lp256
g161
ag168
ag175
ag182
ag189
ag196
ag203
ag210
ag217
ag224
ag231
ag238
ag245
ag252
asg21
I0
sg59
S'1211'
p257
sba(iArchitecture
Cluster
p258
(dp259
g7
(lp260
(iArchitecture
Entity
p261
(dp262
g11
(lp263
sg13
S'android.view.ViewTreeObserver'
p264
sg15
(lp265
sg17
(lp266
sg19
(lp267
sg21
I0
sba(iArchitecture
Entity
p268
(dp269
g11
(lp270
sg13
S'android.view.ViewTreeObserver$CopyOnWriteArray'
p271
sg15
(lp272
sg17
(lp273
sg19
(lp274
sg21
I0
sba(iArchitecture
Entity
p275
(dp276
g11
(lp277
sg13
S'android.view.ViewTreeObserver$CopyOnWriteArray$Access'
p278
sg15
(lp279
sg17
(lp280
sg19
(lp281
sg21
I0
sba(iArchitecture
Entity
p282
(dp283
g11
(lp284
sg13
S'android.view.ViewTreeObserver$InternalInsetsInfo'
p285
sg15
(lp286
sg17
(lp287
sg19
(lp288
sg21
I0
sba(iArchitecture
Entity
p289
(dp290
g11
(lp291
sg13
S'android.view.ViewTreeObserver$OnComputeInternalInsetsListener'
p292
sg15
(lp293
sg17
(lp294
sg19
(lp295
sg21
I0
sba(iArchitecture
Entity
p296
(dp297
g11
(lp298
sg13
S'android.view.ViewTreeObserver$OnDrawListener'
p299
sg15
(lp300
sg17
(lp301
sg19
(lp302
sg21
I0
sba(iArchitecture
Entity
p303
(dp304
g11
(lp305
sg13
S'android.view.ViewTreeObserver$OnEnterAnimationCompleteListener'
p306
sg15
(lp307
sg17
(lp308
sg19
(lp309
sg21
I0
sba(iArchitecture
Entity
p310
(dp311
g11
(lp312
sg13
S'android.view.ViewTreeObserver$OnGlobalFocusChangeListener'
p313
sg15
(lp314
sg17
(lp315
sg19
(lp316
sg21
I0
sba(iArchitecture
Entity
p317
(dp318
g11
(lp319
sg13
S'android.view.ViewTreeObserver$OnGlobalLayoutListener'
p320
sg15
(lp321
sg17
(lp322
sg19
(lp323
sg21
I0
sba(iArchitecture
Entity
p324
(dp325
g11
(lp326
sg13
S'android.view.ViewTreeObserver$OnPreDrawListener'
p327
sg15
(lp328
sg17
(lp329
sg19
(lp330
sg21
I0
sba(iArchitecture
Entity
p331
(dp332
g11
(lp333
sg13
S'android.view.ViewTreeObserver$OnScrollChangedListener'
p334
sg15
(lp335
sg17
(lp336
sg19
(lp337
sg21
I0
sba(iArchitecture
Entity
p338
(dp339
g11
(lp340
sg13
S'android.view.ViewTreeObserver$OnTouchModeChangeListener'
p341
sg15
(lp342
sg17
(lp343
sg19
(lp344
sg21
I0
sba(iArchitecture
Entity
p345
(dp346
g11
(lp347
sg13
S'android.view.ViewTreeObserver$OnWindowAttachListener'
p348
sg15
(lp349
sg17
(lp350
sg19
(lp351
sg21
I0
sba(iArchitecture
Entity
p352
(dp353
g11
(lp354
sg13
S'android.view.ViewTreeObserver$OnWindowFocusChangeListener'
p355
sg15
(lp356
sg17
(lp357
sg19
(lp358
sg21
I0
sba(iArchitecture
Entity
p359
(dp360
g11
(lp361
sg13
S'android.view.ViewTreeObserver$OnWindowShownListener'
p362
sg15
(lp363
sg17
(lp364
sg19
(lp365
sg21
I0
sbasg57
(lp366
g264
ag271
ag278
ag285
ag292
ag299
ag306
ag313
ag320
ag327
ag334
ag341
ag348
ag355
ag362
asg21
I0
sg59
S'1212'
p367
sba(iArchitecture
Cluster
p368
(dp369
g7
(lp370
(iArchitecture
Entity
p371
(dp372
g11
(lp373
sg13
S'com.android.server.print.RemotePrintService'
p374
sg15
(lp375
sg17
(lp376
sg19
(lp377
sg21
I0
sba(iArchitecture
Entity
p378
(dp379
g11
(lp380
sg13
S'com.android.server.print.RemotePrintService$1'
p381
sg15
(lp382
sg17
(lp383
sg19
(lp384
sg21
I0
sba(iArchitecture
Entity
p385
(dp386
g11
(lp387
sg13
S'com.android.server.print.RemotePrintService$10'
p388
sg15
(lp389
sg17
(lp390
sg19
(lp391
sg21
I0
sba(iArchitecture
Entity
p392
(dp393
g11
(lp394
sg13
S'com.android.server.print.RemotePrintService$2'
p395
sg15
(lp396
sg17
(lp397
sg19
(lp398
sg21
I0
sba(iArchitecture
Entity
p399
(dp400
g11
(lp401
sg13
S'com.android.server.print.RemotePrintService$3'
p402
sg15
(lp403
sg17
(lp404
sg19
(lp405
sg21
I0
sba(iArchitecture
Entity
p406
(dp407
g11
(lp408
sg13
S'com.android.server.print.RemotePrintService$4'
p409
sg15
(lp410
sg17
(lp411
sg19
(lp412
sg21
I0
sba(iArchitecture
Entity
p413
(dp414
g11
(lp415
sg13
S'com.android.server.print.RemotePrintService$5'
p416
sg15
(lp417
sg17
(lp418
sg19
(lp419
sg21
I0
sba(iArchitecture
Entity
p420
(dp421
g11
(lp422
sg13
S'com.android.server.print.RemotePrintService$6'
p423
sg15
(lp424
sg17
(lp425
sg19
(lp426
sg21
I0
sba(iArchitecture
Entity
p427
(dp428
g11
(lp429
sg13
S'com.android.server.print.RemotePrintService$7'
p430
sg15
(lp431
sg17
(lp432
sg19
(lp433
sg21
I0
sba(iArchitecture
Entity
p434
(dp435
g11
(lp436
sg13
S'com.android.server.print.RemotePrintService$8'
p437
sg15
(lp438
sg17
(lp439
sg19
(lp440
sg21
I0
sba(iArchitecture
Entity
p441
(dp442
g11
(lp443
sg13
S'com.android.server.print.RemotePrintService$9'
p444
sg15
(lp445
sg17
(lp446
sg19
(lp447
sg21
I0
sba(iArchitecture
Entity
p448
(dp449
g11
(lp450
sg13
S'com.android.server.print.RemotePrintService$MyHandler'
p451
sg15
(lp452
sg17
(lp453
sg19
(lp454
sg21
I0
sba(iArchitecture
Entity
p455
(dp456
g11
(lp457
sg13
S'com.android.server.print.RemotePrintService$PrintServiceCallbacks'
p458
sg15
(lp459
sg17
(lp460
sg19
(lp461
sg21
I0
sba(iArchitecture
Entity
p462
(dp463
g11
(lp464
sg13
S'com.android.server.print.RemotePrintService$RemotePrintServiceClient'
p465
sg15
(lp466
sg17
(lp467
sg19
(lp468
sg21
I0
sba(iArchitecture
Entity
p469
(dp470
g11
(lp471
sg13
S'com.android.server.print.RemotePrintService$RemoteServiceConneciton'
p472
sg15
(lp473
sg17
(lp474
sg19
(lp475
sg21
I0
sbasg57
(lp476
g374
ag381
ag388
ag395
ag402
ag409
ag416
ag423
ag430
ag437
ag444
ag451
ag458
ag465
ag472
asg21
I0
sg59
S'1213'
p477
sba(iArchitecture
Cluster
p478
(dp479
g7
(lp480
(iArchitecture
Entity
p481
(dp482
g11
(lp483
sg13
S'android.text.style.TtsSpan'
p484
sg15
(lp485
sg17
(lp486
sg19
(lp487
sg21
I0
sba(iArchitecture
Entity
p488
(dp489
g11
(lp490
sg13
S'android.text.style.TtsSpan$Builder'
p491
sg15
(lp492
sg17
(lp493
sg19
(lp494
sg21
I0
sba(iArchitecture
Entity
p495
(dp496
g11
(lp497
sg13
S'android.text.style.TtsSpan$CardinalBuilder'
p498
sg15
(lp499
sg17
(lp500
sg19
(lp501
sg21
I0
sba(iArchitecture
Entity
p502
(dp503
g11
(lp504
sg13
S'android.text.style.TtsSpan$DateBuilder'
p505
sg15
(lp506
sg17
(lp507
sg19
(lp508
sg21
I0
sba(iArchitecture
Entity
p509
(dp510
g11
(lp511
sg13
S'android.text.style.TtsSpan$DecimalBuilder'
p512
sg15
(lp513
sg17
(lp514
sg19
(lp515
sg21
I0
sba(iArchitecture
Entity
p516
(dp517
g11
(lp518
sg13
S'android.text.style.TtsSpan$DigitsBuilder'
p519
sg15
(lp520
sg17
(lp521
sg19
(lp522
sg21
I0
sba(iArchitecture
Entity
p523
(dp524
g11
(lp525
sg13
S'android.text.style.TtsSpan$ElectronicBuilder'
p526
sg15
(lp527
sg17
(lp528
sg19
(lp529
sg21
I0
sba(iArchitecture
Entity
p530
(dp531
g11
(lp532
sg13
S'android.text.style.TtsSpan$FractionBuilder'
p533
sg15
(lp534
sg17
(lp535
sg19
(lp536
sg21
I0
sba(iArchitecture
Entity
p537
(dp538
g11
(lp539
sg13
S'android.text.style.TtsSpan$MeasureBuilder'
p540
sg15
(lp541
sg17
(lp542
sg19
(lp543
sg21
I0
sba(iArchitecture
Entity
p544
(dp545
g11
(lp546
sg13
S'android.text.style.TtsSpan$MoneyBuilder'
p547
sg15
(lp548
sg17
(lp549
sg19
(lp550
sg21
I0
sba(iArchitecture
Entity
p551
(dp552
g11
(lp553
sg13
S'android.text.style.TtsSpan$OrdinalBuilder'
p554
sg15
(lp555
sg17
(lp556
sg19
(lp557
sg21
I0
sba(iArchitecture
Entity
p558
(dp559
g11
(lp560
sg13
S'android.text.style.TtsSpan$SemioticClassBuilder'
p561
sg15
(lp562
sg17
(lp563
sg19
(lp564
sg21
I0
sba(iArchitecture
Entity
p565
(dp566
g11
(lp567
sg13
S'android.text.style.TtsSpan$TelephoneBuilder'
p568
sg15
(lp569
sg17
(lp570
sg19
(lp571
sg21
I0
sba(iArchitecture
Entity
p572
(dp573
g11
(lp574
sg13
S'android.text.style.TtsSpan$TextBuilder'
p575
sg15
(lp576
sg17
(lp577
sg19
(lp578
sg21
I0
sba(iArchitecture
Entity
p579
(dp580
g11
(lp581
sg13
S'android.text.style.TtsSpan$TimeBuilder'
p582
sg15
(lp583
sg17
(lp584
sg19
(lp585
sg21
I0
sba(iArchitecture
Entity
p586
(dp587
g11
(lp588
sg13
S'android.text.style.TtsSpan$VerbatimBuilder'
p589
sg15
(lp590
sg17
(lp591
sg19
(lp592
sg21
I0
sbasg57
(lp593
g484
ag491
ag498
ag505
ag512
ag519
ag526
ag533
ag540
ag547
ag554
ag561
ag568
ag575
ag582
ag589
asg21
I0
sg59
S'1214'
p594
sba(iArchitecture
Cluster
p595
(dp596
g7
(lp597
(iArchitecture
Entity
p598
(dp599
g11
(lp600
sg13
S'android.opengl.GLSurfaceView'
p601
sg15
(lp602
sg17
(lp603
sg19
(lp604
sg21
I0
sba(iArchitecture
Entity
p605
(dp606
g11
(lp607
sg13
S'android.opengl.GLSurfaceView$BaseConfigChooser'
p608
sg15
(lp609
sg17
(lp610
sg19
(lp611
sg21
I0
sba(iArchitecture
Entity
p612
(dp613
g11
(lp614
sg13
S'android.opengl.GLSurfaceView$ComponentSizeChooser'
p615
sg15
(lp616
sg17
(lp617
sg19
(lp618
sg21
I0
sba(iArchitecture
Entity
p619
(dp620
g11
(lp621
sg13
S'android.opengl.GLSurfaceView$DefaultContextFactory'
p622
sg15
(lp623
sg17
(lp624
sg19
(lp625
sg21
I0
sba(iArchitecture
Entity
p626
(dp627
g11
(lp628
sg13
S'android.opengl.GLSurfaceView$DefaultWindowSurfaceFactory'
p629
sg15
(lp630
sg17
(lp631
sg19
(lp632
sg21
I0
sba(iArchitecture
Entity
p633
(dp634
g11
(lp635
sg13
S'android.opengl.GLSurfaceView$EGLConfigChooser'
p636
sg15
(lp637
sg17
(lp638
sg19
(lp639
sg21
I0
sba(iArchitecture
Entity
p640
(dp641
g11
(lp642
sg13
S'android.opengl.GLSurfaceView$EGLContextFactory'
p643
sg15
(lp644
sg17
(lp645
sg19
(lp646
sg21
I0
sba(iArchitecture
Entity
p647
(dp648
g11
(lp649
sg13
S'android.opengl.GLSurfaceView$EGLWindowSurfaceFactory'
p650
sg15
(lp651
sg17
(lp652
sg19
(lp653
sg21
I0
sba(iArchitecture
Entity
p654
(dp655
g11
(lp656
sg13
S'android.opengl.GLSurfaceView$EglHelper'
p657
sg15
(lp658
sg17
(lp659
sg19
(lp660
sg21
I0
sba(iArchitecture
Entity
p661
(dp662
g11
(lp663
sg13
S'android.opengl.GLSurfaceView$GLThread'
p664
sg15
(lp665
sg17
(lp666
sg19
(lp667
sg21
I0
sba(iArchitecture
Entity
p668
(dp669
g11
(lp670
sg13
S'android.opengl.GLSurfaceView$GLThreadManager'
p671
sg15
(lp672
sg17
(lp673
sg19
(lp674
sg21
I0
sba(iArchitecture
Entity
p675
(dp676
g11
(lp677
sg13
S'android.opengl.GLSurfaceView$GLWrapper'
p678
sg15
(lp679
sg17
(lp680
sg19
(lp681
sg21
I0
sba(iArchitecture
Entity
p682
(dp683
g11
(lp684
sg13
S'android.opengl.GLSurfaceView$LogWriter'
p685
sg15
(lp686
sg17
(lp687
sg19
(lp688
sg21
I0
sba(iArchitecture
Entity
p689
(dp690
g11
(lp691
sg13
S'android.opengl.GLSurfaceView$Renderer'
p692
sg15
(lp693
sg17
(lp694
sg19
(lp695
sg21
I0
sba(iArchitecture
Entity
p696
(dp697
g11
(lp698
sg13
S'android.opengl.GLSurfaceView$SimpleEGLConfigChooser'
p699
sg15
(lp700
sg17
(lp701
sg19
(lp702
sg21
I0
sbasg57
(lp703
g601
ag608
ag615
ag622
ag629
ag636
ag643
ag650
ag657
ag664
ag671
ag678
ag685
ag692
ag699
asg21
I0
sg59
S'1215'
p704
sba(iArchitecture
Cluster
p705
(dp706
g7
(lp707
(iArchitecture
Entity
p708
(dp709
g11
(lp710
sg13
S'android.security.keystore.AndroidKeyStoreRSASignatureSpi'
p711
sg15
(lp712
sg17
(lp713
sg19
(lp714
sg21
I0
sba(iArchitecture
Entity
p715
(dp716
g11
(lp717
sg13
S'android.security.keystore.AndroidKeyStoreRSASignatureSpi$MD5WithPKCS1Padding'
p718
sg15
(lp719
sg17
(lp720
sg19
(lp721
sg21
I0
sba(iArchitecture
Entity
p722
(dp723
g11
(lp724
sg13
S'android.security.keystore.AndroidKeyStoreRSASignatureSpi$NONEWithPKCS1Padding'
p725
sg15
(lp726
sg17
(lp727
sg19
(lp728
sg21
I0
sba(iArchitecture
Entity
p729
(dp730
g11
(lp731
sg13
S'android.security.keystore.AndroidKeyStoreRSASignatureSpi$PKCS1Padding'
p732
sg15
(lp733
sg17
(lp734
sg19
(lp735
sg21
I0
sba(iArchitecture
Entity
p736
(dp737
g11
(lp738
sg13
S'android.security.keystore.AndroidKeyStoreRSASignatureSpi$PSSPadding'
p739
sg15
(lp740
sg17
(lp741
sg19
(lp742
sg21
I0
sba(iArchitecture
Entity
p743
(dp744
g11
(lp745
sg13
S'android.security.keystore.AndroidKeyStoreRSASignatureSpi$SHA1WithPKCS1Padding'
p746
sg15
(lp747
sg17
(lp748
sg19
(lp749
sg21
I0
sba(iArchitecture
Entity
p750
(dp751
g11
(lp752
sg13
S'android.security.keystore.AndroidKeyStoreRSASignatureSpi$SHA1WithPSSPadding'
p753
sg15
(lp754
sg17
(lp755
sg19
(lp756
sg21
I0
sba(iArchitecture
Entity
p757
(dp758
g11
(lp759
sg13
S'android.security.keystore.AndroidKeyStoreRSASignatureSpi$SHA224WithPKCS1Padding'
p760
sg15
(lp761
sg17
(lp762
sg19
(lp763
sg21
I0
sba(iArchitecture
Entity
p764
(dp765
g11
(lp766
sg13
S'android.security.keystore.AndroidKeyStoreRSASignatureSpi$SHA224WithPSSPadding'
p767
sg15
(lp768
sg17
(lp769
sg19
(lp770
sg21
I0
sba(iArchitecture
Entity
p771
(dp772
g11
(lp773
sg13
S'android.security.keystore.AndroidKeyStoreRSASignatureSpi$SHA256WithPKCS1Padding'
p774
sg15
(lp775
sg17
(lp776
sg19
(lp777
sg21
I0
sba(iArchitecture
Entity
p778
(dp779
g11
(lp780
sg13
S'android.security.keystore.AndroidKeyStoreRSASignatureSpi$SHA256WithPSSPadding'
p781
sg15
(lp782
sg17
(lp783
sg19
(lp784
sg21
I0
sba(iArchitecture
Entity
p785
(dp786
g11
(lp787
sg13
S'android.security.keystore.AndroidKeyStoreRSASignatureSpi$SHA384WithPKCS1Padding'
p788
sg15
(lp789
sg17
(lp790
sg19
(lp791
sg21
I0
sba(iArchitecture
Entity
p792
(dp793
g11
(lp794
sg13
S'android.security.keystore.AndroidKeyStoreRSASignatureSpi$SHA384WithPSSPadding'
p795
sg15
(lp796
sg17
(lp797
sg19
(lp798
sg21
I0
sba(iArchitecture
Entity
p799
(dp800
g11
(lp801
sg13
S'android.security.keystore.AndroidKeyStoreRSASignatureSpi$SHA512WithPKCS1Padding'
p802
sg15
(lp803
sg17
(lp804
sg19
(lp805
sg21
I0
sba(iArchitecture
Entity
p806
(dp807
g11
(lp808
sg13
S'android.security.keystore.AndroidKeyStoreRSASignatureSpi$SHA512WithPSSPadding'
p809
sg15
(lp810
sg17
(lp811
sg19
(lp812
sg21
I0
sbasg57
(lp813
g711
ag718
ag725
ag732
ag739
ag746
ag753
ag760
ag767
ag774
ag781
ag788
ag795
ag802
ag809
asg21
I0
sg59
S'1216'
p814
sba(iArchitecture
Cluster
p815
(dp816
g7
(lp817
(iArchitecture
Entity
p818
(dp819
g11
(lp820
sg13
S'com.google.android.util.AbstractMessageParser'
p821
sg15
(lp822
sg17
(lp823
sg19
(lp824
sg21
I0
sba(iArchitecture
Entity
p825
(dp826
g11
(lp827
sg13
S'com.google.android.util.AbstractMessageParser$Acronym'
p828
sg15
(lp829
sg17
(lp830
sg19
(lp831
sg21
I0
sba(iArchitecture
Entity
p832
(dp833
g11
(lp834
sg13
S'com.google.android.util.AbstractMessageParser$FlickrPhoto'
p835
sg15
(lp836
sg17
(lp837
sg19
(lp838
sg21
I0
sba(iArchitecture
Entity
p839
(dp840
g11
(lp841
sg13
S'com.google.android.util.AbstractMessageParser$Format'
p842
sg15
(lp843
sg17
(lp844
sg19
(lp845
sg21
I0
sba(iArchitecture
Entity
p846
(dp847
g11
(lp848
sg13
S'com.google.android.util.AbstractMessageParser$Html'
p849
sg15
(lp850
sg17
(lp851
sg19
(lp852
sg21
I0
sba(iArchitecture
Entity
p853
(dp854
g11
(lp855
sg13
S'com.google.android.util.AbstractMessageParser$Link'
p856
sg15
(lp857
sg17
(lp858
sg19
(lp859
sg21
I0
sba(iArchitecture
Entity
p860
(dp861
g11
(lp862
sg13
S'com.google.android.util.AbstractMessageParser$MusicTrack'
p863
sg15
(lp864
sg17
(lp865
sg19
(lp866
sg21
I0
sba(iArchitecture
Entity
p867
(dp868
g11
(lp869
sg13
S'com.google.android.util.AbstractMessageParser$Part'
p870
sg15
(lp871
sg17
(lp872
sg19
(lp873
sg21
I0
sba(iArchitecture
Entity
p874
(dp875
g11
(lp876
sg13
S'com.google.android.util.AbstractMessageParser$Photo'
p877
sg15
(lp878
sg17
(lp879
sg19
(lp880
sg21
I0
sba(iArchitecture
Entity
p881
(dp882
g11
(lp883
sg13
S'com.google.android.util.AbstractMessageParser$Resources'
p884
sg15
(lp885
sg17
(lp886
sg19
(lp887
sg21
I0
sba(iArchitecture
Entity
p888
(dp889
g11
(lp890
sg13
S'com.google.android.util.AbstractMessageParser$Smiley'
p891
sg15
(lp892
sg17
(lp893
sg19
(lp894
sg21
I0
sba(iArchitecture
Entity
p895
(dp896
g11
(lp897
sg13
S'com.google.android.util.AbstractMessageParser$Token'
p898
sg15
(lp899
sg17
(lp900
sg19
(lp901
sg21
I0
sba(iArchitecture
Entity
p902
(dp903
g11
(lp904
sg13
S'com.google.android.util.AbstractMessageParser$Token$Type'
p905
sg15
(lp906
sg17
(lp907
sg19
(lp908
sg21
I0
sba(iArchitecture
Entity
p909
(dp910
g11
(lp911
sg13
S'com.google.android.util.AbstractMessageParser$TrieNode'
p912
sg15
(lp913
sg17
(lp914
sg19
(lp915
sg21
I0
sba(iArchitecture
Entity
p916
(dp917
g11
(lp918
sg13
S'com.google.android.util.AbstractMessageParser$Video'
p919
sg15
(lp920
sg17
(lp921
sg19
(lp922
sg21
I0
sba(iArchitecture
Entity
p923
(dp924
g11
(lp925
sg13
S'com.google.android.util.AbstractMessageParser$YouTubeVideo'
p926
sg15
(lp927
sg17
(lp928
sg19
(lp929
sg21
I0
sbasg57
(lp930
g821
ag828
ag835
ag842
ag849
ag856
ag863
ag870
ag877
ag884
ag891
ag898
ag905
ag912
ag919
ag926
asg21
I0
sg59
S'1217'
p931
sba(iArchitecture
Cluster
p932
(dp933
g7
(lp934
(iArchitecture
Entity
p935
(dp936
g11
(lp937
sg13
S'android.net.wifi.RttManager'
p938
sg15
(lp939
sg17
(lp940
sg19
(lp941
sg21
I0
sba(iArchitecture
Entity
p942
(dp943
g11
(lp944
sg13
S'android.net.wifi.RttManager$Capabilities'
p945
sg15
(lp946
sg17
(lp947
sg19
(lp948
sg21
I0
sba(iArchitecture
Entity
p949
(dp950
g11
(lp951
sg13
S'android.net.wifi.RttManager$ParcelableRttParams'
p952
sg15
(lp953
sg17
(lp954
sg19
(lp955
sg21
I0
sba(iArchitecture
Entity
p956
(dp957
g11
(lp958
sg13
S'android.net.wifi.RttManager$ParcelableRttParams$1'
p959
sg15
(lp960
sg17
(lp961
sg19
(lp962
sg21
I0
sba(iArchitecture
Entity
p963
(dp964
g11
(lp965
sg13
S'android.net.wifi.RttManager$ParcelableRttResults'
p966
sg15
(lp967
sg17
(lp968
sg19
(lp969
sg21
I0
sba(iArchitecture
Entity
p970
(dp971
g11
(lp972
sg13
S'android.net.wifi.RttManager$ParcelableRttResults$1'
p973
sg15
(lp974
sg17
(lp975
sg19
(lp976
sg21
I0
sba(iArchitecture
Entity
p977
(dp978
g11
(lp979
sg13
S'android.net.wifi.RttManager$ResponderCallback'
p980
sg15
(lp981
sg17
(lp982
sg19
(lp983
sg21
I0
sba(iArchitecture
Entity
p984
(dp985
g11
(lp986
sg13
S'android.net.wifi.RttManager$ResponderConfig'
p987
sg15
(lp988
sg17
(lp989
sg19
(lp990
sg21
I0
sba(iArchitecture
Entity
p991
(dp992
g11
(lp993
sg13
S'android.net.wifi.RttManager$ResponderConfig$1'
p994
sg15
(lp995
sg17
(lp996
sg19
(lp997
sg21
I0
sba(iArchitecture
Entity
p998
(dp999
g11
(lp1000
sg13
S'android.net.wifi.RttManager$RttCapabilities'
p1001
sg15
(lp1002
sg17
(lp1003
sg19
(lp1004
sg21
I0
sba(iArchitecture
Entity
p1005
(dp1006
g11
(lp1007
sg13
S'android.net.wifi.RttManager$RttCapabilities$1'
p1008
sg15
(lp1009
sg17
(lp1010
sg19
(lp1011
sg21
I0
sba(iArchitecture
Entity
p1012
(dp1013
g11
(lp1014
sg13
S'android.net.wifi.RttManager$RttListener'
p1015
sg15
(lp1016
sg17
(lp1017
sg19
(lp1018
sg21
I0
sba(iArchitecture
Entity
p1019
(dp1020
g11
(lp1021
sg13
S'android.net.wifi.RttManager$RttParams'
p1022
sg15
(lp1023
sg17
(lp1024
sg19
(lp1025
sg21
I0
sba(iArchitecture
Entity
p1026
(dp1027
g11
(lp1028
sg13
S'android.net.wifi.RttManager$RttResult'
p1029
sg15
(lp1030
sg17
(lp1031
sg19
(lp1032
sg21
I0
sba(iArchitecture
Entity
p1033
(dp1034
g11
(lp1035
sg13
S'android.net.wifi.RttManager$ServiceHandler'
p1036
sg15
(lp1037
sg17
(lp1038
sg19
(lp1039
sg21
I0
sba(iArchitecture
Entity
p1040
(dp1041
g11
(lp1042
sg13
S'android.net.wifi.RttManager$WifiInformationElement'
p1043
sg15
(lp1044
sg17
(lp1045
sg19
(lp1046
sg21
I0
sbasg57
(lp1047
g938
ag945
ag952
ag959
ag966
ag973
ag980
ag987
ag994
ag1001
ag1008
ag1015
ag1022
ag1029
ag1036
ag1043
asg21
I0
sg59
S'1218'
p1048
sba(iArchitecture
Cluster
p1049
(dp1050
g7
(lp1051
(iArchitecture
Entity
p1052
(dp1053
g11
(lp1054
sg13
S'com.android.internal.widget.LockPatternView'
p1055
sg15
(lp1056
sg17
(lp1057
sg19
(lp1058
sg21
I0
sba(iArchitecture
Entity
p1059
(dp1060
g11
(lp1061
sg13
S'com.android.internal.widget.LockPatternView$1'
p1062
sg15
(lp1063
sg17
(lp1064
sg19
(lp1065
sg21
I0
sba(iArchitecture
Entity
p1066
(dp1067
g11
(lp1068
sg13
S'com.android.internal.widget.LockPatternView$2'
p1069
sg15
(lp1070
sg17
(lp1071
sg19
(lp1072
sg21
I0
sba(iArchitecture
Entity
p1073
(dp1074
g11
(lp1075
sg13
S'com.android.internal.widget.LockPatternView$3'
p1076
sg15
(lp1077
sg17
(lp1078
sg19
(lp1079
sg21
I0
sba(iArchitecture
Entity
p1080
(dp1081
g11
(lp1082
sg13
S'com.android.internal.widget.LockPatternView$4'
p1083
sg15
(lp1084
sg17
(lp1085
sg19
(lp1086
sg21
I0
sba(iArchitecture
Entity
p1087
(dp1088
g11
(lp1089
sg13
S'com.android.internal.widget.LockPatternView$5'
p1090
sg15
(lp1091
sg17
(lp1092
sg19
(lp1093
sg21
I0
sba(iArchitecture
Entity
p1094
(dp1095
g11
(lp1096
sg13
S'com.android.internal.widget.LockPatternView$6'
p1097
sg15
(lp1098
sg17
(lp1099
sg19
(lp1100
sg21
I0
sba(iArchitecture
Entity
p1101
(dp1102
g11
(lp1103
sg13
S'com.android.internal.widget.LockPatternView$7'
p1104
sg15
(lp1105
sg17
(lp1106
sg19
(lp1107
sg21
I0
sba(iArchitecture
Entity
p1108
(dp1109
g11
(lp1110
sg13
S'com.android.internal.widget.LockPatternView$8'
p1111
sg15
(lp1112
sg17
(lp1113
sg19
(lp1114
sg21
I0
sba(iArchitecture
Entity
p1115
(dp1116
g11
(lp1117
sg13
S'com.android.internal.widget.LockPatternView$Cell'
p1118
sg15
(lp1119
sg17
(lp1120
sg19
(lp1121
sg21
I0
sba(iArchitecture
Entity
p1122
(dp1123
g11
(lp1124
sg13
S'com.android.internal.widget.LockPatternView$CellState'
p1125
sg15
(lp1126
sg17
(lp1127
sg19
(lp1128
sg21
I0
sba(iArchitecture
Entity
p1129
(dp1130
g11
(lp1131
sg13
S'com.android.internal.widget.LockPatternView$DisplayMode'
p1132
sg15
(lp1133
sg17
(lp1134
sg19
(lp1135
sg21
I0
sba(iArchitecture
Entity
p1136
(dp1137
g11
(lp1138
sg13
S'com.android.internal.widget.LockPatternView$OnPatternListener'
p1139
sg15
(lp1140
sg17
(lp1141
sg19
(lp1142
sg21
I0
sba(iArchitecture
Entity
p1143
(dp1144
g11
(lp1145
sg13
S'com.android.internal.widget.LockPatternView$PatternExploreByTouchHelper'
p1146
sg15
(lp1147
sg17
(lp1148
sg19
(lp1149
sg21
I0
sba(iArchitecture
Entity
p1150
(dp1151
g11
(lp1152
sg13
S'com.android.internal.widget.LockPatternView$PatternExploreByTouchHelper$VirtualViewContainer'
p1153
sg15
(lp1154
sg17
(lp1155
sg19
(lp1156
sg21
I0
sba(iArchitecture
Entity
p1157
(dp1158
g11
(lp1159
sg13
S'com.android.internal.widget.LockPatternView$SavedState'
p1160
sg15
(lp1161
sg17
(lp1162
sg19
(lp1163
sg21
I0
sba(iArchitecture
Entity
p1164
(dp1165
g11
(lp1166
sg13
S'com.android.internal.widget.LockPatternView$SavedState$1'
p1167
sg15
(lp1168
sg17
(lp1169
sg19
(lp1170
sg21
I0
sbasg57
(lp1171
g1055
ag1062
ag1069
ag1076
ag1083
ag1090
ag1097
ag1104
ag1111
ag1118
ag1125
ag1132
ag1139
ag1146
ag1153
ag1160
ag1167
asg21
I0
sg59
S'1219'
p1172
sbasS'target_sub'
p1173
S'121'
p1174
sg57
(lp1175
sS'is_component_arch'
p1176
I01
sg59
S'7.0.0_r1'
p1177
sba.