(lp0
(iArchitecture
Architecture
p1
(dp2
S'clusters'
p3
(lp4
(iArchitecture
Cluster
p5
(dp6
S'entities'
p7
(lp8
(iArchitecture
Entity
p9
(dp10
S'issue_ids'
p11
(lp12
sS'name'
p13
S'com.android.server.NativeDaemonConnector'
p14
sS'descs'
p15
(lp16
sS'labels'
p17
(lp18
sS'titles'
p19
(lp20
sS'change'
p21
I0
sba(iArchitecture
Entity
p22
(dp23
g11
(lp24
sg13
S'com.android.server.NativeDaemonConnector$1'
p25
sg15
(lp26
sg17
(lp27
sg19
(lp28
sg21
I0
sba(iArchitecture
Entity
p29
(dp30
g11
(lp31
sg13
S'com.android.server.NativeDaemonConnector$Command'
p32
sg15
(lp33
sg17
(lp34
sg19
(lp35
sg21
I0
sba(iArchitecture
Entity
p36
(dp37
g11
(lp38
sg13
S'com.android.server.NativeDaemonConnector$NativeDaemonArgumentException'
p39
sg15
(lp40
sg17
(lp41
sg19
(lp42
sg21
I0
sba(iArchitecture
Entity
p43
(dp44
g11
(lp45
sg13
S'com.android.server.NativeDaemonConnector$NativeDaemonFailureException'
p46
sg15
(lp47
sg17
(lp48
sg19
(lp49
sg21
I0
sba(iArchitecture
Entity
p50
(dp51
g11
(lp52
sg13
S'com.android.server.NativeDaemonConnector$ResponseQueue'
p53
sg15
(lp54
sg17
(lp55
sg19
(lp56
sg21
I0
sba(iArchitecture
Entity
p57
(dp58
g11
(lp59
sg13
S'com.android.server.NativeDaemonConnector$ResponseQueue$PendingCmd'
p60
sg15
(lp61
sg17
(lp62
sg19
(lp63
sg21
I0
sba(iArchitecture
Entity
p64
(dp65
g11
(lp66
sg13
S'com.android.server.NativeDaemonConnector$SensitiveArg'
p67
sg15
(lp68
sg17
(lp69
sg19
(lp70
sg21
I0
sbasS'classes'
p71
(lp72
g14
ag25
ag32
ag39
ag46
ag53
ag60
ag67
asg21
I0
sS'label'
p73
S'1124'
p74
sba(iArchitecture
Cluster
p75
(dp76
g7
(lp77
(iArchitecture
Entity
p78
(dp79
g11
(lp80
sg13
S'com.android.server.notification.RateEstimator'
p81
sg15
(lp82
sg17
(lp83
sg19
(lp84
sg21
I0
sbasg71
(lp85
g81
asg21
I0
sg73
S'124'
p86
sba(iArchitecture
Cluster
p87
(dp88
g7
(lp89
(iArchitecture
Entity
p90
(dp91
g11
(lp92
sg13
S'android.os.health.HealthStats'
p93
sg15
(lp94
sg17
(lp95
sg19
(lp96
sg21
I0
sba(iArchitecture
Entity
p97
(dp98
g11
(lp99
sg13
S'android.os.health.HealthStatsWriter'
p100
sg15
(lp101
sg17
(lp102
sg19
(lp103
sg21
I0
sbasg71
(lp104
g93
ag100
asg21
I0
sg73
S'1240'
p105
sba(iArchitecture
Cluster
p106
(dp107
g7
(lp108
(iArchitecture
Entity
p109
(dp110
g11
(lp111
sg13
S'android.hardware.camera2.legacy.SizeAreaComparator'
p112
sg15
(lp113
sg17
(lp114
sg19
(lp115
sg21
I0
sba(iArchitecture
Entity
p116
(dp117
g11
(lp118
sg13
S'android.hardware.camera2.utils.SizeAreaComparator'
p119
sg15
(lp120
sg17
(lp121
sg19
(lp122
sg21
I0
sbasg71
(lp123
g112
ag119
asg21
I0
sg73
S'1241'
p124
sba(iArchitecture
Cluster
p125
(dp126
g7
(lp127
(iArchitecture
Entity
p128
(dp129
g11
(lp130
sg13
S'android.widget.OverScroller'
p131
sg15
(lp132
sg17
(lp133
sg19
(lp134
sg21
I0
sba(iArchitecture
Entity
p135
(dp136
g11
(lp137
sg13
S'android.widget.OverScroller$SplineOverScroller'
p138
sg15
(lp139
sg17
(lp140
sg19
(lp141
sg21
I0
sba(iArchitecture
Entity
p142
(dp143
g11
(lp144
sg13
S'android.widget.Scroller'
p145
sg15
(lp146
sg17
(lp147
sg19
(lp148
sg21
I0
sba(iArchitecture
Entity
p149
(dp150
g11
(lp151
sg13
S'android.widget.Scroller$ViscousFluidInterpolator'
p152
sg15
(lp153
sg17
(lp154
sg19
(lp155
sg21
I0
sbasg71
(lp156
g131
ag138
ag145
ag152
asg21
I0
sg73
S'1242'
p157
sba(iArchitecture
Cluster
p158
(dp159
g7
(lp160
(iArchitecture
Entity
p161
(dp162
g11
(lp163
sg13
S'android.filterpacks.ui.SurfaceRenderFilter'
p164
sg15
(lp165
sg17
(lp166
sg19
(lp167
sg21
I0
sba(iArchitecture
Entity
p168
(dp169
g11
(lp170
sg13
S'android.filterpacks.ui.SurfaceTargetFilter'
p171
sg15
(lp172
sg17
(lp173
sg19
(lp174
sg21
I0
sba(iArchitecture
Entity
p175
(dp176
g11
(lp177
sg13
S'android.filterpacks.videosrc.SurfaceTextureTarget'
p178
sg15
(lp179
sg17
(lp180
sg19
(lp181
sg21
I0
sbasg71
(lp182
g164
ag171
ag178
asg21
I0
sg73
S'1243'
p183
sba(iArchitecture
Cluster
p184
(dp185
g7
(lp186
(iArchitecture
Entity
p187
(dp188
g11
(lp189
sg13
S'android.nfc.cardemulation.CardEmulation'
p190
sg15
(lp191
sg17
(lp192
sg19
(lp193
sg21
I0
sba(iArchitecture
Entity
p194
(dp195
g11
(lp196
sg13
S'android.nfc.cardemulation.NfcFCardEmulation'
p197
sg15
(lp198
sg17
(lp199
sg19
(lp200
sg21
I0
sbasg71
(lp201
g190
ag197
asg21
I0
sg73
S'1244'
p202
sba(iArchitecture
Cluster
p203
(dp204
g7
(lp205
(iArchitecture
Entity
p206
(dp207
g11
(lp208
sg13
S'android.view.InputEventReceiver'
p209
sg15
(lp210
sg17
(lp211
sg19
(lp212
sg21
I0
sba(iArchitecture
Entity
p213
(dp214
g11
(lp215
sg13
S'android.view.InputEventReceiver$Factory'
p216
sg15
(lp217
sg17
(lp218
sg19
(lp219
sg21
I0
sba(iArchitecture
Entity
p220
(dp221
g11
(lp222
sg13
S'android.view.InputEventSender'
p223
sg15
(lp224
sg17
(lp225
sg19
(lp226
sg21
I0
sbasg71
(lp227
g209
ag216
ag223
asg21
I0
sg73
S'1245'
p228
sba(iArchitecture
Cluster
p229
(dp230
g7
(lp231
(iArchitecture
Entity
p232
(dp233
g11
(lp234
sg13
S'android.view.OrientationEventListener'
p235
sg15
(lp236
sg17
(lp237
sg19
(lp238
sg21
I0
sba(iArchitecture
Entity
p239
(dp240
g11
(lp241
sg13
S'android.view.OrientationEventListener$SensorEventListenerImpl'
p242
sg15
(lp243
sg17
(lp244
sg19
(lp245
sg21
I0
sba(iArchitecture
Entity
p246
(dp247
g11
(lp248
sg13
S'android.view.OrientationListener'
p249
sg15
(lp250
sg17
(lp251
sg19
(lp252
sg21
I0
sba(iArchitecture
Entity
p253
(dp254
g11
(lp255
sg13
S'android.view.OrientationListener$OrientationEventListenerInternal'
p256
sg15
(lp257
sg17
(lp258
sg19
(lp259
sg21
I0
sbasg71
(lp260
g235
ag242
ag249
ag256
asg21
I0
sg73
S'1246'
p261
sba(iArchitecture
Cluster
p262
(dp263
g7
(lp264
(iArchitecture
Entity
p265
(dp266
g11
(lp267
sg13
S'android.animation.ObjectAnimator'
p268
sg15
(lp269
sg17
(lp270
sg19
(lp271
sg21
I0
sba(iArchitecture
Entity
p272
(dp273
g11
(lp274
sg13
S'android.animation.PropertyValuesHolder'
p275
sg15
(lp276
sg17
(lp277
sg19
(lp278
sg21
I0
sba(iArchitecture
Entity
p279
(dp280
g11
(lp281
sg13
S'android.animation.PropertyValuesHolder$1'
p282
sg15
(lp283
sg17
(lp284
sg19
(lp285
sg21
I0
sba(iArchitecture
Entity
p286
(dp287
g11
(lp288
sg13
S'android.animation.PropertyValuesHolder$FloatPropertyValuesHolder'
p289
sg15
(lp290
sg17
(lp291
sg19
(lp292
sg21
I0
sba(iArchitecture
Entity
p293
(dp294
g11
(lp295
sg13
S'android.animation.PropertyValuesHolder$IntPropertyValuesHolder'
p296
sg15
(lp297
sg17
(lp298
sg19
(lp299
sg21
I0
sba(iArchitecture
Entity
p300
(dp301
g11
(lp302
sg13
S'android.animation.PropertyValuesHolder$MultiFloatValuesHolder'
p303
sg15
(lp304
sg17
(lp305
sg19
(lp306
sg21
I0
sba(iArchitecture
Entity
p307
(dp308
g11
(lp309
sg13
S'android.animation.PropertyValuesHolder$MultiIntValuesHolder'
p310
sg15
(lp311
sg17
(lp312
sg19
(lp313
sg21
I0
sba(iArchitecture
Entity
p314
(dp315
g11
(lp316
sg13
S'android.animation.PropertyValuesHolder$PointFToFloatArray'
p317
sg15
(lp318
sg17
(lp319
sg19
(lp320
sg21
I0
sba(iArchitecture
Entity
p321
(dp322
g11
(lp323
sg13
S'android.animation.PropertyValuesHolder$PointFToIntArray'
p324
sg15
(lp325
sg17
(lp326
sg19
(lp327
sg21
I0
sba(iArchitecture
Entity
p328
(dp329
g11
(lp330
sg13
S'android.animation.PropertyValuesHolder$PropertyValues'
p331
sg15
(lp332
sg17
(lp333
sg19
(lp334
sg21
I0
sba(iArchitecture
Entity
p335
(dp336
g11
(lp337
sg13
S'android.animation.PropertyValuesHolder$PropertyValues$DataSource'
p338
sg15
(lp339
sg17
(lp340
sg19
(lp341
sg21
I0
sbasg71
(lp342
g268
ag275
ag282
ag289
ag296
ag303
ag310
ag317
ag324
ag331
ag338
asg21
I0
sg73
S'1247'
p343
sba(iArchitecture
Cluster
p344
(dp345
g7
(lp346
(iArchitecture
Entity
p347
(dp348
g11
(lp349
sg13
S'android.renderscript.Byte2'
p350
sg15
(lp351
sg17
(lp352
sg19
(lp353
sg21
I0
sba(iArchitecture
Entity
p354
(dp355
g11
(lp356
sg13
S'android.renderscript.Byte3'
p357
sg15
(lp358
sg17
(lp359
sg19
(lp360
sg21
I0
sba(iArchitecture
Entity
p361
(dp362
g11
(lp363
sg13
S'android.renderscript.Byte4'
p364
sg15
(lp365
sg17
(lp366
sg19
(lp367
sg21
I0
sba(iArchitecture
Entity
p368
(dp369
g11
(lp370
sg13
S'android.renderscript.Double2'
p371
sg15
(lp372
sg17
(lp373
sg19
(lp374
sg21
I0
sba(iArchitecture
Entity
p375
(dp376
g11
(lp377
sg13
S'android.renderscript.Double3'
p378
sg15
(lp379
sg17
(lp380
sg19
(lp381
sg21
I0
sba(iArchitecture
Entity
p382
(dp383
g11
(lp384
sg13
S'android.renderscript.Double4'
p385
sg15
(lp386
sg17
(lp387
sg19
(lp388
sg21
I0
sba(iArchitecture
Entity
p389
(dp390
g11
(lp391
sg13
S'android.renderscript.Float2'
p392
sg15
(lp393
sg17
(lp394
sg19
(lp395
sg21
I0
sba(iArchitecture
Entity
p396
(dp397
g11
(lp398
sg13
S'android.renderscript.Float3'
p399
sg15
(lp400
sg17
(lp401
sg19
(lp402
sg21
I0
sba(iArchitecture
Entity
p403
(dp404
g11
(lp405
sg13
S'android.renderscript.Float4'
p406
sg15
(lp407
sg17
(lp408
sg19
(lp409
sg21
I0
sba(iArchitecture
Entity
p410
(dp411
g11
(lp412
sg13
S'android.renderscript.Int2'
p413
sg15
(lp414
sg17
(lp415
sg19
(lp416
sg21
I0
sba(iArchitecture
Entity
p417
(dp418
g11
(lp419
sg13
S'android.renderscript.Int3'
p420
sg15
(lp421
sg17
(lp422
sg19
(lp423
sg21
I0
sba(iArchitecture
Entity
p424
(dp425
g11
(lp426
sg13
S'android.renderscript.Int4'
p427
sg15
(lp428
sg17
(lp429
sg19
(lp430
sg21
I0
sba(iArchitecture
Entity
p431
(dp432
g11
(lp433
sg13
S'android.renderscript.Long2'
p434
sg15
(lp435
sg17
(lp436
sg19
(lp437
sg21
I0
sba(iArchitecture
Entity
p438
(dp439
g11
(lp440
sg13
S'android.renderscript.Long3'
p441
sg15
(lp442
sg17
(lp443
sg19
(lp444
sg21
I0
sba(iArchitecture
Entity
p445
(dp446
g11
(lp447
sg13
S'android.renderscript.Long4'
p448
sg15
(lp449
sg17
(lp450
sg19
(lp451
sg21
I0
sba(iArchitecture
Entity
p452
(dp453
g11
(lp454
sg13
S'android.renderscript.Short2'
p455
sg15
(lp456
sg17
(lp457
sg19
(lp458
sg21
I0
sba(iArchitecture
Entity
p459
(dp460
g11
(lp461
sg13
S'android.renderscript.Short3'
p462
sg15
(lp463
sg17
(lp464
sg19
(lp465
sg21
I0
sba(iArchitecture
Entity
p466
(dp467
g11
(lp468
sg13
S'android.renderscript.Short4'
p469
sg15
(lp470
sg17
(lp471
sg19
(lp472
sg21
I0
sbasg71
(lp473
g350
ag357
ag364
ag371
ag378
ag385
ag392
ag399
ag406
ag413
ag420
ag427
ag434
ag441
ag448
ag455
ag462
ag469
asg21
I0
sg73
S'1248'
p474
sba(iArchitecture
Cluster
p475
(dp476
g7
(lp477
(iArchitecture
Entity
p478
(dp479
g11
(lp480
sg13
S'com.android.internal.os.BluetoothPowerCalculator'
p481
sg15
(lp482
sg17
(lp483
sg19
(lp484
sg21
I0
sba(iArchitecture
Entity
p485
(dp486
g11
(lp487
sg13
S'com.android.internal.os.WifiPowerCalculator'
p488
sg15
(lp489
sg17
(lp490
sg19
(lp491
sg21
I0
sbasg71
(lp492
g481
ag488
asg21
I0
sg73
S'1249'
p493
sbasS'target_sub'
p494
S'124'
p495
sg71
(lp496
sS'is_component_arch'
p497
I01
sg73
S'7.0.0_r1'
p498
sba.