(lp0
(iArchitecture
Architecture
p1
(dp2
S'clusters'
p3
(lp4
(iArchitecture
Cluster
p5
(dp6
S'entities'
p7
(lp8
(iArchitecture
Entity
p9
(dp10
S'issue_ids'
p11
(lp12
sS'name'
p13
S'android.text.TextDirectionHeuristics'
p14
sS'descs'
p15
(lp16
sS'labels'
p17
(lp18
sS'titles'
p19
(lp20
sS'change'
p21
I0
sba(iArchitecture
Entity
p22
(dp23
g11
(lp24
sg13
S'android.text.TextDirectionHeuristics$AnyStrong'
p25
sg15
(lp26
sg17
(lp27
sg19
(lp28
sg21
I0
sba(iArchitecture
Entity
p29
(dp30
g11
(lp31
sg13
S'android.text.TextDirectionHeuristics$FirstStrong'
p32
sg15
(lp33
sg17
(lp34
sg19
(lp35
sg21
I0
sba(iArchitecture
Entity
p36
(dp37
g11
(lp38
sg13
S'android.text.TextDirectionHeuristics$TextDirectionAlgorithm'
p39
sg15
(lp40
sg17
(lp41
sg19
(lp42
sg21
I0
sba(iArchitecture
Entity
p43
(dp44
g11
(lp45
sg13
S'android.text.TextDirectionHeuristics$TextDirectionHeuristicImpl'
p46
sg15
(lp47
sg17
(lp48
sg19
(lp49
sg21
I0
sba(iArchitecture
Entity
p50
(dp51
g11
(lp52
sg13
S'android.text.TextDirectionHeuristics$TextDirectionHeuristicInternal'
p53
sg15
(lp54
sg17
(lp55
sg19
(lp56
sg21
I0
sba(iArchitecture
Entity
p57
(dp58
g11
(lp59
sg13
S'android.text.TextDirectionHeuristics$TextDirectionHeuristicLocale'
p60
sg15
(lp61
sg17
(lp62
sg19
(lp63
sg21
I0
sbasS'classes'
p64
(lp65
g14
ag25
ag32
ag39
ag46
ag53
ag60
asg21
I0
sS'label'
p66
S'1130'
p67
sba(iArchitecture
Cluster
p68
(dp69
g7
(lp70
(iArchitecture
Entity
p71
(dp72
g11
(lp73
sg13
S'android.media.ImageUtils'
p74
sg15
(lp75
sg17
(lp76
sg19
(lp77
sg21
I0
sbasg64
(lp78
g74
asg21
I0
sg66
S'130'
p79
sba(iArchitecture
Cluster
p80
(dp81
g7
(lp82
(iArchitecture
Entity
p83
(dp84
g11
(lp85
sg13
S'android.bluetooth.BluetoothActivityEnergyInfo'
p86
sg15
(lp87
sg17
(lp88
sg19
(lp89
sg21
I0
sba(iArchitecture
Entity
p90
(dp91
g11
(lp92
sg13
S'android.bluetooth.BluetoothActivityEnergyInfo$1'
p93
sg15
(lp94
sg17
(lp95
sg19
(lp96
sg21
I0
sba(iArchitecture
Entity
p97
(dp98
g11
(lp99
sg13
S'android.net.wifi.WifiActivityEnergyInfo'
p100
sg15
(lp101
sg17
(lp102
sg19
(lp103
sg21
I0
sba(iArchitecture
Entity
p104
(dp105
g11
(lp106
sg13
S'android.net.wifi.WifiActivityEnergyInfo$1'
p107
sg15
(lp108
sg17
(lp109
sg19
(lp110
sg21
I0
sbasg64
(lp111
g86
ag93
ag100
ag107
asg21
I0
sg66
S'1300'
p112
sba(iArchitecture
Cluster
p113
(dp114
g7
(lp115
(iArchitecture
Entity
p116
(dp117
g11
(lp118
sg13
S'android.hardware.location.ActivityChangedEvent'
p119
sg15
(lp120
sg17
(lp121
sg19
(lp122
sg21
I0
sba(iArchitecture
Entity
p123
(dp124
g11
(lp125
sg13
S'android.hardware.location.ActivityChangedEvent$1'
p126
sg15
(lp127
sg17
(lp128
sg19
(lp129
sg21
I0
sba(iArchitecture
Entity
p130
(dp131
g11
(lp132
sg13
S'android.hardware.location.ActivityRecognitionEvent'
p133
sg15
(lp134
sg17
(lp135
sg19
(lp136
sg21
I0
sba(iArchitecture
Entity
p137
(dp138
g11
(lp139
sg13
S'android.hardware.location.ActivityRecognitionEvent$1'
p140
sg15
(lp141
sg17
(lp142
sg19
(lp143
sg21
I0
sba(iArchitecture
Entity
p144
(dp145
g11
(lp146
sg13
S'android.hardware.location.ActivityRecognitionHardware'
p147
sg15
(lp148
sg17
(lp149
sg19
(lp150
sg21
I0
sba(iArchitecture
Entity
p151
(dp152
g11
(lp153
sg13
S'android.hardware.location.ActivityRecognitionHardware$Event'
p154
sg15
(lp155
sg17
(lp156
sg19
(lp157
sg21
I0
sba(iArchitecture
Entity
p158
(dp159
g11
(lp160
sg13
S'android.hardware.location.ActivityRecognitionHardware$SinkList'
p161
sg15
(lp162
sg17
(lp163
sg19
(lp164
sg21
I0
sbasg64
(lp165
g119
ag126
ag133
ag140
ag147
ag154
ag161
asg21
I0
sg66
S'1301'
p166
sba(iArchitecture
Cluster
p167
(dp168
g7
(lp169
(iArchitecture
Entity
p170
(dp171
g11
(lp172
sg13
S'android.ddm.DdmHandleAppName'
p173
sg15
(lp174
sg17
(lp175
sg19
(lp176
sg21
I0
sba(iArchitecture
Entity
p177
(dp178
g11
(lp179
sg13
S'android.ddm.DdmHandleExit'
p180
sg15
(lp181
sg17
(lp182
sg19
(lp183
sg21
I0
sba(iArchitecture
Entity
p184
(dp185
g11
(lp186
sg13
S'android.ddm.DdmHandleHeap'
p187
sg15
(lp188
sg17
(lp189
sg19
(lp190
sg21
I0
sba(iArchitecture
Entity
p191
(dp192
g11
(lp193
sg13
S'android.ddm.DdmHandleHello'
p194
sg15
(lp195
sg17
(lp196
sg19
(lp197
sg21
I0
sba(iArchitecture
Entity
p198
(dp199
g11
(lp200
sg13
S'android.ddm.DdmHandleNativeHeap'
p201
sg15
(lp202
sg17
(lp203
sg19
(lp204
sg21
I0
sba(iArchitecture
Entity
p205
(dp206
g11
(lp207
sg13
S'android.ddm.DdmHandleProfiling'
p208
sg15
(lp209
sg17
(lp210
sg19
(lp211
sg21
I0
sba(iArchitecture
Entity
p212
(dp213
g11
(lp214
sg13
S'android.ddm.DdmHandleThread'
p215
sg15
(lp216
sg17
(lp217
sg19
(lp218
sg21
I0
sbasg64
(lp219
g173
ag180
ag187
ag194
ag201
ag208
ag215
asg21
I0
sg66
S'1302'
p220
sba(iArchitecture
Cluster
p221
(dp222
g7
(lp223
(iArchitecture
Entity
p224
(dp225
g11
(lp226
sg13
S'android.renderscript.RSSurfaceView'
p227
sg15
(lp228
sg17
(lp229
sg19
(lp230
sg21
I0
sba(iArchitecture
Entity
p231
(dp232
g11
(lp233
sg13
S'android.renderscript.RSTextureView'
p234
sg15
(lp235
sg17
(lp236
sg19
(lp237
sg21
I0
sbasg64
(lp238
g227
ag234
asg21
I0
sg66
S'1303'
p239
sba(iArchitecture
Cluster
p240
(dp241
g7
(lp242
(iArchitecture
Entity
p243
(dp244
g11
(lp245
sg13
S'android.graphics.drawable.shapes.PathShape'
p246
sg15
(lp247
sg17
(lp248
sg19
(lp249
sg21
I0
sba(iArchitecture
Entity
p250
(dp251
g11
(lp252
sg13
S'android.graphics.drawable.shapes.Shape'
p253
sg15
(lp254
sg17
(lp255
sg19
(lp256
sg21
I0
sbasg64
(lp257
g246
ag253
asg21
I0
sg66
S'1304'
p258
sba(iArchitecture
Cluster
p259
(dp260
g7
(lp261
(iArchitecture
Entity
p262
(dp263
g11
(lp264
sg13
S'android.location.GnssNavigationMessage'
p265
sg15
(lp266
sg17
(lp267
sg19
(lp268
sg21
I0
sba(iArchitecture
Entity
p269
(dp270
g11
(lp271
sg13
S'android.location.GnssNavigationMessage$1'
p272
sg15
(lp273
sg17
(lp274
sg19
(lp275
sg21
I0
sba(iArchitecture
Entity
p276
(dp277
g11
(lp278
sg13
S'android.location.GnssNavigationMessage$Callback'
p279
sg15
(lp280
sg17
(lp281
sg19
(lp282
sg21
I0
sba(iArchitecture
Entity
p283
(dp284
g11
(lp285
sg13
S'android.location.GpsNavigationMessage'
p286
sg15
(lp287
sg17
(lp288
sg19
(lp289
sg21
I0
sba(iArchitecture
Entity
p290
(dp291
g11
(lp292
sg13
S'android.location.GpsNavigationMessage$1'
p293
sg15
(lp294
sg17
(lp295
sg19
(lp296
sg21
I0
sbasg64
(lp297
g265
ag272
ag279
ag286
ag293
asg21
I0
sg66
S'1305'
p298
sba(iArchitecture
Cluster
p299
(dp300
g7
(lp301
(iArchitecture
Entity
p302
(dp303
g11
(lp304
sg13
S'com.android.server.fingerprint.AuthenticationClient'
p305
sg15
(lp306
sg17
(lp307
sg19
(lp308
sg21
I0
sba(iArchitecture
Entity
p309
(dp310
g11
(lp311
sg13
S'com.android.server.fingerprint.ClientMonitor'
p312
sg15
(lp313
sg17
(lp314
sg19
(lp315
sg21
I0
sba(iArchitecture
Entity
p316
(dp317
g11
(lp318
sg13
S'com.android.server.fingerprint.EnrollClient'
p319
sg15
(lp320
sg17
(lp321
sg19
(lp322
sg21
I0
sba(iArchitecture
Entity
p323
(dp324
g11
(lp325
sg13
S'com.android.server.fingerprint.EnumerateClient'
p326
sg15
(lp327
sg17
(lp328
sg19
(lp329
sg21
I0
sba(iArchitecture
Entity
p330
(dp331
g11
(lp332
sg13
S'com.android.server.fingerprint.RemovalClient'
p333
sg15
(lp334
sg17
(lp335
sg19
(lp336
sg21
I0
sbasg64
(lp337
g305
ag312
ag319
ag326
ag333
asg21
I0
sg66
S'1306'
p338
sba(iArchitecture
Cluster
p339
(dp340
g7
(lp341
(iArchitecture
Entity
p342
(dp343
g11
(lp344
sg13
S'com.android.server.notification.CountdownConditionProvider'
p345
sg15
(lp346
sg17
(lp347
sg19
(lp348
sg21
I0
sba(iArchitecture
Entity
p349
(dp350
g11
(lp351
sg13
S'com.android.server.notification.CountdownConditionProvider$Receiver'
p352
sg15
(lp353
sg17
(lp354
sg19
(lp355
sg21
I0
sba(iArchitecture
Entity
p356
(dp357
g11
(lp358
sg13
S'com.android.server.notification.EventConditionProvider'
p359
sg15
(lp360
sg17
(lp361
sg19
(lp362
sg21
I0
sba(iArchitecture
Entity
p363
(dp364
g11
(lp365
sg13
S'com.android.server.notification.EventConditionProvider$1'
p366
sg15
(lp367
sg17
(lp368
sg19
(lp369
sg21
I0
sba(iArchitecture
Entity
p370
(dp371
g11
(lp372
sg13
S'com.android.server.notification.EventConditionProvider$2'
p373
sg15
(lp374
sg17
(lp375
sg19
(lp376
sg21
I0
sba(iArchitecture
Entity
p377
(dp378
g11
(lp379
sg13
S'com.android.server.notification.EventConditionProvider$3'
p380
sg15
(lp381
sg17
(lp382
sg19
(lp383
sg21
I0
sba(iArchitecture
Entity
p384
(dp385
g11
(lp386
sg13
S'com.android.server.notification.EventConditionProvider$4'
p387
sg15
(lp388
sg17
(lp389
sg19
(lp390
sg21
I0
sba(iArchitecture
Entity
p391
(dp392
g11
(lp393
sg13
S'com.android.server.notification.ScheduleConditionProvider'
p394
sg15
(lp395
sg17
(lp396
sg19
(lp397
sg21
I0
sba(iArchitecture
Entity
p398
(dp399
g11
(lp400
sg13
S'com.android.server.notification.ScheduleConditionProvider$1'
p401
sg15
(lp402
sg17
(lp403
sg19
(lp404
sg21
I0
sbasg64
(lp405
g345
ag352
ag359
ag366
ag373
ag380
ag387
ag394
ag401
asg21
I0
sg66
S'1307'
p406
sba(iArchitecture
Cluster
p407
(dp408
g7
(lp409
(iArchitecture
Entity
p410
(dp411
g11
(lp412
sg13
S'com.android.server.hdmi.DevicePowerStatusAction'
p413
sg15
(lp414
sg17
(lp415
sg19
(lp416
sg21
I0
sba(iArchitecture
Entity
p417
(dp418
g11
(lp419
sg13
S'com.android.server.hdmi.DeviceSelectAction'
p420
sg15
(lp421
sg17
(lp422
sg19
(lp423
sg21
I0
sba(iArchitecture
Entity
p424
(dp425
g11
(lp426
sg13
S'com.android.server.hdmi.DeviceSelectAction$1'
p427
sg15
(lp428
sg17
(lp429
sg19
(lp430
sg21
I0
sba(iArchitecture
Entity
p431
(dp432
g11
(lp433
sg13
S'com.android.server.hdmi.OneTouchPlayAction'
p434
sg15
(lp435
sg17
(lp436
sg19
(lp437
sg21
I0
sba(iArchitecture
Entity
p438
(dp439
g11
(lp440
sg13
S'com.android.server.hdmi.PowerStatusMonitorAction'
p441
sg15
(lp442
sg17
(lp443
sg19
(lp444
sg21
I0
sba(iArchitecture
Entity
p445
(dp446
g11
(lp447
sg13
S'com.android.server.hdmi.PowerStatusMonitorAction$1'
p448
sg15
(lp449
sg17
(lp450
sg19
(lp451
sg21
I0
sba(iArchitecture
Entity
p452
(dp453
g11
(lp454
sg13
S'com.android.server.hdmi.RoutingControlAction'
p455
sg15
(lp456
sg17
(lp457
sg19
(lp458
sg21
I0
sba(iArchitecture
Entity
p459
(dp460
g11
(lp461
sg13
S'com.android.server.hdmi.RoutingControlAction$1'
p462
sg15
(lp463
sg17
(lp464
sg19
(lp465
sg21
I0
sbasg64
(lp466
g413
ag420
ag427
ag434
ag441
ag448
ag455
ag462
asg21
I0
sg66
S'1308'
p467
sba(iArchitecture
Cluster
p468
(dp469
g7
(lp470
(iArchitecture
Entity
p471
(dp472
g11
(lp473
sg13
S'com.android.ims.internal.uce.options.OptionsCapInfo'
p474
sg15
(lp475
sg17
(lp476
sg19
(lp477
sg21
I0
sba(iArchitecture
Entity
p478
(dp479
g11
(lp480
sg13
S'com.android.ims.internal.uce.options.OptionsCapInfo$1'
p481
sg15
(lp482
sg17
(lp483
sg19
(lp484
sg21
I0
sba(iArchitecture
Entity
p485
(dp486
g11
(lp487
sg13
S'com.android.ims.internal.uce.presence.PresCapInfo'
p488
sg15
(lp489
sg17
(lp490
sg19
(lp491
sg21
I0
sba(iArchitecture
Entity
p492
(dp493
g11
(lp494
sg13
S'com.android.ims.internal.uce.presence.PresCapInfo$1'
p495
sg15
(lp496
sg17
(lp497
sg19
(lp498
sg21
I0
sbasg64
(lp499
g474
ag481
ag488
ag495
asg21
I0
sg66
S'1309'
p500
sbasS'target_sub'
p501
S'130'
p502
sg64
(lp503
sS'is_component_arch'
p504
I01
sg66
S'7.0.0_r1'
p505
sba.