(lp0
(iArchitecture
Architecture
p1
(dp2
S'clusters'
p3
(lp4
(iArchitecture
Cluster
p5
(dp6
S'entities'
p7
(lp8
(iArchitecture
Entity
p9
(dp10
S'issue_ids'
p11
(lp12
sS'name'
p13
S'android.location.GpsStatus'
p14
sS'descs'
p15
(lp16
sS'labels'
p17
(lp18
sS'titles'
p19
(lp20
sS'change'
p21
I0
sba(iArchitecture
Entity
p22
(dp23
g11
(lp24
sg13
S'android.location.GpsStatus$1'
p25
sg15
(lp26
sg17
(lp27
sg19
(lp28
sg21
I0
sba(iArchitecture
Entity
p29
(dp30
g11
(lp31
sg13
S'android.location.GpsStatus$Listener'
p32
sg15
(lp33
sg17
(lp34
sg19
(lp35
sg21
I0
sba(iArchitecture
Entity
p36
(dp37
g11
(lp38
sg13
S'android.location.GpsStatus$NmeaListener'
p39
sg15
(lp40
sg17
(lp41
sg19
(lp42
sg21
I0
sba(iArchitecture
Entity
p43
(dp44
g11
(lp45
sg13
S'android.location.GpsStatus$SatelliteIterator'
p46
sg15
(lp47
sg17
(lp48
sg19
(lp49
sg21
I0
sbasS'classes'
p50
(lp51
g14
ag25
ag32
ag39
ag46
asg21
I0
sS'label'
p52
S'1071'
p53
sba(iArchitecture
Cluster
p54
(dp55
g7
(lp56
(iArchitecture
Entity
p57
(dp58
g11
(lp59
sg13
S'android.animation.PathKeyframes'
p60
sg15
(lp61
sg17
(lp62
sg19
(lp63
sg21
I0
sba(iArchitecture
Entity
p64
(dp65
g11
(lp66
sg13
S'android.animation.PathKeyframes$1'
p67
sg15
(lp68
sg17
(lp69
sg19
(lp70
sg21
I0
sba(iArchitecture
Entity
p71
(dp72
g11
(lp73
sg13
S'android.animation.PathKeyframes$2'
p74
sg15
(lp75
sg17
(lp76
sg19
(lp77
sg21
I0
sba(iArchitecture
Entity
p78
(dp79
g11
(lp80
sg13
S'android.animation.PathKeyframes$3'
p81
sg15
(lp82
sg17
(lp83
sg19
(lp84
sg21
I0
sba(iArchitecture
Entity
p85
(dp86
g11
(lp87
sg13
S'android.animation.PathKeyframes$4'
p88
sg15
(lp89
sg17
(lp90
sg19
(lp91
sg21
I0
sba(iArchitecture
Entity
p92
(dp93
g11
(lp94
sg13
S'android.animation.PathKeyframes$FloatKeyframesBase'
p95
sg15
(lp96
sg17
(lp97
sg19
(lp98
sg21
I0
sba(iArchitecture
Entity
p99
(dp100
g11
(lp101
sg13
S'android.animation.PathKeyframes$IntKeyframesBase'
p102
sg15
(lp103
sg17
(lp104
sg19
(lp105
sg21
I0
sba(iArchitecture
Entity
p106
(dp107
g11
(lp108
sg13
S'android.animation.PathKeyframes$SimpleKeyframes'
p109
sg15
(lp110
sg17
(lp111
sg19
(lp112
sg21
I0
sbasg50
(lp113
g60
ag67
ag74
ag81
ag88
ag95
ag102
ag109
asg21
I0
sg52
S'1171'
p114
sba(iArchitecture
Cluster
p115
(dp116
g7
(lp117
(iArchitecture
Entity
p118
(dp119
g11
(lp120
sg13
S'android.app.ActivityTransitionCoordinator'
p121
sg15
(lp122
sg17
(lp123
sg19
(lp124
sg21
I0
sba(iArchitecture
Entity
p125
(dp126
g11
(lp127
sg13
S'android.app.ActivityTransitionCoordinator$1'
p128
sg15
(lp129
sg17
(lp130
sg19
(lp131
sg21
I0
sba(iArchitecture
Entity
p132
(dp133
g11
(lp134
sg13
S'android.app.ActivityTransitionCoordinator$2'
p135
sg15
(lp136
sg17
(lp137
sg19
(lp138
sg21
I0
sba(iArchitecture
Entity
p139
(dp140
g11
(lp141
sg13
S'android.app.ActivityTransitionCoordinator$ContinueTransitionListener'
p142
sg15
(lp143
sg17
(lp144
sg19
(lp145
sg21
I0
sba(iArchitecture
Entity
p146
(dp147
g11
(lp148
sg13
S'android.app.ActivityTransitionCoordinator$FixedEpicenterCallback'
p149
sg15
(lp150
sg17
(lp151
sg19
(lp152
sg21
I0
sba(iArchitecture
Entity
p153
(dp154
g11
(lp155
sg13
S'android.app.ActivityTransitionCoordinator$GhostViewListeners'
p156
sg15
(lp157
sg17
(lp158
sg19
(lp159
sg21
I0
sba(iArchitecture
Entity
p160
(dp161
g11
(lp162
sg13
S'android.app.ActivityTransitionCoordinator$SharedElementOriginalState'
p163
sg15
(lp164
sg17
(lp165
sg19
(lp166
sg21
I0
sba(iArchitecture
Entity
p167
(dp168
g11
(lp169
sg13
S'android.app.EnterTransitionCoordinator'
p170
sg15
(lp171
sg17
(lp172
sg19
(lp173
sg21
I0
sba(iArchitecture
Entity
p174
(dp175
g11
(lp176
sg13
S'android.app.EnterTransitionCoordinator$1'
p177
sg15
(lp178
sg17
(lp179
sg19
(lp180
sg21
I0
sba(iArchitecture
Entity
p181
(dp182
g11
(lp183
sg13
S'android.app.EnterTransitionCoordinator$10'
p184
sg15
(lp185
sg17
(lp186
sg19
(lp187
sg21
I0
sba(iArchitecture
Entity
p188
(dp189
g11
(lp190
sg13
S'android.app.EnterTransitionCoordinator$11'
p191
sg15
(lp192
sg17
(lp193
sg19
(lp194
sg21
I0
sba(iArchitecture
Entity
p195
(dp196
g11
(lp197
sg13
S'android.app.EnterTransitionCoordinator$2'
p198
sg15
(lp199
sg17
(lp200
sg19
(lp201
sg21
I0
sba(iArchitecture
Entity
p202
(dp203
g11
(lp204
sg13
S'android.app.EnterTransitionCoordinator$3'
p205
sg15
(lp206
sg17
(lp207
sg19
(lp208
sg21
I0
sba(iArchitecture
Entity
p209
(dp210
g11
(lp211
sg13
S'android.app.EnterTransitionCoordinator$4'
p212
sg15
(lp213
sg17
(lp214
sg19
(lp215
sg21
I0
sba(iArchitecture
Entity
p216
(dp217
g11
(lp218
sg13
S'android.app.EnterTransitionCoordinator$5'
p219
sg15
(lp220
sg17
(lp221
sg19
(lp222
sg21
I0
sba(iArchitecture
Entity
p223
(dp224
g11
(lp225
sg13
S'android.app.EnterTransitionCoordinator$5$1'
p226
sg15
(lp227
sg17
(lp228
sg19
(lp229
sg21
I0
sba(iArchitecture
Entity
p230
(dp231
g11
(lp232
sg13
S'android.app.EnterTransitionCoordinator$5$1$1'
p233
sg15
(lp234
sg17
(lp235
sg19
(lp236
sg21
I0
sba(iArchitecture
Entity
p237
(dp238
g11
(lp239
sg13
S'android.app.EnterTransitionCoordinator$6'
p240
sg15
(lp241
sg17
(lp242
sg19
(lp243
sg21
I0
sba(iArchitecture
Entity
p244
(dp245
g11
(lp246
sg13
S'android.app.EnterTransitionCoordinator$7'
p247
sg15
(lp248
sg17
(lp249
sg19
(lp250
sg21
I0
sba(iArchitecture
Entity
p251
(dp252
g11
(lp253
sg13
S'android.app.EnterTransitionCoordinator$8'
p254
sg15
(lp255
sg17
(lp256
sg19
(lp257
sg21
I0
sba(iArchitecture
Entity
p258
(dp259
g11
(lp260
sg13
S'android.app.EnterTransitionCoordinator$9'
p261
sg15
(lp262
sg17
(lp263
sg19
(lp264
sg21
I0
sba(iArchitecture
Entity
p265
(dp266
g11
(lp267
sg13
S'android.app.ExitTransitionCoordinator'
p268
sg15
(lp269
sg17
(lp270
sg19
(lp271
sg21
I0
sba(iArchitecture
Entity
p272
(dp273
g11
(lp274
sg13
S'android.app.ExitTransitionCoordinator$1'
p275
sg15
(lp276
sg17
(lp277
sg19
(lp278
sg21
I0
sba(iArchitecture
Entity
p279
(dp280
g11
(lp281
sg13
S'android.app.ExitTransitionCoordinator$10'
p282
sg15
(lp283
sg17
(lp284
sg19
(lp285
sg21
I0
sba(iArchitecture
Entity
p286
(dp287
g11
(lp288
sg13
S'android.app.ExitTransitionCoordinator$11'
p289
sg15
(lp290
sg17
(lp291
sg19
(lp292
sg21
I0
sba(iArchitecture
Entity
p293
(dp294
g11
(lp295
sg13
S'android.app.ExitTransitionCoordinator$2'
p296
sg15
(lp297
sg17
(lp298
sg19
(lp299
sg21
I0
sba(iArchitecture
Entity
p300
(dp301
g11
(lp302
sg13
S'android.app.ExitTransitionCoordinator$3'
p303
sg15
(lp304
sg17
(lp305
sg19
(lp306
sg21
I0
sba(iArchitecture
Entity
p307
(dp308
g11
(lp309
sg13
S'android.app.ExitTransitionCoordinator$4'
p310
sg15
(lp311
sg17
(lp312
sg19
(lp313
sg21
I0
sba(iArchitecture
Entity
p314
(dp315
g11
(lp316
sg13
S'android.app.ExitTransitionCoordinator$5'
p317
sg15
(lp318
sg17
(lp319
sg19
(lp320
sg21
I0
sba(iArchitecture
Entity
p321
(dp322
g11
(lp323
sg13
S'android.app.ExitTransitionCoordinator$6'
p324
sg15
(lp325
sg17
(lp326
sg19
(lp327
sg21
I0
sba(iArchitecture
Entity
p328
(dp329
g11
(lp330
sg13
S'android.app.ExitTransitionCoordinator$7'
p331
sg15
(lp332
sg17
(lp333
sg19
(lp334
sg21
I0
sba(iArchitecture
Entity
p335
(dp336
g11
(lp337
sg13
S'android.app.ExitTransitionCoordinator$8'
p338
sg15
(lp339
sg17
(lp340
sg19
(lp341
sg21
I0
sba(iArchitecture
Entity
p342
(dp343
g11
(lp344
sg13
S'android.app.ExitTransitionCoordinator$9'
p345
sg15
(lp346
sg17
(lp347
sg19
(lp348
sg21
I0
sbasg50
(lp349
g121
ag128
ag135
ag142
ag149
ag156
ag163
ag170
ag177
ag184
ag191
ag198
ag205
ag212
ag219
ag226
ag233
ag240
ag247
ag254
ag261
ag268
ag275
ag282
ag289
ag296
ag303
ag310
ag317
ag324
ag331
ag338
ag345
asg21
I0
sg52
S'1271'
p350
sba(iArchitecture
Cluster
p351
(dp352
g7
(lp353
(iArchitecture
Entity
p354
(dp355
g11
(lp356
sg13
S'android.hardware.radio.RadioManager'
p357
sg15
(lp358
sg17
(lp359
sg19
(lp360
sg21
I0
sba(iArchitecture
Entity
p361
(dp362
g11
(lp363
sg13
S'android.hardware.radio.RadioManager$AmBandConfig'
p364
sg15
(lp365
sg17
(lp366
sg19
(lp367
sg21
I0
sba(iArchitecture
Entity
p368
(dp369
g11
(lp370
sg13
S'android.hardware.radio.RadioManager$AmBandConfig$1'
p371
sg15
(lp372
sg17
(lp373
sg19
(lp374
sg21
I0
sba(iArchitecture
Entity
p375
(dp376
g11
(lp377
sg13
S'android.hardware.radio.RadioManager$AmBandConfig$Builder'
p378
sg15
(lp379
sg17
(lp380
sg19
(lp381
sg21
I0
sba(iArchitecture
Entity
p382
(dp383
g11
(lp384
sg13
S'android.hardware.radio.RadioManager$AmBandDescriptor'
p385
sg15
(lp386
sg17
(lp387
sg19
(lp388
sg21
I0
sba(iArchitecture
Entity
p389
(dp390
g11
(lp391
sg13
S'android.hardware.radio.RadioManager$AmBandDescriptor$1'
p392
sg15
(lp393
sg17
(lp394
sg19
(lp395
sg21
I0
sba(iArchitecture
Entity
p396
(dp397
g11
(lp398
sg13
S'android.hardware.radio.RadioManager$BandConfig'
p399
sg15
(lp400
sg17
(lp401
sg19
(lp402
sg21
I0
sba(iArchitecture
Entity
p403
(dp404
g11
(lp405
sg13
S'android.hardware.radio.RadioManager$BandConfig$1'
p406
sg15
(lp407
sg17
(lp408
sg19
(lp409
sg21
I0
sba(iArchitecture
Entity
p410
(dp411
g11
(lp412
sg13
S'android.hardware.radio.RadioManager$BandDescriptor'
p413
sg15
(lp414
sg17
(lp415
sg19
(lp416
sg21
I0
sba(iArchitecture
Entity
p417
(dp418
g11
(lp419
sg13
S'android.hardware.radio.RadioManager$BandDescriptor$1'
p420
sg15
(lp421
sg17
(lp422
sg19
(lp423
sg21
I0
sba(iArchitecture
Entity
p424
(dp425
g11
(lp426
sg13
S'android.hardware.radio.RadioManager$FmBandConfig'
p427
sg15
(lp428
sg17
(lp429
sg19
(lp430
sg21
I0
sba(iArchitecture
Entity
p431
(dp432
g11
(lp433
sg13
S'android.hardware.radio.RadioManager$FmBandConfig$1'
p434
sg15
(lp435
sg17
(lp436
sg19
(lp437
sg21
I0
sba(iArchitecture
Entity
p438
(dp439
g11
(lp440
sg13
S'android.hardware.radio.RadioManager$FmBandConfig$Builder'
p441
sg15
(lp442
sg17
(lp443
sg19
(lp444
sg21
I0
sba(iArchitecture
Entity
p445
(dp446
g11
(lp447
sg13
S'android.hardware.radio.RadioManager$FmBandDescriptor'
p448
sg15
(lp449
sg17
(lp450
sg19
(lp451
sg21
I0
sba(iArchitecture
Entity
p452
(dp453
g11
(lp454
sg13
S'android.hardware.radio.RadioManager$FmBandDescriptor$1'
p455
sg15
(lp456
sg17
(lp457
sg19
(lp458
sg21
I0
sba(iArchitecture
Entity
p459
(dp460
g11
(lp461
sg13
S'android.hardware.radio.RadioManager$ModuleProperties'
p462
sg15
(lp463
sg17
(lp464
sg19
(lp465
sg21
I0
sba(iArchitecture
Entity
p466
(dp467
g11
(lp468
sg13
S'android.hardware.radio.RadioManager$ModuleProperties$1'
p469
sg15
(lp470
sg17
(lp471
sg19
(lp472
sg21
I0
sba(iArchitecture
Entity
p473
(dp474
g11
(lp475
sg13
S'android.hardware.radio.RadioManager$ProgramInfo'
p476
sg15
(lp477
sg17
(lp478
sg19
(lp479
sg21
I0
sba(iArchitecture
Entity
p480
(dp481
g11
(lp482
sg13
S'android.hardware.radio.RadioManager$ProgramInfo$1'
p483
sg15
(lp484
sg17
(lp485
sg19
(lp486
sg21
I0
sba(iArchitecture
Entity
p487
(dp488
g11
(lp489
sg13
S'android.view.inputmethod.CursorAnchorInfo'
p490
sg15
(lp491
sg17
(lp492
sg19
(lp493
sg21
I0
sba(iArchitecture
Entity
p494
(dp495
g11
(lp496
sg13
S'android.view.inputmethod.CursorAnchorInfo$1'
p497
sg15
(lp498
sg17
(lp499
sg19
(lp500
sg21
I0
sba(iArchitecture
Entity
p501
(dp502
g11
(lp503
sg13
S'android.view.inputmethod.CursorAnchorInfo$Builder'
p504
sg15
(lp505
sg17
(lp506
sg19
(lp507
sg21
I0
sbasg50
(lp508
g357
ag364
ag371
ag378
ag385
ag392
ag399
ag406
ag413
ag420
ag427
ag434
ag441
ag448
ag455
ag462
ag469
ag476
ag483
ag490
ag497
ag504
asg21
I0
sg52
S'1371'
p509
sba(iArchitecture
Cluster
p510
(dp511
g7
(lp512
(iArchitecture
Entity
p513
(dp514
g11
(lp515
sg13
S'android.util.Property'
p516
sg15
(lp517
sg17
(lp518
sg19
(lp519
sg21
I0
sbasg50
(lp520
g516
asg21
I0
sg52
S'171'
p521
sba(iArchitecture
Cluster
p522
(dp523
g7
(lp524
(iArchitecture
Entity
p525
(dp526
g11
(lp527
sg13
S'android.text.SpanSet'
p528
sg15
(lp529
sg17
(lp530
sg19
(lp531
sg21
I0
sbasg50
(lp532
g528
asg21
I0
sg52
S'271'
p533
sba(iArchitecture
Cluster
p534
(dp535
g7
(lp536
(iArchitecture
Entity
p537
(dp538
g11
(lp539
sg13
S'com.android.internal.util.FastXmlSerializer'
p540
sg15
(lp541
sg17
(lp542
sg19
(lp543
sg21
I0
sbasg50
(lp544
g540
asg21
I0
sg52
S'371'
p545
sba(iArchitecture
Cluster
p546
(dp547
g7
(lp548
(iArchitecture
Entity
p549
(dp550
g11
(lp551
sg13
S'android.webkit.PluginData'
p552
sg15
(lp553
sg17
(lp554
sg19
(lp555
sg21
I0
sbasg50
(lp556
g552
asg21
I0
sg52
S'471'
p557
sba(iArchitecture
Cluster
p558
(dp559
g7
(lp560
(iArchitecture
Entity
p561
(dp562
g11
(lp563
sg13
S'android.view.VelocityTracker'
p564
sg15
(lp565
sg17
(lp566
sg19
(lp567
sg21
I0
sba(iArchitecture
Entity
p568
(dp569
g11
(lp570
sg13
S'android.view.VelocityTracker$Estimator'
p571
sg15
(lp572
sg17
(lp573
sg19
(lp574
sg21
I0
sbasg50
(lp575
g564
ag571
asg21
I0
sg52
S'571'
p576
sba(iArchitecture
Cluster
p577
(dp578
g7
(lp579
(iArchitecture
Entity
p580
(dp581
g11
(lp582
sg13
S'android.telephony.PhoneNumberUtils'
p583
sg15
(lp584
sg17
(lp585
sg19
(lp586
sg21
I0
sba(iArchitecture
Entity
p587
(dp588
g11
(lp589
sg13
S'android.telephony.PhoneNumberUtils$CountryCallingCodeAndNewIndex'
p590
sg15
(lp591
sg17
(lp592
sg19
(lp593
sg21
I0
sbasg50
(lp594
g583
ag590
asg21
I0
sg52
S'671'
p595
sba(iArchitecture
Cluster
p596
(dp597
g7
(lp598
(iArchitecture
Entity
p599
(dp600
g11
(lp601
sg13
S'com.android.server.content.SyncJobService'
p602
sg15
(lp603
sg17
(lp604
sg19
(lp605
sg21
I0
sbasg50
(lp606
g602
asg21
I0
sg52
S'71'
p607
sba(iArchitecture
Cluster
p608
(dp609
g7
(lp610
(iArchitecture
Entity
p611
(dp612
g11
(lp613
sg13
S'com.android.server.location.LocationProviderProxy'
p614
sg15
(lp615
sg17
(lp616
sg19
(lp617
sg21
I0
sba(iArchitecture
Entity
p618
(dp619
g11
(lp620
sg13
S'com.android.server.location.LocationProviderProxy$1'
p621
sg15
(lp622
sg17
(lp623
sg19
(lp624
sg21
I0
sbasg50
(lp625
g614
ag621
asg21
I0
sg52
S'710'
p626
sba(iArchitecture
Cluster
p627
(dp628
g7
(lp629
(iArchitecture
Entity
p630
(dp631
g11
(lp632
sg13
S'com.android.server.RecoverySystemService'
p633
sg15
(lp634
sg17
(lp635
sg19
(lp636
sg21
I0
sba(iArchitecture
Entity
p637
(dp638
g11
(lp639
sg13
S'com.android.server.RecoverySystemService$BinderService'
p640
sg15
(lp641
sg17
(lp642
sg19
(lp643
sg21
I0
sbasg50
(lp644
g633
ag640
asg21
I0
sg52
S'711'
p645
sba(iArchitecture
Cluster
p646
(dp647
g7
(lp648
(iArchitecture
Entity
p649
(dp650
g11
(lp651
sg13
S'com.android.ims.ImsConferenceState'
p652
sg15
(lp653
sg17
(lp654
sg19
(lp655
sg21
I0
sba(iArchitecture
Entity
p656
(dp657
g11
(lp658
sg13
S'com.android.ims.ImsConferenceState$1'
p659
sg15
(lp660
sg17
(lp661
sg19
(lp662
sg21
I0
sbasg50
(lp663
g652
ag659
asg21
I0
sg52
S'712'
p664
sba(iArchitecture
Cluster
p665
(dp666
g7
(lp667
(iArchitecture
Entity
p668
(dp669
g11
(lp670
sg13
S'android.telephony.RadioAccessFamily'
p671
sg15
(lp672
sg17
(lp673
sg19
(lp674
sg21
I0
sba(iArchitecture
Entity
p675
(dp676
g11
(lp677
sg13
S'android.telephony.RadioAccessFamily$1'
p678
sg15
(lp679
sg17
(lp680
sg19
(lp681
sg21
I0
sbasg50
(lp682
g671
ag678
asg21
I0
sg52
S'713'
p683
sba(iArchitecture
Cluster
p684
(dp685
g7
(lp686
(iArchitecture
Entity
p687
(dp688
g11
(lp689
sg13
S'android.content.SyncStatusInfo'
p690
sg15
(lp691
sg17
(lp692
sg19
(lp693
sg21
I0
sba(iArchitecture
Entity
p694
(dp695
g11
(lp696
sg13
S'android.content.SyncStatusInfo$1'
p697
sg15
(lp698
sg17
(lp699
sg19
(lp700
sg21
I0
sbasg50
(lp701
g690
ag697
asg21
I0
sg52
S'714'
p702
sba(iArchitecture
Cluster
p703
(dp704
g7
(lp705
(iArchitecture
Entity
p706
(dp707
g11
(lp708
sg13
S'android.net.UidRange'
p709
sg15
(lp710
sg17
(lp711
sg19
(lp712
sg21
I0
sba(iArchitecture
Entity
p713
(dp714
g11
(lp715
sg13
S'android.net.UidRange$1'
p716
sg15
(lp717
sg17
(lp718
sg19
(lp719
sg21
I0
sbasg50
(lp720
g709
ag716
asg21
I0
sg52
S'715'
p721
sba(iArchitecture
Cluster
p722
(dp723
g7
(lp724
(iArchitecture
Entity
p725
(dp726
g11
(lp727
sg13
S'com.android.server.LockGuard'
p728
sg15
(lp729
sg17
(lp730
sg19
(lp731
sg21
I0
sba(iArchitecture
Entity
p732
(dp733
g11
(lp734
sg13
S'com.android.server.LockGuard$LockInfo'
p735
sg15
(lp736
sg17
(lp737
sg19
(lp738
sg21
I0
sbasg50
(lp739
g728
ag735
asg21
I0
sg52
S'716'
p740
sba(iArchitecture
Cluster
p741
(dp742
g7
(lp743
(iArchitecture
Entity
p744
(dp745
g11
(lp746
sg13
S'com.android.internal.os.BatteryStatsHelper'
p747
sg15
(lp748
sg17
(lp749
sg19
(lp750
sg21
I0
sba(iArchitecture
Entity
p751
(dp752
g11
(lp753
sg13
S'com.android.internal.os.BatteryStatsHelper$1'
p754
sg15
(lp755
sg17
(lp756
sg19
(lp757
sg21
I0
sbasg50
(lp758
g747
ag754
asg21
I0
sg52
S'717'
p759
sba(iArchitecture
Cluster
p760
(dp761
g7
(lp762
(iArchitecture
Entity
p763
(dp764
g11
(lp765
sg13
S'android.hardware.camera2.marshal.impl.MarshalQueryableBlackLevelPattern'
p766
sg15
(lp767
sg17
(lp768
sg19
(lp769
sg21
I0
sba(iArchitecture
Entity
p770
(dp771
g11
(lp772
sg13
S'android.hardware.camera2.marshal.impl.MarshalQueryableBlackLevelPattern$MarshalerBlackLevelPattern'
p773
sg15
(lp774
sg17
(lp775
sg19
(lp776
sg21
I0
sbasg50
(lp777
g766
ag773
asg21
I0
sg52
S'718'
p778
sba(iArchitecture
Cluster
p779
(dp780
g7
(lp781
(iArchitecture
Entity
p782
(dp783
g11
(lp784
sg13
S'android.security.keystore.AndroidKeyStoreSpi'
p785
sg15
(lp786
sg17
(lp787
sg19
(lp788
sg21
I0
sba(iArchitecture
Entity
p789
(dp790
g11
(lp791
sg13
S'android.security.keystore.AndroidKeyStoreSpi$KeyStoreX509Certificate'
p792
sg15
(lp793
sg17
(lp794
sg19
(lp795
sg21
I0
sbasg50
(lp796
g785
ag792
asg21
I0
sg52
S'719'
p797
sba(iArchitecture
Cluster
p798
(dp799
g7
(lp800
(iArchitecture
Entity
p801
(dp802
g11
(lp803
sg13
S'android.hardware.camera2.legacy.LegacyFaceDetectMapper'
p804
sg15
(lp805
sg17
(lp806
sg19
(lp807
sg21
I0
sba(iArchitecture
Entity
p808
(dp809
g11
(lp810
sg13
S'android.hardware.camera2.legacy.LegacyFaceDetectMapper$1'
p811
sg15
(lp812
sg17
(lp813
sg19
(lp814
sg21
I0
sbasg50
(lp815
g804
ag811
asg21
I0
sg52
S'771'
p816
sba(iArchitecture
Cluster
p817
(dp818
g7
(lp819
(iArchitecture
Entity
p820
(dp821
g11
(lp822
sg13
S'android.app.Application'
p823
sg15
(lp824
sg17
(lp825
sg19
(lp826
sg21
I0
sba(iArchitecture
Entity
p827
(dp828
g11
(lp829
sg13
S'android.app.Application$ActivityLifecycleCallbacks'
p830
sg15
(lp831
sg17
(lp832
sg19
(lp833
sg21
I0
sba(iArchitecture
Entity
p834
(dp835
g11
(lp836
sg13
S'android.app.Application$OnProvideAssistDataListener'
p837
sg15
(lp838
sg17
(lp839
sg19
(lp840
sg21
I0
sbasg50
(lp841
g823
ag830
ag837
asg21
I0
sg52
S'871'
p842
sba(iArchitecture
Cluster
p843
(dp844
g7
(lp845
(iArchitecture
Entity
p846
(dp847
g11
(lp848
sg13
S'android.app.ActivityTransitionState'
p849
sg15
(lp850
sg17
(lp851
sg19
(lp852
sg21
I0
sba(iArchitecture
Entity
p853
(dp854
g11
(lp855
sg13
S'android.app.ActivityTransitionState$1'
p856
sg15
(lp857
sg17
(lp858
sg19
(lp859
sg21
I0
sba(iArchitecture
Entity
p860
(dp861
g11
(lp862
sg13
S'android.app.ActivityTransitionState$2'
p863
sg15
(lp864
sg17
(lp865
sg19
(lp866
sg21
I0
sbasg50
(lp867
g849
ag856
ag863
asg21
I0
sg52
S'971'
p868
sbasS'target_sub'
p869
S'71'
p870
sg50
(lp871
sS'is_component_arch'
p872
I01
sg52
S'7.0.0_r1'
p873
sba.