(lp0
(iArchitecture
Architecture
p1
(dp2
S'clusters'
p3
(lp4
(iArchitecture
Cluster
p5
(dp6
S'entities'
p7
(lp8
(iArchitecture
Entity
p9
(dp10
S'issue_ids'
p11
(lp12
sS'name'
p13
S'android.widget.PopupMenu'
p14
sS'descs'
p15
(lp16
sS'labels'
p17
(lp18
sS'titles'
p19
(lp20
sS'change'
p21
I0
sba(iArchitecture
Entity
p22
(dp23
g11
(lp24
sg13
S'android.widget.PopupMenu$1'
p25
sg15
(lp26
sg17
(lp27
sg19
(lp28
sg21
I0
sba(iArchitecture
Entity
p29
(dp30
g11
(lp31
sg13
S'android.widget.PopupMenu$2'
p32
sg15
(lp33
sg17
(lp34
sg19
(lp35
sg21
I0
sba(iArchitecture
Entity
p36
(dp37
g11
(lp38
sg13
S'android.widget.PopupMenu$3'
p39
sg15
(lp40
sg17
(lp41
sg19
(lp42
sg21
I0
sba(iArchitecture
Entity
p43
(dp44
g11
(lp45
sg13
S'android.widget.PopupMenu$OnDismissListener'
p46
sg15
(lp47
sg17
(lp48
sg19
(lp49
sg21
I0
sba(iArchitecture
Entity
p50
(dp51
g11
(lp52
sg13
S'android.widget.PopupMenu$OnMenuItemClickListener'
p53
sg15
(lp54
sg17
(lp55
sg19
(lp56
sg21
I0
sbasS'classes'
p57
(lp58
g14
ag25
ag32
ag39
ag46
ag53
asg21
I0
sS'label'
p59
S'1053'
p60
sba(iArchitecture
Cluster
p61
(dp62
g7
(lp63
(iArchitecture
Entity
p64
(dp65
g11
(lp66
sg13
S'android.media.SubtitleController'
p67
sg15
(lp68
sg17
(lp69
sg19
(lp70
sg21
I0
sba(iArchitecture
Entity
p71
(dp72
g11
(lp73
sg13
S'android.media.SubtitleController$1'
p74
sg15
(lp75
sg17
(lp76
sg19
(lp77
sg21
I0
sba(iArchitecture
Entity
p78
(dp79
g11
(lp80
sg13
S'android.media.SubtitleController$2'
p81
sg15
(lp82
sg17
(lp83
sg19
(lp84
sg21
I0
sba(iArchitecture
Entity
p85
(dp86
g11
(lp87
sg13
S'android.media.SubtitleController$Anchor'
p88
sg15
(lp89
sg17
(lp90
sg19
(lp91
sg21
I0
sba(iArchitecture
Entity
p92
(dp93
g11
(lp94
sg13
S'android.media.SubtitleController$Listener'
p95
sg15
(lp96
sg17
(lp97
sg19
(lp98
sg21
I0
sba(iArchitecture
Entity
p99
(dp100
g11
(lp101
sg13
S'android.media.SubtitleController$Renderer'
p102
sg15
(lp103
sg17
(lp104
sg19
(lp105
sg21
I0
sbasg57
(lp106
g67
ag74
ag81
ag88
ag95
ag102
asg21
I0
sg59
S'1153'
p107
sba(iArchitecture
Cluster
p108
(dp109
g7
(lp110
(iArchitecture
Entity
p111
(dp112
g11
(lp113
sg13
S'android.telephony.CellSignalStrengthGsm'
p114
sg15
(lp115
sg17
(lp116
sg19
(lp117
sg21
I0
sba(iArchitecture
Entity
p118
(dp119
g11
(lp120
sg13
S'android.telephony.CellSignalStrengthGsm$1'
p121
sg15
(lp122
sg17
(lp123
sg19
(lp124
sg21
I0
sba(iArchitecture
Entity
p125
(dp126
g11
(lp127
sg13
S'android.telephony.CellSignalStrengthWcdma'
p128
sg15
(lp129
sg17
(lp130
sg19
(lp131
sg21
I0
sba(iArchitecture
Entity
p132
(dp133
g11
(lp134
sg13
S'android.telephony.CellSignalStrengthWcdma$1'
p135
sg15
(lp136
sg17
(lp137
sg19
(lp138
sg21
I0
sbasg57
(lp139
g114
ag121
ag128
ag135
asg21
I0
sg59
S'1253'
p140
sba(iArchitecture
Cluster
p141
(dp142
g7
(lp143
(iArchitecture
Entity
p144
(dp145
g11
(lp146
sg13
S'android.app.PendingIntent'
p147
sg15
(lp148
sg17
(lp149
sg19
(lp150
sg21
I0
sba(iArchitecture
Entity
p151
(dp152
g11
(lp153
sg13
S'android.app.PendingIntent$1'
p154
sg15
(lp155
sg17
(lp156
sg19
(lp157
sg21
I0
sba(iArchitecture
Entity
p158
(dp159
g11
(lp160
sg13
S'android.app.PendingIntent$CanceledException'
p161
sg15
(lp162
sg17
(lp163
sg19
(lp164
sg21
I0
sba(iArchitecture
Entity
p165
(dp166
g11
(lp167
sg13
S'android.app.PendingIntent$FinishedDispatcher'
p168
sg15
(lp169
sg17
(lp170
sg19
(lp171
sg21
I0
sba(iArchitecture
Entity
p172
(dp173
g11
(lp174
sg13
S'android.app.PendingIntent$OnFinished'
p175
sg15
(lp176
sg17
(lp177
sg19
(lp178
sg21
I0
sba(iArchitecture
Entity
p179
(dp180
g11
(lp181
sg13
S'android.app.PendingIntent$OnMarshaledListener'
p182
sg15
(lp183
sg17
(lp184
sg19
(lp185
sg21
I0
sba(iArchitecture
Entity
p186
(dp187
g11
(lp188
sg13
S'android.content.IntentSender'
p189
sg15
(lp190
sg17
(lp191
sg19
(lp192
sg21
I0
sba(iArchitecture
Entity
p193
(dp194
g11
(lp195
sg13
S'android.content.IntentSender$1'
p196
sg15
(lp197
sg17
(lp198
sg19
(lp199
sg21
I0
sba(iArchitecture
Entity
p200
(dp201
g11
(lp202
sg13
S'android.content.IntentSender$FinishedDispatcher'
p203
sg15
(lp204
sg17
(lp205
sg19
(lp206
sg21
I0
sba(iArchitecture
Entity
p207
(dp208
g11
(lp209
sg13
S'android.content.IntentSender$OnFinished'
p210
sg15
(lp211
sg17
(lp212
sg19
(lp213
sg21
I0
sba(iArchitecture
Entity
p214
(dp215
g11
(lp216
sg13
S'android.content.IntentSender$SendIntentException'
p217
sg15
(lp218
sg17
(lp219
sg19
(lp220
sg21
I0
sbasg57
(lp221
g147
ag154
ag161
ag168
ag175
ag182
ag189
ag196
ag203
ag210
ag217
asg21
I0
sg59
S'1353'
p222
sba(iArchitecture
Cluster
p223
(dp224
g7
(lp225
(iArchitecture
Entity
p226
(dp227
g11
(lp228
sg13
S'android.opengl.Visibility'
p229
sg15
(lp230
sg17
(lp231
sg19
(lp232
sg21
I0
sbasg57
(lp233
g229
asg21
I0
sg59
S'153'
p234
sba(iArchitecture
Cluster
p235
(dp236
g7
(lp237
(iArchitecture
Entity
p238
(dp239
g11
(lp240
sg13
S'com.android.server.twilight.TwilightState'
p241
sg15
(lp242
sg17
(lp243
sg19
(lp244
sg21
I0
sbasg57
(lp245
g241
asg21
I0
sg59
S'253'
p246
sba(iArchitecture
Cluster
p247
(dp248
g7
(lp249
(iArchitecture
Entity
p250
(dp251
g11
(lp252
sg13
S'com.android.server.am.ConnectionRecord'
p253
sg15
(lp254
sg17
(lp255
sg19
(lp256
sg21
I0
sbasg57
(lp257
g253
asg21
I0
sg59
S'353'
p258
sba(iArchitecture
Cluster
p259
(dp260
g7
(lp261
(iArchitecture
Entity
p262
(dp263
g11
(lp264
sg13
S'android.provider.AlarmClock'
p265
sg15
(lp266
sg17
(lp267
sg19
(lp268
sg21
I0
sbasg57
(lp269
g265
asg21
I0
sg59
S'453'
p270
sba(iArchitecture
Cluster
p271
(dp272
g7
(lp273
(iArchitecture
Entity
p274
(dp275
g11
(lp276
sg13
S'com.android.server.location.FusedLocationHardwareSecure'
p277
sg15
(lp278
sg17
(lp279
sg19
(lp280
sg21
I0
sbasg57
(lp281
g277
asg21
I0
sg59
S'53'
p282
sba(iArchitecture
Cluster
p283
(dp284
g7
(lp285
(iArchitecture
Entity
p286
(dp287
g11
(lp288
sg13
S'com.android.server.location.ActivityRecognitionProxy'
p289
sg15
(lp290
sg17
(lp291
sg19
(lp292
sg21
I0
sba(iArchitecture
Entity
p293
(dp294
g11
(lp295
sg13
S'com.android.server.location.ActivityRecognitionProxy$1'
p296
sg15
(lp297
sg17
(lp298
sg19
(lp299
sg21
I0
sbasg57
(lp300
g289
ag296
asg21
I0
sg59
S'530'
p301
sba(iArchitecture
Cluster
p302
(dp303
g7
(lp304
(iArchitecture
Entity
p305
(dp306
g11
(lp307
sg13
S'com.android.internal.os.KernelUidCpuTimeReader'
p308
sg15
(lp309
sg17
(lp310
sg19
(lp311
sg21
I0
sba(iArchitecture
Entity
p312
(dp313
g11
(lp314
sg13
S'com.android.internal.os.KernelUidCpuTimeReader$Callback'
p315
sg15
(lp316
sg17
(lp317
sg19
(lp318
sg21
I0
sbasg57
(lp319
g308
ag315
asg21
I0
sg59
S'531'
p320
sba(iArchitecture
Cluster
p321
(dp322
g7
(lp323
(iArchitecture
Entity
p324
(dp325
g11
(lp326
sg13
S'com.android.server.net.LockdownVpnTracker'
p327
sg15
(lp328
sg17
(lp329
sg19
(lp330
sg21
I0
sba(iArchitecture
Entity
p331
(dp332
g11
(lp333
sg13
S'com.android.server.net.LockdownVpnTracker$1'
p334
sg15
(lp335
sg17
(lp336
sg19
(lp337
sg21
I0
sbasg57
(lp338
g327
ag334
asg21
I0
sg59
S'532'
p339
sba(iArchitecture
Cluster
p340
(dp341
g7
(lp342
(iArchitecture
Entity
p343
(dp344
g11
(lp345
sg13
S'android.webkit.WebMessagePort'
p346
sg15
(lp347
sg17
(lp348
sg19
(lp349
sg21
I0
sba(iArchitecture
Entity
p350
(dp351
g11
(lp352
sg13
S'android.webkit.WebMessagePort$WebMessageCallback'
p353
sg15
(lp354
sg17
(lp355
sg19
(lp356
sg21
I0
sbasg57
(lp357
g346
ag353
asg21
I0
sg59
S'533'
p358
sba(iArchitecture
Cluster
p359
(dp360
g7
(lp361
(iArchitecture
Entity
p362
(dp363
g11
(lp364
sg13
S'android.hardware.camera2.marshal.impl.MarshalQueryableArray'
p365
sg15
(lp366
sg17
(lp367
sg19
(lp368
sg21
I0
sba(iArchitecture
Entity
p369
(dp370
g11
(lp371
sg13
S'android.hardware.camera2.marshal.impl.MarshalQueryableArray$MarshalerArray'
p372
sg15
(lp373
sg17
(lp374
sg19
(lp375
sg21
I0
sbasg57
(lp376
g365
ag372
asg21
I0
sg59
S'534'
p377
sba(iArchitecture
Cluster
p378
(dp379
g7
(lp380
(iArchitecture
Entity
p381
(dp382
g11
(lp383
sg13
S'com.android.internal.logging.AndroidHandler'
p384
sg15
(lp385
sg17
(lp386
sg19
(lp387
sg21
I0
sba(iArchitecture
Entity
p388
(dp389
g11
(lp390
sg13
S'com.android.internal.logging.AndroidHandler$1'
p391
sg15
(lp392
sg17
(lp393
sg19
(lp394
sg21
I0
sbasg57
(lp395
g384
ag391
asg21
I0
sg59
S'535'
p396
sba(iArchitecture
Cluster
p397
(dp398
g7
(lp399
(iArchitecture
Entity
p400
(dp401
g11
(lp402
sg13
S'com.android.server.net.NetworkStatsCollection'
p403
sg15
(lp404
sg17
(lp405
sg19
(lp406
sg21
I0
sba(iArchitecture
Entity
p407
(dp408
g11
(lp409
sg13
S'com.android.server.net.NetworkStatsCollection$Key'
p410
sg15
(lp411
sg17
(lp412
sg19
(lp413
sg21
I0
sbasg57
(lp414
g403
ag410
asg21
I0
sg59
S'536'
p415
sba(iArchitecture
Cluster
p416
(dp417
g7
(lp418
(iArchitecture
Entity
p419
(dp420
g11
(lp421
sg13
S'android.bluetooth.UidTraffic'
p422
sg15
(lp423
sg17
(lp424
sg19
(lp425
sg21
I0
sba(iArchitecture
Entity
p426
(dp427
g11
(lp428
sg13
S'android.bluetooth.UidTraffic$1'
p429
sg15
(lp430
sg17
(lp431
sg19
(lp432
sg21
I0
sbasg57
(lp433
g422
ag429
asg21
I0
sg59
S'537'
p434
sba(iArchitecture
Cluster
p435
(dp436
g7
(lp437
(iArchitecture
Entity
p438
(dp439
g11
(lp440
sg13
S'android.content.pm.ConfigurationInfo'
p441
sg15
(lp442
sg17
(lp443
sg19
(lp444
sg21
I0
sba(iArchitecture
Entity
p445
(dp446
g11
(lp447
sg13
S'android.content.pm.ConfigurationInfo$1'
p448
sg15
(lp449
sg17
(lp450
sg19
(lp451
sg21
I0
sbasg57
(lp452
g441
ag448
asg21
I0
sg59
S'538'
p453
sba(iArchitecture
Cluster
p454
(dp455
g7
(lp456
(iArchitecture
Entity
p457
(dp458
g11
(lp459
sg13
S'com.android.server.display.ColorFade'
p460
sg15
(lp461
sg17
(lp462
sg19
(lp463
sg21
I0
sba(iArchitecture
Entity
p464
(dp465
g11
(lp466
sg13
S'com.android.server.display.ColorFade$NaturalSurfaceLayout'
p467
sg15
(lp468
sg17
(lp469
sg19
(lp470
sg21
I0
sbasg57
(lp471
g460
ag467
asg21
I0
sg59
S'539'
p472
sba(iArchitecture
Cluster
p473
(dp474
g7
(lp475
(iArchitecture
Entity
p476
(dp477
g11
(lp478
sg13
S'android.telephony.CellInfoLte'
p479
sg15
(lp480
sg17
(lp481
sg19
(lp482
sg21
I0
sba(iArchitecture
Entity
p483
(dp484
g11
(lp485
sg13
S'android.telephony.CellInfoLte$1'
p486
sg15
(lp487
sg17
(lp488
sg19
(lp489
sg21
I0
sbasg57
(lp490
g479
ag486
asg21
I0
sg59
S'553'
p491
sba(iArchitecture
Cluster
p492
(dp493
g7
(lp494
(iArchitecture
Entity
p495
(dp496
g11
(lp497
sg13
S'com.android.ims.internal.uce.uceservice.ImsUceManager'
p498
sg15
(lp499
sg17
(lp500
sg19
(lp501
sg21
I0
sba(iArchitecture
Entity
p502
(dp503
g11
(lp504
sg13
S'com.android.ims.internal.uce.uceservice.ImsUceManager$UceServiceDeathRecipient'
p505
sg15
(lp506
sg17
(lp507
sg19
(lp508
sg21
I0
sbasg57
(lp509
g498
ag505
asg21
I0
sg59
S'653'
p510
sba(iArchitecture
Cluster
p511
(dp512
g7
(lp513
(iArchitecture
Entity
p514
(dp515
g11
(lp516
sg13
S'com.android.server.hdmi.OneTouchRecordAction'
p517
sg15
(lp518
sg17
(lp519
sg19
(lp520
sg21
I0
sba(iArchitecture
Entity
p521
(dp522
g11
(lp523
sg13
S'com.android.server.hdmi.OneTouchRecordAction$1'
p524
sg15
(lp525
sg17
(lp526
sg19
(lp527
sg21
I0
sbasg57
(lp528
g517
ag524
asg21
I0
sg59
S'753'
p529
sba(iArchitecture
Cluster
p530
(dp531
g7
(lp532
(iArchitecture
Entity
p533
(dp534
g11
(lp535
sg13
S'android.hardware.radio.RadioModule'
p536
sg15
(lp537
sg17
(lp538
sg19
(lp539
sg21
I0
sba(iArchitecture
Entity
p540
(dp541
g11
(lp542
sg13
S'android.hardware.radio.RadioModule$NativeEventHandlerDelegate'
p543
sg15
(lp544
sg17
(lp545
sg19
(lp546
sg21
I0
sba(iArchitecture
Entity
p547
(dp548
g11
(lp549
sg13
S'android.hardware.radio.RadioModule$NativeEventHandlerDelegate$1'
p550
sg15
(lp551
sg17
(lp552
sg19
(lp553
sg21
I0
sbasg57
(lp554
g536
ag543
ag550
asg21
I0
sg59
S'853'
p555
sba(iArchitecture
Cluster
p556
(dp557
g7
(lp558
(iArchitecture
Entity
p559
(dp560
g11
(lp561
sg13
S'com.android.internal.util.XmlUtils'
p562
sg15
(lp563
sg17
(lp564
sg19
(lp565
sg21
I0
sba(iArchitecture
Entity
p566
(dp567
g11
(lp568
sg13
S'com.android.internal.util.XmlUtils$ReadMapCallback'
p569
sg15
(lp570
sg17
(lp571
sg19
(lp572
sg21
I0
sba(iArchitecture
Entity
p573
(dp574
g11
(lp575
sg13
S'com.android.internal.util.XmlUtils$WriteMapCallback'
p576
sg15
(lp577
sg17
(lp578
sg19
(lp579
sg21
I0
sbasg57
(lp580
g562
ag569
ag576
asg21
I0
sg59
S'953'
p581
sbasS'target_sub'
p582
S'53'
p583
sg57
(lp584
sS'is_component_arch'
p585
I01
sg59
S'7.0.0_r1'
p586
sba.