(lp0
(iArchitecture
Architecture
p1
(dp2
S'clusters'
p3
(lp4
(iArchitecture
Cluster
p5
(dp6
S'entities'
p7
(lp8
(iArchitecture
Entity
p9
(dp10
S'issue_ids'
p11
(lp12
sS'name'
p13
S'android.drm.DrmStore'
p14
sS'descs'
p15
(lp16
sS'labels'
p17
(lp18
sS'titles'
p19
(lp20
sS'change'
p21
I0
sba(iArchitecture
Entity
p22
(dp23
g11
(lp24
sg13
S'android.drm.DrmStore$Action'
p25
sg15
(lp26
sg17
(lp27
sg19
(lp28
sg21
I0
sba(iArchitecture
Entity
p29
(dp30
g11
(lp31
sg13
S'android.drm.DrmStore$ConstraintsColumns'
p32
sg15
(lp33
sg17
(lp34
sg19
(lp35
sg21
I0
sba(iArchitecture
Entity
p36
(dp37
g11
(lp38
sg13
S'android.drm.DrmStore$DrmObjectType'
p39
sg15
(lp40
sg17
(lp41
sg19
(lp42
sg21
I0
sba(iArchitecture
Entity
p43
(dp44
g11
(lp45
sg13
S'android.drm.DrmStore$Playback'
p46
sg15
(lp47
sg17
(lp48
sg19
(lp49
sg21
I0
sba(iArchitecture
Entity
p50
(dp51
g11
(lp52
sg13
S'android.drm.DrmStore$RightsStatus'
p53
sg15
(lp54
sg17
(lp55
sg19
(lp56
sg21
I0
sbasS'classes'
p57
(lp58
g14
ag25
ag32
ag39
ag46
ag53
asg21
I0
sS'label'
p59
S'1078'
p60
sba(iArchitecture
Cluster
p61
(dp62
g7
(lp63
(iArchitecture
Entity
p64
(dp65
g11
(lp66
sg13
S'com.android.server.policy.keyguard.KeyguardServiceDelegate'
p67
sg15
(lp68
sg17
(lp69
sg19
(lp70
sg21
I0
sba(iArchitecture
Entity
p71
(dp72
g11
(lp73
sg13
S'com.android.server.policy.keyguard.KeyguardServiceDelegate$1'
p74
sg15
(lp75
sg17
(lp76
sg19
(lp77
sg21
I0
sba(iArchitecture
Entity
p78
(dp79
g11
(lp80
sg13
S'com.android.server.policy.keyguard.KeyguardServiceDelegate$2'
p81
sg15
(lp82
sg17
(lp83
sg19
(lp84
sg21
I0
sba(iArchitecture
Entity
p85
(dp86
g11
(lp87
sg13
S'com.android.server.policy.keyguard.KeyguardServiceDelegate$3'
p88
sg15
(lp89
sg17
(lp90
sg19
(lp91
sg21
I0
sba(iArchitecture
Entity
p92
(dp93
g11
(lp94
sg13
S'com.android.server.policy.keyguard.KeyguardServiceDelegate$4'
p95
sg15
(lp96
sg17
(lp97
sg19
(lp98
sg21
I0
sba(iArchitecture
Entity
p99
(dp100
g11
(lp101
sg13
S'com.android.server.policy.keyguard.KeyguardServiceDelegate$DrawnListener'
p102
sg15
(lp103
sg17
(lp104
sg19
(lp105
sg21
I0
sba(iArchitecture
Entity
p106
(dp107
g11
(lp108
sg13
S'com.android.server.policy.keyguard.KeyguardServiceDelegate$KeyguardExitDelegate'
p109
sg15
(lp110
sg17
(lp111
sg19
(lp112
sg21
I0
sba(iArchitecture
Entity
p113
(dp114
g11
(lp115
sg13
S'com.android.server.policy.keyguard.KeyguardServiceDelegate$KeyguardShowDelegate'
p116
sg15
(lp117
sg17
(lp118
sg19
(lp119
sg21
I0
sba(iArchitecture
Entity
p120
(dp121
g11
(lp122
sg13
S'com.android.server.policy.keyguard.KeyguardServiceDelegate$KeyguardState'
p123
sg15
(lp124
sg17
(lp125
sg19
(lp126
sg21
I0
sbasg57
(lp127
g67
ag74
ag81
ag88
ag95
ag102
ag109
ag116
ag123
asg21
I0
sg59
S'1178'
p128
sba(iArchitecture
Cluster
p129
(dp130
g7
(lp131
(iArchitecture
Entity
p132
(dp133
g11
(lp134
sg13
S'android.gesture.Gesture'
p135
sg15
(lp136
sg17
(lp137
sg19
(lp138
sg21
I0
sba(iArchitecture
Entity
p139
(dp140
g11
(lp141
sg13
S'android.gesture.Gesture$1'
p142
sg15
(lp143
sg17
(lp144
sg19
(lp145
sg21
I0
sba(iArchitecture
Entity
p146
(dp147
g11
(lp148
sg13
S'android.gesture.GestureStore'
p149
sg15
(lp150
sg17
(lp151
sg19
(lp152
sg21
I0
sbasg57
(lp153
g135
ag142
ag149
asg21
I0
sg59
S'1278'
p154
sba(iArchitecture
Cluster
p155
(dp156
g7
(lp157
(iArchitecture
Entity
p158
(dp159
g11
(lp160
sg13
S'android.database.sqlite.SQLiteConnection'
p161
sg15
(lp162
sg17
(lp163
sg19
(lp164
sg21
I0
sba(iArchitecture
Entity
p165
(dp166
g11
(lp167
sg13
S'android.database.sqlite.SQLiteConnection$Operation'
p168
sg15
(lp169
sg17
(lp170
sg19
(lp171
sg21
I0
sba(iArchitecture
Entity
p172
(dp173
g11
(lp174
sg13
S'android.database.sqlite.SQLiteConnection$OperationLog'
p175
sg15
(lp176
sg17
(lp177
sg19
(lp178
sg21
I0
sba(iArchitecture
Entity
p179
(dp180
g11
(lp181
sg13
S'android.database.sqlite.SQLiteConnection$PreparedStatement'
p182
sg15
(lp183
sg17
(lp184
sg19
(lp185
sg21
I0
sba(iArchitecture
Entity
p186
(dp187
g11
(lp188
sg13
S'android.database.sqlite.SQLiteConnection$PreparedStatementCache'
p189
sg15
(lp190
sg17
(lp191
sg19
(lp192
sg21
I0
sba(iArchitecture
Entity
p193
(dp194
g11
(lp195
sg13
S'android.database.sqlite.SQLiteSession'
p196
sg15
(lp197
sg17
(lp198
sg19
(lp199
sg21
I0
sba(iArchitecture
Entity
p200
(dp201
g11
(lp202
sg13
S'android.database.sqlite.SQLiteSession$Transaction'
p203
sg15
(lp204
sg17
(lp205
sg19
(lp206
sg21
I0
sbasg57
(lp207
g161
ag168
ag175
ag182
ag189
ag196
ag203
asg21
I0
sg59
S'1378'
p208
sba(iArchitecture
Cluster
p209
(dp210
g7
(lp211
(iArchitecture
Entity
p212
(dp213
g11
(lp214
sg13
S'android.media.MediaTimestamp'
p215
sg15
(lp216
sg17
(lp217
sg19
(lp218
sg21
I0
sbasg57
(lp219
g215
asg21
I0
sg59
S'178'
p220
sba(iArchitecture
Cluster
p221
(dp222
g7
(lp223
(iArchitecture
Entity
p224
(dp225
g11
(lp226
sg13
S'android.text.AutoText'
p227
sg15
(lp228
sg17
(lp229
sg19
(lp230
sg21
I0
sbasg57
(lp231
g227
asg21
I0
sg59
S'278'
p232
sba(iArchitecture
Cluster
p233
(dp234
g7
(lp235
(iArchitecture
Entity
p236
(dp237
g11
(lp238
sg13
S'com.android.server.pm.SharedUserSetting'
p239
sg15
(lp240
sg17
(lp241
sg19
(lp242
sg21
I0
sbasg57
(lp243
g239
asg21
I0
sg59
S'378'
p244
sba(iArchitecture
Cluster
p245
(dp246
g7
(lp247
(iArchitecture
Entity
p248
(dp249
g11
(lp250
sg13
S'android.view.inputmethod.InputConnectionInspector'
p251
sg15
(lp252
sg17
(lp253
sg19
(lp254
sg21
I0
sbasg57
(lp255
g251
asg21
I0
sg59
S'478'
p256
sba(iArchitecture
Cluster
p257
(dp258
g7
(lp259
(iArchitecture
Entity
p260
(dp261
g11
(lp262
sg13
S'com.android.server.usage.AppIdleHistory'
p263
sg15
(lp264
sg17
(lp265
sg19
(lp266
sg21
I0
sba(iArchitecture
Entity
p267
(dp268
g11
(lp269
sg13
S'com.android.server.usage.AppIdleHistory$PackageHistory'
p270
sg15
(lp271
sg17
(lp272
sg19
(lp273
sg21
I0
sbasg57
(lp274
g263
ag270
asg21
I0
sg59
S'578'
p275
sba(iArchitecture
Cluster
p276
(dp277
g7
(lp278
(iArchitecture
Entity
p279
(dp280
g11
(lp281
sg13
S'android.telecom.PhoneAccountHandle'
p282
sg15
(lp283
sg17
(lp284
sg19
(lp285
sg21
I0
sba(iArchitecture
Entity
p286
(dp287
g11
(lp288
sg13
S'android.telecom.PhoneAccountHandle$1'
p289
sg15
(lp290
sg17
(lp291
sg19
(lp292
sg21
I0
sbasg57
(lp293
g282
ag289
asg21
I0
sg59
S'678'
p294
sba(iArchitecture
Cluster
p295
(dp296
g7
(lp297
(iArchitecture
Entity
p298
(dp299
g11
(lp300
sg13
S'android.os.BatteryProperties'
p301
sg15
(lp302
sg17
(lp303
sg19
(lp304
sg21
I0
sba(iArchitecture
Entity
p305
(dp306
g11
(lp307
sg13
S'android.os.BatteryProperties$1'
p308
sg15
(lp309
sg17
(lp310
sg19
(lp311
sg21
I0
sbasg57
(lp312
g301
ag308
asg21
I0
sg59
S'778'
p313
sba(iArchitecture
Cluster
p314
(dp315
g7
(lp316
(iArchitecture
Entity
p317
(dp318
g11
(lp319
sg13
S'android.location.SettingInjectorService'
p320
sg15
(lp321
sg17
(lp322
sg19
(lp323
sg21
I0
sbasg57
(lp324
g320
asg21
I0
sg59
S'78'
p325
sba(iArchitecture
Cluster
p326
(dp327
g7
(lp328
(iArchitecture
Entity
p329
(dp330
g11
(lp331
sg13
S'android.app.IntentService'
p332
sg15
(lp333
sg17
(lp334
sg19
(lp335
sg21
I0
sba(iArchitecture
Entity
p336
(dp337
g11
(lp338
sg13
S'android.app.IntentService$ServiceHandler'
p339
sg15
(lp340
sg17
(lp341
sg19
(lp342
sg21
I0
sbasg57
(lp343
g332
ag339
asg21
I0
sg59
S'780'
p344
sba(iArchitecture
Cluster
p345
(dp346
g7
(lp347
(iArchitecture
Entity
p348
(dp349
g11
(lp350
sg13
S'android.telephony.VoLteServiceState'
p351
sg15
(lp352
sg17
(lp353
sg19
(lp354
sg21
I0
sba(iArchitecture
Entity
p355
(dp356
g11
(lp357
sg13
S'android.telephony.VoLteServiceState$1'
p358
sg15
(lp359
sg17
(lp360
sg19
(lp361
sg21
I0
sbasg57
(lp362
g351
ag358
asg21
I0
sg59
S'781'
p363
sba(iArchitecture
Cluster
p364
(dp365
g7
(lp366
(iArchitecture
Entity
p367
(dp368
g11
(lp369
sg13
S'android.hardware.hdmi.HdmiDeviceInfo'
p370
sg15
(lp371
sg17
(lp372
sg19
(lp373
sg21
I0
sba(iArchitecture
Entity
p374
(dp375
g11
(lp376
sg13
S'android.hardware.hdmi.HdmiDeviceInfo$1'
p377
sg15
(lp378
sg17
(lp379
sg19
(lp380
sg21
I0
sbasg57
(lp381
g370
ag377
asg21
I0
sg59
S'782'
p382
sba(iArchitecture
Cluster
p383
(dp384
g7
(lp385
(iArchitecture
Entity
p386
(dp387
g11
(lp388
sg13
S'com.android.ims.internal.uce.presence.PresServiceInfo'
p389
sg15
(lp390
sg17
(lp391
sg19
(lp392
sg21
I0
sba(iArchitecture
Entity
p393
(dp394
g11
(lp395
sg13
S'com.android.ims.internal.uce.presence.PresServiceInfo$1'
p396
sg15
(lp397
sg17
(lp398
sg19
(lp399
sg21
I0
sbasg57
(lp400
g389
ag396
asg21
I0
sg59
S'783'
p401
sba(iArchitecture
Cluster
p402
(dp403
g7
(lp404
(iArchitecture
Entity
p405
(dp406
g11
(lp407
sg13
S'android.text.format.Time'
p408
sg15
(lp409
sg17
(lp410
sg19
(lp411
sg21
I0
sba(iArchitecture
Entity
p412
(dp413
g11
(lp414
sg13
S'android.text.format.Time$TimeCalculator'
p415
sg15
(lp416
sg17
(lp417
sg19
(lp418
sg21
I0
sbasg57
(lp419
g408
ag415
asg21
I0
sg59
S'784'
p420
sba(iArchitecture
Cluster
p421
(dp422
g7
(lp423
(iArchitecture
Entity
p424
(dp425
g11
(lp426
sg13
S'android.net.NetworkPolicy'
p427
sg15
(lp428
sg17
(lp429
sg19
(lp430
sg21
I0
sba(iArchitecture
Entity
p431
(dp432
g11
(lp433
sg13
S'android.net.NetworkPolicy$1'
p434
sg15
(lp435
sg17
(lp436
sg19
(lp437
sg21
I0
sbasg57
(lp438
g427
ag434
asg21
I0
sg59
S'785'
p439
sba(iArchitecture
Cluster
p440
(dp441
g7
(lp442
(iArchitecture
Entity
p443
(dp444
g11
(lp445
sg13
S'android.media.projection.MediaProjectionInfo'
p446
sg15
(lp447
sg17
(lp448
sg19
(lp449
sg21
I0
sba(iArchitecture
Entity
p450
(dp451
g11
(lp452
sg13
S'android.media.projection.MediaProjectionInfo$1'
p453
sg15
(lp454
sg17
(lp455
sg19
(lp456
sg21
I0
sbasg57
(lp457
g446
ag453
asg21
I0
sg59
S'786'
p458
sba(iArchitecture
Cluster
p459
(dp460
g7
(lp461
(iArchitecture
Entity
p462
(dp463
g11
(lp464
sg13
S'android.bluetooth.BluetoothAudioConfig'
p465
sg15
(lp466
sg17
(lp467
sg19
(lp468
sg21
I0
sba(iArchitecture
Entity
p469
(dp470
g11
(lp471
sg13
S'android.bluetooth.BluetoothAudioConfig$1'
p472
sg15
(lp473
sg17
(lp474
sg19
(lp475
sg21
I0
sbasg57
(lp476
g465
ag472
asg21
I0
sg59
S'787'
p477
sba(iArchitecture
Cluster
p478
(dp479
g7
(lp480
(iArchitecture
Entity
p481
(dp482
g11
(lp483
sg13
S'android.security.net.config.RootTrustManagerFactorySpi'
p484
sg15
(lp485
sg17
(lp486
sg19
(lp487
sg21
I0
sba(iArchitecture
Entity
p488
(dp489
g11
(lp490
sg13
S'android.security.net.config.RootTrustManagerFactorySpi$ApplicationConfigParameters'
p491
sg15
(lp492
sg17
(lp493
sg19
(lp494
sg21
I0
sbasg57
(lp495
g484
ag491
asg21
I0
sg59
S'788'
p496
sba(iArchitecture
Cluster
p497
(dp498
g7
(lp499
(iArchitecture
Entity
p500
(dp501
g11
(lp502
sg13
S'com.android.internal.statusbar.StatusBarIcon'
p503
sg15
(lp504
sg17
(lp505
sg19
(lp506
sg21
I0
sba(iArchitecture
Entity
p507
(dp508
g11
(lp509
sg13
S'com.android.internal.statusbar.StatusBarIcon$1'
p510
sg15
(lp511
sg17
(lp512
sg19
(lp513
sg21
I0
sbasg57
(lp514
g503
ag510
asg21
I0
sg59
S'789'
p515
sba(iArchitecture
Cluster
p516
(dp517
g7
(lp518
(iArchitecture
Entity
p519
(dp520
g11
(lp521
sg13
S'android.widget.Chronometer'
p522
sg15
(lp523
sg17
(lp524
sg19
(lp525
sg21
I0
sba(iArchitecture
Entity
p526
(dp527
g11
(lp528
sg13
S'android.widget.Chronometer$1'
p529
sg15
(lp530
sg17
(lp531
sg19
(lp532
sg21
I0
sba(iArchitecture
Entity
p533
(dp534
g11
(lp535
sg13
S'android.widget.Chronometer$OnChronometerTickListener'
p536
sg15
(lp537
sg17
(lp538
sg19
(lp539
sg21
I0
sbasg57
(lp540
g522
ag529
ag536
asg21
I0
sg59
S'878'
p541
sba(iArchitecture
Cluster
p542
(dp543
g7
(lp544
(iArchitecture
Entity
p545
(dp546
g11
(lp547
sg13
S'android.content.res.AssetFileDescriptor'
p548
sg15
(lp549
sg17
(lp550
sg19
(lp551
sg21
I0
sba(iArchitecture
Entity
p552
(dp553
g11
(lp554
sg13
S'android.content.res.AssetFileDescriptor$1'
p555
sg15
(lp556
sg17
(lp557
sg19
(lp558
sg21
I0
sba(iArchitecture
Entity
p559
(dp560
g11
(lp561
sg13
S'android.content.res.AssetFileDescriptor$AutoCloseInputStream'
p562
sg15
(lp563
sg17
(lp564
sg19
(lp565
sg21
I0
sba(iArchitecture
Entity
p566
(dp567
g11
(lp568
sg13
S'android.content.res.AssetFileDescriptor$AutoCloseOutputStream'
p569
sg15
(lp570
sg17
(lp571
sg19
(lp572
sg21
I0
sbasg57
(lp573
g548
ag555
ag562
ag569
asg21
I0
sg59
S'978'
p574
sbasS'target_sub'
p575
S'78'
p576
sg57
(lp577
sS'is_component_arch'
p578
I01
sg59
S'7.0.0_r1'
p579
sba.