(lp0
(iArchitecture
Architecture
p1
(dp2
S'clusters'
p3
(lp4
(iArchitecture
Cluster
p5
(dp6
S'entities'
p7
(lp8
(iArchitecture
Entity
p9
(dp10
S'issue_ids'
p11
(lp12
sS'name'
p13
S'android.text.method.ReplacementTransformationMethod'
p14
sS'descs'
p15
(lp16
sS'labels'
p17
(lp18
sS'titles'
p19
(lp20
sS'change'
p21
I0
sba(iArchitecture
Entity
p22
(dp23
g11
(lp24
sg13
S'android.text.method.ReplacementTransformationMethod$ReplacementCharSequence'
p25
sg15
(lp26
sg17
(lp27
sg19
(lp28
sg21
I0
sba(iArchitecture
Entity
p29
(dp30
g11
(lp31
sg13
S'android.text.method.ReplacementTransformationMethod$SpannedReplacementCharSequence'
p32
sg15
(lp33
sg17
(lp34
sg19
(lp35
sg21
I0
sbasS'classes'
p36
(lp37
g14
ag25
ag32
asg21
I0
sS'label'
p38
S'1028'
p39
sba(iArchitecture
Cluster
p40
(dp41
g7
(lp42
(iArchitecture
Entity
p43
(dp44
g11
(lp45
sg13
S'android.app.ApplicationErrorReport'
p46
sg15
(lp47
sg17
(lp48
sg19
(lp49
sg21
I0
sba(iArchitecture
Entity
p50
(dp51
g11
(lp52
sg13
S'android.app.ApplicationErrorReport$1'
p53
sg15
(lp54
sg17
(lp55
sg19
(lp56
sg21
I0
sba(iArchitecture
Entity
p57
(dp58
g11
(lp59
sg13
S'android.app.ApplicationErrorReport$AnrInfo'
p60
sg15
(lp61
sg17
(lp62
sg19
(lp63
sg21
I0
sba(iArchitecture
Entity
p64
(dp65
g11
(lp66
sg13
S'android.app.ApplicationErrorReport$BatteryInfo'
p67
sg15
(lp68
sg17
(lp69
sg19
(lp70
sg21
I0
sba(iArchitecture
Entity
p71
(dp72
g11
(lp73
sg13
S'android.app.ApplicationErrorReport$CrashInfo'
p74
sg15
(lp75
sg17
(lp76
sg19
(lp77
sg21
I0
sba(iArchitecture
Entity
p78
(dp79
g11
(lp80
sg13
S'android.app.ApplicationErrorReport$RunningServiceInfo'
p81
sg15
(lp82
sg17
(lp83
sg19
(lp84
sg21
I0
sbasg36
(lp85
g46
ag53
ag60
ag67
ag74
ag81
asg21
I0
sg38
S'1128'
p86
sba(iArchitecture
Cluster
p87
(dp88
g7
(lp89
(iArchitecture
Entity
p90
(dp91
g11
(lp92
sg13
S'android.provider.Contacts'
p93
sg15
(lp94
sg17
(lp95
sg19
(lp96
sg21
I0
sba(iArchitecture
Entity
p97
(dp98
g11
(lp99
sg13
S'android.provider.Contacts$ContactMethods'
p100
sg15
(lp101
sg17
(lp102
sg19
(lp103
sg21
I0
sba(iArchitecture
Entity
p104
(dp105
g11
(lp106
sg13
S'android.provider.Contacts$ContactMethods$ProviderNames'
p107
sg15
(lp108
sg17
(lp109
sg19
(lp110
sg21
I0
sba(iArchitecture
Entity
p111
(dp112
g11
(lp113
sg13
S'android.provider.Contacts$ContactMethodsColumns'
p114
sg15
(lp115
sg17
(lp116
sg19
(lp117
sg21
I0
sba(iArchitecture
Entity
p118
(dp119
g11
(lp120
sg13
S'android.provider.Contacts$Extensions'
p121
sg15
(lp122
sg17
(lp123
sg19
(lp124
sg21
I0
sba(iArchitecture
Entity
p125
(dp126
g11
(lp127
sg13
S'android.provider.Contacts$ExtensionsColumns'
p128
sg15
(lp129
sg17
(lp130
sg19
(lp131
sg21
I0
sba(iArchitecture
Entity
p132
(dp133
g11
(lp134
sg13
S'android.provider.Contacts$GroupMembership'
p135
sg15
(lp136
sg17
(lp137
sg19
(lp138
sg21
I0
sba(iArchitecture
Entity
p139
(dp140
g11
(lp141
sg13
S'android.provider.Contacts$Groups'
p142
sg15
(lp143
sg17
(lp144
sg19
(lp145
sg21
I0
sba(iArchitecture
Entity
p146
(dp147
g11
(lp148
sg13
S'android.provider.Contacts$GroupsColumns'
p149
sg15
(lp150
sg17
(lp151
sg19
(lp152
sg21
I0
sba(iArchitecture
Entity
p153
(dp154
g11
(lp155
sg13
S'android.provider.Contacts$Intents'
p156
sg15
(lp157
sg17
(lp158
sg19
(lp159
sg21
I0
sba(iArchitecture
Entity
p160
(dp161
g11
(lp162
sg13
S'android.provider.Contacts$Intents$Insert'
p163
sg15
(lp164
sg17
(lp165
sg19
(lp166
sg21
I0
sba(iArchitecture
Entity
p167
(dp168
g11
(lp169
sg13
S'android.provider.Contacts$Intents$UI'
p170
sg15
(lp171
sg17
(lp172
sg19
(lp173
sg21
I0
sba(iArchitecture
Entity
p174
(dp175
g11
(lp176
sg13
S'android.provider.Contacts$OrganizationColumns'
p177
sg15
(lp178
sg17
(lp179
sg19
(lp180
sg21
I0
sba(iArchitecture
Entity
p181
(dp182
g11
(lp183
sg13
S'android.provider.Contacts$Organizations'
p184
sg15
(lp185
sg17
(lp186
sg19
(lp187
sg21
I0
sba(iArchitecture
Entity
p188
(dp189
g11
(lp190
sg13
S'android.provider.Contacts$People'
p191
sg15
(lp192
sg17
(lp193
sg19
(lp194
sg21
I0
sba(iArchitecture
Entity
p195
(dp196
g11
(lp197
sg13
S'android.provider.Contacts$People$ContactMethods'
p198
sg15
(lp199
sg17
(lp200
sg19
(lp201
sg21
I0
sba(iArchitecture
Entity
p202
(dp203
g11
(lp204
sg13
S'android.provider.Contacts$People$Extensions'
p205
sg15
(lp206
sg17
(lp207
sg19
(lp208
sg21
I0
sba(iArchitecture
Entity
p209
(dp210
g11
(lp211
sg13
S'android.provider.Contacts$People$Phones'
p212
sg15
(lp213
sg17
(lp214
sg19
(lp215
sg21
I0
sba(iArchitecture
Entity
p216
(dp217
g11
(lp218
sg13
S'android.provider.Contacts$PeopleColumns'
p219
sg15
(lp220
sg17
(lp221
sg19
(lp222
sg21
I0
sba(iArchitecture
Entity
p223
(dp224
g11
(lp225
sg13
S'android.provider.Contacts$Phones'
p226
sg15
(lp227
sg17
(lp228
sg19
(lp229
sg21
I0
sba(iArchitecture
Entity
p230
(dp231
g11
(lp232
sg13
S'android.provider.Contacts$PhonesColumns'
p233
sg15
(lp234
sg17
(lp235
sg19
(lp236
sg21
I0
sba(iArchitecture
Entity
p237
(dp238
g11
(lp239
sg13
S'android.provider.Contacts$Photos'
p240
sg15
(lp241
sg17
(lp242
sg19
(lp243
sg21
I0
sba(iArchitecture
Entity
p244
(dp245
g11
(lp246
sg13
S'android.provider.Contacts$PhotosColumns'
p247
sg15
(lp248
sg17
(lp249
sg19
(lp250
sg21
I0
sba(iArchitecture
Entity
p251
(dp252
g11
(lp253
sg13
S'android.provider.Contacts$Presence'
p254
sg15
(lp255
sg17
(lp256
sg19
(lp257
sg21
I0
sba(iArchitecture
Entity
p258
(dp259
g11
(lp260
sg13
S'android.provider.Contacts$PresenceColumns'
p261
sg15
(lp262
sg17
(lp263
sg19
(lp264
sg21
I0
sba(iArchitecture
Entity
p265
(dp266
g11
(lp267
sg13
S'android.provider.Contacts$Settings'
p268
sg15
(lp269
sg17
(lp270
sg19
(lp271
sg21
I0
sba(iArchitecture
Entity
p272
(dp273
g11
(lp274
sg13
S'android.provider.Contacts$SettingsColumns'
p275
sg15
(lp276
sg17
(lp277
sg19
(lp278
sg21
I0
sbasg36
(lp279
g93
ag100
ag107
ag114
ag121
ag128
ag135
ag142
ag149
ag156
ag163
ag170
ag177
ag184
ag191
ag198
ag205
ag212
ag219
ag226
ag233
ag240
ag247
ag254
ag261
ag268
ag275
asg21
I0
sg38
S'1228'
p280
sba(iArchitecture
Cluster
p281
(dp282
g7
(lp283
(iArchitecture
Entity
p284
(dp285
g11
(lp286
sg13
S'android.opengl.ETC1'
p287
sg15
(lp288
sg17
(lp289
sg19
(lp290
sg21
I0
sbasg36
(lp291
g287
asg21
I0
sg38
S'128'
p292
sba(iArchitecture
Cluster
p293
(dp294
g7
(lp295
(iArchitecture
Entity
p296
(dp297
g11
(lp298
sg13
S'android.widget.AdapterViewAnimator'
p299
sg15
(lp300
sg17
(lp301
sg19
(lp302
sg21
I0
sba(iArchitecture
Entity
p303
(dp304
g11
(lp305
sg13
S'android.widget.AdapterViewAnimator$1'
p306
sg15
(lp307
sg17
(lp308
sg19
(lp309
sg21
I0
sba(iArchitecture
Entity
p310
(dp311
g11
(lp312
sg13
S'android.widget.AdapterViewAnimator$1$1'
p313
sg15
(lp314
sg17
(lp315
sg19
(lp316
sg21
I0
sba(iArchitecture
Entity
p317
(dp318
g11
(lp319
sg13
S'android.widget.AdapterViewAnimator$2'
p320
sg15
(lp321
sg17
(lp322
sg19
(lp323
sg21
I0
sba(iArchitecture
Entity
p324
(dp325
g11
(lp326
sg13
S'android.widget.AdapterViewAnimator$CheckForTap'
p327
sg15
(lp328
sg17
(lp329
sg19
(lp330
sg21
I0
sba(iArchitecture
Entity
p331
(dp332
g11
(lp333
sg13
S'android.widget.AdapterViewAnimator$SavedState'
p334
sg15
(lp335
sg17
(lp336
sg19
(lp337
sg21
I0
sba(iArchitecture
Entity
p338
(dp339
g11
(lp340
sg13
S'android.widget.AdapterViewAnimator$SavedState$1'
p341
sg15
(lp342
sg17
(lp343
sg19
(lp344
sg21
I0
sba(iArchitecture
Entity
p345
(dp346
g11
(lp347
sg13
S'android.widget.AdapterViewAnimator$ViewAndMetaData'
p348
sg15
(lp349
sg17
(lp350
sg19
(lp351
sg21
I0
sba(iArchitecture
Entity
p352
(dp353
g11
(lp354
sg13
S'android.widget.RemoteViewsAdapter'
p355
sg15
(lp356
sg17
(lp357
sg19
(lp358
sg21
I0
sba(iArchitecture
Entity
p359
(dp360
g11
(lp361
sg13
S'android.widget.RemoteViewsAdapter$1'
p362
sg15
(lp363
sg17
(lp364
sg19
(lp365
sg21
I0
sba(iArchitecture
Entity
p366
(dp367
g11
(lp368
sg13
S'android.widget.RemoteViewsAdapter$2'
p369
sg15
(lp370
sg17
(lp371
sg19
(lp372
sg21
I0
sba(iArchitecture
Entity
p373
(dp374
g11
(lp375
sg13
S'android.widget.RemoteViewsAdapter$3'
p376
sg15
(lp377
sg17
(lp378
sg19
(lp379
sg21
I0
sba(iArchitecture
Entity
p380
(dp381
g11
(lp382
sg13
S'android.widget.RemoteViewsAdapter$4'
p383
sg15
(lp384
sg17
(lp385
sg19
(lp386
sg21
I0
sba(iArchitecture
Entity
p387
(dp388
g11
(lp389
sg13
S'android.widget.RemoteViewsAdapter$5'
p390
sg15
(lp391
sg17
(lp392
sg19
(lp393
sg21
I0
sba(iArchitecture
Entity
p394
(dp395
g11
(lp396
sg13
S'android.widget.RemoteViewsAdapter$6'
p397
sg15
(lp398
sg17
(lp399
sg19
(lp400
sg21
I0
sba(iArchitecture
Entity
p401
(dp402
g11
(lp403
sg13
S'android.widget.RemoteViewsAdapter$FixedSizeRemoteViewsCache'
p404
sg15
(lp405
sg17
(lp406
sg19
(lp407
sg21
I0
sba(iArchitecture
Entity
p408
(dp409
g11
(lp410
sg13
S'android.widget.RemoteViewsAdapter$RemoteAdapterConnectionCallback'
p411
sg15
(lp412
sg17
(lp413
sg19
(lp414
sg21
I0
sba(iArchitecture
Entity
p415
(dp416
g11
(lp417
sg13
S'android.widget.RemoteViewsAdapter$RemoteViewsAdapterServiceConnection'
p418
sg15
(lp419
sg17
(lp420
sg19
(lp421
sg21
I0
sba(iArchitecture
Entity
p422
(dp423
g11
(lp424
sg13
S'android.widget.RemoteViewsAdapter$RemoteViewsAdapterServiceConnection$1'
p425
sg15
(lp426
sg17
(lp427
sg19
(lp428
sg21
I0
sba(iArchitecture
Entity
p429
(dp430
g11
(lp431
sg13
S'android.widget.RemoteViewsAdapter$RemoteViewsAdapterServiceConnection$1$1'
p432
sg15
(lp433
sg17
(lp434
sg19
(lp435
sg21
I0
sba(iArchitecture
Entity
p436
(dp437
g11
(lp438
sg13
S'android.widget.RemoteViewsAdapter$RemoteViewsAdapterServiceConnection$2'
p439
sg15
(lp440
sg17
(lp441
sg19
(lp442
sg21
I0
sba(iArchitecture
Entity
p443
(dp444
g11
(lp445
sg13
S'android.widget.RemoteViewsAdapter$RemoteViewsCacheKey'
p446
sg15
(lp447
sg17
(lp448
sg19
(lp449
sg21
I0
sba(iArchitecture
Entity
p450
(dp451
g11
(lp452
sg13
S'android.widget.RemoteViewsAdapter$RemoteViewsFrameLayout'
p453
sg15
(lp454
sg17
(lp455
sg19
(lp456
sg21
I0
sba(iArchitecture
Entity
p457
(dp458
g11
(lp459
sg13
S'android.widget.RemoteViewsAdapter$RemoteViewsFrameLayoutRefSet'
p460
sg15
(lp461
sg17
(lp462
sg19
(lp463
sg21
I0
sba(iArchitecture
Entity
p464
(dp465
g11
(lp466
sg13
S'android.widget.RemoteViewsAdapter$RemoteViewsIndexMetaData'
p467
sg15
(lp468
sg17
(lp469
sg19
(lp470
sg21
I0
sba(iArchitecture
Entity
p471
(dp472
g11
(lp473
sg13
S'android.widget.RemoteViewsAdapter$RemoteViewsMetaData'
p474
sg15
(lp475
sg17
(lp476
sg19
(lp477
sg21
I0
sbasg36
(lp478
g299
ag306
ag313
ag320
ag327
ag334
ag341
ag348
ag355
ag362
ag369
ag376
ag383
ag390
ag397
ag404
ag411
ag418
ag425
ag432
ag439
ag446
ag453
ag460
ag467
ag474
asg21
I0
sg38
S'1280'
p479
sba(iArchitecture
Cluster
p480
(dp481
g7
(lp482
(iArchitecture
Entity
p483
(dp484
g11
(lp485
sg13
S'android.renderscript.ProgramFragment'
p486
sg15
(lp487
sg17
(lp488
sg19
(lp489
sg21
I0
sba(iArchitecture
Entity
p490
(dp491
g11
(lp492
sg13
S'android.renderscript.ProgramFragment$Builder'
p493
sg15
(lp494
sg17
(lp495
sg19
(lp496
sg21
I0
sba(iArchitecture
Entity
p497
(dp498
g11
(lp499
sg13
S'android.renderscript.ProgramFragmentFixedFunction'
p500
sg15
(lp501
sg17
(lp502
sg19
(lp503
sg21
I0
sba(iArchitecture
Entity
p504
(dp505
g11
(lp506
sg13
S'android.renderscript.ProgramFragmentFixedFunction$Builder'
p507
sg15
(lp508
sg17
(lp509
sg19
(lp510
sg21
I0
sba(iArchitecture
Entity
p511
(dp512
g11
(lp513
sg13
S'android.renderscript.ProgramFragmentFixedFunction$Builder$EnvMode'
p514
sg15
(lp515
sg17
(lp516
sg19
(lp517
sg21
I0
sba(iArchitecture
Entity
p518
(dp519
g11
(lp520
sg13
S'android.renderscript.ProgramFragmentFixedFunction$Builder$Format'
p521
sg15
(lp522
sg17
(lp523
sg19
(lp524
sg21
I0
sba(iArchitecture
Entity
p525
(dp526
g11
(lp527
sg13
S'android.renderscript.ProgramFragmentFixedFunction$Builder$Slot'
p528
sg15
(lp529
sg17
(lp530
sg19
(lp531
sg21
I0
sba(iArchitecture
Entity
p532
(dp533
g11
(lp534
sg13
S'android.renderscript.ProgramFragmentFixedFunction$InternalBuilder'
p535
sg15
(lp536
sg17
(lp537
sg19
(lp538
sg21
I0
sba(iArchitecture
Entity
p539
(dp540
g11
(lp541
sg13
S'android.renderscript.ProgramVertex'
p542
sg15
(lp543
sg17
(lp544
sg19
(lp545
sg21
I0
sba(iArchitecture
Entity
p546
(dp547
g11
(lp548
sg13
S'android.renderscript.ProgramVertex$Builder'
p549
sg15
(lp550
sg17
(lp551
sg19
(lp552
sg21
I0
sba(iArchitecture
Entity
p553
(dp554
g11
(lp555
sg13
S'android.renderscript.ProgramVertexFixedFunction'
p556
sg15
(lp557
sg17
(lp558
sg19
(lp559
sg21
I0
sba(iArchitecture
Entity
p560
(dp561
g11
(lp562
sg13
S'android.renderscript.ProgramVertexFixedFunction$Builder'
p563
sg15
(lp564
sg17
(lp565
sg19
(lp566
sg21
I0
sba(iArchitecture
Entity
p567
(dp568
g11
(lp569
sg13
S'android.renderscript.ProgramVertexFixedFunction$Constants'
p570
sg15
(lp571
sg17
(lp572
sg19
(lp573
sg21
I0
sba(iArchitecture
Entity
p574
(dp575
g11
(lp576
sg13
S'android.renderscript.ProgramVertexFixedFunction$InternalBuilder'
p577
sg15
(lp578
sg17
(lp579
sg19
(lp580
sg21
I0
sbasg36
(lp581
g486
ag493
ag500
ag507
ag514
ag521
ag528
ag535
ag542
ag549
ag556
ag563
ag570
ag577
asg21
I0
sg38
S'1281'
p582
sba(iArchitecture
Cluster
p583
(dp584
g7
(lp585
(iArchitecture
Entity
p586
(dp587
g11
(lp588
sg13
S'android.net.http.X509TrustManagerExtensions'
p589
sg15
(lp590
sg17
(lp591
sg19
(lp592
sg21
I0
sba(iArchitecture
Entity
p593
(dp594
g11
(lp595
sg13
S'android.security.net.config.NetworkSecurityTrustManager'
p596
sg15
(lp597
sg17
(lp598
sg19
(lp599
sg21
I0
sba(iArchitecture
Entity
p600
(dp601
g11
(lp602
sg13
S'android.security.net.config.RootTrustManager'
p603
sg15
(lp604
sg17
(lp605
sg19
(lp606
sg21
I0
sbasg36
(lp607
g589
ag596
ag603
asg21
I0
sg38
S'1282'
p608
sba(iArchitecture
Cluster
p609
(dp610
g7
(lp611
(iArchitecture
Entity
p612
(dp613
g11
(lp614
sg13
S'android.graphics.LinearGradient'
p615
sg15
(lp616
sg17
(lp617
sg19
(lp618
sg21
I0
sba(iArchitecture
Entity
p619
(dp620
g11
(lp621
sg13
S'android.graphics.SweepGradient'
p622
sg15
(lp623
sg17
(lp624
sg19
(lp625
sg21
I0
sbasg36
(lp626
g615
ag622
asg21
I0
sg38
S'1283'
p627
sba(iArchitecture
Cluster
p628
(dp629
g7
(lp630
(iArchitecture
Entity
p631
(dp632
g11
(lp633
sg13
S'android.content.res.ColorStateList'
p634
sg15
(lp635
sg17
(lp636
sg19
(lp637
sg21
I0
sba(iArchitecture
Entity
p638
(dp639
g11
(lp640
sg13
S'android.content.res.ColorStateList$1'
p641
sg15
(lp642
sg17
(lp643
sg19
(lp644
sg21
I0
sba(iArchitecture
Entity
p645
(dp646
g11
(lp647
sg13
S'android.content.res.ColorStateList$ColorStateListFactory'
p648
sg15
(lp649
sg17
(lp650
sg19
(lp651
sg21
I0
sba(iArchitecture
Entity
p652
(dp653
g11
(lp654
sg13
S'android.content.res.GradientColor'
p655
sg15
(lp656
sg17
(lp657
sg19
(lp658
sg21
I0
sba(iArchitecture
Entity
p659
(dp660
g11
(lp661
sg13
S'android.content.res.GradientColor$GradientColorFactory'
p662
sg15
(lp663
sg17
(lp664
sg19
(lp665
sg21
I0
sbasg36
(lp666
g634
ag641
ag648
ag655
ag662
asg21
I0
sg38
S'1284'
p667
sba(iArchitecture
Cluster
p668
(dp669
g7
(lp670
(iArchitecture
Entity
p671
(dp672
g11
(lp673
sg13
S'android.text.method.MultiTapKeyListener'
p674
sg15
(lp675
sg17
(lp676
sg19
(lp677
sg21
I0
sba(iArchitecture
Entity
p678
(dp679
g11
(lp680
sg13
S'android.text.method.MultiTapKeyListener$Timeout'
p681
sg15
(lp682
sg17
(lp683
sg19
(lp684
sg21
I0
sba(iArchitecture
Entity
p685
(dp686
g11
(lp687
sg13
S'android.text.method.QwertyKeyListener'
p688
sg15
(lp689
sg17
(lp690
sg19
(lp691
sg21
I0
sba(iArchitecture
Entity
p692
(dp693
g11
(lp694
sg13
S'android.text.method.QwertyKeyListener$Replaced'
p695
sg15
(lp696
sg17
(lp697
sg19
(lp698
sg21
I0
sbasg36
(lp699
g674
ag681
ag688
ag695
asg21
I0
sg38
S'1285'
p700
sba(iArchitecture
Cluster
p701
(dp702
g7
(lp703
(iArchitecture
Entity
p704
(dp705
g11
(lp706
sg13
S'android.widget.TimePicker'
p707
sg15
(lp708
sg17
(lp709
sg19
(lp710
sg21
I0
sba(iArchitecture
Entity
p711
(dp712
g11
(lp713
sg13
S'android.widget.TimePicker$AbstractTimePickerDelegate'
p714
sg15
(lp715
sg17
(lp716
sg19
(lp717
sg21
I0
sba(iArchitecture
Entity
p718
(dp719
g11
(lp720
sg13
S'android.widget.TimePicker$AbstractTimePickerDelegate$SavedState'
p721
sg15
(lp722
sg17
(lp723
sg19
(lp724
sg21
I0
sba(iArchitecture
Entity
p725
(dp726
g11
(lp727
sg13
S'android.widget.TimePicker$AbstractTimePickerDelegate$SavedState$1'
p728
sg15
(lp729
sg17
(lp730
sg19
(lp731
sg21
I0
sba(iArchitecture
Entity
p732
(dp733
g11
(lp734
sg13
S'android.widget.TimePicker$OnTimeChangedListener'
p735
sg15
(lp736
sg17
(lp737
sg19
(lp738
sg21
I0
sba(iArchitecture
Entity
p739
(dp740
g11
(lp741
sg13
S'android.widget.TimePicker$TimePickerDelegate'
p742
sg15
(lp743
sg17
(lp744
sg19
(lp745
sg21
I0
sba(iArchitecture
Entity
p746
(dp747
g11
(lp748
sg13
S'android.widget.TimePickerClockDelegate'
p749
sg15
(lp750
sg17
(lp751
sg19
(lp752
sg21
I0
sba(iArchitecture
Entity
p753
(dp754
g11
(lp755
sg13
S'android.widget.TimePickerClockDelegate$1'
p756
sg15
(lp757
sg17
(lp758
sg19
(lp759
sg21
I0
sba(iArchitecture
Entity
p760
(dp761
g11
(lp762
sg13
S'android.widget.TimePickerClockDelegate$2'
p763
sg15
(lp764
sg17
(lp765
sg19
(lp766
sg21
I0
sba(iArchitecture
Entity
p767
(dp768
g11
(lp769
sg13
S'android.widget.TimePickerClockDelegate$3'
p770
sg15
(lp771
sg17
(lp772
sg19
(lp773
sg21
I0
sba(iArchitecture
Entity
p774
(dp775
g11
(lp776
sg13
S'android.widget.TimePickerClockDelegate$4'
p777
sg15
(lp778
sg17
(lp779
sg19
(lp780
sg21
I0
sba(iArchitecture
Entity
p781
(dp782
g11
(lp783
sg13
S'android.widget.TimePickerClockDelegate$5'
p784
sg15
(lp785
sg17
(lp786
sg19
(lp787
sg21
I0
sba(iArchitecture
Entity
p788
(dp789
g11
(lp790
sg13
S'android.widget.TimePickerClockDelegate$6'
p791
sg15
(lp792
sg17
(lp793
sg19
(lp794
sg21
I0
sba(iArchitecture
Entity
p795
(dp796
g11
(lp797
sg13
S'android.widget.TimePickerClockDelegate$ClickActionDelegate'
p798
sg15
(lp799
sg17
(lp800
sg19
(lp801
sg21
I0
sba(iArchitecture
Entity
p802
(dp803
g11
(lp804
sg13
S'android.widget.TimePickerClockDelegate$NearestTouchDelegate'
p805
sg15
(lp806
sg17
(lp807
sg19
(lp808
sg21
I0
sba(iArchitecture
Entity
p809
(dp810
g11
(lp811
sg13
S'android.widget.TimePickerSpinnerDelegate'
p812
sg15
(lp813
sg17
(lp814
sg19
(lp815
sg21
I0
sba(iArchitecture
Entity
p816
(dp817
g11
(lp818
sg13
S'android.widget.TimePickerSpinnerDelegate$1'
p819
sg15
(lp820
sg17
(lp821
sg19
(lp822
sg21
I0
sba(iArchitecture
Entity
p823
(dp824
g11
(lp825
sg13
S'android.widget.TimePickerSpinnerDelegate$2'
p826
sg15
(lp827
sg17
(lp828
sg19
(lp829
sg21
I0
sba(iArchitecture
Entity
p830
(dp831
g11
(lp832
sg13
S'android.widget.TimePickerSpinnerDelegate$3'
p833
sg15
(lp834
sg17
(lp835
sg19
(lp836
sg21
I0
sba(iArchitecture
Entity
p837
(dp838
g11
(lp839
sg13
S'android.widget.TimePickerSpinnerDelegate$4'
p840
sg15
(lp841
sg17
(lp842
sg19
(lp843
sg21
I0
sbasg36
(lp844
g707
ag714
ag721
ag728
ag735
ag742
ag749
ag756
ag763
ag770
ag777
ag784
ag791
ag798
ag805
ag812
ag819
ag826
ag833
ag840
asg21
I0
sg38
S'1286'
p845
sba(iArchitecture
Cluster
p846
(dp847
g7
(lp848
(iArchitecture
Entity
p849
(dp850
g11
(lp851
sg13
S'android.print.PrinterDiscoverySession'
p852
sg15
(lp853
sg17
(lp854
sg19
(lp855
sg21
I0
sba(iArchitecture
Entity
p856
(dp857
g11
(lp858
sg13
S'android.print.PrinterDiscoverySession$OnPrintersChangeListener'
p859
sg15
(lp860
sg17
(lp861
sg19
(lp862
sg21
I0
sba(iArchitecture
Entity
p863
(dp864
g11
(lp865
sg13
S'android.print.PrinterDiscoverySession$PrinterDiscoveryObserver'
p866
sg15
(lp867
sg17
(lp868
sg19
(lp869
sg21
I0
sba(iArchitecture
Entity
p870
(dp871
g11
(lp872
sg13
S'android.print.PrinterDiscoverySession$SessionHandler'
p873
sg15
(lp874
sg17
(lp875
sg19
(lp876
sg21
I0
sba(iArchitecture
Entity
p877
(dp878
g11
(lp879
sg13
S'android.printservice.PrinterDiscoverySession'
p880
sg15
(lp881
sg17
(lp882
sg19
(lp883
sg21
I0
sbasg36
(lp884
g852
ag859
ag866
ag873
ag880
asg21
I0
sg38
S'1287'
p885
sba(iArchitecture
Cluster
p886
(dp887
g7
(lp888
(iArchitecture
Entity
p889
(dp890
g11
(lp891
sg13
S'android.location.LocationProvider'
p892
sg15
(lp893
sg17
(lp894
sg19
(lp895
sg21
I0
sba(iArchitecture
Entity
p896
(dp897
g11
(lp898
sg13
S'com.android.internal.location.ProviderProperties'
p899
sg15
(lp900
sg17
(lp901
sg19
(lp902
sg21
I0
sba(iArchitecture
Entity
p903
(dp904
g11
(lp905
sg13
S'com.android.internal.location.ProviderProperties$1'
p906
sg15
(lp907
sg17
(lp908
sg19
(lp909
sg21
I0
sbasg36
(lp910
g892
ag899
ag906
asg21
I0
sg38
S'1288'
p911
sba(iArchitecture
Cluster
p912
(dp913
g7
(lp914
(iArchitecture
Entity
p915
(dp916
g11
(lp917
sg13
S'android.hardware.usb.UsbManager'
p918
sg15
(lp919
sg17
(lp920
sg19
(lp921
sg21
I0
sba(iArchitecture
Entity
p922
(dp923
g11
(lp924
sg13
S'com.android.server.usb.UsbDeviceManager'
p925
sg15
(lp926
sg17
(lp927
sg19
(lp928
sg21
I0
sba(iArchitecture
Entity
p929
(dp930
g11
(lp931
sg13
S'com.android.server.usb.UsbDeviceManager$1'
p932
sg15
(lp933
sg17
(lp934
sg19
(lp935
sg21
I0
sba(iArchitecture
Entity
p936
(dp937
g11
(lp938
sg13
S'com.android.server.usb.UsbDeviceManager$2'
p939
sg15
(lp940
sg17
(lp941
sg19
(lp942
sg21
I0
sba(iArchitecture
Entity
p943
(dp944
g11
(lp945
sg13
S'com.android.server.usb.UsbDeviceManager$AdbSettingsObserver'
p946
sg15
(lp947
sg17
(lp948
sg19
(lp949
sg21
I0
sba(iArchitecture
Entity
p950
(dp951
g11
(lp952
sg13
S'com.android.server.usb.UsbDeviceManager$UsbHandler'
p953
sg15
(lp954
sg17
(lp955
sg19
(lp956
sg21
I0
sba(iArchitecture
Entity
p957
(dp958
g11
(lp959
sg13
S'com.android.server.usb.UsbService'
p960
sg15
(lp961
sg17
(lp962
sg19
(lp963
sg21
I0
sba(iArchitecture
Entity
p964
(dp965
g11
(lp966
sg13
S'com.android.server.usb.UsbService$1'
p967
sg15
(lp968
sg17
(lp969
sg19
(lp970
sg21
I0
sba(iArchitecture
Entity
p971
(dp972
g11
(lp973
sg13
S'com.android.server.usb.UsbService$Lifecycle'
p974
sg15
(lp975
sg17
(lp976
sg19
(lp977
sg21
I0
sbasg36
(lp978
g918
ag925
ag932
ag939
ag946
ag953
ag960
ag967
ag974
asg21
I0
sg38
S'1289'
p979
sba(iArchitecture
Cluster
p980
(dp981
g7
(lp982
(iArchitecture
Entity
p983
(dp984
g11
(lp985
sg13
S'android.speech.tts.FileSynthesisCallback'
p986
sg15
(lp987
sg17
(lp988
sg19
(lp989
sg21
I0
sba(iArchitecture
Entity
p990
(dp991
g11
(lp992
sg13
S'android.speech.tts.PlaybackSynthesisCallback'
p993
sg15
(lp994
sg17
(lp995
sg19
(lp996
sg21
I0
sbasg36
(lp997
g986
ag993
asg21
I0
sg38
S'1328'
p998
sba(iArchitecture
Cluster
p999
(dp1000
g7
(lp1001
(iArchitecture
Entity
p1002
(dp1003
g11
(lp1004
sg13
S'com.android.server.media.MediaSessionStack'
p1005
sg15
(lp1006
sg17
(lp1007
sg19
(lp1008
sg21
I0
sbasg36
(lp1009
g1005
asg21
I0
sg38
S'228'
p1010
sba(iArchitecture
Cluster
p1011
(dp1012
g7
(lp1013
(iArchitecture
Entity
p1014
(dp1015
g11
(lp1016
sg13
S'com.android.internal.net.NetworkStatsFactory'
p1017
sg15
(lp1018
sg17
(lp1019
sg19
(lp1020
sg21
I0
sbasg36
(lp1021
g1017
asg21
I0
sg38
S'28'
p1022
sba(iArchitecture
Cluster
p1023
(dp1024
g7
(lp1025
(iArchitecture
Entity
p1026
(dp1027
g11
(lp1028
sg13
S'com.android.server.wm.WindowLayersController'
p1029
sg15
(lp1030
sg17
(lp1031
sg19
(lp1032
sg21
I0
sbasg36
(lp1033
g1029
asg21
I0
sg38
S'280'
p1034
sba(iArchitecture
Cluster
p1035
(dp1036
g7
(lp1037
(iArchitecture
Entity
p1038
(dp1039
g11
(lp1040
sg13
S'android.view.ViewConfiguration'
p1041
sg15
(lp1042
sg17
(lp1043
sg19
(lp1044
sg21
I0
sbasg36
(lp1045
g1041
asg21
I0
sg38
S'281'
p1046
sba(iArchitecture
Cluster
p1047
(dp1048
g7
(lp1049
(iArchitecture
Entity
p1050
(dp1051
g11
(lp1052
sg13
S'android.filterpacks.imageproc.AutoFixFilter'
p1053
sg15
(lp1054
sg17
(lp1055
sg19
(lp1056
sg21
I0
sbasg36
(lp1057
g1053
asg21
I0
sg38
S'282'
p1058
sba(iArchitecture
Cluster
p1059
(dp1060
g7
(lp1061
(iArchitecture
Entity
p1062
(dp1063
g11
(lp1064
sg13
S'android.database.AbstractWindowedCursor'
p1065
sg15
(lp1066
sg17
(lp1067
sg19
(lp1068
sg21
I0
sbasg36
(lp1069
g1065
asg21
I0
sg38
S'283'
p1070
sba(iArchitecture
Cluster
p1071
(dp1072
g7
(lp1073
(iArchitecture
Entity
p1074
(dp1075
g11
(lp1076
sg13
S'com.android.server.wm.WindowToken'
p1077
sg15
(lp1078
sg17
(lp1079
sg19
(lp1080
sg21
I0
sbasg36
(lp1081
g1077
asg21
I0
sg38
S'284'
p1082
sba(iArchitecture
Cluster
p1083
(dp1084
g7
(lp1085
(iArchitecture
Entity
p1086
(dp1087
g11
(lp1088
sg13
S'android.media.effect.Effect'
p1089
sg15
(lp1090
sg17
(lp1091
sg19
(lp1092
sg21
I0
sbasg36
(lp1093
g1089
asg21
I0
sg38
S'285'
p1094
sba(iArchitecture
Cluster
p1095
(dp1096
g7
(lp1097
(iArchitecture
Entity
p1098
(dp1099
g11
(lp1100
sg13
S'android.text.AndroidCharacter'
p1101
sg15
(lp1102
sg17
(lp1103
sg19
(lp1104
sg21
I0
sbasg36
(lp1105
g1101
asg21
I0
sg38
S'286'
p1106
sba(iArchitecture
Cluster
p1107
(dp1108
g7
(lp1109
(iArchitecture
Entity
p1110
(dp1111
g11
(lp1112
sg13
S'android.content.pm.ComponentInfo'
p1113
sg15
(lp1114
sg17
(lp1115
sg19
(lp1116
sg21
I0
sbasg36
(lp1117
g1113
asg21
I0
sg38
S'287'
p1118
sba(iArchitecture
Cluster
p1119
(dp1120
g7
(lp1121
(iArchitecture
Entity
p1122
(dp1123
g11
(lp1124
sg13
S'android.os.health.PidHealthStats'
p1125
sg15
(lp1126
sg17
(lp1127
sg19
(lp1128
sg21
I0
sbasg36
(lp1129
g1125
asg21
I0
sg38
S'288'
p1130
sba(iArchitecture
Cluster
p1131
(dp1132
g7
(lp1133
(iArchitecture
Entity
p1134
(dp1135
g11
(lp1136
sg13
S'android.media.MediaInserter'
p1137
sg15
(lp1138
sg17
(lp1139
sg19
(lp1140
sg21
I0
sbasg36
(lp1141
g1137
asg21
I0
sg38
S'289'
p1142
sba(iArchitecture
Cluster
p1143
(dp1144
g7
(lp1145
(iArchitecture
Entity
p1146
(dp1147
g11
(lp1148
sg13
S'android.bluetooth.le.TruncatedFilter'
p1149
sg15
(lp1150
sg17
(lp1151
sg19
(lp1152
sg21
I0
sbasg36
(lp1153
g1149
asg21
I0
sg38
S'328'
p1154
sba(iArchitecture
Cluster
p1155
(dp1156
g7
(lp1157
(iArchitecture
Entity
p1158
(dp1159
g11
(lp1160
sg13
S'android.view.ContextThemeWrapper'
p1161
sg15
(lp1162
sg17
(lp1163
sg19
(lp1164
sg21
I0
sbasg36
(lp1165
g1161
asg21
I0
sg38
S'428'
p1166
sba(iArchitecture
Cluster
p1167
(dp1168
g7
(lp1169
(iArchitecture
Entity
p1170
(dp1171
g11
(lp1172
sg13
S'com.android.internal.util.NotificationColorUtil'
p1173
sg15
(lp1174
sg17
(lp1175
sg19
(lp1176
sg21
I0
sba(iArchitecture
Entity
p1177
(dp1178
g11
(lp1179
sg13
S'com.android.internal.util.NotificationColorUtil$ColorUtilsFromCompat'
p1180
sg15
(lp1181
sg17
(lp1182
sg19
(lp1183
sg21
I0
sbasg36
(lp1184
g1173
ag1180
asg21
I0
sg38
S'528'
p1185
sba(iArchitecture
Cluster
p1186
(dp1187
g7
(lp1188
(iArchitecture
Entity
p1189
(dp1190
g11
(lp1191
sg13
S'android.net.wifi.p2p.WifiP2pConfig'
p1192
sg15
(lp1193
sg17
(lp1194
sg19
(lp1195
sg21
I0
sba(iArchitecture
Entity
p1196
(dp1197
g11
(lp1198
sg13
S'android.net.wifi.p2p.WifiP2pConfig$1'
p1199
sg15
(lp1200
sg17
(lp1201
sg19
(lp1202
sg21
I0
sbasg36
(lp1203
g1192
ag1199
asg21
I0
sg38
S'628'
p1204
sba(iArchitecture
Cluster
p1205
(dp1206
g7
(lp1207
(iArchitecture
Entity
p1208
(dp1209
g11
(lp1210
sg13
S'android.view.PointerIcon'
p1211
sg15
(lp1212
sg17
(lp1213
sg19
(lp1214
sg21
I0
sba(iArchitecture
Entity
p1215
(dp1216
g11
(lp1217
sg13
S'android.view.PointerIcon$1'
p1218
sg15
(lp1219
sg17
(lp1220
sg19
(lp1221
sg21
I0
sbasg36
(lp1222
g1211
ag1218
asg21
I0
sg38
S'728'
p1223
sba(iArchitecture
Cluster
p1224
(dp1225
g7
(lp1226
(iArchitecture
Entity
p1227
(dp1228
g11
(lp1229
sg13
S'android.net.DhcpInfo'
p1230
sg15
(lp1231
sg17
(lp1232
sg19
(lp1233
sg21
I0
sba(iArchitecture
Entity
p1234
(dp1235
g11
(lp1236
sg13
S'android.net.DhcpInfo$1'
p1237
sg15
(lp1238
sg17
(lp1239
sg19
(lp1240
sg21
I0
sbasg36
(lp1241
g1230
ag1237
asg21
I0
sg38
S'828'
p1242
sba(iArchitecture
Cluster
p1243
(dp1244
g7
(lp1245
(iArchitecture
Entity
p1246
(dp1247
g11
(lp1248
sg13
S'android.service.vr.VrListenerService'
p1249
sg15
(lp1250
sg17
(lp1251
sg19
(lp1252
sg21
I0
sba(iArchitecture
Entity
p1253
(dp1254
g11
(lp1255
sg13
S'android.service.vr.VrListenerService$1'
p1256
sg15
(lp1257
sg17
(lp1258
sg19
(lp1259
sg21
I0
sba(iArchitecture
Entity
p1260
(dp1261
g11
(lp1262
sg13
S'android.service.vr.VrListenerService$VrListenerHandler'
p1263
sg15
(lp1264
sg17
(lp1265
sg19
(lp1266
sg21
I0
sbasg36
(lp1267
g1249
ag1256
ag1263
asg21
I0
sg38
S'928'
p1268
sbasS'target_sub'
p1269
S'28'
p1270
sg36
(lp1271
sS'is_component_arch'
p1272
I01
sg38
S'7.0.0_r1'
p1273
sba.