(lp0
(iArchitecture
Architecture
p1
(dp2
S'clusters'
p3
(lp4
(iArchitecture
Cluster
p5
(dp6
S'entities'
p7
(lp8
(iArchitecture
Entity
p9
(dp10
S'issue_ids'
p11
(lp12
sS'name'
p13
S'android.net.LinkProperties'
p14
sS'descs'
p15
(lp16
sS'labels'
p17
(lp18
sS'titles'
p19
(lp20
sS'change'
p21
I0
sba(iArchitecture
Entity
p22
(dp23
g11
(lp24
sg13
S'android.net.LinkProperties$1'
p25
sg15
(lp26
sg17
(lp27
sg19
(lp28
sg21
I0
sba(iArchitecture
Entity
p29
(dp30
g11
(lp31
sg13
S'android.net.LinkProperties$CompareResult'
p32
sg15
(lp33
sg17
(lp34
sg19
(lp35
sg21
I0
sba(iArchitecture
Entity
p36
(dp37
g11
(lp38
sg13
S'android.net.LinkProperties$ProvisioningChange'
p39
sg15
(lp40
sg17
(lp41
sg19
(lp42
sg21
I0
sbasS'classes'
p43
(lp44
g14
ag25
ag32
ag39
asg21
I0
sS'label'
p45
S'1034'
p46
sba(iArchitecture
Cluster
p47
(dp48
g7
(lp49
(iArchitecture
Entity
p50
(dp51
g11
(lp52
sg13
S'android.print.PrinterCapabilitiesInfo'
p53
sg15
(lp54
sg17
(lp55
sg19
(lp56
sg21
I0
sba(iArchitecture
Entity
p57
(dp58
g11
(lp59
sg13
S'android.print.PrinterCapabilitiesInfo$1'
p60
sg15
(lp61
sg17
(lp62
sg19
(lp63
sg21
I0
sba(iArchitecture
Entity
p64
(dp65
g11
(lp66
sg13
S'android.print.PrinterCapabilitiesInfo$Builder'
p67
sg15
(lp68
sg17
(lp69
sg19
(lp70
sg21
I0
sba(iArchitecture
Entity
p71
(dp72
g11
(lp73
sg13
S'android.print.PrinterCapabilitiesInfo$Builder$_android_print_PrinterCapabilitiesInfo$Builder_setColorModes_int_colorModes_int_defaultColorMode_LambdaImpl0'
p74
sg15
(lp75
sg17
(lp76
sg19
(lp77
sg21
I0
sba(iArchitecture
Entity
p78
(dp79
g11
(lp80
sg13
S'android.print.PrinterCapabilitiesInfo$Builder$_android_print_PrinterCapabilitiesInfo$Builder_setDuplexModes_int_duplexModes_int_defaultDuplexMode_LambdaImpl0'
p81
sg15
(lp82
sg17
(lp83
sg19
(lp84
sg21
I0
sba(iArchitecture
Entity
p85
(dp86
g11
(lp87
sg13
S'android.print.PrinterCapabilitiesInfo$_void__init__android_os_Parcel_parcel_LambdaImpl0'
p88
sg15
(lp89
sg17
(lp90
sg19
(lp91
sg21
I0
sba(iArchitecture
Entity
p92
(dp93
g11
(lp94
sg13
S'android.print.PrinterCapabilitiesInfo$_void__init__android_os_Parcel_parcel_LambdaImpl1'
p95
sg15
(lp96
sg17
(lp97
sg19
(lp98
sg21
I0
sbasg43
(lp99
g53
ag60
ag67
ag74
ag81
ag88
ag95
asg21
I0
sg45
S'1134'
p100
sba(iArchitecture
Cluster
p101
(dp102
g7
(lp103
(iArchitecture
Entity
p104
(dp105
g11
(lp106
sg13
S'android.view.animation.TranslateXAnimation'
p107
sg15
(lp108
sg17
(lp109
sg19
(lp110
sg21
I0
sba(iArchitecture
Entity
p111
(dp112
g11
(lp113
sg13
S'android.view.animation.TranslateYAnimation'
p114
sg15
(lp115
sg17
(lp116
sg19
(lp117
sg21
I0
sbasg43
(lp118
g107
ag114
asg21
I0
sg45
S'1234'
p119
sba(iArchitecture
Cluster
p120
(dp121
g7
(lp122
(iArchitecture
Entity
p123
(dp124
g11
(lp125
sg13
S'android.filterfw.FilterFunctionEnvironment'
p126
sg15
(lp127
sg17
(lp128
sg19
(lp129
sg21
I0
sba(iArchitecture
Entity
p130
(dp131
g11
(lp132
sg13
S'android.filterfw.core.FilterFunction'
p133
sg15
(lp134
sg17
(lp135
sg19
(lp136
sg21
I0
sba(iArchitecture
Entity
p137
(dp138
g11
(lp139
sg13
S'android.filterfw.core.FilterFunction$FrameHolderPort'
p140
sg15
(lp141
sg17
(lp142
sg19
(lp143
sg21
I0
sbasg43
(lp144
g126
ag133
ag140
asg21
I0
sg45
S'1334'
p145
sba(iArchitecture
Cluster
p146
(dp147
g7
(lp148
(iArchitecture
Entity
p149
(dp150
g11
(lp151
sg13
S'android.location.GpsSatellite'
p152
sg15
(lp153
sg17
(lp154
sg19
(lp155
sg21
I0
sbasg43
(lp156
g152
asg21
I0
sg45
S'134'
p157
sba(iArchitecture
Cluster
p158
(dp159
g7
(lp160
(iArchitecture
Entity
p161
(dp162
g11
(lp163
sg13
S'android.net.wifi.p2p.WifiP2pProvDiscEvent'
p164
sg15
(lp165
sg17
(lp166
sg19
(lp167
sg21
I0
sba(iArchitecture
Entity
p168
(dp169
g11
(lp170
sg13
S'android.net.wifi.p2p.nsd.WifiP2pDnsSdServiceResponse'
p171
sg15
(lp172
sg17
(lp173
sg19
(lp174
sg21
I0
sba(iArchitecture
Entity
p175
(dp176
g11
(lp177
sg13
S'android.net.wifi.p2p.nsd.WifiP2pServiceResponse'
p178
sg15
(lp179
sg17
(lp180
sg19
(lp181
sg21
I0
sba(iArchitecture
Entity
p182
(dp183
g11
(lp184
sg13
S'android.net.wifi.p2p.nsd.WifiP2pServiceResponse$1'
p185
sg15
(lp186
sg17
(lp187
sg19
(lp188
sg21
I0
sba(iArchitecture
Entity
p189
(dp190
g11
(lp191
sg13
S'android.net.wifi.p2p.nsd.WifiP2pServiceResponse$Status'
p192
sg15
(lp193
sg17
(lp194
sg19
(lp195
sg21
I0
sba(iArchitecture
Entity
p196
(dp197
g11
(lp198
sg13
S'android.net.wifi.p2p.nsd.WifiP2pUpnpServiceResponse'
p199
sg15
(lp200
sg17
(lp201
sg19
(lp202
sg21
I0
sba(iArchitecture
Entity
p203
(dp204
g11
(lp205
sg13
S'android.os.ParcelUuid'
p206
sg15
(lp207
sg17
(lp208
sg19
(lp209
sg21
I0
sba(iArchitecture
Entity
p210
(dp211
g11
(lp212
sg13
S'android.os.ParcelUuid$1'
p213
sg15
(lp214
sg17
(lp215
sg19
(lp216
sg21
I0
sba(iArchitecture
Entity
p217
(dp218
g11
(lp219
sg13
S'android.webkit.ServiceWorkerController'
p220
sg15
(lp221
sg17
(lp222
sg19
(lp223
sg21
I0
sbasg43
(lp224
g164
ag171
ag178
ag185
ag192
ag199
ag206
ag213
ag220
asg21
I0
sg45
S'1340'
p225
sba(iArchitecture
Cluster
p226
(dp227
g7
(lp228
(iArchitecture
Entity
p229
(dp230
g11
(lp231
sg13
S'android.content.SyncAdapterType'
p232
sg15
(lp233
sg17
(lp234
sg19
(lp235
sg21
I0
sba(iArchitecture
Entity
p236
(dp237
g11
(lp238
sg13
S'android.content.SyncAdapterType$1'
p239
sg15
(lp240
sg17
(lp241
sg19
(lp242
sg21
I0
sba(iArchitecture
Entity
p243
(dp244
g11
(lp245
sg13
S'android.content.SyncAdaptersCache'
p246
sg15
(lp247
sg17
(lp248
sg19
(lp249
sg21
I0
sba(iArchitecture
Entity
p250
(dp251
g11
(lp252
sg13
S'android.content.SyncAdaptersCache$MySerializer'
p253
sg15
(lp254
sg17
(lp255
sg19
(lp256
sg21
I0
sbasg43
(lp257
g232
ag239
ag246
ag253
asg21
I0
sg45
S'1341'
p258
sba(iArchitecture
Cluster
p259
(dp260
g7
(lp261
(iArchitecture
Entity
p262
(dp263
g11
(lp264
sg13
S'android.hardware.camera2.marshal.impl.MarshalQueryableHighSpeedVideoConfiguration'
p265
sg15
(lp266
sg17
(lp267
sg19
(lp268
sg21
I0
sba(iArchitecture
Entity
p269
(dp270
g11
(lp271
sg13
S'android.hardware.camera2.marshal.impl.MarshalQueryableHighSpeedVideoConfiguration$MarshalerHighSpeedVideoConfiguration'
p272
sg15
(lp273
sg17
(lp274
sg19
(lp275
sg21
I0
sba(iArchitecture
Entity
p276
(dp277
g11
(lp278
sg13
S'android.hardware.camera2.params.HighSpeedVideoConfiguration'
p279
sg15
(lp280
sg17
(lp281
sg19
(lp282
sg21
I0
sbasg43
(lp283
g265
ag272
ag279
asg21
I0
sg45
S'1342'
p284
sba(iArchitecture
Cluster
p285
(dp286
g7
(lp287
(iArchitecture
Entity
p288
(dp289
g11
(lp290
sg13
S'com.android.server.audio.FocusRequester'
p291
sg15
(lp292
sg17
(lp293
sg19
(lp294
sg21
I0
sba(iArchitecture
Entity
p295
(dp296
g11
(lp297
sg13
S'com.android.server.audio.MediaFocusControl'
p298
sg15
(lp299
sg17
(lp300
sg19
(lp301
sg21
I0
sba(iArchitecture
Entity
p302
(dp303
g11
(lp304
sg13
S'com.android.server.audio.MediaFocusControl$1'
p305
sg15
(lp306
sg17
(lp307
sg19
(lp308
sg21
I0
sba(iArchitecture
Entity
p309
(dp310
g11
(lp311
sg13
S'com.android.server.audio.MediaFocusControl$AudioFocusDeathHandler'
p312
sg15
(lp313
sg17
(lp314
sg19
(lp315
sg21
I0
sbasg43
(lp316
g291
ag298
ag305
ag312
asg21
I0
sg45
S'1343'
p317
sba(iArchitecture
Cluster
p318
(dp319
g7
(lp320
(iArchitecture
Entity
p321
(dp322
g11
(lp323
sg13
S'android.graphics.Shader'
p324
sg15
(lp325
sg17
(lp326
sg19
(lp327
sg21
I0
sba(iArchitecture
Entity
p328
(dp329
g11
(lp330
sg13
S'android.graphics.Shader$TileMode'
p331
sg15
(lp332
sg17
(lp333
sg19
(lp334
sg21
I0
sba(iArchitecture
Entity
p335
(dp336
g11
(lp337
sg13
S'com.android.internal.util.UserIcons'
p338
sg15
(lp339
sg17
(lp340
sg19
(lp341
sg21
I0
sbasg43
(lp342
g324
ag331
ag338
asg21
I0
sg45
S'1344'
p343
sba(iArchitecture
Cluster
p344
(dp345
g7
(lp346
(iArchitecture
Entity
p347
(dp348
g11
(lp349
sg13
S'android.media.audiopolicy.AudioMix'
p350
sg15
(lp351
sg17
(lp352
sg19
(lp353
sg21
I0
sba(iArchitecture
Entity
p354
(dp355
g11
(lp356
sg13
S'android.media.audiopolicy.AudioMix$Builder'
p357
sg15
(lp358
sg17
(lp359
sg19
(lp360
sg21
I0
sba(iArchitecture
Entity
p361
(dp362
g11
(lp363
sg13
S'android.media.audiopolicy.AudioPolicyConfig'
p364
sg15
(lp365
sg17
(lp366
sg19
(lp367
sg21
I0
sba(iArchitecture
Entity
p368
(dp369
g11
(lp370
sg13
S'android.media.audiopolicy.AudioPolicyConfig$1'
p371
sg15
(lp372
sg17
(lp373
sg19
(lp374
sg21
I0
sbasg43
(lp375
g350
ag357
ag364
ag371
asg21
I0
sg45
S'1345'
p376
sba(iArchitecture
Cluster
p377
(dp378
g7
(lp379
(iArchitecture
Entity
p380
(dp381
g11
(lp382
sg13
S'android.transition.CircularPropagation'
p383
sg15
(lp384
sg17
(lp385
sg19
(lp386
sg21
I0
sba(iArchitecture
Entity
p387
(dp388
g11
(lp389
sg13
S'android.transition.Explode'
p390
sg15
(lp391
sg17
(lp392
sg19
(lp393
sg21
I0
sba(iArchitecture
Entity
p394
(dp395
g11
(lp396
sg13
S'android.transition.SidePropagation'
p397
sg15
(lp398
sg17
(lp399
sg19
(lp400
sg21
I0
sbasg43
(lp401
g383
ag390
ag397
asg21
I0
sg45
S'1346'
p402
sba(iArchitecture
Cluster
p403
(dp404
g7
(lp405
(iArchitecture
Entity
p406
(dp407
g11
(lp408
sg13
S'android.telephony.CellIdentityGsm'
p409
sg15
(lp410
sg17
(lp411
sg19
(lp412
sg21
I0
sba(iArchitecture
Entity
p413
(dp414
g11
(lp415
sg13
S'android.telephony.CellIdentityGsm$1'
p416
sg15
(lp417
sg17
(lp418
sg19
(lp419
sg21
I0
sba(iArchitecture
Entity
p420
(dp421
g11
(lp422
sg13
S'android.telephony.CellIdentityWcdma'
p423
sg15
(lp424
sg17
(lp425
sg19
(lp426
sg21
I0
sba(iArchitecture
Entity
p427
(dp428
g11
(lp429
sg13
S'android.telephony.CellIdentityWcdma$1'
p430
sg15
(lp431
sg17
(lp432
sg19
(lp433
sg21
I0
sbasg43
(lp434
g409
ag416
ag423
ag430
asg21
I0
sg45
S'1347'
p435
sba(iArchitecture
Cluster
p436
(dp437
g7
(lp438
(iArchitecture
Entity
p439
(dp440
g11
(lp441
sg13
S'android.view.animation.Animation'
p442
sg15
(lp443
sg17
(lp444
sg19
(lp445
sg21
I0
sba(iArchitecture
Entity
p446
(dp447
g11
(lp448
sg13
S'android.view.animation.Animation$1'
p449
sg15
(lp450
sg17
(lp451
sg19
(lp452
sg21
I0
sba(iArchitecture
Entity
p453
(dp454
g11
(lp455
sg13
S'android.view.animation.Animation$2'
p456
sg15
(lp457
sg17
(lp458
sg19
(lp459
sg21
I0
sba(iArchitecture
Entity
p460
(dp461
g11
(lp462
sg13
S'android.view.animation.Animation$3'
p463
sg15
(lp464
sg17
(lp465
sg19
(lp466
sg21
I0
sba(iArchitecture
Entity
p467
(dp468
g11
(lp469
sg13
S'android.view.animation.Animation$AnimationListener'
p470
sg15
(lp471
sg17
(lp472
sg19
(lp473
sg21
I0
sba(iArchitecture
Entity
p474
(dp475
g11
(lp476
sg13
S'android.view.animation.Animation$Description'
p477
sg15
(lp478
sg17
(lp479
sg19
(lp480
sg21
I0
sba(iArchitecture
Entity
p481
(dp482
g11
(lp483
sg13
S'android.view.animation.Animation$NoImagePreloadHolder'
p484
sg15
(lp485
sg17
(lp486
sg19
(lp487
sg21
I0
sba(iArchitecture
Entity
p488
(dp489
g11
(lp490
sg13
S'android.view.animation.AnimationSet'
p491
sg15
(lp492
sg17
(lp493
sg19
(lp494
sg21
I0
sbasg43
(lp495
g442
ag449
ag456
ag463
ag470
ag477
ag484
ag491
asg21
I0
sg45
S'1348'
p496
sba(iArchitecture
Cluster
p497
(dp498
g7
(lp499
(iArchitecture
Entity
p500
(dp501
g11
(lp502
sg13
S'com.android.server.job.controllers.DeviceIdleJobsController'
p503
sg15
(lp504
sg17
(lp505
sg19
(lp506
sg21
I0
sba(iArchitecture
Entity
p507
(dp508
g11
(lp509
sg13
S'com.android.server.job.controllers.DeviceIdleJobsController$1'
p510
sg15
(lp511
sg17
(lp512
sg19
(lp513
sg21
I0
sba(iArchitecture
Entity
p514
(dp515
g11
(lp516
sg13
S'com.android.server.job.controllers.DeviceIdleJobsController$2'
p517
sg15
(lp518
sg17
(lp519
sg19
(lp520
sg21
I0
sba(iArchitecture
Entity
p521
(dp522
g11
(lp523
sg13
S'com.android.server.job.controllers.DeviceIdleJobsController$3'
p524
sg15
(lp525
sg17
(lp526
sg19
(lp527
sg21
I0
sba(iArchitecture
Entity
p528
(dp529
g11
(lp530
sg13
S'com.android.server.job.controllers.IdleController'
p531
sg15
(lp532
sg17
(lp533
sg19
(lp534
sg21
I0
sba(iArchitecture
Entity
p535
(dp536
g11
(lp537
sg13
S'com.android.server.job.controllers.IdleController$IdlenessTracker'
p538
sg15
(lp539
sg17
(lp540
sg19
(lp541
sg21
I0
sbasg43
(lp542
g503
ag510
ag517
ag524
ag531
ag538
asg21
I0
sg45
S'1349'
p543
sba(iArchitecture
Cluster
p544
(dp545
g7
(lp546
(iArchitecture
Entity
p547
(dp548
g11
(lp549
sg13
S'com.android.internal.app.UnlaunchableAppActivity'
p550
sg15
(lp551
sg17
(lp552
sg19
(lp553
sg21
I0
sbasg43
(lp554
g550
asg21
I0
sg45
S'234'
p555
sba(iArchitecture
Cluster
p556
(dp557
g7
(lp558
(iArchitecture
Entity
p559
(dp560
g11
(lp561
sg13
S'android.text.method.DigitsKeyListener'
p562
sg15
(lp563
sg17
(lp564
sg19
(lp565
sg21
I0
sbasg43
(lp566
g562
asg21
I0
sg45
S'334'
p567
sba(iArchitecture
Cluster
p568
(dp569
g7
(lp570
(iArchitecture
Entity
p571
(dp572
g11
(lp573
sg13
S'android.media.CameraProfile'
p574
sg15
(lp575
sg17
(lp576
sg19
(lp577
sg21
I0
sbasg43
(lp578
g574
asg21
I0
sg45
S'34'
p579
sba(iArchitecture
Cluster
p580
(dp581
g7
(lp582
(iArchitecture
Entity
p583
(dp584
g11
(lp585
sg13
S'com.android.server.backup.UsageStatsBackupHelper'
p586
sg15
(lp587
sg17
(lp588
sg19
(lp589
sg21
I0
sbasg43
(lp590
g586
asg21
I0
sg45
S'340'
p591
sba(iArchitecture
Cluster
p592
(dp593
g7
(lp594
(iArchitecture
Entity
p595
(dp596
g11
(lp597
sg13
S'com.android.server.notification.GlobalSortKeyComparator'
p598
sg15
(lp599
sg17
(lp600
sg19
(lp601
sg21
I0
sbasg43
(lp602
g598
asg21
I0
sg45
S'341'
p603
sba(iArchitecture
Cluster
p604
(dp605
g7
(lp606
(iArchitecture
Entity
p607
(dp608
g11
(lp609
sg13
S'com.android.internal.widget.SubtitleView'
p610
sg15
(lp611
sg17
(lp612
sg19
(lp613
sg21
I0
sbasg43
(lp614
g610
asg21
I0
sg45
S'342'
p615
sba(iArchitecture
Cluster
p616
(dp617
g7
(lp618
(iArchitecture
Entity
p619
(dp620
g11
(lp621
sg13
S'android.filterfw.MffEnvironment'
p622
sg15
(lp623
sg17
(lp624
sg19
(lp625
sg21
I0
sbasg43
(lp626
g622
asg21
I0
sg45
S'343'
p627
sba(iArchitecture
Cluster
p628
(dp629
g7
(lp630
(iArchitecture
Entity
p631
(dp632
g11
(lp633
sg13
S'android.graphics.LightingColorFilter'
p634
sg15
(lp635
sg17
(lp636
sg19
(lp637
sg21
I0
sbasg43
(lp638
g634
asg21
I0
sg45
S'344'
p639
sba(iArchitecture
Cluster
p640
(dp641
g7
(lp642
(iArchitecture
Entity
p643
(dp644
g11
(lp645
sg13
S'android.view.GhostView'
p646
sg15
(lp647
sg17
(lp648
sg19
(lp649
sg21
I0
sbasg43
(lp650
g646
asg21
I0
sg45
S'345'
p651
sba(iArchitecture
Cluster
p652
(dp653
g7
(lp654
(iArchitecture
Entity
p655
(dp656
g11
(lp657
sg13
S'android.webkit.UrlInterceptRegistry'
p658
sg15
(lp659
sg17
(lp660
sg19
(lp661
sg21
I0
sbasg43
(lp662
g658
asg21
I0
sg45
S'346'
p663
sba(iArchitecture
Cluster
p664
(dp665
g7
(lp666
(iArchitecture
Entity
p667
(dp668
g11
(lp669
sg13
S'com.android.server.usage.UnixCalendar'
p670
sg15
(lp671
sg17
(lp672
sg19
(lp673
sg21
I0
sbasg43
(lp674
g670
asg21
I0
sg45
S'347'
p675
sba(iArchitecture
Cluster
p676
(dp677
g7
(lp678
(iArchitecture
Entity
p679
(dp680
g11
(lp681
sg13
S'android.preference.RingtonePreference'
p682
sg15
(lp683
sg17
(lp684
sg19
(lp685
sg21
I0
sbasg43
(lp686
g682
asg21
I0
sg45
S'348'
p687
sba(iArchitecture
Cluster
p688
(dp689
g7
(lp690
(iArchitecture
Entity
p691
(dp692
g11
(lp693
sg13
S'android.filterfw.format.PrimitiveFormat'
p694
sg15
(lp695
sg17
(lp696
sg19
(lp697
sg21
I0
sbasg43
(lp698
g694
asg21
I0
sg45
S'349'
p699
sba(iArchitecture
Cluster
p700
(dp701
g7
(lp702
(iArchitecture
Entity
p703
(dp704
g11
(lp705
sg13
S'com.android.server.pm.ProcessLoggingHandler'
p706
sg15
(lp707
sg17
(lp708
sg19
(lp709
sg21
I0
sbasg43
(lp710
g706
asg21
I0
sg45
S'434'
p711
sba(iArchitecture
Cluster
p712
(dp713
g7
(lp714
(iArchitecture
Entity
p715
(dp716
g11
(lp717
sg13
S'android.hardware.camera2.marshal.impl.MarshalQueryableArray'
p718
sg15
(lp719
sg17
(lp720
sg19
(lp721
sg21
I0
sba(iArchitecture
Entity
p722
(dp723
g11
(lp724
sg13
S'android.hardware.camera2.marshal.impl.MarshalQueryableArray$MarshalerArray'
p725
sg15
(lp726
sg17
(lp727
sg19
(lp728
sg21
I0
sbasg43
(lp729
g718
ag725
asg21
I0
sg45
S'534'
p730
sba(iArchitecture
Cluster
p731
(dp732
g7
(lp733
(iArchitecture
Entity
p734
(dp735
g11
(lp736
sg13
S'android.media.AudioRecordingConfiguration'
p737
sg15
(lp738
sg17
(lp739
sg19
(lp740
sg21
I0
sba(iArchitecture
Entity
p741
(dp742
g11
(lp743
sg13
S'android.media.AudioRecordingConfiguration$1'
p744
sg15
(lp745
sg17
(lp746
sg19
(lp747
sg21
I0
sbasg43
(lp748
g737
ag744
asg21
I0
sg45
S'634'
p749
sba(iArchitecture
Cluster
p750
(dp751
g7
(lp752
(iArchitecture
Entity
p753
(dp754
g11
(lp755
sg13
S'android.bluetooth.BluetoothHealthAppConfiguration'
p756
sg15
(lp757
sg17
(lp758
sg19
(lp759
sg21
I0
sba(iArchitecture
Entity
p760
(dp761
g11
(lp762
sg13
S'android.bluetooth.BluetoothHealthAppConfiguration$1'
p763
sg15
(lp764
sg17
(lp765
sg19
(lp766
sg21
I0
sbasg43
(lp767
g756
ag763
asg21
I0
sg45
S'734'
p768
sba(iArchitecture
Cluster
p769
(dp770
g7
(lp771
(iArchitecture
Entity
p772
(dp773
g11
(lp774
sg13
S'android.hardware.location.NanoAppFilter'
p775
sg15
(lp776
sg17
(lp777
sg19
(lp778
sg21
I0
sba(iArchitecture
Entity
p779
(dp780
g11
(lp781
sg13
S'android.hardware.location.NanoAppFilter$1'
p782
sg15
(lp783
sg17
(lp784
sg19
(lp785
sg21
I0
sbasg43
(lp786
g775
ag782
asg21
I0
sg45
S'834'
p787
sba(iArchitecture
Cluster
p788
(dp789
g7
(lp790
(iArchitecture
Entity
p791
(dp792
g11
(lp793
sg13
S'com.android.server.wm.WindowSurfaceController'
p794
sg15
(lp795
sg17
(lp796
sg19
(lp797
sg21
I0
sba(iArchitecture
Entity
p798
(dp799
g11
(lp800
sg13
S'com.android.server.wm.WindowSurfaceController$SurfaceControlWithBackground'
p801
sg15
(lp802
sg17
(lp803
sg19
(lp804
sg21
I0
sba(iArchitecture
Entity
p805
(dp806
g11
(lp807
sg13
S'com.android.server.wm.WindowSurfaceController$SurfaceTrace'
p808
sg15
(lp809
sg17
(lp810
sg19
(lp811
sg21
I0
sbasg43
(lp812
g794
ag801
ag808
asg21
I0
sg45
S'934'
p813
sbasS'target_sub'
p814
S'34'
p815
sg43
(lp816
sS'is_component_arch'
p817
I01
sg45
S'7.0.0_r1'
p818
sba.