(lp0
(iArchitecture
Architecture
p1
(dp2
S'clusters'
p3
(lp4
(iArchitecture
Cluster
p5
(dp6
S'entities'
p7
(lp8
(iArchitecture
Entity
p9
(dp10
S'issue_ids'
p11
(lp12
sS'name'
p13
S'android.util.Log'
p14
sS'descs'
p15
(lp16
sS'labels'
p17
(lp18
sS'titles'
p19
(lp20
sS'change'
p21
I0
sba(iArchitecture
Entity
p22
(dp23
g11
(lp24
sg13
S'android.util.Log$1'
p25
sg15
(lp26
sg17
(lp27
sg19
(lp28
sg21
I0
sba(iArchitecture
Entity
p29
(dp30
g11
(lp31
sg13
S'android.util.Log$ImmediateLogWriter'
p32
sg15
(lp33
sg17
(lp34
sg19
(lp35
sg21
I0
sba(iArchitecture
Entity
p36
(dp37
g11
(lp38
sg13
S'android.util.Log$NoPreloadHolder'
p39
sg15
(lp40
sg17
(lp41
sg19
(lp42
sg21
I0
sba(iArchitecture
Entity
p43
(dp44
g11
(lp45
sg13
S'android.util.Log$TerribleFailure'
p46
sg15
(lp47
sg17
(lp48
sg19
(lp49
sg21
I0
sba(iArchitecture
Entity
p50
(dp51
g11
(lp52
sg13
S'android.util.Log$TerribleFailureHandler'
p53
sg15
(lp54
sg17
(lp55
sg19
(lp56
sg21
I0
sbasS'classes'
p57
(lp58
g14
ag25
ag32
ag39
ag46
ag53
asg21
I0
sS'label'
p59
S'1050'
p60
sba(iArchitecture
Cluster
p61
(dp62
g7
(lp63
(iArchitecture
Entity
p64
(dp65
g11
(lp66
sg13
S'android.media.audiopolicy.AudioPolicy'
p67
sg15
(lp68
sg17
(lp69
sg19
(lp70
sg21
I0
sba(iArchitecture
Entity
p71
(dp72
g11
(lp73
sg13
S'android.media.audiopolicy.AudioPolicy$1'
p74
sg15
(lp75
sg17
(lp76
sg19
(lp77
sg21
I0
sba(iArchitecture
Entity
p78
(dp79
g11
(lp80
sg13
S'android.media.audiopolicy.AudioPolicy$AudioPolicyFocusListener'
p81
sg15
(lp82
sg17
(lp83
sg19
(lp84
sg21
I0
sba(iArchitecture
Entity
p85
(dp86
g11
(lp87
sg13
S'android.media.audiopolicy.AudioPolicy$AudioPolicyStatusListener'
p88
sg15
(lp89
sg17
(lp90
sg19
(lp91
sg21
I0
sba(iArchitecture
Entity
p92
(dp93
g11
(lp94
sg13
S'android.media.audiopolicy.AudioPolicy$Builder'
p95
sg15
(lp96
sg17
(lp97
sg19
(lp98
sg21
I0
sba(iArchitecture
Entity
p99
(dp100
g11
(lp101
sg13
S'android.media.audiopolicy.AudioPolicy$EventHandler'
p102
sg15
(lp103
sg17
(lp104
sg19
(lp105
sg21
I0
sbasg57
(lp106
g67
ag74
ag81
ag88
ag95
ag102
asg21
I0
sg59
S'1150'
p107
sba(iArchitecture
Cluster
p108
(dp109
g7
(lp110
(iArchitecture
Entity
p111
(dp112
g11
(lp113
sg13
S'android.os.BatteryStats'
p114
sg15
(lp115
sg17
(lp116
sg19
(lp117
sg21
I0
sba(iArchitecture
Entity
p118
(dp119
g11
(lp120
sg13
S'android.os.BatteryStats$1'
p121
sg15
(lp122
sg17
(lp123
sg19
(lp124
sg21
I0
sba(iArchitecture
Entity
p125
(dp126
g11
(lp127
sg13
S'android.os.BatteryStats$BitDescription'
p128
sg15
(lp129
sg17
(lp130
sg19
(lp131
sg21
I0
sba(iArchitecture
Entity
p132
(dp133
g11
(lp134
sg13
S'android.os.BatteryStats$ControllerActivityCounter'
p135
sg15
(lp136
sg17
(lp137
sg19
(lp138
sg21
I0
sba(iArchitecture
Entity
p139
(dp140
g11
(lp141
sg13
S'android.os.BatteryStats$Counter'
p142
sg15
(lp143
sg17
(lp144
sg19
(lp145
sg21
I0
sba(iArchitecture
Entity
p146
(dp147
g11
(lp148
sg13
S'android.os.BatteryStats$DailyItem'
p149
sg15
(lp150
sg17
(lp151
sg19
(lp152
sg21
I0
sba(iArchitecture
Entity
p153
(dp154
g11
(lp155
sg13
S'android.os.BatteryStats$HistoryEventTracker'
p156
sg15
(lp157
sg17
(lp158
sg19
(lp159
sg21
I0
sba(iArchitecture
Entity
p160
(dp161
g11
(lp162
sg13
S'android.os.BatteryStats$HistoryItem'
p163
sg15
(lp164
sg17
(lp165
sg19
(lp166
sg21
I0
sba(iArchitecture
Entity
p167
(dp168
g11
(lp169
sg13
S'android.os.BatteryStats$HistoryPrinter'
p170
sg15
(lp171
sg17
(lp172
sg19
(lp173
sg21
I0
sba(iArchitecture
Entity
p174
(dp175
g11
(lp176
sg13
S'android.os.BatteryStats$HistoryStepDetails'
p177
sg15
(lp178
sg17
(lp179
sg19
(lp180
sg21
I0
sba(iArchitecture
Entity
p181
(dp182
g11
(lp183
sg13
S'android.os.BatteryStats$HistoryTag'
p184
sg15
(lp185
sg17
(lp186
sg19
(lp187
sg21
I0
sba(iArchitecture
Entity
p188
(dp189
g11
(lp190
sg13
S'android.os.BatteryStats$LevelStepTracker'
p191
sg15
(lp192
sg17
(lp193
sg19
(lp194
sg21
I0
sba(iArchitecture
Entity
p195
(dp196
g11
(lp197
sg13
S'android.os.BatteryStats$LongCounter'
p198
sg15
(lp199
sg17
(lp200
sg19
(lp201
sg21
I0
sba(iArchitecture
Entity
p202
(dp203
g11
(lp204
sg13
S'android.os.BatteryStats$PackageChange'
p205
sg15
(lp206
sg17
(lp207
sg19
(lp208
sg21
I0
sba(iArchitecture
Entity
p209
(dp210
g11
(lp211
sg13
S'android.os.BatteryStats$Timer'
p212
sg15
(lp213
sg17
(lp214
sg19
(lp215
sg21
I0
sba(iArchitecture
Entity
p216
(dp217
g11
(lp218
sg13
S'android.os.BatteryStats$TimerEntry'
p219
sg15
(lp220
sg17
(lp221
sg19
(lp222
sg21
I0
sba(iArchitecture
Entity
p223
(dp224
g11
(lp225
sg13
S'android.os.BatteryStats$Uid'
p226
sg15
(lp227
sg17
(lp228
sg19
(lp229
sg21
I0
sba(iArchitecture
Entity
p230
(dp231
g11
(lp232
sg13
S'android.os.BatteryStats$Uid$Pid'
p233
sg15
(lp234
sg17
(lp235
sg19
(lp236
sg21
I0
sba(iArchitecture
Entity
p237
(dp238
g11
(lp239
sg13
S'android.os.BatteryStats$Uid$Pkg'
p240
sg15
(lp241
sg17
(lp242
sg19
(lp243
sg21
I0
sba(iArchitecture
Entity
p244
(dp245
g11
(lp246
sg13
S'android.os.BatteryStats$Uid$Pkg$Serv'
p247
sg15
(lp248
sg17
(lp249
sg19
(lp250
sg21
I0
sba(iArchitecture
Entity
p251
(dp252
g11
(lp253
sg13
S'android.os.BatteryStats$Uid$Proc'
p254
sg15
(lp255
sg17
(lp256
sg19
(lp257
sg21
I0
sba(iArchitecture
Entity
p258
(dp259
g11
(lp260
sg13
S'android.os.BatteryStats$Uid$Proc$ExcessivePower'
p261
sg15
(lp262
sg17
(lp263
sg19
(lp264
sg21
I0
sba(iArchitecture
Entity
p265
(dp266
g11
(lp267
sg13
S'android.os.BatteryStats$Uid$Sensor'
p268
sg15
(lp269
sg17
(lp270
sg19
(lp271
sg21
I0
sba(iArchitecture
Entity
p272
(dp273
g11
(lp274
sg13
S'android.os.BatteryStats$Uid$Wakelock'
p275
sg15
(lp276
sg17
(lp277
sg19
(lp278
sg21
I0
sba(iArchitecture
Entity
p279
(dp280
g11
(lp281
sg13
S'com.android.internal.os.BatteryStatsImpl'
p282
sg15
(lp283
sg17
(lp284
sg19
(lp285
sg21
I0
sba(iArchitecture
Entity
p286
(dp287
g11
(lp288
sg13
S'com.android.internal.os.BatteryStatsImpl$1'
p289
sg15
(lp290
sg17
(lp291
sg19
(lp292
sg21
I0
sba(iArchitecture
Entity
p293
(dp294
g11
(lp295
sg13
S'com.android.internal.os.BatteryStatsImpl$2'
p296
sg15
(lp297
sg17
(lp298
sg19
(lp299
sg21
I0
sba(iArchitecture
Entity
p300
(dp301
g11
(lp302
sg13
S'com.android.internal.os.BatteryStatsImpl$3'
p303
sg15
(lp304
sg17
(lp305
sg19
(lp306
sg21
I0
sba(iArchitecture
Entity
p307
(dp308
g11
(lp309
sg13
S'com.android.internal.os.BatteryStatsImpl$4'
p310
sg15
(lp311
sg17
(lp312
sg19
(lp313
sg21
I0
sba(iArchitecture
Entity
p314
(dp315
g11
(lp316
sg13
S'com.android.internal.os.BatteryStatsImpl$5'
p317
sg15
(lp318
sg17
(lp319
sg19
(lp320
sg21
I0
sba(iArchitecture
Entity
p321
(dp322
g11
(lp323
sg13
S'com.android.internal.os.BatteryStatsImpl$BatchTimer'
p324
sg15
(lp325
sg17
(lp326
sg19
(lp327
sg21
I0
sba(iArchitecture
Entity
p328
(dp329
g11
(lp330
sg13
S'com.android.internal.os.BatteryStatsImpl$BatteryCallback'
p331
sg15
(lp332
sg17
(lp333
sg19
(lp334
sg21
I0
sba(iArchitecture
Entity
p335
(dp336
g11
(lp337
sg13
S'com.android.internal.os.BatteryStatsImpl$Clocks'
p338
sg15
(lp339
sg17
(lp340
sg19
(lp341
sg21
I0
sba(iArchitecture
Entity
p342
(dp343
g11
(lp344
sg13
S'com.android.internal.os.BatteryStatsImpl$ControllerActivityCounterImpl'
p345
sg15
(lp346
sg17
(lp347
sg19
(lp348
sg21
I0
sba(iArchitecture
Entity
p349
(dp350
g11
(lp351
sg13
S'com.android.internal.os.BatteryStatsImpl$Counter'
p352
sg15
(lp353
sg17
(lp354
sg19
(lp355
sg21
I0
sba(iArchitecture
Entity
p356
(dp357
g11
(lp358
sg13
S'com.android.internal.os.BatteryStatsImpl$ExternalStatsSync'
p359
sg15
(lp360
sg17
(lp361
sg19
(lp362
sg21
I0
sba(iArchitecture
Entity
p363
(dp364
g11
(lp365
sg13
S'com.android.internal.os.BatteryStatsImpl$LongSamplingCounter'
p366
sg15
(lp367
sg17
(lp368
sg19
(lp369
sg21
I0
sba(iArchitecture
Entity
p370
(dp371
g11
(lp372
sg13
S'com.android.internal.os.BatteryStatsImpl$MyHandler'
p373
sg15
(lp374
sg17
(lp375
sg19
(lp376
sg21
I0
sba(iArchitecture
Entity
p377
(dp378
g11
(lp379
sg13
S'com.android.internal.os.BatteryStatsImpl$OverflowArrayMap'
p380
sg15
(lp381
sg17
(lp382
sg19
(lp383
sg21
I0
sba(iArchitecture
Entity
p384
(dp385
g11
(lp386
sg13
S'com.android.internal.os.BatteryStatsImpl$PlatformIdleStateCallback'
p387
sg15
(lp388
sg17
(lp389
sg19
(lp390
sg21
I0
sba(iArchitecture
Entity
p391
(dp392
g11
(lp393
sg13
S'com.android.internal.os.BatteryStatsImpl$SamplingTimer'
p394
sg15
(lp395
sg17
(lp396
sg19
(lp397
sg21
I0
sba(iArchitecture
Entity
p398
(dp399
g11
(lp400
sg13
S'com.android.internal.os.BatteryStatsImpl$StopwatchTimer'
p401
sg15
(lp402
sg17
(lp403
sg19
(lp404
sg21
I0
sba(iArchitecture
Entity
p405
(dp406
g11
(lp407
sg13
S'com.android.internal.os.BatteryStatsImpl$SystemClocks'
p408
sg15
(lp409
sg17
(lp410
sg19
(lp411
sg21
I0
sba(iArchitecture
Entity
p412
(dp413
g11
(lp414
sg13
S'com.android.internal.os.BatteryStatsImpl$TimeBase'
p415
sg15
(lp416
sg17
(lp417
sg19
(lp418
sg21
I0
sba(iArchitecture
Entity
p419
(dp420
g11
(lp421
sg13
S'com.android.internal.os.BatteryStatsImpl$TimeBaseObs'
p422
sg15
(lp423
sg17
(lp424
sg19
(lp425
sg21
I0
sba(iArchitecture
Entity
p426
(dp427
g11
(lp428
sg13
S'com.android.internal.os.BatteryStatsImpl$Timer'
p429
sg15
(lp430
sg17
(lp431
sg19
(lp432
sg21
I0
sba(iArchitecture
Entity
p433
(dp434
g11
(lp435
sg13
S'com.android.internal.os.BatteryStatsImpl$Uid'
p436
sg15
(lp437
sg17
(lp438
sg19
(lp439
sg21
I0
sba(iArchitecture
Entity
p440
(dp441
g11
(lp442
sg13
S'com.android.internal.os.BatteryStatsImpl$Uid$1'
p443
sg15
(lp444
sg17
(lp445
sg19
(lp446
sg21
I0
sba(iArchitecture
Entity
p447
(dp448
g11
(lp449
sg13
S'com.android.internal.os.BatteryStatsImpl$Uid$2'
p450
sg15
(lp451
sg17
(lp452
sg19
(lp453
sg21
I0
sba(iArchitecture
Entity
p454
(dp455
g11
(lp456
sg13
S'com.android.internal.os.BatteryStatsImpl$Uid$3'
p457
sg15
(lp458
sg17
(lp459
sg19
(lp460
sg21
I0
sba(iArchitecture
Entity
p461
(dp462
g11
(lp463
sg13
S'com.android.internal.os.BatteryStatsImpl$Uid$Pkg'
p464
sg15
(lp465
sg17
(lp466
sg19
(lp467
sg21
I0
sba(iArchitecture
Entity
p468
(dp469
g11
(lp470
sg13
S'com.android.internal.os.BatteryStatsImpl$Uid$Pkg$Serv'
p471
sg15
(lp472
sg17
(lp473
sg19
(lp474
sg21
I0
sba(iArchitecture
Entity
p475
(dp476
g11
(lp477
sg13
S'com.android.internal.os.BatteryStatsImpl$Uid$Proc'
p478
sg15
(lp479
sg17
(lp480
sg19
(lp481
sg21
I0
sba(iArchitecture
Entity
p482
(dp483
g11
(lp484
sg13
S'com.android.internal.os.BatteryStatsImpl$Uid$Sensor'
p485
sg15
(lp486
sg17
(lp487
sg19
(lp488
sg21
I0
sba(iArchitecture
Entity
p489
(dp490
g11
(lp491
sg13
S'com.android.internal.os.BatteryStatsImpl$Uid$Wakelock'
p492
sg15
(lp493
sg17
(lp494
sg19
(lp495
sg21
I0
sbasg57
(lp496
g114
ag121
ag128
ag135
ag142
ag149
ag156
ag163
ag170
ag177
ag184
ag191
ag198
ag205
ag212
ag219
ag226
ag233
ag240
ag247
ag254
ag261
ag268
ag275
ag282
ag289
ag296
ag303
ag310
ag317
ag324
ag331
ag338
ag345
ag352
ag359
ag366
ag373
ag380
ag387
ag394
ag401
ag408
ag415
ag422
ag429
ag436
ag443
ag450
ag457
ag464
ag471
ag478
ag485
ag492
asg21
I0
sg59
S'1250'
p497
sba(iArchitecture
Cluster
p498
(dp499
g7
(lp500
(iArchitecture
Entity
p501
(dp502
g11
(lp503
sg13
S'android.view.textservice.TextServicesManager'
p504
sg15
(lp505
sg17
(lp506
sg19
(lp507
sg21
I0
sba(iArchitecture
Entity
p508
(dp509
g11
(lp510
sg13
S'com.android.server.TextServicesManagerService'
p511
sg15
(lp512
sg17
(lp513
sg19
(lp514
sg21
I0
sba(iArchitecture
Entity
p515
(dp516
g11
(lp517
sg13
S'com.android.server.TextServicesManagerService$InternalDeathRecipient'
p518
sg15
(lp519
sg17
(lp520
sg19
(lp521
sg21
I0
sba(iArchitecture
Entity
p522
(dp523
g11
(lp524
sg13
S'com.android.server.TextServicesManagerService$InternalServiceConnection'
p525
sg15
(lp526
sg17
(lp527
sg19
(lp528
sg21
I0
sba(iArchitecture
Entity
p529
(dp530
g11
(lp531
sg13
S'com.android.server.TextServicesManagerService$Lifecycle'
p532
sg15
(lp533
sg17
(lp534
sg19
(lp535
sg21
I0
sba(iArchitecture
Entity
p536
(dp537
g11
(lp538
sg13
S'com.android.server.TextServicesManagerService$SpellCheckerBindGroup'
p539
sg15
(lp540
sg17
(lp541
sg19
(lp542
sg21
I0
sba(iArchitecture
Entity
p543
(dp544
g11
(lp545
sg13
S'com.android.server.TextServicesManagerService$TextServicesBroadcastReceiver'
p546
sg15
(lp547
sg17
(lp548
sg19
(lp549
sg21
I0
sba(iArchitecture
Entity
p550
(dp551
g11
(lp552
sg13
S'com.android.server.TextServicesManagerService$TextServicesMonitor'
p553
sg15
(lp554
sg17
(lp555
sg19
(lp556
sg21
I0
sba(iArchitecture
Entity
p557
(dp558
g11
(lp559
sg13
S'com.android.server.TextServicesManagerService$TextServicesSettings'
p560
sg15
(lp561
sg17
(lp562
sg19
(lp563
sg21
I0
sbasg57
(lp564
g504
ag511
ag518
ag525
ag532
ag539
ag546
ag553
ag560
asg21
I0
sg59
S'1350'
p565
sba(iArchitecture
Cluster
p566
(dp567
g7
(lp568
(iArchitecture
Entity
p569
(dp570
g11
(lp571
sg13
S'android.hardware.camera2.dispatch.MethodNameInvoker'
p572
sg15
(lp573
sg17
(lp574
sg19
(lp575
sg21
I0
sbasg57
(lp576
g572
asg21
I0
sg59
S'150'
p577
sba(iArchitecture
Cluster
p578
(dp579
g7
(lp580
(iArchitecture
Entity
p581
(dp582
g11
(lp583
sg13
S'android.content.res.TypedArray'
p584
sg15
(lp585
sg17
(lp586
sg19
(lp587
sg21
I0
sbasg57
(lp588
g584
asg21
I0
sg59
S'250'
p589
sba(iArchitecture
Cluster
p590
(dp591
g7
(lp592
(iArchitecture
Entity
p593
(dp594
g11
(lp595
sg13
S'android.graphics.Camera'
p596
sg15
(lp597
sg17
(lp598
sg19
(lp599
sg21
I0
sbasg57
(lp600
g596
asg21
I0
sg59
S'350'
p601
sba(iArchitecture
Cluster
p602
(dp603
g7
(lp604
(iArchitecture
Entity
p605
(dp606
g11
(lp607
sg13
S'android.graphics.PixelFormat'
p608
sg15
(lp609
sg17
(lp610
sg19
(lp611
sg21
I0
sbasg57
(lp612
g608
asg21
I0
sg59
S'450'
p613
sba(iArchitecture
Cluster
p614
(dp615
g7
(lp616
(iArchitecture
Entity
p617
(dp618
g11
(lp619
sg13
S'android.app.AliasActivity'
p620
sg15
(lp621
sg17
(lp622
sg19
(lp623
sg21
I0
sbasg57
(lp624
g620
asg21
I0
sg59
S'50'
p625
sba(iArchitecture
Cluster
p626
(dp627
g7
(lp628
(iArchitecture
Entity
p629
(dp630
g11
(lp631
sg13
S'android.util.MemoryIntArray'
p632
sg15
(lp633
sg17
(lp634
sg19
(lp635
sg21
I0
sba(iArchitecture
Entity
p636
(dp637
g11
(lp638
sg13
S'android.util.MemoryIntArray$1'
p639
sg15
(lp640
sg17
(lp641
sg19
(lp642
sg21
I0
sbasg57
(lp643
g632
ag639
asg21
I0
sg59
S'500'
p644
sba(iArchitecture
Cluster
p645
(dp646
g7
(lp647
(iArchitecture
Entity
p648
(dp649
g11
(lp650
sg13
S'android.graphics.Picture'
p651
sg15
(lp652
sg17
(lp653
sg19
(lp654
sg21
I0
sba(iArchitecture
Entity
p655
(dp656
g11
(lp657
sg13
S'android.graphics.Picture$RecordingCanvas'
p658
sg15
(lp659
sg17
(lp660
sg19
(lp661
sg21
I0
sbasg57
(lp662
g651
ag658
asg21
I0
sg59
S'501'
p663
sba(iArchitecture
Cluster
p664
(dp665
g7
(lp666
(iArchitecture
Entity
p667
(dp668
g11
(lp669
sg13
S'com.android.server.job.JobServiceContext'
p670
sg15
(lp671
sg17
(lp672
sg19
(lp673
sg21
I0
sba(iArchitecture
Entity
p674
(dp675
g11
(lp676
sg13
S'com.android.server.job.JobServiceContext$JobServiceHandler'
p677
sg15
(lp678
sg17
(lp679
sg19
(lp680
sg21
I0
sbasg57
(lp681
g670
ag677
asg21
I0
sg59
S'502'
p682
sba(iArchitecture
Cluster
p683
(dp684
g7
(lp685
(iArchitecture
Entity
p686
(dp687
g11
(lp688
sg13
S'android.telephony.CellInfoGsm'
p689
sg15
(lp690
sg17
(lp691
sg19
(lp692
sg21
I0
sba(iArchitecture
Entity
p693
(dp694
g11
(lp695
sg13
S'android.telephony.CellInfoGsm$1'
p696
sg15
(lp697
sg17
(lp698
sg19
(lp699
sg21
I0
sbasg57
(lp700
g689
ag696
asg21
I0
sg59
S'503'
p701
sba(iArchitecture
Cluster
p702
(dp703
g7
(lp704
(iArchitecture
Entity
p705
(dp706
g11
(lp707
sg13
S'android.sax.RootElement'
p708
sg15
(lp709
sg17
(lp710
sg19
(lp711
sg21
I0
sba(iArchitecture
Entity
p712
(dp713
g11
(lp714
sg13
S'android.sax.RootElement$Handler'
p715
sg15
(lp716
sg17
(lp717
sg19
(lp718
sg21
I0
sbasg57
(lp719
g708
ag715
asg21
I0
sg59
S'504'
p720
sba(iArchitecture
Cluster
p721
(dp722
g7
(lp723
(iArchitecture
Entity
p724
(dp725
g11
(lp726
sg13
S'android.hardware.display.DisplayManager'
p727
sg15
(lp728
sg17
(lp729
sg19
(lp730
sg21
I0
sba(iArchitecture
Entity
p731
(dp732
g11
(lp733
sg13
S'android.hardware.display.DisplayManager$DisplayListener'
p734
sg15
(lp735
sg17
(lp736
sg19
(lp737
sg21
I0
sbasg57
(lp738
g727
ag734
asg21
I0
sg59
S'505'
p739
sba(iArchitecture
Cluster
p740
(dp741
g7
(lp742
(iArchitecture
Entity
p743
(dp744
g11
(lp745
sg13
S'android.hardware.camera2.legacy.RequestHandlerThread'
p746
sg15
(lp747
sg17
(lp748
sg19
(lp749
sg21
I0
sba(iArchitecture
Entity
p750
(dp751
g11
(lp752
sg13
S'android.hardware.camera2.legacy.RequestHandlerThread$1'
p753
sg15
(lp754
sg17
(lp755
sg19
(lp756
sg21
I0
sbasg57
(lp757
g746
ag753
asg21
I0
sg59
S'506'
p758
sba(iArchitecture
Cluster
p759
(dp760
g7
(lp761
(iArchitecture
Entity
p762
(dp763
g11
(lp764
sg13
S'android.net.NetworkMisc'
p765
sg15
(lp766
sg17
(lp767
sg19
(lp768
sg21
I0
sba(iArchitecture
Entity
p769
(dp770
g11
(lp771
sg13
S'android.net.NetworkMisc$1'
p772
sg15
(lp773
sg17
(lp774
sg19
(lp775
sg21
I0
sbasg57
(lp776
g765
ag772
asg21
I0
sg59
S'507'
p777
sba(iArchitecture
Cluster
p778
(dp779
g7
(lp780
(iArchitecture
Entity
p781
(dp782
g11
(lp783
sg13
S'android.net.SntpClient'
p784
sg15
(lp785
sg17
(lp786
sg19
(lp787
sg21
I0
sba(iArchitecture
Entity
p788
(dp789
g11
(lp790
sg13
S'android.net.SntpClient$InvalidServerReplyException'
p791
sg15
(lp792
sg17
(lp793
sg19
(lp794
sg21
I0
sbasg57
(lp795
g784
ag791
asg21
I0
sg59
S'508'
p796
sba(iArchitecture
Cluster
p797
(dp798
g7
(lp799
(iArchitecture
Entity
p800
(dp801
g11
(lp802
sg13
S'android.text.format.Formatter'
p803
sg15
(lp804
sg17
(lp805
sg19
(lp806
sg21
I0
sba(iArchitecture
Entity
p807
(dp808
g11
(lp809
sg13
S'android.text.format.Formatter$BytesResult'
p810
sg15
(lp811
sg17
(lp812
sg19
(lp813
sg21
I0
sbasg57
(lp814
g803
ag810
asg21
I0
sg59
S'509'
p815
sba(iArchitecture
Cluster
p816
(dp817
g7
(lp818
(iArchitecture
Entity
p819
(dp820
g11
(lp821
sg13
S'android.graphics.drawable.RippleDrawable'
p822
sg15
(lp823
sg17
(lp824
sg19
(lp825
sg21
I0
sba(iArchitecture
Entity
p826
(dp827
g11
(lp828
sg13
S'android.graphics.drawable.RippleDrawable$RippleState'
p829
sg15
(lp830
sg17
(lp831
sg19
(lp832
sg21
I0
sbasg57
(lp833
g822
ag829
asg21
I0
sg59
S'550'
p834
sba(iArchitecture
Cluster
p835
(dp836
g7
(lp837
(iArchitecture
Entity
p838
(dp839
g11
(lp840
sg13
S'com.android.server.notification.ZenModeFiltering'
p841
sg15
(lp842
sg17
(lp843
sg19
(lp844
sg21
I0
sba(iArchitecture
Entity
p845
(dp846
g11
(lp847
sg13
S'com.android.server.notification.ZenModeFiltering$RepeatCallers'
p848
sg15
(lp849
sg17
(lp850
sg19
(lp851
sg21
I0
sbasg57
(lp852
g841
ag848
asg21
I0
sg59
S'650'
p853
sba(iArchitecture
Cluster
p854
(dp855
g7
(lp856
(iArchitecture
Entity
p857
(dp858
g11
(lp859
sg13
S'android.view.textservice.TextInfo'
p860
sg15
(lp861
sg17
(lp862
sg19
(lp863
sg21
I0
sba(iArchitecture
Entity
p864
(dp865
g11
(lp866
sg13
S'android.view.textservice.TextInfo$1'
p867
sg15
(lp868
sg17
(lp869
sg19
(lp870
sg21
I0
sbasg57
(lp871
g860
ag867
asg21
I0
sg59
S'750'
p872
sba(iArchitecture
Cluster
p873
(dp874
g7
(lp875
(iArchitecture
Entity
p876
(dp877
g11
(lp878
sg13
S'com.android.server.am.UriPermission'
p879
sg15
(lp880
sg17
(lp881
sg19
(lp882
sg21
I0
sba(iArchitecture
Entity
p883
(dp884
g11
(lp885
sg13
S'com.android.server.am.UriPermission$PersistedTimeComparator'
p886
sg15
(lp887
sg17
(lp888
sg19
(lp889
sg21
I0
sba(iArchitecture
Entity
p890
(dp891
g11
(lp892
sg13
S'com.android.server.am.UriPermission$Snapshot'
p893
sg15
(lp894
sg17
(lp895
sg19
(lp896
sg21
I0
sbasg57
(lp897
g879
ag886
ag893
asg21
I0
sg59
S'850'
p898
sba(iArchitecture
Cluster
p899
(dp900
g7
(lp901
(iArchitecture
Entity
p902
(dp903
g11
(lp904
sg13
S'android.net.UrlQuerySanitizer'
p905
sg15
(lp906
sg17
(lp907
sg19
(lp908
sg21
I0
sba(iArchitecture
Entity
p909
(dp910
g11
(lp911
sg13
S'android.net.UrlQuerySanitizer$IllegalCharacterValueSanitizer'
p912
sg15
(lp913
sg17
(lp914
sg19
(lp915
sg21
I0
sba(iArchitecture
Entity
p916
(dp917
g11
(lp918
sg13
S'android.net.UrlQuerySanitizer$ParameterValuePair'
p919
sg15
(lp920
sg17
(lp921
sg19
(lp922
sg21
I0
sba(iArchitecture
Entity
p923
(dp924
g11
(lp925
sg13
S'android.net.UrlQuerySanitizer$ValueSanitizer'
p926
sg15
(lp927
sg17
(lp928
sg19
(lp929
sg21
I0
sbasg57
(lp930
g905
ag912
ag919
ag926
asg21
I0
sg59
S'950'
p931
sbasS'target_sub'
p932
S'50'
p933
sg57
(lp934
sS'is_component_arch'
p935
I01
sg59
S'7.0.0_r1'
p936
sba.