(lp0
(iArchitecture
Architecture
p1
(dp2
S'clusters'
p3
(lp4
(iArchitecture
Cluster
p5
(dp6
S'entities'
p7
(lp8
(iArchitecture
Entity
p9
(dp10
S'issue_ids'
p11
(lp12
sS'name'
p13
S'android.net.NetworkStatsHistory'
p14
sS'descs'
p15
(lp16
sS'labels'
p17
(lp18
sS'titles'
p19
(lp20
sS'change'
p21
I0
sba(iArchitecture
Entity
p22
(dp23
g11
(lp24
sg13
S'android.net.NetworkStatsHistory$1'
p25
sg15
(lp26
sg17
(lp27
sg19
(lp28
sg21
I0
sba(iArchitecture
Entity
p29
(dp30
g11
(lp31
sg13
S'android.net.NetworkStatsHistory$DataStreamUtils'
p32
sg15
(lp33
sg17
(lp34
sg19
(lp35
sg21
I0
sba(iArchitecture
Entity
p36
(dp37
g11
(lp38
sg13
S'android.net.NetworkStatsHistory$Entry'
p39
sg15
(lp40
sg17
(lp41
sg19
(lp42
sg21
I0
sba(iArchitecture
Entity
p43
(dp44
g11
(lp45
sg13
S'android.net.NetworkStatsHistory$ParcelUtils'
p46
sg15
(lp47
sg17
(lp48
sg19
(lp49
sg21
I0
sbasS'classes'
p50
(lp51
g14
ag25
ag32
ag39
ag46
asg21
I0
sS'label'
p52
S'1089'
p53
sba(iArchitecture
Cluster
p54
(dp55
g7
(lp56
(iArchitecture
Entity
p57
(dp58
g11
(lp59
sg13
S'android.service.notification.ZenModeConfig'
p60
sg15
(lp61
sg17
(lp62
sg19
(lp63
sg21
I0
sba(iArchitecture
Entity
p64
(dp65
g11
(lp66
sg13
S'android.service.notification.ZenModeConfig$1'
p67
sg15
(lp68
sg17
(lp69
sg19
(lp70
sg21
I0
sba(iArchitecture
Entity
p71
(dp72
g11
(lp73
sg13
S'android.service.notification.ZenModeConfig$Diff'
p74
sg15
(lp75
sg17
(lp76
sg19
(lp77
sg21
I0
sba(iArchitecture
Entity
p78
(dp79
g11
(lp80
sg13
S'android.service.notification.ZenModeConfig$EventInfo'
p81
sg15
(lp82
sg17
(lp83
sg19
(lp84
sg21
I0
sba(iArchitecture
Entity
p85
(dp86
g11
(lp87
sg13
S'android.service.notification.ZenModeConfig$Migration'
p88
sg15
(lp89
sg17
(lp90
sg19
(lp91
sg21
I0
sba(iArchitecture
Entity
p92
(dp93
g11
(lp94
sg13
S'android.service.notification.ZenModeConfig$ScheduleInfo'
p95
sg15
(lp96
sg17
(lp97
sg19
(lp98
sg21
I0
sba(iArchitecture
Entity
p99
(dp100
g11
(lp101
sg13
S'android.service.notification.ZenModeConfig$XmlV1'
p102
sg15
(lp103
sg17
(lp104
sg19
(lp105
sg21
I0
sba(iArchitecture
Entity
p106
(dp107
g11
(lp108
sg13
S'android.service.notification.ZenModeConfig$ZenRule'
p109
sg15
(lp110
sg17
(lp111
sg19
(lp112
sg21
I0
sba(iArchitecture
Entity
p113
(dp114
g11
(lp115
sg13
S'android.service.notification.ZenModeConfig$ZenRule$1'
p116
sg15
(lp117
sg17
(lp118
sg19
(lp119
sg21
I0
sbasg50
(lp120
g60
ag67
ag74
ag81
ag88
ag95
ag102
ag109
ag116
asg21
I0
sg52
S'1189'
p121
sba(iArchitecture
Cluster
p122
(dp123
g7
(lp124
(iArchitecture
Entity
p125
(dp126
g11
(lp127
sg13
S'android.hardware.usb.UsbManager'
p128
sg15
(lp129
sg17
(lp130
sg19
(lp131
sg21
I0
sba(iArchitecture
Entity
p132
(dp133
g11
(lp134
sg13
S'com.android.server.usb.UsbDeviceManager'
p135
sg15
(lp136
sg17
(lp137
sg19
(lp138
sg21
I0
sba(iArchitecture
Entity
p139
(dp140
g11
(lp141
sg13
S'com.android.server.usb.UsbDeviceManager$1'
p142
sg15
(lp143
sg17
(lp144
sg19
(lp145
sg21
I0
sba(iArchitecture
Entity
p146
(dp147
g11
(lp148
sg13
S'com.android.server.usb.UsbDeviceManager$2'
p149
sg15
(lp150
sg17
(lp151
sg19
(lp152
sg21
I0
sba(iArchitecture
Entity
p153
(dp154
g11
(lp155
sg13
S'com.android.server.usb.UsbDeviceManager$AdbSettingsObserver'
p156
sg15
(lp157
sg17
(lp158
sg19
(lp159
sg21
I0
sba(iArchitecture
Entity
p160
(dp161
g11
(lp162
sg13
S'com.android.server.usb.UsbDeviceManager$UsbHandler'
p163
sg15
(lp164
sg17
(lp165
sg19
(lp166
sg21
I0
sba(iArchitecture
Entity
p167
(dp168
g11
(lp169
sg13
S'com.android.server.usb.UsbService'
p170
sg15
(lp171
sg17
(lp172
sg19
(lp173
sg21
I0
sba(iArchitecture
Entity
p174
(dp175
g11
(lp176
sg13
S'com.android.server.usb.UsbService$1'
p177
sg15
(lp178
sg17
(lp179
sg19
(lp180
sg21
I0
sba(iArchitecture
Entity
p181
(dp182
g11
(lp183
sg13
S'com.android.server.usb.UsbService$Lifecycle'
p184
sg15
(lp185
sg17
(lp186
sg19
(lp187
sg21
I0
sbasg50
(lp188
g128
ag135
ag142
ag149
ag156
ag163
ag170
ag177
ag184
asg21
I0
sg52
S'1289'
p189
sba(iArchitecture
Cluster
p190
(dp191
g7
(lp192
(iArchitecture
Entity
p193
(dp194
g11
(lp195
sg13
S'android.filterfw.core.FrameManager'
p196
sg15
(lp197
sg17
(lp198
sg19
(lp199
sg21
I0
sba(iArchitecture
Entity
p200
(dp201
g11
(lp202
sg13
S'android.filterfw.core.SimpleFrameManager'
p203
sg15
(lp204
sg17
(lp205
sg19
(lp206
sg21
I0
sba(iArchitecture
Entity
p207
(dp208
g11
(lp209
sg13
S'android.filterfw.core.StreamPort'
p210
sg15
(lp211
sg17
(lp212
sg19
(lp213
sg21
I0
sba(iArchitecture
Entity
p214
(dp215
g11
(lp216
sg13
S'android.filterpacks.base.FrameFetch'
p217
sg15
(lp218
sg17
(lp219
sg19
(lp220
sg21
I0
sba(iArchitecture
Entity
p221
(dp222
g11
(lp223
sg13
S'android.filterpacks.base.FrameSource'
p224
sg15
(lp225
sg17
(lp226
sg19
(lp227
sg21
I0
sba(iArchitecture
Entity
p228
(dp229
g11
(lp230
sg13
S'android.filterpacks.base.GLTextureSource'
p231
sg15
(lp232
sg17
(lp233
sg19
(lp234
sg21
I0
sba(iArchitecture
Entity
p235
(dp236
g11
(lp237
sg13
S'android.filterpacks.base.GLTextureTarget'
p238
sg15
(lp239
sg17
(lp240
sg19
(lp241
sg21
I0
sba(iArchitecture
Entity
p242
(dp243
g11
(lp244
sg13
S'android.filterpacks.base.ObjectSource'
p245
sg15
(lp246
sg17
(lp247
sg19
(lp248
sg21
I0
sba(iArchitecture
Entity
p249
(dp250
g11
(lp251
sg13
S'android.filterpacks.base.RetargetFilter'
p252
sg15
(lp253
sg17
(lp254
sg19
(lp255
sg21
I0
sba(iArchitecture
Entity
p256
(dp257
g11
(lp258
sg13
S'android.filterpacks.imageproc.BitmapOverlayFilter'
p259
sg15
(lp260
sg17
(lp261
sg19
(lp262
sg21
I0
sba(iArchitecture
Entity
p263
(dp264
g11
(lp265
sg13
S'android.filterpacks.imageproc.BitmapSource'
p266
sg15
(lp267
sg17
(lp268
sg19
(lp269
sg21
I0
sba(iArchitecture
Entity
p270
(dp271
g11
(lp272
sg13
S'android.filterpacks.imageproc.BlackWhiteFilter'
p273
sg15
(lp274
sg17
(lp275
sg19
(lp276
sg21
I0
sba(iArchitecture
Entity
p277
(dp278
g11
(lp279
sg13
S'android.filterpacks.imageproc.ColorTemperatureFilter'
p280
sg15
(lp281
sg17
(lp282
sg19
(lp283
sg21
I0
sba(iArchitecture
Entity
p284
(dp285
g11
(lp286
sg13
S'android.filterpacks.imageproc.CropFilter'
p287
sg15
(lp288
sg17
(lp289
sg19
(lp290
sg21
I0
sba(iArchitecture
Entity
p291
(dp292
g11
(lp293
sg13
S'android.filterpacks.imageproc.CropRectFilter'
p294
sg15
(lp295
sg17
(lp296
sg19
(lp297
sg21
I0
sba(iArchitecture
Entity
p298
(dp299
g11
(lp300
sg13
S'android.filterpacks.imageproc.CrossProcessFilter'
p301
sg15
(lp302
sg17
(lp303
sg19
(lp304
sg21
I0
sba(iArchitecture
Entity
p305
(dp306
g11
(lp307
sg13
S'android.filterpacks.imageproc.DocumentaryFilter'
p308
sg15
(lp309
sg17
(lp310
sg19
(lp311
sg21
I0
sba(iArchitecture
Entity
p312
(dp313
g11
(lp314
sg13
S'android.filterpacks.imageproc.DrawOverlayFilter'
p315
sg15
(lp316
sg17
(lp317
sg19
(lp318
sg21
I0
sba(iArchitecture
Entity
p319
(dp320
g11
(lp321
sg13
S'android.filterpacks.imageproc.DrawRectFilter'
p322
sg15
(lp323
sg17
(lp324
sg19
(lp325
sg21
I0
sba(iArchitecture
Entity
p326
(dp327
g11
(lp328
sg13
S'android.filterpacks.imageproc.DuotoneFilter'
p329
sg15
(lp330
sg17
(lp331
sg19
(lp332
sg21
I0
sba(iArchitecture
Entity
p333
(dp334
g11
(lp335
sg13
S'android.filterpacks.imageproc.FillLightFilter'
p336
sg15
(lp337
sg17
(lp338
sg19
(lp339
sg21
I0
sba(iArchitecture
Entity
p340
(dp341
g11
(lp342
sg13
S'android.filterpacks.imageproc.FisheyeFilter'
p343
sg15
(lp344
sg17
(lp345
sg19
(lp346
sg21
I0
sba(iArchitecture
Entity
p347
(dp348
g11
(lp349
sg13
S'android.filterpacks.imageproc.FixedRotationFilter'
p350
sg15
(lp351
sg17
(lp352
sg19
(lp353
sg21
I0
sba(iArchitecture
Entity
p354
(dp355
g11
(lp356
sg13
S'android.filterpacks.imageproc.FlipFilter'
p357
sg15
(lp358
sg17
(lp359
sg19
(lp360
sg21
I0
sba(iArchitecture
Entity
p361
(dp362
g11
(lp363
sg13
S'android.filterpacks.imageproc.GrainFilter'
p364
sg15
(lp365
sg17
(lp366
sg19
(lp367
sg21
I0
sba(iArchitecture
Entity
p368
(dp369
g11
(lp370
sg13
S'android.filterpacks.imageproc.ImageCombineFilter'
p371
sg15
(lp372
sg17
(lp373
sg19
(lp374
sg21
I0
sba(iArchitecture
Entity
p375
(dp376
g11
(lp377
sg13
S'android.filterpacks.imageproc.ImageSlicer'
p378
sg15
(lp379
sg17
(lp380
sg19
(lp381
sg21
I0
sba(iArchitecture
Entity
p382
(dp383
g11
(lp384
sg13
S'android.filterpacks.imageproc.ImageStitcher'
p385
sg15
(lp386
sg17
(lp387
sg19
(lp388
sg21
I0
sba(iArchitecture
Entity
p389
(dp390
g11
(lp391
sg13
S'android.filterpacks.imageproc.LomoishFilter'
p392
sg15
(lp393
sg17
(lp394
sg19
(lp395
sg21
I0
sba(iArchitecture
Entity
p396
(dp397
g11
(lp398
sg13
S'android.filterpacks.imageproc.NegativeFilter'
p399
sg15
(lp400
sg17
(lp401
sg19
(lp402
sg21
I0
sba(iArchitecture
Entity
p403
(dp404
g11
(lp405
sg13
S'android.filterpacks.imageproc.PosterizeFilter'
p406
sg15
(lp407
sg17
(lp408
sg19
(lp409
sg21
I0
sba(iArchitecture
Entity
p410
(dp411
g11
(lp412
sg13
S'android.filterpacks.imageproc.RedEyeFilter'
p413
sg15
(lp414
sg17
(lp415
sg19
(lp416
sg21
I0
sba(iArchitecture
Entity
p417
(dp418
g11
(lp419
sg13
S'android.filterpacks.imageproc.ResizeFilter'
p420
sg15
(lp421
sg17
(lp422
sg19
(lp423
sg21
I0
sba(iArchitecture
Entity
p424
(dp425
g11
(lp426
sg13
S'android.filterpacks.imageproc.RotateFilter'
p427
sg15
(lp428
sg17
(lp429
sg19
(lp430
sg21
I0
sba(iArchitecture
Entity
p431
(dp432
g11
(lp433
sg13
S'android.filterpacks.imageproc.SaturateFilter'
p434
sg15
(lp435
sg17
(lp436
sg19
(lp437
sg21
I0
sba(iArchitecture
Entity
p438
(dp439
g11
(lp440
sg13
S'android.filterpacks.imageproc.SepiaFilter'
p441
sg15
(lp442
sg17
(lp443
sg19
(lp444
sg21
I0
sba(iArchitecture
Entity
p445
(dp446
g11
(lp447
sg13
S'android.filterpacks.imageproc.SharpenFilter'
p448
sg15
(lp449
sg17
(lp450
sg19
(lp451
sg21
I0
sba(iArchitecture
Entity
p452
(dp453
g11
(lp454
sg13
S'android.filterpacks.imageproc.SimpleImageFilter'
p455
sg15
(lp456
sg17
(lp457
sg19
(lp458
sg21
I0
sba(iArchitecture
Entity
p459
(dp460
g11
(lp461
sg13
S'android.filterpacks.imageproc.StraightenFilter'
p462
sg15
(lp463
sg17
(lp464
sg19
(lp465
sg21
I0
sba(iArchitecture
Entity
p466
(dp467
g11
(lp468
sg13
S'android.filterpacks.imageproc.TintFilter'
p469
sg15
(lp470
sg17
(lp471
sg19
(lp472
sg21
I0
sba(iArchitecture
Entity
p473
(dp474
g11
(lp475
sg13
S'android.filterpacks.imageproc.ToGrayFilter'
p476
sg15
(lp477
sg17
(lp478
sg19
(lp479
sg21
I0
sba(iArchitecture
Entity
p480
(dp481
g11
(lp482
sg13
S'android.filterpacks.imageproc.ToPackedGrayFilter'
p483
sg15
(lp484
sg17
(lp485
sg19
(lp486
sg21
I0
sba(iArchitecture
Entity
p487
(dp488
g11
(lp489
sg13
S'android.filterpacks.imageproc.ToRGBAFilter'
p490
sg15
(lp491
sg17
(lp492
sg19
(lp493
sg21
I0
sba(iArchitecture
Entity
p494
(dp495
g11
(lp496
sg13
S'android.filterpacks.imageproc.ToRGBFilter'
p497
sg15
(lp498
sg17
(lp499
sg19
(lp500
sg21
I0
sba(iArchitecture
Entity
p501
(dp502
g11
(lp503
sg13
S'android.filterpacks.imageproc.VignetteFilter'
p504
sg15
(lp505
sg17
(lp506
sg19
(lp507
sg21
I0
sba(iArchitecture
Entity
p508
(dp509
g11
(lp510
sg13
S'android.filterpacks.numeric.SinWaveFilter'
p511
sg15
(lp512
sg17
(lp513
sg19
(lp514
sg21
I0
sba(iArchitecture
Entity
p515
(dp516
g11
(lp517
sg13
S'android.filterpacks.performance.ThroughputFilter'
p518
sg15
(lp519
sg17
(lp520
sg19
(lp521
sg21
I0
sba(iArchitecture
Entity
p522
(dp523
g11
(lp524
sg13
S'android.filterpacks.text.StringSource'
p525
sg15
(lp526
sg17
(lp527
sg19
(lp528
sg21
I0
sbasg50
(lp529
g196
ag203
ag210
ag217
ag224
ag231
ag238
ag245
ag252
ag259
ag266
ag273
ag280
ag287
ag294
ag301
ag308
ag315
ag322
ag329
ag336
ag343
ag350
ag357
ag364
ag371
ag378
ag385
ag392
ag399
ag406
ag413
ag420
ag427
ag434
ag441
ag448
ag455
ag462
ag469
ag476
ag483
ag490
ag497
ag504
ag511
ag518
ag525
asg21
I0
sg52
S'1389'
p530
sba(iArchitecture
Cluster
p531
(dp532
g7
(lp533
(iArchitecture
Entity
p534
(dp535
g11
(lp536
sg13
S'com.android.server.notification.ZenLog'
p537
sg15
(lp538
sg17
(lp539
sg19
(lp540
sg21
I0
sbasg50
(lp541
g537
asg21
I0
sg52
S'189'
p542
sba(iArchitecture
Cluster
p543
(dp544
g7
(lp545
(iArchitecture
Entity
p546
(dp547
g11
(lp548
sg13
S'android.media.MediaInserter'
p549
sg15
(lp550
sg17
(lp551
sg19
(lp552
sg21
I0
sbasg50
(lp553
g549
asg21
I0
sg52
S'289'
p554
sba(iArchitecture
Cluster
p555
(dp556
g7
(lp557
(iArchitecture
Entity
p558
(dp559
g11
(lp560
sg13
S'android.filterfw.io.PatternScanner'
p561
sg15
(lp562
sg17
(lp563
sg19
(lp564
sg21
I0
sbasg50
(lp565
g561
asg21
I0
sg52
S'389'
p566
sba(iArchitecture
Cluster
p567
(dp568
g7
(lp569
(iArchitecture
Entity
p570
(dp571
g11
(lp572
sg13
S'android.os.health.UidHealthStats'
p573
sg15
(lp574
sg17
(lp575
sg19
(lp576
sg21
I0
sbasg50
(lp577
g573
asg21
I0
sg52
S'489'
p578
sba(iArchitecture
Cluster
p579
(dp580
g7
(lp581
(iArchitecture
Entity
p582
(dp583
g11
(lp584
sg13
S'android.telephony.CellInfoCdma'
p585
sg15
(lp586
sg17
(lp587
sg19
(lp588
sg21
I0
sba(iArchitecture
Entity
p589
(dp590
g11
(lp591
sg13
S'android.telephony.CellInfoCdma$1'
p592
sg15
(lp593
sg17
(lp594
sg19
(lp595
sg21
I0
sbasg50
(lp596
g585
ag592
asg21
I0
sg52
S'589'
p597
sba(iArchitecture
Cluster
p598
(dp599
g7
(lp600
(iArchitecture
Entity
p601
(dp602
g11
(lp603
sg13
S'android.app.LocalActivityManager'
p604
sg15
(lp605
sg17
(lp606
sg19
(lp607
sg21
I0
sba(iArchitecture
Entity
p608
(dp609
g11
(lp610
sg13
S'android.app.LocalActivityManager$LocalActivityRecord'
p611
sg15
(lp612
sg17
(lp613
sg19
(lp614
sg21
I0
sbasg50
(lp615
g604
ag611
asg21
I0
sg52
S'689'
p616
sba(iArchitecture
Cluster
p617
(dp618
g7
(lp619
(iArchitecture
Entity
p620
(dp621
g11
(lp622
sg13
S'com.android.internal.statusbar.StatusBarIcon'
p623
sg15
(lp624
sg17
(lp625
sg19
(lp626
sg21
I0
sba(iArchitecture
Entity
p627
(dp628
g11
(lp629
sg13
S'com.android.internal.statusbar.StatusBarIcon$1'
p630
sg15
(lp631
sg17
(lp632
sg19
(lp633
sg21
I0
sbasg50
(lp634
g623
ag630
asg21
I0
sg52
S'789'
p635
sba(iArchitecture
Cluster
p636
(dp637
g7
(lp638
(iArchitecture
Entity
p639
(dp640
g11
(lp641
sg13
S'android.widget.SimpleMonthView'
p642
sg15
(lp643
sg17
(lp644
sg19
(lp645
sg21
I0
sba(iArchitecture
Entity
p646
(dp647
g11
(lp648
sg13
S'android.widget.SimpleMonthView$MonthViewTouchHelper'
p649
sg15
(lp650
sg17
(lp651
sg19
(lp652
sg21
I0
sba(iArchitecture
Entity
p653
(dp654
g11
(lp655
sg13
S'android.widget.SimpleMonthView$OnDayClickListener'
p656
sg15
(lp657
sg17
(lp658
sg19
(lp659
sg21
I0
sbasg50
(lp660
g642
ag649
ag656
asg21
I0
sg52
S'889'
p661
sba(iArchitecture
Cluster
p662
(dp663
g7
(lp664
(iArchitecture
Entity
p665
(dp666
g11
(lp667
sg13
S'android.webkit.DateSorter'
p668
sg15
(lp669
sg17
(lp670
sg19
(lp671
sg21
I0
sbasg50
(lp672
g668
asg21
I0
sg52
S'89'
p673
sba(iArchitecture
Cluster
p674
(dp675
g7
(lp676
(iArchitecture
Entity
p677
(dp678
g11
(lp679
sg13
S'android.text.BidiFormatter'
p680
sg15
(lp681
sg17
(lp682
sg19
(lp683
sg21
I0
sba(iArchitecture
Entity
p684
(dp685
g11
(lp686
sg13
S'android.text.BidiFormatter$Builder'
p687
sg15
(lp688
sg17
(lp689
sg19
(lp690
sg21
I0
sba(iArchitecture
Entity
p691
(dp692
g11
(lp693
sg13
S'android.text.BidiFormatter$DirectionalityEstimator'
p694
sg15
(lp695
sg17
(lp696
sg19
(lp697
sg21
I0
sbasg50
(lp698
g680
ag687
ag694
asg21
I0
sg52
S'890'
p699
sba(iArchitecture
Cluster
p700
(dp701
g7
(lp702
(iArchitecture
Entity
p703
(dp704
g11
(lp705
sg13
S'com.android.server.CertBlacklister'
p706
sg15
(lp707
sg17
(lp708
sg19
(lp709
sg21
I0
sba(iArchitecture
Entity
p710
(dp711
g11
(lp712
sg13
S'com.android.server.CertBlacklister$BlacklistObserver'
p713
sg15
(lp714
sg17
(lp715
sg19
(lp716
sg21
I0
sba(iArchitecture
Entity
p717
(dp718
g11
(lp719
sg13
S'com.android.server.CertBlacklister$BlacklistObserver$1'
p720
sg15
(lp721
sg17
(lp722
sg19
(lp723
sg21
I0
sbasg50
(lp724
g706
ag713
ag720
asg21
I0
sg52
S'891'
p725
sba(iArchitecture
Cluster
p726
(dp727
g7
(lp728
(iArchitecture
Entity
p729
(dp730
g11
(lp731
sg13
S'android.app.RemoteInput'
p732
sg15
(lp733
sg17
(lp734
sg19
(lp735
sg21
I0
sba(iArchitecture
Entity
p736
(dp737
g11
(lp738
sg13
S'android.app.RemoteInput$1'
p739
sg15
(lp740
sg17
(lp741
sg19
(lp742
sg21
I0
sba(iArchitecture
Entity
p743
(dp744
g11
(lp745
sg13
S'android.app.RemoteInput$Builder'
p746
sg15
(lp747
sg17
(lp748
sg19
(lp749
sg21
I0
sbasg50
(lp750
g732
ag739
ag746
asg21
I0
sg52
S'892'
p751
sba(iArchitecture
Cluster
p752
(dp753
g7
(lp754
(iArchitecture
Entity
p755
(dp756
g11
(lp757
sg13
S'android.util.Spline'
p758
sg15
(lp759
sg17
(lp760
sg19
(lp761
sg21
I0
sba(iArchitecture
Entity
p762
(dp763
g11
(lp764
sg13
S'android.util.Spline$LinearSpline'
p765
sg15
(lp766
sg17
(lp767
sg19
(lp768
sg21
I0
sba(iArchitecture
Entity
p769
(dp770
g11
(lp771
sg13
S'android.util.Spline$MonotoneCubicSpline'
p772
sg15
(lp773
sg17
(lp774
sg19
(lp775
sg21
I0
sbasg50
(lp776
g758
ag765
ag772
asg21
I0
sg52
S'893'
p777
sba(iArchitecture
Cluster
p778
(dp779
g7
(lp780
(iArchitecture
Entity
p781
(dp782
g11
(lp783
sg13
S'android.app.Presentation'
p784
sg15
(lp785
sg17
(lp786
sg19
(lp787
sg21
I0
sba(iArchitecture
Entity
p788
(dp789
g11
(lp790
sg13
S'android.app.Presentation$1'
p791
sg15
(lp792
sg17
(lp793
sg19
(lp794
sg21
I0
sba(iArchitecture
Entity
p795
(dp796
g11
(lp797
sg13
S'android.app.Presentation$2'
p798
sg15
(lp799
sg17
(lp800
sg19
(lp801
sg21
I0
sba(iArchitecture
Entity
p802
(dp803
g11
(lp804
sg13
S'android.app.Presentation$3'
p805
sg15
(lp806
sg17
(lp807
sg19
(lp808
sg21
I0
sbasg50
(lp809
g784
ag791
ag798
ag805
asg21
I0
sg52
S'894'
p810
sba(iArchitecture
Cluster
p811
(dp812
g7
(lp813
(iArchitecture
Entity
p814
(dp815
g11
(lp816
sg13
S'android.app.admin.DeviceAdminInfo'
p817
sg15
(lp818
sg17
(lp819
sg19
(lp820
sg21
I0
sba(iArchitecture
Entity
p821
(dp822
g11
(lp823
sg13
S'android.app.admin.DeviceAdminInfo$1'
p824
sg15
(lp825
sg17
(lp826
sg19
(lp827
sg21
I0
sba(iArchitecture
Entity
p828
(dp829
g11
(lp830
sg13
S'android.app.admin.DeviceAdminInfo$PolicyInfo'
p831
sg15
(lp832
sg17
(lp833
sg19
(lp834
sg21
I0
sbasg50
(lp835
g817
ag824
ag831
asg21
I0
sg52
S'895'
p836
sba(iArchitecture
Cluster
p837
(dp838
g7
(lp839
(iArchitecture
Entity
p840
(dp841
g11
(lp842
sg13
S'android.transition.Fade'
p843
sg15
(lp844
sg17
(lp845
sg19
(lp846
sg21
I0
sba(iArchitecture
Entity
p847
(dp848
g11
(lp849
sg13
S'android.transition.Fade$1'
p850
sg15
(lp851
sg17
(lp852
sg19
(lp853
sg21
I0
sba(iArchitecture
Entity
p854
(dp855
g11
(lp856
sg13
S'android.transition.Fade$FadeAnimatorListener'
p857
sg15
(lp858
sg17
(lp859
sg19
(lp860
sg21
I0
sbasg50
(lp861
g843
ag850
ag857
asg21
I0
sg52
S'896'
p862
sba(iArchitecture
Cluster
p863
(dp864
g7
(lp865
(iArchitecture
Entity
p866
(dp867
g11
(lp868
sg13
S'android.os.UEventObserver'
p869
sg15
(lp870
sg17
(lp871
sg19
(lp872
sg21
I0
sba(iArchitecture
Entity
p873
(dp874
g11
(lp875
sg13
S'android.os.UEventObserver$UEvent'
p876
sg15
(lp877
sg17
(lp878
sg19
(lp879
sg21
I0
sba(iArchitecture
Entity
p880
(dp881
g11
(lp882
sg13
S'android.os.UEventObserver$UEventThread'
p883
sg15
(lp884
sg17
(lp885
sg19
(lp886
sg21
I0
sbasg50
(lp887
g869
ag876
ag883
asg21
I0
sg52
S'897'
p888
sba(iArchitecture
Cluster
p889
(dp890
g7
(lp891
(iArchitecture
Entity
p892
(dp893
g11
(lp894
sg13
S'android.telecom.VideoCallbackServant'
p895
sg15
(lp896
sg17
(lp897
sg19
(lp898
sg21
I0
sba(iArchitecture
Entity
p899
(dp900
g11
(lp901
sg13
S'android.telecom.VideoCallbackServant$1'
p902
sg15
(lp903
sg17
(lp904
sg19
(lp905
sg21
I0
sba(iArchitecture
Entity
p906
(dp907
g11
(lp908
sg13
S'android.telecom.VideoCallbackServant$2'
p909
sg15
(lp910
sg17
(lp911
sg19
(lp912
sg21
I0
sbasg50
(lp913
g895
ag902
ag909
asg21
I0
sg52
S'898'
p914
sba(iArchitecture
Cluster
p915
(dp916
g7
(lp917
(iArchitecture
Entity
p918
(dp919
g11
(lp920
sg13
S'android.content.res.StringBlock'
p921
sg15
(lp922
sg17
(lp923
sg19
(lp924
sg21
I0
sba(iArchitecture
Entity
p925
(dp926
g11
(lp927
sg13
S'android.content.res.StringBlock$Height'
p928
sg15
(lp929
sg17
(lp930
sg19
(lp931
sg21
I0
sba(iArchitecture
Entity
p932
(dp933
g11
(lp934
sg13
S'android.content.res.StringBlock$StyleIDs'
p935
sg15
(lp936
sg17
(lp937
sg19
(lp938
sg21
I0
sbasg50
(lp939
g921
ag928
ag935
asg21
I0
sg52
S'899'
p940
sba(iArchitecture
Cluster
p941
(dp942
g7
(lp943
(iArchitecture
Entity
p944
(dp945
g11
(lp946
sg13
S'com.android.server.accessibility.KeyEventDispatcher'
p947
sg15
(lp948
sg17
(lp949
sg19
(lp950
sg21
I0
sba(iArchitecture
Entity
p951
(dp952
g11
(lp953
sg13
S'com.android.server.accessibility.KeyEventDispatcher$Callback'
p954
sg15
(lp955
sg17
(lp956
sg19
(lp957
sg21
I0
sba(iArchitecture
Entity
p958
(dp959
g11
(lp960
sg13
S'com.android.server.accessibility.KeyEventDispatcher$PendingKeyEvent'
p961
sg15
(lp962
sg17
(lp963
sg19
(lp964
sg21
I0
sbasg50
(lp965
g947
ag954
ag961
asg21
I0
sg52
S'989'
p966
sbasS'target_sub'
p967
S'89'
p968
sg50
(lp969
sS'is_component_arch'
p970
I01
sg52
S'7.0.0_r1'
p971
sba.