(lp0
(iArchitecture
Architecture
p1
(dp2
S'clusters'
p3
(lp4
(iArchitecture
Cluster
p5
(dp6
S'entities'
p7
(lp8
(iArchitecture
Entity
p9
(dp10
S'issue_ids'
p11
(lp12
sS'name'
p13
S'android.media.session.MediaSessionManager'
p14
sS'descs'
p15
(lp16
sS'labels'
p17
(lp18
sS'titles'
p19
(lp20
sS'change'
p21
I0
sba(iArchitecture
Entity
p22
(dp23
g11
(lp24
sg13
S'android.media.session.MediaSessionManager$OnActiveSessionsChangedListener'
p25
sg15
(lp26
sg17
(lp27
sg19
(lp28
sg21
I0
sba(iArchitecture
Entity
p29
(dp30
g11
(lp31
sg13
S'android.media.session.MediaSessionManager$SessionsChangedWrapper'
p32
sg15
(lp33
sg17
(lp34
sg19
(lp35
sg21
I0
sba(iArchitecture
Entity
p36
(dp37
g11
(lp38
sg13
S'android.media.session.MediaSessionManager$SessionsChangedWrapper$1'
p39
sg15
(lp40
sg17
(lp41
sg19
(lp42
sg21
I0
sba(iArchitecture
Entity
p43
(dp44
g11
(lp45
sg13
S'android.media.session.MediaSessionManager$SessionsChangedWrapper$1$1'
p46
sg15
(lp47
sg17
(lp48
sg19
(lp49
sg21
I0
sbasS'classes'
p50
(lp51
g14
ag25
ag32
ag39
ag46
asg21
I0
sS'label'
p52
S'1097'
p53
sba(iArchitecture
Cluster
p54
(dp55
g7
(lp56
(iArchitecture
Entity
p57
(dp58
g11
(lp59
sg13
S'android.renderscript.ScriptGroup'
p60
sg15
(lp61
sg17
(lp62
sg19
(lp63
sg21
I0
sba(iArchitecture
Entity
p64
(dp65
g11
(lp66
sg13
S'android.renderscript.ScriptGroup$Binding'
p67
sg15
(lp68
sg17
(lp69
sg19
(lp70
sg21
I0
sba(iArchitecture
Entity
p71
(dp72
g11
(lp73
sg13
S'android.renderscript.ScriptGroup$Builder'
p74
sg15
(lp75
sg17
(lp76
sg19
(lp77
sg21
I0
sba(iArchitecture
Entity
p78
(dp79
g11
(lp80
sg13
S'android.renderscript.ScriptGroup$Builder2'
p81
sg15
(lp82
sg17
(lp83
sg19
(lp84
sg21
I0
sba(iArchitecture
Entity
p85
(dp86
g11
(lp87
sg13
S'android.renderscript.ScriptGroup$Closure'
p88
sg15
(lp89
sg17
(lp90
sg19
(lp91
sg21
I0
sba(iArchitecture
Entity
p92
(dp93
g11
(lp94
sg13
S'android.renderscript.ScriptGroup$Closure$ValueAndSize'
p95
sg15
(lp96
sg17
(lp97
sg19
(lp98
sg21
I0
sba(iArchitecture
Entity
p99
(dp100
g11
(lp101
sg13
S'android.renderscript.ScriptGroup$ConnectLine'
p102
sg15
(lp103
sg17
(lp104
sg19
(lp105
sg21
I0
sba(iArchitecture
Entity
p106
(dp107
g11
(lp108
sg13
S'android.renderscript.ScriptGroup$Future'
p109
sg15
(lp110
sg17
(lp111
sg19
(lp112
sg21
I0
sba(iArchitecture
Entity
p113
(dp114
g11
(lp115
sg13
S'android.renderscript.ScriptGroup$IO'
p116
sg15
(lp117
sg17
(lp118
sg19
(lp119
sg21
I0
sba(iArchitecture
Entity
p120
(dp121
g11
(lp122
sg13
S'android.renderscript.ScriptGroup$Input'
p123
sg15
(lp124
sg17
(lp125
sg19
(lp126
sg21
I0
sba(iArchitecture
Entity
p127
(dp128
g11
(lp129
sg13
S'android.renderscript.ScriptGroup$Node'
p130
sg15
(lp131
sg17
(lp132
sg19
(lp133
sg21
I0
sbasg50
(lp134
g60
ag67
ag74
ag81
ag88
ag95
ag102
ag109
ag116
ag123
ag130
asg21
I0
sg52
S'1197'
p135
sba(iArchitecture
Cluster
p136
(dp137
g7
(lp138
(iArchitecture
Entity
p139
(dp140
g11
(lp141
sg13
S'android.bluetooth.BluetoothHealth'
p142
sg15
(lp143
sg17
(lp144
sg19
(lp145
sg21
I0
sba(iArchitecture
Entity
p146
(dp147
g11
(lp148
sg13
S'android.bluetooth.BluetoothHealth$1'
p149
sg15
(lp150
sg17
(lp151
sg19
(lp152
sg21
I0
sba(iArchitecture
Entity
p153
(dp154
g11
(lp155
sg13
S'android.bluetooth.BluetoothHealth$2'
p156
sg15
(lp157
sg17
(lp158
sg19
(lp159
sg21
I0
sba(iArchitecture
Entity
p160
(dp161
g11
(lp162
sg13
S'android.bluetooth.BluetoothHealth$BluetoothHealthCallbackWrapper'
p163
sg15
(lp164
sg17
(lp165
sg19
(lp166
sg21
I0
sba(iArchitecture
Entity
p167
(dp168
g11
(lp169
sg13
S'android.net.nsd.NsdManager'
p170
sg15
(lp171
sg17
(lp172
sg19
(lp173
sg21
I0
sba(iArchitecture
Entity
p174
(dp175
g11
(lp176
sg13
S'android.net.nsd.NsdManager$DiscoveryListener'
p177
sg15
(lp178
sg17
(lp179
sg19
(lp180
sg21
I0
sba(iArchitecture
Entity
p181
(dp182
g11
(lp183
sg13
S'android.net.nsd.NsdManager$RegistrationListener'
p184
sg15
(lp185
sg17
(lp186
sg19
(lp187
sg21
I0
sba(iArchitecture
Entity
p188
(dp189
g11
(lp190
sg13
S'android.net.nsd.NsdManager$ResolveListener'
p191
sg15
(lp192
sg17
(lp193
sg19
(lp194
sg21
I0
sba(iArchitecture
Entity
p195
(dp196
g11
(lp197
sg13
S'android.net.nsd.NsdManager$ServiceHandler'
p198
sg15
(lp199
sg17
(lp200
sg19
(lp201
sg21
I0
sbasg50
(lp202
g142
ag149
ag156
ag163
ag170
ag177
ag184
ag191
ag198
asg21
I0
sg52
S'1297'
p203
sba(iArchitecture
Cluster
p204
(dp205
g7
(lp206
(iArchitecture
Entity
p207
(dp208
g11
(lp209
sg13
S'android.nfc.cardemulation.NfcFServiceInfo'
p210
sg15
(lp211
sg17
(lp212
sg19
(lp213
sg21
I0
sba(iArchitecture
Entity
p214
(dp215
g11
(lp216
sg13
S'android.nfc.cardemulation.NfcFServiceInfo$1'
p217
sg15
(lp218
sg17
(lp219
sg19
(lp220
sg21
I0
sba(iArchitecture
Entity
p221
(dp222
g11
(lp223
sg13
S'com.android.server.pm.PreferredComponent'
p224
sg15
(lp225
sg17
(lp226
sg19
(lp227
sg21
I0
sba(iArchitecture
Entity
p228
(dp229
g11
(lp230
sg13
S'com.android.server.pm.PreferredComponent$Callbacks'
p231
sg15
(lp232
sg17
(lp233
sg19
(lp234
sg21
I0
sbasg50
(lp235
g210
ag217
ag224
ag231
asg21
I0
sg52
S'1397'
p236
sba(iArchitecture
Cluster
p237
(dp238
g7
(lp239
(iArchitecture
Entity
p240
(dp241
g11
(lp242
sg13
S'com.android.internal.policy.DecorContext'
p243
sg15
(lp244
sg17
(lp245
sg19
(lp246
sg21
I0
sbasg50
(lp247
g243
asg21
I0
sg52
S'197'
p248
sba(iArchitecture
Cluster
p249
(dp250
g7
(lp251
(iArchitecture
Entity
p252
(dp253
g11
(lp254
sg13
S'android.database.CrossProcessCursor'
p255
sg15
(lp256
sg17
(lp257
sg19
(lp258
sg21
I0
sbasg50
(lp259
g255
asg21
I0
sg52
S'297'
p260
sba(iArchitecture
Cluster
p261
(dp262
g7
(lp263
(iArchitecture
Entity
p264
(dp265
g11
(lp266
sg13
S'android.hardware.camera2.utils.SurfaceUtils'
p267
sg15
(lp268
sg17
(lp269
sg19
(lp270
sg21
I0
sbasg50
(lp271
g267
asg21
I0
sg52
S'397'
p272
sba(iArchitecture
Cluster
p273
(dp274
g7
(lp275
(iArchitecture
Entity
p276
(dp277
g11
(lp278
sg13
S'android.content.pm.UserInfo'
p279
sg15
(lp280
sg17
(lp281
sg19
(lp282
sg21
I0
sba(iArchitecture
Entity
p283
(dp284
g11
(lp285
sg13
S'android.content.pm.UserInfo$1'
p286
sg15
(lp287
sg17
(lp288
sg19
(lp289
sg21
I0
sbasg50
(lp290
g279
ag286
asg21
I0
sg52
S'497'
p291
sba(iArchitecture
Cluster
p292
(dp293
g7
(lp294
(iArchitecture
Entity
p295
(dp296
g11
(lp297
sg13
S'android.view.AppTransitionAnimationSpec'
p298
sg15
(lp299
sg17
(lp300
sg19
(lp301
sg21
I0
sba(iArchitecture
Entity
p302
(dp303
g11
(lp304
sg13
S'android.view.AppTransitionAnimationSpec$1'
p305
sg15
(lp306
sg17
(lp307
sg19
(lp308
sg21
I0
sbasg50
(lp309
g298
ag305
asg21
I0
sg52
S'597'
p310
sba(iArchitecture
Cluster
p311
(dp312
g7
(lp313
(iArchitecture
Entity
p314
(dp315
g11
(lp316
sg13
S'com.android.internal.util.CallbackRegistry'
p317
sg15
(lp318
sg17
(lp319
sg19
(lp320
sg21
I0
sba(iArchitecture
Entity
p321
(dp322
g11
(lp323
sg13
S'com.android.internal.util.CallbackRegistry$NotifierCallback'
p324
sg15
(lp325
sg17
(lp326
sg19
(lp327
sg21
I0
sbasg50
(lp328
g317
ag324
asg21
I0
sg52
S'697'
p329
sba(iArchitecture
Cluster
p330
(dp331
g7
(lp332
(iArchitecture
Entity
p333
(dp334
g11
(lp335
sg13
S'com.android.server.wm.DimLayerController'
p336
sg15
(lp337
sg17
(lp338
sg19
(lp339
sg21
I0
sba(iArchitecture
Entity
p340
(dp341
g11
(lp342
sg13
S'com.android.server.wm.DimLayerController$DimLayerState'
p343
sg15
(lp344
sg17
(lp345
sg19
(lp346
sg21
I0
sbasg50
(lp347
g336
ag343
asg21
I0
sg52
S'797'
p348
sba(iArchitecture
Cluster
p349
(dp350
g7
(lp351
(iArchitecture
Entity
p352
(dp353
g11
(lp354
sg13
S'android.os.UEventObserver'
p355
sg15
(lp356
sg17
(lp357
sg19
(lp358
sg21
I0
sba(iArchitecture
Entity
p359
(dp360
g11
(lp361
sg13
S'android.os.UEventObserver$UEvent'
p362
sg15
(lp363
sg17
(lp364
sg19
(lp365
sg21
I0
sba(iArchitecture
Entity
p366
(dp367
g11
(lp368
sg13
S'android.os.UEventObserver$UEventThread'
p369
sg15
(lp370
sg17
(lp371
sg19
(lp372
sg21
I0
sbasg50
(lp373
g355
ag362
ag369
asg21
I0
sg52
S'897'
p374
sba(iArchitecture
Cluster
p375
(dp376
g7
(lp377
(iArchitecture
Entity
p378
(dp379
g11
(lp380
sg13
S'com.android.server.pm.Installer'
p381
sg15
(lp382
sg17
(lp383
sg19
(lp384
sg21
I0
sbasg50
(lp385
g381
asg21
I0
sg52
S'97'
p386
sba(iArchitecture
Cluster
p387
(dp388
g7
(lp389
(iArchitecture
Entity
p390
(dp391
g11
(lp392
sg13
S'com.android.server.NetworkManagementSocketTagger'
p393
sg15
(lp394
sg17
(lp395
sg19
(lp396
sg21
I0
sba(iArchitecture
Entity
p397
(dp398
g11
(lp399
sg13
S'com.android.server.NetworkManagementSocketTagger$1'
p400
sg15
(lp401
sg17
(lp402
sg19
(lp403
sg21
I0
sba(iArchitecture
Entity
p404
(dp405
g11
(lp406
sg13
S'com.android.server.NetworkManagementSocketTagger$SocketTags'
p407
sg15
(lp408
sg17
(lp409
sg19
(lp410
sg21
I0
sbasg50
(lp411
g393
ag400
ag407
asg21
I0
sg52
S'970'
p412
sba(iArchitecture
Cluster
p413
(dp414
g7
(lp415
(iArchitecture
Entity
p416
(dp417
g11
(lp418
sg13
S'android.app.ActivityTransitionState'
p419
sg15
(lp420
sg17
(lp421
sg19
(lp422
sg21
I0
sba(iArchitecture
Entity
p423
(dp424
g11
(lp425
sg13
S'android.app.ActivityTransitionState$1'
p426
sg15
(lp427
sg17
(lp428
sg19
(lp429
sg21
I0
sba(iArchitecture
Entity
p430
(dp431
g11
(lp432
sg13
S'android.app.ActivityTransitionState$2'
p433
sg15
(lp434
sg17
(lp435
sg19
(lp436
sg21
I0
sbasg50
(lp437
g419
ag426
ag433
asg21
I0
sg52
S'971'
p438
sba(iArchitecture
Cluster
p439
(dp440
g7
(lp441
(iArchitecture
Entity
p442
(dp443
g11
(lp444
sg13
S'android.media.DecoderCapabilities'
p445
sg15
(lp446
sg17
(lp447
sg19
(lp448
sg21
I0
sba(iArchitecture
Entity
p449
(dp450
g11
(lp451
sg13
S'android.media.DecoderCapabilities$AudioDecoder'
p452
sg15
(lp453
sg17
(lp454
sg19
(lp455
sg21
I0
sba(iArchitecture
Entity
p456
(dp457
g11
(lp458
sg13
S'android.media.DecoderCapabilities$VideoDecoder'
p459
sg15
(lp460
sg17
(lp461
sg19
(lp462
sg21
I0
sbasg50
(lp463
g445
ag452
ag459
asg21
I0
sg52
S'972'
p464
sba(iArchitecture
Cluster
p465
(dp466
g7
(lp467
(iArchitecture
Entity
p468
(dp469
g11
(lp470
sg13
S'android.view.InputQueue'
p471
sg15
(lp472
sg17
(lp473
sg19
(lp474
sg21
I0
sba(iArchitecture
Entity
p475
(dp476
g11
(lp477
sg13
S'android.view.InputQueue$ActiveInputEvent'
p478
sg15
(lp479
sg17
(lp480
sg19
(lp481
sg21
I0
sba(iArchitecture
Entity
p482
(dp483
g11
(lp484
sg13
S'android.view.InputQueue$Callback'
p485
sg15
(lp486
sg17
(lp487
sg19
(lp488
sg21
I0
sba(iArchitecture
Entity
p489
(dp490
g11
(lp491
sg13
S'android.view.InputQueue$FinishedInputEventCallback'
p492
sg15
(lp493
sg17
(lp494
sg19
(lp495
sg21
I0
sbasg50
(lp496
g471
ag478
ag485
ag492
asg21
I0
sg52
S'973'
p497
sba(iArchitecture
Cluster
p498
(dp499
g7
(lp500
(iArchitecture
Entity
p501
(dp502
g11
(lp503
sg13
S'android.view.InputDevice'
p504
sg15
(lp505
sg17
(lp506
sg19
(lp507
sg21
I0
sba(iArchitecture
Entity
p508
(dp509
g11
(lp510
sg13
S'android.view.InputDevice$1'
p511
sg15
(lp512
sg17
(lp513
sg19
(lp514
sg21
I0
sba(iArchitecture
Entity
p515
(dp516
g11
(lp517
sg13
S'android.view.InputDevice$MotionRange'
p518
sg15
(lp519
sg17
(lp520
sg19
(lp521
sg21
I0
sbasg50
(lp522
g504
ag511
ag518
asg21
I0
sg52
S'974'
p523
sba(iArchitecture
Cluster
p524
(dp525
g7
(lp526
(iArchitecture
Entity
p527
(dp528
g11
(lp529
sg13
S'android.widget.RadialTimePickerView'
p530
sg15
(lp531
sg17
(lp532
sg19
(lp533
sg21
I0
sba(iArchitecture
Entity
p534
(dp535
g11
(lp536
sg13
S'android.widget.RadialTimePickerView$1'
p537
sg15
(lp538
sg17
(lp539
sg19
(lp540
sg21
I0
sba(iArchitecture
Entity
p541
(dp542
g11
(lp543
sg13
S'android.widget.RadialTimePickerView$OnValueSelectedListener'
p544
sg15
(lp545
sg17
(lp546
sg19
(lp547
sg21
I0
sba(iArchitecture
Entity
p548
(dp549
g11
(lp550
sg13
S'android.widget.RadialTimePickerView$RadialPickerTouchHelper'
p551
sg15
(lp552
sg17
(lp553
sg19
(lp554
sg21
I0
sbasg50
(lp555
g530
ag537
ag544
ag551
asg21
I0
sg52
S'975'
p556
sba(iArchitecture
Cluster
p557
(dp558
g7
(lp559
(iArchitecture
Entity
p560
(dp561
g11
(lp562
sg13
S'android.inputmethodservice.AbstractInputMethodService'
p563
sg15
(lp564
sg17
(lp565
sg19
(lp566
sg21
I0
sba(iArchitecture
Entity
p567
(dp568
g11
(lp569
sg13
S'android.inputmethodservice.AbstractInputMethodService$AbstractInputMethodImpl'
p570
sg15
(lp571
sg17
(lp572
sg19
(lp573
sg21
I0
sba(iArchitecture
Entity
p574
(dp575
g11
(lp576
sg13
S'android.inputmethodservice.AbstractInputMethodService$AbstractInputMethodSessionImpl'
p577
sg15
(lp578
sg17
(lp579
sg19
(lp580
sg21
I0
sbasg50
(lp581
g563
ag570
ag577
asg21
I0
sg52
S'976'
p582
sba(iArchitecture
Cluster
p583
(dp584
g7
(lp585
(iArchitecture
Entity
p586
(dp587
g11
(lp588
sg13
S'android.telecom.VideoProfile'
p589
sg15
(lp590
sg17
(lp591
sg19
(lp592
sg21
I0
sba(iArchitecture
Entity
p593
(dp594
g11
(lp595
sg13
S'android.telecom.VideoProfile$1'
p596
sg15
(lp597
sg17
(lp598
sg19
(lp599
sg21
I0
sba(iArchitecture
Entity
p600
(dp601
g11
(lp602
sg13
S'android.telecom.VideoProfile$CameraCapabilities'
p603
sg15
(lp604
sg17
(lp605
sg19
(lp606
sg21
I0
sba(iArchitecture
Entity
p607
(dp608
g11
(lp609
sg13
S'android.telecom.VideoProfile$CameraCapabilities$1'
p610
sg15
(lp611
sg17
(lp612
sg19
(lp613
sg21
I0
sbasg50
(lp614
g589
ag596
ag603
ag610
asg21
I0
sg52
S'977'
p615
sba(iArchitecture
Cluster
p616
(dp617
g7
(lp618
(iArchitecture
Entity
p619
(dp620
g11
(lp621
sg13
S'android.content.res.AssetFileDescriptor'
p622
sg15
(lp623
sg17
(lp624
sg19
(lp625
sg21
I0
sba(iArchitecture
Entity
p626
(dp627
g11
(lp628
sg13
S'android.content.res.AssetFileDescriptor$1'
p629
sg15
(lp630
sg17
(lp631
sg19
(lp632
sg21
I0
sba(iArchitecture
Entity
p633
(dp634
g11
(lp635
sg13
S'android.content.res.AssetFileDescriptor$AutoCloseInputStream'
p636
sg15
(lp637
sg17
(lp638
sg19
(lp639
sg21
I0
sba(iArchitecture
Entity
p640
(dp641
g11
(lp642
sg13
S'android.content.res.AssetFileDescriptor$AutoCloseOutputStream'
p643
sg15
(lp644
sg17
(lp645
sg19
(lp646
sg21
I0
sbasg50
(lp647
g622
ag629
ag636
ag643
asg21
I0
sg52
S'978'
p648
sba(iArchitecture
Cluster
p649
(dp650
g7
(lp651
(iArchitecture
Entity
p652
(dp653
g11
(lp654
sg13
S'android.renderscript.Element'
p655
sg15
(lp656
sg17
(lp657
sg19
(lp658
sg21
I0
sba(iArchitecture
Entity
p659
(dp660
g11
(lp661
sg13
S'android.renderscript.Element$Builder'
p662
sg15
(lp663
sg17
(lp664
sg19
(lp665
sg21
I0
sba(iArchitecture
Entity
p666
(dp667
g11
(lp668
sg13
S'android.renderscript.Element$DataKind'
p669
sg15
(lp670
sg17
(lp671
sg19
(lp672
sg21
I0
sba(iArchitecture
Entity
p673
(dp674
g11
(lp675
sg13
S'android.renderscript.Element$DataType'
p676
sg15
(lp677
sg17
(lp678
sg19
(lp679
sg21
I0
sbasg50
(lp680
g655
ag662
ag669
ag676
asg21
I0
sg52
S'979'
p681
sba(iArchitecture
Cluster
p682
(dp683
g7
(lp684
(iArchitecture
Entity
p685
(dp686
g11
(lp687
sg13
S'android.net.wifi.p2p.WifiP2pGroupList'
p688
sg15
(lp689
sg17
(lp690
sg19
(lp691
sg21
I0
sba(iArchitecture
Entity
p692
(dp693
g11
(lp694
sg13
S'android.net.wifi.p2p.WifiP2pGroupList$1'
p695
sg15
(lp696
sg17
(lp697
sg19
(lp698
sg21
I0
sba(iArchitecture
Entity
p699
(dp700
g11
(lp701
sg13
S'android.net.wifi.p2p.WifiP2pGroupList$2'
p702
sg15
(lp703
sg17
(lp704
sg19
(lp705
sg21
I0
sba(iArchitecture
Entity
p706
(dp707
g11
(lp708
sg13
S'android.net.wifi.p2p.WifiP2pGroupList$GroupDeleteListener'
p709
sg15
(lp710
sg17
(lp711
sg19
(lp712
sg21
I0
sbasg50
(lp713
g688
ag695
ag702
ag709
asg21
I0
sg52
S'997'
p714
sbasS'target_sub'
p715
S'97'
p716
sg50
(lp717
sS'is_component_arch'
p718
I01
sg52
S'7.0.0_r1'
p719
sba.