(lp0
(iArchitecture
Architecture
p1
(dp2
S'clusters'
p3
(lp4
(iArchitecture
Cluster
p5
(dp6
S'entities'
p7
(lp8
(iArchitecture
Entity
p9
(dp10
S'issue_ids'
p11
(lp12
sS'name'
p13
S'com.android.server.pm.ShortcutUser'
p14
sS'descs'
p15
(lp16
sS'labels'
p17
(lp18
sS'titles'
p19
(lp20
sS'change'
p21
I0
sba(iArchitecture
Entity
p22
(dp23
g11
(lp24
sg13
S'com.android.server.pm.ShortcutUser$PackageWithUser'
p25
sg15
(lp26
sg17
(lp27
sg19
(lp28
sg21
I0
sba(iArchitecture
Entity
p29
(dp30
g11
(lp31
sg13
S'com.android.server.pm.ShortcutUser$_void_attemptToRestoreIfNeededAndSave_com_android_server_pm_ShortcutService_s_java_lang_String_packageName_int_packageUserId_LambdaImpl0'
p32
sg15
(lp33
sg17
(lp34
sg19
(lp35
sg21
I0
sba(iArchitecture
Entity
p36
(dp37
g11
(lp38
sg13
S'com.android.server.pm.ShortcutUser$_void_forPackageItem_java_lang_String_packageName_int_packageUserId_java_util_function_Consumer_callback_LambdaImpl0'
p39
sg15
(lp40
sg17
(lp41
sg19
(lp42
sg21
I0
sba(iArchitecture
Entity
p43
(dp44
g11
(lp45
sg13
S'com.android.server.pm.ShortcutUser$_void_resetThrottlingIfNeeded_com_android_server_pm_ShortcutService_s_LambdaImpl0'
p46
sg15
(lp47
sg17
(lp48
sg19
(lp49
sg21
I0
sbasS'classes'
p50
(lp51
g14
ag25
ag32
ag39
ag46
asg21
I0
sS'label'
p52
S'1069'
p53
sba(iArchitecture
Cluster
p54
(dp55
g7
(lp56
(iArchitecture
Entity
p57
(dp58
g11
(lp59
sg13
S'android.transition.ChangeText'
p60
sg15
(lp61
sg17
(lp62
sg19
(lp63
sg21
I0
sba(iArchitecture
Entity
p64
(dp65
g11
(lp66
sg13
S'android.transition.ChangeText$1'
p67
sg15
(lp68
sg17
(lp69
sg19
(lp70
sg21
I0
sba(iArchitecture
Entity
p71
(dp72
g11
(lp73
sg13
S'android.transition.ChangeText$2'
p74
sg15
(lp75
sg17
(lp76
sg19
(lp77
sg21
I0
sba(iArchitecture
Entity
p78
(dp79
g11
(lp80
sg13
S'android.transition.ChangeText$3'
p81
sg15
(lp82
sg17
(lp83
sg19
(lp84
sg21
I0
sba(iArchitecture
Entity
p85
(dp86
g11
(lp87
sg13
S'android.transition.ChangeText$4'
p88
sg15
(lp89
sg17
(lp90
sg19
(lp91
sg21
I0
sba(iArchitecture
Entity
p92
(dp93
g11
(lp94
sg13
S'android.transition.ChangeText$5'
p95
sg15
(lp96
sg17
(lp97
sg19
(lp98
sg21
I0
sba(iArchitecture
Entity
p99
(dp100
g11
(lp101
sg13
S'android.transition.ChangeText$6'
p102
sg15
(lp103
sg17
(lp104
sg19
(lp105
sg21
I0
sbasg50
(lp106
g60
ag67
ag74
ag81
ag88
ag95
ag102
asg21
I0
sg52
S'1169'
p107
sba(iArchitecture
Cluster
p108
(dp109
g7
(lp110
(iArchitecture
Entity
p111
(dp112
g11
(lp113
sg13
S'android.opengl.GLException'
p114
sg15
(lp115
sg17
(lp116
sg19
(lp117
sg21
I0
sba(iArchitecture
Entity
p118
(dp119
g11
(lp120
sg13
S'android.text.style.TabStopSpan'
p121
sg15
(lp122
sg17
(lp123
sg19
(lp124
sg21
I0
sba(iArchitecture
Entity
p125
(dp126
g11
(lp127
sg13
S'android.text.style.TabStopSpan$Standard'
p128
sg15
(lp129
sg17
(lp130
sg19
(lp131
sg21
I0
sbasg50
(lp132
g114
ag121
ag128
asg21
I0
sg52
S'1269'
p133
sba(iArchitecture
Cluster
p134
(dp135
g7
(lp136
(iArchitecture
Entity
p137
(dp138
g11
(lp139
sg13
S'android.media.midi.MidiPortImpl'
p140
sg15
(lp141
sg17
(lp142
sg19
(lp143
sg21
I0
sba(iArchitecture
Entity
p144
(dp145
g11
(lp146
sg13
S'android.media.midi.MidiReceiver'
p147
sg15
(lp148
sg17
(lp149
sg19
(lp150
sg21
I0
sba(iArchitecture
Entity
p151
(dp152
g11
(lp153
sg13
S'android.net.apf.ApfCapabilities'
p154
sg15
(lp155
sg17
(lp156
sg19
(lp157
sg21
I0
sba(iArchitecture
Entity
p158
(dp159
g11
(lp160
sg13
S'android.net.dhcp.DhcpAckPacket'
p161
sg15
(lp162
sg17
(lp163
sg19
(lp164
sg21
I0
sba(iArchitecture
Entity
p165
(dp166
g11
(lp167
sg13
S'android.net.dhcp.DhcpDeclinePacket'
p168
sg15
(lp169
sg17
(lp170
sg19
(lp171
sg21
I0
sba(iArchitecture
Entity
p172
(dp173
g11
(lp174
sg13
S'android.net.dhcp.DhcpDiscoverPacket'
p175
sg15
(lp176
sg17
(lp177
sg19
(lp178
sg21
I0
sba(iArchitecture
Entity
p179
(dp180
g11
(lp181
sg13
S'android.net.dhcp.DhcpInformPacket'
p182
sg15
(lp183
sg17
(lp184
sg19
(lp185
sg21
I0
sba(iArchitecture
Entity
p186
(dp187
g11
(lp188
sg13
S'android.net.dhcp.DhcpNakPacket'
p189
sg15
(lp190
sg17
(lp191
sg19
(lp192
sg21
I0
sba(iArchitecture
Entity
p193
(dp194
g11
(lp195
sg13
S'android.net.dhcp.DhcpOfferPacket'
p196
sg15
(lp197
sg17
(lp198
sg19
(lp199
sg21
I0
sba(iArchitecture
Entity
p200
(dp201
g11
(lp202
sg13
S'android.net.dhcp.DhcpRequestPacket'
p203
sg15
(lp204
sg17
(lp205
sg19
(lp206
sg21
I0
sba(iArchitecture
Entity
p207
(dp208
g11
(lp209
sg13
S'android.net.metrics.DhcpClientEvent'
p210
sg15
(lp211
sg17
(lp212
sg19
(lp213
sg21
I0
sba(iArchitecture
Entity
p214
(dp215
g11
(lp216
sg13
S'android.net.metrics.DhcpClientEvent$1'
p217
sg15
(lp218
sg17
(lp219
sg19
(lp220
sg21
I0
sba(iArchitecture
Entity
p221
(dp222
g11
(lp223
sg13
S'android.net.metrics.IpReachabilityEvent'
p224
sg15
(lp225
sg17
(lp226
sg19
(lp227
sg21
I0
sba(iArchitecture
Entity
p228
(dp229
g11
(lp230
sg13
S'android.net.metrics.IpReachabilityEvent$1'
p231
sg15
(lp232
sg17
(lp233
sg19
(lp234
sg21
I0
sba(iArchitecture
Entity
p235
(dp236
g11
(lp237
sg13
S'android.net.metrics.IpReachabilityEvent$Decoder'
p238
sg15
(lp239
sg17
(lp240
sg19
(lp241
sg21
I0
sba(iArchitecture
Entity
p242
(dp243
g11
(lp244
sg13
S'android.net.metrics.ValidationProbeEvent'
p245
sg15
(lp246
sg17
(lp247
sg19
(lp248
sg21
I0
sba(iArchitecture
Entity
p249
(dp250
g11
(lp251
sg13
S'android.net.metrics.ValidationProbeEvent$1'
p252
sg15
(lp253
sg17
(lp254
sg19
(lp255
sg21
I0
sba(iArchitecture
Entity
p256
(dp257
g11
(lp258
sg13
S'android.net.metrics.ValidationProbeEvent$Decoder'
p259
sg15
(lp260
sg17
(lp261
sg19
(lp262
sg21
I0
sba(iArchitecture
Entity
p263
(dp264
g11
(lp265
sg13
S'com.android.server.statusbar.StatusBarShellCommand'
p266
sg15
(lp267
sg17
(lp268
sg19
(lp269
sg21
I0
sba(iArchitecture
Entity
p270
(dp271
g11
(lp272
sg13
S'com.android.server.usb.UsbAudioDevice'
p273
sg15
(lp274
sg17
(lp275
sg19
(lp276
sg21
I0
sbasg50
(lp277
g140
ag147
ag154
ag161
ag168
ag175
ag182
ag189
ag196
ag203
ag210
ag217
ag224
ag231
ag238
ag245
ag252
ag259
ag266
ag273
asg21
I0
sg52
S'1369'
p278
sba(iArchitecture
Cluster
p279
(dp280
g7
(lp281
(iArchitecture
Entity
p282
(dp283
g11
(lp284
sg13
S'android.database.sqlite.SQLiteQuery'
p285
sg15
(lp286
sg17
(lp287
sg19
(lp288
sg21
I0
sbasg50
(lp289
g285
asg21
I0
sg52
S'169'
p290
sba(iArchitecture
Cluster
p291
(dp292
g7
(lp293
(iArchitecture
Entity
p294
(dp295
g11
(lp296
sg13
S'com.android.server.am.ActivityManagerDebugConfig'
p297
sg15
(lp298
sg17
(lp299
sg19
(lp300
sg21
I0
sbasg50
(lp301
g297
asg21
I0
sg52
S'269'
p302
sba(iArchitecture
Cluster
p303
(dp304
g7
(lp305
(iArchitecture
Entity
p306
(dp307
g11
(lp308
sg13
S'android.provider.SearchIndexableData'
p309
sg15
(lp310
sg17
(lp311
sg19
(lp312
sg21
I0
sbasg50
(lp313
g309
asg21
I0
sg52
S'369'
p314
sba(iArchitecture
Cluster
p315
(dp316
g7
(lp317
(iArchitecture
Entity
p318
(dp319
g11
(lp320
sg13
S'android.media.MediaFormat'
p321
sg15
(lp322
sg17
(lp323
sg19
(lp324
sg21
I0
sbasg50
(lp325
g321
asg21
I0
sg52
S'469'
p326
sba(iArchitecture
Cluster
p327
(dp328
g7
(lp329
(iArchitecture
Entity
p330
(dp331
g11
(lp332
sg13
S'com.android.server.trust.TrustArchive'
p333
sg15
(lp334
sg17
(lp335
sg19
(lp336
sg21
I0
sba(iArchitecture
Entity
p337
(dp338
g11
(lp339
sg13
S'com.android.server.trust.TrustArchive$Event'
p340
sg15
(lp341
sg17
(lp342
sg19
(lp343
sg21
I0
sbasg50
(lp344
g333
ag340
asg21
I0
sg52
S'569'
p345
sba(iArchitecture
Cluster
p346
(dp347
g7
(lp348
(iArchitecture
Entity
p349
(dp350
g11
(lp351
sg13
S'android.speech.tts.UtteranceProgressListener'
p352
sg15
(lp353
sg17
(lp354
sg19
(lp355
sg21
I0
sba(iArchitecture
Entity
p356
(dp357
g11
(lp358
sg13
S'android.speech.tts.UtteranceProgressListener$1'
p359
sg15
(lp360
sg17
(lp361
sg19
(lp362
sg21
I0
sbasg50
(lp363
g352
ag359
asg21
I0
sg52
S'669'
p364
sba(iArchitecture
Cluster
p365
(dp366
g7
(lp367
(iArchitecture
Entity
p368
(dp369
g11
(lp370
sg13
S'android.nfc.ErrorCodes'
p371
sg15
(lp372
sg17
(lp373
sg19
(lp374
sg21
I0
sbasg50
(lp375
g371
asg21
I0
sg52
S'69'
p376
sba(iArchitecture
Cluster
p377
(dp378
g7
(lp379
(iArchitecture
Entity
p380
(dp381
g11
(lp382
sg13
S'android.database.CursorJoiner'
p383
sg15
(lp384
sg17
(lp385
sg19
(lp386
sg21
I0
sba(iArchitecture
Entity
p387
(dp388
g11
(lp389
sg13
S'android.database.CursorJoiner$Result'
p390
sg15
(lp391
sg17
(lp392
sg19
(lp393
sg21
I0
sbasg50
(lp394
g383
ag390
asg21
I0
sg52
S'690'
p395
sba(iArchitecture
Cluster
p396
(dp397
g7
(lp398
(iArchitecture
Entity
p399
(dp400
g11
(lp401
sg13
S'android.hardware.radio.RadioTuner'
p402
sg15
(lp403
sg17
(lp404
sg19
(lp405
sg21
I0
sba(iArchitecture
Entity
p406
(dp407
g11
(lp408
sg13
S'android.hardware.radio.RadioTuner$Callback'
p409
sg15
(lp410
sg17
(lp411
sg19
(lp412
sg21
I0
sbasg50
(lp413
g402
ag409
asg21
I0
sg52
S'691'
p414
sba(iArchitecture
Cluster
p415
(dp416
g7
(lp417
(iArchitecture
Entity
p418
(dp419
g11
(lp420
sg13
S'android.app.usage.NetworkStats'
p421
sg15
(lp422
sg17
(lp423
sg19
(lp424
sg21
I0
sba(iArchitecture
Entity
p425
(dp426
g11
(lp427
sg13
S'android.app.usage.NetworkStats$Bucket'
p428
sg15
(lp429
sg17
(lp430
sg19
(lp431
sg21
I0
sbasg50
(lp432
g421
ag428
asg21
I0
sg52
S'692'
p433
sba(iArchitecture
Cluster
p434
(dp435
g7
(lp436
(iArchitecture
Entity
p437
(dp438
g11
(lp439
sg13
S'android.location.Criteria'
p440
sg15
(lp441
sg17
(lp442
sg19
(lp443
sg21
I0
sba(iArchitecture
Entity
p444
(dp445
g11
(lp446
sg13
S'android.location.Criteria$1'
p447
sg15
(lp448
sg17
(lp449
sg19
(lp450
sg21
I0
sbasg50
(lp451
g440
ag447
asg21
I0
sg52
S'693'
p452
sba(iArchitecture
Cluster
p453
(dp454
g7
(lp455
(iArchitecture
Entity
p456
(dp457
g11
(lp458
sg13
S'android.telephony.IccOpenLogicalChannelResponse'
p459
sg15
(lp460
sg17
(lp461
sg19
(lp462
sg21
I0
sba(iArchitecture
Entity
p463
(dp464
g11
(lp465
sg13
S'android.telephony.IccOpenLogicalChannelResponse$1'
p466
sg15
(lp467
sg17
(lp468
sg19
(lp469
sg21
I0
sbasg50
(lp470
g459
ag466
asg21
I0
sg52
S'694'
p471
sba(iArchitecture
Cluster
p472
(dp473
g7
(lp474
(iArchitecture
Entity
p475
(dp476
g11
(lp477
sg13
S'android.telecom.ParcelableConference'
p478
sg15
(lp479
sg17
(lp480
sg19
(lp481
sg21
I0
sba(iArchitecture
Entity
p482
(dp483
g11
(lp484
sg13
S'android.telecom.ParcelableConference$1'
p485
sg15
(lp486
sg17
(lp487
sg19
(lp488
sg21
I0
sbasg50
(lp489
g478
ag485
asg21
I0
sg52
S'695'
p490
sba(iArchitecture
Cluster
p491
(dp492
g7
(lp493
(iArchitecture
Entity
p494
(dp495
g11
(lp496
sg13
S'android.os.Message'
p497
sg15
(lp498
sg17
(lp499
sg19
(lp500
sg21
I0
sba(iArchitecture
Entity
p501
(dp502
g11
(lp503
sg13
S'android.os.Message$1'
p504
sg15
(lp505
sg17
(lp506
sg19
(lp507
sg21
I0
sbasg50
(lp508
g497
ag504
asg21
I0
sg52
S'696'
p509
sba(iArchitecture
Cluster
p510
(dp511
g7
(lp512
(iArchitecture
Entity
p513
(dp514
g11
(lp515
sg13
S'com.android.internal.util.CallbackRegistry'
p516
sg15
(lp517
sg17
(lp518
sg19
(lp519
sg21
I0
sba(iArchitecture
Entity
p520
(dp521
g11
(lp522
sg13
S'com.android.internal.util.CallbackRegistry$NotifierCallback'
p523
sg15
(lp524
sg17
(lp525
sg19
(lp526
sg21
I0
sbasg50
(lp527
g516
ag523
asg21
I0
sg52
S'697'
p528
sba(iArchitecture
Cluster
p529
(dp530
g7
(lp531
(iArchitecture
Entity
p532
(dp533
g11
(lp534
sg13
S'android.os.WorkSource'
p535
sg15
(lp536
sg17
(lp537
sg19
(lp538
sg21
I0
sba(iArchitecture
Entity
p539
(dp540
g11
(lp541
sg13
S'android.os.WorkSource$1'
p542
sg15
(lp543
sg17
(lp544
sg19
(lp545
sg21
I0
sbasg50
(lp546
g535
ag542
asg21
I0
sg52
S'698'
p547
sba(iArchitecture
Cluster
p548
(dp549
g7
(lp550
(iArchitecture
Entity
p551
(dp552
g11
(lp553
sg13
S'android.view.inputmethod.InputMethodInfo'
p554
sg15
(lp555
sg17
(lp556
sg19
(lp557
sg21
I0
sba(iArchitecture
Entity
p558
(dp559
g11
(lp560
sg13
S'android.view.inputmethod.InputMethodInfo$1'
p561
sg15
(lp562
sg17
(lp563
sg19
(lp564
sg21
I0
sbasg50
(lp565
g554
ag561
asg21
I0
sg52
S'699'
p566
sba(iArchitecture
Cluster
p567
(dp568
g7
(lp569
(iArchitecture
Entity
p570
(dp571
g11
(lp572
sg13
S'android.hardware.camera2.params.VendorTagDescriptor'
p573
sg15
(lp574
sg17
(lp575
sg19
(lp576
sg21
I0
sba(iArchitecture
Entity
p577
(dp578
g11
(lp579
sg13
S'android.hardware.camera2.params.VendorTagDescriptor$1'
p580
sg15
(lp581
sg17
(lp582
sg19
(lp583
sg21
I0
sbasg50
(lp584
g573
ag580
asg21
I0
sg52
S'769'
p585
sba(iArchitecture
Cluster
p586
(dp587
g7
(lp588
(iArchitecture
Entity
p589
(dp590
g11
(lp591
sg13
S'com.android.internal.os.ProcessCpuTracker'
p592
sg15
(lp593
sg17
(lp594
sg19
(lp595
sg21
I0
sba(iArchitecture
Entity
p596
(dp597
g11
(lp598
sg13
S'com.android.internal.os.ProcessCpuTracker$1'
p599
sg15
(lp600
sg17
(lp601
sg19
(lp602
sg21
I0
sba(iArchitecture
Entity
p603
(dp604
g11
(lp605
sg13
S'com.android.internal.os.ProcessCpuTracker$Stats'
p606
sg15
(lp607
sg17
(lp608
sg19
(lp609
sg21
I0
sbasg50
(lp610
g592
ag599
ag606
asg21
I0
sg52
S'869'
p611
sba(iArchitecture
Cluster
p612
(dp613
g7
(lp614
(iArchitecture
Entity
p615
(dp616
g11
(lp617
sg13
S'com.android.server.job.controllers.TimeController'
p618
sg15
(lp619
sg17
(lp620
sg19
(lp621
sg21
I0
sba(iArchitecture
Entity
p622
(dp623
g11
(lp624
sg13
S'com.android.server.job.controllers.TimeController$1'
p625
sg15
(lp626
sg17
(lp627
sg19
(lp628
sg21
I0
sba(iArchitecture
Entity
p629
(dp630
g11
(lp631
sg13
S'com.android.server.job.controllers.TimeController$2'
p632
sg15
(lp633
sg17
(lp634
sg19
(lp635
sg21
I0
sbasg50
(lp636
g618
ag625
ag632
asg21
I0
sg52
S'969'
p637
sbasS'target_sub'
p638
S'69'
p639
sg50
(lp640
sS'is_component_arch'
p641
I01
sg52
S'7.0.0_r1'
p642
sba.