(lp0
(iArchitecture
Architecture
p1
(dp2
S'clusters'
p3
(lp4
(iArchitecture
Cluster
p5
(dp6
S'entities'
p7
(lp8
(iArchitecture
Entity
p9
(dp10
S'issue_ids'
p11
(lp12
sS'name'
p13
S'com.android.server.policy.WindowOrientationListener'
p14
sS'descs'
p15
(lp16
sS'labels'
p17
(lp18
sS'titles'
p19
(lp20
sS'change'
p21
I0
sba(iArchitecture
Entity
p22
(dp23
g11
(lp24
sg13
S'com.android.server.policy.WindowOrientationListener$AccelSensorJudge'
p25
sg15
(lp26
sg17
(lp27
sg19
(lp28
sg21
I0
sba(iArchitecture
Entity
p29
(dp30
g11
(lp31
sg13
S'com.android.server.policy.WindowOrientationListener$OrientationJudge'
p32
sg15
(lp33
sg17
(lp34
sg19
(lp35
sg21
I0
sba(iArchitecture
Entity
p36
(dp37
g11
(lp38
sg13
S'com.android.server.policy.WindowOrientationListener$OrientationSensorJudge'
p39
sg15
(lp40
sg17
(lp41
sg19
(lp42
sg21
I0
sba(iArchitecture
Entity
p43
(dp44
g11
(lp45
sg13
S'com.android.server.policy.WindowOrientationListener$OrientationSensorJudge$1'
p46
sg15
(lp47
sg17
(lp48
sg19
(lp49
sg21
I0
sbasS'classes'
p50
(lp51
g14
ag25
ag32
ag39
ag46
asg21
I0
sS'label'
p52
S'1072'
p53
sba(iArchitecture
Cluster
p54
(dp55
g7
(lp56
(iArchitecture
Entity
p57
(dp58
g11
(lp59
sg13
S'com.android.server.location.GnssStatusListenerHelper'
p60
sg15
(lp61
sg17
(lp62
sg19
(lp63
sg21
I0
sba(iArchitecture
Entity
p64
(dp65
g11
(lp66
sg13
S'com.android.server.location.GnssStatusListenerHelper$1'
p67
sg15
(lp68
sg17
(lp69
sg19
(lp70
sg21
I0
sba(iArchitecture
Entity
p71
(dp72
g11
(lp73
sg13
S'com.android.server.location.GnssStatusListenerHelper$2'
p74
sg15
(lp75
sg17
(lp76
sg19
(lp77
sg21
I0
sba(iArchitecture
Entity
p78
(dp79
g11
(lp80
sg13
S'com.android.server.location.GnssStatusListenerHelper$3'
p81
sg15
(lp82
sg17
(lp83
sg19
(lp84
sg21
I0
sba(iArchitecture
Entity
p85
(dp86
g11
(lp87
sg13
S'com.android.server.location.GnssStatusListenerHelper$4'
p88
sg15
(lp89
sg17
(lp90
sg19
(lp91
sg21
I0
sba(iArchitecture
Entity
p92
(dp93
g11
(lp94
sg13
S'com.android.server.location.GnssStatusListenerHelper$5'
p95
sg15
(lp96
sg17
(lp97
sg19
(lp98
sg21
I0
sba(iArchitecture
Entity
p99
(dp100
g11
(lp101
sg13
S'com.android.server.location.GnssStatusListenerHelper$Operation'
p102
sg15
(lp103
sg17
(lp104
sg19
(lp105
sg21
I0
sbasg50
(lp106
g60
ag67
ag74
ag81
ag88
ag95
ag102
asg21
I0
sg52
S'1172'
p107
sba(iArchitecture
Cluster
p108
(dp109
g7
(lp110
(iArchitecture
Entity
p111
(dp112
g11
(lp113
sg13
S'com.android.server.wm.CircularDisplayMask'
p114
sg15
(lp115
sg17
(lp116
sg19
(lp117
sg21
I0
sba(iArchitecture
Entity
p118
(dp119
g11
(lp120
sg13
S'com.android.server.wm.EmulatorDisplayOverlay'
p121
sg15
(lp122
sg17
(lp123
sg19
(lp124
sg21
I0
sba(iArchitecture
Entity
p125
(dp126
g11
(lp127
sg13
S'com.android.server.wm.StrictModeFlash'
p128
sg15
(lp129
sg17
(lp130
sg19
(lp131
sg21
I0
sba(iArchitecture
Entity
p132
(dp133
g11
(lp134
sg13
S'com.android.server.wm.Watermark'
p135
sg15
(lp136
sg17
(lp137
sg19
(lp138
sg21
I0
sbasg50
(lp139
g114
ag121
ag128
ag135
asg21
I0
sg52
S'1272'
p140
sba(iArchitecture
Cluster
p141
(dp142
g7
(lp143
(iArchitecture
Entity
p144
(dp145
g11
(lp146
sg13
S'android.os.health.HealthKeys'
p147
sg15
(lp148
sg17
(lp149
sg19
(lp150
sg21
I0
sba(iArchitecture
Entity
p151
(dp152
g11
(lp153
sg13
S'android.os.health.HealthKeys$Constant'
p154
sg15
(lp155
sg17
(lp156
sg19
(lp157
sg21
I0
sba(iArchitecture
Entity
p158
(dp159
g11
(lp160
sg13
S'android.os.health.HealthKeys$Constants'
p161
sg15
(lp162
sg17
(lp163
sg19
(lp164
sg21
I0
sba(iArchitecture
Entity
p165
(dp166
g11
(lp167
sg13
S'android.os.health.HealthKeys$SortedIntArray'
p168
sg15
(lp169
sg17
(lp170
sg19
(lp171
sg21
I0
sba(iArchitecture
Entity
p172
(dp173
g11
(lp174
sg13
S'android.os.health.PackageHealthStats'
p175
sg15
(lp176
sg17
(lp177
sg19
(lp178
sg21
I0
sba(iArchitecture
Entity
p179
(dp180
g11
(lp181
sg13
S'android.os.health.ProcessHealthStats'
p182
sg15
(lp183
sg17
(lp184
sg19
(lp185
sg21
I0
sba(iArchitecture
Entity
p186
(dp187
g11
(lp188
sg13
S'android.os.health.ServiceHealthStats'
p189
sg15
(lp190
sg17
(lp191
sg19
(lp192
sg21
I0
sbasg50
(lp193
g147
ag154
ag161
ag168
ag175
ag182
ag189
asg21
I0
sg52
S'1372'
p194
sba(iArchitecture
Cluster
p195
(dp196
g7
(lp197
(iArchitecture
Entity
p198
(dp199
g11
(lp200
sg13
S'android.opengl.Matrix'
p201
sg15
(lp202
sg17
(lp203
sg19
(lp204
sg21
I0
sbasg50
(lp205
g201
asg21
I0
sg52
S'172'
p206
sba(iArchitecture
Cluster
p207
(dp208
g7
(lp209
(iArchitecture
Entity
p210
(dp211
g11
(lp212
sg13
S'android.speech.tts.SynthesisRequest'
p213
sg15
(lp214
sg17
(lp215
sg19
(lp216
sg21
I0
sbasg50
(lp217
g213
asg21
I0
sg52
S'272'
p218
sba(iArchitecture
Cluster
p219
(dp220
g7
(lp221
(iArchitecture
Entity
p222
(dp223
g11
(lp224
sg13
S'android.security.keystore.ArrayUtils'
p225
sg15
(lp226
sg17
(lp227
sg19
(lp228
sg21
I0
sbasg50
(lp229
g225
asg21
I0
sg52
S'372'
p230
sba(iArchitecture
Cluster
p231
(dp232
g7
(lp233
(iArchitecture
Entity
p234
(dp235
g11
(lp236
sg13
S'android.preference.PreferenceGroup'
p237
sg15
(lp238
sg17
(lp239
sg19
(lp240
sg21
I0
sbasg50
(lp241
g237
asg21
I0
sg52
S'472'
p242
sba(iArchitecture
Cluster
p243
(dp244
g7
(lp245
(iArchitecture
Entity
p246
(dp247
g11
(lp248
sg13
S'android.media.AudioPortEventHandler'
p249
sg15
(lp250
sg17
(lp251
sg19
(lp252
sg21
I0
sba(iArchitecture
Entity
p253
(dp254
g11
(lp255
sg13
S'android.media.AudioPortEventHandler$1'
p256
sg15
(lp257
sg17
(lp258
sg19
(lp259
sg21
I0
sbasg50
(lp260
g249
ag256
asg21
I0
sg52
S'572'
p261
sba(iArchitecture
Cluster
p262
(dp263
g7
(lp264
(iArchitecture
Entity
p265
(dp266
g11
(lp267
sg13
S'com.android.server.policy.ShortcutManager'
p268
sg15
(lp269
sg17
(lp270
sg19
(lp271
sg21
I0
sba(iArchitecture
Entity
p272
(dp273
g11
(lp274
sg13
S'com.android.server.policy.ShortcutManager$ShortcutInfo'
p275
sg15
(lp276
sg17
(lp277
sg19
(lp278
sg21
I0
sbasg50
(lp279
g268
ag275
asg21
I0
sg52
S'672'
p280
sba(iArchitecture
Cluster
p281
(dp282
g7
(lp283
(iArchitecture
Entity
p284
(dp285
g11
(lp286
sg13
S'android.view.animation.TranslateAnimation'
p287
sg15
(lp288
sg17
(lp289
sg19
(lp290
sg21
I0
sbasg50
(lp291
g287
asg21
I0
sg52
S'72'
p292
sba(iArchitecture
Cluster
p293
(dp294
g7
(lp295
(iArchitecture
Entity
p296
(dp297
g11
(lp298
sg13
S'android.animation.TimeAnimator'
p299
sg15
(lp300
sg17
(lp301
sg19
(lp302
sg21
I0
sba(iArchitecture
Entity
p303
(dp304
g11
(lp305
sg13
S'android.animation.TimeAnimator$TimeListener'
p306
sg15
(lp307
sg17
(lp308
sg19
(lp309
sg21
I0
sbasg50
(lp310
g299
ag306
asg21
I0
sg52
S'720'
p311
sba(iArchitecture
Cluster
p312
(dp313
g7
(lp314
(iArchitecture
Entity
p315
(dp316
g11
(lp317
sg13
S'android.security.keymaster.KeymasterArgument'
p318
sg15
(lp319
sg17
(lp320
sg19
(lp321
sg21
I0
sba(iArchitecture
Entity
p322
(dp323
g11
(lp324
sg13
S'android.security.keymaster.KeymasterArgument$1'
p325
sg15
(lp326
sg17
(lp327
sg19
(lp328
sg21
I0
sbasg50
(lp329
g318
ag325
asg21
I0
sg52
S'721'
p330
sba(iArchitecture
Cluster
p331
(dp332
g7
(lp333
(iArchitecture
Entity
p334
(dp335
g11
(lp336
sg13
S'android.database.MatrixCursor'
p337
sg15
(lp338
sg17
(lp339
sg19
(lp340
sg21
I0
sba(iArchitecture
Entity
p341
(dp342
g11
(lp343
sg13
S'android.database.MatrixCursor$RowBuilder'
p344
sg15
(lp345
sg17
(lp346
sg19
(lp347
sg21
I0
sbasg50
(lp348
g337
ag344
asg21
I0
sg52
S'722'
p349
sba(iArchitecture
Cluster
p350
(dp351
g7
(lp352
(iArchitecture
Entity
p353
(dp354
g11
(lp355
sg13
S'android.widget.AnalogClock'
p356
sg15
(lp357
sg17
(lp358
sg19
(lp359
sg21
I0
sba(iArchitecture
Entity
p360
(dp361
g11
(lp362
sg13
S'android.widget.AnalogClock$1'
p363
sg15
(lp364
sg17
(lp365
sg19
(lp366
sg21
I0
sbasg50
(lp367
g356
ag363
asg21
I0
sg52
S'723'
p368
sba(iArchitecture
Cluster
p369
(dp370
g7
(lp371
(iArchitecture
Entity
p372
(dp373
g11
(lp374
sg13
S'com.android.server.accessibility.MotionEventInjector'
p375
sg15
(lp376
sg17
(lp377
sg19
(lp378
sg21
I0
sba(iArchitecture
Entity
p379
(dp380
g11
(lp381
sg13
S'com.android.server.accessibility.MotionEventInjector$Callback'
p382
sg15
(lp383
sg17
(lp384
sg19
(lp385
sg21
I0
sbasg50
(lp386
g375
ag382
asg21
I0
sg52
S'724'
p387
sba(iArchitecture
Cluster
p388
(dp389
g7
(lp390
(iArchitecture
Entity
p391
(dp392
g11
(lp393
sg13
S'android.hardware.input.TouchCalibration'
p394
sg15
(lp395
sg17
(lp396
sg19
(lp397
sg21
I0
sba(iArchitecture
Entity
p398
(dp399
g11
(lp400
sg13
S'android.hardware.input.TouchCalibration$1'
p401
sg15
(lp402
sg17
(lp403
sg19
(lp404
sg21
I0
sbasg50
(lp405
g394
ag401
asg21
I0
sg52
S'725'
p406
sba(iArchitecture
Cluster
p407
(dp408
g7
(lp409
(iArchitecture
Entity
p410
(dp411
g11
(lp412
sg13
S'android.view.textservice.SpellCheckerSubtype'
p413
sg15
(lp414
sg17
(lp415
sg19
(lp416
sg21
I0
sba(iArchitecture
Entity
p417
(dp418
g11
(lp419
sg13
S'android.view.textservice.SpellCheckerSubtype$1'
p420
sg15
(lp421
sg17
(lp422
sg19
(lp423
sg21
I0
sbasg50
(lp424
g413
ag420
asg21
I0
sg52
S'726'
p425
sba(iArchitecture
Cluster
p426
(dp427
g7
(lp428
(iArchitecture
Entity
p429
(dp430
g11
(lp431
sg13
S'com.android.internal.widget.ActionBarContextView'
p432
sg15
(lp433
sg17
(lp434
sg19
(lp435
sg21
I0
sba(iArchitecture
Entity
p436
(dp437
g11
(lp438
sg13
S'com.android.internal.widget.ActionBarContextView$1'
p439
sg15
(lp440
sg17
(lp441
sg19
(lp442
sg21
I0
sbasg50
(lp443
g432
ag439
asg21
I0
sg52
S'727'
p444
sba(iArchitecture
Cluster
p445
(dp446
g7
(lp447
(iArchitecture
Entity
p448
(dp449
g11
(lp450
sg13
S'android.view.PointerIcon'
p451
sg15
(lp452
sg17
(lp453
sg19
(lp454
sg21
I0
sba(iArchitecture
Entity
p455
(dp456
g11
(lp457
sg13
S'android.view.PointerIcon$1'
p458
sg15
(lp459
sg17
(lp460
sg19
(lp461
sg21
I0
sbasg50
(lp462
g451
ag458
asg21
I0
sg52
S'728'
p463
sba(iArchitecture
Cluster
p464
(dp465
g7
(lp466
(iArchitecture
Entity
p467
(dp468
g11
(lp469
sg13
S'com.android.internal.telephony.IccCardConstants'
p470
sg15
(lp471
sg17
(lp472
sg19
(lp473
sg21
I0
sba(iArchitecture
Entity
p474
(dp475
g11
(lp476
sg13
S'com.android.internal.telephony.IccCardConstants$State'
p477
sg15
(lp478
sg17
(lp479
sg19
(lp480
sg21
I0
sbasg50
(lp481
g470
ag477
asg21
I0
sg52
S'729'
p482
sba(iArchitecture
Cluster
p483
(dp484
g7
(lp485
(iArchitecture
Entity
p486
(dp487
g11
(lp488
sg13
S'android.mtp.MtpObjectInfo'
p489
sg15
(lp490
sg17
(lp491
sg19
(lp492
sg21
I0
sba(iArchitecture
Entity
p493
(dp494
g11
(lp495
sg13
S'android.mtp.MtpObjectInfo$Builder'
p496
sg15
(lp497
sg17
(lp498
sg19
(lp499
sg21
I0
sbasg50
(lp500
g489
ag496
asg21
I0
sg52
S'772'
p501
sba(iArchitecture
Cluster
p502
(dp503
g7
(lp504
(iArchitecture
Entity
p505
(dp506
g11
(lp507
sg13
S'android.database.ContentObserver'
p508
sg15
(lp509
sg17
(lp510
sg19
(lp511
sg21
I0
sba(iArchitecture
Entity
p512
(dp513
g11
(lp514
sg13
S'android.database.ContentObserver$NotificationRunnable'
p515
sg15
(lp516
sg17
(lp517
sg19
(lp518
sg21
I0
sba(iArchitecture
Entity
p519
(dp520
g11
(lp521
sg13
S'android.database.ContentObserver$Transport'
p522
sg15
(lp523
sg17
(lp524
sg19
(lp525
sg21
I0
sbasg50
(lp526
g508
ag515
ag522
asg21
I0
sg52
S'872'
p527
sba(iArchitecture
Cluster
p528
(dp529
g7
(lp530
(iArchitecture
Entity
p531
(dp532
g11
(lp533
sg13
S'android.media.DecoderCapabilities'
p534
sg15
(lp535
sg17
(lp536
sg19
(lp537
sg21
I0
sba(iArchitecture
Entity
p538
(dp539
g11
(lp540
sg13
S'android.media.DecoderCapabilities$AudioDecoder'
p541
sg15
(lp542
sg17
(lp543
sg19
(lp544
sg21
I0
sba(iArchitecture
Entity
p545
(dp546
g11
(lp547
sg13
S'android.media.DecoderCapabilities$VideoDecoder'
p548
sg15
(lp549
sg17
(lp550
sg19
(lp551
sg21
I0
sbasg50
(lp552
g534
ag541
ag548
asg21
I0
sg52
S'972'
p553
sbasS'target_sub'
p554
S'72'
p555
sg50
(lp556
sS'is_component_arch'
p557
I01
sg52
S'7.0.0_r1'
p558
sba.