(lp0
(iArchitecture
Architecture
p1
(dp2
S'clusters'
p3
(lp4
(iArchitecture
Cluster
p5
(dp6
S'entities'
p7
(lp8
(iArchitecture
Entity
p9
(dp10
S'issue_ids'
p11
(lp12
sS'name'
p13
S'android.graphics.pdf.PdfDocument'
p14
sS'descs'
p15
(lp16
sS'labels'
p17
(lp18
sS'titles'
p19
(lp20
sS'change'
p21
I0
sba(iArchitecture
Entity
p22
(dp23
g11
(lp24
sg13
S'android.graphics.pdf.PdfDocument$Page'
p25
sg15
(lp26
sg17
(lp27
sg19
(lp28
sg21
I0
sba(iArchitecture
Entity
p29
(dp30
g11
(lp31
sg13
S'android.graphics.pdf.PdfDocument$PageInfo'
p32
sg15
(lp33
sg17
(lp34
sg19
(lp35
sg21
I0
sba(iArchitecture
Entity
p36
(dp37
g11
(lp38
sg13
S'android.graphics.pdf.PdfDocument$PageInfo$Builder'
p39
sg15
(lp40
sg17
(lp41
sg19
(lp42
sg21
I0
sba(iArchitecture
Entity
p43
(dp44
g11
(lp45
sg13
S'android.graphics.pdf.PdfDocument$PdfCanvas'
p46
sg15
(lp47
sg17
(lp48
sg19
(lp49
sg21
I0
sbasS'classes'
p50
(lp51
g14
ag25
ag32
ag39
ag46
asg21
I0
sS'label'
p52
S'1054'
p53
sba(iArchitecture
Cluster
p54
(dp55
g7
(lp56
(iArchitecture
Entity
p57
(dp58
g11
(lp59
sg13
S'android.util.MapCollections'
p60
sg15
(lp61
sg17
(lp62
sg19
(lp63
sg21
I0
sba(iArchitecture
Entity
p64
(dp65
g11
(lp66
sg13
S'android.util.MapCollections$ArrayIterator'
p67
sg15
(lp68
sg17
(lp69
sg19
(lp70
sg21
I0
sba(iArchitecture
Entity
p71
(dp72
g11
(lp73
sg13
S'android.util.MapCollections$EntrySet'
p74
sg15
(lp75
sg17
(lp76
sg19
(lp77
sg21
I0
sba(iArchitecture
Entity
p78
(dp79
g11
(lp80
sg13
S'android.util.MapCollections$KeySet'
p81
sg15
(lp82
sg17
(lp83
sg19
(lp84
sg21
I0
sba(iArchitecture
Entity
p85
(dp86
g11
(lp87
sg13
S'android.util.MapCollections$MapIterator'
p88
sg15
(lp89
sg17
(lp90
sg19
(lp91
sg21
I0
sba(iArchitecture
Entity
p92
(dp93
g11
(lp94
sg13
S'android.util.MapCollections$ValuesCollection'
p95
sg15
(lp96
sg17
(lp97
sg19
(lp98
sg21
I0
sbasg50
(lp99
g60
ag67
ag74
ag81
ag88
ag95
asg21
I0
sg52
S'1154'
p100
sba(iArchitecture
Cluster
p101
(dp102
g7
(lp103
(iArchitecture
Entity
p104
(dp105
g11
(lp106
sg13
S'android.location.GnssMeasurementCallbackTransport'
p107
sg15
(lp108
sg17
(lp109
sg19
(lp110
sg21
I0
sba(iArchitecture
Entity
p111
(dp112
g11
(lp113
sg13
S'android.location.GnssMeasurementCallbackTransport$ListenerTransport'
p114
sg15
(lp115
sg17
(lp116
sg19
(lp117
sg21
I0
sba(iArchitecture
Entity
p118
(dp119
g11
(lp120
sg13
S'android.location.GnssMeasurementCallbackTransport$ListenerTransport$1'
p121
sg15
(lp122
sg17
(lp123
sg19
(lp124
sg21
I0
sba(iArchitecture
Entity
p125
(dp126
g11
(lp127
sg13
S'android.location.GnssMeasurementCallbackTransport$ListenerTransport$2'
p128
sg15
(lp129
sg17
(lp130
sg19
(lp131
sg21
I0
sba(iArchitecture
Entity
p132
(dp133
g11
(lp134
sg13
S'android.location.GnssNavigationMessageCallbackTransport'
p135
sg15
(lp136
sg17
(lp137
sg19
(lp138
sg21
I0
sba(iArchitecture
Entity
p139
(dp140
g11
(lp141
sg13
S'android.location.GnssNavigationMessageCallbackTransport$ListenerTransport'
p142
sg15
(lp143
sg17
(lp144
sg19
(lp145
sg21
I0
sba(iArchitecture
Entity
p146
(dp147
g11
(lp148
sg13
S'android.location.GnssNavigationMessageCallbackTransport$ListenerTransport$1'
p149
sg15
(lp150
sg17
(lp151
sg19
(lp152
sg21
I0
sba(iArchitecture
Entity
p153
(dp154
g11
(lp155
sg13
S'android.location.GnssNavigationMessageCallbackTransport$ListenerTransport$2'
p156
sg15
(lp157
sg17
(lp158
sg19
(lp159
sg21
I0
sba(iArchitecture
Entity
p160
(dp161
g11
(lp162
sg13
S'com.android.server.location.GnssMeasurementsProvider'
p163
sg15
(lp164
sg17
(lp165
sg19
(lp166
sg21
I0
sba(iArchitecture
Entity
p167
(dp168
g11
(lp169
sg13
S'com.android.server.location.GnssMeasurementsProvider$1'
p170
sg15
(lp171
sg17
(lp172
sg19
(lp173
sg21
I0
sba(iArchitecture
Entity
p174
(dp175
g11
(lp176
sg13
S'com.android.server.location.GnssMeasurementsProvider$StatusChangedOperation'
p177
sg15
(lp178
sg17
(lp179
sg19
(lp180
sg21
I0
sba(iArchitecture
Entity
p181
(dp182
g11
(lp183
sg13
S'com.android.server.location.GnssNavigationMessageProvider'
p184
sg15
(lp185
sg17
(lp186
sg19
(lp187
sg21
I0
sba(iArchitecture
Entity
p188
(dp189
g11
(lp190
sg13
S'com.android.server.location.GnssNavigationMessageProvider$1'
p191
sg15
(lp192
sg17
(lp193
sg19
(lp194
sg21
I0
sba(iArchitecture
Entity
p195
(dp196
g11
(lp197
sg13
S'com.android.server.location.GnssNavigationMessageProvider$StatusChangedOperation'
p198
sg15
(lp199
sg17
(lp200
sg19
(lp201
sg21
I0
sbasg50
(lp202
g107
ag114
ag121
ag128
ag135
ag142
ag149
ag156
ag163
ag170
ag177
ag184
ag191
ag198
asg21
I0
sg52
S'1254'
p203
sba(iArchitecture
Cluster
p204
(dp205
g7
(lp206
(iArchitecture
Entity
p207
(dp208
g11
(lp209
sg13
S'android.opengl.EGL14'
p210
sg15
(lp211
sg17
(lp212
sg19
(lp213
sg21
I0
sba(iArchitecture
Entity
p214
(dp215
g11
(lp216
sg13
S'android.opengl.EGLLogWrapper'
p217
sg15
(lp218
sg17
(lp219
sg19
(lp220
sg21
I0
sba(iArchitecture
Entity
p221
(dp222
g11
(lp223
sg13
S'javax.microedition.khronos.egl.EGL10'
p224
sg15
(lp225
sg17
(lp226
sg19
(lp227
sg21
I0
sbasg50
(lp228
g210
ag217
ag224
asg21
I0
sg52
S'1354'
p229
sba(iArchitecture
Cluster
p230
(dp231
g7
(lp232
(iArchitecture
Entity
p233
(dp234
g11
(lp235
sg13
S'android.os.ConditionVariable'
p236
sg15
(lp237
sg17
(lp238
sg19
(lp239
sg21
I0
sbasg50
(lp240
g236
asg21
I0
sg52
S'154'
p241
sba(iArchitecture
Cluster
p242
(dp243
g7
(lp244
(iArchitecture
Entity
p245
(dp246
g11
(lp247
sg13
S'android.app.ActivityGroup'
p248
sg15
(lp249
sg17
(lp250
sg19
(lp251
sg21
I0
sbasg50
(lp252
g248
asg21
I0
sg52
S'254'
p253
sba(iArchitecture
Cluster
p254
(dp255
g7
(lp256
(iArchitecture
Entity
p257
(dp258
g11
(lp259
sg13
S'android.text.AndroidBidi'
p260
sg15
(lp261
sg17
(lp262
sg19
(lp263
sg21
I0
sbasg50
(lp264
g260
asg21
I0
sg52
S'354'
p265
sba(iArchitecture
Cluster
p266
(dp267
g7
(lp268
(iArchitecture
Entity
p269
(dp270
g11
(lp271
sg13
S'android.location.LocationListener'
p272
sg15
(lp273
sg17
(lp274
sg19
(lp275
sg21
I0
sbasg50
(lp276
g272
asg21
I0
sg52
S'454'
p277
sba(iArchitecture
Cluster
p278
(dp279
g7
(lp280
(iArchitecture
Entity
p281
(dp282
g11
(lp283
sg13
S'com.android.server.hdmi.HdmiCecMessageCache'
p284
sg15
(lp285
sg17
(lp286
sg19
(lp287
sg21
I0
sbasg50
(lp288
g284
asg21
I0
sg52
S'54'
p289
sba(iArchitecture
Cluster
p290
(dp291
g7
(lp292
(iArchitecture
Entity
p293
(dp294
g11
(lp295
sg13
S'android.media.VolumeProvider'
p296
sg15
(lp297
sg17
(lp298
sg19
(lp299
sg21
I0
sba(iArchitecture
Entity
p300
(dp301
g11
(lp302
sg13
S'android.media.VolumeProvider$Callback'
p303
sg15
(lp304
sg17
(lp305
sg19
(lp306
sg21
I0
sbasg50
(lp307
g296
ag303
asg21
I0
sg52
S'540'
p308
sba(iArchitecture
Cluster
p309
(dp310
g7
(lp311
(iArchitecture
Entity
p312
(dp313
g11
(lp314
sg13
S'android.provider.UserDictionary'
p315
sg15
(lp316
sg17
(lp317
sg19
(lp318
sg21
I0
sba(iArchitecture
Entity
p319
(dp320
g11
(lp321
sg13
S'android.provider.UserDictionary$Words'
p322
sg15
(lp323
sg17
(lp324
sg19
(lp325
sg21
I0
sbasg50
(lp326
g315
ag322
asg21
I0
sg52
S'541'
p327
sba(iArchitecture
Cluster
p328
(dp329
g7
(lp330
(iArchitecture
Entity
p331
(dp332
g11
(lp333
sg13
S'android.content.ClipDescription'
p334
sg15
(lp335
sg17
(lp336
sg19
(lp337
sg21
I0
sba(iArchitecture
Entity
p338
(dp339
g11
(lp340
sg13
S'android.content.ClipDescription$1'
p341
sg15
(lp342
sg17
(lp343
sg19
(lp344
sg21
I0
sbasg50
(lp345
g334
ag341
asg21
I0
sg52
S'542'
p346
sba(iArchitecture
Cluster
p347
(dp348
g7
(lp349
(iArchitecture
Entity
p350
(dp351
g11
(lp352
sg13
S'com.android.ims.internal.uce.presence.PresTupleInfo'
p353
sg15
(lp354
sg17
(lp355
sg19
(lp356
sg21
I0
sba(iArchitecture
Entity
p357
(dp358
g11
(lp359
sg13
S'com.android.ims.internal.uce.presence.PresTupleInfo$1'
p360
sg15
(lp361
sg17
(lp362
sg19
(lp363
sg21
I0
sbasg50
(lp364
g353
ag360
asg21
I0
sg52
S'543'
p365
sba(iArchitecture
Cluster
p366
(dp367
g7
(lp368
(iArchitecture
Entity
p369
(dp370
g11
(lp371
sg13
S'android.content.RestrictionEntry'
p372
sg15
(lp373
sg17
(lp374
sg19
(lp375
sg21
I0
sba(iArchitecture
Entity
p376
(dp377
g11
(lp378
sg13
S'android.content.RestrictionEntry$1'
p379
sg15
(lp380
sg17
(lp381
sg19
(lp382
sg21
I0
sbasg50
(lp383
g372
ag379
asg21
I0
sg52
S'544'
p384
sba(iArchitecture
Cluster
p385
(dp386
g7
(lp387
(iArchitecture
Entity
p388
(dp389
g11
(lp390
sg13
S'com.android.server.devicepolicy.RemoteBugreportUtils'
p391
sg15
(lp392
sg17
(lp393
sg19
(lp394
sg21
I0
sba(iArchitecture
Entity
p395
(dp396
g11
(lp397
sg13
S'com.android.server.devicepolicy.RemoteBugreportUtils$RemoteBugreportNotificationType'
p398
sg15
(lp399
sg17
(lp400
sg19
(lp401
sg21
I0
sbasg50
(lp402
g391
ag398
asg21
I0
sg52
S'545'
p403
sba(iArchitecture
Cluster
p404
(dp405
g7
(lp406
(iArchitecture
Entity
p407
(dp408
g11
(lp409
sg13
S'android.database.CursorToBulkCursorAdaptor'
p410
sg15
(lp411
sg17
(lp412
sg19
(lp413
sg21
I0
sba(iArchitecture
Entity
p414
(dp415
g11
(lp416
sg13
S'android.database.CursorToBulkCursorAdaptor$ContentObserverProxy'
p417
sg15
(lp418
sg17
(lp419
sg19
(lp420
sg21
I0
sbasg50
(lp421
g410
ag417
asg21
I0
sg52
S'546'
p422
sba(iArchitecture
Cluster
p423
(dp424
g7
(lp425
(iArchitecture
Entity
p426
(dp427
g11
(lp428
sg13
S'android.app.TimePickerDialog'
p429
sg15
(lp430
sg17
(lp431
sg19
(lp432
sg21
I0
sba(iArchitecture
Entity
p433
(dp434
g11
(lp435
sg13
S'android.app.TimePickerDialog$OnTimeSetListener'
p436
sg15
(lp437
sg17
(lp438
sg19
(lp439
sg21
I0
sbasg50
(lp440
g429
ag436
asg21
I0
sg52
S'547'
p441
sba(iArchitecture
Cluster
p442
(dp443
g7
(lp444
(iArchitecture
Entity
p445
(dp446
g11
(lp447
sg13
S'android.app.ProgressDialog'
p448
sg15
(lp449
sg17
(lp450
sg19
(lp451
sg21
I0
sba(iArchitecture
Entity
p452
(dp453
g11
(lp454
sg13
S'android.app.ProgressDialog$1'
p455
sg15
(lp456
sg17
(lp457
sg19
(lp458
sg21
I0
sbasg50
(lp459
g448
ag455
asg21
I0
sg52
S'548'
p460
sba(iArchitecture
Cluster
p461
(dp462
g7
(lp463
(iArchitecture
Entity
p464
(dp465
g11
(lp466
sg13
S'android.app.assist.AssistContent'
p467
sg15
(lp468
sg17
(lp469
sg19
(lp470
sg21
I0
sba(iArchitecture
Entity
p471
(dp472
g11
(lp473
sg13
S'android.app.assist.AssistContent$1'
p474
sg15
(lp475
sg17
(lp476
sg19
(lp477
sg21
I0
sbasg50
(lp478
g467
ag474
asg21
I0
sg52
S'549'
p479
sba(iArchitecture
Cluster
p480
(dp481
g7
(lp482
(iArchitecture
Entity
p483
(dp484
g11
(lp485
sg13
S'android.telephony.DataConnectionRealTimeInfo'
p486
sg15
(lp487
sg17
(lp488
sg19
(lp489
sg21
I0
sba(iArchitecture
Entity
p490
(dp491
g11
(lp492
sg13
S'android.telephony.DataConnectionRealTimeInfo$1'
p493
sg15
(lp494
sg17
(lp495
sg19
(lp496
sg21
I0
sbasg50
(lp497
g486
ag493
asg21
I0
sg52
S'554'
p498
sba(iArchitecture
Cluster
p499
(dp500
g7
(lp501
(iArchitecture
Entity
p502
(dp503
g11
(lp504
sg13
S'android.hardware.usb.UsbPort'
p505
sg15
(lp506
sg17
(lp507
sg19
(lp508
sg21
I0
sba(iArchitecture
Entity
p509
(dp510
g11
(lp511
sg13
S'android.hardware.usb.UsbPort$1'
p512
sg15
(lp513
sg17
(lp514
sg19
(lp515
sg21
I0
sbasg50
(lp516
g505
ag512
asg21
I0
sg52
S'654'
p517
sba(iArchitecture
Cluster
p518
(dp519
g7
(lp520
(iArchitecture
Entity
p521
(dp522
g11
(lp523
sg13
S'android.hardware.camera2.legacy.CaptureCollector'
p524
sg15
(lp525
sg17
(lp526
sg19
(lp527
sg21
I0
sba(iArchitecture
Entity
p528
(dp529
g11
(lp530
sg13
S'android.hardware.camera2.legacy.CaptureCollector$CaptureHolder'
p531
sg15
(lp532
sg17
(lp533
sg19
(lp534
sg21
I0
sbasg50
(lp535
g524
ag531
asg21
I0
sg52
S'754'
p536
sba(iArchitecture
Cluster
p537
(dp538
g7
(lp539
(iArchitecture
Entity
p540
(dp541
g11
(lp542
sg13
S'android.graphics.drawable.GradientDrawable'
p543
sg15
(lp544
sg17
(lp545
sg19
(lp546
sg21
I0
sba(iArchitecture
Entity
p547
(dp548
g11
(lp549
sg13
S'android.graphics.drawable.GradientDrawable$GradientState'
p550
sg15
(lp551
sg17
(lp552
sg19
(lp553
sg21
I0
sba(iArchitecture
Entity
p554
(dp555
g11
(lp556
sg13
S'android.graphics.drawable.GradientDrawable$Orientation'
p557
sg15
(lp558
sg17
(lp559
sg19
(lp560
sg21
I0
sbasg50
(lp561
g543
ag550
ag557
asg21
I0
sg52
S'854'
p562
sba(iArchitecture
Cluster
p563
(dp564
g7
(lp565
(iArchitecture
Entity
p566
(dp567
g11
(lp568
sg13
S'android.webkit.JsDialogHelper'
p569
sg15
(lp570
sg17
(lp571
sg19
(lp572
sg21
I0
sba(iArchitecture
Entity
p573
(dp574
g11
(lp575
sg13
S'android.webkit.JsDialogHelper$CancelListener'
p576
sg15
(lp577
sg17
(lp578
sg19
(lp579
sg21
I0
sba(iArchitecture
Entity
p580
(dp581
g11
(lp582
sg13
S'android.webkit.JsDialogHelper$PositiveListener'
p583
sg15
(lp584
sg17
(lp585
sg19
(lp586
sg21
I0
sbasg50
(lp587
g569
ag576
ag583
asg21
I0
sg52
S'954'
p588
sbasS'target_sub'
p589
S'54'
p590
sg50
(lp591
sS'is_component_arch'
p592
I01
sg52
S'7.0.0_r1'
p593
sba.