(lp0
(iArchitecture
Architecture
p1
(dp2
S'clusters'
p3
(lp4
(iArchitecture
Cluster
p5
(dp6
S'entities'
p7
(lp8
(iArchitecture
Entity
p9
(dp10
S'issue_ids'
p11
(lp12
sS'name'
p13
S'com.android.server.am.TaskPersister'
p14
sS'descs'
p15
(lp16
sS'labels'
p17
(lp18
sS'titles'
p19
(lp20
sS'change'
p21
I0
sba(iArchitecture
Entity
p22
(dp23
g11
(lp24
sg13
S'com.android.server.am.TaskPersister$1'
p25
sg15
(lp26
sg17
(lp27
sg19
(lp28
sg21
I0
sba(iArchitecture
Entity
p29
(dp30
g11
(lp31
sg13
S'com.android.server.am.TaskPersister$ImageWriteQueueItem'
p32
sg15
(lp33
sg17
(lp34
sg19
(lp35
sg21
I0
sba(iArchitecture
Entity
p36
(dp37
g11
(lp38
sg13
S'com.android.server.am.TaskPersister$LazyTaskWriterThread'
p39
sg15
(lp40
sg17
(lp41
sg19
(lp42
sg21
I0
sba(iArchitecture
Entity
p43
(dp44
g11
(lp45
sg13
S'com.android.server.am.TaskPersister$TaskWriteQueueItem'
p46
sg15
(lp47
sg17
(lp48
sg19
(lp49
sg21
I0
sba(iArchitecture
Entity
p50
(dp51
g11
(lp52
sg13
S'com.android.server.am.TaskPersister$WriteQueueItem'
p53
sg15
(lp54
sg17
(lp55
sg19
(lp56
sg21
I0
sbasS'classes'
p57
(lp58
g14
ag25
ag32
ag39
ag46
ag53
asg21
I0
sS'label'
p59
S'1123'
p60
sba(iArchitecture
Cluster
p61
(dp62
g7
(lp63
(iArchitecture
Entity
p64
(dp65
g11
(lp66
sg13
S'android.util.Slog'
p67
sg15
(lp68
sg17
(lp69
sg19
(lp70
sg21
I0
sbasg57
(lp71
g67
asg21
I0
sg59
S'123'
p72
sba(iArchitecture
Cluster
p73
(dp74
g7
(lp75
(iArchitecture
Entity
p76
(dp77
g11
(lp78
sg13
S'android.os.StrictMode'
p79
sg15
(lp80
sg17
(lp81
sg19
(lp82
sg21
I0
sba(iArchitecture
Entity
p83
(dp84
g11
(lp85
sg13
S'android.os.StrictMode$1'
p86
sg15
(lp87
sg17
(lp88
sg19
(lp89
sg21
I0
sba(iArchitecture
Entity
p90
(dp91
g11
(lp92
sg13
S'android.os.StrictMode$2'
p93
sg15
(lp94
sg17
(lp95
sg19
(lp96
sg21
I0
sba(iArchitecture
Entity
p97
(dp98
g11
(lp99
sg13
S'android.os.StrictMode$3'
p100
sg15
(lp101
sg17
(lp102
sg19
(lp103
sg21
I0
sba(iArchitecture
Entity
p104
(dp105
g11
(lp106
sg13
S'android.os.StrictMode$4'
p107
sg15
(lp108
sg17
(lp109
sg19
(lp110
sg21
I0
sba(iArchitecture
Entity
p111
(dp112
g11
(lp113
sg13
S'android.os.StrictMode$5'
p114
sg15
(lp115
sg17
(lp116
sg19
(lp117
sg21
I0
sba(iArchitecture
Entity
p118
(dp119
g11
(lp120
sg13
S'android.os.StrictMode$6'
p121
sg15
(lp122
sg17
(lp123
sg19
(lp124
sg21
I0
sba(iArchitecture
Entity
p125
(dp126
g11
(lp127
sg13
S'android.os.StrictMode$7'
p128
sg15
(lp129
sg17
(lp130
sg19
(lp131
sg21
I0
sba(iArchitecture
Entity
p132
(dp133
g11
(lp134
sg13
S'android.os.StrictMode$8'
p135
sg15
(lp136
sg17
(lp137
sg19
(lp138
sg21
I0
sba(iArchitecture
Entity
p139
(dp140
g11
(lp141
sg13
S'android.os.StrictMode$9'
p142
sg15
(lp143
sg17
(lp144
sg19
(lp145
sg21
I0
sba(iArchitecture
Entity
p146
(dp147
g11
(lp148
sg13
S'android.os.StrictMode$AndroidBlockGuardPolicy'
p149
sg15
(lp150
sg17
(lp151
sg19
(lp152
sg21
I0
sba(iArchitecture
Entity
p153
(dp154
g11
(lp155
sg13
S'android.os.StrictMode$AndroidBlockGuardPolicy$1'
p156
sg15
(lp157
sg17
(lp158
sg19
(lp159
sg21
I0
sba(iArchitecture
Entity
p160
(dp161
g11
(lp162
sg13
S'android.os.StrictMode$AndroidCloseGuardReporter'
p163
sg15
(lp164
sg17
(lp165
sg19
(lp166
sg21
I0
sba(iArchitecture
Entity
p167
(dp168
g11
(lp169
sg13
S'android.os.StrictMode$InstanceCountViolation'
p170
sg15
(lp171
sg17
(lp172
sg19
(lp173
sg21
I0
sba(iArchitecture
Entity
p174
(dp175
g11
(lp176
sg13
S'android.os.StrictMode$InstanceTracker'
p177
sg15
(lp178
sg17
(lp179
sg19
(lp180
sg21
I0
sba(iArchitecture
Entity
p181
(dp182
g11
(lp183
sg13
S'android.os.StrictMode$LogStackTrace'
p184
sg15
(lp185
sg17
(lp186
sg19
(lp187
sg21
I0
sba(iArchitecture
Entity
p188
(dp189
g11
(lp190
sg13
S'android.os.StrictMode$Span'
p191
sg15
(lp192
sg17
(lp193
sg19
(lp194
sg21
I0
sba(iArchitecture
Entity
p195
(dp196
g11
(lp197
sg13
S'android.os.StrictMode$StrictModeCustomViolation'
p198
sg15
(lp199
sg17
(lp200
sg19
(lp201
sg21
I0
sba(iArchitecture
Entity
p202
(dp203
g11
(lp204
sg13
S'android.os.StrictMode$StrictModeDiskReadViolation'
p205
sg15
(lp206
sg17
(lp207
sg19
(lp208
sg21
I0
sba(iArchitecture
Entity
p209
(dp210
g11
(lp211
sg13
S'android.os.StrictMode$StrictModeDiskWriteViolation'
p212
sg15
(lp213
sg17
(lp214
sg19
(lp215
sg21
I0
sba(iArchitecture
Entity
p216
(dp217
g11
(lp218
sg13
S'android.os.StrictMode$StrictModeNetworkViolation'
p219
sg15
(lp220
sg17
(lp221
sg19
(lp222
sg21
I0
sba(iArchitecture
Entity
p223
(dp224
g11
(lp225
sg13
S'android.os.StrictMode$StrictModeResourceMismatchViolation'
p226
sg15
(lp227
sg17
(lp228
sg19
(lp229
sg21
I0
sba(iArchitecture
Entity
p230
(dp231
g11
(lp232
sg13
S'android.os.StrictMode$StrictModeViolation'
p233
sg15
(lp234
sg17
(lp235
sg19
(lp236
sg21
I0
sba(iArchitecture
Entity
p237
(dp238
g11
(lp239
sg13
S'android.os.StrictMode$ThreadPolicy'
p240
sg15
(lp241
sg17
(lp242
sg19
(lp243
sg21
I0
sba(iArchitecture
Entity
p244
(dp245
g11
(lp246
sg13
S'android.os.StrictMode$ThreadPolicy$Builder'
p247
sg15
(lp248
sg17
(lp249
sg19
(lp250
sg21
I0
sba(iArchitecture
Entity
p251
(dp252
g11
(lp253
sg13
S'android.os.StrictMode$ThreadSpanState'
p254
sg15
(lp255
sg17
(lp256
sg19
(lp257
sg21
I0
sba(iArchitecture
Entity
p258
(dp259
g11
(lp260
sg13
S'android.os.StrictMode$ViolationInfo'
p261
sg15
(lp262
sg17
(lp263
sg19
(lp264
sg21
I0
sba(iArchitecture
Entity
p265
(dp266
g11
(lp267
sg13
S'android.os.StrictMode$VmPolicy'
p268
sg15
(lp269
sg17
(lp270
sg19
(lp271
sg21
I0
sba(iArchitecture
Entity
p272
(dp273
g11
(lp274
sg13
S'android.os.StrictMode$VmPolicy$Builder'
p275
sg15
(lp276
sg17
(lp277
sg19
(lp278
sg21
I0
sbasg57
(lp279
g79
ag86
ag93
ag100
ag107
ag114
ag121
ag128
ag135
ag142
ag149
ag156
ag163
ag170
ag177
ag184
ag191
ag198
ag205
ag212
ag219
ag226
ag233
ag240
ag247
ag254
ag261
ag268
ag275
asg21
I0
sg59
S'1230'
p280
sba(iArchitecture
Cluster
p281
(dp282
g7
(lp283
(iArchitecture
Entity
p284
(dp285
g11
(lp286
sg13
S'com.android.server.fingerprint.FingerprintService'
p287
sg15
(lp288
sg17
(lp289
sg19
(lp290
sg21
I0
sba(iArchitecture
Entity
p291
(dp292
g11
(lp293
sg13
S'com.android.server.fingerprint.FingerprintService$1'
p294
sg15
(lp295
sg17
(lp296
sg19
(lp297
sg21
I0
sba(iArchitecture
Entity
p298
(dp299
g11
(lp300
sg13
S'com.android.server.fingerprint.FingerprintService$2'
p301
sg15
(lp302
sg17
(lp303
sg19
(lp304
sg21
I0
sba(iArchitecture
Entity
p305
(dp306
g11
(lp307
sg13
S'com.android.server.fingerprint.FingerprintService$3'
p308
sg15
(lp309
sg17
(lp310
sg19
(lp311
sg21
I0
sba(iArchitecture
Entity
p312
(dp313
g11
(lp314
sg13
S'com.android.server.fingerprint.FingerprintService$4'
p315
sg15
(lp316
sg17
(lp317
sg19
(lp318
sg21
I0
sba(iArchitecture
Entity
p319
(dp320
g11
(lp321
sg13
S'com.android.server.fingerprint.FingerprintService$5'
p322
sg15
(lp323
sg17
(lp324
sg19
(lp325
sg21
I0
sba(iArchitecture
Entity
p326
(dp327
g11
(lp328
sg13
S'com.android.server.fingerprint.FingerprintService$5$1'
p329
sg15
(lp330
sg17
(lp331
sg19
(lp332
sg21
I0
sba(iArchitecture
Entity
p333
(dp334
g11
(lp335
sg13
S'com.android.server.fingerprint.FingerprintService$5$2'
p336
sg15
(lp337
sg17
(lp338
sg19
(lp339
sg21
I0
sba(iArchitecture
Entity
p340
(dp341
g11
(lp342
sg13
S'com.android.server.fingerprint.FingerprintService$5$3'
p343
sg15
(lp344
sg17
(lp345
sg19
(lp346
sg21
I0
sba(iArchitecture
Entity
p347
(dp348
g11
(lp349
sg13
S'com.android.server.fingerprint.FingerprintService$5$4'
p350
sg15
(lp351
sg17
(lp352
sg19
(lp353
sg21
I0
sba(iArchitecture
Entity
p354
(dp355
g11
(lp356
sg13
S'com.android.server.fingerprint.FingerprintService$5$5'
p357
sg15
(lp358
sg17
(lp359
sg19
(lp360
sg21
I0
sba(iArchitecture
Entity
p361
(dp362
g11
(lp363
sg13
S'com.android.server.fingerprint.FingerprintService$5$6'
p364
sg15
(lp365
sg17
(lp366
sg19
(lp367
sg21
I0
sba(iArchitecture
Entity
p368
(dp369
g11
(lp370
sg13
S'com.android.server.fingerprint.FingerprintService$6'
p371
sg15
(lp372
sg17
(lp373
sg19
(lp374
sg21
I0
sba(iArchitecture
Entity
p375
(dp376
g11
(lp377
sg13
S'com.android.server.fingerprint.FingerprintService$7'
p378
sg15
(lp379
sg17
(lp380
sg19
(lp381
sg21
I0
sba(iArchitecture
Entity
p382
(dp383
g11
(lp384
sg13
S'com.android.server.fingerprint.FingerprintService$8'
p385
sg15
(lp386
sg17
(lp387
sg19
(lp388
sg21
I0
sba(iArchitecture
Entity
p389
(dp390
g11
(lp391
sg13
S'com.android.server.fingerprint.FingerprintService$9'
p392
sg15
(lp393
sg17
(lp394
sg19
(lp395
sg21
I0
sba(iArchitecture
Entity
p396
(dp397
g11
(lp398
sg13
S'com.android.server.fingerprint.FingerprintService$FingerprintServiceLockoutResetMonitor'
p399
sg15
(lp400
sg17
(lp401
sg19
(lp402
sg21
I0
sba(iArchitecture
Entity
p403
(dp404
g11
(lp405
sg13
S'com.android.server.fingerprint.FingerprintService$FingerprintServiceLockoutResetMonitor$1'
p406
sg15
(lp407
sg17
(lp408
sg19
(lp409
sg21
I0
sba(iArchitecture
Entity
p410
(dp411
g11
(lp412
sg13
S'com.android.server.fingerprint.FingerprintService$FingerprintServiceWrapper'
p413
sg15
(lp414
sg17
(lp415
sg19
(lp416
sg21
I0
sba(iArchitecture
Entity
p417
(dp418
g11
(lp419
sg13
S'com.android.server.fingerprint.FingerprintService$FingerprintServiceWrapper$1'
p420
sg15
(lp421
sg17
(lp422
sg19
(lp423
sg21
I0
sba(iArchitecture
Entity
p424
(dp425
g11
(lp426
sg13
S'com.android.server.fingerprint.FingerprintService$FingerprintServiceWrapper$2'
p427
sg15
(lp428
sg17
(lp429
sg19
(lp430
sg21
I0
sba(iArchitecture
Entity
p431
(dp432
g11
(lp433
sg13
S'com.android.server.fingerprint.FingerprintService$FingerprintServiceWrapper$3'
p434
sg15
(lp435
sg17
(lp436
sg19
(lp437
sg21
I0
sba(iArchitecture
Entity
p438
(dp439
g11
(lp440
sg13
S'com.android.server.fingerprint.FingerprintService$FingerprintServiceWrapper$4'
p441
sg15
(lp442
sg17
(lp443
sg19
(lp444
sg21
I0
sba(iArchitecture
Entity
p445
(dp446
g11
(lp447
sg13
S'com.android.server.fingerprint.FingerprintService$FingerprintServiceWrapper$5'
p448
sg15
(lp449
sg17
(lp450
sg19
(lp451
sg21
I0
sba(iArchitecture
Entity
p452
(dp453
g11
(lp454
sg13
S'com.android.server.fingerprint.FingerprintService$FingerprintServiceWrapper$6'
p455
sg15
(lp456
sg17
(lp457
sg19
(lp458
sg21
I0
sba(iArchitecture
Entity
p459
(dp460
g11
(lp461
sg13
S'com.android.server.fingerprint.FingerprintService$FingerprintServiceWrapper$7'
p462
sg15
(lp463
sg17
(lp464
sg19
(lp465
sg21
I0
sba(iArchitecture
Entity
p466
(dp467
g11
(lp468
sg13
S'com.android.server.fingerprint.FingerprintService$FingerprintServiceWrapper$8'
p469
sg15
(lp470
sg17
(lp471
sg19
(lp472
sg21
I0
sbasg57
(lp473
g287
ag294
ag301
ag308
ag315
ag322
ag329
ag336
ag343
ag350
ag357
ag364
ag371
ag378
ag385
ag392
ag399
ag406
ag413
ag420
ag427
ag434
ag441
ag448
ag455
ag462
ag469
asg21
I0
sg59
S'1231'
p474
sba(iArchitecture
Cluster
p475
(dp476
g7
(lp477
(iArchitecture
Entity
p478
(dp479
g11
(lp480
sg13
S'android.app.SystemServiceRegistry'
p481
sg15
(lp482
sg17
(lp483
sg19
(lp484
sg21
I0
sba(iArchitecture
Entity
p485
(dp486
g11
(lp487
sg13
S'android.app.SystemServiceRegistry$1'
p488
sg15
(lp489
sg17
(lp490
sg19
(lp491
sg21
I0
sba(iArchitecture
Entity
p492
(dp493
g11
(lp494
sg13
S'android.app.SystemServiceRegistry$10'
p495
sg15
(lp496
sg17
(lp497
sg19
(lp498
sg21
I0
sba(iArchitecture
Entity
p499
(dp500
g11
(lp501
sg13
S'android.app.SystemServiceRegistry$11'
p502
sg15
(lp503
sg17
(lp504
sg19
(lp505
sg21
I0
sba(iArchitecture
Entity
p506
(dp507
g11
(lp508
sg13
S'android.app.SystemServiceRegistry$12'
p509
sg15
(lp510
sg17
(lp511
sg19
(lp512
sg21
I0
sba(iArchitecture
Entity
p513
(dp514
g11
(lp515
sg13
S'android.app.SystemServiceRegistry$13'
p516
sg15
(lp517
sg17
(lp518
sg19
(lp519
sg21
I0
sba(iArchitecture
Entity
p520
(dp521
g11
(lp522
sg13
S'android.app.SystemServiceRegistry$14'
p523
sg15
(lp524
sg17
(lp525
sg19
(lp526
sg21
I0
sba(iArchitecture
Entity
p527
(dp528
g11
(lp529
sg13
S'android.app.SystemServiceRegistry$15'
p530
sg15
(lp531
sg17
(lp532
sg19
(lp533
sg21
I0
sba(iArchitecture
Entity
p534
(dp535
g11
(lp536
sg13
S'android.app.SystemServiceRegistry$16'
p537
sg15
(lp538
sg17
(lp539
sg19
(lp540
sg21
I0
sba(iArchitecture
Entity
p541
(dp542
g11
(lp543
sg13
S'android.app.SystemServiceRegistry$17'
p544
sg15
(lp545
sg17
(lp546
sg19
(lp547
sg21
I0
sba(iArchitecture
Entity
p548
(dp549
g11
(lp550
sg13
S'android.app.SystemServiceRegistry$18'
p551
sg15
(lp552
sg17
(lp553
sg19
(lp554
sg21
I0
sba(iArchitecture
Entity
p555
(dp556
g11
(lp557
sg13
S'android.app.SystemServiceRegistry$19'
p558
sg15
(lp559
sg17
(lp560
sg19
(lp561
sg21
I0
sba(iArchitecture
Entity
p562
(dp563
g11
(lp564
sg13
S'android.app.SystemServiceRegistry$2'
p565
sg15
(lp566
sg17
(lp567
sg19
(lp568
sg21
I0
sba(iArchitecture
Entity
p569
(dp570
g11
(lp571
sg13
S'android.app.SystemServiceRegistry$20'
p572
sg15
(lp573
sg17
(lp574
sg19
(lp575
sg21
I0
sba(iArchitecture
Entity
p576
(dp577
g11
(lp578
sg13
S'android.app.SystemServiceRegistry$21'
p579
sg15
(lp580
sg17
(lp581
sg19
(lp582
sg21
I0
sba(iArchitecture
Entity
p583
(dp584
g11
(lp585
sg13
S'android.app.SystemServiceRegistry$22'
p586
sg15
(lp587
sg17
(lp588
sg19
(lp589
sg21
I0
sba(iArchitecture
Entity
p590
(dp591
g11
(lp592
sg13
S'android.app.SystemServiceRegistry$23'
p593
sg15
(lp594
sg17
(lp595
sg19
(lp596
sg21
I0
sba(iArchitecture
Entity
p597
(dp598
g11
(lp599
sg13
S'android.app.SystemServiceRegistry$24'
p600
sg15
(lp601
sg17
(lp602
sg19
(lp603
sg21
I0
sba(iArchitecture
Entity
p604
(dp605
g11
(lp606
sg13
S'android.app.SystemServiceRegistry$25'
p607
sg15
(lp608
sg17
(lp609
sg19
(lp610
sg21
I0
sba(iArchitecture
Entity
p611
(dp612
g11
(lp613
sg13
S'android.app.SystemServiceRegistry$26'
p614
sg15
(lp615
sg17
(lp616
sg19
(lp617
sg21
I0
sba(iArchitecture
Entity
p618
(dp619
g11
(lp620
sg13
S'android.app.SystemServiceRegistry$27'
p621
sg15
(lp622
sg17
(lp623
sg19
(lp624
sg21
I0
sba(iArchitecture
Entity
p625
(dp626
g11
(lp627
sg13
S'android.app.SystemServiceRegistry$28'
p628
sg15
(lp629
sg17
(lp630
sg19
(lp631
sg21
I0
sba(iArchitecture
Entity
p632
(dp633
g11
(lp634
sg13
S'android.app.SystemServiceRegistry$29'
p635
sg15
(lp636
sg17
(lp637
sg19
(lp638
sg21
I0
sba(iArchitecture
Entity
p639
(dp640
g11
(lp641
sg13
S'android.app.SystemServiceRegistry$3'
p642
sg15
(lp643
sg17
(lp644
sg19
(lp645
sg21
I0
sba(iArchitecture
Entity
p646
(dp647
g11
(lp648
sg13
S'android.app.SystemServiceRegistry$30'
p649
sg15
(lp650
sg17
(lp651
sg19
(lp652
sg21
I0
sba(iArchitecture
Entity
p653
(dp654
g11
(lp655
sg13
S'android.app.SystemServiceRegistry$31'
p656
sg15
(lp657
sg17
(lp658
sg19
(lp659
sg21
I0
sba(iArchitecture
Entity
p660
(dp661
g11
(lp662
sg13
S'android.app.SystemServiceRegistry$32'
p663
sg15
(lp664
sg17
(lp665
sg19
(lp666
sg21
I0
sba(iArchitecture
Entity
p667
(dp668
g11
(lp669
sg13
S'android.app.SystemServiceRegistry$33'
p670
sg15
(lp671
sg17
(lp672
sg19
(lp673
sg21
I0
sba(iArchitecture
Entity
p674
(dp675
g11
(lp676
sg13
S'android.app.SystemServiceRegistry$34'
p677
sg15
(lp678
sg17
(lp679
sg19
(lp680
sg21
I0
sba(iArchitecture
Entity
p681
(dp682
g11
(lp683
sg13
S'android.app.SystemServiceRegistry$35'
p684
sg15
(lp685
sg17
(lp686
sg19
(lp687
sg21
I0
sba(iArchitecture
Entity
p688
(dp689
g11
(lp690
sg13
S'android.app.SystemServiceRegistry$36'
p691
sg15
(lp692
sg17
(lp693
sg19
(lp694
sg21
I0
sba(iArchitecture
Entity
p695
(dp696
g11
(lp697
sg13
S'android.app.SystemServiceRegistry$37'
p698
sg15
(lp699
sg17
(lp700
sg19
(lp701
sg21
I0
sba(iArchitecture
Entity
p702
(dp703
g11
(lp704
sg13
S'android.app.SystemServiceRegistry$38'
p705
sg15
(lp706
sg17
(lp707
sg19
(lp708
sg21
I0
sba(iArchitecture
Entity
p709
(dp710
g11
(lp711
sg13
S'android.app.SystemServiceRegistry$39'
p712
sg15
(lp713
sg17
(lp714
sg19
(lp715
sg21
I0
sba(iArchitecture
Entity
p716
(dp717
g11
(lp718
sg13
S'android.app.SystemServiceRegistry$4'
p719
sg15
(lp720
sg17
(lp721
sg19
(lp722
sg21
I0
sba(iArchitecture
Entity
p723
(dp724
g11
(lp725
sg13
S'android.app.SystemServiceRegistry$40'
p726
sg15
(lp727
sg17
(lp728
sg19
(lp729
sg21
I0
sba(iArchitecture
Entity
p730
(dp731
g11
(lp732
sg13
S'android.app.SystemServiceRegistry$41'
p733
sg15
(lp734
sg17
(lp735
sg19
(lp736
sg21
I0
sba(iArchitecture
Entity
p737
(dp738
g11
(lp739
sg13
S'android.app.SystemServiceRegistry$42'
p740
sg15
(lp741
sg17
(lp742
sg19
(lp743
sg21
I0
sba(iArchitecture
Entity
p744
(dp745
g11
(lp746
sg13
S'android.app.SystemServiceRegistry$43'
p747
sg15
(lp748
sg17
(lp749
sg19
(lp750
sg21
I0
sba(iArchitecture
Entity
p751
(dp752
g11
(lp753
sg13
S'android.app.SystemServiceRegistry$44'
p754
sg15
(lp755
sg17
(lp756
sg19
(lp757
sg21
I0
sba(iArchitecture
Entity
p758
(dp759
g11
(lp760
sg13
S'android.app.SystemServiceRegistry$45'
p761
sg15
(lp762
sg17
(lp763
sg19
(lp764
sg21
I0
sba(iArchitecture
Entity
p765
(dp766
g11
(lp767
sg13
S'android.app.SystemServiceRegistry$46'
p768
sg15
(lp769
sg17
(lp770
sg19
(lp771
sg21
I0
sba(iArchitecture
Entity
p772
(dp773
g11
(lp774
sg13
S'android.app.SystemServiceRegistry$47'
p775
sg15
(lp776
sg17
(lp777
sg19
(lp778
sg21
I0
sba(iArchitecture
Entity
p779
(dp780
g11
(lp781
sg13
S'android.app.SystemServiceRegistry$48'
p782
sg15
(lp783
sg17
(lp784
sg19
(lp785
sg21
I0
sba(iArchitecture
Entity
p786
(dp787
g11
(lp788
sg13
S'android.app.SystemServiceRegistry$49'
p789
sg15
(lp790
sg17
(lp791
sg19
(lp792
sg21
I0
sba(iArchitecture
Entity
p793
(dp794
g11
(lp795
sg13
S'android.app.SystemServiceRegistry$5'
p796
sg15
(lp797
sg17
(lp798
sg19
(lp799
sg21
I0
sba(iArchitecture
Entity
p800
(dp801
g11
(lp802
sg13
S'android.app.SystemServiceRegistry$50'
p803
sg15
(lp804
sg17
(lp805
sg19
(lp806
sg21
I0
sba(iArchitecture
Entity
p807
(dp808
g11
(lp809
sg13
S'android.app.SystemServiceRegistry$51'
p810
sg15
(lp811
sg17
(lp812
sg19
(lp813
sg21
I0
sba(iArchitecture
Entity
p814
(dp815
g11
(lp816
sg13
S'android.app.SystemServiceRegistry$52'
p817
sg15
(lp818
sg17
(lp819
sg19
(lp820
sg21
I0
sba(iArchitecture
Entity
p821
(dp822
g11
(lp823
sg13
S'android.app.SystemServiceRegistry$53'
p824
sg15
(lp825
sg17
(lp826
sg19
(lp827
sg21
I0
sba(iArchitecture
Entity
p828
(dp829
g11
(lp830
sg13
S'android.app.SystemServiceRegistry$54'
p831
sg15
(lp832
sg17
(lp833
sg19
(lp834
sg21
I0
sba(iArchitecture
Entity
p835
(dp836
g11
(lp837
sg13
S'android.app.SystemServiceRegistry$55'
p838
sg15
(lp839
sg17
(lp840
sg19
(lp841
sg21
I0
sba(iArchitecture
Entity
p842
(dp843
g11
(lp844
sg13
S'android.app.SystemServiceRegistry$56'
p845
sg15
(lp846
sg17
(lp847
sg19
(lp848
sg21
I0
sba(iArchitecture
Entity
p849
(dp850
g11
(lp851
sg13
S'android.app.SystemServiceRegistry$57'
p852
sg15
(lp853
sg17
(lp854
sg19
(lp855
sg21
I0
sba(iArchitecture
Entity
p856
(dp857
g11
(lp858
sg13
S'android.app.SystemServiceRegistry$58'
p859
sg15
(lp860
sg17
(lp861
sg19
(lp862
sg21
I0
sba(iArchitecture
Entity
p863
(dp864
g11
(lp865
sg13
S'android.app.SystemServiceRegistry$59'
p866
sg15
(lp867
sg17
(lp868
sg19
(lp869
sg21
I0
sba(iArchitecture
Entity
p870
(dp871
g11
(lp872
sg13
S'android.app.SystemServiceRegistry$6'
p873
sg15
(lp874
sg17
(lp875
sg19
(lp876
sg21
I0
sba(iArchitecture
Entity
p877
(dp878
g11
(lp879
sg13
S'android.app.SystemServiceRegistry$60'
p880
sg15
(lp881
sg17
(lp882
sg19
(lp883
sg21
I0
sba(iArchitecture
Entity
p884
(dp885
g11
(lp886
sg13
S'android.app.SystemServiceRegistry$61'
p887
sg15
(lp888
sg17
(lp889
sg19
(lp890
sg21
I0
sba(iArchitecture
Entity
p891
(dp892
g11
(lp893
sg13
S'android.app.SystemServiceRegistry$62'
p894
sg15
(lp895
sg17
(lp896
sg19
(lp897
sg21
I0
sba(iArchitecture
Entity
p898
(dp899
g11
(lp900
sg13
S'android.app.SystemServiceRegistry$63'
p901
sg15
(lp902
sg17
(lp903
sg19
(lp904
sg21
I0
sba(iArchitecture
Entity
p905
(dp906
g11
(lp907
sg13
S'android.app.SystemServiceRegistry$64'
p908
sg15
(lp909
sg17
(lp910
sg19
(lp911
sg21
I0
sba(iArchitecture
Entity
p912
(dp913
g11
(lp914
sg13
S'android.app.SystemServiceRegistry$65'
p915
sg15
(lp916
sg17
(lp917
sg19
(lp918
sg21
I0
sba(iArchitecture
Entity
p919
(dp920
g11
(lp921
sg13
S'android.app.SystemServiceRegistry$66'
p922
sg15
(lp923
sg17
(lp924
sg19
(lp925
sg21
I0
sba(iArchitecture
Entity
p926
(dp927
g11
(lp928
sg13
S'android.app.SystemServiceRegistry$67'
p929
sg15
(lp930
sg17
(lp931
sg19
(lp932
sg21
I0
sba(iArchitecture
Entity
p933
(dp934
g11
(lp935
sg13
S'android.app.SystemServiceRegistry$68'
p936
sg15
(lp937
sg17
(lp938
sg19
(lp939
sg21
I0
sba(iArchitecture
Entity
p940
(dp941
g11
(lp942
sg13
S'android.app.SystemServiceRegistry$69'
p943
sg15
(lp944
sg17
(lp945
sg19
(lp946
sg21
I0
sba(iArchitecture
Entity
p947
(dp948
g11
(lp949
sg13
S'android.app.SystemServiceRegistry$7'
p950
sg15
(lp951
sg17
(lp952
sg19
(lp953
sg21
I0
sba(iArchitecture
Entity
p954
(dp955
g11
(lp956
sg13
S'android.app.SystemServiceRegistry$70'
p957
sg15
(lp958
sg17
(lp959
sg19
(lp960
sg21
I0
sba(iArchitecture
Entity
p961
(dp962
g11
(lp963
sg13
S'android.app.SystemServiceRegistry$71'
p964
sg15
(lp965
sg17
(lp966
sg19
(lp967
sg21
I0
sba(iArchitecture
Entity
p968
(dp969
g11
(lp970
sg13
S'android.app.SystemServiceRegistry$72'
p971
sg15
(lp972
sg17
(lp973
sg19
(lp974
sg21
I0
sba(iArchitecture
Entity
p975
(dp976
g11
(lp977
sg13
S'android.app.SystemServiceRegistry$73'
p978
sg15
(lp979
sg17
(lp980
sg19
(lp981
sg21
I0
sba(iArchitecture
Entity
p982
(dp983
g11
(lp984
sg13
S'android.app.SystemServiceRegistry$74'
p985
sg15
(lp986
sg17
(lp987
sg19
(lp988
sg21
I0
sba(iArchitecture
Entity
p989
(dp990
g11
(lp991
sg13
S'android.app.SystemServiceRegistry$8'
p992
sg15
(lp993
sg17
(lp994
sg19
(lp995
sg21
I0
sba(iArchitecture
Entity
p996
(dp997
g11
(lp998
sg13
S'android.app.SystemServiceRegistry$9'
p999
sg15
(lp1000
sg17
(lp1001
sg19
(lp1002
sg21
I0
sba(iArchitecture
Entity
p1003
(dp1004
g11
(lp1005
sg13
S'android.app.SystemServiceRegistry$CachedServiceFetcher'
p1006
sg15
(lp1007
sg17
(lp1008
sg19
(lp1009
sg21
I0
sba(iArchitecture
Entity
p1010
(dp1011
g11
(lp1012
sg13
S'android.app.SystemServiceRegistry$ServiceFetcher'
p1013
sg15
(lp1014
sg17
(lp1015
sg19
(lp1016
sg21
I0
sba(iArchitecture
Entity
p1017
(dp1018
g11
(lp1019
sg13
S'android.app.SystemServiceRegistry$StaticApplicationContextServiceFetcher'
p1020
sg15
(lp1021
sg17
(lp1022
sg19
(lp1023
sg21
I0
sba(iArchitecture
Entity
p1024
(dp1025
g11
(lp1026
sg13
S'android.app.SystemServiceRegistry$StaticServiceFetcher'
p1027
sg15
(lp1028
sg17
(lp1029
sg19
(lp1030
sg21
I0
sbasg57
(lp1031
g481
ag488
ag495
ag502
ag509
ag516
ag523
ag530
ag537
ag544
ag551
ag558
ag565
ag572
ag579
ag586
ag593
ag600
ag607
ag614
ag621
ag628
ag635
ag642
ag649
ag656
ag663
ag670
ag677
ag684
ag691
ag698
ag705
ag712
ag719
ag726
ag733
ag740
ag747
ag754
ag761
ag768
ag775
ag782
ag789
ag796
ag803
ag810
ag817
ag824
ag831
ag838
ag845
ag852
ag859
ag866
ag873
ag880
ag887
ag894
ag901
ag908
ag915
ag922
ag929
ag936
ag943
ag950
ag957
ag964
ag971
ag978
ag985
ag992
ag999
ag1006
ag1013
ag1020
ag1027
asg21
I0
sg59
S'1232'
p1032
sba(iArchitecture
Cluster
p1033
(dp1034
g7
(lp1035
(iArchitecture
Entity
p1036
(dp1037
g11
(lp1038
sg13
S'android.animation.FloatKeyframeSet'
p1039
sg15
(lp1040
sg17
(lp1041
sg19
(lp1042
sg21
I0
sba(iArchitecture
Entity
p1043
(dp1044
g11
(lp1045
sg13
S'android.animation.IntKeyframeSet'
p1046
sg15
(lp1047
sg17
(lp1048
sg19
(lp1049
sg21
I0
sbasg57
(lp1050
g1039
ag1046
asg21
I0
sg59
S'1233'
p1051
sba(iArchitecture
Cluster
p1052
(dp1053
g7
(lp1054
(iArchitecture
Entity
p1055
(dp1056
g11
(lp1057
sg13
S'android.view.animation.TranslateXAnimation'
p1058
sg15
(lp1059
sg17
(lp1060
sg19
(lp1061
sg21
I0
sba(iArchitecture
Entity
p1062
(dp1063
g11
(lp1064
sg13
S'android.view.animation.TranslateYAnimation'
p1065
sg15
(lp1066
sg17
(lp1067
sg19
(lp1068
sg21
I0
sbasg57
(lp1069
g1058
ag1065
asg21
I0
sg59
S'1234'
p1070
sba(iArchitecture
Cluster
p1071
(dp1072
g7
(lp1073
(iArchitecture
Entity
p1074
(dp1075
g11
(lp1076
sg13
S'android.widget.AdapterViewFlipper'
p1077
sg15
(lp1078
sg17
(lp1079
sg19
(lp1080
sg21
I0
sba(iArchitecture
Entity
p1081
(dp1082
g11
(lp1083
sg13
S'android.widget.AdapterViewFlipper$1'
p1084
sg15
(lp1085
sg17
(lp1086
sg19
(lp1087
sg21
I0
sba(iArchitecture
Entity
p1088
(dp1089
g11
(lp1090
sg13
S'android.widget.AdapterViewFlipper$2'
p1091
sg15
(lp1092
sg17
(lp1093
sg19
(lp1094
sg21
I0
sba(iArchitecture
Entity
p1095
(dp1096
g11
(lp1097
sg13
S'android.widget.ViewFlipper'
p1098
sg15
(lp1099
sg17
(lp1100
sg19
(lp1101
sg21
I0
sba(iArchitecture
Entity
p1102
(dp1103
g11
(lp1104
sg13
S'android.widget.ViewFlipper$1'
p1105
sg15
(lp1106
sg17
(lp1107
sg19
(lp1108
sg21
I0
sba(iArchitecture
Entity
p1109
(dp1110
g11
(lp1111
sg13
S'android.widget.ViewFlipper$2'
p1112
sg15
(lp1113
sg17
(lp1114
sg19
(lp1115
sg21
I0
sbasg57
(lp1116
g1077
ag1084
ag1091
ag1098
ag1105
ag1112
asg21
I0
sg59
S'1235'
p1117
sba(iArchitecture
Cluster
p1118
(dp1119
g7
(lp1120
(iArchitecture
Entity
p1121
(dp1122
g11
(lp1123
sg13
S'com.android.server.notification.ImportanceExtractor'
p1124
sg15
(lp1125
sg17
(lp1126
sg19
(lp1127
sg21
I0
sba(iArchitecture
Entity
p1128
(dp1129
g11
(lp1130
sg13
S'com.android.server.notification.PriorityExtractor'
p1131
sg15
(lp1132
sg17
(lp1133
sg19
(lp1134
sg21
I0
sba(iArchitecture
Entity
p1135
(dp1136
g11
(lp1137
sg13
S'com.android.server.notification.VisibilityExtractor'
p1138
sg15
(lp1139
sg17
(lp1140
sg19
(lp1141
sg21
I0
sbasg57
(lp1142
g1124
ag1131
ag1138
asg21
I0
sg59
S'1236'
p1143
sba(iArchitecture
Cluster
p1144
(dp1145
g7
(lp1146
(iArchitecture
Entity
p1147
(dp1148
g11
(lp1149
sg13
S'android.telecom.AudioState'
p1150
sg15
(lp1151
sg17
(lp1152
sg19
(lp1153
sg21
I0
sba(iArchitecture
Entity
p1154
(dp1155
g11
(lp1156
sg13
S'android.telecom.AudioState$1'
p1157
sg15
(lp1158
sg17
(lp1159
sg19
(lp1160
sg21
I0
sba(iArchitecture
Entity
p1161
(dp1162
g11
(lp1163
sg13
S'android.telecom.CallAudioState'
p1164
sg15
(lp1165
sg17
(lp1166
sg19
(lp1167
sg21
I0
sba(iArchitecture
Entity
p1168
(dp1169
g11
(lp1170
sg13
S'android.telecom.CallAudioState$1'
p1171
sg15
(lp1172
sg17
(lp1173
sg19
(lp1174
sg21
I0
sbasg57
(lp1175
g1150
ag1157
ag1164
ag1171
asg21
I0
sg59
S'1237'
p1176
sba(iArchitecture
Cluster
p1177
(dp1178
g7
(lp1179
(iArchitecture
Entity
p1180
(dp1181
g11
(lp1182
sg13
S'com.android.ims.internal.uce.options.OptionsSipResponse'
p1183
sg15
(lp1184
sg17
(lp1185
sg19
(lp1186
sg21
I0
sba(iArchitecture
Entity
p1187
(dp1188
g11
(lp1189
sg13
S'com.android.ims.internal.uce.options.OptionsSipResponse$1'
p1190
sg15
(lp1191
sg17
(lp1192
sg19
(lp1193
sg21
I0
sba(iArchitecture
Entity
p1194
(dp1195
g11
(lp1196
sg13
S'com.android.ims.internal.uce.presence.PresSipResponse'
p1197
sg15
(lp1198
sg17
(lp1199
sg19
(lp1200
sg21
I0
sba(iArchitecture
Entity
p1201
(dp1202
g11
(lp1203
sg13
S'com.android.ims.internal.uce.presence.PresSipResponse$1'
p1204
sg15
(lp1205
sg17
(lp1206
sg19
(lp1207
sg21
I0
sbasg57
(lp1208
g1183
ag1190
ag1197
ag1204
asg21
I0
sg59
S'1238'
p1209
sba(iArchitecture
Cluster
p1210
(dp1211
g7
(lp1212
(iArchitecture
Entity
p1213
(dp1214
g11
(lp1215
sg13
S'android.print.PrintServiceRecommendationsLoader'
p1216
sg15
(lp1217
sg17
(lp1218
sg19
(lp1219
sg21
I0
sba(iArchitecture
Entity
p1220
(dp1221
g11
(lp1222
sg13
S'android.print.PrintServiceRecommendationsLoader$1'
p1223
sg15
(lp1224
sg17
(lp1225
sg19
(lp1226
sg21
I0
sba(iArchitecture
Entity
p1227
(dp1228
g11
(lp1229
sg13
S'android.print.PrintServiceRecommendationsLoader$MyHandler'
p1230
sg15
(lp1231
sg17
(lp1232
sg19
(lp1233
sg21
I0
sba(iArchitecture
Entity
p1234
(dp1235
g11
(lp1236
sg13
S'android.print.PrintServicesLoader'
p1237
sg15
(lp1238
sg17
(lp1239
sg19
(lp1240
sg21
I0
sba(iArchitecture
Entity
p1241
(dp1242
g11
(lp1243
sg13
S'android.print.PrintServicesLoader$1'
p1244
sg15
(lp1245
sg17
(lp1246
sg19
(lp1247
sg21
I0
sba(iArchitecture
Entity
p1248
(dp1249
g11
(lp1250
sg13
S'android.print.PrintServicesLoader$MyHandler'
p1251
sg15
(lp1252
sg17
(lp1253
sg19
(lp1254
sg21
I0
sbasg57
(lp1255
g1216
ag1223
ag1230
ag1237
ag1244
ag1251
asg21
I0
sg59
S'1239'
p1256
sbasS'target_sub'
p1257
S'123'
p1258
sg57
(lp1259
sS'is_component_arch'
p1260
I01
sg59
S'7.0.0_r1'
p1261
sba.