(lp0
(iArchitecture
Architecture
p1
(dp2
S'clusters'
p3
(lp4
(iArchitecture
Cluster
p5
(dp6
S'entities'
p7
(lp8
(iArchitecture
Entity
p9
(dp10
S'issue_ids'
p11
(lp12
sS'name'
p13
S'android.view.accessibility.CaptioningManager'
p14
sS'descs'
p15
(lp16
sS'labels'
p17
(lp18
sS'titles'
p19
(lp20
sS'change'
p21
I0
sba(iArchitecture
Entity
p22
(dp23
g11
(lp24
sg13
S'android.view.accessibility.CaptioningManager$1'
p25
sg15
(lp26
sg17
(lp27
sg19
(lp28
sg21
I0
sba(iArchitecture
Entity
p29
(dp30
g11
(lp31
sg13
S'android.view.accessibility.CaptioningManager$CaptionStyle'
p32
sg15
(lp33
sg17
(lp34
sg19
(lp35
sg21
I0
sba(iArchitecture
Entity
p36
(dp37
g11
(lp38
sg13
S'android.view.accessibility.CaptioningManager$CaptioningChangeListener'
p39
sg15
(lp40
sg17
(lp41
sg19
(lp42
sg21
I0
sba(iArchitecture
Entity
p43
(dp44
g11
(lp45
sg13
S'android.view.accessibility.CaptioningManager$MyContentObserver'
p46
sg15
(lp47
sg17
(lp48
sg19
(lp49
sg21
I0
sbasS'classes'
p50
(lp51
g14
ag25
ag32
ag39
ag46
asg21
I0
sS'label'
p52
S'1086'
p53
sba(iArchitecture
Cluster
p54
(dp55
g7
(lp56
(iArchitecture
Entity
p57
(dp58
g11
(lp59
sg13
S'android.location.LocationManager'
p60
sg15
(lp61
sg17
(lp62
sg19
(lp63
sg21
I0
sba(iArchitecture
Entity
p64
(dp65
g11
(lp66
sg13
S'android.location.LocationManager$1'
p67
sg15
(lp68
sg17
(lp69
sg19
(lp70
sg21
I0
sba(iArchitecture
Entity
p71
(dp72
g11
(lp73
sg13
S'android.location.LocationManager$GnssStatusListenerTransport'
p74
sg15
(lp75
sg17
(lp76
sg19
(lp77
sg21
I0
sba(iArchitecture
Entity
p78
(dp79
g11
(lp80
sg13
S'android.location.LocationManager$GnssStatusListenerTransport$1'
p81
sg15
(lp82
sg17
(lp83
sg19
(lp84
sg21
I0
sba(iArchitecture
Entity
p85
(dp86
g11
(lp87
sg13
S'android.location.LocationManager$GnssStatusListenerTransport$2'
p88
sg15
(lp89
sg17
(lp90
sg19
(lp91
sg21
I0
sba(iArchitecture
Entity
p92
(dp93
g11
(lp94
sg13
S'android.location.LocationManager$GnssStatusListenerTransport$3'
p95
sg15
(lp96
sg17
(lp97
sg19
(lp98
sg21
I0
sba(iArchitecture
Entity
p99
(dp100
g11
(lp101
sg13
S'android.location.LocationManager$GnssStatusListenerTransport$4'
p102
sg15
(lp103
sg17
(lp104
sg19
(lp105
sg21
I0
sba(iArchitecture
Entity
p106
(dp107
g11
(lp108
sg13
S'android.location.LocationManager$GnssStatusListenerTransport$GnssHandler'
p109
sg15
(lp110
sg17
(lp111
sg19
(lp112
sg21
I0
sba(iArchitecture
Entity
p113
(dp114
g11
(lp115
sg13
S'android.location.LocationManager$GnssStatusListenerTransport$Nmea'
p116
sg15
(lp117
sg17
(lp118
sg19
(lp119
sg21
I0
sba(iArchitecture
Entity
p120
(dp121
g11
(lp122
sg13
S'android.location.LocationManager$ListenerTransport'
p123
sg15
(lp124
sg17
(lp125
sg19
(lp126
sg21
I0
sba(iArchitecture
Entity
p127
(dp128
g11
(lp129
sg13
S'android.location.LocationManager$ListenerTransport$1'
p130
sg15
(lp131
sg17
(lp132
sg19
(lp133
sg21
I0
sba(iArchitecture
Entity
p134
(dp135
g11
(lp136
sg13
S'android.location.LocationManager$ListenerTransport$2'
p137
sg15
(lp138
sg17
(lp139
sg19
(lp140
sg21
I0
sbasg50
(lp141
g60
ag67
ag74
ag81
ag88
ag95
ag102
ag109
ag116
ag123
ag130
ag137
asg21
I0
sg52
S'1186'
p142
sba(iArchitecture
Cluster
p143
(dp144
g7
(lp145
(iArchitecture
Entity
p146
(dp147
g11
(lp148
sg13
S'android.widget.TimePicker'
p149
sg15
(lp150
sg17
(lp151
sg19
(lp152
sg21
I0
sba(iArchitecture
Entity
p153
(dp154
g11
(lp155
sg13
S'android.widget.TimePicker$AbstractTimePickerDelegate'
p156
sg15
(lp157
sg17
(lp158
sg19
(lp159
sg21
I0
sba(iArchitecture
Entity
p160
(dp161
g11
(lp162
sg13
S'android.widget.TimePicker$AbstractTimePickerDelegate$SavedState'
p163
sg15
(lp164
sg17
(lp165
sg19
(lp166
sg21
I0
sba(iArchitecture
Entity
p167
(dp168
g11
(lp169
sg13
S'android.widget.TimePicker$AbstractTimePickerDelegate$SavedState$1'
p170
sg15
(lp171
sg17
(lp172
sg19
(lp173
sg21
I0
sba(iArchitecture
Entity
p174
(dp175
g11
(lp176
sg13
S'android.widget.TimePicker$OnTimeChangedListener'
p177
sg15
(lp178
sg17
(lp179
sg19
(lp180
sg21
I0
sba(iArchitecture
Entity
p181
(dp182
g11
(lp183
sg13
S'android.widget.TimePicker$TimePickerDelegate'
p184
sg15
(lp185
sg17
(lp186
sg19
(lp187
sg21
I0
sba(iArchitecture
Entity
p188
(dp189
g11
(lp190
sg13
S'android.widget.TimePickerClockDelegate'
p191
sg15
(lp192
sg17
(lp193
sg19
(lp194
sg21
I0
sba(iArchitecture
Entity
p195
(dp196
g11
(lp197
sg13
S'android.widget.TimePickerClockDelegate$1'
p198
sg15
(lp199
sg17
(lp200
sg19
(lp201
sg21
I0
sba(iArchitecture
Entity
p202
(dp203
g11
(lp204
sg13
S'android.widget.TimePickerClockDelegate$2'
p205
sg15
(lp206
sg17
(lp207
sg19
(lp208
sg21
I0
sba(iArchitecture
Entity
p209
(dp210
g11
(lp211
sg13
S'android.widget.TimePickerClockDelegate$3'
p212
sg15
(lp213
sg17
(lp214
sg19
(lp215
sg21
I0
sba(iArchitecture
Entity
p216
(dp217
g11
(lp218
sg13
S'android.widget.TimePickerClockDelegate$4'
p219
sg15
(lp220
sg17
(lp221
sg19
(lp222
sg21
I0
sba(iArchitecture
Entity
p223
(dp224
g11
(lp225
sg13
S'android.widget.TimePickerClockDelegate$5'
p226
sg15
(lp227
sg17
(lp228
sg19
(lp229
sg21
I0
sba(iArchitecture
Entity
p230
(dp231
g11
(lp232
sg13
S'android.widget.TimePickerClockDelegate$6'
p233
sg15
(lp234
sg17
(lp235
sg19
(lp236
sg21
I0
sba(iArchitecture
Entity
p237
(dp238
g11
(lp239
sg13
S'android.widget.TimePickerClockDelegate$ClickActionDelegate'
p240
sg15
(lp241
sg17
(lp242
sg19
(lp243
sg21
I0
sba(iArchitecture
Entity
p244
(dp245
g11
(lp246
sg13
S'android.widget.TimePickerClockDelegate$NearestTouchDelegate'
p247
sg15
(lp248
sg17
(lp249
sg19
(lp250
sg21
I0
sba(iArchitecture
Entity
p251
(dp252
g11
(lp253
sg13
S'android.widget.TimePickerSpinnerDelegate'
p254
sg15
(lp255
sg17
(lp256
sg19
(lp257
sg21
I0
sba(iArchitecture
Entity
p258
(dp259
g11
(lp260
sg13
S'android.widget.TimePickerSpinnerDelegate$1'
p261
sg15
(lp262
sg17
(lp263
sg19
(lp264
sg21
I0
sba(iArchitecture
Entity
p265
(dp266
g11
(lp267
sg13
S'android.widget.TimePickerSpinnerDelegate$2'
p268
sg15
(lp269
sg17
(lp270
sg19
(lp271
sg21
I0
sba(iArchitecture
Entity
p272
(dp273
g11
(lp274
sg13
S'android.widget.TimePickerSpinnerDelegate$3'
p275
sg15
(lp276
sg17
(lp277
sg19
(lp278
sg21
I0
sba(iArchitecture
Entity
p279
(dp280
g11
(lp281
sg13
S'android.widget.TimePickerSpinnerDelegate$4'
p282
sg15
(lp283
sg17
(lp284
sg19
(lp285
sg21
I0
sbasg50
(lp286
g149
ag156
ag163
ag170
ag177
ag184
ag191
ag198
ag205
ag212
ag219
ag226
ag233
ag240
ag247
ag254
ag261
ag268
ag275
ag282
asg21
I0
sg52
S'1286'
p287
sba(iArchitecture
Cluster
p288
(dp289
g7
(lp290
(iArchitecture
Entity
p291
(dp292
g11
(lp293
sg13
S'com.android.server.am.PendingIntentRecord'
p294
sg15
(lp295
sg17
(lp296
sg19
(lp297
sg21
I0
sba(iArchitecture
Entity
p298
(dp299
g11
(lp300
sg13
S'com.android.server.am.PendingIntentRecord$Key'
p301
sg15
(lp302
sg17
(lp303
sg19
(lp304
sg21
I0
sba(iArchitecture
Entity
p305
(dp306
g11
(lp307
sg13
S'com.android.server.am.ProviderMap'
p308
sg15
(lp309
sg17
(lp310
sg19
(lp311
sg21
I0
sba(iArchitecture
Entity
p312
(dp313
g11
(lp314
sg13
S'com.android.server.notification.ConditionProviders'
p315
sg15
(lp316
sg17
(lp317
sg19
(lp318
sg21
I0
sba(iArchitecture
Entity
p319
(dp320
g11
(lp321
sg13
S'com.android.server.notification.ConditionProviders$Callback'
p322
sg15
(lp323
sg17
(lp324
sg19
(lp325
sg21
I0
sba(iArchitecture
Entity
p326
(dp327
g11
(lp328
sg13
S'com.android.server.notification.ConditionProviders$ConditionRecord'
p329
sg15
(lp330
sg17
(lp331
sg19
(lp332
sg21
I0
sba(iArchitecture
Entity
p333
(dp334
g11
(lp335
sg13
S'com.android.server.restrictions.RestrictionsManagerService'
p336
sg15
(lp337
sg17
(lp338
sg19
(lp339
sg21
I0
sba(iArchitecture
Entity
p340
(dp341
g11
(lp342
sg13
S'com.android.server.restrictions.RestrictionsManagerService$RestrictionsManagerImpl'
p343
sg15
(lp344
sg17
(lp345
sg19
(lp346
sg21
I0
sbasg50
(lp347
g294
ag301
ag308
ag315
ag322
ag329
ag336
ag343
asg21
I0
sg52
S'1386'
p348
sba(iArchitecture
Cluster
p349
(dp350
g7
(lp351
(iArchitecture
Entity
p352
(dp353
g11
(lp354
sg13
S'android.util.JsonWriter'
p355
sg15
(lp356
sg17
(lp357
sg19
(lp358
sg21
I0
sbasg50
(lp359
g355
asg21
I0
sg52
S'186'
p360
sba(iArchitecture
Cluster
p361
(dp362
g7
(lp363
(iArchitecture
Entity
p364
(dp365
g11
(lp366
sg13
S'android.text.AndroidCharacter'
p367
sg15
(lp368
sg17
(lp369
sg19
(lp370
sg21
I0
sbasg50
(lp371
g367
asg21
I0
sg52
S'286'
p372
sba(iArchitecture
Cluster
p373
(dp374
g7
(lp375
(iArchitecture
Entity
p376
(dp377
g11
(lp378
sg13
S'android.webkit.LegacyErrorStrings'
p379
sg15
(lp380
sg17
(lp381
sg19
(lp382
sg21
I0
sbasg50
(lp383
g379
asg21
I0
sg52
S'386'
p384
sba(iArchitecture
Cluster
p385
(dp386
g7
(lp387
(iArchitecture
Entity
p388
(dp389
g11
(lp390
sg13
S'android.telephony.PhoneNumberFormattingTextWatcher'
p391
sg15
(lp392
sg17
(lp393
sg19
(lp394
sg21
I0
sbasg50
(lp395
g391
asg21
I0
sg52
S'486'
p396
sba(iArchitecture
Cluster
p397
(dp398
g7
(lp399
(iArchitecture
Entity
p400
(dp401
g11
(lp402
sg13
S'android.transition.TranslationAnimationCreator'
p403
sg15
(lp404
sg17
(lp405
sg19
(lp406
sg21
I0
sba(iArchitecture
Entity
p407
(dp408
g11
(lp409
sg13
S'android.transition.TranslationAnimationCreator$TransitionPositionListener'
p410
sg15
(lp411
sg17
(lp412
sg19
(lp413
sg21
I0
sbasg50
(lp414
g403
ag410
asg21
I0
sg52
S'586'
p415
sba(iArchitecture
Cluster
p416
(dp417
g7
(lp418
(iArchitecture
Entity
p419
(dp420
g11
(lp421
sg13
S'android.telephony.ServiceState'
p422
sg15
(lp423
sg17
(lp424
sg19
(lp425
sg21
I0
sba(iArchitecture
Entity
p426
(dp427
g11
(lp428
sg13
S'android.telephony.ServiceState$1'
p429
sg15
(lp430
sg17
(lp431
sg19
(lp432
sg21
I0
sbasg50
(lp433
g422
ag429
asg21
I0
sg52
S'686'
p434
sba(iArchitecture
Cluster
p435
(dp436
g7
(lp437
(iArchitecture
Entity
p438
(dp439
g11
(lp440
sg13
S'android.media.projection.MediaProjectionInfo'
p441
sg15
(lp442
sg17
(lp443
sg19
(lp444
sg21
I0
sba(iArchitecture
Entity
p445
(dp446
g11
(lp447
sg13
S'android.media.projection.MediaProjectionInfo$1'
p448
sg15
(lp449
sg17
(lp450
sg19
(lp451
sg21
I0
sbasg50
(lp452
g441
ag448
asg21
I0
sg52
S'786'
p453
sba(iArchitecture
Cluster
p454
(dp455
g7
(lp456
(iArchitecture
Entity
p457
(dp458
g11
(lp459
sg13
S'android.view.DisplayEventReceiver'
p460
sg15
(lp461
sg17
(lp462
sg19
(lp463
sg21
I0
sbasg50
(lp464
g460
asg21
I0
sg52
S'86'
p465
sba(iArchitecture
Cluster
p466
(dp467
g7
(lp468
(iArchitecture
Entity
p469
(dp470
g11
(lp471
sg13
S'android.content.AbstractThreadedSyncAdapter'
p472
sg15
(lp473
sg17
(lp474
sg19
(lp475
sg21
I0
sba(iArchitecture
Entity
p476
(dp477
g11
(lp478
sg13
S'android.content.AbstractThreadedSyncAdapter$ISyncAdapterImpl'
p479
sg15
(lp480
sg17
(lp481
sg19
(lp482
sg21
I0
sba(iArchitecture
Entity
p483
(dp484
g11
(lp485
sg13
S'android.content.AbstractThreadedSyncAdapter$SyncThread'
p486
sg15
(lp487
sg17
(lp488
sg19
(lp489
sg21
I0
sbasg50
(lp490
g472
ag479
ag486
asg21
I0
sg52
S'860'
p491
sba(iArchitecture
Cluster
p492
(dp493
g7
(lp494
(iArchitecture
Entity
p495
(dp496
g11
(lp497
sg13
S'android.telecom.Voicemail'
p498
sg15
(lp499
sg17
(lp500
sg19
(lp501
sg21
I0
sba(iArchitecture
Entity
p502
(dp503
g11
(lp504
sg13
S'android.telecom.Voicemail$1'
p505
sg15
(lp506
sg17
(lp507
sg19
(lp508
sg21
I0
sba(iArchitecture
Entity
p509
(dp510
g11
(lp511
sg13
S'android.telecom.Voicemail$Builder'
p512
sg15
(lp513
sg17
(lp514
sg19
(lp515
sg21
I0
sbasg50
(lp516
g498
ag505
ag512
asg21
I0
sg52
S'861'
p517
sba(iArchitecture
Cluster
p518
(dp519
g7
(lp520
(iArchitecture
Entity
p521
(dp522
g11
(lp523
sg13
S'android.widget.RemoteViewsService'
p524
sg15
(lp525
sg17
(lp526
sg19
(lp527
sg21
I0
sba(iArchitecture
Entity
p528
(dp529
g11
(lp530
sg13
S'android.widget.RemoteViewsService$RemoteViewsFactory'
p531
sg15
(lp532
sg17
(lp533
sg19
(lp534
sg21
I0
sba(iArchitecture
Entity
p535
(dp536
g11
(lp537
sg13
S'android.widget.RemoteViewsService$RemoteViewsFactoryAdapter'
p538
sg15
(lp539
sg17
(lp540
sg19
(lp541
sg21
I0
sbasg50
(lp542
g524
ag531
ag538
asg21
I0
sg52
S'862'
p543
sba(iArchitecture
Cluster
p544
(dp545
g7
(lp546
(iArchitecture
Entity
p547
(dp548
g11
(lp549
sg13
S'android.graphics.drawable.ShapeDrawable'
p550
sg15
(lp551
sg17
(lp552
sg19
(lp553
sg21
I0
sba(iArchitecture
Entity
p554
(dp555
g11
(lp556
sg13
S'android.graphics.drawable.ShapeDrawable$ShaderFactory'
p557
sg15
(lp558
sg17
(lp559
sg19
(lp560
sg21
I0
sba(iArchitecture
Entity
p561
(dp562
g11
(lp563
sg13
S'android.graphics.drawable.ShapeDrawable$ShapeState'
p564
sg15
(lp565
sg17
(lp566
sg19
(lp567
sg21
I0
sbasg50
(lp568
g550
ag557
ag564
asg21
I0
sg52
S'863'
p569
sba(iArchitecture
Cluster
p570
(dp571
g7
(lp572
(iArchitecture
Entity
p573
(dp574
g11
(lp575
sg13
S'android.annotation.RequiresPermission'
p576
sg15
(lp577
sg17
(lp578
sg19
(lp579
sg21
I0
sba(iArchitecture
Entity
p580
(dp581
g11
(lp582
sg13
S'android.annotation.RequiresPermission$Read'
p583
sg15
(lp584
sg17
(lp585
sg19
(lp586
sg21
I0
sba(iArchitecture
Entity
p587
(dp588
g11
(lp589
sg13
S'android.annotation.RequiresPermission$Write'
p590
sg15
(lp591
sg17
(lp592
sg19
(lp593
sg21
I0
sbasg50
(lp594
g576
ag583
ag590
asg21
I0
sg52
S'864'
p595
sba(iArchitecture
Cluster
p596
(dp597
g7
(lp598
(iArchitecture
Entity
p599
(dp600
g11
(lp601
sg13
S'android.telecom.Conference'
p602
sg15
(lp603
sg17
(lp604
sg19
(lp605
sg21
I0
sba(iArchitecture
Entity
p606
(dp607
g11
(lp608
sg13
S'android.telecom.Conference$1'
p609
sg15
(lp610
sg17
(lp611
sg19
(lp612
sg21
I0
sba(iArchitecture
Entity
p613
(dp614
g11
(lp615
sg13
S'android.telecom.Conference$Listener'
p616
sg15
(lp617
sg17
(lp618
sg19
(lp619
sg21
I0
sbasg50
(lp620
g602
ag609
ag616
asg21
I0
sg52
S'865'
p621
sba(iArchitecture
Cluster
p622
(dp623
g7
(lp624
(iArchitecture
Entity
p625
(dp626
g11
(lp627
sg13
S'com.android.server.net.DelayedDiskWrite'
p628
sg15
(lp629
sg17
(lp630
sg19
(lp631
sg21
I0
sba(iArchitecture
Entity
p632
(dp633
g11
(lp634
sg13
S'com.android.server.net.DelayedDiskWrite$1'
p635
sg15
(lp636
sg17
(lp637
sg19
(lp638
sg21
I0
sba(iArchitecture
Entity
p639
(dp640
g11
(lp641
sg13
S'com.android.server.net.DelayedDiskWrite$Writer'
p642
sg15
(lp643
sg17
(lp644
sg19
(lp645
sg21
I0
sbasg50
(lp646
g628
ag635
ag642
asg21
I0
sg52
S'866'
p647
sba(iArchitecture
Cluster
p648
(dp649
g7
(lp650
(iArchitecture
Entity
p651
(dp652
g11
(lp653
sg13
S'android.widget.DoubleDigitManager'
p654
sg15
(lp655
sg17
(lp656
sg19
(lp657
sg21
I0
sba(iArchitecture
Entity
p658
(dp659
g11
(lp660
sg13
S'android.widget.DoubleDigitManager$1'
p661
sg15
(lp662
sg17
(lp663
sg19
(lp664
sg21
I0
sba(iArchitecture
Entity
p665
(dp666
g11
(lp667
sg13
S'android.widget.DoubleDigitManager$CallBack'
p668
sg15
(lp669
sg17
(lp670
sg19
(lp671
sg21
I0
sbasg50
(lp672
g654
ag661
ag668
asg21
I0
sg52
S'867'
p673
sba(iArchitecture
Cluster
p674
(dp675
g7
(lp676
(iArchitecture
Entity
p677
(dp678
g11
(lp679
sg13
S'android.media.MediaDescription'
p680
sg15
(lp681
sg17
(lp682
sg19
(lp683
sg21
I0
sba(iArchitecture
Entity
p684
(dp685
g11
(lp686
sg13
S'android.media.MediaDescription$1'
p687
sg15
(lp688
sg17
(lp689
sg19
(lp690
sg21
I0
sba(iArchitecture
Entity
p691
(dp692
g11
(lp693
sg13
S'android.media.MediaDescription$Builder'
p694
sg15
(lp695
sg17
(lp696
sg19
(lp697
sg21
I0
sbasg50
(lp698
g680
ag687
ag694
asg21
I0
sg52
S'868'
p699
sba(iArchitecture
Cluster
p700
(dp701
g7
(lp702
(iArchitecture
Entity
p703
(dp704
g11
(lp705
sg13
S'com.android.internal.os.ProcessCpuTracker'
p706
sg15
(lp707
sg17
(lp708
sg19
(lp709
sg21
I0
sba(iArchitecture
Entity
p710
(dp711
g11
(lp712
sg13
S'com.android.internal.os.ProcessCpuTracker$1'
p713
sg15
(lp714
sg17
(lp715
sg19
(lp716
sg21
I0
sba(iArchitecture
Entity
p717
(dp718
g11
(lp719
sg13
S'com.android.internal.os.ProcessCpuTracker$Stats'
p720
sg15
(lp721
sg17
(lp722
sg19
(lp723
sg21
I0
sbasg50
(lp724
g706
ag713
ag720
asg21
I0
sg52
S'869'
p725
sba(iArchitecture
Cluster
p726
(dp727
g7
(lp728
(iArchitecture
Entity
p729
(dp730
g11
(lp731
sg13
S'android.nfc.NfcActivityManager'
p732
sg15
(lp733
sg17
(lp734
sg19
(lp735
sg21
I0
sba(iArchitecture
Entity
p736
(dp737
g11
(lp738
sg13
S'android.nfc.NfcActivityManager$NfcActivityState'
p739
sg15
(lp740
sg17
(lp741
sg19
(lp742
sg21
I0
sba(iArchitecture
Entity
p743
(dp744
g11
(lp745
sg13
S'android.nfc.NfcActivityManager$NfcApplicationState'
p746
sg15
(lp747
sg17
(lp748
sg19
(lp749
sg21
I0
sbasg50
(lp750
g732
ag739
ag746
asg21
I0
sg52
S'886'
p751
sba(iArchitecture
Cluster
p752
(dp753
g7
(lp754
(iArchitecture
Entity
p755
(dp756
g11
(lp757
sg13
S'android.animation.Keyframe'
p758
sg15
(lp759
sg17
(lp760
sg19
(lp761
sg21
I0
sba(iArchitecture
Entity
p762
(dp763
g11
(lp764
sg13
S'android.animation.Keyframe$FloatKeyframe'
p765
sg15
(lp766
sg17
(lp767
sg19
(lp768
sg21
I0
sba(iArchitecture
Entity
p769
(dp770
g11
(lp771
sg13
S'android.animation.Keyframe$IntKeyframe'
p772
sg15
(lp773
sg17
(lp774
sg19
(lp775
sg21
I0
sba(iArchitecture
Entity
p776
(dp777
g11
(lp778
sg13
S'android.animation.Keyframe$ObjectKeyframe'
p779
sg15
(lp780
sg17
(lp781
sg19
(lp782
sg21
I0
sbasg50
(lp783
g758
ag765
ag772
ag779
asg21
I0
sg52
S'986'
p784
sbasS'target_sub'
p785
S'86'
p786
sg50
(lp787
sS'is_component_arch'
p788
I01
sg52
S'7.0.0_r1'
p789
sba.