(lp0
(iArchitecture
Architecture
p1
(dp2
S'clusters'
p3
(lp4
(iArchitecture
Cluster
p5
(dp6
S'entities'
p7
(lp8
(iArchitecture
Entity
p9
(dp10
S'issue_ids'
p11
(lp12
sS'name'
p13
S'android.net.http.X509TrustManagerExtensions'
p14
sS'descs'
p15
(lp16
sS'labels'
p17
(lp18
sS'titles'
p19
(lp20
sS'change'
p21
I0
sba(iArchitecture
Entity
p22
(dp23
g11
(lp24
sg13
S'android.security.net.config.NetworkSecurityTrustManager'
p25
sg15
(lp26
sg17
(lp27
sg19
(lp28
sg21
I0
sba(iArchitecture
Entity
p29
(dp30
g11
(lp31
sg13
S'android.security.net.config.RootTrustManager'
p32
sg15
(lp33
sg17
(lp34
sg19
(lp35
sg21
I0
sbasS'classes'
p36
(lp37
g14
ag25
ag32
asg21
I0
sS'label'
p38
S'1282'
p39
sba(iArchitecture
Cluster
p40
(dp41
g7
(lp42
(iArchitecture
Entity
p43
(dp44
g11
(lp45
sg13
S'android.filterpacks.imageproc.AutoFixFilter'
p46
sg15
(lp47
sg17
(lp48
sg19
(lp49
sg21
I0
sbasg36
(lp50
g46
asg21
I0
sg38
S'282'
p51
sbasS'target_sub'
p52
S'282'
p53
sg36
(lp54
sS'is_component_arch'
p55
I01
sg38
S'7.0.0_r1'
p56
sba.