(lp0
(iArchitecture
Architecture
p1
(dp2
S'clusters'
p3
(lp4
(iArchitecture
Cluster
p5
(dp6
S'entities'
p7
(lp8
(iArchitecture
Entity
p9
(dp10
S'issue_ids'
p11
(lp12
sS'name'
p13
S'android.net.apf.ApfGenerator'
p14
sS'descs'
p15
(lp16
sS'labels'
p17
(lp18
sS'titles'
p19
(lp20
sS'change'
p21
I0
sba(iArchitecture
Entity
p22
(dp23
g11
(lp24
sg13
S'android.net.apf.ApfGenerator$ExtendedOpcodes'
p25
sg15
(lp26
sg17
(lp27
sg19
(lp28
sg21
I0
sba(iArchitecture
Entity
p29
(dp30
g11
(lp31
sg13
S'android.net.apf.ApfGenerator$IllegalInstructionException'
p32
sg15
(lp33
sg17
(lp34
sg19
(lp35
sg21
I0
sba(iArchitecture
Entity
p36
(dp37
g11
(lp38
sg13
S'android.net.apf.ApfGenerator$Instruction'
p39
sg15
(lp40
sg17
(lp41
sg19
(lp42
sg21
I0
sba(iArchitecture
Entity
p43
(dp44
g11
(lp45
sg13
S'android.net.apf.ApfGenerator$Opcodes'
p46
sg15
(lp47
sg17
(lp48
sg19
(lp49
sg21
I0
sba(iArchitecture
Entity
p50
(dp51
g11
(lp52
sg13
S'android.net.apf.ApfGenerator$Register'
p53
sg15
(lp54
sg17
(lp55
sg19
(lp56
sg21
I0
sbasS'classes'
p57
(lp58
g14
ag25
ag32
ag39
ag46
ag53
asg21
I0
sS'label'
p59
S'1129'
p60
sba(iArchitecture
Cluster
p61
(dp62
g7
(lp63
(iArchitecture
Entity
p64
(dp65
g11
(lp66
sg13
S'android.animation.KeyframeSet'
p67
sg15
(lp68
sg17
(lp69
sg19
(lp70
sg21
I0
sbasg57
(lp71
g67
asg21
I0
sg59
S'129'
p72
sba(iArchitecture
Cluster
p73
(dp74
g7
(lp75
(iArchitecture
Entity
p76
(dp77
g11
(lp78
sg13
S'android.renderscript.Matrix2f'
p79
sg15
(lp80
sg17
(lp81
sg19
(lp82
sg21
I0
sba(iArchitecture
Entity
p83
(dp84
g11
(lp85
sg13
S'android.renderscript.Matrix3f'
p86
sg15
(lp87
sg17
(lp88
sg19
(lp89
sg21
I0
sba(iArchitecture
Entity
p90
(dp91
g11
(lp92
sg13
S'android.renderscript.Matrix4f'
p93
sg15
(lp94
sg17
(lp95
sg19
(lp96
sg21
I0
sbasg57
(lp97
g79
ag86
ag93
asg21
I0
sg59
S'1290'
p98
sba(iArchitecture
Cluster
p99
(dp100
g7
(lp101
(iArchitecture
Entity
p102
(dp103
g11
(lp104
sg13
S'com.android.server.display.WifiDisplayAdapter'
p105
sg15
(lp106
sg17
(lp107
sg19
(lp108
sg21
I0
sba(iArchitecture
Entity
p109
(dp110
g11
(lp111
sg13
S'com.android.server.display.WifiDisplayAdapter$1'
p112
sg15
(lp113
sg17
(lp114
sg19
(lp115
sg21
I0
sba(iArchitecture
Entity
p116
(dp117
g11
(lp118
sg13
S'com.android.server.display.WifiDisplayAdapter$2'
p119
sg15
(lp120
sg17
(lp121
sg19
(lp122
sg21
I0
sba(iArchitecture
Entity
p123
(dp124
g11
(lp125
sg13
S'com.android.server.display.WifiDisplayAdapter$3'
p126
sg15
(lp127
sg17
(lp128
sg19
(lp129
sg21
I0
sba(iArchitecture
Entity
p130
(dp131
g11
(lp132
sg13
S'com.android.server.display.WifiDisplayAdapter$4'
p133
sg15
(lp134
sg17
(lp135
sg19
(lp136
sg21
I0
sba(iArchitecture
Entity
p137
(dp138
g11
(lp139
sg13
S'com.android.server.display.WifiDisplayAdapter$5'
p140
sg15
(lp141
sg17
(lp142
sg19
(lp143
sg21
I0
sba(iArchitecture
Entity
p144
(dp145
g11
(lp146
sg13
S'com.android.server.display.WifiDisplayAdapter$6'
p147
sg15
(lp148
sg17
(lp149
sg19
(lp150
sg21
I0
sba(iArchitecture
Entity
p151
(dp152
g11
(lp153
sg13
S'com.android.server.display.WifiDisplayAdapter$7'
p154
sg15
(lp155
sg17
(lp156
sg19
(lp157
sg21
I0
sba(iArchitecture
Entity
p158
(dp159
g11
(lp160
sg13
S'com.android.server.display.WifiDisplayAdapter$8'
p161
sg15
(lp162
sg17
(lp163
sg19
(lp164
sg21
I0
sba(iArchitecture
Entity
p165
(dp166
g11
(lp167
sg13
S'com.android.server.display.WifiDisplayAdapter$9'
p168
sg15
(lp169
sg17
(lp170
sg19
(lp171
sg21
I0
sba(iArchitecture
Entity
p172
(dp173
g11
(lp174
sg13
S'com.android.server.display.WifiDisplayAdapter$WifiDisplayDevice'
p175
sg15
(lp176
sg17
(lp177
sg19
(lp178
sg21
I0
sba(iArchitecture
Entity
p179
(dp180
g11
(lp181
sg13
S'com.android.server.display.WifiDisplayAdapter$WifiDisplayHandler'
p182
sg15
(lp183
sg17
(lp184
sg19
(lp185
sg21
I0
sba(iArchitecture
Entity
p186
(dp187
g11
(lp188
sg13
S'com.android.server.display.WifiDisplayController'
p189
sg15
(lp190
sg17
(lp191
sg19
(lp192
sg21
I0
sba(iArchitecture
Entity
p193
(dp194
g11
(lp195
sg13
S'com.android.server.display.WifiDisplayController$1'
p196
sg15
(lp197
sg17
(lp198
sg19
(lp199
sg21
I0
sba(iArchitecture
Entity
p200
(dp201
g11
(lp202
sg13
S'com.android.server.display.WifiDisplayController$10'
p203
sg15
(lp204
sg17
(lp205
sg19
(lp206
sg21
I0
sba(iArchitecture
Entity
p207
(dp208
g11
(lp209
sg13
S'com.android.server.display.WifiDisplayController$11'
p210
sg15
(lp211
sg17
(lp212
sg19
(lp213
sg21
I0
sba(iArchitecture
Entity
p214
(dp215
g11
(lp216
sg13
S'com.android.server.display.WifiDisplayController$12'
p217
sg15
(lp218
sg17
(lp219
sg19
(lp220
sg21
I0
sba(iArchitecture
Entity
p221
(dp222
g11
(lp223
sg13
S'com.android.server.display.WifiDisplayController$13'
p224
sg15
(lp225
sg17
(lp226
sg19
(lp227
sg21
I0
sba(iArchitecture
Entity
p228
(dp229
g11
(lp230
sg13
S'com.android.server.display.WifiDisplayController$14'
p231
sg15
(lp232
sg17
(lp233
sg19
(lp234
sg21
I0
sba(iArchitecture
Entity
p235
(dp236
g11
(lp237
sg13
S'com.android.server.display.WifiDisplayController$15'
p238
sg15
(lp239
sg17
(lp240
sg19
(lp241
sg21
I0
sba(iArchitecture
Entity
p242
(dp243
g11
(lp244
sg13
S'com.android.server.display.WifiDisplayController$16'
p245
sg15
(lp246
sg17
(lp247
sg19
(lp248
sg21
I0
sba(iArchitecture
Entity
p249
(dp250
g11
(lp251
sg13
S'com.android.server.display.WifiDisplayController$17'
p252
sg15
(lp253
sg17
(lp254
sg19
(lp255
sg21
I0
sba(iArchitecture
Entity
p256
(dp257
g11
(lp258
sg13
S'com.android.server.display.WifiDisplayController$18'
p259
sg15
(lp260
sg17
(lp261
sg19
(lp262
sg21
I0
sba(iArchitecture
Entity
p263
(dp264
g11
(lp265
sg13
S'com.android.server.display.WifiDisplayController$19'
p266
sg15
(lp267
sg17
(lp268
sg19
(lp269
sg21
I0
sba(iArchitecture
Entity
p270
(dp271
g11
(lp272
sg13
S'com.android.server.display.WifiDisplayController$2'
p273
sg15
(lp274
sg17
(lp275
sg19
(lp276
sg21
I0
sba(iArchitecture
Entity
p277
(dp278
g11
(lp279
sg13
S'com.android.server.display.WifiDisplayController$20'
p280
sg15
(lp281
sg17
(lp282
sg19
(lp283
sg21
I0
sba(iArchitecture
Entity
p284
(dp285
g11
(lp286
sg13
S'com.android.server.display.WifiDisplayController$21'
p287
sg15
(lp288
sg17
(lp289
sg19
(lp290
sg21
I0
sba(iArchitecture
Entity
p291
(dp292
g11
(lp293
sg13
S'com.android.server.display.WifiDisplayController$3'
p294
sg15
(lp295
sg17
(lp296
sg19
(lp297
sg21
I0
sba(iArchitecture
Entity
p298
(dp299
g11
(lp300
sg13
S'com.android.server.display.WifiDisplayController$4'
p301
sg15
(lp302
sg17
(lp303
sg19
(lp304
sg21
I0
sba(iArchitecture
Entity
p305
(dp306
g11
(lp307
sg13
S'com.android.server.display.WifiDisplayController$5'
p308
sg15
(lp309
sg17
(lp310
sg19
(lp311
sg21
I0
sba(iArchitecture
Entity
p312
(dp313
g11
(lp314
sg13
S'com.android.server.display.WifiDisplayController$6'
p315
sg15
(lp316
sg17
(lp317
sg19
(lp318
sg21
I0
sba(iArchitecture
Entity
p319
(dp320
g11
(lp321
sg13
S'com.android.server.display.WifiDisplayController$7'
p322
sg15
(lp323
sg17
(lp324
sg19
(lp325
sg21
I0
sba(iArchitecture
Entity
p326
(dp327
g11
(lp328
sg13
S'com.android.server.display.WifiDisplayController$8'
p329
sg15
(lp330
sg17
(lp331
sg19
(lp332
sg21
I0
sba(iArchitecture
Entity
p333
(dp334
g11
(lp335
sg13
S'com.android.server.display.WifiDisplayController$9'
p336
sg15
(lp337
sg17
(lp338
sg19
(lp339
sg21
I0
sba(iArchitecture
Entity
p340
(dp341
g11
(lp342
sg13
S'com.android.server.display.WifiDisplayController$Listener'
p343
sg15
(lp344
sg17
(lp345
sg19
(lp346
sg21
I0
sbasg57
(lp347
g105
ag112
ag119
ag126
ag133
ag140
ag147
ag154
ag161
ag168
ag175
ag182
ag189
ag196
ag203
ag210
ag217
ag224
ag231
ag238
ag245
ag252
ag259
ag266
ag273
ag280
ag287
ag294
ag301
ag308
ag315
ag322
ag329
ag336
ag343
asg21
I0
sg59
S'1291'
p348
sba(iArchitecture
Cluster
p349
(dp350
g7
(lp351
(iArchitecture
Entity
p352
(dp353
g11
(lp354
sg13
S'junit.framework.TestCase'
p355
sg15
(lp356
sg17
(lp357
sg19
(lp358
sg21
I0
sba(iArchitecture
Entity
p359
(dp360
g11
(lp361
sg13
S'junit.framework.TestSuite'
p362
sg15
(lp363
sg17
(lp364
sg19
(lp365
sg21
I0
sbasg57
(lp366
g355
ag362
asg21
I0
sg59
S'1292'
p367
sba(iArchitecture
Cluster
p368
(dp369
g7
(lp370
(iArchitecture
Entity
p371
(dp372
g11
(lp373
sg13
S'com.android.internal.app.procstats.DurationsTable'
p374
sg15
(lp375
sg17
(lp376
sg19
(lp377
sg21
I0
sba(iArchitecture
Entity
p378
(dp379
g11
(lp380
sg13
S'com.android.server.pm.KeySetHandle'
p381
sg15
(lp382
sg17
(lp383
sg19
(lp384
sg21
I0
sbasg57
(lp385
g374
ag381
asg21
I0
sg59
S'1293'
p386
sba(iArchitecture
Cluster
p387
(dp388
g7
(lp389
(iArchitecture
Entity
p390
(dp391
g11
(lp392
sg13
S'android.location.GnssMeasurementsEvent'
p393
sg15
(lp394
sg17
(lp395
sg19
(lp396
sg21
I0
sba(iArchitecture
Entity
p397
(dp398
g11
(lp399
sg13
S'android.location.GnssMeasurementsEvent$1'
p400
sg15
(lp401
sg17
(lp402
sg19
(lp403
sg21
I0
sba(iArchitecture
Entity
p404
(dp405
g11
(lp406
sg13
S'android.location.GnssMeasurementsEvent$Callback'
p407
sg15
(lp408
sg17
(lp409
sg19
(lp410
sg21
I0
sba(iArchitecture
Entity
p411
(dp412
g11
(lp413
sg13
S'android.location.GpsMeasurementsEvent'
p414
sg15
(lp415
sg17
(lp416
sg19
(lp417
sg21
I0
sba(iArchitecture
Entity
p418
(dp419
g11
(lp420
sg13
S'android.location.GpsMeasurementsEvent$1'
p421
sg15
(lp422
sg17
(lp423
sg19
(lp424
sg21
I0
sba(iArchitecture
Entity
p425
(dp426
g11
(lp427
sg13
S'android.location.GpsMeasurementsEvent$Listener'
p428
sg15
(lp429
sg17
(lp430
sg19
(lp431
sg21
I0
sbasg57
(lp432
g393
ag400
ag407
ag414
ag421
ag428
asg21
I0
sg59
S'1294'
p433
sba(iArchitecture
Cluster
p434
(dp435
g7
(lp436
(iArchitecture
Entity
p437
(dp438
g11
(lp439
sg13
S'android.hardware.location.NanoApp'
p440
sg15
(lp441
sg17
(lp442
sg19
(lp443
sg21
I0
sba(iArchitecture
Entity
p444
(dp445
g11
(lp446
sg13
S'android.hardware.location.NanoApp$1'
p447
sg15
(lp448
sg17
(lp449
sg19
(lp450
sg21
I0
sba(iArchitecture
Entity
p451
(dp452
g11
(lp453
sg13
S'android.hardware.location.NanoAppInstanceInfo'
p454
sg15
(lp455
sg17
(lp456
sg19
(lp457
sg21
I0
sba(iArchitecture
Entity
p458
(dp459
g11
(lp460
sg13
S'android.hardware.location.NanoAppInstanceInfo$1'
p461
sg15
(lp462
sg17
(lp463
sg19
(lp464
sg21
I0
sbasg57
(lp465
g440
ag447
ag454
ag461
asg21
I0
sg59
S'1295'
p466
sba(iArchitecture
Cluster
p467
(dp468
g7
(lp469
(iArchitecture
Entity
p470
(dp471
g11
(lp472
sg13
S'android.os.Registrant'
p473
sg15
(lp474
sg17
(lp475
sg19
(lp476
sg21
I0
sba(iArchitecture
Entity
p477
(dp478
g11
(lp479
sg13
S'android.os.RegistrantList'
p480
sg15
(lp481
sg17
(lp482
sg19
(lp483
sg21
I0
sbasg57
(lp484
g473
ag480
asg21
I0
sg59
S'1296'
p485
sba(iArchitecture
Cluster
p486
(dp487
g7
(lp488
(iArchitecture
Entity
p489
(dp490
g11
(lp491
sg13
S'android.bluetooth.BluetoothHealth'
p492
sg15
(lp493
sg17
(lp494
sg19
(lp495
sg21
I0
sba(iArchitecture
Entity
p496
(dp497
g11
(lp498
sg13
S'android.bluetooth.BluetoothHealth$1'
p499
sg15
(lp500
sg17
(lp501
sg19
(lp502
sg21
I0
sba(iArchitecture
Entity
p503
(dp504
g11
(lp505
sg13
S'android.bluetooth.BluetoothHealth$2'
p506
sg15
(lp507
sg17
(lp508
sg19
(lp509
sg21
I0
sba(iArchitecture
Entity
p510
(dp511
g11
(lp512
sg13
S'android.bluetooth.BluetoothHealth$BluetoothHealthCallbackWrapper'
p513
sg15
(lp514
sg17
(lp515
sg19
(lp516
sg21
I0
sba(iArchitecture
Entity
p517
(dp518
g11
(lp519
sg13
S'android.net.nsd.NsdManager'
p520
sg15
(lp521
sg17
(lp522
sg19
(lp523
sg21
I0
sba(iArchitecture
Entity
p524
(dp525
g11
(lp526
sg13
S'android.net.nsd.NsdManager$DiscoveryListener'
p527
sg15
(lp528
sg17
(lp529
sg19
(lp530
sg21
I0
sba(iArchitecture
Entity
p531
(dp532
g11
(lp533
sg13
S'android.net.nsd.NsdManager$RegistrationListener'
p534
sg15
(lp535
sg17
(lp536
sg19
(lp537
sg21
I0
sba(iArchitecture
Entity
p538
(dp539
g11
(lp540
sg13
S'android.net.nsd.NsdManager$ResolveListener'
p541
sg15
(lp542
sg17
(lp543
sg19
(lp544
sg21
I0
sba(iArchitecture
Entity
p545
(dp546
g11
(lp547
sg13
S'android.net.nsd.NsdManager$ServiceHandler'
p548
sg15
(lp549
sg17
(lp550
sg19
(lp551
sg21
I0
sbasg57
(lp552
g492
ag499
ag506
ag513
ag520
ag527
ag534
ag541
ag548
asg21
I0
sg59
S'1297'
p553
sba(iArchitecture
Cluster
p554
(dp555
g7
(lp556
(iArchitecture
Entity
p557
(dp558
g11
(lp559
sg13
S'android.media.AudioRecord'
p560
sg15
(lp561
sg17
(lp562
sg19
(lp563
sg21
I0
sba(iArchitecture
Entity
p564
(dp565
g11
(lp566
sg13
S'android.media.AudioRecord$Builder'
p567
sg15
(lp568
sg17
(lp569
sg19
(lp570
sg21
I0
sba(iArchitecture
Entity
p571
(dp572
g11
(lp573
sg13
S'android.media.AudioRecord$NativeEventHandler'
p574
sg15
(lp575
sg17
(lp576
sg19
(lp577
sg21
I0
sba(iArchitecture
Entity
p578
(dp579
g11
(lp580
sg13
S'android.media.AudioRecord$NativeRoutingEventHandlerDelegate'
p581
sg15
(lp582
sg17
(lp583
sg19
(lp584
sg21
I0
sba(iArchitecture
Entity
p585
(dp586
g11
(lp587
sg13
S'android.media.AudioRecord$NativeRoutingEventHandlerDelegate$1'
p588
sg15
(lp589
sg17
(lp590
sg19
(lp591
sg21
I0
sba(iArchitecture
Entity
p592
(dp593
g11
(lp594
sg13
S'android.media.AudioRecord$OnRecordPositionUpdateListener'
p595
sg15
(lp596
sg17
(lp597
sg19
(lp598
sg21
I0
sba(iArchitecture
Entity
p599
(dp600
g11
(lp601
sg13
S'android.media.AudioRecord$OnRoutingChangedListener'
p602
sg15
(lp603
sg17
(lp604
sg19
(lp605
sg21
I0
sba(iArchitecture
Entity
p606
(dp607
g11
(lp608
sg13
S'android.media.AudioTrack'
p609
sg15
(lp610
sg17
(lp611
sg19
(lp612
sg21
I0
sba(iArchitecture
Entity
p613
(dp614
g11
(lp615
sg13
S'android.media.AudioTrack$Builder'
p616
sg15
(lp617
sg17
(lp618
sg19
(lp619
sg21
I0
sba(iArchitecture
Entity
p620
(dp621
g11
(lp622
sg13
S'android.media.AudioTrack$NativePositionEventHandlerDelegate'
p623
sg15
(lp624
sg17
(lp625
sg19
(lp626
sg21
I0
sba(iArchitecture
Entity
p627
(dp628
g11
(lp629
sg13
S'android.media.AudioTrack$NativePositionEventHandlerDelegate$1'
p630
sg15
(lp631
sg17
(lp632
sg19
(lp633
sg21
I0
sba(iArchitecture
Entity
p634
(dp635
g11
(lp636
sg13
S'android.media.AudioTrack$NativeRoutingEventHandlerDelegate'
p637
sg15
(lp638
sg17
(lp639
sg19
(lp640
sg21
I0
sba(iArchitecture
Entity
p641
(dp642
g11
(lp643
sg13
S'android.media.AudioTrack$NativeRoutingEventHandlerDelegate$1'
p644
sg15
(lp645
sg17
(lp646
sg19
(lp647
sg21
I0
sba(iArchitecture
Entity
p648
(dp649
g11
(lp650
sg13
S'android.media.AudioTrack$OnPlaybackPositionUpdateListener'
p651
sg15
(lp652
sg17
(lp653
sg19
(lp654
sg21
I0
sba(iArchitecture
Entity
p655
(dp656
g11
(lp657
sg13
S'android.media.AudioTrack$OnRoutingChangedListener'
p658
sg15
(lp659
sg17
(lp660
sg19
(lp661
sg21
I0
sba(iArchitecture
Entity
p662
(dp663
g11
(lp664
sg13
S'android.speech.tts.BlockingAudioTrack'
p665
sg15
(lp666
sg17
(lp667
sg19
(lp668
sg21
I0
sbasg57
(lp669
g560
ag567
ag574
ag581
ag588
ag595
ag602
ag609
ag616
ag623
ag630
ag637
ag644
ag651
ag658
ag665
asg21
I0
sg59
S'1298'
p670
sba(iArchitecture
Cluster
p671
(dp672
g7
(lp673
(iArchitecture
Entity
p674
(dp675
g11
(lp676
sg13
S'android.mtp.MtpServer'
p677
sg15
(lp678
sg17
(lp679
sg19
(lp680
sg21
I0
sba(iArchitecture
Entity
p681
(dp682
g11
(lp683
sg13
S'android.mtp.MtpStorage'
p684
sg15
(lp685
sg17
(lp686
sg19
(lp687
sg21
I0
sba(iArchitecture
Entity
p688
(dp689
g11
(lp690
sg13
S'android.mtp.MtpStorageInfo'
p691
sg15
(lp692
sg17
(lp693
sg19
(lp694
sg21
I0
sbasg57
(lp695
g677
ag684
ag691
asg21
I0
sg59
S'1299'
p696
sbasS'target_sub'
p697
S'129'
p698
sg57
(lp699
sS'is_component_arch'
p700
I01
sg59
S'7.0.0_r1'
p701
sba.