(lp0
(iArchitecture
Architecture
p1
(dp2
S'clusters'
p3
(lp4
(iArchitecture
Cluster
p5
(dp6
S'entities'
p7
(lp8
(iArchitecture
Entity
p9
(dp10
S'issue_ids'
p11
(lp12
sS'name'
p13
S'android.provider.SearchIndexablesContract'
p14
sS'descs'
p15
(lp16
sS'labels'
p17
(lp18
sS'titles'
p19
(lp20
sS'change'
p21
I0
sba(iArchitecture
Entity
p22
(dp23
g11
(lp24
sg13
S'android.provider.SearchIndexablesContract$BaseColumns'
p25
sg15
(lp26
sg17
(lp27
sg19
(lp28
sg21
I0
sba(iArchitecture
Entity
p29
(dp30
g11
(lp31
sg13
S'android.provider.SearchIndexablesContract$NonIndexableKey'
p32
sg15
(lp33
sg17
(lp34
sg19
(lp35
sg21
I0
sba(iArchitecture
Entity
p36
(dp37
g11
(lp38
sg13
S'android.provider.SearchIndexablesContract$RawData'
p39
sg15
(lp40
sg17
(lp41
sg19
(lp42
sg21
I0
sba(iArchitecture
Entity
p43
(dp44
g11
(lp45
sg13
S'android.provider.SearchIndexablesContract$XmlResource'
p46
sg15
(lp47
sg17
(lp48
sg19
(lp49
sg21
I0
sbasS'classes'
p50
(lp51
g14
ag25
ag32
ag39
ag46
asg21
I0
sS'label'
p52
S'1077'
p53
sba(iArchitecture
Cluster
p54
(dp55
g7
(lp56
(iArchitecture
Entity
p57
(dp58
g11
(lp59
sg13
S'com.android.server.twilight.TwilightService'
p60
sg15
(lp61
sg17
(lp62
sg19
(lp63
sg21
I0
sba(iArchitecture
Entity
p64
(dp65
g11
(lp66
sg13
S'com.android.server.twilight.TwilightService$1'
p67
sg15
(lp68
sg17
(lp69
sg19
(lp70
sg21
I0
sba(iArchitecture
Entity
p71
(dp72
g11
(lp73
sg13
S'com.android.server.twilight.TwilightService$2'
p74
sg15
(lp75
sg17
(lp76
sg19
(lp77
sg21
I0
sba(iArchitecture
Entity
p78
(dp79
g11
(lp80
sg13
S'com.android.server.twilight.TwilightService$3'
p81
sg15
(lp82
sg17
(lp83
sg19
(lp84
sg21
I0
sba(iArchitecture
Entity
p85
(dp86
g11
(lp87
sg13
S'com.android.server.twilight.TwilightService$4'
p88
sg15
(lp89
sg17
(lp90
sg19
(lp91
sg21
I0
sba(iArchitecture
Entity
p92
(dp93
g11
(lp94
sg13
S'com.android.server.twilight.TwilightService$5'
p95
sg15
(lp96
sg17
(lp97
sg19
(lp98
sg21
I0
sba(iArchitecture
Entity
p99
(dp100
g11
(lp101
sg13
S'com.android.server.twilight.TwilightService$LocationHandler'
p102
sg15
(lp103
sg17
(lp104
sg19
(lp105
sg21
I0
sba(iArchitecture
Entity
p106
(dp107
g11
(lp108
sg13
S'com.android.server.twilight.TwilightService$TwilightListenerRecord'
p109
sg15
(lp110
sg17
(lp111
sg19
(lp112
sg21
I0
sbasg50
(lp113
g60
ag67
ag74
ag81
ag88
ag95
ag102
ag109
asg21
I0
sg52
S'1177'
p114
sba(iArchitecture
Cluster
p115
(dp116
g7
(lp117
(iArchitecture
Entity
p118
(dp119
g11
(lp120
sg13
S'android.net.netlink.RtNetlinkNeighborMessage'
p121
sg15
(lp122
sg17
(lp123
sg19
(lp124
sg21
I0
sba(iArchitecture
Entity
p125
(dp126
g11
(lp127
sg13
S'android.net.netlink.StructNlAttr'
p128
sg15
(lp129
sg17
(lp130
sg19
(lp131
sg21
I0
sba(iArchitecture
Entity
p132
(dp133
g11
(lp134
sg13
S'android.net.netlink.StructNlMsgHdr'
p135
sg15
(lp136
sg17
(lp137
sg19
(lp138
sg21
I0
sbasg50
(lp139
g121
ag128
ag135
asg21
I0
sg52
S'1277'
p140
sba(iArchitecture
Cluster
p141
(dp142
g7
(lp143
(iArchitecture
Entity
p144
(dp145
g11
(lp146
sg13
S'android.sax.Element'
p147
sg15
(lp148
sg17
(lp149
sg19
(lp150
sg21
I0
sba(iArchitecture
Entity
p151
(dp152
g11
(lp153
sg13
S'android.widget.ExpandableListPosition'
p154
sg15
(lp155
sg17
(lp156
sg19
(lp157
sg21
I0
sbasg50
(lp158
g147
ag154
asg21
I0
sg52
S'1377'
p159
sba(iArchitecture
Cluster
p160
(dp161
g7
(lp162
(iArchitecture
Entity
p163
(dp164
g11
(lp165
sg13
S'com.google.android.gles_jni.EGLImpl'
p166
sg15
(lp167
sg17
(lp168
sg19
(lp169
sg21
I0
sbasg50
(lp170
g166
asg21
I0
sg52
S'177'
p171
sba(iArchitecture
Cluster
p172
(dp173
g7
(lp174
(iArchitecture
Entity
p175
(dp176
g11
(lp177
sg13
S'javax.microedition.khronos.opengles.GL11ExtensionPack'
p178
sg15
(lp179
sg17
(lp180
sg19
(lp181
sg21
I0
sbasg50
(lp182
g178
asg21
I0
sg52
S'277'
p183
sba(iArchitecture
Cluster
p184
(dp185
g7
(lp186
(iArchitecture
Entity
p187
(dp188
g11
(lp189
sg13
S'android.content.UriMatcher'
p190
sg15
(lp191
sg17
(lp192
sg19
(lp193
sg21
I0
sbasg50
(lp194
g190
asg21
I0
sg52
S'377'
p195
sba(iArchitecture
Cluster
p196
(dp197
g7
(lp198
(iArchitecture
Entity
p199
(dp200
g11
(lp201
sg13
S'com.android.server.pm.PackageSettingBase'
p202
sg15
(lp203
sg17
(lp204
sg19
(lp205
sg21
I0
sbasg50
(lp206
g202
asg21
I0
sg52
S'477'
p207
sba(iArchitecture
Cluster
p208
(dp209
g7
(lp210
(iArchitecture
Entity
p211
(dp212
g11
(lp213
sg13
S'com.android.server.accessibility.AccessibilityGestureDetector'
p214
sg15
(lp215
sg17
(lp216
sg19
(lp217
sg21
I0
sba(iArchitecture
Entity
p218
(dp219
g11
(lp220
sg13
S'com.android.server.accessibility.AccessibilityGestureDetector$Listener'
p221
sg15
(lp222
sg17
(lp223
sg19
(lp224
sg21
I0
sbasg50
(lp225
g214
ag221
asg21
I0
sg52
S'577'
p226
sba(iArchitecture
Cluster
p227
(dp228
g7
(lp229
(iArchitecture
Entity
p230
(dp231
g11
(lp232
sg13
S'com.android.server.tv.PersistentDataStore'
p233
sg15
(lp234
sg17
(lp235
sg19
(lp236
sg21
I0
sba(iArchitecture
Entity
p237
(dp238
g11
(lp239
sg13
S'com.android.server.tv.PersistentDataStore$1'
p240
sg15
(lp241
sg17
(lp242
sg19
(lp243
sg21
I0
sbasg50
(lp244
g233
ag240
asg21
I0
sg52
S'677'
p245
sba(iArchitecture
Cluster
p246
(dp247
g7
(lp248
(iArchitecture
Entity
p249
(dp250
g11
(lp251
sg13
S'android.speech.tts.SynthesisCallback'
p252
sg15
(lp253
sg17
(lp254
sg19
(lp255
sg21
I0
sbasg50
(lp256
g252
asg21
I0
sg52
S'77'
p257
sba(iArchitecture
Cluster
p258
(dp259
g7
(lp260
(iArchitecture
Entity
p261
(dp262
g11
(lp263
sg13
S'android.content.pm.InstrumentationInfo'
p264
sg15
(lp265
sg17
(lp266
sg19
(lp267
sg21
I0
sba(iArchitecture
Entity
p268
(dp269
g11
(lp270
sg13
S'android.content.pm.InstrumentationInfo$1'
p271
sg15
(lp272
sg17
(lp273
sg19
(lp274
sg21
I0
sbasg50
(lp275
g264
ag271
asg21
I0
sg52
S'770'
p276
sba(iArchitecture
Cluster
p277
(dp278
g7
(lp279
(iArchitecture
Entity
p280
(dp281
g11
(lp282
sg13
S'android.hardware.camera2.legacy.LegacyFaceDetectMapper'
p283
sg15
(lp284
sg17
(lp285
sg19
(lp286
sg21
I0
sba(iArchitecture
Entity
p287
(dp288
g11
(lp289
sg13
S'android.hardware.camera2.legacy.LegacyFaceDetectMapper$1'
p290
sg15
(lp291
sg17
(lp292
sg19
(lp293
sg21
I0
sbasg50
(lp294
g283
ag290
asg21
I0
sg52
S'771'
p295
sba(iArchitecture
Cluster
p296
(dp297
g7
(lp298
(iArchitecture
Entity
p299
(dp300
g11
(lp301
sg13
S'android.mtp.MtpObjectInfo'
p302
sg15
(lp303
sg17
(lp304
sg19
(lp305
sg21
I0
sba(iArchitecture
Entity
p306
(dp307
g11
(lp308
sg13
S'android.mtp.MtpObjectInfo$Builder'
p309
sg15
(lp310
sg17
(lp311
sg19
(lp312
sg21
I0
sbasg50
(lp313
g302
ag309
asg21
I0
sg52
S'772'
p314
sba(iArchitecture
Cluster
p315
(dp316
g7
(lp317
(iArchitecture
Entity
p318
(dp319
g11
(lp320
sg13
S'android.content.SyncStats'
p321
sg15
(lp322
sg17
(lp323
sg19
(lp324
sg21
I0
sba(iArchitecture
Entity
p325
(dp326
g11
(lp327
sg13
S'android.content.SyncStats$1'
p328
sg15
(lp329
sg17
(lp330
sg19
(lp331
sg21
I0
sbasg50
(lp332
g321
ag328
asg21
I0
sg52
S'773'
p333
sba(iArchitecture
Cluster
p334
(dp335
g7
(lp336
(iArchitecture
Entity
p337
(dp338
g11
(lp339
sg13
S'android.telecom.GatewayInfo'
p340
sg15
(lp341
sg17
(lp342
sg19
(lp343
sg21
I0
sba(iArchitecture
Entity
p344
(dp345
g11
(lp346
sg13
S'android.telecom.GatewayInfo$1'
p347
sg15
(lp348
sg17
(lp349
sg19
(lp350
sg21
I0
sbasg50
(lp351
g340
ag347
asg21
I0
sg52
S'774'
p352
sba(iArchitecture
Cluster
p353
(dp354
g7
(lp355
(iArchitecture
Entity
p356
(dp357
g11
(lp358
sg13
S'android.text.DynamicLayout'
p359
sg15
(lp360
sg17
(lp361
sg19
(lp362
sg21
I0
sba(iArchitecture
Entity
p363
(dp364
g11
(lp365
sg13
S'android.text.DynamicLayout$ChangeWatcher'
p366
sg15
(lp367
sg17
(lp368
sg19
(lp369
sg21
I0
sbasg50
(lp370
g359
ag366
asg21
I0
sg52
S'775'
p371
sba(iArchitecture
Cluster
p372
(dp373
g7
(lp374
(iArchitecture
Entity
p375
(dp376
g11
(lp377
sg13
S'com.android.server.media.MediaResourceMonitorService'
p378
sg15
(lp379
sg17
(lp380
sg19
(lp381
sg21
I0
sba(iArchitecture
Entity
p382
(dp383
g11
(lp384
sg13
S'com.android.server.media.MediaResourceMonitorService$MediaResourceMonitorImpl'
p385
sg15
(lp386
sg17
(lp387
sg19
(lp388
sg21
I0
sbasg50
(lp389
g378
ag385
asg21
I0
sg52
S'776'
p390
sba(iArchitecture
Cluster
p391
(dp392
g7
(lp393
(iArchitecture
Entity
p394
(dp395
g11
(lp396
sg13
S'com.android.internal.http.HttpDateTime'
p397
sg15
(lp398
sg17
(lp399
sg19
(lp400
sg21
I0
sba(iArchitecture
Entity
p401
(dp402
g11
(lp403
sg13
S'com.android.internal.http.HttpDateTime$TimeOfDay'
p404
sg15
(lp405
sg17
(lp406
sg19
(lp407
sg21
I0
sbasg50
(lp408
g397
ag404
asg21
I0
sg52
S'777'
p409
sba(iArchitecture
Cluster
p410
(dp411
g7
(lp412
(iArchitecture
Entity
p413
(dp414
g11
(lp415
sg13
S'android.os.BatteryProperties'
p416
sg15
(lp417
sg17
(lp418
sg19
(lp419
sg21
I0
sba(iArchitecture
Entity
p420
(dp421
g11
(lp422
sg13
S'android.os.BatteryProperties$1'
p423
sg15
(lp424
sg17
(lp425
sg19
(lp426
sg21
I0
sbasg50
(lp427
g416
ag423
asg21
I0
sg52
S'778'
p428
sba(iArchitecture
Cluster
p429
(dp430
g7
(lp431
(iArchitecture
Entity
p432
(dp433
g11
(lp434
sg13
S'com.android.server.policy.BurnInProtectionHelper'
p435
sg15
(lp436
sg17
(lp437
sg19
(lp438
sg21
I0
sba(iArchitecture
Entity
p439
(dp440
g11
(lp441
sg13
S'com.android.server.policy.BurnInProtectionHelper$1'
p442
sg15
(lp443
sg17
(lp444
sg19
(lp445
sg21
I0
sbasg50
(lp446
g435
ag442
asg21
I0
sg52
S'779'
p447
sba(iArchitecture
Cluster
p448
(dp449
g7
(lp450
(iArchitecture
Entity
p451
(dp452
g11
(lp453
sg13
S'com.android.server.location.LocationBasedCountryDetector'
p454
sg15
(lp455
sg17
(lp456
sg19
(lp457
sg21
I0
sba(iArchitecture
Entity
p458
(dp459
g11
(lp460
sg13
S'com.android.server.location.LocationBasedCountryDetector$1'
p461
sg15
(lp462
sg17
(lp463
sg19
(lp464
sg21
I0
sba(iArchitecture
Entity
p465
(dp466
g11
(lp467
sg13
S'com.android.server.location.LocationBasedCountryDetector$2'
p468
sg15
(lp469
sg17
(lp470
sg19
(lp471
sg21
I0
sba(iArchitecture
Entity
p472
(dp473
g11
(lp474
sg13
S'com.android.server.location.LocationBasedCountryDetector$3'
p475
sg15
(lp476
sg17
(lp477
sg19
(lp478
sg21
I0
sbasg50
(lp479
g454
ag461
ag468
ag475
asg21
I0
sg52
S'877'
p480
sba(iArchitecture
Cluster
p481
(dp482
g7
(lp483
(iArchitecture
Entity
p484
(dp485
g11
(lp486
sg13
S'android.telecom.VideoProfile'
p487
sg15
(lp488
sg17
(lp489
sg19
(lp490
sg21
I0
sba(iArchitecture
Entity
p491
(dp492
g11
(lp493
sg13
S'android.telecom.VideoProfile$1'
p494
sg15
(lp495
sg17
(lp496
sg19
(lp497
sg21
I0
sba(iArchitecture
Entity
p498
(dp499
g11
(lp500
sg13
S'android.telecom.VideoProfile$CameraCapabilities'
p501
sg15
(lp502
sg17
(lp503
sg19
(lp504
sg21
I0
sba(iArchitecture
Entity
p505
(dp506
g11
(lp507
sg13
S'android.telecom.VideoProfile$CameraCapabilities$1'
p508
sg15
(lp509
sg17
(lp510
sg19
(lp511
sg21
I0
sbasg50
(lp512
g487
ag494
ag501
ag508
asg21
I0
sg52
S'977'
p513
sbasS'target_sub'
p514
S'77'
p515
sg50
(lp516
sS'is_component_arch'
p517
I01
sg52
S'7.0.0_r1'
p518
sba.