(lp0
(iArchitecture
Architecture
p1
(dp2
S'clusters'
p3
(lp4
(iArchitecture
Cluster
p5
(dp6
S'entities'
p7
(lp8
(iArchitecture
Entity
p9
(dp10
S'issue_ids'
p11
(lp12
sS'name'
p13
S'android.media.audiofx.Visualizer'
p14
sS'descs'
p15
(lp16
sS'labels'
p17
(lp18
sS'titles'
p19
(lp20
sS'change'
p21
I0
sba(iArchitecture
Entity
p22
(dp23
g11
(lp24
sg13
S'android.media.audiofx.Visualizer$MeasurementPeakRms'
p25
sg15
(lp26
sg17
(lp27
sg19
(lp28
sg21
I0
sba(iArchitecture
Entity
p29
(dp30
g11
(lp31
sg13
S'android.media.audiofx.Visualizer$NativeEventHandler'
p32
sg15
(lp33
sg17
(lp34
sg19
(lp35
sg21
I0
sba(iArchitecture
Entity
p36
(dp37
g11
(lp38
sg13
S'android.media.audiofx.Visualizer$OnDataCaptureListener'
p39
sg15
(lp40
sg17
(lp41
sg19
(lp42
sg21
I0
sba(iArchitecture
Entity
p43
(dp44
g11
(lp45
sg13
S'android.media.audiofx.Visualizer$OnServerDiedListener'
p46
sg15
(lp47
sg17
(lp48
sg19
(lp49
sg21
I0
sbasS'classes'
p50
(lp51
g14
ag25
ag32
ag39
ag46
asg21
I0
sS'label'
p52
S'1059'
p53
sba(iArchitecture
Cluster
p54
(dp55
g7
(lp56
(iArchitecture
Entity
p57
(dp58
g11
(lp59
sg13
S'com.android.server.telecom.TelecomLoaderService'
p60
sg15
(lp61
sg17
(lp62
sg19
(lp63
sg21
I0
sba(iArchitecture
Entity
p64
(dp65
g11
(lp66
sg13
S'com.android.server.telecom.TelecomLoaderService$1'
p67
sg15
(lp68
sg17
(lp69
sg19
(lp70
sg21
I0
sba(iArchitecture
Entity
p71
(dp72
g11
(lp73
sg13
S'com.android.server.telecom.TelecomLoaderService$2'
p74
sg15
(lp75
sg17
(lp76
sg19
(lp77
sg21
I0
sba(iArchitecture
Entity
p78
(dp79
g11
(lp80
sg13
S'com.android.server.telecom.TelecomLoaderService$3'
p81
sg15
(lp82
sg17
(lp83
sg19
(lp84
sg21
I0
sba(iArchitecture
Entity
p85
(dp86
g11
(lp87
sg13
S'com.android.server.telecom.TelecomLoaderService$4'
p88
sg15
(lp89
sg17
(lp90
sg19
(lp91
sg21
I0
sba(iArchitecture
Entity
p92
(dp93
g11
(lp94
sg13
S'com.android.server.telecom.TelecomLoaderService$5'
p95
sg15
(lp96
sg17
(lp97
sg19
(lp98
sg21
I0
sba(iArchitecture
Entity
p99
(dp100
g11
(lp101
sg13
S'com.android.server.telecom.TelecomLoaderService$TelecomServiceConnection'
p102
sg15
(lp103
sg17
(lp104
sg19
(lp105
sg21
I0
sba(iArchitecture
Entity
p106
(dp107
g11
(lp108
sg13
S'com.android.server.telecom.TelecomLoaderService$TelecomServiceConnection$1'
p109
sg15
(lp110
sg17
(lp111
sg19
(lp112
sg21
I0
sbasg50
(lp113
g60
ag67
ag74
ag81
ag88
ag95
ag102
ag109
asg21
I0
sg52
S'1159'
p114
sba(iArchitecture
Cluster
p115
(dp116
g7
(lp117
(iArchitecture
Entity
p118
(dp119
g11
(lp120
sg13
S'android.media.browse.MediaBrowser'
p121
sg15
(lp122
sg17
(lp123
sg19
(lp124
sg21
I0
sba(iArchitecture
Entity
p125
(dp126
g11
(lp127
sg13
S'android.media.browse.MediaBrowser$1'
p128
sg15
(lp129
sg17
(lp130
sg19
(lp131
sg21
I0
sba(iArchitecture
Entity
p132
(dp133
g11
(lp134
sg13
S'android.media.browse.MediaBrowser$2'
p135
sg15
(lp136
sg17
(lp137
sg19
(lp138
sg21
I0
sba(iArchitecture
Entity
p139
(dp140
g11
(lp141
sg13
S'android.media.browse.MediaBrowser$3'
p142
sg15
(lp143
sg17
(lp144
sg19
(lp145
sg21
I0
sba(iArchitecture
Entity
p146
(dp147
g11
(lp148
sg13
S'android.media.browse.MediaBrowser$4'
p149
sg15
(lp150
sg17
(lp151
sg19
(lp152
sg21
I0
sba(iArchitecture
Entity
p153
(dp154
g11
(lp155
sg13
S'android.media.browse.MediaBrowser$5'
p156
sg15
(lp157
sg17
(lp158
sg19
(lp159
sg21
I0
sba(iArchitecture
Entity
p160
(dp161
g11
(lp162
sg13
S'android.media.browse.MediaBrowser$6'
p163
sg15
(lp164
sg17
(lp165
sg19
(lp166
sg21
I0
sba(iArchitecture
Entity
p167
(dp168
g11
(lp169
sg13
S'android.media.browse.MediaBrowser$7'
p170
sg15
(lp171
sg17
(lp172
sg19
(lp173
sg21
I0
sba(iArchitecture
Entity
p174
(dp175
g11
(lp176
sg13
S'android.media.browse.MediaBrowser$ConnectionCallback'
p177
sg15
(lp178
sg17
(lp179
sg19
(lp180
sg21
I0
sba(iArchitecture
Entity
p181
(dp182
g11
(lp183
sg13
S'android.media.browse.MediaBrowser$ItemCallback'
p184
sg15
(lp185
sg17
(lp186
sg19
(lp187
sg21
I0
sba(iArchitecture
Entity
p188
(dp189
g11
(lp190
sg13
S'android.media.browse.MediaBrowser$MediaItem'
p191
sg15
(lp192
sg17
(lp193
sg19
(lp194
sg21
I0
sba(iArchitecture
Entity
p195
(dp196
g11
(lp197
sg13
S'android.media.browse.MediaBrowser$MediaItem$1'
p198
sg15
(lp199
sg17
(lp200
sg19
(lp201
sg21
I0
sba(iArchitecture
Entity
p202
(dp203
g11
(lp204
sg13
S'android.media.browse.MediaBrowser$MediaServiceConnection'
p205
sg15
(lp206
sg17
(lp207
sg19
(lp208
sg21
I0
sba(iArchitecture
Entity
p209
(dp210
g11
(lp211
sg13
S'android.media.browse.MediaBrowser$MediaServiceConnection$1'
p212
sg15
(lp213
sg17
(lp214
sg19
(lp215
sg21
I0
sba(iArchitecture
Entity
p216
(dp217
g11
(lp218
sg13
S'android.media.browse.MediaBrowser$MediaServiceConnection$2'
p219
sg15
(lp220
sg17
(lp221
sg19
(lp222
sg21
I0
sba(iArchitecture
Entity
p223
(dp224
g11
(lp225
sg13
S'android.media.browse.MediaBrowser$ServiceCallbacks'
p226
sg15
(lp227
sg17
(lp228
sg19
(lp229
sg21
I0
sba(iArchitecture
Entity
p230
(dp231
g11
(lp232
sg13
S'android.media.browse.MediaBrowser$Subscription'
p233
sg15
(lp234
sg17
(lp235
sg19
(lp236
sg21
I0
sba(iArchitecture
Entity
p237
(dp238
g11
(lp239
sg13
S'android.media.browse.MediaBrowser$SubscriptionCallback'
p240
sg15
(lp241
sg17
(lp242
sg19
(lp243
sg21
I0
sba(iArchitecture
Entity
p244
(dp245
g11
(lp246
sg13
S'android.service.media.MediaBrowserService'
p247
sg15
(lp248
sg17
(lp249
sg19
(lp250
sg21
I0
sba(iArchitecture
Entity
p251
(dp252
g11
(lp253
sg13
S'android.service.media.MediaBrowserService$1'
p254
sg15
(lp255
sg17
(lp256
sg19
(lp257
sg21
I0
sba(iArchitecture
Entity
p258
(dp259
g11
(lp260
sg13
S'android.service.media.MediaBrowserService$2'
p261
sg15
(lp262
sg17
(lp263
sg19
(lp264
sg21
I0
sba(iArchitecture
Entity
p265
(dp266
g11
(lp267
sg13
S'android.service.media.MediaBrowserService$3'
p268
sg15
(lp269
sg17
(lp270
sg19
(lp271
sg21
I0
sba(iArchitecture
Entity
p272
(dp273
g11
(lp274
sg13
S'android.service.media.MediaBrowserService$4'
p275
sg15
(lp276
sg17
(lp277
sg19
(lp278
sg21
I0
sba(iArchitecture
Entity
p279
(dp280
g11
(lp281
sg13
S'android.service.media.MediaBrowserService$BrowserRoot'
p282
sg15
(lp283
sg17
(lp284
sg19
(lp285
sg21
I0
sba(iArchitecture
Entity
p286
(dp287
g11
(lp288
sg13
S'android.service.media.MediaBrowserService$ConnectionRecord'
p289
sg15
(lp290
sg17
(lp291
sg19
(lp292
sg21
I0
sba(iArchitecture
Entity
p293
(dp294
g11
(lp295
sg13
S'android.service.media.MediaBrowserService$Result'
p296
sg15
(lp297
sg17
(lp298
sg19
(lp299
sg21
I0
sba(iArchitecture
Entity
p300
(dp301
g11
(lp302
sg13
S'android.service.media.MediaBrowserService$ServiceBinder'
p303
sg15
(lp304
sg17
(lp305
sg19
(lp306
sg21
I0
sba(iArchitecture
Entity
p307
(dp308
g11
(lp309
sg13
S'android.service.media.MediaBrowserService$ServiceBinder$1'
p310
sg15
(lp311
sg17
(lp312
sg19
(lp313
sg21
I0
sba(iArchitecture
Entity
p314
(dp315
g11
(lp316
sg13
S'android.service.media.MediaBrowserService$ServiceBinder$2'
p317
sg15
(lp318
sg17
(lp319
sg19
(lp320
sg21
I0
sba(iArchitecture
Entity
p321
(dp322
g11
(lp323
sg13
S'android.service.media.MediaBrowserService$ServiceBinder$3'
p324
sg15
(lp325
sg17
(lp326
sg19
(lp327
sg21
I0
sba(iArchitecture
Entity
p328
(dp329
g11
(lp330
sg13
S'android.service.media.MediaBrowserService$ServiceBinder$4'
p331
sg15
(lp332
sg17
(lp333
sg19
(lp334
sg21
I0
sba(iArchitecture
Entity
p335
(dp336
g11
(lp337
sg13
S'android.service.media.MediaBrowserService$ServiceBinder$5'
p338
sg15
(lp339
sg17
(lp340
sg19
(lp341
sg21
I0
sbasg50
(lp342
g121
ag128
ag135
ag142
ag149
ag156
ag163
ag170
ag177
ag184
ag191
ag198
ag205
ag212
ag219
ag226
ag233
ag240
ag247
ag254
ag261
ag268
ag275
ag282
ag289
ag296
ag303
ag310
ag317
ag324
ag331
ag338
asg21
I0
sg52
S'1259'
p343
sba(iArchitecture
Cluster
p344
(dp345
g7
(lp346
(iArchitecture
Entity
p347
(dp348
g11
(lp349
sg13
S'android.telephony.CellIdentityCdma'
p350
sg15
(lp351
sg17
(lp352
sg19
(lp353
sg21
I0
sba(iArchitecture
Entity
p354
(dp355
g11
(lp356
sg13
S'android.telephony.CellIdentityCdma$1'
p357
sg15
(lp358
sg17
(lp359
sg19
(lp360
sg21
I0
sba(iArchitecture
Entity
p361
(dp362
g11
(lp363
sg13
S'android.telephony.cdma.CdmaCellLocation'
p364
sg15
(lp365
sg17
(lp366
sg19
(lp367
sg21
I0
sbasg50
(lp368
g350
ag357
ag364
asg21
I0
sg52
S'1359'
p369
sba(iArchitecture
Cluster
p370
(dp371
g7
(lp372
(iArchitecture
Entity
p373
(dp374
g11
(lp375
sg13
S'android.graphics.drawable.PaintDrawable'
p376
sg15
(lp377
sg17
(lp378
sg19
(lp379
sg21
I0
sbasg50
(lp380
g376
asg21
I0
sg52
S'159'
p381
sba(iArchitecture
Cluster
p382
(dp383
g7
(lp384
(iArchitecture
Entity
p385
(dp386
g11
(lp387
sg13
S'android.security.net.config.ApplicationConfig'
p388
sg15
(lp389
sg17
(lp390
sg19
(lp391
sg21
I0
sbasg50
(lp392
g388
asg21
I0
sg52
S'259'
p393
sba(iArchitecture
Cluster
p394
(dp395
g7
(lp396
(iArchitecture
Entity
p397
(dp398
g11
(lp399
sg13
S'android.media.AudioDeviceInfo'
p400
sg15
(lp401
sg17
(lp402
sg19
(lp403
sg21
I0
sbasg50
(lp404
g400
asg21
I0
sg52
S'359'
p405
sba(iArchitecture
Cluster
p406
(dp407
g7
(lp408
(iArchitecture
Entity
p409
(dp410
g11
(lp411
sg13
S'android.provider.SearchIndexableResource'
p412
sg15
(lp413
sg17
(lp414
sg19
(lp415
sg21
I0
sbasg50
(lp416
g412
asg21
I0
sg52
S'459'
p417
sba(iArchitecture
Cluster
p418
(dp419
g7
(lp420
(iArchitecture
Entity
p421
(dp422
g11
(lp423
sg13
S'android.app.AlertDialog'
p424
sg15
(lp425
sg17
(lp426
sg19
(lp427
sg21
I0
sba(iArchitecture
Entity
p428
(dp429
g11
(lp430
sg13
S'android.app.AlertDialog$Builder'
p431
sg15
(lp432
sg17
(lp433
sg19
(lp434
sg21
I0
sbasg50
(lp435
g424
ag431
asg21
I0
sg52
S'559'
p436
sba(iArchitecture
Cluster
p437
(dp438
g7
(lp439
(iArchitecture
Entity
p440
(dp441
g11
(lp442
sg13
S'android.os.CommonTimeUtils'
p443
sg15
(lp444
sg17
(lp445
sg19
(lp446
sg21
I0
sbasg50
(lp447
g443
asg21
I0
sg52
S'59'
p448
sba(iArchitecture
Cluster
p449
(dp450
g7
(lp451
(iArchitecture
Entity
p452
(dp453
g11
(lp454
sg13
S'com.android.internal.app.LocaleHelper'
p455
sg15
(lp456
sg17
(lp457
sg19
(lp458
sg21
I0
sba(iArchitecture
Entity
p459
(dp460
g11
(lp461
sg13
S'com.android.internal.app.LocaleHelper$LocaleInfoComparator'
p462
sg15
(lp463
sg17
(lp464
sg19
(lp465
sg21
I0
sbasg50
(lp466
g455
ag462
asg21
I0
sg52
S'590'
p467
sba(iArchitecture
Cluster
p468
(dp469
g7
(lp470
(iArchitecture
Entity
p471
(dp472
g11
(lp473
sg13
S'com.android.server.wm.WallpaperController'
p474
sg15
(lp475
sg17
(lp476
sg19
(lp477
sg21
I0
sba(iArchitecture
Entity
p478
(dp479
g11
(lp480
sg13
S'com.android.server.wm.WallpaperController$FindWallpaperTargetResult'
p481
sg15
(lp482
sg17
(lp483
sg19
(lp484
sg21
I0
sbasg50
(lp485
g474
ag481
asg21
I0
sg52
S'591'
p486
sba(iArchitecture
Cluster
p487
(dp488
g7
(lp489
(iArchitecture
Entity
p490
(dp491
g11
(lp492
sg13
S'com.android.server.hdmi.HdmiCecKeycode'
p493
sg15
(lp494
sg17
(lp495
sg19
(lp496
sg21
I0
sba(iArchitecture
Entity
p497
(dp498
g11
(lp499
sg13
S'com.android.server.hdmi.HdmiCecKeycode$KeycodeEntry'
p500
sg15
(lp501
sg17
(lp502
sg19
(lp503
sg21
I0
sbasg50
(lp504
g493
ag500
asg21
I0
sg52
S'592'
p505
sba(iArchitecture
Cluster
p506
(dp507
g7
(lp508
(iArchitecture
Entity
p509
(dp510
g11
(lp511
sg13
S'com.android.internal.os.PowerProfile'
p512
sg15
(lp513
sg17
(lp514
sg19
(lp515
sg21
I0
sba(iArchitecture
Entity
p516
(dp517
g11
(lp518
sg13
S'com.android.internal.os.PowerProfile$CpuClusterKey'
p519
sg15
(lp520
sg17
(lp521
sg19
(lp522
sg21
I0
sbasg50
(lp523
g512
ag519
asg21
I0
sg52
S'593'
p524
sba(iArchitecture
Cluster
p525
(dp526
g7
(lp527
(iArchitecture
Entity
p528
(dp529
g11
(lp530
sg13
S'android.security.net.config.XmlConfigSource'
p531
sg15
(lp532
sg17
(lp533
sg19
(lp534
sg21
I0
sba(iArchitecture
Entity
p535
(dp536
g11
(lp537
sg13
S'android.security.net.config.XmlConfigSource$ParserException'
p538
sg15
(lp539
sg17
(lp540
sg19
(lp541
sg21
I0
sbasg50
(lp542
g531
ag538
asg21
I0
sg52
S'594'
p543
sba(iArchitecture
Cluster
p544
(dp545
g7
(lp546
(iArchitecture
Entity
p547
(dp548
g11
(lp549
sg13
S'android.renderscript.RenderScriptGL'
p550
sg15
(lp551
sg17
(lp552
sg19
(lp553
sg21
I0
sba(iArchitecture
Entity
p554
(dp555
g11
(lp556
sg13
S'android.renderscript.RenderScriptGL$SurfaceConfig'
p557
sg15
(lp558
sg17
(lp559
sg19
(lp560
sg21
I0
sbasg50
(lp561
g550
ag557
asg21
I0
sg52
S'595'
p562
sba(iArchitecture
Cluster
p563
(dp564
g7
(lp565
(iArchitecture
Entity
p566
(dp567
g11
(lp568
sg13
S'android.telecom.DisconnectCause'
p569
sg15
(lp570
sg17
(lp571
sg19
(lp572
sg21
I0
sba(iArchitecture
Entity
p573
(dp574
g11
(lp575
sg13
S'android.telecom.DisconnectCause$1'
p576
sg15
(lp577
sg17
(lp578
sg19
(lp579
sg21
I0
sbasg50
(lp580
g569
ag576
asg21
I0
sg52
S'596'
p581
sba(iArchitecture
Cluster
p582
(dp583
g7
(lp584
(iArchitecture
Entity
p585
(dp586
g11
(lp587
sg13
S'android.view.AppTransitionAnimationSpec'
p588
sg15
(lp589
sg17
(lp590
sg19
(lp591
sg21
I0
sba(iArchitecture
Entity
p592
(dp593
g11
(lp594
sg13
S'android.view.AppTransitionAnimationSpec$1'
p595
sg15
(lp596
sg17
(lp597
sg19
(lp598
sg21
I0
sbasg50
(lp599
g588
ag595
asg21
I0
sg52
S'597'
p600
sba(iArchitecture
Cluster
p601
(dp602
g7
(lp603
(iArchitecture
Entity
p604
(dp605
g11
(lp606
sg13
S'android.location.GnssClock'
p607
sg15
(lp608
sg17
(lp609
sg19
(lp610
sg21
I0
sba(iArchitecture
Entity
p611
(dp612
g11
(lp613
sg13
S'android.location.GnssClock$1'
p614
sg15
(lp615
sg17
(lp616
sg19
(lp617
sg21
I0
sbasg50
(lp618
g607
ag614
asg21
I0
sg52
S'598'
p619
sba(iArchitecture
Cluster
p620
(dp621
g7
(lp622
(iArchitecture
Entity
p623
(dp624
g11
(lp625
sg13
S'android.media.AudioRoutesInfo'
p626
sg15
(lp627
sg17
(lp628
sg19
(lp629
sg21
I0
sba(iArchitecture
Entity
p630
(dp631
g11
(lp632
sg13
S'android.media.AudioRoutesInfo$1'
p633
sg15
(lp634
sg17
(lp635
sg19
(lp636
sg21
I0
sbasg50
(lp637
g626
ag633
asg21
I0
sg52
S'599'
p638
sba(iArchitecture
Cluster
p639
(dp640
g7
(lp641
(iArchitecture
Entity
p642
(dp643
g11
(lp644
sg13
S'com.android.server.net.NetworkPinner'
p645
sg15
(lp646
sg17
(lp647
sg19
(lp648
sg21
I0
sba(iArchitecture
Entity
p649
(dp650
g11
(lp651
sg13
S'com.android.server.net.NetworkPinner$Callback'
p652
sg15
(lp653
sg17
(lp654
sg19
(lp655
sg21
I0
sbasg50
(lp656
g645
ag652
asg21
I0
sg52
S'659'
p657
sba(iArchitecture
Cluster
p658
(dp659
g7
(lp660
(iArchitecture
Entity
p661
(dp662
g11
(lp663
sg13
S'com.android.server.wm.DimLayer'
p664
sg15
(lp665
sg17
(lp666
sg19
(lp667
sg21
I0
sba(iArchitecture
Entity
p668
(dp669
g11
(lp670
sg13
S'com.android.server.wm.DimLayer$DimLayerUser'
p671
sg15
(lp672
sg17
(lp673
sg19
(lp674
sg21
I0
sbasg50
(lp675
g664
ag671
asg21
I0
sg52
S'759'
p676
sba(iArchitecture
Cluster
p677
(dp678
g7
(lp679
(iArchitecture
Entity
p680
(dp681
g11
(lp682
sg13
S'android.view.WindowManagerGlobal'
p683
sg15
(lp684
sg17
(lp685
sg19
(lp686
sg21
I0
sba(iArchitecture
Entity
p687
(dp688
g11
(lp689
sg13
S'android.view.WindowManagerGlobal$1'
p690
sg15
(lp691
sg17
(lp692
sg19
(lp693
sg21
I0
sba(iArchitecture
Entity
p694
(dp695
g11
(lp696
sg13
S'android.view.WindowManagerGlobal$2'
p697
sg15
(lp698
sg17
(lp699
sg19
(lp700
sg21
I0
sbasg50
(lp701
g683
ag690
ag697
asg21
I0
sg52
S'859'
p702
sba(iArchitecture
Cluster
p703
(dp704
g7
(lp705
(iArchitecture
Entity
p706
(dp707
g11
(lp708
sg13
S'android.graphics.drawable.RippleBackground'
p709
sg15
(lp710
sg17
(lp711
sg19
(lp712
sg21
I0
sba(iArchitecture
Entity
p713
(dp714
g11
(lp715
sg13
S'android.graphics.drawable.RippleBackground$1'
p716
sg15
(lp717
sg17
(lp718
sg19
(lp719
sg21
I0
sba(iArchitecture
Entity
p720
(dp721
g11
(lp722
sg13
S'android.graphics.drawable.RippleBackground$BackgroundProperty'
p723
sg15
(lp724
sg17
(lp725
sg19
(lp726
sg21
I0
sbasg50
(lp727
g709
ag716
ag723
asg21
I0
sg52
S'959'
p728
sbasS'target_sub'
p729
S'59'
p730
sg50
(lp731
sS'is_component_arch'
p732
I01
sg52
S'7.0.0_r1'
p733
sba.