(lp0
(iArchitecture
Architecture
p1
(dp2
S'clusters'
p3
(lp4
(iArchitecture
Cluster
p5
(dp6
S'entities'
p7
(lp8
(iArchitecture
Entity
p9
(dp10
S'issue_ids'
p11
(lp12
sS'name'
p13
S'android.media.soundtrigger.SoundTriggerDetector'
p14
sS'descs'
p15
(lp16
sS'labels'
p17
(lp18
sS'titles'
p19
(lp20
sS'change'
p21
I0
sba(iArchitecture
Entity
p22
(dp23
g11
(lp24
sg13
S'android.media.soundtrigger.SoundTriggerDetector$Callback'
p25
sg15
(lp26
sg17
(lp27
sg19
(lp28
sg21
I0
sba(iArchitecture
Entity
p29
(dp30
g11
(lp31
sg13
S'android.media.soundtrigger.SoundTriggerDetector$EventPayload'
p32
sg15
(lp33
sg17
(lp34
sg19
(lp35
sg21
I0
sba(iArchitecture
Entity
p36
(dp37
g11
(lp38
sg13
S'android.media.soundtrigger.SoundTriggerDetector$MyHandler'
p39
sg15
(lp40
sg17
(lp41
sg19
(lp42
sg21
I0
sba(iArchitecture
Entity
p43
(dp44
g11
(lp45
sg13
S'android.media.soundtrigger.SoundTriggerDetector$RecognitionCallback'
p46
sg15
(lp47
sg17
(lp48
sg19
(lp49
sg21
I0
sbasS'classes'
p50
(lp51
g14
ag25
ag32
ag39
ag46
asg21
I0
sS'label'
p52
S'1090'
p53
sba(iArchitecture
Cluster
p54
(dp55
g7
(lp56
(iArchitecture
Entity
p57
(dp58
g11
(lp59
sg13
S'com.android.server.tv.TvInputHardwareManager'
p60
sg15
(lp61
sg17
(lp62
sg19
(lp63
sg21
I0
sba(iArchitecture
Entity
p64
(dp65
g11
(lp66
sg13
S'com.android.server.tv.TvInputHardwareManager$1'
p67
sg15
(lp68
sg17
(lp69
sg19
(lp70
sg21
I0
sba(iArchitecture
Entity
p71
(dp72
g11
(lp73
sg13
S'com.android.server.tv.TvInputHardwareManager$2'
p74
sg15
(lp75
sg17
(lp76
sg19
(lp77
sg21
I0
sba(iArchitecture
Entity
p78
(dp79
g11
(lp80
sg13
S'com.android.server.tv.TvInputHardwareManager$Connection'
p81
sg15
(lp82
sg17
(lp83
sg19
(lp84
sg21
I0
sba(iArchitecture
Entity
p85
(dp86
g11
(lp87
sg13
S'com.android.server.tv.TvInputHardwareManager$HdmiDeviceEventListener'
p88
sg15
(lp89
sg17
(lp90
sg19
(lp91
sg21
I0
sba(iArchitecture
Entity
p92
(dp93
g11
(lp94
sg13
S'com.android.server.tv.TvInputHardwareManager$HdmiHotplugEventListener'
p95
sg15
(lp96
sg17
(lp97
sg19
(lp98
sg21
I0
sba(iArchitecture
Entity
p99
(dp100
g11
(lp101
sg13
S'com.android.server.tv.TvInputHardwareManager$HdmiSystemAudioModeChangeListener'
p102
sg15
(lp103
sg17
(lp104
sg19
(lp105
sg21
I0
sba(iArchitecture
Entity
p106
(dp107
g11
(lp108
sg13
S'com.android.server.tv.TvInputHardwareManager$Listener'
p109
sg15
(lp110
sg17
(lp111
sg19
(lp112
sg21
I0
sba(iArchitecture
Entity
p113
(dp114
g11
(lp115
sg13
S'com.android.server.tv.TvInputHardwareManager$ListenerHandler'
p116
sg15
(lp117
sg17
(lp118
sg19
(lp119
sg21
I0
sba(iArchitecture
Entity
p120
(dp121
g11
(lp122
sg13
S'com.android.server.tv.TvInputHardwareManager$TvInputHardwareImpl'
p123
sg15
(lp124
sg17
(lp125
sg19
(lp126
sg21
I0
sba(iArchitecture
Entity
p127
(dp128
g11
(lp129
sg13
S'com.android.server.tv.TvInputHardwareManager$TvInputHardwareImpl$1'
p130
sg15
(lp131
sg17
(lp132
sg19
(lp133
sg21
I0
sbasg50
(lp134
g60
ag67
ag74
ag81
ag88
ag95
ag102
ag109
ag116
ag123
ag130
asg21
I0
sg52
S'1190'
p135
sba(iArchitecture
Cluster
p136
(dp137
g7
(lp138
(iArchitecture
Entity
p139
(dp140
g11
(lp141
sg13
S'android.renderscript.Matrix2f'
p142
sg15
(lp143
sg17
(lp144
sg19
(lp145
sg21
I0
sba(iArchitecture
Entity
p146
(dp147
g11
(lp148
sg13
S'android.renderscript.Matrix3f'
p149
sg15
(lp150
sg17
(lp151
sg19
(lp152
sg21
I0
sba(iArchitecture
Entity
p153
(dp154
g11
(lp155
sg13
S'android.renderscript.Matrix4f'
p156
sg15
(lp157
sg17
(lp158
sg19
(lp159
sg21
I0
sbasg50
(lp160
g142
ag149
ag156
asg21
I0
sg52
S'1290'
p161
sba(iArchitecture
Cluster
p162
(dp163
g7
(lp164
(iArchitecture
Entity
p165
(dp166
g11
(lp167
sg13
S'android.security.KeyPairGeneratorSpec'
p168
sg15
(lp169
sg17
(lp170
sg19
(lp171
sg21
I0
sba(iArchitecture
Entity
p172
(dp173
g11
(lp174
sg13
S'android.security.KeyPairGeneratorSpec$Builder'
p175
sg15
(lp176
sg17
(lp177
sg19
(lp178
sg21
I0
sba(iArchitecture
Entity
p179
(dp180
g11
(lp181
sg13
S'android.security.KeyStoreParameter'
p182
sg15
(lp183
sg17
(lp184
sg19
(lp185
sg21
I0
sba(iArchitecture
Entity
p186
(dp187
g11
(lp188
sg13
S'android.security.KeyStoreParameter$Builder'
p189
sg15
(lp190
sg17
(lp191
sg19
(lp192
sg21
I0
sba(iArchitecture
Entity
p193
(dp194
g11
(lp195
sg13
S'android.security.keystore.KeyGenParameterSpec'
p196
sg15
(lp197
sg17
(lp198
sg19
(lp199
sg21
I0
sba(iArchitecture
Entity
p200
(dp201
g11
(lp202
sg13
S'android.security.keystore.KeyGenParameterSpec$Builder'
p203
sg15
(lp204
sg17
(lp205
sg19
(lp206
sg21
I0
sba(iArchitecture
Entity
p207
(dp208
g11
(lp209
sg13
S'android.security.keystore.KeyInfo'
p210
sg15
(lp211
sg17
(lp212
sg19
(lp213
sg21
I0
sba(iArchitecture
Entity
p214
(dp215
g11
(lp216
sg13
S'android.security.keystore.KeyProtection'
p217
sg15
(lp218
sg17
(lp219
sg19
(lp220
sg21
I0
sba(iArchitecture
Entity
p221
(dp222
g11
(lp223
sg13
S'android.security.keystore.KeyProtection$Builder'
p224
sg15
(lp225
sg17
(lp226
sg19
(lp227
sg21
I0
sbasg50
(lp228
g168
ag175
ag182
ag189
ag196
ag203
ag210
ag217
ag224
asg21
I0
sg52
S'1390'
p229
sba(iArchitecture
Cluster
p230
(dp231
g7
(lp232
(iArchitecture
Entity
p233
(dp234
g11
(lp235
sg13
S'android.bluetooth.BluetoothServerSocket'
p236
sg15
(lp237
sg17
(lp238
sg19
(lp239
sg21
I0
sbasg50
(lp240
g236
asg21
I0
sg52
S'190'
p241
sba(iArchitecture
Cluster
p242
(dp243
g7
(lp244
(iArchitecture
Entity
p245
(dp246
g11
(lp247
sg13
S'com.android.internal.os.KernelWakelockReader'
p248
sg15
(lp249
sg17
(lp250
sg19
(lp251
sg21
I0
sbasg50
(lp252
g248
asg21
I0
sg52
S'290'
p253
sba(iArchitecture
Cluster
p254
(dp255
g7
(lp256
(iArchitecture
Entity
p257
(dp258
g11
(lp259
sg13
S'android.filterfw.geometry.Rectangle'
p260
sg15
(lp261
sg17
(lp262
sg19
(lp263
sg21
I0
sbasg50
(lp264
g260
asg21
I0
sg52
S'390'
p265
sba(iArchitecture
Cluster
p266
(dp267
g7
(lp268
(iArchitecture
Entity
p269
(dp270
g11
(lp271
sg13
S'android.inputmethodservice.CompactExtractEditLayout'
p272
sg15
(lp273
sg17
(lp274
sg19
(lp275
sg21
I0
sbasg50
(lp276
g272
asg21
I0
sg52
S'490'
p277
sba(iArchitecture
Cluster
p278
(dp279
g7
(lp280
(iArchitecture
Entity
p281
(dp282
g11
(lp283
sg13
S'com.android.internal.app.LocaleHelper'
p284
sg15
(lp285
sg17
(lp286
sg19
(lp287
sg21
I0
sba(iArchitecture
Entity
p288
(dp289
g11
(lp290
sg13
S'com.android.internal.app.LocaleHelper$LocaleInfoComparator'
p291
sg15
(lp292
sg17
(lp293
sg19
(lp294
sg21
I0
sbasg50
(lp295
g284
ag291
asg21
I0
sg52
S'590'
p296
sba(iArchitecture
Cluster
p297
(dp298
g7
(lp299
(iArchitecture
Entity
p300
(dp301
g11
(lp302
sg13
S'android.database.CursorJoiner'
p303
sg15
(lp304
sg17
(lp305
sg19
(lp306
sg21
I0
sba(iArchitecture
Entity
p307
(dp308
g11
(lp309
sg13
S'android.database.CursorJoiner$Result'
p310
sg15
(lp311
sg17
(lp312
sg19
(lp313
sg21
I0
sbasg50
(lp314
g303
ag310
asg21
I0
sg52
S'690'
p315
sba(iArchitecture
Cluster
p316
(dp317
g7
(lp318
(iArchitecture
Entity
p319
(dp320
g11
(lp321
sg13
S'android.hardware.input.InputDeviceIdentifier'
p322
sg15
(lp323
sg17
(lp324
sg19
(lp325
sg21
I0
sba(iArchitecture
Entity
p326
(dp327
g11
(lp328
sg13
S'android.hardware.input.InputDeviceIdentifier$1'
p329
sg15
(lp330
sg17
(lp331
sg19
(lp332
sg21
I0
sbasg50
(lp333
g322
ag329
asg21
I0
sg52
S'790'
p334
sba(iArchitecture
Cluster
p335
(dp336
g7
(lp337
(iArchitecture
Entity
p338
(dp339
g11
(lp340
sg13
S'android.text.BidiFormatter'
p341
sg15
(lp342
sg17
(lp343
sg19
(lp344
sg21
I0
sba(iArchitecture
Entity
p345
(dp346
g11
(lp347
sg13
S'android.text.BidiFormatter$Builder'
p348
sg15
(lp349
sg17
(lp350
sg19
(lp351
sg21
I0
sba(iArchitecture
Entity
p352
(dp353
g11
(lp354
sg13
S'android.text.BidiFormatter$DirectionalityEstimator'
p355
sg15
(lp356
sg17
(lp357
sg19
(lp358
sg21
I0
sbasg50
(lp359
g341
ag348
ag355
asg21
I0
sg52
S'890'
p360
sba(iArchitecture
Cluster
p361
(dp362
g7
(lp363
(iArchitecture
Entity
p364
(dp365
g11
(lp366
sg13
S'android.content.ContextWrapper'
p367
sg15
(lp368
sg17
(lp369
sg19
(lp370
sg21
I0
sbasg50
(lp371
g367
asg21
I0
sg52
S'90'
p372
sba(iArchitecture
Cluster
p373
(dp374
g7
(lp375
(iArchitecture
Entity
p376
(dp377
g11
(lp378
sg13
S'android.renderscript.FileA3D'
p379
sg15
(lp380
sg17
(lp381
sg19
(lp382
sg21
I0
sba(iArchitecture
Entity
p383
(dp384
g11
(lp385
sg13
S'android.renderscript.FileA3D$EntryType'
p386
sg15
(lp387
sg17
(lp388
sg19
(lp389
sg21
I0
sba(iArchitecture
Entity
p390
(dp391
g11
(lp392
sg13
S'android.renderscript.FileA3D$IndexEntry'
p393
sg15
(lp394
sg17
(lp395
sg19
(lp396
sg21
I0
sbasg50
(lp397
g379
ag386
ag393
asg21
I0
sg52
S'900'
p398
sba(iArchitecture
Cluster
p399
(dp400
g7
(lp401
(iArchitecture
Entity
p402
(dp403
g11
(lp404
sg13
S'android.renderscript.Sampler'
p405
sg15
(lp406
sg17
(lp407
sg19
(lp408
sg21
I0
sba(iArchitecture
Entity
p409
(dp410
g11
(lp411
sg13
S'android.renderscript.Sampler$Builder'
p412
sg15
(lp413
sg17
(lp414
sg19
(lp415
sg21
I0
sba(iArchitecture
Entity
p416
(dp417
g11
(lp418
sg13
S'android.renderscript.Sampler$Value'
p419
sg15
(lp420
sg17
(lp421
sg19
(lp422
sg21
I0
sbasg50
(lp423
g405
ag412
ag419
asg21
I0
sg52
S'901'
p424
sba(iArchitecture
Cluster
p425
(dp426
g7
(lp427
(iArchitecture
Entity
p428
(dp429
g11
(lp430
sg13
S'android.renderscript.ProgramRaster'
p431
sg15
(lp432
sg17
(lp433
sg19
(lp434
sg21
I0
sba(iArchitecture
Entity
p435
(dp436
g11
(lp437
sg13
S'android.renderscript.ProgramRaster$Builder'
p438
sg15
(lp439
sg17
(lp440
sg19
(lp441
sg21
I0
sba(iArchitecture
Entity
p442
(dp443
g11
(lp444
sg13
S'android.renderscript.ProgramRaster$CullMode'
p445
sg15
(lp446
sg17
(lp447
sg19
(lp448
sg21
I0
sbasg50
(lp449
g431
ag438
ag445
asg21
I0
sg52
S'902'
p450
sba(iArchitecture
Cluster
p451
(dp452
g7
(lp453
(iArchitecture
Entity
p454
(dp455
g11
(lp456
sg13
S'android.service.voice.VoiceInteractionService'
p457
sg15
(lp458
sg17
(lp459
sg19
(lp460
sg21
I0
sba(iArchitecture
Entity
p461
(dp462
g11
(lp463
sg13
S'android.service.voice.VoiceInteractionService$1'
p464
sg15
(lp465
sg17
(lp466
sg19
(lp467
sg21
I0
sba(iArchitecture
Entity
p468
(dp469
g11
(lp470
sg13
S'android.service.voice.VoiceInteractionService$MyHandler'
p471
sg15
(lp472
sg17
(lp473
sg19
(lp474
sg21
I0
sbasg50
(lp475
g457
ag464
ag471
asg21
I0
sg52
S'903'
p476
sba(iArchitecture
Cluster
p477
(dp478
g7
(lp479
(iArchitecture
Entity
p480
(dp481
g11
(lp482
sg13
S'com.android.server.webkit.WebViewUpdateServiceImpl'
p483
sg15
(lp484
sg17
(lp485
sg19
(lp486
sg21
I0
sba(iArchitecture
Entity
p487
(dp488
g11
(lp489
sg13
S'com.android.server.webkit.WebViewUpdateServiceImpl$WebViewUpdater'
p490
sg15
(lp491
sg17
(lp492
sg19
(lp493
sg21
I0
sba(iArchitecture
Entity
p494
(dp495
g11
(lp496
sg13
S'com.android.server.webkit.WebViewUpdateServiceImpl$WebViewUpdater$ProviderAndPackageInfo'
p497
sg15
(lp498
sg17
(lp499
sg19
(lp500
sg21
I0
sbasg50
(lp501
g483
ag490
ag497
asg21
I0
sg52
S'904'
p502
sba(iArchitecture
Cluster
p503
(dp504
g7
(lp505
(iArchitecture
Entity
p506
(dp507
g11
(lp508
sg13
S'com.android.server.am.BroadcastStats'
p509
sg15
(lp510
sg17
(lp511
sg19
(lp512
sg21
I0
sba(iArchitecture
Entity
p513
(dp514
g11
(lp515
sg13
S'com.android.server.am.BroadcastStats$1'
p516
sg15
(lp517
sg17
(lp518
sg19
(lp519
sg21
I0
sba(iArchitecture
Entity
p520
(dp521
g11
(lp522
sg13
S'com.android.server.am.BroadcastStats$ActionEntry'
p523
sg15
(lp524
sg17
(lp525
sg19
(lp526
sg21
I0
sba(iArchitecture
Entity
p527
(dp528
g11
(lp529
sg13
S'com.android.server.am.BroadcastStats$PackageEntry'
p530
sg15
(lp531
sg17
(lp532
sg19
(lp533
sg21
I0
sbasg50
(lp534
g509
ag516
ag523
ag530
asg21
I0
sg52
S'905'
p535
sba(iArchitecture
Cluster
p536
(dp537
g7
(lp538
(iArchitecture
Entity
p539
(dp540
g11
(lp541
sg13
S'android.widget.Toast'
p542
sg15
(lp543
sg17
(lp544
sg19
(lp545
sg21
I0
sba(iArchitecture
Entity
p546
(dp547
g11
(lp548
sg13
S'android.widget.Toast$TN'
p549
sg15
(lp550
sg17
(lp551
sg19
(lp552
sg21
I0
sba(iArchitecture
Entity
p553
(dp554
g11
(lp555
sg13
S'android.widget.Toast$TN$1'
p556
sg15
(lp557
sg17
(lp558
sg19
(lp559
sg21
I0
sba(iArchitecture
Entity
p560
(dp561
g11
(lp562
sg13
S'android.widget.Toast$TN$2'
p563
sg15
(lp564
sg17
(lp565
sg19
(lp566
sg21
I0
sbasg50
(lp567
g542
ag549
ag556
ag563
asg21
I0
sg52
S'906'
p568
sba(iArchitecture
Cluster
p569
(dp570
g7
(lp571
(iArchitecture
Entity
p572
(dp573
g11
(lp574
sg13
S'com.android.server.hdmi.HdmiCecFeatureAction'
p575
sg15
(lp576
sg17
(lp577
sg19
(lp578
sg21
I0
sba(iArchitecture
Entity
p579
(dp580
g11
(lp581
sg13
S'com.android.server.hdmi.HdmiCecFeatureAction$ActionTimer'
p582
sg15
(lp583
sg17
(lp584
sg19
(lp585
sg21
I0
sba(iArchitecture
Entity
p586
(dp587
g11
(lp588
sg13
S'com.android.server.hdmi.HdmiCecFeatureAction$ActionTimerHandler'
p589
sg15
(lp590
sg17
(lp591
sg19
(lp592
sg21
I0
sbasg50
(lp593
g575
ag582
ag589
asg21
I0
sg52
S'907'
p594
sba(iArchitecture
Cluster
p595
(dp596
g7
(lp597
(iArchitecture
Entity
p598
(dp599
g11
(lp600
sg13
S'com.android.server.notification.CalendarTracker'
p601
sg15
(lp602
sg17
(lp603
sg19
(lp604
sg21
I0
sba(iArchitecture
Entity
p605
(dp606
g11
(lp607
sg13
S'com.android.server.notification.CalendarTracker$1'
p608
sg15
(lp609
sg17
(lp610
sg19
(lp611
sg21
I0
sba(iArchitecture
Entity
p612
(dp613
g11
(lp614
sg13
S'com.android.server.notification.CalendarTracker$Callback'
p615
sg15
(lp616
sg17
(lp617
sg19
(lp618
sg21
I0
sba(iArchitecture
Entity
p619
(dp620
g11
(lp621
sg13
S'com.android.server.notification.CalendarTracker$CheckEventResult'
p622
sg15
(lp623
sg17
(lp624
sg19
(lp625
sg21
I0
sbasg50
(lp626
g601
ag608
ag615
ag622
asg21
I0
sg52
S'908'
p627
sba(iArchitecture
Cluster
p628
(dp629
g7
(lp630
(iArchitecture
Entity
p631
(dp632
g11
(lp633
sg13
S'android.gesture.GestureLibraries'
p634
sg15
(lp635
sg17
(lp636
sg19
(lp637
sg21
I0
sba(iArchitecture
Entity
p638
(dp639
g11
(lp640
sg13
S'android.gesture.GestureLibraries$FileGestureLibrary'
p641
sg15
(lp642
sg17
(lp643
sg19
(lp644
sg21
I0
sba(iArchitecture
Entity
p645
(dp646
g11
(lp647
sg13
S'android.gesture.GestureLibraries$ResourceGestureLibrary'
p648
sg15
(lp649
sg17
(lp650
sg19
(lp651
sg21
I0
sbasg50
(lp652
g634
ag641
ag648
asg21
I0
sg52
S'909'
p653
sba(iArchitecture
Cluster
p654
(dp655
g7
(lp656
(iArchitecture
Entity
p657
(dp658
g11
(lp659
sg13
S'android.widget.DateTimeView'
p660
sg15
(lp661
sg17
(lp662
sg19
(lp663
sg21
I0
sba(iArchitecture
Entity
p664
(dp665
g11
(lp666
sg13
S'android.widget.DateTimeView$ReceiverInfo'
p667
sg15
(lp668
sg17
(lp669
sg19
(lp670
sg21
I0
sba(iArchitecture
Entity
p671
(dp672
g11
(lp673
sg13
S'android.widget.DateTimeView$ReceiverInfo$1'
p674
sg15
(lp675
sg17
(lp676
sg19
(lp677
sg21
I0
sba(iArchitecture
Entity
p678
(dp679
g11
(lp680
sg13
S'android.widget.DateTimeView$ReceiverInfo$2'
p681
sg15
(lp682
sg17
(lp683
sg19
(lp684
sg21
I0
sbasg50
(lp685
g660
ag667
ag674
ag681
asg21
I0
sg52
S'990'
p686
sbasS'target_sub'
p687
S'90'
p688
sg50
(lp689
sS'is_component_arch'
p690
I01
sg52
S'7.0.0_r1'
p691
sba.