(lp0
(iArchitecture
Architecture
p1
(dp2
S'clusters'
p3
(lp4
(iArchitecture
Cluster
p5
(dp6
S'entities'
p7
(lp8
(iArchitecture
Entity
p9
(dp10
S'issue_ids'
p11
(lp12
sS'name'
p13
S'com.android.internal.widget.LockPatternUtils'
p14
sS'descs'
p15
(lp16
sS'labels'
p17
(lp18
sS'titles'
p19
(lp20
sS'change'
p21
I0
sba(iArchitecture
Entity
p22
(dp23
g11
(lp24
sg13
S'com.android.internal.widget.LockPatternUtils$1'
p25
sg15
(lp26
sg17
(lp27
sg19
(lp28
sg21
I0
sba(iArchitecture
Entity
p29
(dp30
g11
(lp31
sg13
S'com.android.internal.widget.LockPatternUtils$RequestThrottledException'
p32
sg15
(lp33
sg17
(lp34
sg19
(lp35
sg21
I0
sba(iArchitecture
Entity
p36
(dp37
g11
(lp38
sg13
S'com.android.internal.widget.LockPatternUtils$StrongAuthTracker'
p39
sg15
(lp40
sg17
(lp41
sg19
(lp42
sg21
I0
sba(iArchitecture
Entity
p43
(dp44
g11
(lp45
sg13
S'com.android.internal.widget.LockPatternUtils$StrongAuthTracker$1'
p46
sg15
(lp47
sg17
(lp48
sg19
(lp49
sg21
I0
sba(iArchitecture
Entity
p50
(dp51
g11
(lp52
sg13
S'com.android.internal.widget.LockPatternUtils$StrongAuthTracker$H'
p53
sg15
(lp54
sg17
(lp55
sg19
(lp56
sg21
I0
sbasS'classes'
p57
(lp58
g14
ag25
ag32
ag39
ag46
ag53
asg21
I0
sS'label'
p59
S'1118'
p60
sba(iArchitecture
Cluster
p61
(dp62
g7
(lp63
(iArchitecture
Entity
p64
(dp65
g11
(lp66
sg13
S'com.android.server.pm.PackageVerificationState'
p67
sg15
(lp68
sg17
(lp69
sg19
(lp70
sg21
I0
sbasg57
(lp71
g67
asg21
I0
sg59
S'118'
p72
sba(iArchitecture
Cluster
p73
(dp74
g7
(lp75
(iArchitecture
Entity
p76
(dp77
g11
(lp78
sg13
S'android.telecom.ConnectionService'
p79
sg15
(lp80
sg17
(lp81
sg19
(lp82
sg21
I0
sba(iArchitecture
Entity
p83
(dp84
g11
(lp85
sg13
S'android.telecom.ConnectionService$1'
p86
sg15
(lp87
sg17
(lp88
sg19
(lp89
sg21
I0
sba(iArchitecture
Entity
p90
(dp91
g11
(lp92
sg13
S'android.telecom.ConnectionService$2'
p93
sg15
(lp94
sg17
(lp95
sg19
(lp96
sg21
I0
sba(iArchitecture
Entity
p97
(dp98
g11
(lp99
sg13
S'android.telecom.ConnectionService$2$1'
p100
sg15
(lp101
sg17
(lp102
sg19
(lp103
sg21
I0
sba(iArchitecture
Entity
p104
(dp105
g11
(lp106
sg13
S'android.telecom.ConnectionService$3'
p107
sg15
(lp108
sg17
(lp109
sg19
(lp110
sg21
I0
sba(iArchitecture
Entity
p111
(dp112
g11
(lp113
sg13
S'android.telecom.ConnectionService$4'
p114
sg15
(lp115
sg17
(lp116
sg19
(lp117
sg21
I0
sba(iArchitecture
Entity
p118
(dp119
g11
(lp120
sg13
S'android.telecom.ConnectionService$5'
p121
sg15
(lp122
sg17
(lp123
sg19
(lp124
sg21
I0
sba(iArchitecture
Entity
p125
(dp126
g11
(lp127
sg13
S'android.telecom.ConnectionService$5$1'
p128
sg15
(lp129
sg17
(lp130
sg19
(lp131
sg21
I0
sba(iArchitecture
Entity
p132
(dp133
g11
(lp134
sg13
S'android.telecom.ConnectionService$5$2'
p135
sg15
(lp136
sg17
(lp137
sg19
(lp138
sg21
I0
sba(iArchitecture
Entity
p139
(dp140
g11
(lp141
sg13
S'android.telecom.ConnectionService$6'
p142
sg15
(lp143
sg17
(lp144
sg19
(lp145
sg21
I0
sba(iArchitecture
Entity
p146
(dp147
g11
(lp148
sg13
S'android.telecom.ConnectionService$7'
p149
sg15
(lp150
sg17
(lp151
sg19
(lp152
sg21
I0
sbasg57
(lp153
g79
ag86
ag93
ag100
ag107
ag114
ag121
ag128
ag135
ag142
ag149
asg21
I0
sg59
S'1180'
p154
sba(iArchitecture
Cluster
p155
(dp156
g7
(lp157
(iArchitecture
Entity
p158
(dp159
g11
(lp160
sg13
S'com.android.server.display.OverlayDisplayAdapter'
p161
sg15
(lp162
sg17
(lp163
sg19
(lp164
sg21
I0
sba(iArchitecture
Entity
p165
(dp166
g11
(lp167
sg13
S'com.android.server.display.OverlayDisplayAdapter$1'
p168
sg15
(lp169
sg17
(lp170
sg19
(lp171
sg21
I0
sba(iArchitecture
Entity
p172
(dp173
g11
(lp174
sg13
S'com.android.server.display.OverlayDisplayAdapter$1$1'
p175
sg15
(lp176
sg17
(lp177
sg19
(lp178
sg21
I0
sba(iArchitecture
Entity
p179
(dp180
g11
(lp181
sg13
S'com.android.server.display.OverlayDisplayAdapter$OverlayDisplayDevice'
p182
sg15
(lp183
sg17
(lp184
sg19
(lp185
sg21
I0
sba(iArchitecture
Entity
p186
(dp187
g11
(lp188
sg13
S'com.android.server.display.OverlayDisplayAdapter$OverlayDisplayHandle'
p189
sg15
(lp190
sg17
(lp191
sg19
(lp192
sg21
I0
sba(iArchitecture
Entity
p193
(dp194
g11
(lp195
sg13
S'com.android.server.display.OverlayDisplayAdapter$OverlayDisplayHandle$1'
p196
sg15
(lp197
sg17
(lp198
sg19
(lp199
sg21
I0
sba(iArchitecture
Entity
p200
(dp201
g11
(lp202
sg13
S'com.android.server.display.OverlayDisplayAdapter$OverlayDisplayHandle$2'
p203
sg15
(lp204
sg17
(lp205
sg19
(lp206
sg21
I0
sba(iArchitecture
Entity
p207
(dp208
g11
(lp209
sg13
S'com.android.server.display.OverlayDisplayAdapter$OverlayDisplayHandle$3'
p210
sg15
(lp211
sg17
(lp212
sg19
(lp213
sg21
I0
sba(iArchitecture
Entity
p214
(dp215
g11
(lp216
sg13
S'com.android.server.display.OverlayDisplayAdapter$OverlayDisplayHandle$4'
p217
sg15
(lp218
sg17
(lp219
sg19
(lp220
sg21
I0
sba(iArchitecture
Entity
p221
(dp222
g11
(lp223
sg13
S'com.android.server.display.OverlayDisplayAdapter$OverlayMode'
p224
sg15
(lp225
sg17
(lp226
sg19
(lp227
sg21
I0
sbasg57
(lp228
g161
ag168
ag175
ag182
ag189
ag196
ag203
ag210
ag217
ag224
asg21
I0
sg59
S'1181'
p229
sba(iArchitecture
Cluster
p230
(dp231
g7
(lp232
(iArchitecture
Entity
p233
(dp234
g11
(lp235
sg13
S'com.android.server.hdmi.HdmiCecMessageValidator'
p236
sg15
(lp237
sg17
(lp238
sg19
(lp239
sg21
I0
sba(iArchitecture
Entity
p240
(dp241
g11
(lp242
sg13
S'com.android.server.hdmi.HdmiCecMessageValidator$FixedLengthValidator'
p243
sg15
(lp244
sg17
(lp245
sg19
(lp246
sg21
I0
sba(iArchitecture
Entity
p247
(dp248
g11
(lp249
sg13
S'com.android.server.hdmi.HdmiCecMessageValidator$ParameterValidator'
p250
sg15
(lp251
sg17
(lp252
sg19
(lp253
sg21
I0
sba(iArchitecture
Entity
p254
(dp255
g11
(lp256
sg13
S'com.android.server.hdmi.HdmiCecMessageValidator$PhysicalAddressValidator'
p257
sg15
(lp258
sg17
(lp259
sg19
(lp260
sg21
I0
sba(iArchitecture
Entity
p261
(dp262
g11
(lp263
sg13
S'com.android.server.hdmi.HdmiCecMessageValidator$ReportPhysicalAddressValidator'
p264
sg15
(lp265
sg17
(lp266
sg19
(lp267
sg21
I0
sba(iArchitecture
Entity
p268
(dp269
g11
(lp270
sg13
S'com.android.server.hdmi.HdmiCecMessageValidator$RoutingChangeValidator'
p271
sg15
(lp272
sg17
(lp273
sg19
(lp274
sg21
I0
sba(iArchitecture
Entity
p275
(dp276
g11
(lp277
sg13
S'com.android.server.hdmi.HdmiCecMessageValidator$SystemAudioModeRequestValidator'
p278
sg15
(lp279
sg17
(lp280
sg19
(lp281
sg21
I0
sba(iArchitecture
Entity
p282
(dp283
g11
(lp284
sg13
S'com.android.server.hdmi.HdmiCecMessageValidator$ValidationInfo'
p285
sg15
(lp286
sg17
(lp287
sg19
(lp288
sg21
I0
sba(iArchitecture
Entity
p289
(dp290
g11
(lp291
sg13
S'com.android.server.hdmi.HdmiCecMessageValidator$VariableLengthValidator'
p292
sg15
(lp293
sg17
(lp294
sg19
(lp295
sg21
I0
sbasg57
(lp296
g236
ag243
ag250
ag257
ag264
ag271
ag278
ag285
ag292
asg21
I0
sg59
S'1182'
p297
sba(iArchitecture
Cluster
p298
(dp299
g7
(lp300
(iArchitecture
Entity
p301
(dp302
g11
(lp303
sg13
S'android.media.SubtitleTrack'
p304
sg15
(lp305
sg17
(lp306
sg19
(lp307
sg21
I0
sba(iArchitecture
Entity
p308
(dp309
g11
(lp310
sg13
S'android.media.SubtitleTrack$1'
p311
sg15
(lp312
sg17
(lp313
sg19
(lp314
sg21
I0
sba(iArchitecture
Entity
p315
(dp316
g11
(lp317
sg13
S'android.media.SubtitleTrack$Cue'
p318
sg15
(lp319
sg17
(lp320
sg19
(lp321
sg21
I0
sba(iArchitecture
Entity
p322
(dp323
g11
(lp324
sg13
S'android.media.SubtitleTrack$CueList'
p325
sg15
(lp326
sg17
(lp327
sg19
(lp328
sg21
I0
sba(iArchitecture
Entity
p329
(dp330
g11
(lp331
sg13
S'android.media.SubtitleTrack$CueList$1'
p332
sg15
(lp333
sg17
(lp334
sg19
(lp335
sg21
I0
sba(iArchitecture
Entity
p336
(dp337
g11
(lp338
sg13
S'android.media.SubtitleTrack$CueList$EntryIterator'
p339
sg15
(lp340
sg17
(lp341
sg19
(lp342
sg21
I0
sba(iArchitecture
Entity
p343
(dp344
g11
(lp345
sg13
S'android.media.SubtitleTrack$RenderingWidget'
p346
sg15
(lp347
sg17
(lp348
sg19
(lp349
sg21
I0
sba(iArchitecture
Entity
p350
(dp351
g11
(lp352
sg13
S'android.media.SubtitleTrack$RenderingWidget$OnChangedListener'
p353
sg15
(lp354
sg17
(lp355
sg19
(lp356
sg21
I0
sba(iArchitecture
Entity
p357
(dp358
g11
(lp359
sg13
S'android.media.SubtitleTrack$Run'
p360
sg15
(lp361
sg17
(lp362
sg19
(lp363
sg21
I0
sbasg57
(lp364
g304
ag311
ag318
ag325
ag332
ag339
ag346
ag353
ag360
asg21
I0
sg59
S'1183'
p365
sba(iArchitecture
Cluster
p366
(dp367
g7
(lp368
(iArchitecture
Entity
p369
(dp370
g11
(lp371
sg13
S'android.widget.ActivityChooserModel'
p372
sg15
(lp373
sg17
(lp374
sg19
(lp375
sg21
I0
sba(iArchitecture
Entity
p376
(dp377
g11
(lp378
sg13
S'android.widget.ActivityChooserModel$ActivityChooserModelClient'
p379
sg15
(lp380
sg17
(lp381
sg19
(lp382
sg21
I0
sba(iArchitecture
Entity
p383
(dp384
g11
(lp385
sg13
S'android.widget.ActivityChooserModel$ActivityResolveInfo'
p386
sg15
(lp387
sg17
(lp388
sg19
(lp389
sg21
I0
sba(iArchitecture
Entity
p390
(dp391
g11
(lp392
sg13
S'android.widget.ActivityChooserModel$ActivitySorter'
p393
sg15
(lp394
sg17
(lp395
sg19
(lp396
sg21
I0
sba(iArchitecture
Entity
p397
(dp398
g11
(lp399
sg13
S'android.widget.ActivityChooserModel$DataModelPackageMonitor'
p400
sg15
(lp401
sg17
(lp402
sg19
(lp403
sg21
I0
sba(iArchitecture
Entity
p404
(dp405
g11
(lp406
sg13
S'android.widget.ActivityChooserModel$DefaultSorter'
p407
sg15
(lp408
sg17
(lp409
sg19
(lp410
sg21
I0
sba(iArchitecture
Entity
p411
(dp412
g11
(lp413
sg13
S'android.widget.ActivityChooserModel$HistoricalRecord'
p414
sg15
(lp415
sg17
(lp416
sg19
(lp417
sg21
I0
sba(iArchitecture
Entity
p418
(dp419
g11
(lp420
sg13
S'android.widget.ActivityChooserModel$OnChooseActivityListener'
p421
sg15
(lp422
sg17
(lp423
sg19
(lp424
sg21
I0
sba(iArchitecture
Entity
p425
(dp426
g11
(lp427
sg13
S'android.widget.ActivityChooserModel$PersistHistoryAsyncTask'
p428
sg15
(lp429
sg17
(lp430
sg19
(lp431
sg21
I0
sbasg57
(lp432
g372
ag379
ag386
ag393
ag400
ag407
ag414
ag421
ag428
asg21
I0
sg59
S'1184'
p433
sba(iArchitecture
Cluster
p434
(dp435
g7
(lp436
(iArchitecture
Entity
p437
(dp438
g11
(lp439
sg13
S'android.graphics.drawable.VectorDrawable'
p440
sg15
(lp441
sg17
(lp442
sg19
(lp443
sg21
I0
sba(iArchitecture
Entity
p444
(dp445
g11
(lp446
sg13
S'android.graphics.drawable.VectorDrawable$VClipPath'
p447
sg15
(lp448
sg17
(lp449
sg19
(lp450
sg21
I0
sba(iArchitecture
Entity
p451
(dp452
g11
(lp453
sg13
S'android.graphics.drawable.VectorDrawable$VFullPath'
p454
sg15
(lp455
sg17
(lp456
sg19
(lp457
sg21
I0
sba(iArchitecture
Entity
p458
(dp459
g11
(lp460
sg13
S'android.graphics.drawable.VectorDrawable$VFullPath$1'
p461
sg15
(lp462
sg17
(lp463
sg19
(lp464
sg21
I0
sba(iArchitecture
Entity
p465
(dp466
g11
(lp467
sg13
S'android.graphics.drawable.VectorDrawable$VGroup'
p468
sg15
(lp469
sg17
(lp470
sg19
(lp471
sg21
I0
sba(iArchitecture
Entity
p472
(dp473
g11
(lp474
sg13
S'android.graphics.drawable.VectorDrawable$VGroup$1'
p475
sg15
(lp476
sg17
(lp477
sg19
(lp478
sg21
I0
sba(iArchitecture
Entity
p479
(dp480
g11
(lp481
sg13
S'android.graphics.drawable.VectorDrawable$VObject'
p482
sg15
(lp483
sg17
(lp484
sg19
(lp485
sg21
I0
sba(iArchitecture
Entity
p486
(dp487
g11
(lp488
sg13
S'android.graphics.drawable.VectorDrawable$VPath'
p489
sg15
(lp490
sg17
(lp491
sg19
(lp492
sg21
I0
sba(iArchitecture
Entity
p493
(dp494
g11
(lp495
sg13
S'android.graphics.drawable.VectorDrawable$VectorDrawableState'
p496
sg15
(lp497
sg17
(lp498
sg19
(lp499
sg21
I0
sbasg57
(lp500
g440
ag447
ag454
ag461
ag468
ag475
ag482
ag489
ag496
asg21
I0
sg59
S'1185'
p501
sba(iArchitecture
Cluster
p502
(dp503
g7
(lp504
(iArchitecture
Entity
p505
(dp506
g11
(lp507
sg13
S'android.location.LocationManager'
p508
sg15
(lp509
sg17
(lp510
sg19
(lp511
sg21
I0
sba(iArchitecture
Entity
p512
(dp513
g11
(lp514
sg13
S'android.location.LocationManager$1'
p515
sg15
(lp516
sg17
(lp517
sg19
(lp518
sg21
I0
sba(iArchitecture
Entity
p519
(dp520
g11
(lp521
sg13
S'android.location.LocationManager$GnssStatusListenerTransport'
p522
sg15
(lp523
sg17
(lp524
sg19
(lp525
sg21
I0
sba(iArchitecture
Entity
p526
(dp527
g11
(lp528
sg13
S'android.location.LocationManager$GnssStatusListenerTransport$1'
p529
sg15
(lp530
sg17
(lp531
sg19
(lp532
sg21
I0
sba(iArchitecture
Entity
p533
(dp534
g11
(lp535
sg13
S'android.location.LocationManager$GnssStatusListenerTransport$2'
p536
sg15
(lp537
sg17
(lp538
sg19
(lp539
sg21
I0
sba(iArchitecture
Entity
p540
(dp541
g11
(lp542
sg13
S'android.location.LocationManager$GnssStatusListenerTransport$3'
p543
sg15
(lp544
sg17
(lp545
sg19
(lp546
sg21
I0
sba(iArchitecture
Entity
p547
(dp548
g11
(lp549
sg13
S'android.location.LocationManager$GnssStatusListenerTransport$4'
p550
sg15
(lp551
sg17
(lp552
sg19
(lp553
sg21
I0
sba(iArchitecture
Entity
p554
(dp555
g11
(lp556
sg13
S'android.location.LocationManager$GnssStatusListenerTransport$GnssHandler'
p557
sg15
(lp558
sg17
(lp559
sg19
(lp560
sg21
I0
sba(iArchitecture
Entity
p561
(dp562
g11
(lp563
sg13
S'android.location.LocationManager$GnssStatusListenerTransport$Nmea'
p564
sg15
(lp565
sg17
(lp566
sg19
(lp567
sg21
I0
sba(iArchitecture
Entity
p568
(dp569
g11
(lp570
sg13
S'android.location.LocationManager$ListenerTransport'
p571
sg15
(lp572
sg17
(lp573
sg19
(lp574
sg21
I0
sba(iArchitecture
Entity
p575
(dp576
g11
(lp577
sg13
S'android.location.LocationManager$ListenerTransport$1'
p578
sg15
(lp579
sg17
(lp580
sg19
(lp581
sg21
I0
sba(iArchitecture
Entity
p582
(dp583
g11
(lp584
sg13
S'android.location.LocationManager$ListenerTransport$2'
p585
sg15
(lp586
sg17
(lp587
sg19
(lp588
sg21
I0
sbasg57
(lp589
g508
ag515
ag522
ag529
ag536
ag543
ag550
ag557
ag564
ag571
ag578
ag585
asg21
I0
sg59
S'1186'
p590
sba(iArchitecture
Cluster
p591
(dp592
g7
(lp593
(iArchitecture
Entity
p594
(dp595
g11
(lp596
sg13
S'android.hardware.camera2.CameraManager'
p597
sg15
(lp598
sg17
(lp599
sg19
(lp600
sg21
I0
sba(iArchitecture
Entity
p601
(dp602
g11
(lp603
sg13
S'android.hardware.camera2.CameraManager$AvailabilityCallback'
p604
sg15
(lp605
sg17
(lp606
sg19
(lp607
sg21
I0
sba(iArchitecture
Entity
p608
(dp609
g11
(lp610
sg13
S'android.hardware.camera2.CameraManager$CameraManagerGlobal'
p611
sg15
(lp612
sg17
(lp613
sg19
(lp614
sg21
I0
sba(iArchitecture
Entity
p615
(dp616
g11
(lp617
sg13
S'android.hardware.camera2.CameraManager$CameraManagerGlobal$1'
p618
sg15
(lp619
sg17
(lp620
sg19
(lp621
sg21
I0
sba(iArchitecture
Entity
p622
(dp623
g11
(lp624
sg13
S'android.hardware.camera2.CameraManager$CameraManagerGlobal$2'
p625
sg15
(lp626
sg17
(lp627
sg19
(lp628
sg21
I0
sba(iArchitecture
Entity
p629
(dp630
g11
(lp631
sg13
S'android.hardware.camera2.CameraManager$CameraManagerGlobal$3'
p632
sg15
(lp633
sg17
(lp634
sg19
(lp635
sg21
I0
sba(iArchitecture
Entity
p636
(dp637
g11
(lp638
sg13
S'android.hardware.camera2.CameraManager$CameraManagerGlobal$4'
p639
sg15
(lp640
sg17
(lp641
sg19
(lp642
sg21
I0
sba(iArchitecture
Entity
p643
(dp644
g11
(lp645
sg13
S'android.hardware.camera2.CameraManager$CameraManagerGlobal$5'
p646
sg15
(lp647
sg17
(lp648
sg19
(lp649
sg21
I0
sba(iArchitecture
Entity
p650
(dp651
g11
(lp652
sg13
S'android.hardware.camera2.CameraManager$TorchCallback'
p653
sg15
(lp654
sg17
(lp655
sg19
(lp656
sg21
I0
sbasg57
(lp657
g597
ag604
ag611
ag618
ag625
ag632
ag639
ag646
ag653
asg21
I0
sg59
S'1187'
p658
sba(iArchitecture
Cluster
p659
(dp660
g7
(lp661
(iArchitecture
Entity
p662
(dp663
g11
(lp664
sg13
S'android.transition.ChangeBounds'
p665
sg15
(lp666
sg17
(lp667
sg19
(lp668
sg21
I0
sba(iArchitecture
Entity
p669
(dp670
g11
(lp671
sg13
S'android.transition.ChangeBounds$1'
p672
sg15
(lp673
sg17
(lp674
sg19
(lp675
sg21
I0
sba(iArchitecture
Entity
p676
(dp677
g11
(lp678
sg13
S'android.transition.ChangeBounds$10'
p679
sg15
(lp680
sg17
(lp681
sg19
(lp682
sg21
I0
sba(iArchitecture
Entity
p683
(dp684
g11
(lp685
sg13
S'android.transition.ChangeBounds$2'
p686
sg15
(lp687
sg17
(lp688
sg19
(lp689
sg21
I0
sba(iArchitecture
Entity
p690
(dp691
g11
(lp692
sg13
S'android.transition.ChangeBounds$3'
p693
sg15
(lp694
sg17
(lp695
sg19
(lp696
sg21
I0
sba(iArchitecture
Entity
p697
(dp698
g11
(lp699
sg13
S'android.transition.ChangeBounds$4'
p700
sg15
(lp701
sg17
(lp702
sg19
(lp703
sg21
I0
sba(iArchitecture
Entity
p704
(dp705
g11
(lp706
sg13
S'android.transition.ChangeBounds$5'
p707
sg15
(lp708
sg17
(lp709
sg19
(lp710
sg21
I0
sba(iArchitecture
Entity
p711
(dp712
g11
(lp713
sg13
S'android.transition.ChangeBounds$6'
p714
sg15
(lp715
sg17
(lp716
sg19
(lp717
sg21
I0
sba(iArchitecture
Entity
p718
(dp719
g11
(lp720
sg13
S'android.transition.ChangeBounds$7'
p721
sg15
(lp722
sg17
(lp723
sg19
(lp724
sg21
I0
sba(iArchitecture
Entity
p725
(dp726
g11
(lp727
sg13
S'android.transition.ChangeBounds$8'
p728
sg15
(lp729
sg17
(lp730
sg19
(lp731
sg21
I0
sba(iArchitecture
Entity
p732
(dp733
g11
(lp734
sg13
S'android.transition.ChangeBounds$9'
p735
sg15
(lp736
sg17
(lp737
sg19
(lp738
sg21
I0
sba(iArchitecture
Entity
p739
(dp740
g11
(lp741
sg13
S'android.transition.ChangeBounds$ViewBounds'
p742
sg15
(lp743
sg17
(lp744
sg19
(lp745
sg21
I0
sbasg57
(lp746
g665
ag672
ag679
ag686
ag693
ag700
ag707
ag714
ag721
ag728
ag735
ag742
asg21
I0
sg59
S'1188'
p747
sba(iArchitecture
Cluster
p748
(dp749
g7
(lp750
(iArchitecture
Entity
p751
(dp752
g11
(lp753
sg13
S'android.service.notification.ZenModeConfig'
p754
sg15
(lp755
sg17
(lp756
sg19
(lp757
sg21
I0
sba(iArchitecture
Entity
p758
(dp759
g11
(lp760
sg13
S'android.service.notification.ZenModeConfig$1'
p761
sg15
(lp762
sg17
(lp763
sg19
(lp764
sg21
I0
sba(iArchitecture
Entity
p765
(dp766
g11
(lp767
sg13
S'android.service.notification.ZenModeConfig$Diff'
p768
sg15
(lp769
sg17
(lp770
sg19
(lp771
sg21
I0
sba(iArchitecture
Entity
p772
(dp773
g11
(lp774
sg13
S'android.service.notification.ZenModeConfig$EventInfo'
p775
sg15
(lp776
sg17
(lp777
sg19
(lp778
sg21
I0
sba(iArchitecture
Entity
p779
(dp780
g11
(lp781
sg13
S'android.service.notification.ZenModeConfig$Migration'
p782
sg15
(lp783
sg17
(lp784
sg19
(lp785
sg21
I0
sba(iArchitecture
Entity
p786
(dp787
g11
(lp788
sg13
S'android.service.notification.ZenModeConfig$ScheduleInfo'
p789
sg15
(lp790
sg17
(lp791
sg19
(lp792
sg21
I0
sba(iArchitecture
Entity
p793
(dp794
g11
(lp795
sg13
S'android.service.notification.ZenModeConfig$XmlV1'
p796
sg15
(lp797
sg17
(lp798
sg19
(lp799
sg21
I0
sba(iArchitecture
Entity
p800
(dp801
g11
(lp802
sg13
S'android.service.notification.ZenModeConfig$ZenRule'
p803
sg15
(lp804
sg17
(lp805
sg19
(lp806
sg21
I0
sba(iArchitecture
Entity
p807
(dp808
g11
(lp809
sg13
S'android.service.notification.ZenModeConfig$ZenRule$1'
p810
sg15
(lp811
sg17
(lp812
sg19
(lp813
sg21
I0
sbasg57
(lp814
g754
ag761
ag768
ag775
ag782
ag789
ag796
ag803
ag810
asg21
I0
sg59
S'1189'
p815
sbasS'target_sub'
p816
S'118'
p817
sg57
(lp818
sS'is_component_arch'
p819
I01
sg59
S'7.0.0_r1'
p820
sba.