(lp0
(iArchitecture
Architecture
p1
(dp2
S'clusters'
p3
(lp4
(iArchitecture
Cluster
p5
(dp6
S'entities'
p7
(lp8
(iArchitecture
Entity
p9
(dp10
S'issue_ids'
p11
(lp12
sS'name'
p13
S'com.android.server.vr.SettingsObserver'
p14
sS'descs'
p15
(lp16
sS'labels'
p17
(lp18
sS'titles'
p19
(lp20
sS'change'
p21
I0
sba(iArchitecture
Entity
p22
(dp23
g11
(lp24
sg13
S'com.android.server.vr.SettingsObserver$1'
p25
sg15
(lp26
sg17
(lp27
sg19
(lp28
sg21
I0
sba(iArchitecture
Entity
p29
(dp30
g11
(lp31
sg13
S'com.android.server.vr.SettingsObserver$2'
p32
sg15
(lp33
sg17
(lp34
sg19
(lp35
sg21
I0
sba(iArchitecture
Entity
p36
(dp37
g11
(lp38
sg13
S'com.android.server.vr.SettingsObserver$SettingChangeListener'
p39
sg15
(lp40
sg17
(lp41
sg19
(lp42
sg21
I0
sbasS'classes'
p43
(lp44
g14
ag25
ag32
ag39
asg21
I0
sS'label'
p45
S'1039'
p46
sba(iArchitecture
Cluster
p47
(dp48
g7
(lp49
(iArchitecture
Entity
p50
(dp51
g11
(lp52
sg13
S'android.widget.Filter'
p53
sg15
(lp54
sg17
(lp55
sg19
(lp56
sg21
I0
sba(iArchitecture
Entity
p57
(dp58
g11
(lp59
sg13
S'android.widget.Filter$Delayer'
p60
sg15
(lp61
sg17
(lp62
sg19
(lp63
sg21
I0
sba(iArchitecture
Entity
p64
(dp65
g11
(lp66
sg13
S'android.widget.Filter$FilterListener'
p67
sg15
(lp68
sg17
(lp69
sg19
(lp70
sg21
I0
sba(iArchitecture
Entity
p71
(dp72
g11
(lp73
sg13
S'android.widget.Filter$FilterResults'
p74
sg15
(lp75
sg17
(lp76
sg19
(lp77
sg21
I0
sba(iArchitecture
Entity
p78
(dp79
g11
(lp80
sg13
S'android.widget.Filter$RequestArguments'
p81
sg15
(lp82
sg17
(lp83
sg19
(lp84
sg21
I0
sba(iArchitecture
Entity
p85
(dp86
g11
(lp87
sg13
S'android.widget.Filter$RequestHandler'
p88
sg15
(lp89
sg17
(lp90
sg19
(lp91
sg21
I0
sba(iArchitecture
Entity
p92
(dp93
g11
(lp94
sg13
S'android.widget.Filter$ResultsHandler'
p95
sg15
(lp96
sg17
(lp97
sg19
(lp98
sg21
I0
sbasg43
(lp99
g53
ag60
ag67
ag74
ag81
ag88
ag95
asg21
I0
sg45
S'1139'
p100
sba(iArchitecture
Cluster
p101
(dp102
g7
(lp103
(iArchitecture
Entity
p104
(dp105
g11
(lp106
sg13
S'android.print.PrintServiceRecommendationsLoader'
p107
sg15
(lp108
sg17
(lp109
sg19
(lp110
sg21
I0
sba(iArchitecture
Entity
p111
(dp112
g11
(lp113
sg13
S'android.print.PrintServiceRecommendationsLoader$1'
p114
sg15
(lp115
sg17
(lp116
sg19
(lp117
sg21
I0
sba(iArchitecture
Entity
p118
(dp119
g11
(lp120
sg13
S'android.print.PrintServiceRecommendationsLoader$MyHandler'
p121
sg15
(lp122
sg17
(lp123
sg19
(lp124
sg21
I0
sba(iArchitecture
Entity
p125
(dp126
g11
(lp127
sg13
S'android.print.PrintServicesLoader'
p128
sg15
(lp129
sg17
(lp130
sg19
(lp131
sg21
I0
sba(iArchitecture
Entity
p132
(dp133
g11
(lp134
sg13
S'android.print.PrintServicesLoader$1'
p135
sg15
(lp136
sg17
(lp137
sg19
(lp138
sg21
I0
sba(iArchitecture
Entity
p139
(dp140
g11
(lp141
sg13
S'android.print.PrintServicesLoader$MyHandler'
p142
sg15
(lp143
sg17
(lp144
sg19
(lp145
sg21
I0
sbasg43
(lp146
g107
ag114
ag121
ag128
ag135
ag142
asg21
I0
sg45
S'1239'
p147
sba(iArchitecture
Cluster
p148
(dp149
g7
(lp150
(iArchitecture
Entity
p151
(dp152
g11
(lp153
sg13
S'android.hardware.camera2.marshal.impl.MarshalQueryableReprocessFormatsMap'
p154
sg15
(lp155
sg17
(lp156
sg19
(lp157
sg21
I0
sba(iArchitecture
Entity
p158
(dp159
g11
(lp160
sg13
S'android.hardware.camera2.marshal.impl.MarshalQueryableReprocessFormatsMap$MarshalerReprocessFormatsMap'
p161
sg15
(lp162
sg17
(lp163
sg19
(lp164
sg21
I0
sba(iArchitecture
Entity
p165
(dp166
g11
(lp167
sg13
S'android.hardware.camera2.params.ReprocessFormatsMap'
p168
sg15
(lp169
sg17
(lp170
sg19
(lp171
sg21
I0
sbasg43
(lp172
g154
ag161
ag168
asg21
I0
sg45
S'1339'
p173
sba(iArchitecture
Cluster
p174
(dp175
g7
(lp176
(iArchitecture
Entity
p177
(dp178
g11
(lp179
sg13
S'android.hardware.camera2.params.MeteringRectangle'
p180
sg15
(lp181
sg17
(lp182
sg19
(lp183
sg21
I0
sbasg43
(lp184
g180
asg21
I0
sg45
S'139'
p185
sba(iArchitecture
Cluster
p186
(dp187
g7
(lp188
(iArchitecture
Entity
p189
(dp190
g11
(lp191
sg13
S'android.security.KeyPairGeneratorSpec'
p192
sg15
(lp193
sg17
(lp194
sg19
(lp195
sg21
I0
sba(iArchitecture
Entity
p196
(dp197
g11
(lp198
sg13
S'android.security.KeyPairGeneratorSpec$Builder'
p199
sg15
(lp200
sg17
(lp201
sg19
(lp202
sg21
I0
sba(iArchitecture
Entity
p203
(dp204
g11
(lp205
sg13
S'android.security.KeyStoreParameter'
p206
sg15
(lp207
sg17
(lp208
sg19
(lp209
sg21
I0
sba(iArchitecture
Entity
p210
(dp211
g11
(lp212
sg13
S'android.security.KeyStoreParameter$Builder'
p213
sg15
(lp214
sg17
(lp215
sg19
(lp216
sg21
I0
sba(iArchitecture
Entity
p217
(dp218
g11
(lp219
sg13
S'android.security.keystore.KeyGenParameterSpec'
p220
sg15
(lp221
sg17
(lp222
sg19
(lp223
sg21
I0
sba(iArchitecture
Entity
p224
(dp225
g11
(lp226
sg13
S'android.security.keystore.KeyGenParameterSpec$Builder'
p227
sg15
(lp228
sg17
(lp229
sg19
(lp230
sg21
I0
sba(iArchitecture
Entity
p231
(dp232
g11
(lp233
sg13
S'android.security.keystore.KeyInfo'
p234
sg15
(lp235
sg17
(lp236
sg19
(lp237
sg21
I0
sba(iArchitecture
Entity
p238
(dp239
g11
(lp240
sg13
S'android.security.keystore.KeyProtection'
p241
sg15
(lp242
sg17
(lp243
sg19
(lp244
sg21
I0
sba(iArchitecture
Entity
p245
(dp246
g11
(lp247
sg13
S'android.security.keystore.KeyProtection$Builder'
p248
sg15
(lp249
sg17
(lp250
sg19
(lp251
sg21
I0
sbasg43
(lp252
g192
ag199
ag206
ag213
ag220
ag227
ag234
ag241
ag248
asg21
I0
sg45
S'1390'
p253
sba(iArchitecture
Cluster
p254
(dp255
g7
(lp256
(iArchitecture
Entity
p257
(dp258
g11
(lp259
sg13
S'android.view.Surface'
p260
sg15
(lp261
sg17
(lp262
sg19
(lp263
sg21
I0
sba(iArchitecture
Entity
p264
(dp265
g11
(lp266
sg13
S'android.view.Surface$1'
p267
sg15
(lp268
sg17
(lp269
sg19
(lp270
sg21
I0
sba(iArchitecture
Entity
p271
(dp272
g11
(lp273
sg13
S'android.view.Surface$CompatibleCanvas'
p274
sg15
(lp275
sg17
(lp276
sg19
(lp277
sg21
I0
sba(iArchitecture
Entity
p278
(dp279
g11
(lp280
sg13
S'android.view.Surface$HwuiContext'
p281
sg15
(lp282
sg17
(lp283
sg19
(lp284
sg21
I0
sba(iArchitecture
Entity
p285
(dp286
g11
(lp287
sg13
S'android.view.Surface$OutOfResourcesException'
p288
sg15
(lp289
sg17
(lp290
sg19
(lp291
sg21
I0
sba(iArchitecture
Entity
p292
(dp293
g11
(lp294
sg13
S'android.view.SurfaceControl'
p295
sg15
(lp296
sg17
(lp297
sg19
(lp298
sg21
I0
sba(iArchitecture
Entity
p299
(dp300
g11
(lp301
sg13
S'android.view.SurfaceControl$PhysicalDisplayInfo'
p302
sg15
(lp303
sg17
(lp304
sg19
(lp305
sg21
I0
sba(iArchitecture
Entity
p306
(dp307
g11
(lp308
sg13
S'android.view.SurfaceHolder'
p309
sg15
(lp310
sg17
(lp311
sg19
(lp312
sg21
I0
sba(iArchitecture
Entity
p313
(dp314
g11
(lp315
sg13
S'android.view.SurfaceHolder$BadSurfaceTypeException'
p316
sg15
(lp317
sg17
(lp318
sg19
(lp319
sg21
I0
sba(iArchitecture
Entity
p320
(dp321
g11
(lp322
sg13
S'android.view.SurfaceHolder$Callback'
p323
sg15
(lp324
sg17
(lp325
sg19
(lp326
sg21
I0
sba(iArchitecture
Entity
p327
(dp328
g11
(lp329
sg13
S'android.view.SurfaceHolder$Callback2'
p330
sg15
(lp331
sg17
(lp332
sg19
(lp333
sg21
I0
sba(iArchitecture
Entity
p334
(dp335
g11
(lp336
sg13
S'android.view.SurfaceView'
p337
sg15
(lp338
sg17
(lp339
sg19
(lp340
sg21
I0
sba(iArchitecture
Entity
p341
(dp342
g11
(lp343
sg13
S'android.view.SurfaceView$1'
p344
sg15
(lp345
sg17
(lp346
sg19
(lp347
sg21
I0
sba(iArchitecture
Entity
p348
(dp349
g11
(lp350
sg13
S'android.view.SurfaceView$2'
p351
sg15
(lp352
sg17
(lp353
sg19
(lp354
sg21
I0
sba(iArchitecture
Entity
p355
(dp356
g11
(lp357
sg13
S'android.view.SurfaceView$3'
p358
sg15
(lp359
sg17
(lp360
sg19
(lp361
sg21
I0
sba(iArchitecture
Entity
p362
(dp363
g11
(lp364
sg13
S'android.view.SurfaceView$4'
p365
sg15
(lp366
sg17
(lp367
sg19
(lp368
sg21
I0
sba(iArchitecture
Entity
p369
(dp370
g11
(lp371
sg13
S'android.view.SurfaceView$MyWindow'
p372
sg15
(lp373
sg17
(lp374
sg19
(lp375
sg21
I0
sba(iArchitecture
Entity
p376
(dp377
g11
(lp378
sg13
S'android.view.TextureView'
p379
sg15
(lp380
sg17
(lp381
sg19
(lp382
sg21
I0
sba(iArchitecture
Entity
p383
(dp384
g11
(lp385
sg13
S'android.view.TextureView$1'
p386
sg15
(lp387
sg17
(lp388
sg19
(lp389
sg21
I0
sba(iArchitecture
Entity
p390
(dp391
g11
(lp392
sg13
S'android.view.TextureView$SurfaceTextureListener'
p393
sg15
(lp394
sg17
(lp395
sg19
(lp396
sg21
I0
sbasg43
(lp397
g260
ag267
ag274
ag281
ag288
ag295
ag302
ag309
ag316
ag323
ag330
ag337
ag344
ag351
ag358
ag365
ag372
ag379
ag386
ag393
asg21
I0
sg45
S'1391'
p398
sba(iArchitecture
Cluster
p399
(dp400
g7
(lp401
(iArchitecture
Entity
p402
(dp403
g11
(lp404
sg13
S'android.os.UserManager'
p405
sg15
(lp406
sg17
(lp407
sg19
(lp408
sg21
I0
sba(iArchitecture
Entity
p409
(dp410
g11
(lp411
sg13
S'com.android.server.am.UserController'
p412
sg15
(lp413
sg17
(lp414
sg19
(lp415
sg21
I0
sba(iArchitecture
Entity
p416
(dp417
g11
(lp418
sg13
S'com.android.server.am.UserController$1'
p419
sg15
(lp420
sg17
(lp421
sg19
(lp422
sg21
I0
sba(iArchitecture
Entity
p423
(dp424
g11
(lp425
sg13
S'com.android.server.am.UserController$2'
p426
sg15
(lp427
sg17
(lp428
sg19
(lp429
sg21
I0
sba(iArchitecture
Entity
p430
(dp431
g11
(lp432
sg13
S'com.android.server.am.UserController$3'
p433
sg15
(lp434
sg17
(lp435
sg19
(lp436
sg21
I0
sba(iArchitecture
Entity
p437
(dp438
g11
(lp439
sg13
S'com.android.server.am.UserController$4'
p440
sg15
(lp441
sg17
(lp442
sg19
(lp443
sg21
I0
sba(iArchitecture
Entity
p444
(dp445
g11
(lp446
sg13
S'com.android.server.am.UserController$4$1'
p447
sg15
(lp448
sg17
(lp449
sg19
(lp450
sg21
I0
sba(iArchitecture
Entity
p451
(dp452
g11
(lp453
sg13
S'com.android.server.am.UserController$5'
p454
sg15
(lp455
sg17
(lp456
sg19
(lp457
sg21
I0
sba(iArchitecture
Entity
p458
(dp459
g11
(lp460
sg13
S'com.android.server.am.UserController$5$1'
p461
sg15
(lp462
sg17
(lp463
sg19
(lp464
sg21
I0
sba(iArchitecture
Entity
p465
(dp466
g11
(lp467
sg13
S'com.android.server.am.UserController$6'
p468
sg15
(lp469
sg17
(lp470
sg19
(lp471
sg21
I0
sba(iArchitecture
Entity
p472
(dp473
g11
(lp474
sg13
S'com.android.server.am.UserController$7'
p475
sg15
(lp476
sg17
(lp477
sg19
(lp478
sg21
I0
sba(iArchitecture
Entity
p479
(dp480
g11
(lp481
sg13
S'com.android.server.pm.UserManagerService'
p482
sg15
(lp483
sg17
(lp484
sg19
(lp485
sg21
I0
sba(iArchitecture
Entity
p486
(dp487
g11
(lp488
sg13
S'com.android.server.pm.UserManagerService$1'
p489
sg15
(lp490
sg17
(lp491
sg19
(lp492
sg21
I0
sba(iArchitecture
Entity
p493
(dp494
g11
(lp495
sg13
S'com.android.server.pm.UserManagerService$2'
p496
sg15
(lp497
sg17
(lp498
sg19
(lp499
sg21
I0
sba(iArchitecture
Entity
p500
(dp501
g11
(lp502
sg13
S'com.android.server.pm.UserManagerService$3'
p503
sg15
(lp504
sg17
(lp505
sg19
(lp506
sg21
I0
sba(iArchitecture
Entity
p507
(dp508
g11
(lp509
sg13
S'com.android.server.pm.UserManagerService$4'
p510
sg15
(lp511
sg17
(lp512
sg19
(lp513
sg21
I0
sba(iArchitecture
Entity
p514
(dp515
g11
(lp516
sg13
S'com.android.server.pm.UserManagerService$5'
p517
sg15
(lp518
sg17
(lp519
sg19
(lp520
sg21
I0
sba(iArchitecture
Entity
p521
(dp522
g11
(lp523
sg13
S'com.android.server.pm.UserManagerService$6'
p524
sg15
(lp525
sg17
(lp526
sg19
(lp527
sg21
I0
sba(iArchitecture
Entity
p528
(dp529
g11
(lp530
sg13
S'com.android.server.pm.UserManagerService$6$1'
p531
sg15
(lp532
sg17
(lp533
sg19
(lp534
sg21
I0
sba(iArchitecture
Entity
p535
(dp536
g11
(lp537
sg13
S'com.android.server.pm.UserManagerService$LifeCycle'
p538
sg15
(lp539
sg17
(lp540
sg19
(lp541
sg21
I0
sba(iArchitecture
Entity
p542
(dp543
g11
(lp544
sg13
S'com.android.server.pm.UserManagerService$LocalService'
p545
sg15
(lp546
sg17
(lp547
sg19
(lp548
sg21
I0
sba(iArchitecture
Entity
p549
(dp550
g11
(lp551
sg13
S'com.android.server.pm.UserManagerService$LocalService$1'
p552
sg15
(lp553
sg17
(lp554
sg19
(lp555
sg21
I0
sba(iArchitecture
Entity
p556
(dp557
g11
(lp558
sg13
S'com.android.server.pm.UserManagerService$MainHandler'
p559
sg15
(lp560
sg17
(lp561
sg19
(lp562
sg21
I0
sba(iArchitecture
Entity
p563
(dp564
g11
(lp565
sg13
S'com.android.server.pm.UserManagerService$Shell'
p566
sg15
(lp567
sg17
(lp568
sg19
(lp569
sg21
I0
sba(iArchitecture
Entity
p570
(dp571
g11
(lp572
sg13
S'com.android.server.pm.UserManagerService$UserData'
p573
sg15
(lp574
sg17
(lp575
sg19
(lp576
sg21
I0
sbasg43
(lp577
g405
ag412
ag419
ag426
ag433
ag440
ag447
ag454
ag461
ag468
ag475
ag482
ag489
ag496
ag503
ag510
ag517
ag524
ag531
ag538
ag545
ag552
ag559
ag566
ag573
asg21
I0
sg45
S'1392'
p578
sba(iArchitecture
Cluster
p579
(dp580
g7
(lp581
(iArchitecture
Entity
p582
(dp583
g11
(lp584
sg13
S'android.app.BackStackRecord'
p585
sg15
(lp586
sg17
(lp587
sg19
(lp588
sg21
I0
sba(iArchitecture
Entity
p589
(dp590
g11
(lp591
sg13
S'android.app.BackStackRecord$1'
p592
sg15
(lp593
sg17
(lp594
sg19
(lp595
sg21
I0
sba(iArchitecture
Entity
p596
(dp597
g11
(lp598
sg13
S'android.app.BackStackRecord$2'
p599
sg15
(lp600
sg17
(lp601
sg19
(lp602
sg21
I0
sba(iArchitecture
Entity
p603
(dp604
g11
(lp605
sg13
S'android.app.BackStackRecord$3'
p606
sg15
(lp607
sg17
(lp608
sg19
(lp609
sg21
I0
sba(iArchitecture
Entity
p610
(dp611
g11
(lp612
sg13
S'android.app.BackStackRecord$4'
p613
sg15
(lp614
sg17
(lp615
sg19
(lp616
sg21
I0
sba(iArchitecture
Entity
p617
(dp618
g11
(lp619
sg13
S'android.app.BackStackRecord$Op'
p620
sg15
(lp621
sg17
(lp622
sg19
(lp623
sg21
I0
sba(iArchitecture
Entity
p624
(dp625
g11
(lp626
sg13
S'android.app.BackStackRecord$TransitionState'
p627
sg15
(lp628
sg17
(lp629
sg19
(lp630
sg21
I0
sba(iArchitecture
Entity
p631
(dp632
g11
(lp633
sg13
S'android.app.DialogFragment'
p634
sg15
(lp635
sg17
(lp636
sg19
(lp637
sg21
I0
sba(iArchitecture
Entity
p638
(dp639
g11
(lp640
sg13
S'android.app.Fragment'
p641
sg15
(lp642
sg17
(lp643
sg19
(lp644
sg21
I0
sba(iArchitecture
Entity
p645
(dp646
g11
(lp647
sg13
S'android.app.Fragment$1'
p648
sg15
(lp649
sg17
(lp650
sg19
(lp651
sg21
I0
sba(iArchitecture
Entity
p652
(dp653
g11
(lp654
sg13
S'android.app.Fragment$InstantiationException'
p655
sg15
(lp656
sg17
(lp657
sg19
(lp658
sg21
I0
sba(iArchitecture
Entity
p659
(dp660
g11
(lp661
sg13
S'android.app.Fragment$SavedState'
p662
sg15
(lp663
sg17
(lp664
sg19
(lp665
sg21
I0
sba(iArchitecture
Entity
p666
(dp667
g11
(lp668
sg13
S'android.app.Fragment$SavedState$1'
p669
sg15
(lp670
sg17
(lp671
sg19
(lp672
sg21
I0
sba(iArchitecture
Entity
p673
(dp674
g11
(lp675
sg13
S'android.app.FragmentBreadCrumbs'
p676
sg15
(lp677
sg17
(lp678
sg19
(lp679
sg21
I0
sba(iArchitecture
Entity
p680
(dp681
g11
(lp682
sg13
S'android.app.FragmentBreadCrumbs$1'
p683
sg15
(lp684
sg17
(lp685
sg19
(lp686
sg21
I0
sba(iArchitecture
Entity
p687
(dp688
g11
(lp689
sg13
S'android.app.FragmentBreadCrumbs$OnBreadCrumbClickListener'
p690
sg15
(lp691
sg17
(lp692
sg19
(lp693
sg21
I0
sba(iArchitecture
Entity
p694
(dp695
g11
(lp696
sg13
S'android.app.FragmentManager'
p697
sg15
(lp698
sg17
(lp699
sg19
(lp700
sg21
I0
sba(iArchitecture
Entity
p701
(dp702
g11
(lp703
sg13
S'android.app.FragmentManager$BackStackEntry'
p704
sg15
(lp705
sg17
(lp706
sg19
(lp707
sg21
I0
sba(iArchitecture
Entity
p708
(dp709
g11
(lp710
sg13
S'android.app.FragmentManager$OnBackStackChangedListener'
p711
sg15
(lp712
sg17
(lp713
sg19
(lp714
sg21
I0
sba(iArchitecture
Entity
p715
(dp716
g11
(lp717
sg13
S'android.app.FragmentTransaction'
p718
sg15
(lp719
sg17
(lp720
sg19
(lp721
sg21
I0
sba(iArchitecture
Entity
p722
(dp723
g11
(lp724
sg13
S'android.preference.PreferenceActivity'
p725
sg15
(lp726
sg17
(lp727
sg19
(lp728
sg21
I0
sba(iArchitecture
Entity
p729
(dp730
g11
(lp731
sg13
S'android.preference.PreferenceActivity$1'
p732
sg15
(lp733
sg17
(lp734
sg19
(lp735
sg21
I0
sba(iArchitecture
Entity
p736
(dp737
g11
(lp738
sg13
S'android.preference.PreferenceActivity$2'
p739
sg15
(lp740
sg17
(lp741
sg19
(lp742
sg21
I0
sba(iArchitecture
Entity
p743
(dp744
g11
(lp745
sg13
S'android.preference.PreferenceActivity$3'
p746
sg15
(lp747
sg17
(lp748
sg19
(lp749
sg21
I0
sba(iArchitecture
Entity
p750
(dp751
g11
(lp752
sg13
S'android.preference.PreferenceActivity$4'
p753
sg15
(lp754
sg17
(lp755
sg19
(lp756
sg21
I0
sba(iArchitecture
Entity
p757
(dp758
g11
(lp759
sg13
S'android.preference.PreferenceActivity$Header'
p760
sg15
(lp761
sg17
(lp762
sg19
(lp763
sg21
I0
sba(iArchitecture
Entity
p764
(dp765
g11
(lp766
sg13
S'android.preference.PreferenceActivity$Header$1'
p767
sg15
(lp768
sg17
(lp769
sg19
(lp770
sg21
I0
sba(iArchitecture
Entity
p771
(dp772
g11
(lp773
sg13
S'android.preference.PreferenceActivity$HeaderAdapter'
p774
sg15
(lp775
sg17
(lp776
sg19
(lp777
sg21
I0
sba(iArchitecture
Entity
p778
(dp779
g11
(lp780
sg13
S'android.preference.PreferenceActivity$HeaderAdapter$HeaderViewHolder'
p781
sg15
(lp782
sg17
(lp783
sg19
(lp784
sg21
I0
sbasg43
(lp785
g585
ag592
ag599
ag606
ag613
ag620
ag627
ag634
ag641
ag648
ag655
ag662
ag669
ag676
ag683
ag690
ag697
ag704
ag711
ag718
ag725
ag732
ag739
ag746
ag753
ag760
ag767
ag774
ag781
asg21
I0
sg45
S'1393'
p786
sba(iArchitecture
Cluster
p787
(dp788
g7
(lp789
(iArchitecture
Entity
p790
(dp791
g11
(lp792
sg13
S'android.content.DialogInterface'
p793
sg15
(lp794
sg17
(lp795
sg19
(lp796
sg21
I0
sba(iArchitecture
Entity
p797
(dp798
g11
(lp799
sg13
S'android.content.DialogInterface$OnCancelListener'
p800
sg15
(lp801
sg17
(lp802
sg19
(lp803
sg21
I0
sba(iArchitecture
Entity
p804
(dp805
g11
(lp806
sg13
S'android.content.DialogInterface$OnClickListener'
p807
sg15
(lp808
sg17
(lp809
sg19
(lp810
sg21
I0
sba(iArchitecture
Entity
p811
(dp812
g11
(lp813
sg13
S'android.content.DialogInterface$OnDismissListener'
p814
sg15
(lp815
sg17
(lp816
sg19
(lp817
sg21
I0
sba(iArchitecture
Entity
p818
(dp819
g11
(lp820
sg13
S'android.content.DialogInterface$OnKeyListener'
p821
sg15
(lp822
sg17
(lp823
sg19
(lp824
sg21
I0
sba(iArchitecture
Entity
p825
(dp826
g11
(lp827
sg13
S'android.content.DialogInterface$OnMultiChoiceClickListener'
p828
sg15
(lp829
sg17
(lp830
sg19
(lp831
sg21
I0
sba(iArchitecture
Entity
p832
(dp833
g11
(lp834
sg13
S'android.content.DialogInterface$OnShowListener'
p835
sg15
(lp836
sg17
(lp837
sg19
(lp838
sg21
I0
sba(iArchitecture
Entity
p839
(dp840
g11
(lp841
sg13
S'android.hardware.SensorListener'
p842
sg15
(lp843
sg17
(lp844
sg19
(lp845
sg21
I0
sba(iArchitecture
Entity
p846
(dp847
g11
(lp848
sg13
S'android.hardware.TriggerEventListener'
p849
sg15
(lp850
sg17
(lp851
sg19
(lp852
sg21
I0
sba(iArchitecture
Entity
p853
(dp854
g11
(lp855
sg13
S'android.webkit.ServiceWorkerWebSettings'
p856
sg15
(lp857
sg17
(lp858
sg19
(lp859
sg21
I0
sba(iArchitecture
Entity
p860
(dp861
g11
(lp862
sg13
S'org.apache.http.params.HttpParams'
p863
sg15
(lp864
sg17
(lp865
sg19
(lp866
sg21
I0
sbasg43
(lp867
g793
ag800
ag807
ag814
ag821
ag828
ag835
ag842
ag849
ag856
ag863
asg21
I0
sg45
S'1394'
p868
sba(iArchitecture
Cluster
p869
(dp870
g7
(lp871
(iArchitecture
Entity
p872
(dp873
g11
(lp874
sg13
S'android.telecom.ParcelableCall'
p875
sg15
(lp876
sg17
(lp877
sg19
(lp878
sg21
I0
sba(iArchitecture
Entity
p879
(dp880
g11
(lp881
sg13
S'android.telecom.ParcelableCall$1'
p882
sg15
(lp883
sg17
(lp884
sg19
(lp885
sg21
I0
sba(iArchitecture
Entity
p886
(dp887
g11
(lp888
sg13
S'android.telecom.ParcelableConnection'
p889
sg15
(lp890
sg17
(lp891
sg19
(lp892
sg21
I0
sba(iArchitecture
Entity
p893
(dp894
g11
(lp895
sg13
S'android.telecom.ParcelableConnection$1'
p896
sg15
(lp897
sg17
(lp898
sg19
(lp899
sg21
I0
sbasg43
(lp900
g875
ag882
ag889
ag896
asg21
I0
sg45
S'1395'
p901
sba(iArchitecture
Cluster
p902
(dp903
g7
(lp904
(iArchitecture
Entity
p905
(dp906
g11
(lp907
sg13
S'android.app.TabActivity'
p908
sg15
(lp909
sg17
(lp910
sg19
(lp911
sg21
I0
sba(iArchitecture
Entity
p912
(dp913
g11
(lp914
sg13
S'android.app.admin.SecurityLog'
p915
sg15
(lp916
sg17
(lp917
sg19
(lp918
sg21
I0
sba(iArchitecture
Entity
p919
(dp920
g11
(lp921
sg13
S'android.app.admin.SecurityLog$SecurityEvent'
p922
sg15
(lp923
sg17
(lp924
sg19
(lp925
sg21
I0
sba(iArchitecture
Entity
p926
(dp927
g11
(lp928
sg13
S'android.app.admin.SecurityLog$SecurityEvent$1'
p929
sg15
(lp930
sg17
(lp931
sg19
(lp932
sg21
I0
sbasg43
(lp933
g908
ag915
ag922
ag929
asg21
I0
sg45
S'1396'
p934
sba(iArchitecture
Cluster
p935
(dp936
g7
(lp937
(iArchitecture
Entity
p938
(dp939
g11
(lp940
sg13
S'android.nfc.cardemulation.NfcFServiceInfo'
p941
sg15
(lp942
sg17
(lp943
sg19
(lp944
sg21
I0
sba(iArchitecture
Entity
p945
(dp946
g11
(lp947
sg13
S'android.nfc.cardemulation.NfcFServiceInfo$1'
p948
sg15
(lp949
sg17
(lp950
sg19
(lp951
sg21
I0
sba(iArchitecture
Entity
p952
(dp953
g11
(lp954
sg13
S'com.android.server.pm.PreferredComponent'
p955
sg15
(lp956
sg17
(lp957
sg19
(lp958
sg21
I0
sba(iArchitecture
Entity
p959
(dp960
g11
(lp961
sg13
S'com.android.server.pm.PreferredComponent$Callbacks'
p962
sg15
(lp963
sg17
(lp964
sg19
(lp965
sg21
I0
sbasg43
(lp966
g941
ag948
ag955
ag962
asg21
I0
sg45
S'1397'
p967
sba(iArchitecture
Cluster
p968
(dp969
g7
(lp970
(iArchitecture
Entity
p971
(dp972
g11
(lp973
sg13
S'android.graphics.drawable.AnimatedRotateDrawable'
p974
sg15
(lp975
sg17
(lp976
sg19
(lp977
sg21
I0
sba(iArchitecture
Entity
p978
(dp979
g11
(lp980
sg13
S'android.graphics.drawable.AnimatedRotateDrawable$1'
p981
sg15
(lp982
sg17
(lp983
sg19
(lp984
sg21
I0
sba(iArchitecture
Entity
p985
(dp986
g11
(lp987
sg13
S'android.graphics.drawable.AnimatedRotateDrawable$AnimatedRotateState'
p988
sg15
(lp989
sg17
(lp990
sg19
(lp991
sg21
I0
sba(iArchitecture
Entity
p992
(dp993
g11
(lp994
sg13
S'android.graphics.drawable.DrawableInflater'
p995
sg15
(lp996
sg17
(lp997
sg19
(lp998
sg21
I0
sba(iArchitecture
Entity
p999
(dp1000
g11
(lp1001
sg13
S'android.preference.GenericInflater'
p1002
sg15
(lp1003
sg17
(lp1004
sg19
(lp1005
sg21
I0
sba(iArchitecture
Entity
p1006
(dp1007
g11
(lp1008
sg13
S'android.preference.GenericInflater$Factory'
p1009
sg15
(lp1010
sg17
(lp1011
sg19
(lp1012
sg21
I0
sba(iArchitecture
Entity
p1013
(dp1014
g11
(lp1015
sg13
S'android.preference.GenericInflater$FactoryMerger'
p1016
sg15
(lp1017
sg17
(lp1018
sg19
(lp1019
sg21
I0
sba(iArchitecture
Entity
p1020
(dp1021
g11
(lp1022
sg13
S'android.preference.GenericInflater$Parent'
p1023
sg15
(lp1024
sg17
(lp1025
sg19
(lp1026
sg21
I0
sba(iArchitecture
Entity
p1027
(dp1028
g11
(lp1029
sg13
S'android.util.StateSet'
p1030
sg15
(lp1031
sg17
(lp1032
sg19
(lp1033
sg21
I0
sba(iArchitecture
Entity
p1034
(dp1035
g11
(lp1036
sg13
S'android.view.LayoutInflater'
p1037
sg15
(lp1038
sg17
(lp1039
sg19
(lp1040
sg21
I0
sba(iArchitecture
Entity
p1041
(dp1042
g11
(lp1043
sg13
S'android.view.LayoutInflater$BlinkLayout'
p1044
sg15
(lp1045
sg17
(lp1046
sg19
(lp1047
sg21
I0
sba(iArchitecture
Entity
p1048
(dp1049
g11
(lp1050
sg13
S'android.view.LayoutInflater$BlinkLayout$1'
p1051
sg15
(lp1052
sg17
(lp1053
sg19
(lp1054
sg21
I0
sba(iArchitecture
Entity
p1055
(dp1056
g11
(lp1057
sg13
S'android.view.LayoutInflater$Factory'
p1058
sg15
(lp1059
sg17
(lp1060
sg19
(lp1061
sg21
I0
sba(iArchitecture
Entity
p1062
(dp1063
g11
(lp1064
sg13
S'android.view.LayoutInflater$Factory2'
p1065
sg15
(lp1066
sg17
(lp1067
sg19
(lp1068
sg21
I0
sba(iArchitecture
Entity
p1069
(dp1070
g11
(lp1071
sg13
S'android.view.LayoutInflater$FactoryMerger'
p1072
sg15
(lp1073
sg17
(lp1074
sg19
(lp1075
sg21
I0
sba(iArchitecture
Entity
p1076
(dp1077
g11
(lp1078
sg13
S'android.view.LayoutInflater$Filter'
p1079
sg15
(lp1080
sg17
(lp1081
sg19
(lp1082
sg21
I0
sbasg43
(lp1083
g974
ag981
ag988
ag995
ag1002
ag1009
ag1016
ag1023
ag1030
ag1037
ag1044
ag1051
ag1058
ag1065
ag1072
ag1079
asg21
I0
sg45
S'1398'
p1084
sba(iArchitecture
Cluster
p1085
(dp1086
g7
(lp1087
(iArchitecture
Entity
p1088
(dp1089
g11
(lp1090
sg13
S'android.content.pm.permission.RuntimePermissionPresentationInfo'
p1091
sg15
(lp1092
sg17
(lp1093
sg19
(lp1094
sg21
I0
sba(iArchitecture
Entity
p1095
(dp1096
g11
(lp1097
sg13
S'android.content.pm.permission.RuntimePermissionPresentationInfo$1'
p1098
sg15
(lp1099
sg17
(lp1100
sg19
(lp1101
sg21
I0
sba(iArchitecture
Entity
p1102
(dp1103
g11
(lp1104
sg13
S'android.hardware.location.ContextHubMessage'
p1105
sg15
(lp1106
sg17
(lp1107
sg19
(lp1108
sg21
I0
sba(iArchitecture
Entity
p1109
(dp1110
g11
(lp1111
sg13
S'android.hardware.location.ContextHubMessage$1'
p1112
sg15
(lp1113
sg17
(lp1114
sg19
(lp1115
sg21
I0
sba(iArchitecture
Entity
p1116
(dp1117
g11
(lp1118
sg13
S'android.location.GeocoderParams'
p1119
sg15
(lp1120
sg17
(lp1121
sg19
(lp1122
sg21
I0
sba(iArchitecture
Entity
p1123
(dp1124
g11
(lp1125
sg13
S'android.location.GeocoderParams$1'
p1126
sg15
(lp1127
sg17
(lp1128
sg19
(lp1129
sg21
I0
sba(iArchitecture
Entity
p1130
(dp1131
g11
(lp1132
sg13
S'com.android.ims.ImsSuppServiceNotification'
p1133
sg15
(lp1134
sg17
(lp1135
sg19
(lp1136
sg21
I0
sba(iArchitecture
Entity
p1137
(dp1138
g11
(lp1139
sg13
S'com.android.ims.ImsSuppServiceNotification$1'
p1140
sg15
(lp1141
sg17
(lp1142
sg19
(lp1143
sg21
I0
sbasg43
(lp1144
g1091
ag1098
ag1105
ag1112
ag1119
ag1126
ag1133
ag1140
asg21
I0
sg45
S'1399'
p1145
sba(iArchitecture
Cluster
p1146
(dp1147
g7
(lp1148
(iArchitecture
Entity
p1149
(dp1150
g11
(lp1151
sg13
S'com.android.server.AppWidgetBackupBridge'
p1152
sg15
(lp1153
sg17
(lp1154
sg19
(lp1155
sg21
I0
sbasg43
(lp1156
g1152
asg21
I0
sg45
S'239'
p1157
sba(iArchitecture
Cluster
p1158
(dp1159
g7
(lp1160
(iArchitecture
Entity
p1161
(dp1162
g11
(lp1163
sg13
S'android.content.pm.LauncherActivityInfo'
p1164
sg15
(lp1165
sg17
(lp1166
sg19
(lp1167
sg21
I0
sbasg43
(lp1168
g1164
asg21
I0
sg45
S'339'
p1169
sba(iArchitecture
Cluster
p1170
(dp1171
g7
(lp1172
(iArchitecture
Entity
p1173
(dp1174
g11
(lp1175
sg13
S'junit.framework.TestResult'
p1176
sg15
(lp1177
sg17
(lp1178
sg19
(lp1179
sg21
I0
sbasg43
(lp1180
g1176
asg21
I0
sg45
S'39'
p1181
sba(iArchitecture
Cluster
p1182
(dp1183
g7
(lp1184
(iArchitecture
Entity
p1185
(dp1186
g11
(lp1187
sg13
S'android.filterfw.geometry.Rectangle'
p1188
sg15
(lp1189
sg17
(lp1190
sg19
(lp1191
sg21
I0
sbasg43
(lp1192
g1188
asg21
I0
sg45
S'390'
p1193
sba(iArchitecture
Cluster
p1194
(dp1195
g7
(lp1196
(iArchitecture
Entity
p1197
(dp1198
g11
(lp1199
sg13
S'com.android.server.wm.DragResizeMode'
p1200
sg15
(lp1201
sg17
(lp1202
sg19
(lp1203
sg21
I0
sbasg43
(lp1204
g1200
asg21
I0
sg45
S'391'
p1205
sba(iArchitecture
Cluster
p1206
(dp1207
g7
(lp1208
(iArchitecture
Entity
p1209
(dp1210
g11
(lp1211
sg13
S'com.android.server.pm.OtaDexoptShellCommand'
p1212
sg15
(lp1213
sg17
(lp1214
sg19
(lp1215
sg21
I0
sbasg43
(lp1216
g1212
asg21
I0
sg45
S'392'
p1217
sba(iArchitecture
Cluster
p1218
(dp1219
g7
(lp1220
(iArchitecture
Entity
p1221
(dp1222
g11
(lp1223
sg13
S'android.drm.DrmRights'
p1224
sg15
(lp1225
sg17
(lp1226
sg19
(lp1227
sg21
I0
sbasg43
(lp1228
g1224
asg21
I0
sg45
S'393'
p1229
sba(iArchitecture
Cluster
p1230
(dp1231
g7
(lp1232
(iArchitecture
Entity
p1233
(dp1234
g11
(lp1235
sg13
S'android.hardware.camera2.DngCreator'
p1236
sg15
(lp1237
sg17
(lp1238
sg19
(lp1239
sg21
I0
sbasg43
(lp1240
g1236
asg21
I0
sg45
S'394'
p1241
sba(iArchitecture
Cluster
p1242
(dp1243
g7
(lp1244
(iArchitecture
Entity
p1245
(dp1246
g11
(lp1247
sg13
S'android.util.Patterns'
p1248
sg15
(lp1249
sg17
(lp1250
sg19
(lp1251
sg21
I0
sbasg43
(lp1252
g1248
asg21
I0
sg45
S'395'
p1253
sba(iArchitecture
Cluster
p1254
(dp1255
g7
(lp1256
(iArchitecture
Entity
p1257
(dp1258
g11
(lp1259
sg13
S'com.android.server.usage.IntervalStats'
p1260
sg15
(lp1261
sg17
(lp1262
sg19
(lp1263
sg21
I0
sbasg43
(lp1264
g1260
asg21
I0
sg45
S'396'
p1265
sba(iArchitecture
Cluster
p1266
(dp1267
g7
(lp1268
(iArchitecture
Entity
p1269
(dp1270
g11
(lp1271
sg13
S'android.hardware.camera2.utils.SurfaceUtils'
p1272
sg15
(lp1273
sg17
(lp1274
sg19
(lp1275
sg21
I0
sbasg43
(lp1276
g1272
asg21
I0
sg45
S'397'
p1277
sba(iArchitecture
Cluster
p1278
(dp1279
g7
(lp1280
(iArchitecture
Entity
p1281
(dp1282
g11
(lp1283
sg13
S'com.android.server.webkit.SystemInterface'
p1284
sg15
(lp1285
sg17
(lp1286
sg19
(lp1287
sg21
I0
sbasg43
(lp1288
g1284
asg21
I0
sg45
S'398'
p1289
sba(iArchitecture
Cluster
p1290
(dp1291
g7
(lp1292
(iArchitecture
Entity
p1293
(dp1294
g11
(lp1295
sg13
S'android.content.SyncActivityTooManyDeletes'
p1296
sg15
(lp1297
sg17
(lp1298
sg19
(lp1299
sg21
I0
sbasg43
(lp1300
g1296
asg21
I0
sg45
S'399'
p1301
sba(iArchitecture
Cluster
p1302
(dp1303
g7
(lp1304
(iArchitecture
Entity
p1305
(dp1306
g11
(lp1307
sg13
S'android.filterfw.core.CachedFrameManager'
p1308
sg15
(lp1309
sg17
(lp1310
sg19
(lp1311
sg21
I0
sbasg43
(lp1312
g1308
asg21
I0
sg45
S'439'
p1313
sba(iArchitecture
Cluster
p1314
(dp1315
g7
(lp1316
(iArchitecture
Entity
p1317
(dp1318
g11
(lp1319
sg13
S'com.android.server.display.ColorFade'
p1320
sg15
(lp1321
sg17
(lp1322
sg19
(lp1323
sg21
I0
sba(iArchitecture
Entity
p1324
(dp1325
g11
(lp1326
sg13
S'com.android.server.display.ColorFade$NaturalSurfaceLayout'
p1327
sg15
(lp1328
sg17
(lp1329
sg19
(lp1330
sg21
I0
sbasg43
(lp1331
g1320
ag1327
asg21
I0
sg45
S'539'
p1332
sba(iArchitecture
Cluster
p1333
(dp1334
g7
(lp1335
(iArchitecture
Entity
p1336
(dp1337
g11
(lp1338
sg13
S'com.android.internal.alsa.AlsaDevicesParser'
p1339
sg15
(lp1340
sg17
(lp1341
sg19
(lp1342
sg21
I0
sba(iArchitecture
Entity
p1343
(dp1344
g11
(lp1345
sg13
S'com.android.internal.alsa.AlsaDevicesParser$AlsaDeviceRecord'
p1346
sg15
(lp1347
sg17
(lp1348
sg19
(lp1349
sg21
I0
sbasg43
(lp1350
g1339
ag1346
asg21
I0
sg45
S'639'
p1351
sba(iArchitecture
Cluster
p1352
(dp1353
g7
(lp1354
(iArchitecture
Entity
p1355
(dp1356
g11
(lp1357
sg13
S'android.net.ScoredNetwork'
p1358
sg15
(lp1359
sg17
(lp1360
sg19
(lp1361
sg21
I0
sba(iArchitecture
Entity
p1362
(dp1363
g11
(lp1364
sg13
S'android.net.ScoredNetwork$1'
p1365
sg15
(lp1366
sg17
(lp1367
sg19
(lp1368
sg21
I0
sbasg43
(lp1369
g1358
ag1365
asg21
I0
sg45
S'739'
p1370
sba(iArchitecture
Cluster
p1371
(dp1372
g7
(lp1373
(iArchitecture
Entity
p1374
(dp1375
g11
(lp1376
sg13
S'android.net.LocalSocketImpl'
p1377
sg15
(lp1378
sg17
(lp1379
sg19
(lp1380
sg21
I0
sba(iArchitecture
Entity
p1381
(dp1382
g11
(lp1383
sg13
S'android.net.LocalSocketImpl$SocketInputStream'
p1384
sg15
(lp1385
sg17
(lp1386
sg19
(lp1387
sg21
I0
sba(iArchitecture
Entity
p1388
(dp1389
g11
(lp1390
sg13
S'android.net.LocalSocketImpl$SocketOutputStream'
p1391
sg15
(lp1392
sg17
(lp1393
sg19
(lp1394
sg21
I0
sbasg43
(lp1395
g1377
ag1384
ag1391
asg21
I0
sg45
S'839'
p1396
sba(iArchitecture
Cluster
p1397
(dp1398
g7
(lp1399
(iArchitecture
Entity
p1400
(dp1401
g11
(lp1402
sg13
S'android.transition.Visibility'
p1403
sg15
(lp1404
sg17
(lp1405
sg19
(lp1406
sg21
I0
sba(iArchitecture
Entity
p1407
(dp1408
g11
(lp1409
sg13
S'android.transition.Visibility$1'
p1410
sg15
(lp1411
sg17
(lp1412
sg19
(lp1413
sg21
I0
sba(iArchitecture
Entity
p1414
(dp1415
g11
(lp1416
sg13
S'android.transition.Visibility$DisappearListener'
p1417
sg15
(lp1418
sg17
(lp1419
sg19
(lp1420
sg21
I0
sba(iArchitecture
Entity
p1421
(dp1422
g11
(lp1423
sg13
S'android.transition.Visibility$VisibilityInfo'
p1424
sg15
(lp1425
sg17
(lp1426
sg19
(lp1427
sg21
I0
sbasg43
(lp1428
g1403
ag1410
ag1417
ag1424
asg21
I0
sg45
S'939'
p1429
sbasS'target_sub'
p1430
S'39'
p1431
sg43
(lp1432
sS'is_component_arch'
p1433
I01
sg45
S'7.0.0_r1'
p1434
sba.