(lp0
(iArchitecture
Architecture
p1
(dp2
S'clusters'
p3
(lp4
(iArchitecture
Cluster
p5
(dp6
S'entities'
p7
(lp8
(iArchitecture
Entity
p9
(dp10
S'issue_ids'
p11
(lp12
sS'name'
p13
S'com.android.server.job.JobStore'
p14
sS'descs'
p15
(lp16
sS'labels'
p17
(lp18
sS'titles'
p19
(lp20
sS'change'
p21
I0
sba(iArchitecture
Entity
p22
(dp23
g11
(lp24
sg13
S'com.android.server.job.JobStore$JobSet'
p25
sg15
(lp26
sg17
(lp27
sg19
(lp28
sg21
I0
sba(iArchitecture
Entity
p29
(dp30
g11
(lp31
sg13
S'com.android.server.job.JobStore$JobStatusFunctor'
p32
sg15
(lp33
sg17
(lp34
sg19
(lp35
sg21
I0
sba(iArchitecture
Entity
p36
(dp37
g11
(lp38
sg13
S'com.android.server.job.JobStore$ReadJobMapFromDiskRunnable'
p39
sg15
(lp40
sg17
(lp41
sg19
(lp42
sg21
I0
sba(iArchitecture
Entity
p43
(dp44
g11
(lp45
sg13
S'com.android.server.job.JobStore$WriteJobsMapToDiskRunnable'
p46
sg15
(lp47
sg17
(lp48
sg19
(lp49
sg21
I0
sba(iArchitecture
Entity
p50
(dp51
g11
(lp52
sg13
S'com.android.server.job.JobStore$WriteJobsMapToDiskRunnable$1'
p53
sg15
(lp54
sg17
(lp55
sg19
(lp56
sg21
I0
sbasS'classes'
p57
(lp58
g14
ag25
ag32
ag39
ag46
ag53
asg21
I0
sS'label'
p59
S'1125'
p60
sba(iArchitecture
Cluster
p61
(dp62
g7
(lp63
(iArchitecture
Entity
p64
(dp65
g11
(lp66
sg13
S'android.filterfw.core.GLEnvironment'
p67
sg15
(lp68
sg17
(lp69
sg19
(lp70
sg21
I0
sbasg57
(lp71
g67
asg21
I0
sg59
S'125'
p72
sba(iArchitecture
Cluster
p73
(dp74
g7
(lp75
(iArchitecture
Entity
p76
(dp77
g11
(lp78
sg13
S'android.os.BatteryStats'
p79
sg15
(lp80
sg17
(lp81
sg19
(lp82
sg21
I0
sba(iArchitecture
Entity
p83
(dp84
g11
(lp85
sg13
S'android.os.BatteryStats$1'
p86
sg15
(lp87
sg17
(lp88
sg19
(lp89
sg21
I0
sba(iArchitecture
Entity
p90
(dp91
g11
(lp92
sg13
S'android.os.BatteryStats$BitDescription'
p93
sg15
(lp94
sg17
(lp95
sg19
(lp96
sg21
I0
sba(iArchitecture
Entity
p97
(dp98
g11
(lp99
sg13
S'android.os.BatteryStats$ControllerActivityCounter'
p100
sg15
(lp101
sg17
(lp102
sg19
(lp103
sg21
I0
sba(iArchitecture
Entity
p104
(dp105
g11
(lp106
sg13
S'android.os.BatteryStats$Counter'
p107
sg15
(lp108
sg17
(lp109
sg19
(lp110
sg21
I0
sba(iArchitecture
Entity
p111
(dp112
g11
(lp113
sg13
S'android.os.BatteryStats$DailyItem'
p114
sg15
(lp115
sg17
(lp116
sg19
(lp117
sg21
I0
sba(iArchitecture
Entity
p118
(dp119
g11
(lp120
sg13
S'android.os.BatteryStats$HistoryEventTracker'
p121
sg15
(lp122
sg17
(lp123
sg19
(lp124
sg21
I0
sba(iArchitecture
Entity
p125
(dp126
g11
(lp127
sg13
S'android.os.BatteryStats$HistoryItem'
p128
sg15
(lp129
sg17
(lp130
sg19
(lp131
sg21
I0
sba(iArchitecture
Entity
p132
(dp133
g11
(lp134
sg13
S'android.os.BatteryStats$HistoryPrinter'
p135
sg15
(lp136
sg17
(lp137
sg19
(lp138
sg21
I0
sba(iArchitecture
Entity
p139
(dp140
g11
(lp141
sg13
S'android.os.BatteryStats$HistoryStepDetails'
p142
sg15
(lp143
sg17
(lp144
sg19
(lp145
sg21
I0
sba(iArchitecture
Entity
p146
(dp147
g11
(lp148
sg13
S'android.os.BatteryStats$HistoryTag'
p149
sg15
(lp150
sg17
(lp151
sg19
(lp152
sg21
I0
sba(iArchitecture
Entity
p153
(dp154
g11
(lp155
sg13
S'android.os.BatteryStats$LevelStepTracker'
p156
sg15
(lp157
sg17
(lp158
sg19
(lp159
sg21
I0
sba(iArchitecture
Entity
p160
(dp161
g11
(lp162
sg13
S'android.os.BatteryStats$LongCounter'
p163
sg15
(lp164
sg17
(lp165
sg19
(lp166
sg21
I0
sba(iArchitecture
Entity
p167
(dp168
g11
(lp169
sg13
S'android.os.BatteryStats$PackageChange'
p170
sg15
(lp171
sg17
(lp172
sg19
(lp173
sg21
I0
sba(iArchitecture
Entity
p174
(dp175
g11
(lp176
sg13
S'android.os.BatteryStats$Timer'
p177
sg15
(lp178
sg17
(lp179
sg19
(lp180
sg21
I0
sba(iArchitecture
Entity
p181
(dp182
g11
(lp183
sg13
S'android.os.BatteryStats$TimerEntry'
p184
sg15
(lp185
sg17
(lp186
sg19
(lp187
sg21
I0
sba(iArchitecture
Entity
p188
(dp189
g11
(lp190
sg13
S'android.os.BatteryStats$Uid'
p191
sg15
(lp192
sg17
(lp193
sg19
(lp194
sg21
I0
sba(iArchitecture
Entity
p195
(dp196
g11
(lp197
sg13
S'android.os.BatteryStats$Uid$Pid'
p198
sg15
(lp199
sg17
(lp200
sg19
(lp201
sg21
I0
sba(iArchitecture
Entity
p202
(dp203
g11
(lp204
sg13
S'android.os.BatteryStats$Uid$Pkg'
p205
sg15
(lp206
sg17
(lp207
sg19
(lp208
sg21
I0
sba(iArchitecture
Entity
p209
(dp210
g11
(lp211
sg13
S'android.os.BatteryStats$Uid$Pkg$Serv'
p212
sg15
(lp213
sg17
(lp214
sg19
(lp215
sg21
I0
sba(iArchitecture
Entity
p216
(dp217
g11
(lp218
sg13
S'android.os.BatteryStats$Uid$Proc'
p219
sg15
(lp220
sg17
(lp221
sg19
(lp222
sg21
I0
sba(iArchitecture
Entity
p223
(dp224
g11
(lp225
sg13
S'android.os.BatteryStats$Uid$Proc$ExcessivePower'
p226
sg15
(lp227
sg17
(lp228
sg19
(lp229
sg21
I0
sba(iArchitecture
Entity
p230
(dp231
g11
(lp232
sg13
S'android.os.BatteryStats$Uid$Sensor'
p233
sg15
(lp234
sg17
(lp235
sg19
(lp236
sg21
I0
sba(iArchitecture
Entity
p237
(dp238
g11
(lp239
sg13
S'android.os.BatteryStats$Uid$Wakelock'
p240
sg15
(lp241
sg17
(lp242
sg19
(lp243
sg21
I0
sba(iArchitecture
Entity
p244
(dp245
g11
(lp246
sg13
S'com.android.internal.os.BatteryStatsImpl'
p247
sg15
(lp248
sg17
(lp249
sg19
(lp250
sg21
I0
sba(iArchitecture
Entity
p251
(dp252
g11
(lp253
sg13
S'com.android.internal.os.BatteryStatsImpl$1'
p254
sg15
(lp255
sg17
(lp256
sg19
(lp257
sg21
I0
sba(iArchitecture
Entity
p258
(dp259
g11
(lp260
sg13
S'com.android.internal.os.BatteryStatsImpl$2'
p261
sg15
(lp262
sg17
(lp263
sg19
(lp264
sg21
I0
sba(iArchitecture
Entity
p265
(dp266
g11
(lp267
sg13
S'com.android.internal.os.BatteryStatsImpl$3'
p268
sg15
(lp269
sg17
(lp270
sg19
(lp271
sg21
I0
sba(iArchitecture
Entity
p272
(dp273
g11
(lp274
sg13
S'com.android.internal.os.BatteryStatsImpl$4'
p275
sg15
(lp276
sg17
(lp277
sg19
(lp278
sg21
I0
sba(iArchitecture
Entity
p279
(dp280
g11
(lp281
sg13
S'com.android.internal.os.BatteryStatsImpl$5'
p282
sg15
(lp283
sg17
(lp284
sg19
(lp285
sg21
I0
sba(iArchitecture
Entity
p286
(dp287
g11
(lp288
sg13
S'com.android.internal.os.BatteryStatsImpl$BatchTimer'
p289
sg15
(lp290
sg17
(lp291
sg19
(lp292
sg21
I0
sba(iArchitecture
Entity
p293
(dp294
g11
(lp295
sg13
S'com.android.internal.os.BatteryStatsImpl$BatteryCallback'
p296
sg15
(lp297
sg17
(lp298
sg19
(lp299
sg21
I0
sba(iArchitecture
Entity
p300
(dp301
g11
(lp302
sg13
S'com.android.internal.os.BatteryStatsImpl$Clocks'
p303
sg15
(lp304
sg17
(lp305
sg19
(lp306
sg21
I0
sba(iArchitecture
Entity
p307
(dp308
g11
(lp309
sg13
S'com.android.internal.os.BatteryStatsImpl$ControllerActivityCounterImpl'
p310
sg15
(lp311
sg17
(lp312
sg19
(lp313
sg21
I0
sba(iArchitecture
Entity
p314
(dp315
g11
(lp316
sg13
S'com.android.internal.os.BatteryStatsImpl$Counter'
p317
sg15
(lp318
sg17
(lp319
sg19
(lp320
sg21
I0
sba(iArchitecture
Entity
p321
(dp322
g11
(lp323
sg13
S'com.android.internal.os.BatteryStatsImpl$ExternalStatsSync'
p324
sg15
(lp325
sg17
(lp326
sg19
(lp327
sg21
I0
sba(iArchitecture
Entity
p328
(dp329
g11
(lp330
sg13
S'com.android.internal.os.BatteryStatsImpl$LongSamplingCounter'
p331
sg15
(lp332
sg17
(lp333
sg19
(lp334
sg21
I0
sba(iArchitecture
Entity
p335
(dp336
g11
(lp337
sg13
S'com.android.internal.os.BatteryStatsImpl$MyHandler'
p338
sg15
(lp339
sg17
(lp340
sg19
(lp341
sg21
I0
sba(iArchitecture
Entity
p342
(dp343
g11
(lp344
sg13
S'com.android.internal.os.BatteryStatsImpl$OverflowArrayMap'
p345
sg15
(lp346
sg17
(lp347
sg19
(lp348
sg21
I0
sba(iArchitecture
Entity
p349
(dp350
g11
(lp351
sg13
S'com.android.internal.os.BatteryStatsImpl$PlatformIdleStateCallback'
p352
sg15
(lp353
sg17
(lp354
sg19
(lp355
sg21
I0
sba(iArchitecture
Entity
p356
(dp357
g11
(lp358
sg13
S'com.android.internal.os.BatteryStatsImpl$SamplingTimer'
p359
sg15
(lp360
sg17
(lp361
sg19
(lp362
sg21
I0
sba(iArchitecture
Entity
p363
(dp364
g11
(lp365
sg13
S'com.android.internal.os.BatteryStatsImpl$StopwatchTimer'
p366
sg15
(lp367
sg17
(lp368
sg19
(lp369
sg21
I0
sba(iArchitecture
Entity
p370
(dp371
g11
(lp372
sg13
S'com.android.internal.os.BatteryStatsImpl$SystemClocks'
p373
sg15
(lp374
sg17
(lp375
sg19
(lp376
sg21
I0
sba(iArchitecture
Entity
p377
(dp378
g11
(lp379
sg13
S'com.android.internal.os.BatteryStatsImpl$TimeBase'
p380
sg15
(lp381
sg17
(lp382
sg19
(lp383
sg21
I0
sba(iArchitecture
Entity
p384
(dp385
g11
(lp386
sg13
S'com.android.internal.os.BatteryStatsImpl$TimeBaseObs'
p387
sg15
(lp388
sg17
(lp389
sg19
(lp390
sg21
I0
sba(iArchitecture
Entity
p391
(dp392
g11
(lp393
sg13
S'com.android.internal.os.BatteryStatsImpl$Timer'
p394
sg15
(lp395
sg17
(lp396
sg19
(lp397
sg21
I0
sba(iArchitecture
Entity
p398
(dp399
g11
(lp400
sg13
S'com.android.internal.os.BatteryStatsImpl$Uid'
p401
sg15
(lp402
sg17
(lp403
sg19
(lp404
sg21
I0
sba(iArchitecture
Entity
p405
(dp406
g11
(lp407
sg13
S'com.android.internal.os.BatteryStatsImpl$Uid$1'
p408
sg15
(lp409
sg17
(lp410
sg19
(lp411
sg21
I0
sba(iArchitecture
Entity
p412
(dp413
g11
(lp414
sg13
S'com.android.internal.os.BatteryStatsImpl$Uid$2'
p415
sg15
(lp416
sg17
(lp417
sg19
(lp418
sg21
I0
sba(iArchitecture
Entity
p419
(dp420
g11
(lp421
sg13
S'com.android.internal.os.BatteryStatsImpl$Uid$3'
p422
sg15
(lp423
sg17
(lp424
sg19
(lp425
sg21
I0
sba(iArchitecture
Entity
p426
(dp427
g11
(lp428
sg13
S'com.android.internal.os.BatteryStatsImpl$Uid$Pkg'
p429
sg15
(lp430
sg17
(lp431
sg19
(lp432
sg21
I0
sba(iArchitecture
Entity
p433
(dp434
g11
(lp435
sg13
S'com.android.internal.os.BatteryStatsImpl$Uid$Pkg$Serv'
p436
sg15
(lp437
sg17
(lp438
sg19
(lp439
sg21
I0
sba(iArchitecture
Entity
p440
(dp441
g11
(lp442
sg13
S'com.android.internal.os.BatteryStatsImpl$Uid$Proc'
p443
sg15
(lp444
sg17
(lp445
sg19
(lp446
sg21
I0
sba(iArchitecture
Entity
p447
(dp448
g11
(lp449
sg13
S'com.android.internal.os.BatteryStatsImpl$Uid$Sensor'
p450
sg15
(lp451
sg17
(lp452
sg19
(lp453
sg21
I0
sba(iArchitecture
Entity
p454
(dp455
g11
(lp456
sg13
S'com.android.internal.os.BatteryStatsImpl$Uid$Wakelock'
p457
sg15
(lp458
sg17
(lp459
sg19
(lp460
sg21
I0
sbasg57
(lp461
g79
ag86
ag93
ag100
ag107
ag114
ag121
ag128
ag135
ag142
ag149
ag156
ag163
ag170
ag177
ag184
ag191
ag198
ag205
ag212
ag219
ag226
ag233
ag240
ag247
ag254
ag261
ag268
ag275
ag282
ag289
ag296
ag303
ag310
ag317
ag324
ag331
ag338
ag345
ag352
ag359
ag366
ag373
ag380
ag387
ag394
ag401
ag408
ag415
ag422
ag429
ag436
ag443
ag450
ag457
asg21
I0
sg59
S'1250'
p462
sba(iArchitecture
Cluster
p463
(dp464
g7
(lp465
(iArchitecture
Entity
p466
(dp467
g11
(lp468
sg13
S'android.filterfw.core.AsyncRunner'
p469
sg15
(lp470
sg17
(lp471
sg19
(lp472
sg21
I0
sba(iArchitecture
Entity
p473
(dp474
g11
(lp475
sg13
S'android.filterfw.core.AsyncRunner$AsyncRunnerTask'
p476
sg15
(lp477
sg17
(lp478
sg19
(lp479
sg21
I0
sba(iArchitecture
Entity
p480
(dp481
g11
(lp482
sg13
S'android.filterfw.core.AsyncRunner$RunnerResult'
p483
sg15
(lp484
sg17
(lp485
sg19
(lp486
sg21
I0
sba(iArchitecture
Entity
p487
(dp488
g11
(lp489
sg13
S'android.filterfw.core.SyncRunner'
p490
sg15
(lp491
sg17
(lp492
sg19
(lp493
sg21
I0
sba(iArchitecture
Entity
p494
(dp495
g11
(lp496
sg13
S'android.filterfw.core.SyncRunner$1'
p497
sg15
(lp498
sg17
(lp499
sg19
(lp500
sg21
I0
sbasg57
(lp501
g469
ag476
ag483
ag490
ag497
asg21
I0
sg59
S'1251'
p502
sba(iArchitecture
Cluster
p503
(dp504
g7
(lp505
(iArchitecture
Entity
p506
(dp507
g11
(lp508
sg13
S'com.android.server.location.MockProvider'
p509
sg15
(lp510
sg17
(lp511
sg19
(lp512
sg21
I0
sba(iArchitecture
Entity
p513
(dp514
g11
(lp515
sg13
S'com.android.server.location.PassiveProvider'
p516
sg15
(lp517
sg17
(lp518
sg19
(lp519
sg21
I0
sbasg57
(lp520
g509
ag516
asg21
I0
sg59
S'1252'
p521
sba(iArchitecture
Cluster
p522
(dp523
g7
(lp524
(iArchitecture
Entity
p525
(dp526
g11
(lp527
sg13
S'android.telephony.CellSignalStrengthGsm'
p528
sg15
(lp529
sg17
(lp530
sg19
(lp531
sg21
I0
sba(iArchitecture
Entity
p532
(dp533
g11
(lp534
sg13
S'android.telephony.CellSignalStrengthGsm$1'
p535
sg15
(lp536
sg17
(lp537
sg19
(lp538
sg21
I0
sba(iArchitecture
Entity
p539
(dp540
g11
(lp541
sg13
S'android.telephony.CellSignalStrengthWcdma'
p542
sg15
(lp543
sg17
(lp544
sg19
(lp545
sg21
I0
sba(iArchitecture
Entity
p546
(dp547
g11
(lp548
sg13
S'android.telephony.CellSignalStrengthWcdma$1'
p549
sg15
(lp550
sg17
(lp551
sg19
(lp552
sg21
I0
sbasg57
(lp553
g528
ag535
ag542
ag549
asg21
I0
sg59
S'1253'
p554
sba(iArchitecture
Cluster
p555
(dp556
g7
(lp557
(iArchitecture
Entity
p558
(dp559
g11
(lp560
sg13
S'android.location.GnssMeasurementCallbackTransport'
p561
sg15
(lp562
sg17
(lp563
sg19
(lp564
sg21
I0
sba(iArchitecture
Entity
p565
(dp566
g11
(lp567
sg13
S'android.location.GnssMeasurementCallbackTransport$ListenerTransport'
p568
sg15
(lp569
sg17
(lp570
sg19
(lp571
sg21
I0
sba(iArchitecture
Entity
p572
(dp573
g11
(lp574
sg13
S'android.location.GnssMeasurementCallbackTransport$ListenerTransport$1'
p575
sg15
(lp576
sg17
(lp577
sg19
(lp578
sg21
I0
sba(iArchitecture
Entity
p579
(dp580
g11
(lp581
sg13
S'android.location.GnssMeasurementCallbackTransport$ListenerTransport$2'
p582
sg15
(lp583
sg17
(lp584
sg19
(lp585
sg21
I0
sba(iArchitecture
Entity
p586
(dp587
g11
(lp588
sg13
S'android.location.GnssNavigationMessageCallbackTransport'
p589
sg15
(lp590
sg17
(lp591
sg19
(lp592
sg21
I0
sba(iArchitecture
Entity
p593
(dp594
g11
(lp595
sg13
S'android.location.GnssNavigationMessageCallbackTransport$ListenerTransport'
p596
sg15
(lp597
sg17
(lp598
sg19
(lp599
sg21
I0
sba(iArchitecture
Entity
p600
(dp601
g11
(lp602
sg13
S'android.location.GnssNavigationMessageCallbackTransport$ListenerTransport$1'
p603
sg15
(lp604
sg17
(lp605
sg19
(lp606
sg21
I0
sba(iArchitecture
Entity
p607
(dp608
g11
(lp609
sg13
S'android.location.GnssNavigationMessageCallbackTransport$ListenerTransport$2'
p610
sg15
(lp611
sg17
(lp612
sg19
(lp613
sg21
I0
sba(iArchitecture
Entity
p614
(dp615
g11
(lp616
sg13
S'com.android.server.location.GnssMeasurementsProvider'
p617
sg15
(lp618
sg17
(lp619
sg19
(lp620
sg21
I0
sba(iArchitecture
Entity
p621
(dp622
g11
(lp623
sg13
S'com.android.server.location.GnssMeasurementsProvider$1'
p624
sg15
(lp625
sg17
(lp626
sg19
(lp627
sg21
I0
sba(iArchitecture
Entity
p628
(dp629
g11
(lp630
sg13
S'com.android.server.location.GnssMeasurementsProvider$StatusChangedOperation'
p631
sg15
(lp632
sg17
(lp633
sg19
(lp634
sg21
I0
sba(iArchitecture
Entity
p635
(dp636
g11
(lp637
sg13
S'com.android.server.location.GnssNavigationMessageProvider'
p638
sg15
(lp639
sg17
(lp640
sg19
(lp641
sg21
I0
sba(iArchitecture
Entity
p642
(dp643
g11
(lp644
sg13
S'com.android.server.location.GnssNavigationMessageProvider$1'
p645
sg15
(lp646
sg17
(lp647
sg19
(lp648
sg21
I0
sba(iArchitecture
Entity
p649
(dp650
g11
(lp651
sg13
S'com.android.server.location.GnssNavigationMessageProvider$StatusChangedOperation'
p652
sg15
(lp653
sg17
(lp654
sg19
(lp655
sg21
I0
sbasg57
(lp656
g561
ag568
ag575
ag582
ag589
ag596
ag603
ag610
ag617
ag624
ag631
ag638
ag645
ag652
asg21
I0
sg59
S'1254'
p657
sba(iArchitecture
Cluster
p658
(dp659
g7
(lp660
(iArchitecture
Entity
p661
(dp662
g11
(lp663
sg13
S'android.telephony.SmsMessage'
p664
sg15
(lp665
sg17
(lp666
sg19
(lp667
sg21
I0
sba(iArchitecture
Entity
p668
(dp669
g11
(lp670
sg13
S'com.android.internal.telephony.SmsMessageBase'
p671
sg15
(lp672
sg17
(lp673
sg19
(lp674
sg21
I0
sbasg57
(lp675
g664
ag671
asg21
I0
sg59
S'1255'
p676
sba(iArchitecture
Cluster
p677
(dp678
g7
(lp679
(iArchitecture
Entity
p680
(dp681
g11
(lp682
sg13
S'android.media.AudioGain'
p683
sg15
(lp684
sg17
(lp685
sg19
(lp686
sg21
I0
sba(iArchitecture
Entity
p687
(dp688
g11
(lp689
sg13
S'android.media.AudioGainConfig'
p690
sg15
(lp691
sg17
(lp692
sg19
(lp693
sg21
I0
sbasg57
(lp694
g683
ag690
asg21
I0
sg59
S'1256'
p695
sba(iArchitecture
Cluster
p696
(dp697
g7
(lp698
(iArchitecture
Entity
p699
(dp700
g11
(lp701
sg13
S'android.transition.ChangeImageTransform'
p702
sg15
(lp703
sg17
(lp704
sg19
(lp705
sg21
I0
sba(iArchitecture
Entity
p706
(dp707
g11
(lp708
sg13
S'android.transition.ChangeImageTransform$1'
p709
sg15
(lp710
sg17
(lp711
sg19
(lp712
sg21
I0
sba(iArchitecture
Entity
p713
(dp714
g11
(lp715
sg13
S'android.transition.ChangeImageTransform$2'
p716
sg15
(lp717
sg17
(lp718
sg19
(lp719
sg21
I0
sba(iArchitecture
Entity
p720
(dp721
g11
(lp722
sg13
S'android.transition.TransitionUtils'
p723
sg15
(lp724
sg17
(lp725
sg19
(lp726
sg21
I0
sba(iArchitecture
Entity
p727
(dp728
g11
(lp729
sg13
S'android.transition.TransitionUtils$MatrixEvaluator'
p730
sg15
(lp731
sg17
(lp732
sg19
(lp733
sg21
I0
sbasg57
(lp734
g702
ag709
ag716
ag723
ag730
asg21
I0
sg59
S'1257'
p735
sba(iArchitecture
Cluster
p736
(dp737
g7
(lp738
(iArchitecture
Entity
p739
(dp740
g11
(lp741
sg13
S'android.renderscript.ScriptIntrinsic3DLUT'
p742
sg15
(lp743
sg17
(lp744
sg19
(lp745
sg21
I0
sba(iArchitecture
Entity
p746
(dp747
g11
(lp748
sg13
S'android.renderscript.ScriptIntrinsicBlur'
p749
sg15
(lp750
sg17
(lp751
sg19
(lp752
sg21
I0
sba(iArchitecture
Entity
p753
(dp754
g11
(lp755
sg13
S'android.renderscript.ScriptIntrinsicConvolve3x3'
p756
sg15
(lp757
sg17
(lp758
sg19
(lp759
sg21
I0
sba(iArchitecture
Entity
p760
(dp761
g11
(lp762
sg13
S'android.renderscript.ScriptIntrinsicConvolve5x5'
p763
sg15
(lp764
sg17
(lp765
sg19
(lp766
sg21
I0
sba(iArchitecture
Entity
p767
(dp768
g11
(lp769
sg13
S'android.renderscript.ScriptIntrinsicHistogram'
p770
sg15
(lp771
sg17
(lp772
sg19
(lp773
sg21
I0
sba(iArchitecture
Entity
p774
(dp775
g11
(lp776
sg13
S'android.renderscript.ScriptIntrinsicLUT'
p777
sg15
(lp778
sg17
(lp779
sg19
(lp780
sg21
I0
sba(iArchitecture
Entity
p781
(dp782
g11
(lp783
sg13
S'android.renderscript.ScriptIntrinsicResize'
p784
sg15
(lp785
sg17
(lp786
sg19
(lp787
sg21
I0
sba(iArchitecture
Entity
p788
(dp789
g11
(lp790
sg13
S'android.renderscript.ScriptIntrinsicYuvToRGB'
p791
sg15
(lp792
sg17
(lp793
sg19
(lp794
sg21
I0
sbasg57
(lp795
g742
ag749
ag756
ag763
ag770
ag777
ag784
ag791
asg21
I0
sg59
S'1258'
p796
sba(iArchitecture
Cluster
p797
(dp798
g7
(lp799
(iArchitecture
Entity
p800
(dp801
g11
(lp802
sg13
S'android.media.browse.MediaBrowser'
p803
sg15
(lp804
sg17
(lp805
sg19
(lp806
sg21
I0
sba(iArchitecture
Entity
p807
(dp808
g11
(lp809
sg13
S'android.media.browse.MediaBrowser$1'
p810
sg15
(lp811
sg17
(lp812
sg19
(lp813
sg21
I0
sba(iArchitecture
Entity
p814
(dp815
g11
(lp816
sg13
S'android.media.browse.MediaBrowser$2'
p817
sg15
(lp818
sg17
(lp819
sg19
(lp820
sg21
I0
sba(iArchitecture
Entity
p821
(dp822
g11
(lp823
sg13
S'android.media.browse.MediaBrowser$3'
p824
sg15
(lp825
sg17
(lp826
sg19
(lp827
sg21
I0
sba(iArchitecture
Entity
p828
(dp829
g11
(lp830
sg13
S'android.media.browse.MediaBrowser$4'
p831
sg15
(lp832
sg17
(lp833
sg19
(lp834
sg21
I0
sba(iArchitecture
Entity
p835
(dp836
g11
(lp837
sg13
S'android.media.browse.MediaBrowser$5'
p838
sg15
(lp839
sg17
(lp840
sg19
(lp841
sg21
I0
sba(iArchitecture
Entity
p842
(dp843
g11
(lp844
sg13
S'android.media.browse.MediaBrowser$6'
p845
sg15
(lp846
sg17
(lp847
sg19
(lp848
sg21
I0
sba(iArchitecture
Entity
p849
(dp850
g11
(lp851
sg13
S'android.media.browse.MediaBrowser$7'
p852
sg15
(lp853
sg17
(lp854
sg19
(lp855
sg21
I0
sba(iArchitecture
Entity
p856
(dp857
g11
(lp858
sg13
S'android.media.browse.MediaBrowser$ConnectionCallback'
p859
sg15
(lp860
sg17
(lp861
sg19
(lp862
sg21
I0
sba(iArchitecture
Entity
p863
(dp864
g11
(lp865
sg13
S'android.media.browse.MediaBrowser$ItemCallback'
p866
sg15
(lp867
sg17
(lp868
sg19
(lp869
sg21
I0
sba(iArchitecture
Entity
p870
(dp871
g11
(lp872
sg13
S'android.media.browse.MediaBrowser$MediaItem'
p873
sg15
(lp874
sg17
(lp875
sg19
(lp876
sg21
I0
sba(iArchitecture
Entity
p877
(dp878
g11
(lp879
sg13
S'android.media.browse.MediaBrowser$MediaItem$1'
p880
sg15
(lp881
sg17
(lp882
sg19
(lp883
sg21
I0
sba(iArchitecture
Entity
p884
(dp885
g11
(lp886
sg13
S'android.media.browse.MediaBrowser$MediaServiceConnection'
p887
sg15
(lp888
sg17
(lp889
sg19
(lp890
sg21
I0
sba(iArchitecture
Entity
p891
(dp892
g11
(lp893
sg13
S'android.media.browse.MediaBrowser$MediaServiceConnection$1'
p894
sg15
(lp895
sg17
(lp896
sg19
(lp897
sg21
I0
sba(iArchitecture
Entity
p898
(dp899
g11
(lp900
sg13
S'android.media.browse.MediaBrowser$MediaServiceConnection$2'
p901
sg15
(lp902
sg17
(lp903
sg19
(lp904
sg21
I0
sba(iArchitecture
Entity
p905
(dp906
g11
(lp907
sg13
S'android.media.browse.MediaBrowser$ServiceCallbacks'
p908
sg15
(lp909
sg17
(lp910
sg19
(lp911
sg21
I0
sba(iArchitecture
Entity
p912
(dp913
g11
(lp914
sg13
S'android.media.browse.MediaBrowser$Subscription'
p915
sg15
(lp916
sg17
(lp917
sg19
(lp918
sg21
I0
sba(iArchitecture
Entity
p919
(dp920
g11
(lp921
sg13
S'android.media.browse.MediaBrowser$SubscriptionCallback'
p922
sg15
(lp923
sg17
(lp924
sg19
(lp925
sg21
I0
sba(iArchitecture
Entity
p926
(dp927
g11
(lp928
sg13
S'android.service.media.MediaBrowserService'
p929
sg15
(lp930
sg17
(lp931
sg19
(lp932
sg21
I0
sba(iArchitecture
Entity
p933
(dp934
g11
(lp935
sg13
S'android.service.media.MediaBrowserService$1'
p936
sg15
(lp937
sg17
(lp938
sg19
(lp939
sg21
I0
sba(iArchitecture
Entity
p940
(dp941
g11
(lp942
sg13
S'android.service.media.MediaBrowserService$2'
p943
sg15
(lp944
sg17
(lp945
sg19
(lp946
sg21
I0
sba(iArchitecture
Entity
p947
(dp948
g11
(lp949
sg13
S'android.service.media.MediaBrowserService$3'
p950
sg15
(lp951
sg17
(lp952
sg19
(lp953
sg21
I0
sba(iArchitecture
Entity
p954
(dp955
g11
(lp956
sg13
S'android.service.media.MediaBrowserService$4'
p957
sg15
(lp958
sg17
(lp959
sg19
(lp960
sg21
I0
sba(iArchitecture
Entity
p961
(dp962
g11
(lp963
sg13
S'android.service.media.MediaBrowserService$BrowserRoot'
p964
sg15
(lp965
sg17
(lp966
sg19
(lp967
sg21
I0
sba(iArchitecture
Entity
p968
(dp969
g11
(lp970
sg13
S'android.service.media.MediaBrowserService$ConnectionRecord'
p971
sg15
(lp972
sg17
(lp973
sg19
(lp974
sg21
I0
sba(iArchitecture
Entity
p975
(dp976
g11
(lp977
sg13
S'android.service.media.MediaBrowserService$Result'
p978
sg15
(lp979
sg17
(lp980
sg19
(lp981
sg21
I0
sba(iArchitecture
Entity
p982
(dp983
g11
(lp984
sg13
S'android.service.media.MediaBrowserService$ServiceBinder'
p985
sg15
(lp986
sg17
(lp987
sg19
(lp988
sg21
I0
sba(iArchitecture
Entity
p989
(dp990
g11
(lp991
sg13
S'android.service.media.MediaBrowserService$ServiceBinder$1'
p992
sg15
(lp993
sg17
(lp994
sg19
(lp995
sg21
I0
sba(iArchitecture
Entity
p996
(dp997
g11
(lp998
sg13
S'android.service.media.MediaBrowserService$ServiceBinder$2'
p999
sg15
(lp1000
sg17
(lp1001
sg19
(lp1002
sg21
I0
sba(iArchitecture
Entity
p1003
(dp1004
g11
(lp1005
sg13
S'android.service.media.MediaBrowserService$ServiceBinder$3'
p1006
sg15
(lp1007
sg17
(lp1008
sg19
(lp1009
sg21
I0
sba(iArchitecture
Entity
p1010
(dp1011
g11
(lp1012
sg13
S'android.service.media.MediaBrowserService$ServiceBinder$4'
p1013
sg15
(lp1014
sg17
(lp1015
sg19
(lp1016
sg21
I0
sba(iArchitecture
Entity
p1017
(dp1018
g11
(lp1019
sg13
S'android.service.media.MediaBrowserService$ServiceBinder$5'
p1020
sg15
(lp1021
sg17
(lp1022
sg19
(lp1023
sg21
I0
sbasg57
(lp1024
g803
ag810
ag817
ag824
ag831
ag838
ag845
ag852
ag859
ag866
ag873
ag880
ag887
ag894
ag901
ag908
ag915
ag922
ag929
ag936
ag943
ag950
ag957
ag964
ag971
ag978
ag985
ag992
ag999
ag1006
ag1013
ag1020
asg21
I0
sg59
S'1259'
p1025
sbasS'target_sub'
p1026
S'125'
p1027
sg57
(lp1028
sS'is_component_arch'
p1029
I01
sg59
S'7.0.0_r1'
p1030
sba.