(lp0
(iArchitecture
Architecture
p1
(dp2
S'clusters'
p3
(lp4
(iArchitecture
Cluster
p5
(dp6
S'entities'
p7
(lp8
(iArchitecture
Entity
p9
(dp10
S'issue_ids'
p11
(lp12
sS'name'
p13
S'android.print.PrinterCapabilitiesInfo'
p14
sS'descs'
p15
(lp16
sS'labels'
p17
(lp18
sS'titles'
p19
(lp20
sS'change'
p21
I0
sba(iArchitecture
Entity
p22
(dp23
g11
(lp24
sg13
S'android.print.PrinterCapabilitiesInfo$1'
p25
sg15
(lp26
sg17
(lp27
sg19
(lp28
sg21
I0
sba(iArchitecture
Entity
p29
(dp30
g11
(lp31
sg13
S'android.print.PrinterCapabilitiesInfo$Builder'
p32
sg15
(lp33
sg17
(lp34
sg19
(lp35
sg21
I0
sba(iArchitecture
Entity
p36
(dp37
g11
(lp38
sg13
S'android.print.PrinterCapabilitiesInfo$Builder$_android_print_PrinterCapabilitiesInfo$Builder_setColorModes_int_colorModes_int_defaultColorMode_LambdaImpl0'
p39
sg15
(lp40
sg17
(lp41
sg19
(lp42
sg21
I0
sba(iArchitecture
Entity
p43
(dp44
g11
(lp45
sg13
S'android.print.PrinterCapabilitiesInfo$Builder$_android_print_PrinterCapabilitiesInfo$Builder_setDuplexModes_int_duplexModes_int_defaultDuplexMode_LambdaImpl0'
p46
sg15
(lp47
sg17
(lp48
sg19
(lp49
sg21
I0
sba(iArchitecture
Entity
p50
(dp51
g11
(lp52
sg13
S'android.print.PrinterCapabilitiesInfo$_void__init__android_os_Parcel_parcel_LambdaImpl0'
p53
sg15
(lp54
sg17
(lp55
sg19
(lp56
sg21
I0
sba(iArchitecture
Entity
p57
(dp58
g11
(lp59
sg13
S'android.print.PrinterCapabilitiesInfo$_void__init__android_os_Parcel_parcel_LambdaImpl1'
p60
sg15
(lp61
sg17
(lp62
sg19
(lp63
sg21
I0
sbasS'classes'
p64
(lp65
g14
ag25
ag32
ag39
ag46
ag53
ag60
asg21
I0
sS'label'
p66
S'1134'
p67
sba(iArchitecture
Cluster
p68
(dp69
g7
(lp70
(iArchitecture
Entity
p71
(dp72
g11
(lp73
sg13
S'android.location.GpsSatellite'
p74
sg15
(lp75
sg17
(lp76
sg19
(lp77
sg21
I0
sbasg64
(lp78
g74
asg21
I0
sg66
S'134'
p79
sba(iArchitecture
Cluster
p80
(dp81
g7
(lp82
(iArchitecture
Entity
p83
(dp84
g11
(lp85
sg13
S'android.net.wifi.p2p.WifiP2pProvDiscEvent'
p86
sg15
(lp87
sg17
(lp88
sg19
(lp89
sg21
I0
sba(iArchitecture
Entity
p90
(dp91
g11
(lp92
sg13
S'android.net.wifi.p2p.nsd.WifiP2pDnsSdServiceResponse'
p93
sg15
(lp94
sg17
(lp95
sg19
(lp96
sg21
I0
sba(iArchitecture
Entity
p97
(dp98
g11
(lp99
sg13
S'android.net.wifi.p2p.nsd.WifiP2pServiceResponse'
p100
sg15
(lp101
sg17
(lp102
sg19
(lp103
sg21
I0
sba(iArchitecture
Entity
p104
(dp105
g11
(lp106
sg13
S'android.net.wifi.p2p.nsd.WifiP2pServiceResponse$1'
p107
sg15
(lp108
sg17
(lp109
sg19
(lp110
sg21
I0
sba(iArchitecture
Entity
p111
(dp112
g11
(lp113
sg13
S'android.net.wifi.p2p.nsd.WifiP2pServiceResponse$Status'
p114
sg15
(lp115
sg17
(lp116
sg19
(lp117
sg21
I0
sba(iArchitecture
Entity
p118
(dp119
g11
(lp120
sg13
S'android.net.wifi.p2p.nsd.WifiP2pUpnpServiceResponse'
p121
sg15
(lp122
sg17
(lp123
sg19
(lp124
sg21
I0
sba(iArchitecture
Entity
p125
(dp126
g11
(lp127
sg13
S'android.os.ParcelUuid'
p128
sg15
(lp129
sg17
(lp130
sg19
(lp131
sg21
I0
sba(iArchitecture
Entity
p132
(dp133
g11
(lp134
sg13
S'android.os.ParcelUuid$1'
p135
sg15
(lp136
sg17
(lp137
sg19
(lp138
sg21
I0
sba(iArchitecture
Entity
p139
(dp140
g11
(lp141
sg13
S'android.webkit.ServiceWorkerController'
p142
sg15
(lp143
sg17
(lp144
sg19
(lp145
sg21
I0
sbasg64
(lp146
g86
ag93
ag100
ag107
ag114
ag121
ag128
ag135
ag142
asg21
I0
sg66
S'1340'
p147
sba(iArchitecture
Cluster
p148
(dp149
g7
(lp150
(iArchitecture
Entity
p151
(dp152
g11
(lp153
sg13
S'android.content.SyncAdapterType'
p154
sg15
(lp155
sg17
(lp156
sg19
(lp157
sg21
I0
sba(iArchitecture
Entity
p158
(dp159
g11
(lp160
sg13
S'android.content.SyncAdapterType$1'
p161
sg15
(lp162
sg17
(lp163
sg19
(lp164
sg21
I0
sba(iArchitecture
Entity
p165
(dp166
g11
(lp167
sg13
S'android.content.SyncAdaptersCache'
p168
sg15
(lp169
sg17
(lp170
sg19
(lp171
sg21
I0
sba(iArchitecture
Entity
p172
(dp173
g11
(lp174
sg13
S'android.content.SyncAdaptersCache$MySerializer'
p175
sg15
(lp176
sg17
(lp177
sg19
(lp178
sg21
I0
sbasg64
(lp179
g154
ag161
ag168
ag175
asg21
I0
sg66
S'1341'
p180
sba(iArchitecture
Cluster
p181
(dp182
g7
(lp183
(iArchitecture
Entity
p184
(dp185
g11
(lp186
sg13
S'android.hardware.camera2.marshal.impl.MarshalQueryableHighSpeedVideoConfiguration'
p187
sg15
(lp188
sg17
(lp189
sg19
(lp190
sg21
I0
sba(iArchitecture
Entity
p191
(dp192
g11
(lp193
sg13
S'android.hardware.camera2.marshal.impl.MarshalQueryableHighSpeedVideoConfiguration$MarshalerHighSpeedVideoConfiguration'
p194
sg15
(lp195
sg17
(lp196
sg19
(lp197
sg21
I0
sba(iArchitecture
Entity
p198
(dp199
g11
(lp200
sg13
S'android.hardware.camera2.params.HighSpeedVideoConfiguration'
p201
sg15
(lp202
sg17
(lp203
sg19
(lp204
sg21
I0
sbasg64
(lp205
g187
ag194
ag201
asg21
I0
sg66
S'1342'
p206
sba(iArchitecture
Cluster
p207
(dp208
g7
(lp209
(iArchitecture
Entity
p210
(dp211
g11
(lp212
sg13
S'com.android.server.audio.FocusRequester'
p213
sg15
(lp214
sg17
(lp215
sg19
(lp216
sg21
I0
sba(iArchitecture
Entity
p217
(dp218
g11
(lp219
sg13
S'com.android.server.audio.MediaFocusControl'
p220
sg15
(lp221
sg17
(lp222
sg19
(lp223
sg21
I0
sba(iArchitecture
Entity
p224
(dp225
g11
(lp226
sg13
S'com.android.server.audio.MediaFocusControl$1'
p227
sg15
(lp228
sg17
(lp229
sg19
(lp230
sg21
I0
sba(iArchitecture
Entity
p231
(dp232
g11
(lp233
sg13
S'com.android.server.audio.MediaFocusControl$AudioFocusDeathHandler'
p234
sg15
(lp235
sg17
(lp236
sg19
(lp237
sg21
I0
sbasg64
(lp238
g213
ag220
ag227
ag234
asg21
I0
sg66
S'1343'
p239
sba(iArchitecture
Cluster
p240
(dp241
g7
(lp242
(iArchitecture
Entity
p243
(dp244
g11
(lp245
sg13
S'android.graphics.Shader'
p246
sg15
(lp247
sg17
(lp248
sg19
(lp249
sg21
I0
sba(iArchitecture
Entity
p250
(dp251
g11
(lp252
sg13
S'android.graphics.Shader$TileMode'
p253
sg15
(lp254
sg17
(lp255
sg19
(lp256
sg21
I0
sba(iArchitecture
Entity
p257
(dp258
g11
(lp259
sg13
S'com.android.internal.util.UserIcons'
p260
sg15
(lp261
sg17
(lp262
sg19
(lp263
sg21
I0
sbasg64
(lp264
g246
ag253
ag260
asg21
I0
sg66
S'1344'
p265
sba(iArchitecture
Cluster
p266
(dp267
g7
(lp268
(iArchitecture
Entity
p269
(dp270
g11
(lp271
sg13
S'android.media.audiopolicy.AudioMix'
p272
sg15
(lp273
sg17
(lp274
sg19
(lp275
sg21
I0
sba(iArchitecture
Entity
p276
(dp277
g11
(lp278
sg13
S'android.media.audiopolicy.AudioMix$Builder'
p279
sg15
(lp280
sg17
(lp281
sg19
(lp282
sg21
I0
sba(iArchitecture
Entity
p283
(dp284
g11
(lp285
sg13
S'android.media.audiopolicy.AudioPolicyConfig'
p286
sg15
(lp287
sg17
(lp288
sg19
(lp289
sg21
I0
sba(iArchitecture
Entity
p290
(dp291
g11
(lp292
sg13
S'android.media.audiopolicy.AudioPolicyConfig$1'
p293
sg15
(lp294
sg17
(lp295
sg19
(lp296
sg21
I0
sbasg64
(lp297
g272
ag279
ag286
ag293
asg21
I0
sg66
S'1345'
p298
sba(iArchitecture
Cluster
p299
(dp300
g7
(lp301
(iArchitecture
Entity
p302
(dp303
g11
(lp304
sg13
S'android.transition.CircularPropagation'
p305
sg15
(lp306
sg17
(lp307
sg19
(lp308
sg21
I0
sba(iArchitecture
Entity
p309
(dp310
g11
(lp311
sg13
S'android.transition.Explode'
p312
sg15
(lp313
sg17
(lp314
sg19
(lp315
sg21
I0
sba(iArchitecture
Entity
p316
(dp317
g11
(lp318
sg13
S'android.transition.SidePropagation'
p319
sg15
(lp320
sg17
(lp321
sg19
(lp322
sg21
I0
sbasg64
(lp323
g305
ag312
ag319
asg21
I0
sg66
S'1346'
p324
sba(iArchitecture
Cluster
p325
(dp326
g7
(lp327
(iArchitecture
Entity
p328
(dp329
g11
(lp330
sg13
S'android.telephony.CellIdentityGsm'
p331
sg15
(lp332
sg17
(lp333
sg19
(lp334
sg21
I0
sba(iArchitecture
Entity
p335
(dp336
g11
(lp337
sg13
S'android.telephony.CellIdentityGsm$1'
p338
sg15
(lp339
sg17
(lp340
sg19
(lp341
sg21
I0
sba(iArchitecture
Entity
p342
(dp343
g11
(lp344
sg13
S'android.telephony.CellIdentityWcdma'
p345
sg15
(lp346
sg17
(lp347
sg19
(lp348
sg21
I0
sba(iArchitecture
Entity
p349
(dp350
g11
(lp351
sg13
S'android.telephony.CellIdentityWcdma$1'
p352
sg15
(lp353
sg17
(lp354
sg19
(lp355
sg21
I0
sbasg64
(lp356
g331
ag338
ag345
ag352
asg21
I0
sg66
S'1347'
p357
sba(iArchitecture
Cluster
p358
(dp359
g7
(lp360
(iArchitecture
Entity
p361
(dp362
g11
(lp363
sg13
S'android.view.animation.Animation'
p364
sg15
(lp365
sg17
(lp366
sg19
(lp367
sg21
I0
sba(iArchitecture
Entity
p368
(dp369
g11
(lp370
sg13
S'android.view.animation.Animation$1'
p371
sg15
(lp372
sg17
(lp373
sg19
(lp374
sg21
I0
sba(iArchitecture
Entity
p375
(dp376
g11
(lp377
sg13
S'android.view.animation.Animation$2'
p378
sg15
(lp379
sg17
(lp380
sg19
(lp381
sg21
I0
sba(iArchitecture
Entity
p382
(dp383
g11
(lp384
sg13
S'android.view.animation.Animation$3'
p385
sg15
(lp386
sg17
(lp387
sg19
(lp388
sg21
I0
sba(iArchitecture
Entity
p389
(dp390
g11
(lp391
sg13
S'android.view.animation.Animation$AnimationListener'
p392
sg15
(lp393
sg17
(lp394
sg19
(lp395
sg21
I0
sba(iArchitecture
Entity
p396
(dp397
g11
(lp398
sg13
S'android.view.animation.Animation$Description'
p399
sg15
(lp400
sg17
(lp401
sg19
(lp402
sg21
I0
sba(iArchitecture
Entity
p403
(dp404
g11
(lp405
sg13
S'android.view.animation.Animation$NoImagePreloadHolder'
p406
sg15
(lp407
sg17
(lp408
sg19
(lp409
sg21
I0
sba(iArchitecture
Entity
p410
(dp411
g11
(lp412
sg13
S'android.view.animation.AnimationSet'
p413
sg15
(lp414
sg17
(lp415
sg19
(lp416
sg21
I0
sbasg64
(lp417
g364
ag371
ag378
ag385
ag392
ag399
ag406
ag413
asg21
I0
sg66
S'1348'
p418
sba(iArchitecture
Cluster
p419
(dp420
g7
(lp421
(iArchitecture
Entity
p422
(dp423
g11
(lp424
sg13
S'com.android.server.job.controllers.DeviceIdleJobsController'
p425
sg15
(lp426
sg17
(lp427
sg19
(lp428
sg21
I0
sba(iArchitecture
Entity
p429
(dp430
g11
(lp431
sg13
S'com.android.server.job.controllers.DeviceIdleJobsController$1'
p432
sg15
(lp433
sg17
(lp434
sg19
(lp435
sg21
I0
sba(iArchitecture
Entity
p436
(dp437
g11
(lp438
sg13
S'com.android.server.job.controllers.DeviceIdleJobsController$2'
p439
sg15
(lp440
sg17
(lp441
sg19
(lp442
sg21
I0
sba(iArchitecture
Entity
p443
(dp444
g11
(lp445
sg13
S'com.android.server.job.controllers.DeviceIdleJobsController$3'
p446
sg15
(lp447
sg17
(lp448
sg19
(lp449
sg21
I0
sba(iArchitecture
Entity
p450
(dp451
g11
(lp452
sg13
S'com.android.server.job.controllers.IdleController'
p453
sg15
(lp454
sg17
(lp455
sg19
(lp456
sg21
I0
sba(iArchitecture
Entity
p457
(dp458
g11
(lp459
sg13
S'com.android.server.job.controllers.IdleController$IdlenessTracker'
p460
sg15
(lp461
sg17
(lp462
sg19
(lp463
sg21
I0
sbasg64
(lp464
g425
ag432
ag439
ag446
ag453
ag460
asg21
I0
sg66
S'1349'
p465
sbasS'target_sub'
p466
S'134'
p467
sg64
(lp468
sS'is_component_arch'
p469
I01
sg66
S'7.0.0_r1'
p470
sba.