(lp0
(iArchitecture
Architecture
p1
(dp2
S'clusters'
p3
(lp4
(iArchitecture
Cluster
p5
(dp6
S'entities'
p7
(lp8
(iArchitecture
Entity
p9
(dp10
S'issue_ids'
p11
(lp12
sS'name'
p13
S'com.android.server.display.OverlayDisplayWindow'
p14
sS'descs'
p15
(lp16
sS'labels'
p17
(lp18
sS'titles'
p19
(lp20
sS'change'
p21
I0
sba(iArchitecture
Entity
p22
(dp23
g11
(lp24
sg13
S'com.android.server.display.OverlayDisplayWindow$1'
p25
sg15
(lp26
sg17
(lp27
sg19
(lp28
sg21
I0
sba(iArchitecture
Entity
p29
(dp30
g11
(lp31
sg13
S'com.android.server.display.OverlayDisplayWindow$2'
p32
sg15
(lp33
sg17
(lp34
sg19
(lp35
sg21
I0
sba(iArchitecture
Entity
p36
(dp37
g11
(lp38
sg13
S'com.android.server.display.OverlayDisplayWindow$3'
p39
sg15
(lp40
sg17
(lp41
sg19
(lp42
sg21
I0
sba(iArchitecture
Entity
p43
(dp44
g11
(lp45
sg13
S'com.android.server.display.OverlayDisplayWindow$4'
p46
sg15
(lp47
sg17
(lp48
sg19
(lp49
sg21
I0
sba(iArchitecture
Entity
p50
(dp51
g11
(lp52
sg13
S'com.android.server.display.OverlayDisplayWindow$5'
p53
sg15
(lp54
sg17
(lp55
sg19
(lp56
sg21
I0
sba(iArchitecture
Entity
p57
(dp58
g11
(lp59
sg13
S'com.android.server.display.OverlayDisplayWindow$Listener'
p60
sg15
(lp61
sg17
(lp62
sg19
(lp63
sg21
I0
sbasS'classes'
p64
(lp65
g14
ag25
ag32
ag39
ag46
ag53
ag60
asg21
I0
sS'label'
p66
S'1117'
p67
sba(iArchitecture
Cluster
p68
(dp69
g7
(lp70
(iArchitecture
Entity
p71
(dp72
g11
(lp73
sg13
S'com.android.server.location.GpsXtraDownloader'
p74
sg15
(lp75
sg17
(lp76
sg19
(lp77
sg21
I0
sbasg64
(lp78
g74
asg21
I0
sg66
S'117'
p79
sba(iArchitecture
Cluster
p80
(dp81
g7
(lp82
(iArchitecture
Entity
p83
(dp84
g11
(lp85
sg13
S'android.view.textservice.SpellCheckerSession'
p86
sg15
(lp87
sg17
(lp88
sg19
(lp89
sg21
I0
sba(iArchitecture
Entity
p90
(dp91
g11
(lp92
sg13
S'android.view.textservice.SpellCheckerSession$1'
p93
sg15
(lp94
sg17
(lp95
sg19
(lp96
sg21
I0
sba(iArchitecture
Entity
p97
(dp98
g11
(lp99
sg13
S'android.view.textservice.SpellCheckerSession$InternalListener'
p100
sg15
(lp101
sg17
(lp102
sg19
(lp103
sg21
I0
sba(iArchitecture
Entity
p104
(dp105
g11
(lp106
sg13
S'android.view.textservice.SpellCheckerSession$SpellCheckerSessionListener'
p107
sg15
(lp108
sg17
(lp109
sg19
(lp110
sg21
I0
sba(iArchitecture
Entity
p111
(dp112
g11
(lp113
sg13
S'android.view.textservice.SpellCheckerSession$SpellCheckerSessionListenerImpl'
p114
sg15
(lp115
sg17
(lp116
sg19
(lp117
sg21
I0
sba(iArchitecture
Entity
p118
(dp119
g11
(lp120
sg13
S'android.view.textservice.SpellCheckerSession$SpellCheckerSessionListenerImpl$1'
p121
sg15
(lp122
sg17
(lp123
sg19
(lp124
sg21
I0
sba(iArchitecture
Entity
p125
(dp126
g11
(lp127
sg13
S'android.view.textservice.SpellCheckerSession$SpellCheckerSessionListenerImpl$SpellCheckerParams'
p128
sg15
(lp129
sg17
(lp130
sg19
(lp131
sg21
I0
sbasg64
(lp132
g86
ag93
ag100
ag107
ag114
ag121
ag128
asg21
I0
sg66
S'1170'
p133
sba(iArchitecture
Cluster
p134
(dp135
g7
(lp136
(iArchitecture
Entity
p137
(dp138
g11
(lp139
sg13
S'android.animation.PathKeyframes'
p140
sg15
(lp141
sg17
(lp142
sg19
(lp143
sg21
I0
sba(iArchitecture
Entity
p144
(dp145
g11
(lp146
sg13
S'android.animation.PathKeyframes$1'
p147
sg15
(lp148
sg17
(lp149
sg19
(lp150
sg21
I0
sba(iArchitecture
Entity
p151
(dp152
g11
(lp153
sg13
S'android.animation.PathKeyframes$2'
p154
sg15
(lp155
sg17
(lp156
sg19
(lp157
sg21
I0
sba(iArchitecture
Entity
p158
(dp159
g11
(lp160
sg13
S'android.animation.PathKeyframes$3'
p161
sg15
(lp162
sg17
(lp163
sg19
(lp164
sg21
I0
sba(iArchitecture
Entity
p165
(dp166
g11
(lp167
sg13
S'android.animation.PathKeyframes$4'
p168
sg15
(lp169
sg17
(lp170
sg19
(lp171
sg21
I0
sba(iArchitecture
Entity
p172
(dp173
g11
(lp174
sg13
S'android.animation.PathKeyframes$FloatKeyframesBase'
p175
sg15
(lp176
sg17
(lp177
sg19
(lp178
sg21
I0
sba(iArchitecture
Entity
p179
(dp180
g11
(lp181
sg13
S'android.animation.PathKeyframes$IntKeyframesBase'
p182
sg15
(lp183
sg17
(lp184
sg19
(lp185
sg21
I0
sba(iArchitecture
Entity
p186
(dp187
g11
(lp188
sg13
S'android.animation.PathKeyframes$SimpleKeyframes'
p189
sg15
(lp190
sg17
(lp191
sg19
(lp192
sg21
I0
sbasg64
(lp193
g140
ag147
ag154
ag161
ag168
ag175
ag182
ag189
asg21
I0
sg66
S'1171'
p194
sba(iArchitecture
Cluster
p195
(dp196
g7
(lp197
(iArchitecture
Entity
p198
(dp199
g11
(lp200
sg13
S'com.android.server.location.GnssStatusListenerHelper'
p201
sg15
(lp202
sg17
(lp203
sg19
(lp204
sg21
I0
sba(iArchitecture
Entity
p205
(dp206
g11
(lp207
sg13
S'com.android.server.location.GnssStatusListenerHelper$1'
p208
sg15
(lp209
sg17
(lp210
sg19
(lp211
sg21
I0
sba(iArchitecture
Entity
p212
(dp213
g11
(lp214
sg13
S'com.android.server.location.GnssStatusListenerHelper$2'
p215
sg15
(lp216
sg17
(lp217
sg19
(lp218
sg21
I0
sba(iArchitecture
Entity
p219
(dp220
g11
(lp221
sg13
S'com.android.server.location.GnssStatusListenerHelper$3'
p222
sg15
(lp223
sg17
(lp224
sg19
(lp225
sg21
I0
sba(iArchitecture
Entity
p226
(dp227
g11
(lp228
sg13
S'com.android.server.location.GnssStatusListenerHelper$4'
p229
sg15
(lp230
sg17
(lp231
sg19
(lp232
sg21
I0
sba(iArchitecture
Entity
p233
(dp234
g11
(lp235
sg13
S'com.android.server.location.GnssStatusListenerHelper$5'
p236
sg15
(lp237
sg17
(lp238
sg19
(lp239
sg21
I0
sba(iArchitecture
Entity
p240
(dp241
g11
(lp242
sg13
S'com.android.server.location.GnssStatusListenerHelper$Operation'
p243
sg15
(lp244
sg17
(lp245
sg19
(lp246
sg21
I0
sbasg64
(lp247
g201
ag208
ag215
ag222
ag229
ag236
ag243
asg21
I0
sg66
S'1172'
p248
sba(iArchitecture
Cluster
p249
(dp250
g7
(lp251
(iArchitecture
Entity
p252
(dp253
g11
(lp254
sg13
S'android.graphics.Paint'
p255
sg15
(lp256
sg17
(lp257
sg19
(lp258
sg21
I0
sba(iArchitecture
Entity
p259
(dp260
g11
(lp261
sg13
S'android.graphics.Paint$Align'
p262
sg15
(lp263
sg17
(lp264
sg19
(lp265
sg21
I0
sba(iArchitecture
Entity
p266
(dp267
g11
(lp268
sg13
S'android.graphics.Paint$Cap'
p269
sg15
(lp270
sg17
(lp271
sg19
(lp272
sg21
I0
sba(iArchitecture
Entity
p273
(dp274
g11
(lp275
sg13
S'android.graphics.Paint$FontMetrics'
p276
sg15
(lp277
sg17
(lp278
sg19
(lp279
sg21
I0
sba(iArchitecture
Entity
p280
(dp281
g11
(lp282
sg13
S'android.graphics.Paint$FontMetricsInt'
p283
sg15
(lp284
sg17
(lp285
sg19
(lp286
sg21
I0
sba(iArchitecture
Entity
p287
(dp288
g11
(lp289
sg13
S'android.graphics.Paint$Join'
p290
sg15
(lp291
sg17
(lp292
sg19
(lp293
sg21
I0
sba(iArchitecture
Entity
p294
(dp295
g11
(lp296
sg13
S'android.graphics.Paint$NoImagePreloadHolder'
p297
sg15
(lp298
sg17
(lp299
sg19
(lp300
sg21
I0
sba(iArchitecture
Entity
p301
(dp302
g11
(lp303
sg13
S'android.graphics.Paint$Style'
p304
sg15
(lp305
sg17
(lp306
sg19
(lp307
sg21
I0
sbasg64
(lp308
g255
ag262
ag269
ag276
ag283
ag290
ag297
ag304
asg21
I0
sg66
S'1173'
p309
sba(iArchitecture
Cluster
p310
(dp311
g7
(lp312
(iArchitecture
Entity
p313
(dp314
g11
(lp315
sg13
S'android.app.SharedPreferencesImpl'
p316
sg15
(lp317
sg17
(lp318
sg19
(lp319
sg21
I0
sba(iArchitecture
Entity
p320
(dp321
g11
(lp322
sg13
S'android.app.SharedPreferencesImpl$1'
p323
sg15
(lp324
sg17
(lp325
sg19
(lp326
sg21
I0
sba(iArchitecture
Entity
p327
(dp328
g11
(lp329
sg13
S'android.app.SharedPreferencesImpl$2'
p330
sg15
(lp331
sg17
(lp332
sg19
(lp333
sg21
I0
sba(iArchitecture
Entity
p334
(dp335
g11
(lp336
sg13
S'android.app.SharedPreferencesImpl$EditorImpl'
p337
sg15
(lp338
sg17
(lp339
sg19
(lp340
sg21
I0
sba(iArchitecture
Entity
p341
(dp342
g11
(lp343
sg13
S'android.app.SharedPreferencesImpl$EditorImpl$1'
p344
sg15
(lp345
sg17
(lp346
sg19
(lp347
sg21
I0
sba(iArchitecture
Entity
p348
(dp349
g11
(lp350
sg13
S'android.app.SharedPreferencesImpl$EditorImpl$2'
p351
sg15
(lp352
sg17
(lp353
sg19
(lp354
sg21
I0
sba(iArchitecture
Entity
p355
(dp356
g11
(lp357
sg13
S'android.app.SharedPreferencesImpl$EditorImpl$3'
p358
sg15
(lp359
sg17
(lp360
sg19
(lp361
sg21
I0
sba(iArchitecture
Entity
p362
(dp363
g11
(lp364
sg13
S'android.app.SharedPreferencesImpl$MemoryCommitResult'
p365
sg15
(lp366
sg17
(lp367
sg19
(lp368
sg21
I0
sbasg64
(lp369
g316
ag323
ag330
ag337
ag344
ag351
ag358
ag365
asg21
I0
sg66
S'1174'
p370
sba(iArchitecture
Cluster
p371
(dp372
g7
(lp373
(iArchitecture
Entity
p374
(dp375
g11
(lp376
sg13
S'android.media.tv.TvContract'
p377
sg15
(lp378
sg17
(lp379
sg19
(lp380
sg21
I0
sba(iArchitecture
Entity
p381
(dp382
g11
(lp383
sg13
S'android.media.tv.TvContract$BaseTvColumns'
p384
sg15
(lp385
sg17
(lp386
sg19
(lp387
sg21
I0
sba(iArchitecture
Entity
p388
(dp389
g11
(lp390
sg13
S'android.media.tv.TvContract$Channels'
p391
sg15
(lp392
sg17
(lp393
sg19
(lp394
sg21
I0
sba(iArchitecture
Entity
p395
(dp396
g11
(lp397
sg13
S'android.media.tv.TvContract$Channels$Logo'
p398
sg15
(lp399
sg17
(lp400
sg19
(lp401
sg21
I0
sba(iArchitecture
Entity
p402
(dp403
g11
(lp404
sg13
S'android.media.tv.TvContract$Programs'
p405
sg15
(lp406
sg17
(lp407
sg19
(lp408
sg21
I0
sba(iArchitecture
Entity
p409
(dp410
g11
(lp411
sg13
S'android.media.tv.TvContract$Programs$Genres'
p412
sg15
(lp413
sg17
(lp414
sg19
(lp415
sg21
I0
sba(iArchitecture
Entity
p416
(dp417
g11
(lp418
sg13
S'android.media.tv.TvContract$RecordedPrograms'
p419
sg15
(lp420
sg17
(lp421
sg19
(lp422
sg21
I0
sba(iArchitecture
Entity
p423
(dp424
g11
(lp425
sg13
S'android.media.tv.TvContract$WatchedPrograms'
p426
sg15
(lp427
sg17
(lp428
sg19
(lp429
sg21
I0
sbasg64
(lp430
g377
ag384
ag391
ag398
ag405
ag412
ag419
ag426
asg21
I0
sg66
S'1175'
p431
sba(iArchitecture
Cluster
p432
(dp433
g7
(lp434
(iArchitecture
Entity
p435
(dp436
g11
(lp437
sg13
S'com.android.server.media.MediaRouterService'
p438
sg15
(lp439
sg17
(lp440
sg19
(lp441
sg21
I0
sba(iArchitecture
Entity
p442
(dp443
g11
(lp444
sg13
S'com.android.server.media.MediaRouterService$1'
p445
sg15
(lp446
sg17
(lp447
sg19
(lp448
sg21
I0
sba(iArchitecture
Entity
p449
(dp450
g11
(lp451
sg13
S'com.android.server.media.MediaRouterService$ClientRecord'
p452
sg15
(lp453
sg17
(lp454
sg19
(lp455
sg21
I0
sba(iArchitecture
Entity
p456
(dp457
g11
(lp458
sg13
S'com.android.server.media.MediaRouterService$UserHandler'
p459
sg15
(lp460
sg17
(lp461
sg19
(lp462
sg21
I0
sba(iArchitecture
Entity
p463
(dp464
g11
(lp465
sg13
S'com.android.server.media.MediaRouterService$UserHandler$ProviderRecord'
p466
sg15
(lp467
sg17
(lp468
sg19
(lp469
sg21
I0
sba(iArchitecture
Entity
p470
(dp471
g11
(lp472
sg13
S'com.android.server.media.MediaRouterService$UserHandler$RouteRecord'
p473
sg15
(lp474
sg17
(lp475
sg19
(lp476
sg21
I0
sba(iArchitecture
Entity
p477
(dp478
g11
(lp479
sg13
S'com.android.server.media.MediaRouterService$UserRecord'
p480
sg15
(lp481
sg17
(lp482
sg19
(lp483
sg21
I0
sba(iArchitecture
Entity
p484
(dp485
g11
(lp486
sg13
S'com.android.server.media.MediaRouterService$UserRecord$1'
p487
sg15
(lp488
sg17
(lp489
sg19
(lp490
sg21
I0
sbasg64
(lp491
g438
ag445
ag452
ag459
ag466
ag473
ag480
ag487
asg21
I0
sg66
S'1176'
p492
sba(iArchitecture
Cluster
p493
(dp494
g7
(lp495
(iArchitecture
Entity
p496
(dp497
g11
(lp498
sg13
S'com.android.server.twilight.TwilightService'
p499
sg15
(lp500
sg17
(lp501
sg19
(lp502
sg21
I0
sba(iArchitecture
Entity
p503
(dp504
g11
(lp505
sg13
S'com.android.server.twilight.TwilightService$1'
p506
sg15
(lp507
sg17
(lp508
sg19
(lp509
sg21
I0
sba(iArchitecture
Entity
p510
(dp511
g11
(lp512
sg13
S'com.android.server.twilight.TwilightService$2'
p513
sg15
(lp514
sg17
(lp515
sg19
(lp516
sg21
I0
sba(iArchitecture
Entity
p517
(dp518
g11
(lp519
sg13
S'com.android.server.twilight.TwilightService$3'
p520
sg15
(lp521
sg17
(lp522
sg19
(lp523
sg21
I0
sba(iArchitecture
Entity
p524
(dp525
g11
(lp526
sg13
S'com.android.server.twilight.TwilightService$4'
p527
sg15
(lp528
sg17
(lp529
sg19
(lp530
sg21
I0
sba(iArchitecture
Entity
p531
(dp532
g11
(lp533
sg13
S'com.android.server.twilight.TwilightService$5'
p534
sg15
(lp535
sg17
(lp536
sg19
(lp537
sg21
I0
sba(iArchitecture
Entity
p538
(dp539
g11
(lp540
sg13
S'com.android.server.twilight.TwilightService$LocationHandler'
p541
sg15
(lp542
sg17
(lp543
sg19
(lp544
sg21
I0
sba(iArchitecture
Entity
p545
(dp546
g11
(lp547
sg13
S'com.android.server.twilight.TwilightService$TwilightListenerRecord'
p548
sg15
(lp549
sg17
(lp550
sg19
(lp551
sg21
I0
sbasg64
(lp552
g499
ag506
ag513
ag520
ag527
ag534
ag541
ag548
asg21
I0
sg66
S'1177'
p553
sba(iArchitecture
Cluster
p554
(dp555
g7
(lp556
(iArchitecture
Entity
p557
(dp558
g11
(lp559
sg13
S'com.android.server.policy.keyguard.KeyguardServiceDelegate'
p560
sg15
(lp561
sg17
(lp562
sg19
(lp563
sg21
I0
sba(iArchitecture
Entity
p564
(dp565
g11
(lp566
sg13
S'com.android.server.policy.keyguard.KeyguardServiceDelegate$1'
p567
sg15
(lp568
sg17
(lp569
sg19
(lp570
sg21
I0
sba(iArchitecture
Entity
p571
(dp572
g11
(lp573
sg13
S'com.android.server.policy.keyguard.KeyguardServiceDelegate$2'
p574
sg15
(lp575
sg17
(lp576
sg19
(lp577
sg21
I0
sba(iArchitecture
Entity
p578
(dp579
g11
(lp580
sg13
S'com.android.server.policy.keyguard.KeyguardServiceDelegate$3'
p581
sg15
(lp582
sg17
(lp583
sg19
(lp584
sg21
I0
sba(iArchitecture
Entity
p585
(dp586
g11
(lp587
sg13
S'com.android.server.policy.keyguard.KeyguardServiceDelegate$4'
p588
sg15
(lp589
sg17
(lp590
sg19
(lp591
sg21
I0
sba(iArchitecture
Entity
p592
(dp593
g11
(lp594
sg13
S'com.android.server.policy.keyguard.KeyguardServiceDelegate$DrawnListener'
p595
sg15
(lp596
sg17
(lp597
sg19
(lp598
sg21
I0
sba(iArchitecture
Entity
p599
(dp600
g11
(lp601
sg13
S'com.android.server.policy.keyguard.KeyguardServiceDelegate$KeyguardExitDelegate'
p602
sg15
(lp603
sg17
(lp604
sg19
(lp605
sg21
I0
sba(iArchitecture
Entity
p606
(dp607
g11
(lp608
sg13
S'com.android.server.policy.keyguard.KeyguardServiceDelegate$KeyguardShowDelegate'
p609
sg15
(lp610
sg17
(lp611
sg19
(lp612
sg21
I0
sba(iArchitecture
Entity
p613
(dp614
g11
(lp615
sg13
S'com.android.server.policy.keyguard.KeyguardServiceDelegate$KeyguardState'
p616
sg15
(lp617
sg17
(lp618
sg19
(lp619
sg21
I0
sbasg64
(lp620
g560
ag567
ag574
ag581
ag588
ag595
ag602
ag609
ag616
asg21
I0
sg66
S'1178'
p621
sba(iArchitecture
Cluster
p622
(dp623
g7
(lp624
(iArchitecture
Entity
p625
(dp626
g11
(lp627
sg13
S'com.android.server.notification.NotificationUsageStats'
p628
sg15
(lp629
sg17
(lp630
sg19
(lp631
sg21
I0
sba(iArchitecture
Entity
p632
(dp633
g11
(lp634
sg13
S'com.android.server.notification.NotificationUsageStats$1'
p635
sg15
(lp636
sg17
(lp637
sg19
(lp638
sg21
I0
sba(iArchitecture
Entity
p639
(dp640
g11
(lp641
sg13
S'com.android.server.notification.NotificationUsageStats$Aggregate'
p642
sg15
(lp643
sg17
(lp644
sg19
(lp645
sg21
I0
sba(iArchitecture
Entity
p646
(dp647
g11
(lp648
sg13
S'com.android.server.notification.NotificationUsageStats$AggregatedStats'
p649
sg15
(lp650
sg17
(lp651
sg19
(lp652
sg21
I0
sba(iArchitecture
Entity
p653
(dp654
g11
(lp655
sg13
S'com.android.server.notification.NotificationUsageStats$ImportanceHistogram'
p656
sg15
(lp657
sg17
(lp658
sg19
(lp659
sg21
I0
sba(iArchitecture
Entity
p660
(dp661
g11
(lp662
sg13
S'com.android.server.notification.NotificationUsageStats$SQLiteLog'
p663
sg15
(lp664
sg17
(lp665
sg19
(lp666
sg21
I0
sba(iArchitecture
Entity
p667
(dp668
g11
(lp669
sg13
S'com.android.server.notification.NotificationUsageStats$SQLiteLog$1'
p670
sg15
(lp671
sg17
(lp672
sg19
(lp673
sg21
I0
sba(iArchitecture
Entity
p674
(dp675
g11
(lp676
sg13
S'com.android.server.notification.NotificationUsageStats$SQLiteLog$2'
p677
sg15
(lp678
sg17
(lp679
sg19
(lp680
sg21
I0
sba(iArchitecture
Entity
p681
(dp682
g11
(lp683
sg13
S'com.android.server.notification.NotificationUsageStats$SingleNotificationStats'
p684
sg15
(lp685
sg17
(lp686
sg19
(lp687
sg21
I0
sbasg64
(lp688
g628
ag635
ag642
ag649
ag656
ag663
ag670
ag677
ag684
asg21
I0
sg66
S'1179'
p689
sbasS'target_sub'
p690
S'117'
p691
sg64
(lp692
sS'is_component_arch'
p693
I01
sg66
S'7.0.0_r1'
p694
sba.