(lp0
(iArchitecture
Architecture
p1
(dp2
S'clusters'
p3
(lp4
(iArchitecture
Cluster
p5
(dp6
S'entities'
p7
(lp8
(iArchitecture
Entity
p9
(dp10
S'issue_ids'
p11
(lp12
sS'name'
p13
S'com.android.server.accounts.TokenCache'
p14
sS'descs'
p15
(lp16
sS'labels'
p17
(lp18
sS'titles'
p19
(lp20
sS'change'
p21
I0
sba(iArchitecture
Entity
p22
(dp23
g11
(lp24
sg13
S'com.android.server.accounts.TokenCache$Key'
p25
sg15
(lp26
sg17
(lp27
sg19
(lp28
sg21
I0
sba(iArchitecture
Entity
p29
(dp30
g11
(lp31
sg13
S'com.android.server.accounts.TokenCache$TokenLruCache'
p32
sg15
(lp33
sg17
(lp34
sg19
(lp35
sg21
I0
sba(iArchitecture
Entity
p36
(dp37
g11
(lp38
sg13
S'com.android.server.accounts.TokenCache$TokenLruCache$Evictor'
p39
sg15
(lp40
sg17
(lp41
sg19
(lp42
sg21
I0
sba(iArchitecture
Entity
p43
(dp44
g11
(lp45
sg13
S'com.android.server.accounts.TokenCache$Value'
p46
sg15
(lp47
sg17
(lp48
sg19
(lp49
sg21
I0
sbasS'classes'
p50
(lp51
g14
ag25
ag32
ag39
ag46
asg21
I0
sS'label'
p52
S'1064'
p53
sba(iArchitecture
Cluster
p54
(dp55
g7
(lp56
(iArchitecture
Entity
p57
(dp58
g11
(lp59
sg13
S'android.renderscript.Script'
p60
sg15
(lp61
sg17
(lp62
sg19
(lp63
sg21
I0
sba(iArchitecture
Entity
p64
(dp65
g11
(lp66
sg13
S'android.renderscript.Script$Builder'
p67
sg15
(lp68
sg17
(lp69
sg19
(lp70
sg21
I0
sba(iArchitecture
Entity
p71
(dp72
g11
(lp73
sg13
S'android.renderscript.Script$FieldBase'
p74
sg15
(lp75
sg17
(lp76
sg19
(lp77
sg21
I0
sba(iArchitecture
Entity
p78
(dp79
g11
(lp80
sg13
S'android.renderscript.Script$FieldID'
p81
sg15
(lp82
sg17
(lp83
sg19
(lp84
sg21
I0
sba(iArchitecture
Entity
p85
(dp86
g11
(lp87
sg13
S'android.renderscript.Script$InvokeID'
p88
sg15
(lp89
sg17
(lp90
sg19
(lp91
sg21
I0
sba(iArchitecture
Entity
p92
(dp93
g11
(lp94
sg13
S'android.renderscript.Script$KernelID'
p95
sg15
(lp96
sg17
(lp97
sg19
(lp98
sg21
I0
sba(iArchitecture
Entity
p99
(dp100
g11
(lp101
sg13
S'android.renderscript.Script$LaunchOptions'
p102
sg15
(lp103
sg17
(lp104
sg19
(lp105
sg21
I0
sbasg50
(lp106
g60
ag67
ag74
ag81
ag88
ag95
ag102
asg21
I0
sg52
S'1164'
p107
sba(iArchitecture
Cluster
p108
(dp109
g7
(lp110
(iArchitecture
Entity
p111
(dp112
g11
(lp113
sg13
S'android.text.PackedIntVector'
p114
sg15
(lp115
sg17
(lp116
sg19
(lp117
sg21
I0
sba(iArchitecture
Entity
p118
(dp119
g11
(lp120
sg13
S'android.text.PackedObjectVector'
p121
sg15
(lp122
sg17
(lp123
sg19
(lp124
sg21
I0
sbasg50
(lp125
g114
ag121
asg21
I0
sg52
S'1264'
p126
sba(iArchitecture
Cluster
p127
(dp128
g7
(lp129
(iArchitecture
Entity
p130
(dp131
g11
(lp132
sg13
S'android.text.method.MetaKeyKeyListener'
p133
sg15
(lp134
sg17
(lp135
sg19
(lp136
sg21
I0
sba(iArchitecture
Entity
p137
(dp138
g11
(lp139
sg13
S'android.view.KeyCharacterMap'
p140
sg15
(lp141
sg17
(lp142
sg19
(lp143
sg21
I0
sba(iArchitecture
Entity
p144
(dp145
g11
(lp146
sg13
S'android.view.KeyCharacterMap$1'
p147
sg15
(lp148
sg17
(lp149
sg19
(lp150
sg21
I0
sba(iArchitecture
Entity
p151
(dp152
g11
(lp153
sg13
S'android.view.KeyCharacterMap$FallbackAction'
p154
sg15
(lp155
sg17
(lp156
sg19
(lp157
sg21
I0
sba(iArchitecture
Entity
p158
(dp159
g11
(lp160
sg13
S'android.view.KeyCharacterMap$KeyData'
p161
sg15
(lp162
sg17
(lp163
sg19
(lp164
sg21
I0
sba(iArchitecture
Entity
p165
(dp166
g11
(lp167
sg13
S'android.view.KeyCharacterMap$UnavailableException'
p168
sg15
(lp169
sg17
(lp170
sg19
(lp171
sg21
I0
sba(iArchitecture
Entity
p172
(dp173
g11
(lp174
sg13
S'android.view.KeyEvent'
p175
sg15
(lp176
sg17
(lp177
sg19
(lp178
sg21
I0
sba(iArchitecture
Entity
p179
(dp180
g11
(lp181
sg13
S'android.view.KeyEvent$1'
p182
sg15
(lp183
sg17
(lp184
sg19
(lp185
sg21
I0
sba(iArchitecture
Entity
p186
(dp187
g11
(lp188
sg13
S'android.view.KeyEvent$Callback'
p189
sg15
(lp190
sg17
(lp191
sg19
(lp192
sg21
I0
sba(iArchitecture
Entity
p193
(dp194
g11
(lp195
sg13
S'android.view.KeyEvent$DispatcherState'
p196
sg15
(lp197
sg17
(lp198
sg19
(lp199
sg21
I0
sbasg50
(lp200
g133
ag140
ag147
ag154
ag161
ag168
ag175
ag182
ag189
ag196
asg21
I0
sg52
S'1364'
p201
sba(iArchitecture
Cluster
p202
(dp203
g7
(lp204
(iArchitecture
Entity
p205
(dp206
g11
(lp207
sg13
S'android.bluetooth.BluetoothManager'
p208
sg15
(lp209
sg17
(lp210
sg19
(lp211
sg21
I0
sbasg50
(lp212
g208
asg21
I0
sg52
S'164'
p213
sba(iArchitecture
Cluster
p214
(dp215
g7
(lp216
(iArchitecture
Entity
p217
(dp218
g11
(lp219
sg13
S'com.android.internal.view.InputMethodClient'
p220
sg15
(lp221
sg17
(lp222
sg19
(lp223
sg21
I0
sbasg50
(lp224
g220
asg21
I0
sg52
S'264'
p225
sba(iArchitecture
Cluster
p226
(dp227
g7
(lp228
(iArchitecture
Entity
p229
(dp230
g11
(lp231
sg13
S'android.content.IContentProvider'
p232
sg15
(lp233
sg17
(lp234
sg19
(lp235
sg21
I0
sbasg50
(lp236
g232
asg21
I0
sg52
S'364'
p237
sba(iArchitecture
Cluster
p238
(dp239
g7
(lp240
(iArchitecture
Entity
p241
(dp242
g11
(lp243
sg13
S'com.android.internal.util.ScreenShapeHelper'
p244
sg15
(lp245
sg17
(lp246
sg19
(lp247
sg21
I0
sbasg50
(lp248
g244
asg21
I0
sg52
S'464'
p249
sba(iArchitecture
Cluster
p250
(dp251
g7
(lp252
(iArchitecture
Entity
p253
(dp254
g11
(lp255
sg13
S'android.media.MediaTimeProvider'
p256
sg15
(lp257
sg17
(lp258
sg19
(lp259
sg21
I0
sba(iArchitecture
Entity
p260
(dp261
g11
(lp262
sg13
S'android.media.MediaTimeProvider$OnMediaTimeListener'
p263
sg15
(lp264
sg17
(lp265
sg19
(lp266
sg21
I0
sbasg50
(lp267
g256
ag263
asg21
I0
sg52
S'564'
p268
sba(iArchitecture
Cluster
p269
(dp270
g7
(lp271
(iArchitecture
Entity
p272
(dp273
g11
(lp274
sg13
S'com.android.internal.os.WakelockPowerCalculator'
p275
sg15
(lp276
sg17
(lp277
sg19
(lp278
sg21
I0
sbasg50
(lp279
g275
asg21
I0
sg52
S'64'
p280
sba(iArchitecture
Cluster
p281
(dp282
g7
(lp283
(iArchitecture
Entity
p284
(dp285
g11
(lp286
sg13
S'android.filterfw.core.FilterContext'
p287
sg15
(lp288
sg17
(lp289
sg19
(lp290
sg21
I0
sba(iArchitecture
Entity
p291
(dp292
g11
(lp293
sg13
S'android.filterfw.core.FilterContext$OnFrameReceivedListener'
p294
sg15
(lp295
sg17
(lp296
sg19
(lp297
sg21
I0
sbasg50
(lp298
g287
ag294
asg21
I0
sg52
S'640'
p299
sba(iArchitecture
Cluster
p300
(dp301
g7
(lp302
(iArchitecture
Entity
p303
(dp304
g11
(lp305
sg13
S'android.graphics.drawable.ColorDrawable'
p306
sg15
(lp307
sg17
(lp308
sg19
(lp309
sg21
I0
sba(iArchitecture
Entity
p310
(dp311
g11
(lp312
sg13
S'android.graphics.drawable.ColorDrawable$ColorState'
p313
sg15
(lp314
sg17
(lp315
sg19
(lp316
sg21
I0
sbasg50
(lp317
g306
ag313
asg21
I0
sg52
S'641'
p318
sba(iArchitecture
Cluster
p319
(dp320
g7
(lp321
(iArchitecture
Entity
p322
(dp323
g11
(lp324
sg13
S'android.security.keymaster.KeyCharacteristics'
p325
sg15
(lp326
sg17
(lp327
sg19
(lp328
sg21
I0
sba(iArchitecture
Entity
p329
(dp330
g11
(lp331
sg13
S'android.security.keymaster.KeyCharacteristics$1'
p332
sg15
(lp333
sg17
(lp334
sg19
(lp335
sg21
I0
sbasg50
(lp336
g325
ag332
asg21
I0
sg52
S'642'
p337
sba(iArchitecture
Cluster
p338
(dp339
g7
(lp340
(iArchitecture
Entity
p341
(dp342
g11
(lp343
sg13
S'android.telephony.CellInfo'
p344
sg15
(lp345
sg17
(lp346
sg19
(lp347
sg21
I0
sba(iArchitecture
Entity
p348
(dp349
g11
(lp350
sg13
S'android.telephony.CellInfo$1'
p351
sg15
(lp352
sg17
(lp353
sg19
(lp354
sg21
I0
sbasg50
(lp355
g344
ag351
asg21
I0
sg52
S'643'
p356
sba(iArchitecture
Cluster
p357
(dp358
g7
(lp359
(iArchitecture
Entity
p360
(dp361
g11
(lp362
sg13
S'android.filterfw.GraphEnvironment'
p363
sg15
(lp364
sg17
(lp365
sg19
(lp366
sg21
I0
sba(iArchitecture
Entity
p367
(dp368
g11
(lp369
sg13
S'android.filterfw.GraphEnvironment$GraphHandle'
p370
sg15
(lp371
sg17
(lp372
sg19
(lp373
sg21
I0
sbasg50
(lp374
g363
ag370
asg21
I0
sg52
S'644'
p375
sba(iArchitecture
Cluster
p376
(dp377
g7
(lp378
(iArchitecture
Entity
p379
(dp380
g11
(lp381
sg13
S'android.bluetooth.BluetoothHeadsetClientCall'
p382
sg15
(lp383
sg17
(lp384
sg19
(lp385
sg21
I0
sba(iArchitecture
Entity
p386
(dp387
g11
(lp388
sg13
S'android.bluetooth.BluetoothHeadsetClientCall$1'
p389
sg15
(lp390
sg17
(lp391
sg19
(lp392
sg21
I0
sbasg50
(lp393
g382
ag389
asg21
I0
sg52
S'645'
p394
sba(iArchitecture
Cluster
p395
(dp396
g7
(lp397
(iArchitecture
Entity
p398
(dp399
g11
(lp400
sg13
S'android.telecom.ConferenceParticipant'
p401
sg15
(lp402
sg17
(lp403
sg19
(lp404
sg21
I0
sba(iArchitecture
Entity
p405
(dp406
g11
(lp407
sg13
S'android.telecom.ConferenceParticipant$1'
p408
sg15
(lp409
sg17
(lp410
sg19
(lp411
sg21
I0
sbasg50
(lp412
g401
ag408
asg21
I0
sg52
S'646'
p413
sba(iArchitecture
Cluster
p414
(dp415
g7
(lp416
(iArchitecture
Entity
p417
(dp418
g11
(lp419
sg13
S'android.telephony.PreciseCallState'
p420
sg15
(lp421
sg17
(lp422
sg19
(lp423
sg21
I0
sba(iArchitecture
Entity
p424
(dp425
g11
(lp426
sg13
S'android.telephony.PreciseCallState$1'
p427
sg15
(lp428
sg17
(lp429
sg19
(lp430
sg21
I0
sbasg50
(lp431
g420
ag427
asg21
I0
sg52
S'647'
p432
sba(iArchitecture
Cluster
p433
(dp434
g7
(lp435
(iArchitecture
Entity
p436
(dp437
g11
(lp438
sg13
S'android.net.nsd.DnsSdTxtRecord'
p439
sg15
(lp440
sg17
(lp441
sg19
(lp442
sg21
I0
sba(iArchitecture
Entity
p443
(dp444
g11
(lp445
sg13
S'android.net.nsd.DnsSdTxtRecord$1'
p446
sg15
(lp447
sg17
(lp448
sg19
(lp449
sg21
I0
sbasg50
(lp450
g439
ag446
asg21
I0
sg52
S'648'
p451
sba(iArchitecture
Cluster
p452
(dp453
g7
(lp454
(iArchitecture
Entity
p455
(dp456
g11
(lp457
sg13
S'com.android.server.connectivity.KeepaliveTracker'
p458
sg15
(lp459
sg17
(lp460
sg19
(lp461
sg21
I0
sba(iArchitecture
Entity
p462
(dp463
g11
(lp464
sg13
S'com.android.server.connectivity.KeepaliveTracker$KeepaliveInfo'
p465
sg15
(lp466
sg17
(lp467
sg19
(lp468
sg21
I0
sbasg50
(lp469
g458
ag465
asg21
I0
sg52
S'649'
p470
sba(iArchitecture
Cluster
p471
(dp472
g7
(lp473
(iArchitecture
Entity
p474
(dp475
g11
(lp476
sg13
S'android.printservice.recommendation.RecommendationInfo'
p477
sg15
(lp478
sg17
(lp479
sg19
(lp480
sg21
I0
sba(iArchitecture
Entity
p481
(dp482
g11
(lp483
sg13
S'android.printservice.recommendation.RecommendationInfo$1'
p484
sg15
(lp485
sg17
(lp486
sg19
(lp487
sg21
I0
sbasg50
(lp488
g477
ag484
asg21
I0
sg52
S'664'
p489
sba(iArchitecture
Cluster
p490
(dp491
g7
(lp492
(iArchitecture
Entity
p493
(dp494
g11
(lp495
sg13
S'android.widget.DropDownListView'
p496
sg15
(lp497
sg17
(lp498
sg19
(lp499
sg21
I0
sba(iArchitecture
Entity
p500
(dp501
g11
(lp502
sg13
S'android.widget.DropDownListView$ResolveHoverRunnable'
p503
sg15
(lp504
sg17
(lp505
sg19
(lp506
sg21
I0
sbasg50
(lp507
g496
ag503
asg21
I0
sg52
S'764'
p508
sba(iArchitecture
Cluster
p509
(dp510
g7
(lp511
(iArchitecture
Entity
p512
(dp513
g11
(lp514
sg13
S'android.annotation.RequiresPermission'
p515
sg15
(lp516
sg17
(lp517
sg19
(lp518
sg21
I0
sba(iArchitecture
Entity
p519
(dp520
g11
(lp521
sg13
S'android.annotation.RequiresPermission$Read'
p522
sg15
(lp523
sg17
(lp524
sg19
(lp525
sg21
I0
sba(iArchitecture
Entity
p526
(dp527
g11
(lp528
sg13
S'android.annotation.RequiresPermission$Write'
p529
sg15
(lp530
sg17
(lp531
sg19
(lp532
sg21
I0
sbasg50
(lp533
g515
ag522
ag529
asg21
I0
sg52
S'864'
p534
sba(iArchitecture
Cluster
p535
(dp536
g7
(lp537
(iArchitecture
Entity
p538
(dp539
g11
(lp540
sg13
S'android.view.ThreadedRenderer'
p541
sg15
(lp542
sg17
(lp543
sg19
(lp544
sg21
I0
sba(iArchitecture
Entity
p545
(dp546
g11
(lp547
sg13
S'android.view.ThreadedRenderer$HardwareDrawCallbacks'
p548
sg15
(lp549
sg17
(lp550
sg19
(lp551
sg21
I0
sba(iArchitecture
Entity
p552
(dp553
g11
(lp554
sg13
S'android.view.ThreadedRenderer$ProcessInitializer'
p555
sg15
(lp556
sg17
(lp557
sg19
(lp558
sg21
I0
sbasg50
(lp559
g541
ag548
ag555
asg21
I0
sg52
S'964'
p560
sbasS'target_sub'
p561
S'64'
p562
sg50
(lp563
sS'is_component_arch'
p564
I01
sg52
S'7.0.0_r1'
p565
sba.