(lp0
(iArchitecture
Architecture
p1
(dp2
S'clusters'
p3
(lp4
(iArchitecture
Cluster
p5
(dp6
S'entities'
p7
(lp8
(iArchitecture
Entity
p9
(dp10
S'issue_ids'
p11
(lp12
sS'name'
p13
S'cmds.app_process.app_main.c'
p14
sS'descs'
p15
(lp16
sS'labels'
p17
(lp18
sS'titles'
p19
(lp20
sS'change'
p21
I0
sba(iArchitecture
Entity
p22
(dp23
g11
(lp24
sg13
S'cmds.backup.backup.c'
p25
sg15
(lp26
sg17
(lp27
sg19
(lp28
sg21
I0
sba(iArchitecture
Entity
p29
(dp30
g11
(lp31
sg13
S'cmds.idmap.inspect.c'
p32
sg15
(lp33
sg17
(lp34
sg19
(lp35
sg21
I0
sba(iArchitecture
Entity
p36
(dp37
g11
(lp38
sg13
S'cmds.idmap.scan.c'
p39
sg15
(lp40
sg17
(lp41
sg19
(lp42
sg21
I0
sba(iArchitecture
Entity
p43
(dp44
g11
(lp45
sg13
S'core.jni.AndroidRuntime.c'
p46
sg15
(lp47
sg17
(lp48
sg19
(lp49
sg21
I0
sba(iArchitecture
Entity
p50
(dp51
g11
(lp52
sg13
S'core.jni.android.graphics.SurfaceTexture.c'
p53
sg15
(lp54
sg17
(lp55
sg19
(lp56
sg21
I0
sba(iArchitecture
Entity
p57
(dp58
g11
(lp59
sg13
S'core.jni.android.graphics.Xfermode.c'
p60
sg15
(lp61
sg17
(lp62
sg19
(lp63
sg21
I0
sba(iArchitecture
Entity
p64
(dp65
g11
(lp66
sg13
S'core.jni.android.graphics.pdf.PdfEditor.c'
p67
sg15
(lp68
sg17
(lp69
sg19
(lp70
sg21
I0
sba(iArchitecture
Entity
p71
(dp72
g11
(lp73
sg13
S'core.jni.android.opengl.poly_clip.c'
p74
sg15
(lp75
sg17
(lp76
sg19
(lp77
sg21
I0
sba(iArchitecture
Entity
p78
(dp79
g11
(lp80
sg13
S'core.jni.android_animation_PropertyValuesHolder.c'
p81
sg15
(lp82
sg17
(lp83
sg19
(lp84
sg21
I0
sba(iArchitecture
Entity
p85
(dp86
g11
(lp87
sg13
S'core.jni.android_app_Activity.c'
p88
sg15
(lp89
sg17
(lp90
sg19
(lp91
sg21
I0
sba(iArchitecture
Entity
p92
(dp93
g11
(lp94
sg13
S'core.jni.android_app_ApplicationLoaders.c'
p95
sg15
(lp96
sg17
(lp97
sg19
(lp98
sg21
I0
sba(iArchitecture
Entity
p99
(dp100
g11
(lp101
sg13
S'core.jni.android_app_admin_SecurityLog.c'
p102
sg15
(lp103
sg17
(lp104
sg19
(lp105
sg21
I0
sba(iArchitecture
Entity
p106
(dp107
g11
(lp108
sg13
S'core.jni.android_app_backup_FullBackup.c'
p109
sg15
(lp110
sg17
(lp111
sg19
(lp112
sg21
I0
sba(iArchitecture
Entity
p113
(dp114
g11
(lp115
sg13
S'core.jni.android_backup_BackupDataInput.c'
p116
sg15
(lp117
sg17
(lp118
sg19
(lp119
sg21
I0
sba(iArchitecture
Entity
p120
(dp121
g11
(lp122
sg13
S'core.jni.android_backup_BackupDataOutput.c'
p123
sg15
(lp124
sg17
(lp125
sg19
(lp126
sg21
I0
sba(iArchitecture
Entity
p127
(dp128
g11
(lp129
sg13
S'core.jni.android_backup_BackupHelperDispatcher.c'
p130
sg15
(lp131
sg17
(lp132
sg19
(lp133
sg21
I0
sba(iArchitecture
Entity
p134
(dp135
g11
(lp136
sg13
S'core.jni.android_backup_FileBackupHelperBase.c'
p137
sg15
(lp138
sg17
(lp139
sg19
(lp140
sg21
I0
sba(iArchitecture
Entity
p141
(dp142
g11
(lp143
sg13
S'core.jni.android_content_res_Configuration.c'
p144
sg15
(lp145
sg17
(lp146
sg19
(lp147
sg21
I0
sba(iArchitecture
Entity
p148
(dp149
g11
(lp150
sg13
S'core.jni.android_content_res_ObbScanner.c'
p151
sg15
(lp152
sg17
(lp153
sg19
(lp154
sg21
I0
sba(iArchitecture
Entity
p155
(dp156
g11
(lp157
sg13
S'core.jni.android_database_CursorWindow.c'
p158
sg15
(lp159
sg17
(lp160
sg19
(lp161
sg21
I0
sba(iArchitecture
Entity
p162
(dp163
g11
(lp164
sg13
S'core.jni.android_database_SQLiteConnection.c'
p165
sg15
(lp166
sg17
(lp167
sg19
(lp168
sg21
I0
sba(iArchitecture
Entity
p169
(dp170
g11
(lp171
sg13
S'core.jni.android_database_SQLiteDebug.c'
p172
sg15
(lp173
sg17
(lp174
sg19
(lp175
sg21
I0
sba(iArchitecture
Entity
p176
(dp177
g11
(lp178
sg13
S'core.jni.android_database_SQLiteGlobal.c'
p179
sg15
(lp180
sg17
(lp181
sg19
(lp182
sg21
I0
sba(iArchitecture
Entity
p183
(dp184
g11
(lp185
sg13
S'core.jni.android_ddm_DdmHandleNativeHeap.c'
p186
sg15
(lp187
sg17
(lp188
sg19
(lp189
sg21
I0
sba(iArchitecture
Entity
p190
(dp191
g11
(lp192
sg13
S'core.jni.android_hardware_Camera.c'
p193
sg15
(lp194
sg17
(lp195
sg19
(lp196
sg21
I0
sba(iArchitecture
Entity
p197
(dp198
g11
(lp199
sg13
S'core.jni.android_hardware_Radio.c'
p200
sg15
(lp201
sg17
(lp202
sg19
(lp203
sg21
I0
sba(iArchitecture
Entity
p204
(dp205
g11
(lp206
sg13
S'core.jni.android_hardware_SensorManager.c'
p207
sg15
(lp208
sg17
(lp209
sg19
(lp210
sg21
I0
sba(iArchitecture
Entity
p211
(dp212
g11
(lp213
sg13
S'core.jni.android_hardware_SerialPort.c'
p214
sg15
(lp215
sg17
(lp216
sg19
(lp217
sg21
I0
sba(iArchitecture
Entity
p218
(dp219
g11
(lp220
sg13
S'core.jni.android_hardware_SoundTrigger.c'
p221
sg15
(lp222
sg17
(lp223
sg19
(lp224
sg21
I0
sba(iArchitecture
Entity
p225
(dp226
g11
(lp227
sg13
S'core.jni.android_hardware_UsbDevice.c'
p228
sg15
(lp229
sg17
(lp230
sg19
(lp231
sg21
I0
sba(iArchitecture
Entity
p232
(dp233
g11
(lp234
sg13
S'core.jni.android_hardware_UsbDeviceConnection.c'
p235
sg15
(lp236
sg17
(lp237
sg19
(lp238
sg21
I0
sba(iArchitecture
Entity
p239
(dp240
g11
(lp241
sg13
S'core.jni.android_hardware_UsbRequest.c'
p242
sg15
(lp243
sg17
(lp244
sg19
(lp245
sg21
I0
sba(iArchitecture
Entity
p246
(dp247
g11
(lp248
sg13
S'core.jni.android_hardware_camera2_CameraMetadata.c'
p249
sg15
(lp250
sg17
(lp251
sg19
(lp252
sg21
I0
sba(iArchitecture
Entity
p253
(dp254
g11
(lp255
sg13
S'core.jni.android_hardware_camera2_DngCreator.c'
p256
sg15
(lp257
sg17
(lp258
sg19
(lp259
sg21
I0
sba(iArchitecture
Entity
p260
(dp261
g11
(lp262
sg13
S'core.jni.android_hardware_camera2_legacy_LegacyCameraDevice.c'
p263
sg15
(lp264
sg17
(lp265
sg19
(lp266
sg21
I0
sba(iArchitecture
Entity
p267
(dp268
g11
(lp269
sg13
S'core.jni.android_hardware_camera2_legacy_PerfMeasurement.c'
p270
sg15
(lp271
sg17
(lp272
sg19
(lp273
sg21
I0
sba(iArchitecture
Entity
p274
(dp275
g11
(lp276
sg13
S'core.jni.android_hardware_location_ActivityRecognitionHardware.c'
p277
sg15
(lp278
sg17
(lp279
sg19
(lp280
sg21
I0
sba(iArchitecture
Entity
p281
(dp282
g11
(lp283
sg13
S'core.jni.android_hardware_location_ContextHubService.c'
p284
sg15
(lp285
sg17
(lp286
sg19
(lp287
sg21
I0
sba(iArchitecture
Entity
p288
(dp289
g11
(lp290
sg13
S'core.jni.android_media_AudioRecord.c'
p291
sg15
(lp292
sg17
(lp293
sg19
(lp294
sg21
I0
sba(iArchitecture
Entity
p295
(dp296
g11
(lp297
sg13
S'core.jni.android_media_AudioSystem.c'
p298
sg15
(lp299
sg17
(lp300
sg19
(lp301
sg21
I0
sba(iArchitecture
Entity
p302
(dp303
g11
(lp304
sg13
S'core.jni.android_media_JetPlayer.c'
p305
sg15
(lp306
sg17
(lp307
sg19
(lp308
sg21
I0
sba(iArchitecture
Entity
p309
(dp310
g11
(lp311
sg13
S'core.jni.android_media_RemoteDisplay.c'
p312
sg15
(lp313
sg17
(lp314
sg19
(lp315
sg21
I0
sba(iArchitecture
Entity
p316
(dp317
g11
(lp318
sg13
S'core.jni.android_media_ToneGenerator.c'
p319
sg15
(lp320
sg17
(lp321
sg19
(lp322
sg21
I0
sba(iArchitecture
Entity
p323
(dp324
g11
(lp325
sg13
S'core.jni.android_net_NetUtils.c'
p326
sg15
(lp327
sg17
(lp328
sg19
(lp329
sg21
I0
sba(iArchitecture
Entity
p330
(dp331
g11
(lp332
sg13
S'core.jni.android_net_TrafficStats.c'
p333
sg15
(lp334
sg17
(lp335
sg19
(lp336
sg21
I0
sba(iArchitecture
Entity
p337
(dp338
g11
(lp339
sg13
S'core.jni.android_opengl_EGL14.c'
p340
sg15
(lp341
sg17
(lp342
sg19
(lp343
sg21
I0
sba(iArchitecture
Entity
p344
(dp345
g11
(lp346
sg13
S'core.jni.android_opengl_EGLExt.c'
p347
sg15
(lp348
sg17
(lp349
sg19
(lp350
sg21
I0
sba(iArchitecture
Entity
p351
(dp352
g11
(lp353
sg13
S'core.jni.android_opengl_GLES10.c'
p354
sg15
(lp355
sg17
(lp356
sg19
(lp357
sg21
I0
sba(iArchitecture
Entity
p358
(dp359
g11
(lp360
sg13
S'core.jni.android_opengl_GLES10Ext.c'
p361
sg15
(lp362
sg17
(lp363
sg19
(lp364
sg21
I0
sba(iArchitecture
Entity
p365
(dp366
g11
(lp367
sg13
S'core.jni.android_opengl_GLES11.c'
p368
sg15
(lp369
sg17
(lp370
sg19
(lp371
sg21
I0
sba(iArchitecture
Entity
p372
(dp373
g11
(lp374
sg13
S'core.jni.android_opengl_GLES11Ext.c'
p375
sg15
(lp376
sg17
(lp377
sg19
(lp378
sg21
I0
sba(iArchitecture
Entity
p379
(dp380
g11
(lp381
sg13
S'core.jni.android_opengl_GLES20.c'
p382
sg15
(lp383
sg17
(lp384
sg19
(lp385
sg21
I0
sba(iArchitecture
Entity
p386
(dp387
g11
(lp388
sg13
S'core.jni.android_opengl_GLES30.c'
p389
sg15
(lp390
sg17
(lp391
sg19
(lp392
sg21
I0
sba(iArchitecture
Entity
p393
(dp394
g11
(lp395
sg13
S'core.jni.android_opengl_GLES31.c'
p396
sg15
(lp397
sg17
(lp398
sg19
(lp399
sg21
I0
sba(iArchitecture
Entity
p400
(dp401
g11
(lp402
sg13
S'core.jni.android_opengl_GLES31Ext.c'
p403
sg15
(lp404
sg17
(lp405
sg19
(lp406
sg21
I0
sba(iArchitecture
Entity
p407
(dp408
g11
(lp409
sg13
S'core.jni.android_opengl_GLES32.c'
p410
sg15
(lp411
sg17
(lp412
sg19
(lp413
sg21
I0
sba(iArchitecture
Entity
p414
(dp415
g11
(lp416
sg13
S'core.jni.android_os_MemoryFile.c'
p417
sg15
(lp418
sg17
(lp419
sg19
(lp420
sg21
I0
sba(iArchitecture
Entity
p421
(dp422
g11
(lp423
sg13
S'core.jni.android_os_SELinux.c'
p424
sg15
(lp425
sg17
(lp426
sg19
(lp427
sg21
I0
sba(iArchitecture
Entity
p428
(dp429
g11
(lp430
sg13
S'core.jni.android_os_SystemClock.c'
p431
sg15
(lp432
sg17
(lp433
sg19
(lp434
sg21
I0
sba(iArchitecture
Entity
p435
(dp436
g11
(lp437
sg13
S'core.jni.android_os_SystemProperties.c'
p438
sg15
(lp439
sg17
(lp440
sg19
(lp441
sg21
I0
sba(iArchitecture
Entity
p442
(dp443
g11
(lp444
sg13
S'core.jni.android_os_Trace.c'
p445
sg15
(lp446
sg17
(lp447
sg19
(lp448
sg21
I0
sba(iArchitecture
Entity
p449
(dp450
g11
(lp451
sg13
S'core.jni.android_os_UEventObserver.c'
p452
sg15
(lp453
sg17
(lp454
sg19
(lp455
sg21
I0
sba(iArchitecture
Entity
p456
(dp457
g11
(lp458
sg13
S'core.jni.android_server_Watchdog.c'
p459
sg15
(lp460
sg17
(lp461
sg19
(lp462
sg21
I0
sba(iArchitecture
Entity
p463
(dp464
g11
(lp465
sg13
S'core.jni.android_text_AndroidBidi.c'
p466
sg15
(lp467
sg17
(lp468
sg19
(lp469
sg21
I0
sba(iArchitecture
Entity
p470
(dp471
g11
(lp472
sg13
S'core.jni.android_text_AndroidCharacter.c'
p473
sg15
(lp474
sg17
(lp475
sg19
(lp476
sg21
I0
sba(iArchitecture
Entity
p477
(dp478
g11
(lp479
sg13
S'core.jni.android_text_StaticLayout.c'
p480
sg15
(lp481
sg17
(lp482
sg19
(lp483
sg21
I0
sba(iArchitecture
Entity
p484
(dp485
g11
(lp486
sg13
S'core.jni.android_util_AssetManager.c'
p487
sg15
(lp488
sg17
(lp489
sg19
(lp490
sg21
I0
sba(iArchitecture
Entity
p491
(dp492
g11
(lp493
sg13
S'core.jni.android_util_EventLog.c'
p494
sg15
(lp495
sg17
(lp496
sg19
(lp497
sg21
I0
sba(iArchitecture
Entity
p498
(dp499
g11
(lp500
sg13
S'core.jni.android_util_FileObserver.c'
p501
sg15
(lp502
sg17
(lp503
sg19
(lp504
sg21
I0
sba(iArchitecture
Entity
p505
(dp506
g11
(lp507
sg13
S'core.jni.android_util_MemoryIntArray.c'
p508
sg15
(lp509
sg17
(lp510
sg19
(lp511
sg21
I0
sba(iArchitecture
Entity
p512
(dp513
g11
(lp514
sg13
S'core.jni.android_util_Process.c'
p515
sg15
(lp516
sg17
(lp517
sg19
(lp518
sg21
I0
sba(iArchitecture
Entity
p519
(dp520
g11
(lp521
sg13
S'core.jni.android_util_StringBlock.c'
p522
sg15
(lp523
sg17
(lp524
sg19
(lp525
sg21
I0
sba(iArchitecture
Entity
p526
(dp527
g11
(lp528
sg13
S'core.jni.android_util_XmlBlock.c'
p529
sg15
(lp530
sg17
(lp531
sg19
(lp532
sg21
I0
sba(iArchitecture
Entity
p533
(dp534
g11
(lp535
sg13
S'core.jni.android_util_jar_StrictJarFile.c'
p536
sg15
(lp537
sg17
(lp538
sg19
(lp539
sg21
I0
sba(iArchitecture
Entity
p540
(dp541
g11
(lp542
sg13
S'core.jni.android_view_DisplayEventReceiver.c'
p543
sg15
(lp544
sg17
(lp545
sg19
(lp546
sg21
I0
sba(iArchitecture
Entity
p547
(dp548
g11
(lp549
sg13
S'core.jni.android_view_InputEventReceiver.c'
p550
sg15
(lp551
sg17
(lp552
sg19
(lp553
sg21
I0
sba(iArchitecture
Entity
p554
(dp555
g11
(lp556
sg13
S'core.jni.android_view_InputEventSender.c'
p557
sg15
(lp558
sg17
(lp559
sg19
(lp560
sg21
I0
sba(iArchitecture
Entity
p561
(dp562
g11
(lp563
sg13
S'core.jni.android_view_InputQueue.c'
p564
sg15
(lp565
sg17
(lp566
sg19
(lp567
sg21
I0
sba(iArchitecture
Entity
p568
(dp569
g11
(lp570
sg13
S'core.jni.android_view_SurfaceSession.c'
p571
sg15
(lp572
sg17
(lp573
sg19
(lp574
sg21
I0
sba(iArchitecture
Entity
p575
(dp576
g11
(lp577
sg13
S'core.jni.android_view_VelocityTracker.c'
p578
sg15
(lp579
sg17
(lp580
sg19
(lp581
sg21
I0
sba(iArchitecture
Entity
p582
(dp583
g11
(lp584
sg13
S'core.jni.com_android_internal_content_NativeLibraryHelper.c'
p585
sg15
(lp586
sg17
(lp587
sg19
(lp588
sg21
I0
sba(iArchitecture
Entity
p589
(dp590
g11
(lp591
sg13
S'core.jni.com_android_internal_net_NetworkStatsFactory.c'
p592
sg15
(lp593
sg17
(lp594
sg19
(lp595
sg21
I0
sba(iArchitecture
Entity
p596
(dp597
g11
(lp598
sg13
S'core.jni.com_android_internal_os_PathClassLoaderFactory.c'
p599
sg15
(lp600
sg17
(lp601
sg19
(lp602
sg21
I0
sba(iArchitecture
Entity
p603
(dp604
g11
(lp605
sg13
S'core.jni.com_android_internal_os_Zygote.c'
p606
sg15
(lp607
sg17
(lp608
sg19
(lp609
sg21
I0
sba(iArchitecture
Entity
p610
(dp611
g11
(lp612
sg13
S'core.jni.com_android_internal_util_VirtualRefBasePtr.c'
p613
sg15
(lp614
sg17
(lp615
sg19
(lp616
sg21
I0
sba(iArchitecture
Entity
p617
(dp618
g11
(lp619
sg13
S'core.jni.com_android_internal_view_animation_NativeInterpolatorFactoryHelper.c'
p620
sg15
(lp621
sg17
(lp622
sg19
(lp623
sg21
I0
sba(iArchitecture
Entity
p624
(dp625
g11
(lp626
sg13
S'core.jni.com_google_android_gles_jni_EGLImpl.c'
p627
sg15
(lp628
sg17
(lp629
sg19
(lp630
sg21
I0
sba(iArchitecture
Entity
p631
(dp632
g11
(lp633
sg13
S'core.jni.com_google_android_gles_jni_GLImpl.c'
p634
sg15
(lp635
sg17
(lp636
sg19
(lp637
sg21
I0
sba(iArchitecture
Entity
p638
(dp639
g11
(lp640
sg13
S'core.tests.hosttests.test-apps.SharedUid.32.jni.native.c'
p641
sg15
(lp642
sg17
(lp643
sg19
(lp644
sg21
I0
sba(iArchitecture
Entity
p645
(dp646
g11
(lp647
sg13
S'core.tests.hosttests.test-apps.SharedUid.64.jni.native.c'
p648
sg15
(lp649
sg17
(lp650
sg19
(lp651
sg21
I0
sba(iArchitecture
Entity
p652
(dp653
g11
(lp654
sg13
S'core.tests.hosttests.test-apps.SharedUid.dual.jni.native.c'
p655
sg15
(lp656
sg17
(lp657
sg19
(lp658
sg21
I0
sba(iArchitecture
Entity
p659
(dp660
g11
(lp661
sg13
S'drm.jni.android_drm_DrmManagerClient.c'
p662
sg15
(lp663
sg17
(lp664
sg19
(lp665
sg21
I0
sba(iArchitecture
Entity
p666
(dp667
g11
(lp668
sg13
S'include.android_runtime.Log.h'
p669
sg15
(lp670
sg17
(lp671
sg19
(lp672
sg21
I0
sba(iArchitecture
Entity
p673
(dp674
g11
(lp675
sg13
S'include.android_runtime.android_app_NativeActivity.h'
p676
sg15
(lp677
sg17
(lp678
sg19
(lp679
sg21
I0
sba(iArchitecture
Entity
p680
(dp681
g11
(lp682
sg13
S'include.android_runtime.android_content_res_Configuration.h'
p683
sg15
(lp684
sg17
(lp685
sg19
(lp686
sg21
I0
sba(iArchitecture
Entity
p687
(dp688
g11
(lp689
sg13
S'include.android_runtime.android_graphics_SurfaceTexture.h'
p690
sg15
(lp691
sg17
(lp692
sg19
(lp693
sg21
I0
sba(iArchitecture
Entity
p694
(dp695
g11
(lp696
sg13
S'include.android_runtime.android_hardware_camera2_CameraMetadata.h'
p697
sg15
(lp698
sg17
(lp699
sg19
(lp700
sg21
I0
sba(iArchitecture
Entity
p701
(dp702
g11
(lp703
sg13
S'include.android_runtime.android_view_InputQueue.h'
p704
sg15
(lp705
sg17
(lp706
sg19
(lp707
sg21
I0
sba(iArchitecture
Entity
p708
(dp709
g11
(lp710
sg13
S'include.android_runtime.android_view_SurfaceSession.h'
p711
sg15
(lp712
sg17
(lp713
sg19
(lp714
sg21
I0
sba(iArchitecture
Entity
p715
(dp716
g11
(lp717
sg13
S'include.androidfw.Asset.h'
p718
sg15
(lp719
sg17
(lp720
sg19
(lp721
sg21
I0
sba(iArchitecture
Entity
p722
(dp723
g11
(lp724
sg13
S'include.androidfw.AttributeFinder.h'
p725
sg15
(lp726
sg17
(lp727
sg19
(lp728
sg21
I0
sba(iArchitecture
Entity
p729
(dp730
g11
(lp731
sg13
S'include.androidfw.BackupHelpers.h'
p732
sg15
(lp733
sg17
(lp734
sg19
(lp735
sg21
I0
sba(iArchitecture
Entity
p736
(dp737
g11
(lp738
sg13
S'include.androidfw.ByteBucketArray.h'
p739
sg15
(lp740
sg17
(lp741
sg19
(lp742
sg21
I0
sba(iArchitecture
Entity
p743
(dp744
g11
(lp745
sg13
S'include.androidfw.CursorWindow.h'
p746
sg15
(lp747
sg17
(lp748
sg19
(lp749
sg21
I0
sba(iArchitecture
Entity
p750
(dp751
g11
(lp752
sg13
S'include.androidfw.DisplayEventDispatcher.h'
p753
sg15
(lp754
sg17
(lp755
sg19
(lp756
sg21
I0
sba(iArchitecture
Entity
p757
(dp758
g11
(lp759
sg13
S'include.androidfw.LocaleData.h'
p760
sg15
(lp761
sg17
(lp762
sg19
(lp763
sg21
I0
sba(iArchitecture
Entity
p764
(dp765
g11
(lp766
sg13
S'include.androidfw.ObbFile.h'
p767
sg15
(lp768
sg17
(lp769
sg19
(lp770
sg21
I0
sba(iArchitecture
Entity
p771
(dp772
g11
(lp773
sg13
S'include.androidfw.ResourceTypes.h'
p774
sg15
(lp775
sg17
(lp776
sg19
(lp777
sg21
I0
sba(iArchitecture
Entity
p778
(dp779
g11
(lp780
sg13
S'include.androidfw.StreamingZipInflater.h'
p781
sg15
(lp782
sg17
(lp783
sg19
(lp784
sg21
I0
sba(iArchitecture
Entity
p785
(dp786
g11
(lp787
sg13
S'include.storage.IMountService.h'
p788
sg15
(lp789
sg17
(lp790
sg19
(lp791
sg21
I0
sba(iArchitecture
Entity
p792
(dp793
g11
(lp794
sg13
S'include.storage.IMountServiceListener.h'
p795
sg15
(lp796
sg17
(lp797
sg19
(lp798
sg21
I0
sba(iArchitecture
Entity
p799
(dp800
g11
(lp801
sg13
S'include.storage.IMountShutdownObserver.h'
p802
sg15
(lp803
sg17
(lp804
sg19
(lp805
sg21
I0
sba(iArchitecture
Entity
p806
(dp807
g11
(lp808
sg13
S'include.storage.IObbActionListener.h'
p809
sg15
(lp810
sg17
(lp811
sg19
(lp812
sg21
I0
sba(iArchitecture
Entity
p813
(dp814
g11
(lp815
sg13
S'libs.androidfw.Asset.c'
p816
sg15
(lp817
sg17
(lp818
sg19
(lp819
sg21
I0
sba(iArchitecture
Entity
p820
(dp821
g11
(lp822
sg13
S'libs.androidfw.AssetDir.c'
p823
sg15
(lp824
sg17
(lp825
sg19
(lp826
sg21
I0
sba(iArchitecture
Entity
p827
(dp828
g11
(lp829
sg13
S'libs.androidfw.AssetManager.c'
p830
sg15
(lp831
sg17
(lp832
sg19
(lp833
sg21
I0
sba(iArchitecture
Entity
p834
(dp835
g11
(lp836
sg13
S'libs.androidfw.BackupData.c'
p837
sg15
(lp838
sg17
(lp839
sg19
(lp840
sg21
I0
sba(iArchitecture
Entity
p841
(dp842
g11
(lp843
sg13
S'libs.androidfw.BackupHelpers.c'
p844
sg15
(lp845
sg17
(lp846
sg19
(lp847
sg21
I0
sba(iArchitecture
Entity
p848
(dp849
g11
(lp850
sg13
S'libs.androidfw.CursorWindow.c'
p851
sg15
(lp852
sg17
(lp853
sg19
(lp854
sg21
I0
sba(iArchitecture
Entity
p855
(dp856
g11
(lp857
sg13
S'libs.androidfw.DisplayEventDispatcher.c'
p858
sg15
(lp859
sg17
(lp860
sg19
(lp861
sg21
I0
sba(iArchitecture
Entity
p862
(dp863
g11
(lp864
sg13
S'libs.androidfw.LocaleData.c'
p865
sg15
(lp866
sg17
(lp867
sg19
(lp868
sg21
I0
sba(iArchitecture
Entity
p869
(dp870
g11
(lp871
sg13
S'libs.androidfw.ObbFile.c'
p872
sg15
(lp873
sg17
(lp874
sg19
(lp875
sg21
I0
sba(iArchitecture
Entity
p876
(dp877
g11
(lp878
sg13
S'libs.androidfw.ResourceTypes.c'
p879
sg15
(lp880
sg17
(lp881
sg19
(lp882
sg21
I0
sba(iArchitecture
Entity
p883
(dp884
g11
(lp885
sg13
S'libs.androidfw.StreamingZipInflater.c'
p886
sg15
(lp887
sg17
(lp888
sg19
(lp889
sg21
I0
sba(iArchitecture
Entity
p890
(dp891
g11
(lp892
sg13
S'libs.androidfw.TypeWrappers.c'
p893
sg15
(lp894
sg17
(lp895
sg19
(lp896
sg21
I0
sba(iArchitecture
Entity
p897
(dp898
g11
(lp899
sg13
S'libs.androidfw.tests.AttributeFinder_test.c'
p900
sg15
(lp901
sg17
(lp902
sg19
(lp903
sg21
I0
sba(iArchitecture
Entity
p904
(dp905
g11
(lp906
sg13
S'libs.androidfw.tests.BackupData_test.c'
p907
sg15
(lp908
sg17
(lp909
sg19
(lp910
sg21
I0
sba(iArchitecture
Entity
p911
(dp912
g11
(lp913
sg13
S'libs.androidfw.tests.ByteBucketArray_test.c'
p914
sg15
(lp915
sg17
(lp916
sg19
(lp917
sg21
I0
sba(iArchitecture
Entity
p918
(dp919
g11
(lp920
sg13
S'libs.androidfw.tests.ConfigLocale_test.c'
p921
sg15
(lp922
sg17
(lp923
sg19
(lp924
sg21
I0
sba(iArchitecture
Entity
p925
(dp926
g11
(lp927
sg13
S'libs.androidfw.tests.Config_test.c'
p928
sg15
(lp929
sg17
(lp930
sg19
(lp931
sg21
I0
sba(iArchitecture
Entity
p932
(dp933
g11
(lp934
sg13
S'libs.androidfw.tests.ObbFile_test.c'
p935
sg15
(lp936
sg17
(lp937
sg19
(lp938
sg21
I0
sba(iArchitecture
Entity
p939
(dp940
g11
(lp941
sg13
S'libs.androidfw.tests.TypeWrappers_test.c'
p942
sg15
(lp943
sg17
(lp944
sg19
(lp945
sg21
I0
sba(iArchitecture
Entity
p946
(dp947
g11
(lp948
sg13
S'libs.common_time.common_time_server_api.c'
p949
sg15
(lp950
sg17
(lp951
sg19
(lp952
sg21
I0
sba(iArchitecture
Entity
p953
(dp954
g11
(lp955
sg13
S'libs.common_time.main.c'
p956
sg15
(lp957
sg17
(lp958
sg19
(lp959
sg21
I0
sba(iArchitecture
Entity
p960
(dp961
g11
(lp962
sg13
S'libs.common_time.utils.c'
p963
sg15
(lp964
sg17
(lp965
sg19
(lp966
sg21
I0
sba(iArchitecture
Entity
p967
(dp968
g11
(lp969
sg13
S'libs.hwui.Vector.h'
p970
sg15
(lp971
sg17
(lp972
sg19
(lp973
sg21
I0
sba(iArchitecture
Entity
p974
(dp975
g11
(lp976
sg13
S'libs.hwui.debug.nullgles.c'
p977
sg15
(lp978
sg17
(lp979
sg19
(lp980
sg21
I0
sba(iArchitecture
Entity
p981
(dp982
g11
(lp983
sg13
S'libs.hwui.debug.unwrap_gles.h'
p984
sg15
(lp985
sg17
(lp986
sg19
(lp987
sg21
I0
sba(iArchitecture
Entity
p988
(dp989
g11
(lp990
sg13
S'libs.hwui.debug.wrap_gles.c'
p991
sg15
(lp992
sg17
(lp993
sg19
(lp994
sg21
I0
sba(iArchitecture
Entity
p995
(dp996
g11
(lp997
sg13
S'libs.hwui.tests.macrobench.main.c'
p998
sg15
(lp999
sg17
(lp1000
sg19
(lp1001
sg21
I0
sba(iArchitecture
Entity
p1002
(dp1003
g11
(lp1004
sg13
S'libs.hwui.tests.microbench.main.c'
p1005
sg15
(lp1006
sg17
(lp1007
sg19
(lp1008
sg21
I0
sba(iArchitecture
Entity
p1009
(dp1010
g11
(lp1011
sg13
S'libs.hwui.tests.unit.CanvasStateTests.c'
p1012
sg15
(lp1013
sg17
(lp1014
sg19
(lp1015
sg21
I0
sba(iArchitecture
Entity
p1016
(dp1017
g11
(lp1018
sg13
S'libs.hwui.tests.unit.main.c'
p1019
sg15
(lp1020
sg17
(lp1021
sg19
(lp1022
sg21
I0
sba(iArchitecture
Entity
p1023
(dp1024
g11
(lp1025
sg13
S'libs.hwui.utils.NinePatchImpl.c'
p1026
sg15
(lp1027
sg17
(lp1028
sg19
(lp1029
sg21
I0
sba(iArchitecture
Entity
p1030
(dp1031
g11
(lp1032
sg13
S'libs.storage.IMountService.c'
p1033
sg15
(lp1034
sg17
(lp1035
sg19
(lp1036
sg21
I0
sba(iArchitecture
Entity
p1037
(dp1038
g11
(lp1039
sg13
S'libs.storage.IMountServiceListener.c'
p1040
sg15
(lp1041
sg17
(lp1042
sg19
(lp1043
sg21
I0
sba(iArchitecture
Entity
p1044
(dp1045
g11
(lp1046
sg13
S'libs.storage.IMountShutdownObserver.c'
p1047
sg15
(lp1048
sg17
(lp1049
sg19
(lp1050
sg21
I0
sba(iArchitecture
Entity
p1051
(dp1052
g11
(lp1053
sg13
S'libs.storage.IObbActionListener.c'
p1054
sg15
(lp1055
sg17
(lp1056
sg19
(lp1057
sg21
I0
sba(iArchitecture
Entity
p1058
(dp1059
g11
(lp1060
sg13
S'media.jni.android_media_AmrInputStream.c'
p1061
sg15
(lp1062
sg17
(lp1063
sg19
(lp1064
sg21
I0
sba(iArchitecture
Entity
p1065
(dp1066
g11
(lp1067
sg13
S'media.jni.android_media_ExifInterface.c'
p1068
sg15
(lp1069
sg17
(lp1070
sg19
(lp1071
sg21
I0
sba(iArchitecture
Entity
p1072
(dp1073
g11
(lp1074
sg13
S'media.jni.android_media_ImageReader.c'
p1075
sg15
(lp1076
sg17
(lp1077
sg19
(lp1078
sg21
I0
sba(iArchitecture
Entity
p1079
(dp1080
g11
(lp1081
sg13
S'media.jni.android_media_ImageWriter.c'
p1082
sg15
(lp1083
sg17
(lp1084
sg19
(lp1085
sg21
I0
sba(iArchitecture
Entity
p1086
(dp1087
g11
(lp1088
sg13
S'media.jni.android_media_MediaCodecList.c'
p1089
sg15
(lp1090
sg17
(lp1091
sg19
(lp1092
sg21
I0
sba(iArchitecture
Entity
p1093
(dp1094
g11
(lp1095
sg13
S'media.jni.android_media_MediaMetadataRetriever.c'
p1096
sg15
(lp1097
sg17
(lp1098
sg19
(lp1099
sg21
I0
sba(iArchitecture
Entity
p1100
(dp1101
g11
(lp1102
sg13
S'media.jni.android_media_MediaMuxer.c'
p1103
sg15
(lp1104
sg17
(lp1105
sg19
(lp1106
sg21
I0
sba(iArchitecture
Entity
p1107
(dp1108
g11
(lp1109
sg13
S'media.jni.android_media_MediaProfiles.c'
p1110
sg15
(lp1111
sg17
(lp1112
sg19
(lp1113
sg21
I0
sba(iArchitecture
Entity
p1114
(dp1115
g11
(lp1116
sg13
S'media.jni.android_media_MediaRecorder.c'
p1117
sg15
(lp1118
sg17
(lp1119
sg19
(lp1120
sg21
I0
sba(iArchitecture
Entity
p1121
(dp1122
g11
(lp1123
sg13
S'media.jni.android_media_MediaScanner.c'
p1124
sg15
(lp1125
sg17
(lp1126
sg19
(lp1127
sg21
I0
sba(iArchitecture
Entity
p1128
(dp1129
g11
(lp1130
sg13
S'media.jni.android_media_ResampleInputStream.c'
p1131
sg15
(lp1132
sg17
(lp1133
sg19
(lp1134
sg21
I0
sba(iArchitecture
Entity
p1135
(dp1136
g11
(lp1137
sg13
S'media.jni.android_mtp_MtpDatabase.c'
p1138
sg15
(lp1139
sg17
(lp1140
sg19
(lp1141
sg21
I0
sba(iArchitecture
Entity
p1142
(dp1143
g11
(lp1144
sg13
S'media.jni.android_mtp_MtpDevice.c'
p1145
sg15
(lp1146
sg17
(lp1147
sg19
(lp1148
sg21
I0
sba(iArchitecture
Entity
p1149
(dp1150
g11
(lp1151
sg13
S'media.jni.android_mtp_MtpServer.c'
p1152
sg15
(lp1153
sg17
(lp1154
sg19
(lp1155
sg21
I0
sba(iArchitecture
Entity
p1156
(dp1157
g11
(lp1158
sg13
S'media.jni.audioeffect.android_media_AudioEffect.c'
p1159
sg15
(lp1160
sg17
(lp1161
sg19
(lp1162
sg21
I0
sba(iArchitecture
Entity
p1163
(dp1164
g11
(lp1165
sg13
S'media.jni.audioeffect.android_media_Visualizer.c'
p1166
sg15
(lp1167
sg17
(lp1168
sg19
(lp1169
sg21
I0
sba(iArchitecture
Entity
p1170
(dp1171
g11
(lp1172
sg13
S'media.jni.soundpool.android_media_SoundPool.c'
p1173
sg15
(lp1174
sg17
(lp1175
sg19
(lp1176
sg21
I0
sba(iArchitecture
Entity
p1177
(dp1178
g11
(lp1179
sg13
S'media.mca.filterpacks.native.imageproc.brightness.c'
p1180
sg15
(lp1181
sg17
(lp1182
sg19
(lp1183
sg21
I0
sba(iArchitecture
Entity
p1184
(dp1185
g11
(lp1186
sg13
S'media.mca.filterpacks.native.imageproc.contrast.c'
p1187
sg15
(lp1188
sg17
(lp1189
sg19
(lp1190
sg21
I0
sba(iArchitecture
Entity
p1191
(dp1192
g11
(lp1193
sg13
S'media.mca.filterpacks.native.imageproc.invert.c'
p1194
sg15
(lp1195
sg17
(lp1196
sg19
(lp1197
sg21
I0
sba(iArchitecture
Entity
p1198
(dp1199
g11
(lp1200
sg13
S'media.tests.players.invoke_mock_media_player.c'
p1201
sg15
(lp1202
sg17
(lp1203
sg19
(lp1204
sg21
I0
sba(iArchitecture
Entity
p1205
(dp1206
g11
(lp1207
sg13
S'native.android.choreographer.c'
p1208
sg15
(lp1209
sg17
(lp1210
sg19
(lp1211
sg21
I0
sba(iArchitecture
Entity
p1212
(dp1213
g11
(lp1214
sg13
S'native.android.configuration.c'
p1215
sg15
(lp1216
sg17
(lp1217
sg19
(lp1218
sg21
I0
sba(iArchitecture
Entity
p1219
(dp1220
g11
(lp1221
sg13
S'native.android.input.c'
p1222
sg15
(lp1223
sg17
(lp1224
sg19
(lp1225
sg21
I0
sba(iArchitecture
Entity
p1226
(dp1227
g11
(lp1228
sg13
S'native.android.looper.c'
p1229
sg15
(lp1230
sg17
(lp1231
sg19
(lp1232
sg21
I0
sba(iArchitecture
Entity
p1233
(dp1234
g11
(lp1235
sg13
S'native.android.native_activity.c'
p1236
sg15
(lp1237
sg17
(lp1238
sg19
(lp1239
sg21
I0
sba(iArchitecture
Entity
p1240
(dp1241
g11
(lp1242
sg13
S'native.android.obb.c'
p1243
sg15
(lp1244
sg17
(lp1245
sg19
(lp1246
sg21
I0
sba(iArchitecture
Entity
p1247
(dp1248
g11
(lp1249
sg13
S'native.android.sensor.c'
p1250
sg15
(lp1251
sg17
(lp1252
sg19
(lp1253
sg21
I0
sba(iArchitecture
Entity
p1254
(dp1255
g11
(lp1256
sg13
S'native.android.storage_manager.c'
p1257
sg15
(lp1258
sg17
(lp1259
sg19
(lp1260
sg21
I0
sba(iArchitecture
Entity
p1261
(dp1262
g11
(lp1263
sg13
S'packages.DefaultContainerService.jni.com_android_defcontainer_MeasurementUtils.c'
p1264
sg15
(lp1265
sg17
(lp1266
sg19
(lp1267
sg21
I0
sba(iArchitecture
Entity
p1268
(dp1269
g11
(lp1270
sg13
S'packages.MtpDocumentsProvider.jni.com_android_mtp_AppFuse.c'
p1271
sg15
(lp1272
sg17
(lp1273
sg19
(lp1274
sg21
I0
sba(iArchitecture
Entity
p1275
(dp1276
g11
(lp1277
sg13
S'packages.PrintSpooler.jni.com_android_printspooler_util_BitmapSerializeUtils.c'
p1278
sg15
(lp1279
sg17
(lp1280
sg19
(lp1281
sg21
I0
sba(iArchitecture
Entity
p1282
(dp1283
g11
(lp1284
sg13
S'packages.services.PacProcessor.jni.com_android_pacprocessor_PacNative.c'
p1285
sg15
(lp1286
sg17
(lp1287
sg19
(lp1288
sg21
I0
sba(iArchitecture
Entity
p1289
(dp1290
g11
(lp1291
sg13
S'rs.jni.android_renderscript_RenderScript.c'
p1292
sg15
(lp1293
sg17
(lp1294
sg19
(lp1295
sg21
I0
sba(iArchitecture
Entity
p1296
(dp1297
g11
(lp1298
sg13
S'services.core.jni.com_android_server_AssetAtlasService.c'
p1299
sg15
(lp1300
sg17
(lp1301
sg19
(lp1302
sg21
I0
sba(iArchitecture
Entity
p1303
(dp1304
g11
(lp1305
sg13
S'services.core.jni.com_android_server_ConsumerIrService.c'
p1306
sg15
(lp1307
sg17
(lp1308
sg19
(lp1309
sg21
I0
sba(iArchitecture
Entity
p1310
(dp1311
g11
(lp1312
sg13
S'services.core.jni.com_android_server_HardwarePropertiesManagerService.c'
p1313
sg15
(lp1314
sg17
(lp1315
sg19
(lp1316
sg21
I0
sba(iArchitecture
Entity
p1317
(dp1318
g11
(lp1319
sg13
S'services.core.jni.com_android_server_PersistentDataBlockService.c'
p1320
sg15
(lp1321
sg17
(lp1322
sg19
(lp1323
sg21
I0
sba(iArchitecture
Entity
p1324
(dp1325
g11
(lp1326
sg13
S'services.core.jni.com_android_server_SerialService.c'
p1327
sg15
(lp1328
sg17
(lp1329
sg19
(lp1330
sg21
I0
sba(iArchitecture
Entity
p1331
(dp1332
g11
(lp1333
sg13
S'services.core.jni.com_android_server_UsbDeviceManager.c'
p1334
sg15
(lp1335
sg17
(lp1336
sg19
(lp1337
sg21
I0
sba(iArchitecture
Entity
p1338
(dp1339
g11
(lp1340
sg13
S'services.core.jni.com_android_server_UsbHostManager.c'
p1341
sg15
(lp1342
sg17
(lp1343
sg19
(lp1344
sg21
I0
sba(iArchitecture
Entity
p1345
(dp1346
g11
(lp1347
sg13
S'services.core.jni.com_android_server_UsbMidiDevice.c'
p1348
sg15
(lp1349
sg17
(lp1350
sg19
(lp1351
sg21
I0
sba(iArchitecture
Entity
p1352
(dp1353
g11
(lp1354
sg13
S'services.core.jni.com_android_server_VibratorService.c'
p1355
sg15
(lp1356
sg17
(lp1357
sg19
(lp1358
sg21
I0
sba(iArchitecture
Entity
p1359
(dp1360
g11
(lp1361
sg13
S'services.core.jni.com_android_server_am_ActivityManagerService.c'
p1362
sg15
(lp1363
sg17
(lp1364
sg19
(lp1365
sg21
I0
sba(iArchitecture
Entity
p1366
(dp1367
g11
(lp1368
sg13
S'services.core.jni.com_android_server_am_BatteryStatsService.c'
p1369
sg15
(lp1370
sg17
(lp1371
sg19
(lp1372
sg21
I0
sba(iArchitecture
Entity
p1373
(dp1374
g11
(lp1375
sg13
S'services.core.jni.com_android_server_connectivity_Vpn.c'
p1376
sg15
(lp1377
sg17
(lp1378
sg19
(lp1379
sg21
I0
sba(iArchitecture
Entity
p1380
(dp1381
g11
(lp1382
sg13
S'services.core.jni.com_android_server_fingerprint_FingerprintService.c'
p1383
sg15
(lp1384
sg17
(lp1385
sg19
(lp1386
sg21
I0
sba(iArchitecture
Entity
p1387
(dp1388
g11
(lp1389
sg13
S'services.core.jni.com_android_server_hdmi_HdmiCecController.c'
p1390
sg15
(lp1391
sg17
(lp1392
sg19
(lp1393
sg21
I0
sba(iArchitecture
Entity
p1394
(dp1395
g11
(lp1396
sg13
S'services.core.jni.com_android_server_input_InputManagerService.c'
p1397
sg15
(lp1398
sg17
(lp1399
sg19
(lp1400
sg21
I0
sba(iArchitecture
Entity
p1401
(dp1402
g11
(lp1403
sg13
S'services.core.jni.com_android_server_lights_LightsService.c'
p1404
sg15
(lp1405
sg17
(lp1406
sg19
(lp1407
sg21
I0
sba(iArchitecture
Entity
p1408
(dp1409
g11
(lp1410
sg13
S'services.core.jni.com_android_server_location_FlpHardwareProvider.c'
p1411
sg15
(lp1412
sg17
(lp1413
sg19
(lp1414
sg21
I0
sba(iArchitecture
Entity
p1415
(dp1416
g11
(lp1417
sg13
S'services.core.jni.com_android_server_location_GnssLocationProvider.c'
p1418
sg15
(lp1419
sg17
(lp1420
sg19
(lp1421
sg21
I0
sba(iArchitecture
Entity
p1422
(dp1423
g11
(lp1424
sg13
S'services.core.jni.com_android_server_tv_TvInputHal.c'
p1425
sg15
(lp1426
sg17
(lp1427
sg19
(lp1428
sg21
I0
sba(iArchitecture
Entity
p1429
(dp1430
g11
(lp1431
sg13
S'services.core.jni.com_android_server_vr_VrManagerService.c'
p1432
sg15
(lp1433
sg17
(lp1434
sg19
(lp1435
sg21
I0
sba(iArchitecture
Entity
p1436
(dp1437
g11
(lp1438
sg13
S'services.tests.servicestests.jni.apf_jni.c'
p1439
sg15
(lp1440
sg17
(lp1441
sg19
(lp1442
sg21
I0
sba(iArchitecture
Entity
p1443
(dp1444
g11
(lp1445
sg13
S'tests.backup.backup_helper_test.c'
p1446
sg15
(lp1447
sg17
(lp1448
sg19
(lp1449
sg21
I0
sba(iArchitecture
Entity
p1450
(dp1451
g11
(lp1452
sg13
S'tools.aapt.ConfigDescription.h'
p1453
sg15
(lp1454
sg17
(lp1455
sg19
(lp1456
sg21
I0
sba(iArchitecture
Entity
p1457
(dp1458
g11
(lp1459
sg13
S'tools.aapt.tests.AaptConfig_test.c'
p1460
sg15
(lp1461
sg17
(lp1462
sg19
(lp1463
sg21
I0
sba(iArchitecture
Entity
p1464
(dp1465
g11
(lp1466
sg13
S'tools.aapt.tests.AaptGroupEntry_test.c'
p1467
sg15
(lp1468
sg17
(lp1469
sg19
(lp1470
sg21
I0
sba(iArchitecture
Entity
p1471
(dp1472
g11
(lp1473
sg13
S'tools.aapt.tests.ResourceFilter_test.c'
p1474
sg15
(lp1475
sg17
(lp1476
sg19
(lp1477
sg21
I0
sba(iArchitecture
Entity
p1478
(dp1479
g11
(lp1480
sg13
S'tools.aapt2.ConfigDescription.c'
p1481
sg15
(lp1482
sg17
(lp1483
sg19
(lp1484
sg21
I0
sba(iArchitecture
Entity
p1485
(dp1486
g11
(lp1487
sg13
S'tools.aapt2.ConfigDescription_test.c'
p1488
sg15
(lp1489
sg17
(lp1490
sg19
(lp1491
sg21
I0
sba(iArchitecture
Entity
p1492
(dp1493
g11
(lp1494
sg13
S'tools.aapt2.Locale_test.c'
p1495
sg15
(lp1496
sg17
(lp1497
sg19
(lp1498
sg21
I0
sba(iArchitecture
Entity
p1499
(dp1500
g11
(lp1501
sg13
S'tools.aapt2.Main.c'
p1502
sg15
(lp1503
sg17
(lp1504
sg19
(lp1505
sg21
I0
sba(iArchitecture
Entity
p1506
(dp1507
g11
(lp1508
sg13
S'tools.aapt2.NameMangler_test.c'
p1509
sg15
(lp1510
sg17
(lp1511
sg19
(lp1512
sg21
I0
sba(iArchitecture
Entity
p1513
(dp1514
g11
(lp1515
sg13
S'tools.aapt2.Resource_test.c'
p1516
sg15
(lp1517
sg17
(lp1518
sg19
(lp1519
sg21
I0
sba(iArchitecture
Entity
p1520
(dp1521
g11
(lp1522
sg13
S'tools.obbtool.Main.c'
p1523
sg15
(lp1524
sg17
(lp1525
sg19
(lp1526
sg21
I0
sba(iArchitecture
Entity
p1527
(dp1528
g11
(lp1529
sg13
S'tools.split-select.Grouper_test.c'
p1530
sg15
(lp1531
sg17
(lp1532
sg19
(lp1533
sg21
I0
sba(iArchitecture
Entity
p1534
(dp1535
g11
(lp1536
sg13
S'tools.split-select.Main.c'
p1537
sg15
(lp1538
sg17
(lp1539
sg19
(lp1540
sg21
I0
sba(iArchitecture
Entity
p1541
(dp1542
g11
(lp1543
sg13
S'tools.split-select.RuleGenerator_test.c'
p1544
sg15
(lp1545
sg17
(lp1546
sg19
(lp1547
sg21
I0
sba(iArchitecture
Entity
p1548
(dp1549
g11
(lp1550
sg13
S'tools.split-select.Rule_test.c'
p1551
sg15
(lp1552
sg17
(lp1553
sg19
(lp1554
sg21
I0
sba(iArchitecture
Entity
p1555
(dp1556
g11
(lp1557
sg13
S'tools.split-select.SplitSelector_test.c'
p1558
sg15
(lp1559
sg17
(lp1560
sg19
(lp1561
sg21
I0
sba(iArchitecture
Entity
p1562
(dp1563
g11
(lp1564
sg13
S'tools.split-select.TestRules.c'
p1565
sg15
(lp1566
sg17
(lp1567
sg19
(lp1568
sg21
I0
sba(iArchitecture
Entity
p1569
(dp1570
g11
(lp1571
sg13
S'tools.split-select.TestRules.h'
p1572
sg15
(lp1573
sg17
(lp1574
sg19
(lp1575
sg21
I0
sba(iArchitecture
Entity
p1576
(dp1577
g11
(lp1578
sg13
S'tools.validatekeymaps.Main.c'
p1579
sg15
(lp1580
sg17
(lp1581
sg19
(lp1582
sg21
I0
sbasS'classes'
p1583
(lp1584
g14
ag25
ag32
ag39
ag46
ag53
ag60
ag67
ag74
ag81
ag88
ag95
ag102
ag109
ag116
ag123
ag130
ag137
ag144
ag151
ag158
ag165
ag172
ag179
ag186
ag193
ag200
ag207
ag214
ag221
ag228
ag235
ag242
ag249
ag256
ag263
ag270
ag277
ag284
ag291
ag298
ag305
ag312
ag319
ag326
ag333
ag340
ag347
ag354
ag361
ag368
ag375
ag382
ag389
ag396
ag403
ag410
ag417
ag424
ag431
ag438
ag445
ag452
ag459
ag466
ag473
ag480
ag487
ag494
ag501
ag508
ag515
ag522
ag529
ag536
ag543
ag550
ag557
ag564
ag571
ag578
ag585
ag592
ag599
ag606
ag613
ag620
ag627
ag634
ag641
ag648
ag655
ag662
ag669
ag676
ag683
ag690
ag697
ag704
ag711
ag718
ag725
ag732
ag739
ag746
ag753
ag760
ag767
ag774
ag781
ag788
ag795
ag802
ag809
ag816
ag823
ag830
ag837
ag844
ag851
ag858
ag865
ag872
ag879
ag886
ag893
ag900
ag907
ag914
ag921
ag928
ag935
ag942
ag949
ag956
ag963
ag970
ag977
ag984
ag991
ag998
ag1005
ag1012
ag1019
ag1026
ag1033
ag1040
ag1047
ag1054
ag1061
ag1068
ag1075
ag1082
ag1089
ag1096
ag1103
ag1110
ag1117
ag1124
ag1131
ag1138
ag1145
ag1152
ag1159
ag1166
ag1173
ag1180
ag1187
ag1194
ag1201
ag1208
ag1215
ag1222
ag1229
ag1236
ag1243
ag1250
ag1257
ag1264
ag1271
ag1278
ag1285
ag1292
ag1299
ag1306
ag1313
ag1320
ag1327
ag1334
ag1341
ag1348
ag1355
ag1362
ag1369
ag1376
ag1383
ag1390
ag1397
ag1404
ag1411
ag1418
ag1425
ag1432
ag1439
ag1446
ag1453
ag1460
ag1467
ag1474
ag1481
ag1488
ag1495
ag1502
ag1509
ag1516
ag1523
ag1530
ag1537
ag1544
ag1551
ag1558
ag1565
ag1572
ag1579
asg21
I0
sS'label'
p1585
S'tools.split-select.TestRules.ch'
p1586
sbasS'target_sub'
p1587
S'tools.split-select.TestRules.ch'
p1588
sg1583
(lp1589
sS'is_component_arch'
p1590
I01
sg1585
S'7.0.0_r1'
p1591
sba.