(lp0
(iArchitecture
Architecture
p1
(dp2
S'clusters'
p3
(lp4
sS'target_sub'
p5
S'core.jni.android.graphics.AvoidXfermode.ch'
p6
sS'classes'
p7
(lp8
sS'is_component_arch'
p9
I01
sS'label'
p10
S'7.0.0_r1'
p11
sba.