(lp0
(iArchitecture
Architecture
p1
(dp2
S'clusters'
p3
(lp4
(iArchitecture
Cluster
p5
(dp6
S'entities'
p7
(lp8
(iArchitecture
Entity
p9
(dp10
S'issue_ids'
p11
(lp12
sS'name'
p13
S'modules.camera.CameraHAL.c'
p14
sS'descs'
p15
(lp16
sS'labels'
p17
(lp18
sS'titles'
p19
(lp20
sS'change'
p21
I0
sba(iArchitecture
Entity
p22
(dp23
g11
(lp24
sg13
S'modules.camera.CameraHAL.h'
p25
sg15
(lp26
sg17
(lp27
sg19
(lp28
sg21
I0
sbasS'classes'
p29
(lp30
g14
ag25
asg21
I0
sS'label'
p31
S'modules.camera.CameraHAL.ch'
p32
sba(iArchitecture
Cluster
p33
(dp34
g7
(lp35
(iArchitecture
Entity
p36
(dp37
g11
(lp38
sg13
S'modules.camera.ExampleCamera.c'
p39
sg15
(lp40
sg17
(lp41
sg19
(lp42
sg21
I0
sba(iArchitecture
Entity
p43
(dp44
g11
(lp45
sg13
S'modules.camera.ExampleCamera.h'
p46
sg15
(lp47
sg17
(lp48
sg19
(lp49
sg21
I0
sbasg29
(lp50
g39
ag46
asg21
I0
sg31
S'modules.camera.ExampleCamera.ch'
p51
sba(iArchitecture
Cluster
p52
(dp53
g7
(lp54
(iArchitecture
Entity
p55
(dp56
g11
(lp57
sg13
S'modules.camera.Metadata.c'
p58
sg15
(lp59
sg17
(lp60
sg19
(lp61
sg21
I0
sba(iArchitecture
Entity
p62
(dp63
g11
(lp64
sg13
S'modules.camera.Metadata.h'
p65
sg15
(lp66
sg17
(lp67
sg19
(lp68
sg21
I0
sbasg29
(lp69
g58
ag65
asg21
I0
sg31
S'modules.camera.Metadata.ch'
p70
sba(iArchitecture
Cluster
p71
(dp72
g7
(lp73
(iArchitecture
Entity
p74
(dp75
g11
(lp76
sg13
S'modules.camera.Stream.c'
p77
sg15
(lp78
sg17
(lp79
sg19
(lp80
sg21
I0
sba(iArchitecture
Entity
p81
(dp82
g11
(lp83
sg13
S'modules.camera.Stream.h'
p84
sg15
(lp85
sg17
(lp86
sg19
(lp87
sg21
I0
sbasg29
(lp88
g77
ag84
asg21
I0
sg31
S'modules.camera.Stream.ch'
p89
sba(iArchitecture
Cluster
p90
(dp91
g7
(lp92
(iArchitecture
Entity
p93
(dp94
g11
(lp95
sg13
S'modules.camera.VendorTags.c'
p96
sg15
(lp97
sg17
(lp98
sg19
(lp99
sg21
I0
sba(iArchitecture
Entity
p100
(dp101
g11
(lp102
sg13
S'modules.camera.VendorTags.h'
p103
sg15
(lp104
sg17
(lp105
sg19
(lp106
sg21
I0
sbasg29
(lp107
g96
ag103
asg21
I0
sg31
S'modules.camera.VendorTags.ch'
p108
sba(iArchitecture
Cluster
p109
(dp110
g7
(lp111
(iArchitecture
Entity
p112
(dp113
g11
(lp114
sg13
S'modules.camera.Camera.c'
p115
sg15
(lp116
sg17
(lp117
sg19
(lp118
sg21
I0
sbasg29
(lp119
g115
asg21
I0
sg31
S'tests.camera3.camera3tests.ss'
p120
sbasS'target_sub'
p121
S'modules.camera'
p122
sg29
(lp123
sS'is_component_arch'
p124
I00
sg31
S'6.0.0_r1'
p125
sba(iArchitecture
Architecture
p126
(dp127
g3
(lp128
(iArchitecture
Cluster
p129
(dp130
g7
(lp131
(iArchitecture
Entity
p132
(dp133
g11
(lp134
sg13
S'modules.camera.CameraHAL.c'
p135
sg15
(lp136
sg17
(lp137
sg19
(lp138
sg21
I0
sba(iArchitecture
Entity
p139
(dp140
g11
(lp141
sg13
S'modules.camera.CameraHAL.h'
p142
sg15
(lp143
sg17
(lp144
sg19
(lp145
sg21
I0
sbasg29
(lp146
g135
ag142
asg21
I0
sg31
S'modules.camera.CameraHAL.ch'
p147
sba(iArchitecture
Cluster
p148
(dp149
g7
(lp150
(iArchitecture
Entity
p151
(dp152
g11
(lp153
sg13
S'modules.camera.ExampleCamera.c'
p154
sg15
(lp155
sg17
(lp156
sg19
(lp157
sg21
I0
sba(iArchitecture
Entity
p158
(dp159
g11
(lp160
sg13
S'modules.camera.ExampleCamera.h'
p161
sg15
(lp162
sg17
(lp163
sg19
(lp164
sg21
I0
sbasg29
(lp165
g154
ag161
asg21
I0
sg31
S'modules.camera.ExampleCamera.ch'
p166
sba(iArchitecture
Cluster
p167
(dp168
g7
(lp169
(iArchitecture
Entity
p170
(dp171
g11
(lp172
sg13
S'modules.camera.Metadata.c'
p173
sg15
(lp174
sg17
(lp175
sg19
(lp176
sg21
I0
sba(iArchitecture
Entity
p177
(dp178
g11
(lp179
sg13
S'modules.camera.Metadata.h'
p180
sg15
(lp181
sg17
(lp182
sg19
(lp183
sg21
I0
sbasg29
(lp184
g173
ag180
asg21
I0
sg31
S'modules.camera.Metadata.ch'
p185
sba(iArchitecture
Cluster
p186
(dp187
g7
(lp188
(iArchitecture
Entity
p189
(dp190
g11
(lp191
sg13
S'modules.camera.Stream.c'
p192
sg15
(lp193
sg17
(lp194
sg19
(lp195
sg21
I0
sba(iArchitecture
Entity
p196
(dp197
g11
(lp198
sg13
S'modules.camera.Stream.h'
p199
sg15
(lp200
sg17
(lp201
sg19
(lp202
sg21
I0
sbasg29
(lp203
g192
ag199
asg21
I0
sg31
S'modules.camera.Stream.ch'
p204
sba(iArchitecture
Cluster
p205
(dp206
g7
(lp207
(iArchitecture
Entity
p208
(dp209
g11
(lp210
sg13
S'modules.camera.VendorTags.c'
p211
sg15
(lp212
sg17
(lp213
sg19
(lp214
sg21
I0
sba(iArchitecture
Entity
p215
(dp216
g11
(lp217
sg13
S'modules.camera.VendorTags.h'
p218
sg15
(lp219
sg17
(lp220
sg19
(lp221
sg21
I0
sbasg29
(lp222
g211
ag218
asg21
I0
sg31
S'modules.camera.VendorTags.ch'
p223
sba(iArchitecture
Cluster
p224
(dp225
g7
(lp226
(iArchitecture
Entity
p227
(dp228
g11
(lp229
sg13
S'modules.camera.Camera.c'
p230
sg15
(lp231
sg17
(lp232
sg19
(lp233
sg21
I0
sbasg29
(lp234
g230
asg21
I0
sg31
S'tests.camera3.camera3tests.ss'
p235
sbasg121
g122
sg29
(lp236
sg124
I00
sg31
S'7.0.0_r1'
p237
sba.