(lp0
(iArchitecture
Architecture
p1
(dp2
S'clusters'
p3
(lp4
(iArchitecture
Cluster
p5
(dp6
S'entities'
p7
(lp8
(iArchitecture
Entity
p9
(dp10
S'issue_ids'
p11
(lp12
sS'name'
p13
S'modules.input.evdev.InputDevice.c'
p14
sS'descs'
p15
(lp16
sS'labels'
p17
(lp18
sS'titles'
p19
(lp20
sS'change'
p21
I0
sba(iArchitecture
Entity
p22
(dp23
g11
(lp24
sg13
S'modules.input.evdev.InputDevice.h'
p25
sg15
(lp26
sg17
(lp27
sg19
(lp28
sg21
I0
sbasS'classes'
p29
(lp30
g14
ag25
asg21
I0
sS'label'
p31
S'modules.input.evdev.InputDevice.ch'
p32
sba(iArchitecture
Cluster
p33
(dp34
g7
(lp35
(iArchitecture
Entity
p36
(dp37
g11
(lp38
sg13
S'modules.input.evdev.InputDeviceManager.c'
p39
sg15
(lp40
sg17
(lp41
sg19
(lp42
sg21
I0
sba(iArchitecture
Entity
p43
(dp44
g11
(lp45
sg13
S'modules.input.evdev.InputDeviceManager.h'
p46
sg15
(lp47
sg17
(lp48
sg19
(lp49
sg21
I0
sbasg29
(lp50
g39
ag46
asg21
I0
sg31
S'modules.input.evdev.InputDeviceManager.ch'
p51
sba(iArchitecture
Cluster
p52
(dp53
g7
(lp54
(iArchitecture
Entity
p55
(dp56
g11
(lp57
sg13
S'modules.input.evdev.InputHost.c'
p58
sg15
(lp59
sg17
(lp60
sg19
(lp61
sg21
I0
sba(iArchitecture
Entity
p62
(dp63
g11
(lp64
sg13
S'modules.input.evdev.InputHost.h'
p65
sg15
(lp66
sg17
(lp67
sg19
(lp68
sg21
I0
sbasg29
(lp69
g58
ag65
asg21
I0
sg31
S'modules.input.evdev.InputHost.ch'
p70
sba(iArchitecture
Cluster
p71
(dp72
g7
(lp73
(iArchitecture
Entity
p74
(dp75
g11
(lp76
sg13
S'modules.input.evdev.EvdevModule.c'
p77
sg15
(lp78
sg17
(lp79
sg19
(lp80
sg21
I0
sba(iArchitecture
Entity
p81
(dp82
g11
(lp83
sg13
S'modules.input.evdev.InputHub.c'
p84
sg15
(lp85
sg17
(lp86
sg19
(lp87
sg21
I0
sba(iArchitecture
Entity
p88
(dp89
g11
(lp90
sg13
S'modules.input.evdev.InputHub.h'
p91
sg15
(lp92
sg17
(lp93
sg19
(lp94
sg21
I0
sbasg29
(lp95
g77
ag84
ag91
asg21
I0
sg31
S'modules.input.evdev.InputHub.ch'
p96
sbasS'target_sub'
p97
S'modules.input'
p98
sg29
(lp99
sS'is_component_arch'
p100
I00
sg31
S'6.0.0_r1'
p101
sba(iArchitecture
Architecture
p102
(dp103
g3
(lp104
(iArchitecture
Cluster
p105
(dp106
g7
(lp107
(iArchitecture
Entity
p108
(dp109
g11
(lp110
sg13
S'modules.input.evdev.BitUtils.c'
p111
sg15
(lp112
sg17
(lp113
sg19
(lp114
sg21
I0
sba(iArchitecture
Entity
p115
(dp116
g11
(lp117
sg13
S'modules.input.evdev.BitUtils.h'
p118
sg15
(lp119
sg17
(lp120
sg19
(lp121
sg21
I0
sbasg29
(lp122
g111
ag118
asg21
I0
sg31
S'modules.input.evdev.BitUtils.ch'
p123
sba(iArchitecture
Cluster
p124
(dp125
g7
(lp126
(iArchitecture
Entity
p127
(dp128
g11
(lp129
sg13
S'modules.input.evdev.InputDevice.c'
p130
sg15
(lp131
sg17
(lp132
sg19
(lp133
sg21
I0
sba(iArchitecture
Entity
p134
(dp135
g11
(lp136
sg13
S'modules.input.evdev.InputDevice.h'
p137
sg15
(lp138
sg17
(lp139
sg19
(lp140
sg21
I0
sbasg29
(lp141
g130
ag137
asg21
I0
sg31
S'modules.input.evdev.InputDevice.ch'
p142
sba(iArchitecture
Cluster
p143
(dp144
g7
(lp145
(iArchitecture
Entity
p146
(dp147
g11
(lp148
sg13
S'modules.input.evdev.InputDeviceManager.c'
p149
sg15
(lp150
sg17
(lp151
sg19
(lp152
sg21
I0
sba(iArchitecture
Entity
p153
(dp154
g11
(lp155
sg13
S'modules.input.evdev.InputDeviceManager.h'
p156
sg15
(lp157
sg17
(lp158
sg19
(lp159
sg21
I0
sbasg29
(lp160
g149
ag156
asg21
I0
sg31
S'modules.input.evdev.InputDeviceManager.ch'
p161
sba(iArchitecture
Cluster
p162
(dp163
g7
(lp164
(iArchitecture
Entity
p165
(dp166
g11
(lp167
sg13
S'modules.input.evdev.InputHost.c'
p168
sg15
(lp169
sg17
(lp170
sg19
(lp171
sg21
I0
sba(iArchitecture
Entity
p172
(dp173
g11
(lp174
sg13
S'modules.input.evdev.InputHost.h'
p175
sg15
(lp176
sg17
(lp177
sg19
(lp178
sg21
I0
sbasg29
(lp179
g168
ag175
asg21
I0
sg31
S'modules.input.evdev.InputHost.ch'
p180
sba(iArchitecture
Cluster
p181
(dp182
g7
(lp183
(iArchitecture
Entity
p184
(dp185
g11
(lp186
sg13
S'modules.input.evdev.EvdevModule.c'
p187
sg15
(lp188
sg17
(lp189
sg19
(lp190
sg21
I0
sba(iArchitecture
Entity
p191
(dp192
g11
(lp193
sg13
S'modules.input.evdev.InputHub.c'
p194
sg15
(lp195
sg17
(lp196
sg19
(lp197
sg21
I0
sba(iArchitecture
Entity
p198
(dp199
g11
(lp200
sg13
S'modules.input.evdev.InputHub.h'
p201
sg15
(lp202
sg17
(lp203
sg19
(lp204
sg21
I0
sbasg29
(lp205
g187
ag194
ag201
asg21
I0
sg31
S'modules.input.evdev.InputHub.ch'
p206
sba(iArchitecture
Cluster
p207
(dp208
g7
(lp209
(iArchitecture
Entity
p210
(dp211
g11
(lp212
sg13
S'modules.input.evdev.InputMapper.c'
p213
sg15
(lp214
sg17
(lp215
sg19
(lp216
sg21
I0
sba(iArchitecture
Entity
p217
(dp218
g11
(lp219
sg13
S'modules.input.evdev.InputMapper.h'
p220
sg15
(lp221
sg17
(lp222
sg19
(lp223
sg21
I0
sbasg29
(lp224
g213
ag220
asg21
I0
sg31
S'modules.input.evdev.InputMapper.ch'
p225
sba(iArchitecture
Cluster
p226
(dp227
g7
(lp228
(iArchitecture
Entity
p229
(dp230
g11
(lp231
sg13
S'modules.input.evdev.MouseInputMapper.c'
p232
sg15
(lp233
sg17
(lp234
sg19
(lp235
sg21
I0
sba(iArchitecture
Entity
p236
(dp237
g11
(lp238
sg13
S'modules.input.evdev.MouseInputMapper.h'
p239
sg15
(lp240
sg17
(lp241
sg19
(lp242
sg21
I0
sbasg29
(lp243
g232
ag239
asg21
I0
sg31
S'modules.input.evdev.MouseInputMapper.ch'
p244
sba(iArchitecture
Cluster
p245
(dp246
g7
(lp247
(iArchitecture
Entity
p248
(dp249
g11
(lp250
sg13
S'modules.input.evdev.SwitchInputMapper.c'
p251
sg15
(lp252
sg17
(lp253
sg19
(lp254
sg21
I0
sba(iArchitecture
Entity
p255
(dp256
g11
(lp257
sg13
S'modules.input.evdev.SwitchInputMapper.h'
p258
sg15
(lp259
sg17
(lp260
sg19
(lp261
sg21
I0
sbasg29
(lp262
g251
ag258
asg21
I0
sg31
S'modules.input.evdev.SwitchInputMapper.ch'
p263
sbasg97
g98
sg29
(lp264
sg100
I00
sg31
S'7.0.0_r1'
p265
sba.