(lp0
(iArchitecture
Architecture
p1
(dp2
S'clusters'
p3
(lp4
(iArchitecture
Cluster
p5
(dp6
S'entities'
p7
(lp8
(iArchitecture
Entity
p9
(dp10
S'issue_ids'
p11
(lp12
sS'name'
p13
S'include.hardware.audio_policy.h'
p14
sS'descs'
p15
(lp16
sS'labels'
p17
(lp18
sS'titles'
p19
(lp20
sS'change'
p21
I0
sbasS'classes'
p22
(lp23
g14
asg21
I0
sS'label'
p24
S'modules.audio.audio_policy.ss'
p25
sba(iArchitecture
Cluster
p26
(dp27
g7
(lp28
(iArchitecture
Entity
p29
(dp30
g11
(lp31
sg13
S'include.hardware.input.h'
p32
sg15
(lp33
sg17
(lp34
sg19
(lp35
sg21
I0
sbasg22
(lp36
g32
asg21
I0
sg24
S'modules.input.evdev.InputHub.ch'
p37
sba(iArchitecture
Cluster
p38
(dp39
g7
(lp40
(iArchitecture
Entity
p41
(dp42
g11
(lp43
sg13
S'include.hardware.local_time_hal.h'
p44
sg15
(lp45
sg17
(lp46
sg19
(lp47
sg21
I0
sbasg22
(lp48
g44
asg21
I0
sg24
S'modules.local_time.local_time_hw.ss'
p49
sba(iArchitecture
Cluster
p50
(dp51
g7
(lp52
(iArchitecture
Entity
p53
(dp54
g11
(lp55
sg13
S'include.hardware.power.h'
p56
sg15
(lp57
sg17
(lp58
sg19
(lp59
sg21
I0
sbasg22
(lp60
g56
asg21
I0
sg24
S'modules.power.power.ss'
p61
sba(iArchitecture
Cluster
p62
(dp63
g7
(lp64
(iArchitecture
Entity
p65
(dp66
g11
(lp67
sg13
S'include.hardware.radio.h'
p68
sg15
(lp69
sg17
(lp70
sg19
(lp71
sg21
I0
sbasg22
(lp72
g68
asg21
I0
sg24
S'modules.radio.radio_hw.ss'
p73
sba(iArchitecture
Cluster
p74
(dp75
g7
(lp76
(iArchitecture
Entity
p77
(dp78
g11
(lp79
sg13
S'include.hardware.sensors.h'
p80
sg15
(lp81
sg17
(lp82
sg19
(lp83
sg21
I0
sbasg22
(lp84
g80
asg21
I0
sg24
S'modules.sensors.SensorEventQueue.ch'
p85
sba(iArchitecture
Cluster
p86
(dp87
g7
(lp88
(iArchitecture
Entity
p89
(dp90
g11
(lp91
sg13
S'include.hardware.sound_trigger.h'
p92
sg15
(lp93
sg17
(lp94
sg19
(lp95
sg21
I0
sbasg22
(lp96
g92
asg21
I0
sg24
S'modules.soundtrigger.sound_trigger_hw.ss'
p97
sba(iArchitecture
Cluster
p98
(dp99
g7
(lp100
(iArchitecture
Entity
p101
(dp102
g11
(lp103
sg13
S'include.hardware.tv_input.h'
p104
sg15
(lp105
sg17
(lp106
sg19
(lp107
sg21
I0
sbasg22
(lp108
g104
asg21
I0
sg24
S'modules.tv_input.tv_input.ss'
p109
sba(iArchitecture
Cluster
p110
(dp111
g7
(lp112
(iArchitecture
Entity
p113
(dp114
g11
(lp115
sg13
S'include.hardware.audio.h'
p116
sg15
(lp117
sg17
(lp118
sg19
(lp119
sg21
I0
sba(iArchitecture
Entity
p120
(dp121
g11
(lp122
sg13
S'include.hardware.audio_alsaops.h'
p123
sg15
(lp124
sg17
(lp125
sg19
(lp126
sg21
I0
sba(iArchitecture
Entity
p127
(dp128
g11
(lp129
sg13
S'include.hardware.audio_effect.h'
p130
sg15
(lp131
sg17
(lp132
sg19
(lp133
sg21
I0
sbasg22
(lp134
g116
ag123
ag130
asg21
I0
sg24
S'modules.usbaudio.audio_hal.ss'
p135
sba(iArchitecture
Cluster
p136
(dp137
g7
(lp138
(iArchitecture
Entity
p139
(dp140
g11
(lp141
sg13
S'include.hardware.vibrator.h'
p142
sg15
(lp143
sg17
(lp144
sg19
(lp145
sg21
I0
sbasg22
(lp146
g142
asg21
I0
sg24
S'modules.vibrator.vibrator.ss'
p147
sba(iArchitecture
Cluster
p148
(dp149
g7
(lp150
(iArchitecture
Entity
p151
(dp152
g11
(lp153
sg13
S'include.hardware.camera2.h'
p154
sg15
(lp155
sg17
(lp156
sg19
(lp157
sg21
I0
sbasg22
(lp158
g154
asg21
I0
sg24
S'tests.camera2.camera2_utils.ch'
p159
sba(iArchitecture
Cluster
p160
(dp161
g7
(lp162
(iArchitecture
Entity
p163
(dp164
g11
(lp165
sg13
S'include.hardware.camera.h'
p166
sg15
(lp167
sg17
(lp168
sg19
(lp169
sg21
I0
sba(iArchitecture
Entity
p170
(dp171
g11
(lp172
sg13
S'include.hardware.camera3.h'
p173
sg15
(lp174
sg17
(lp175
sg19
(lp176
sg21
I0
sba(iArchitecture
Entity
p177
(dp178
g11
(lp179
sg13
S'include.hardware.camera_common.h'
p180
sg15
(lp181
sg17
(lp182
sg19
(lp183
sg21
I0
sba(iArchitecture
Entity
p184
(dp185
g11
(lp186
sg13
S'include.hardware.consumerir.h'
p187
sg15
(lp188
sg17
(lp189
sg19
(lp190
sg21
I0
sba(iArchitecture
Entity
p191
(dp192
g11
(lp193
sg13
S'include.hardware.fb.h'
p194
sg15
(lp195
sg17
(lp196
sg19
(lp197
sg21
I0
sba(iArchitecture
Entity
p198
(dp199
g11
(lp200
sg13
S'include.hardware.gralloc.h'
p201
sg15
(lp202
sg17
(lp203
sg19
(lp204
sg21
I0
sba(iArchitecture
Entity
p205
(dp206
g11
(lp207
sg13
S'include.hardware.hwcomposer.h'
p208
sg15
(lp209
sg17
(lp210
sg19
(lp211
sg21
I0
sba(iArchitecture
Entity
p212
(dp213
g11
(lp214
sg13
S'include.hardware.hwcomposer_defs.h'
p215
sg15
(lp216
sg17
(lp217
sg19
(lp218
sg21
I0
sbasg22
(lp219
g166
ag173
ag180
ag187
ag194
ag201
ag208
ag215
asg21
I0
sg24
S'tests.camera3.camera3tests.ss'
p220
sba(iArchitecture
Cluster
p221
(dp222
g7
(lp223
(iArchitecture
Entity
p224
(dp225
g11
(lp226
sg13
S'include.hardware.fingerprint.h'
p227
sg15
(lp228
sg17
(lp229
sg19
(lp230
sg21
I0
sba(iArchitecture
Entity
p231
(dp232
g11
(lp233
sg13
S'include.hardware.hw_auth_token.h'
p234
sg15
(lp235
sg17
(lp236
sg19
(lp237
sg21
I0
sbasg22
(lp238
g227
ag234
asg21
I0
sg24
S'tests.fingerprint.fingerprint_tests.ss'
p239
sba(iArchitecture
Cluster
p240
(dp241
g7
(lp242
(iArchitecture
Entity
p243
(dp244
g11
(lp245
sg13
S'include.hardware.hardware.h'
p246
sg15
(lp247
sg17
(lp248
sg19
(lp249
sg21
I0
sba(iArchitecture
Entity
p250
(dp251
g11
(lp252
sg13
S'include.hardware.keymaster0.h'
p253
sg15
(lp254
sg17
(lp255
sg19
(lp256
sg21
I0
sba(iArchitecture
Entity
p257
(dp258
g11
(lp259
sg13
S'include.hardware.keymaster_common.h'
p260
sg15
(lp261
sg17
(lp262
sg19
(lp263
sg21
I0
sba(iArchitecture
Entity
p264
(dp265
g11
(lp266
sg13
S'include.hardware.nfc.h'
p267
sg15
(lp268
sg17
(lp269
sg19
(lp270
sg21
I0
sbasg22
(lp271
g246
ag253
ag260
ag267
asg21
I0
sg24
S'tests.keymaster.keymaster_test.ss'
p272
sbasS'target_sub'
p273
S'include.hardware'
p274
sg22
(lp275
sS'is_component_arch'
p276
I00
sg24
S'6.0.0_r1'
p277
sba(iArchitecture
Architecture
p278
(dp279
g3
(lp280
(iArchitecture
Cluster
p281
(dp282
g7
(lp283
(iArchitecture
Entity
p284
(dp285
g11
(lp286
sg13
S'include.hardware.audio_policy.h'
p287
sg15
(lp288
sg17
(lp289
sg19
(lp290
sg21
I0
sbasg22
(lp291
g287
asg21
I0
sg24
S'modules.audio.audio_policy.ss'
p292
sba(iArchitecture
Cluster
p293
(dp294
g7
(lp295
(iArchitecture
Entity
p296
(dp297
g11
(lp298
sg13
S'include.hardware.local_time_hal.h'
p299
sg15
(lp300
sg17
(lp301
sg19
(lp302
sg21
I0
sbasg22
(lp303
g299
asg21
I0
sg24
S'modules.local_time.local_time_hw.ss'
p304
sba(iArchitecture
Cluster
p305
(dp306
g7
(lp307
(iArchitecture
Entity
p308
(dp309
g11
(lp310
sg13
S'include.hardware.power.h'
p311
sg15
(lp312
sg17
(lp313
sg19
(lp314
sg21
I0
sbasg22
(lp315
g311
asg21
I0
sg24
S'modules.power.power.ss'
p316
sba(iArchitecture
Cluster
p317
(dp318
g7
(lp319
(iArchitecture
Entity
p320
(dp321
g11
(lp322
sg13
S'include.hardware.sensors.h'
p323
sg15
(lp324
sg17
(lp325
sg19
(lp326
sg21
I0
sbasg22
(lp327
g323
asg21
I0
sg24
S'modules.sensors.SensorEventQueue.ch'
p328
sba(iArchitecture
Cluster
p329
(dp330
g7
(lp331
(iArchitecture
Entity
p332
(dp333
g11
(lp334
sg13
S'include.hardware.sound_trigger.h'
p335
sg15
(lp336
sg17
(lp337
sg19
(lp338
sg21
I0
sbasg22
(lp339
g335
asg21
I0
sg24
S'modules.soundtrigger.sound_trigger_hw.ss'
p340
sba(iArchitecture
Cluster
p341
(dp342
g7
(lp343
(iArchitecture
Entity
p344
(dp345
g11
(lp346
sg13
S'include.hardware.thermal.h'
p347
sg15
(lp348
sg17
(lp349
sg19
(lp350
sg21
I0
sbasg22
(lp351
g347
asg21
I0
sg24
S'modules.thermal.thermal.ss'
p352
sba(iArchitecture
Cluster
p353
(dp354
g7
(lp355
(iArchitecture
Entity
p356
(dp357
g11
(lp358
sg13
S'include.hardware.tv_input.h'
p359
sg15
(lp360
sg17
(lp361
sg19
(lp362
sg21
I0
sbasg22
(lp363
g359
asg21
I0
sg24
S'modules.tv_input.tv_input.ss'
p364
sba(iArchitecture
Cluster
p365
(dp366
g7
(lp367
(iArchitecture
Entity
p368
(dp369
g11
(lp370
sg13
S'include.hardware.audio.h'
p371
sg15
(lp372
sg17
(lp373
sg19
(lp374
sg21
I0
sba(iArchitecture
Entity
p375
(dp376
g11
(lp377
sg13
S'include.hardware.audio_alsaops.h'
p378
sg15
(lp379
sg17
(lp380
sg19
(lp381
sg21
I0
sba(iArchitecture
Entity
p382
(dp383
g11
(lp384
sg13
S'include.hardware.audio_effect.h'
p385
sg15
(lp386
sg17
(lp387
sg19
(lp388
sg21
I0
sbasg22
(lp389
g371
ag378
ag385
asg21
I0
sg24
S'modules.usbaudio.audio_hal.ss'
p390
sba(iArchitecture
Cluster
p391
(dp392
g7
(lp393
(iArchitecture
Entity
p394
(dp395
g11
(lp396
sg13
S'include.hardware.vibrator.h'
p397
sg15
(lp398
sg17
(lp399
sg19
(lp400
sg21
I0
sbasg22
(lp401
g397
asg21
I0
sg24
S'modules.vibrator.vibrator.ss'
p402
sba(iArchitecture
Cluster
p403
(dp404
g7
(lp405
(iArchitecture
Entity
p406
(dp407
g11
(lp408
sg13
S'include.hardware.vr.h'
p409
sg15
(lp410
sg17
(lp411
sg19
(lp412
sg21
I0
sbasg22
(lp413
g409
asg21
I0
sg24
S'modules.vr.vr.ss'
p414
sba(iArchitecture
Cluster
p415
(dp416
g7
(lp417
(iArchitecture
Entity
p418
(dp419
g11
(lp420
sg13
S'include.hardware.camera2.h'
p421
sg15
(lp422
sg17
(lp423
sg19
(lp424
sg21
I0
sbasg22
(lp425
g421
asg21
I0
sg24
S'tests.camera2.camera2_utils.ch'
p426
sba(iArchitecture
Cluster
p427
(dp428
g7
(lp429
(iArchitecture
Entity
p430
(dp431
g11
(lp432
sg13
S'include.hardware.camera.h'
p433
sg15
(lp434
sg17
(lp435
sg19
(lp436
sg21
I0
sba(iArchitecture
Entity
p437
(dp438
g11
(lp439
sg13
S'include.hardware.camera3.h'
p440
sg15
(lp441
sg17
(lp442
sg19
(lp443
sg21
I0
sba(iArchitecture
Entity
p444
(dp445
g11
(lp446
sg13
S'include.hardware.camera_common.h'
p447
sg15
(lp448
sg17
(lp449
sg19
(lp450
sg21
I0
sba(iArchitecture
Entity
p451
(dp452
g11
(lp453
sg13
S'include.hardware.consumerir.h'
p454
sg15
(lp455
sg17
(lp456
sg19
(lp457
sg21
I0
sba(iArchitecture
Entity
p458
(dp459
g11
(lp460
sg13
S'include.hardware.fb.h'
p461
sg15
(lp462
sg17
(lp463
sg19
(lp464
sg21
I0
sba(iArchitecture
Entity
p465
(dp466
g11
(lp467
sg13
S'include.hardware.gralloc.h'
p468
sg15
(lp469
sg17
(lp470
sg19
(lp471
sg21
I0
sba(iArchitecture
Entity
p472
(dp473
g11
(lp474
sg13
S'include.hardware.hwcomposer.h'
p475
sg15
(lp476
sg17
(lp477
sg19
(lp478
sg21
I0
sba(iArchitecture
Entity
p479
(dp480
g11
(lp481
sg13
S'include.hardware.hwcomposer_defs.h'
p482
sg15
(lp483
sg17
(lp484
sg19
(lp485
sg21
I0
sbasg22
(lp486
g433
ag440
ag447
ag454
ag461
ag468
ag475
ag482
asg21
I0
sg24
S'tests.camera3.camera3tests.ss'
p487
sba(iArchitecture
Cluster
p488
(dp489
g7
(lp490
(iArchitecture
Entity
p491
(dp492
g11
(lp493
sg13
S'include.hardware.fingerprint.h'
p494
sg15
(lp495
sg17
(lp496
sg19
(lp497
sg21
I0
sba(iArchitecture
Entity
p498
(dp499
g11
(lp500
sg13
S'include.hardware.hw_auth_token.h'
p501
sg15
(lp502
sg17
(lp503
sg19
(lp504
sg21
I0
sbasg22
(lp505
g494
ag501
asg21
I0
sg24
S'tests.fingerprint.fingerprint_tests.ss'
p506
sba(iArchitecture
Cluster
p507
(dp508
g7
(lp509
(iArchitecture
Entity
p510
(dp511
g11
(lp512
sg13
S'include.hardware.input.h'
p513
sg15
(lp514
sg17
(lp515
sg19
(lp516
sg21
I0
sbasg22
(lp517
g513
asg21
I0
sg24
S'tests.input.evdev.InputMocks.ch'
p518
sba(iArchitecture
Cluster
p519
(dp520
g7
(lp521
(iArchitecture
Entity
p522
(dp523
g11
(lp524
sg13
S'include.hardware.keymaster0.h'
p525
sg15
(lp526
sg17
(lp527
sg19
(lp528
sg21
I0
sba(iArchitecture
Entity
p529
(dp530
g11
(lp531
sg13
S'include.hardware.keymaster_common.h'
p532
sg15
(lp533
sg17
(lp534
sg19
(lp535
sg21
I0
sbasg22
(lp536
g525
ag532
asg21
I0
sg24
S'tests.keymaster.keymaster_test.ss'
p537
sba(iArchitecture
Cluster
p538
(dp539
g7
(lp540
(iArchitecture
Entity
p541
(dp542
g11
(lp543
sg13
S'include.hardware.hardware.h'
p544
sg15
(lp545
sg17
(lp546
sg19
(lp547
sg21
I0
sba(iArchitecture
Entity
p548
(dp549
g11
(lp550
sg13
S'include.hardware.nfc.h'
p551
sg15
(lp552
sg17
(lp553
sg19
(lp554
sg21
I0
sba(iArchitecture
Entity
p555
(dp556
g11
(lp557
sg13
S'include.hardware.radio.h'
p558
sg15
(lp559
sg17
(lp560
sg19
(lp561
sg21
I0
sba(iArchitecture
Entity
p562
(dp563
g11
(lp564
sg13
S'include.hardware.vehicle.h'
p565
sg15
(lp566
sg17
(lp567
sg19
(lp568
sg21
I0
sbasg22
(lp569
g544
ag551
ag558
ag565
asg21
I0
sg24
S'tests.vehicle.vehicle_tests.ss'
p570
sbasg273
g274
sg22
(lp571
sg276
I00
sg24
S'7.0.0_r1'
p572
sba.