(lp0
(iArchitecture
Architecture
p1
(dp2
S'clusters'
p3
(lp4
(iArchitecture
Cluster
p5
(dp6
S'entities'
p7
(lp8
(iArchitecture
Entity
p9
(dp10
S'issue_ids'
p11
(lp12
sS'name'
p13
S'modules.audio.audio_policy.c'
p14
sS'descs'
p15
(lp16
sS'labels'
p17
(lp18
sS'titles'
p19
(lp20
sS'change'
p21
I0
sbasS'classes'
p22
(lp23
g14
asg21
I0
sS'label'
p24
S'modules.audio.audio_policy.ss'
p25
sba(iArchitecture
Cluster
p26
(dp27
g7
(lp28
(iArchitecture
Entity
p29
(dp30
g11
(lp31
sg13
S'modules.audio.audio_hw.c'
p32
sg15
(lp33
sg17
(lp34
sg19
(lp35
sg21
I0
sba(iArchitecture
Entity
p36
(dp37
g11
(lp38
sg13
S'modules.audio_remote_submix.audio_hw.c'
p39
sg15
(lp40
sg17
(lp41
sg19
(lp42
sg21
I0
sbasg22
(lp43
g32
ag39
asg21
I0
sg24
S'modules.usbaudio.audio_hal.ss'
p44
sbasS'target_sub'
p45
S'modules.audio'
p46
sg22
(lp47
sS'is_component_arch'
p48
I00
sg24
S'6.0.0_r1'
p49
sba(iArchitecture
Architecture
p50
(dp51
g3
(lp52
(iArchitecture
Cluster
p53
(dp54
g7
(lp55
(iArchitecture
Entity
p56
(dp57
g11
(lp58
sg13
S'modules.audio.audio_policy.c'
p59
sg15
(lp60
sg17
(lp61
sg19
(lp62
sg21
I0
sbasg22
(lp63
g59
asg21
I0
sg24
S'modules.audio.audio_policy.ss'
p64
sba(iArchitecture
Cluster
p65
(dp66
g7
(lp67
(iArchitecture
Entity
p68
(dp69
g11
(lp70
sg13
S'modules.audio.audio_hw.c'
p71
sg15
(lp72
sg17
(lp73
sg19
(lp74
sg21
I0
sba(iArchitecture
Entity
p75
(dp76
g11
(lp77
sg13
S'modules.audio_remote_submix.audio_hw.c'
p78
sg15
(lp79
sg17
(lp80
sg19
(lp81
sg21
I0
sbasg22
(lp82
g71
ag78
asg21
I0
sg24
S'modules.usbaudio.audio_hal.ss'
p83
sbasg45
g46
sg22
(lp84
sg48
I00
sg24
S'7.0.0_r1'
p85
sba.