(lp0
(iArchitecture
Architecture
p1
(dp2
S'clusters'
p3
(lp4
(iArchitecture
Cluster
p5
(dp6
S'entities'
p7
(lp8
(iArchitecture
Entity
p9
(dp10
S'issue_ids'
p11
(lp12
sS'name'
p13
S'modules.usbcamera.HotplugThread.c'
p14
sS'descs'
p15
(lp16
sS'labels'
p17
(lp18
sS'titles'
p19
(lp20
sS'change'
p21
I0
sba(iArchitecture
Entity
p22
(dp23
g11
(lp24
sg13
S'modules.usbcamera.HotplugThread.h'
p25
sg15
(lp26
sg17
(lp27
sg19
(lp28
sg21
I0
sbasS'classes'
p29
(lp30
g14
ag25
asg21
I0
sS'label'
p31
S'modules.usbcamera.HotplugThread.ch'
p32
sba(iArchitecture
Cluster
p33
(dp34
g7
(lp35
(iArchitecture
Entity
p36
(dp37
g11
(lp38
sg13
S'modules.usbcamera.UsbCamera.c'
p39
sg15
(lp40
sg17
(lp41
sg19
(lp42
sg21
I0
sba(iArchitecture
Entity
p43
(dp44
g11
(lp45
sg13
S'modules.usbcamera.UsbCamera.h'
p46
sg15
(lp47
sg17
(lp48
sg19
(lp49
sg21
I0
sbasg29
(lp50
g39
ag46
asg21
I0
sg31
S'modules.usbcamera.UsbCamera.ch'
p51
sba(iArchitecture
Cluster
p52
(dp53
g7
(lp54
(iArchitecture
Entity
p55
(dp56
g11
(lp57
sg13
S'modules.usbcamera.Camera.c'
p58
sg15
(lp59
sg17
(lp60
sg19
(lp61
sg21
I0
sba(iArchitecture
Entity
p62
(dp63
g11
(lp64
sg13
S'modules.usbcamera.CameraHAL.c'
p65
sg15
(lp66
sg17
(lp67
sg19
(lp68
sg21
I0
sba(iArchitecture
Entity
p69
(dp70
g11
(lp71
sg13
S'modules.usbcamera.Metadata.c'
p72
sg15
(lp73
sg17
(lp74
sg19
(lp75
sg21
I0
sba(iArchitecture
Entity
p76
(dp77
g11
(lp78
sg13
S'modules.usbcamera.Stream.c'
p79
sg15
(lp80
sg17
(lp81
sg19
(lp82
sg21
I0
sbasg29
(lp83
g58
ag65
ag72
ag79
asg21
I0
sg31
S'tests.camera3.camera3tests.ss'
p84
sbasS'target_sub'
p85
S'modules.usbcamera'
p86
sg29
(lp87
sS'is_component_arch'
p88
I00
sg31
S'6.0.0_r1'
p89
sba(iArchitecture
Architecture
p90
(dp91
g3
(lp92
(iArchitecture
Cluster
p93
(dp94
g7
(lp95
(iArchitecture
Entity
p96
(dp97
g11
(lp98
sg13
S'modules.usbcamera.HotplugThread.c'
p99
sg15
(lp100
sg17
(lp101
sg19
(lp102
sg21
I0
sba(iArchitecture
Entity
p103
(dp104
g11
(lp105
sg13
S'modules.usbcamera.HotplugThread.h'
p106
sg15
(lp107
sg17
(lp108
sg19
(lp109
sg21
I0
sbasg29
(lp110
g99
ag106
asg21
I0
sg31
S'modules.usbcamera.HotplugThread.ch'
p111
sba(iArchitecture
Cluster
p112
(dp113
g7
(lp114
(iArchitecture
Entity
p115
(dp116
g11
(lp117
sg13
S'modules.usbcamera.UsbCamera.c'
p118
sg15
(lp119
sg17
(lp120
sg19
(lp121
sg21
I0
sba(iArchitecture
Entity
p122
(dp123
g11
(lp124
sg13
S'modules.usbcamera.UsbCamera.h'
p125
sg15
(lp126
sg17
(lp127
sg19
(lp128
sg21
I0
sbasg29
(lp129
g118
ag125
asg21
I0
sg31
S'modules.usbcamera.UsbCamera.ch'
p130
sba(iArchitecture
Cluster
p131
(dp132
g7
(lp133
(iArchitecture
Entity
p134
(dp135
g11
(lp136
sg13
S'modules.usbcamera.Camera.c'
p137
sg15
(lp138
sg17
(lp139
sg19
(lp140
sg21
I0
sba(iArchitecture
Entity
p141
(dp142
g11
(lp143
sg13
S'modules.usbcamera.CameraHAL.c'
p144
sg15
(lp145
sg17
(lp146
sg19
(lp147
sg21
I0
sba(iArchitecture
Entity
p148
(dp149
g11
(lp150
sg13
S'modules.usbcamera.Metadata.c'
p151
sg15
(lp152
sg17
(lp153
sg19
(lp154
sg21
I0
sba(iArchitecture
Entity
p155
(dp156
g11
(lp157
sg13
S'modules.usbcamera.Stream.c'
p158
sg15
(lp159
sg17
(lp160
sg19
(lp161
sg21
I0
sbasg29
(lp162
g137
ag144
ag151
ag158
asg21
I0
sg31
S'tests.camera3.camera3tests.ss'
p163
sbasg85
g86
sg29
(lp164
sg88
I00
sg31
S'7.0.0_r1'
p165
sba.