(lp0
(iArchitecture
Architecture
p1
(dp2
S'clusters'
p3
(lp4
(iArchitecture
Cluster
p5
(dp6
S'entities'
p7
(lp8
(iArchitecture
Entity
p9
(dp10
S'issue_ids'
p11
(lp12
sS'name'
p13
S'modules.radio.radio_hw.c'
p14
sS'descs'
p15
(lp16
sS'labels'
p17
(lp18
sS'titles'
p19
(lp20
sS'change'
p21
I0
sbasS'classes'
p22
(lp23
g14
asg21
I0
sS'label'
p24
S'modules.radio.radio_hw.ss'
p25
sbasS'target_sub'
p26
S'modules.radio'
p27
sg22
(lp28
sS'is_component_arch'
p29
I00
sg24
S'6.0.0_r1'
p30
sba(iArchitecture
Architecture
p31
(dp32
g3
(lp33
(iArchitecture
Cluster
p34
(dp35
g7
(lp36
(iArchitecture
Entity
p37
(dp38
g11
(lp39
sg13
S'modules.radio.radio_hal_tool.c'
p40
sg15
(lp41
sg17
(lp42
sg19
(lp43
sg21
I0
sba(iArchitecture
Entity
p44
(dp45
g11
(lp46
sg13
S'modules.radio.radio_hw.c'
p47
sg15
(lp48
sg17
(lp49
sg19
(lp50
sg21
I0
sbasg22
(lp51
g40
ag47
asg21
I0
sg24
S'tests.vehicle.vehicle_tests.ss'
p52
sbasg26
g27
sg22
(lp53
sg29
I00
sg24
S'7.0.0_r1'
p54
sba.