(lp0
(iArchitecture
Architecture
p1
(dp2
S'clusters'
p3
(lp4
(iArchitecture
Cluster
p5
(dp6
S'entities'
p7
(lp8
(iArchitecture
Entity
p9
(dp10
S'issue_ids'
p11
(lp12
sS'name'
p13
S'android.app.ExpandableListActivity'
p14
sS'descs'
p15
(lp16
sS'labels'
p17
(lp18
sS'titles'
p19
(lp20
sS'change'
p21
I0
sba(iArchitecture
Entity
p22
(dp23
g11
(lp24
sg13
S'android.app.SearchableInfo$ActionKeyInfo'
p25
sg15
(lp26
sg17
(lp27
sg19
(lp28
sg21
I0
sba(iArchitecture
Entity
p29
(dp30
g11
(lp31
sg13
S'android.content.ContentResolver$OpenResourceIdResult'
p32
sg15
(lp33
sg17
(lp34
sg19
(lp35
sg21
I0
sba(iArchitecture
Entity
p36
(dp37
g11
(lp38
sg13
S'android.database.DataSetObserver'
p39
sg15
(lp40
sg17
(lp41
sg19
(lp42
sg21
I0
sba(iArchitecture
Entity
p43
(dp44
g11
(lp45
sg13
S'android.graphics.BlurMaskFilter'
p46
sg15
(lp47
sg17
(lp48
sg19
(lp49
sg21
I0
sba(iArchitecture
Entity
p50
(dp51
g11
(lp52
sg13
S'android.graphics.BlurMaskFilter$Blur'
p53
sg15
(lp54
sg17
(lp55
sg19
(lp56
sg21
I0
sba(iArchitecture
Entity
p57
(dp58
g11
(lp59
sg13
S'android.graphics.Color'
p60
sg15
(lp61
sg17
(lp62
sg19
(lp63
sg21
I0
sba(iArchitecture
Entity
p64
(dp65
g11
(lp66
sg13
S'android.graphics.MaskFilter'
p67
sg15
(lp68
sg17
(lp69
sg19
(lp70
sg21
I0
sba(iArchitecture
Entity
p71
(dp72
g11
(lp73
sg13
S'android.graphics.Paint$Align'
p74
sg15
(lp75
sg17
(lp76
sg19
(lp77
sg21
I0
sba(iArchitecture
Entity
p78
(dp79
g11
(lp80
sg13
S'android.graphics.Paint$FontMetricsInt'
p81
sg15
(lp82
sg17
(lp83
sg19
(lp84
sg21
I0
sba(iArchitecture
Entity
p85
(dp86
g11
(lp87
sg13
S'android.graphics.Paint$Style'
p88
sg15
(lp89
sg17
(lp90
sg19
(lp91
sg21
I0
sba(iArchitecture
Entity
p92
(dp93
g11
(lp94
sg13
S'android.graphics.PorterDuff$Mode'
p95
sg15
(lp96
sg17
(lp97
sg19
(lp98
sg21
I0
sba(iArchitecture
Entity
p99
(dp100
g11
(lp101
sg13
S'android.graphics.PorterDuffColorFilter'
p102
sg15
(lp103
sg17
(lp104
sg19
(lp105
sg21
I0
sba(iArchitecture
Entity
p106
(dp107
g11
(lp108
sg13
S'android.graphics.TableMaskFilter'
p109
sg15
(lp110
sg17
(lp111
sg19
(lp112
sg21
I0
sba(iArchitecture
Entity
p113
(dp114
g11
(lp115
sg13
S'android.graphics.drawable.shapes.ArcShape'
p116
sg15
(lp117
sg17
(lp118
sg19
(lp119
sg21
I0
sba(iArchitecture
Entity
p120
(dp121
g11
(lp122
sg13
S'android.graphics.drawable.shapes.OvalShape'
p123
sg15
(lp124
sg17
(lp125
sg19
(lp126
sg21
I0
sba(iArchitecture
Entity
p127
(dp128
g11
(lp129
sg13
S'android.graphics.drawable.shapes.RectShape'
p130
sg15
(lp131
sg17
(lp132
sg19
(lp133
sg21
I0
sba(iArchitecture
Entity
p134
(dp135
g11
(lp136
sg13
S'android.graphics.drawable.shapes.RoundRectShape'
p137
sg15
(lp138
sg17
(lp139
sg19
(lp140
sg21
I0
sba(iArchitecture
Entity
p141
(dp142
g11
(lp143
sg13
S'android.media.MediaFormat'
p144
sg15
(lp145
sg17
(lp146
sg19
(lp147
sg21
I0
sba(iArchitecture
Entity
p148
(dp149
g11
(lp150
sg13
S'android.media.MediaPlayer$OnCompletionListener'
p151
sg15
(lp152
sg17
(lp153
sg19
(lp154
sg21
I0
sba(iArchitecture
Entity
p155
(dp156
g11
(lp157
sg13
S'android.media.MediaPlayer$OnPreparedListener'
p158
sg15
(lp159
sg17
(lp160
sg19
(lp161
sg21
I0
sba(iArchitecture
Entity
p162
(dp163
g11
(lp164
sg13
S'android.media.MediaPlayer$OnVideoSizeChangedListener'
p165
sg15
(lp166
sg17
(lp167
sg19
(lp168
sg21
I0
sba(iArchitecture
Entity
p169
(dp170
g11
(lp171
sg13
S'android.media.Metadata'
p172
sg15
(lp173
sg17
(lp174
sg19
(lp175
sg21
I0
sba(iArchitecture
Entity
p176
(dp177
g11
(lp178
sg13
S'android.media.SubtitleController$Renderer'
p179
sg15
(lp180
sg17
(lp181
sg19
(lp182
sg21
I0
sba(iArchitecture
Entity
p183
(dp184
g11
(lp185
sg13
S'android.media.SubtitleTrack$RenderingWidget'
p186
sg15
(lp187
sg17
(lp188
sg19
(lp189
sg21
I0
sba(iArchitecture
Entity
p190
(dp191
g11
(lp192
sg13
S'android.media.SubtitleTrack$RenderingWidget$OnChangedListener'
p193
sg15
(lp194
sg17
(lp195
sg19
(lp196
sg21
I0
sba(iArchitecture
Entity
p197
(dp198
g11
(lp199
sg13
S'android.media.WebVttRenderer'
p200
sg15
(lp201
sg17
(lp202
sg19
(lp203
sg21
I0
sba(iArchitecture
Entity
p204
(dp205
g11
(lp206
sg13
S'android.provider.ContactsContract$QuickContact'
p207
sg15
(lp208
sg17
(lp209
sg19
(lp210
sg21
I0
sba(iArchitecture
Entity
p211
(dp212
g11
(lp213
sg13
S'android.renderscript.RSSurfaceView'
p214
sg15
(lp215
sg17
(lp216
sg19
(lp217
sg21
I0
sba(iArchitecture
Entity
p218
(dp219
g11
(lp220
sg13
S'android.text.BoringLayout'
p221
sg15
(lp222
sg17
(lp223
sg19
(lp224
sg21
I0
sba(iArchitecture
Entity
p225
(dp226
g11
(lp227
sg13
S'android.text.BoringLayout$Metrics'
p228
sg15
(lp229
sg17
(lp230
sg19
(lp231
sg21
I0
sba(iArchitecture
Entity
p232
(dp233
g11
(lp234
sg13
S'android.text.Editable'
p235
sg15
(lp236
sg17
(lp237
sg19
(lp238
sg21
I0
sba(iArchitecture
Entity
p239
(dp240
g11
(lp241
sg13
S'android.text.Editable$Factory'
p242
sg15
(lp243
sg17
(lp244
sg19
(lp245
sg21
I0
sba(iArchitecture
Entity
p246
(dp247
g11
(lp248
sg13
S'android.text.GetChars'
p249
sg15
(lp250
sg17
(lp251
sg19
(lp252
sg21
I0
sba(iArchitecture
Entity
p253
(dp254
g11
(lp255
sg13
S'android.text.GraphicsOperations'
p256
sg15
(lp257
sg17
(lp258
sg19
(lp259
sg21
I0
sba(iArchitecture
Entity
p260
(dp261
g11
(lp262
sg13
S'android.text.InputFilter$LengthFilter'
p263
sg15
(lp264
sg17
(lp265
sg19
(lp266
sg21
I0
sba(iArchitecture
Entity
p267
(dp268
g11
(lp269
sg13
S'android.text.Layout$Alignment'
p270
sg15
(lp271
sg17
(lp272
sg19
(lp273
sg21
I0
sba(iArchitecture
Entity
p274
(dp275
g11
(lp276
sg13
S'android.text.Layout$TabStops'
p277
sg15
(lp278
sg17
(lp279
sg19
(lp280
sg21
I0
sba(iArchitecture
Entity
p281
(dp282
g11
(lp283
sg13
S'android.text.SpanSet'
p284
sg15
(lp285
sg17
(lp286
sg19
(lp287
sg21
I0
sba(iArchitecture
Entity
p288
(dp289
g11
(lp290
sg13
S'android.text.SpanWatcher'
p291
sg15
(lp292
sg17
(lp293
sg19
(lp294
sg21
I0
sba(iArchitecture
Entity
p295
(dp296
g11
(lp297
sg13
S'android.text.Spannable'
p298
sg15
(lp299
sg17
(lp300
sg19
(lp301
sg21
I0
sba(iArchitecture
Entity
p302
(dp303
g11
(lp304
sg13
S'android.text.Spannable$Factory'
p305
sg15
(lp306
sg17
(lp307
sg19
(lp308
sg21
I0
sba(iArchitecture
Entity
p309
(dp310
g11
(lp311
sg13
S'android.text.SpannableString'
p312
sg15
(lp313
sg17
(lp314
sg19
(lp315
sg21
I0
sba(iArchitecture
Entity
p316
(dp317
g11
(lp318
sg13
S'android.text.SpannableStringInternal'
p319
sg15
(lp320
sg17
(lp321
sg19
(lp322
sg21
I0
sba(iArchitecture
Entity
p323
(dp324
g11
(lp325
sg13
S'android.text.Spanned'
p326
sg15
(lp327
sg17
(lp328
sg19
(lp329
sg21
I0
sba(iArchitecture
Entity
p330
(dp331
g11
(lp332
sg13
S'android.text.StaticLayout$Builder'
p333
sg15
(lp334
sg17
(lp335
sg19
(lp336
sg21
I0
sba(iArchitecture
Entity
p337
(dp338
g11
(lp339
sg13
S'android.text.TextDirectionHeuristic'
p340
sg15
(lp341
sg17
(lp342
sg19
(lp343
sg21
I0
sba(iArchitecture
Entity
p344
(dp345
g11
(lp346
sg13
S'android.text.TextLine'
p347
sg15
(lp348
sg17
(lp349
sg19
(lp350
sg21
I0
sba(iArchitecture
Entity
p351
(dp352
g11
(lp353
sg13
S'android.text.TextUtils$TruncateAt'
p354
sg15
(lp355
sg17
(lp356
sg19
(lp357
sg21
I0
sba(iArchitecture
Entity
p358
(dp359
g11
(lp360
sg13
S'android.text.TextWatcher'
p361
sg15
(lp362
sg17
(lp363
sg19
(lp364
sg21
I0
sba(iArchitecture
Entity
p365
(dp366
g11
(lp367
sg13
S'android.text.format.DateFormat'
p368
sg15
(lp369
sg17
(lp370
sg19
(lp371
sg21
I0
sba(iArchitecture
Entity
p372
(dp373
g11
(lp374
sg13
S'android.text.method.AllCapsTransformationMethod'
p375
sg15
(lp376
sg17
(lp377
sg19
(lp378
sg21
I0
sba(iArchitecture
Entity
p379
(dp380
g11
(lp381
sg13
S'android.text.method.ArrowKeyMovementMethod'
p382
sg15
(lp383
sg17
(lp384
sg19
(lp385
sg21
I0
sba(iArchitecture
Entity
p386
(dp387
g11
(lp388
sg13
S'android.text.method.DateKeyListener'
p389
sg15
(lp390
sg17
(lp391
sg19
(lp392
sg21
I0
sba(iArchitecture
Entity
p393
(dp394
g11
(lp395
sg13
S'android.text.method.DateTimeKeyListener'
p396
sg15
(lp397
sg17
(lp398
sg19
(lp399
sg21
I0
sba(iArchitecture
Entity
p400
(dp401
g11
(lp402
sg13
S'android.text.method.DialerKeyListener'
p403
sg15
(lp404
sg17
(lp405
sg19
(lp406
sg21
I0
sba(iArchitecture
Entity
p407
(dp408
g11
(lp409
sg13
S'android.text.method.DigitsKeyListener'
p410
sg15
(lp411
sg17
(lp412
sg19
(lp413
sg21
I0
sba(iArchitecture
Entity
p414
(dp415
g11
(lp416
sg13
S'android.text.method.MetaKeyKeyListener'
p417
sg15
(lp418
sg17
(lp419
sg19
(lp420
sg21
I0
sba(iArchitecture
Entity
p421
(dp422
g11
(lp423
sg13
S'android.text.method.NumberKeyListener'
p424
sg15
(lp425
sg17
(lp426
sg19
(lp427
sg21
I0
sba(iArchitecture
Entity
p428
(dp429
g11
(lp430
sg13
S'android.text.method.SingleLineTransformationMethod'
p431
sg15
(lp432
sg17
(lp433
sg19
(lp434
sg21
I0
sba(iArchitecture
Entity
p435
(dp436
g11
(lp437
sg13
S'android.text.method.TimeKeyListener'
p438
sg15
(lp439
sg17
(lp440
sg19
(lp441
sg21
I0
sba(iArchitecture
Entity
p442
(dp443
g11
(lp444
sg13
S'android.text.method.TransformationMethod'
p445
sg15
(lp446
sg17
(lp447
sg19
(lp448
sg21
I0
sba(iArchitecture
Entity
p449
(dp450
g11
(lp451
sg13
S'android.text.method.TransformationMethod2'
p452
sg15
(lp453
sg17
(lp454
sg19
(lp455
sg21
I0
sba(iArchitecture
Entity
p456
(dp457
g11
(lp458
sg13
S'android.text.method.WordIterator'
p459
sg15
(lp460
sg17
(lp461
sg19
(lp462
sg21
I0
sba(iArchitecture
Entity
p463
(dp464
g11
(lp465
sg13
S'android.text.style.ClickableSpan'
p466
sg15
(lp467
sg17
(lp468
sg19
(lp469
sg21
I0
sba(iArchitecture
Entity
p470
(dp471
g11
(lp472
sg13
S'android.text.style.DrawableMarginSpan'
p473
sg15
(lp474
sg17
(lp475
sg19
(lp476
sg21
I0
sba(iArchitecture
Entity
p477
(dp478
g11
(lp479
sg13
S'android.text.style.EasyEditSpan'
p480
sg15
(lp481
sg17
(lp482
sg19
(lp483
sg21
I0
sba(iArchitecture
Entity
p484
(dp485
g11
(lp486
sg13
S'android.text.style.IconMarginSpan'
p487
sg15
(lp488
sg17
(lp489
sg19
(lp490
sg21
I0
sba(iArchitecture
Entity
p491
(dp492
g11
(lp493
sg13
S'android.text.style.ParagraphStyle'
p494
sg15
(lp495
sg17
(lp496
sg19
(lp497
sg21
I0
sba(iArchitecture
Entity
p498
(dp499
g11
(lp500
sg13
S'android.text.style.SpellCheckSpan'
p501
sg15
(lp502
sg17
(lp503
sg19
(lp504
sg21
I0
sba(iArchitecture
Entity
p505
(dp506
g11
(lp507
sg13
S'android.text.style.SuggestionRangeSpan'
p508
sg15
(lp509
sg17
(lp510
sg19
(lp511
sg21
I0
sba(iArchitecture
Entity
p512
(dp513
g11
(lp514
sg13
S'android.text.style.TextAppearanceSpan'
p515
sg15
(lp516
sg17
(lp517
sg19
(lp518
sg21
I0
sba(iArchitecture
Entity
p519
(dp520
g11
(lp521
sg13
S'android.text.style.URLSpan'
p522
sg15
(lp523
sg17
(lp524
sg19
(lp525
sg21
I0
sba(iArchitecture
Entity
p526
(dp527
g11
(lp528
sg13
S'android.transition.Transition$EpicenterCallback'
p529
sg15
(lp530
sg17
(lp531
sg19
(lp532
sg21
I0
sba(iArchitecture
Entity
p533
(dp534
g11
(lp535
sg13
S'android.transition.Transition$TransitionListener'
p536
sg15
(lp537
sg17
(lp538
sg19
(lp539
sg21
I0
sba(iArchitecture
Entity
p540
(dp541
g11
(lp542
sg13
S'android.transition.Transition$TransitionListenerAdapter'
p543
sg15
(lp544
sg17
(lp545
sg19
(lp546
sg21
I0
sba(iArchitecture
Entity
p547
(dp548
g11
(lp549
sg13
S'android.util.DisplayMetrics'
p550
sg15
(lp551
sg17
(lp552
sg19
(lp553
sg21
I0
sba(iArchitecture
Entity
p554
(dp555
g11
(lp556
sg13
S'android.util.IntProperty'
p557
sg15
(lp558
sg17
(lp559
sg19
(lp560
sg21
I0
sba(iArchitecture
Entity
p561
(dp562
g11
(lp563
sg13
S'android.util.LongSparseArray'
p564
sg15
(lp565
sg17
(lp566
sg19
(lp567
sg21
I0
sba(iArchitecture
Entity
p568
(dp569
g11
(lp570
sg13
S'android.util.StateSet'
p571
sg15
(lp572
sg17
(lp573
sg19
(lp574
sg21
I0
sba(iArchitecture
Entity
p575
(dp576
g11
(lp577
sg13
S'android.view.AccessibilityIterators$TextSegmentIterator'
p578
sg15
(lp579
sg17
(lp580
sg19
(lp581
sg21
I0
sba(iArchitecture
Entity
p582
(dp583
g11
(lp584
sg13
S'android.view.ActionProvider'
p585
sg15
(lp586
sg17
(lp587
sg19
(lp588
sg21
I0
sba(iArchitecture
Entity
p589
(dp590
g11
(lp591
sg13
S'android.view.ActionProvider$SubUiVisibilityListener'
p592
sg15
(lp593
sg17
(lp594
sg19
(lp595
sg21
I0
sba(iArchitecture
Entity
p596
(dp597
g11
(lp598
sg13
S'android.view.Choreographer$FrameCallback'
p599
sg15
(lp600
sg17
(lp601
sg19
(lp602
sg21
I0
sba(iArchitecture
Entity
p603
(dp604
g11
(lp605
sg13
S'android.view.KeyEvent$Callback'
p606
sg15
(lp607
sg17
(lp608
sg19
(lp609
sg21
I0
sba(iArchitecture
Entity
p610
(dp611
g11
(lp612
sg13
S'android.view.RemotableViewMethod'
p613
sg15
(lp614
sg17
(lp615
sg19
(lp616
sg21
I0
sba(iArchitecture
Entity
p617
(dp618
g11
(lp619
sg13
S'android.view.SurfaceHolder'
p620
sg15
(lp621
sg17
(lp622
sg19
(lp623
sg21
I0
sba(iArchitecture
Entity
p624
(dp625
g11
(lp626
sg13
S'android.view.SurfaceHolder$BadSurfaceTypeException'
p627
sg15
(lp628
sg17
(lp629
sg19
(lp630
sg21
I0
sba(iArchitecture
Entity
p631
(dp632
g11
(lp633
sg13
S'android.view.SurfaceHolder$Callback'
p634
sg15
(lp635
sg17
(lp636
sg19
(lp637
sg21
I0
sba(iArchitecture
Entity
p638
(dp639
g11
(lp640
sg13
S'android.view.VelocityTracker'
p641
sg15
(lp642
sg17
(lp643
sg19
(lp644
sg21
I0
sba(iArchitecture
Entity
p645
(dp646
g11
(lp647
sg13
S'android.view.View$AccessibilityDelegate'
p648
sg15
(lp649
sg17
(lp650
sg19
(lp651
sg21
I0
sba(iArchitecture
Entity
p652
(dp653
g11
(lp654
sg13
S'android.view.View$BaseSavedState'
p655
sg15
(lp656
sg17
(lp657
sg19
(lp658
sg21
I0
sba(iArchitecture
Entity
p659
(dp660
g11
(lp661
sg13
S'android.view.View$OnTouchListener'
p662
sg15
(lp663
sg17
(lp664
sg19
(lp665
sg21
I0
sba(iArchitecture
Entity
p666
(dp667
g11
(lp668
sg13
S'android.view.ViewDebug$IntToString'
p669
sg15
(lp670
sg17
(lp671
sg19
(lp672
sg21
I0
sba(iArchitecture
Entity
p673
(dp674
g11
(lp675
sg13
S'android.view.ViewGroup$OnHierarchyChangeListener'
p676
sg15
(lp677
sg17
(lp678
sg19
(lp679
sg21
I0
sba(iArchitecture
Entity
p680
(dp681
g11
(lp682
sg13
S'android.view.ViewGroupOverlay'
p683
sg15
(lp684
sg17
(lp685
sg19
(lp686
sg21
I0
sba(iArchitecture
Entity
p687
(dp688
g11
(lp689
sg13
S'android.view.ViewTreeObserver$OnGlobalLayoutListener'
p690
sg15
(lp691
sg17
(lp692
sg19
(lp693
sg21
I0
sba(iArchitecture
Entity
p694
(dp695
g11
(lp696
sg13
S'android.view.ViewTreeObserver$OnScrollChangedListener'
p697
sg15
(lp698
sg17
(lp699
sg19
(lp700
sg21
I0
sba(iArchitecture
Entity
p701
(dp702
g11
(lp703
sg13
S'android.view.accessibility.AccessibilityRecord'
p704
sg15
(lp705
sg17
(lp706
sg19
(lp707
sg21
I0
sba(iArchitecture
Entity
p708
(dp709
g11
(lp710
sg13
S'android.view.inputmethod.CursorAnchorInfo$Builder'
p711
sg15
(lp712
sg17
(lp713
sg19
(lp714
sg21
I0
sba(iArchitecture
Entity
p715
(dp716
g11
(lp717
sg13
S'android.widget.AbsListView'
p718
sg15
(lp719
sg17
(lp720
sg19
(lp721
sg21
I0
sba(iArchitecture
Entity
p722
(dp723
g11
(lp724
sg13
S'android.widget.AbsListView$1'
p725
sg15
(lp726
sg17
(lp727
sg19
(lp728
sg21
I0
sba(iArchitecture
Entity
p729
(dp730
g11
(lp731
sg13
S'android.widget.AbsListView$2'
p732
sg15
(lp733
sg17
(lp734
sg19
(lp735
sg21
I0
sba(iArchitecture
Entity
p736
(dp737
g11
(lp738
sg13
S'android.widget.AbsListView$3'
p739
sg15
(lp740
sg17
(lp741
sg19
(lp742
sg21
I0
sba(iArchitecture
Entity
p743
(dp744
g11
(lp745
sg13
S'android.widget.AbsListView$4'
p746
sg15
(lp747
sg17
(lp748
sg19
(lp749
sg21
I0
sba(iArchitecture
Entity
p750
(dp751
g11
(lp752
sg13
S'android.widget.AbsListView$AbsPositionScroller'
p753
sg15
(lp754
sg17
(lp755
sg19
(lp756
sg21
I0
sba(iArchitecture
Entity
p757
(dp758
g11
(lp759
sg13
S'android.widget.AbsListView$AdapterDataSetObserver'
p760
sg15
(lp761
sg17
(lp762
sg19
(lp763
sg21
I0
sba(iArchitecture
Entity
p764
(dp765
g11
(lp766
sg13
S'android.widget.AbsListView$CheckForKeyLongPress'
p767
sg15
(lp768
sg17
(lp769
sg19
(lp770
sg21
I0
sba(iArchitecture
Entity
p771
(dp772
g11
(lp773
sg13
S'android.widget.AbsListView$CheckForLongPress'
p774
sg15
(lp775
sg17
(lp776
sg19
(lp777
sg21
I0
sba(iArchitecture
Entity
p778
(dp779
g11
(lp780
sg13
S'android.widget.AbsListView$CheckForTap'
p781
sg15
(lp782
sg17
(lp783
sg19
(lp784
sg21
I0
sba(iArchitecture
Entity
p785
(dp786
g11
(lp787
sg13
S'android.widget.AbsListView$FlingRunnable'
p788
sg15
(lp789
sg17
(lp790
sg19
(lp791
sg21
I0
sba(iArchitecture
Entity
p792
(dp793
g11
(lp794
sg13
S'android.widget.AbsListView$FlingRunnable$1'
p795
sg15
(lp796
sg17
(lp797
sg19
(lp798
sg21
I0
sba(iArchitecture
Entity
p799
(dp800
g11
(lp801
sg13
S'android.widget.AbsListView$InputConnectionWrapper'
p802
sg15
(lp803
sg17
(lp804
sg19
(lp805
sg21
I0
sba(iArchitecture
Entity
p806
(dp807
g11
(lp808
sg13
S'android.widget.AbsListView$LayoutParams'
p809
sg15
(lp810
sg17
(lp811
sg19
(lp812
sg21
I0
sba(iArchitecture
Entity
p813
(dp814
g11
(lp815
sg13
S'android.widget.AbsListView$ListItemAccessibilityDelegate'
p816
sg15
(lp817
sg17
(lp818
sg19
(lp819
sg21
I0
sba(iArchitecture
Entity
p820
(dp821
g11
(lp822
sg13
S'android.widget.AbsListView$MultiChoiceModeListener'
p823
sg15
(lp824
sg17
(lp825
sg19
(lp826
sg21
I0
sba(iArchitecture
Entity
p827
(dp828
g11
(lp829
sg13
S'android.widget.AbsListView$MultiChoiceModeWrapper'
p830
sg15
(lp831
sg17
(lp832
sg19
(lp833
sg21
I0
sba(iArchitecture
Entity
p834
(dp835
g11
(lp836
sg13
S'android.widget.AbsListView$OnScrollListener'
p837
sg15
(lp838
sg17
(lp839
sg19
(lp840
sg21
I0
sba(iArchitecture
Entity
p841
(dp842
g11
(lp843
sg13
S'android.widget.AbsListView$PerformClick'
p844
sg15
(lp845
sg17
(lp846
sg19
(lp847
sg21
I0
sba(iArchitecture
Entity
p848
(dp849
g11
(lp850
sg13
S'android.widget.AbsListView$PositionScroller'
p851
sg15
(lp852
sg17
(lp853
sg19
(lp854
sg21
I0
sba(iArchitecture
Entity
p855
(dp856
g11
(lp857
sg13
S'android.widget.AbsListView$PositionScroller$1'
p858
sg15
(lp859
sg17
(lp860
sg19
(lp861
sg21
I0
sba(iArchitecture
Entity
p862
(dp863
g11
(lp864
sg13
S'android.widget.AbsListView$PositionScroller$2'
p865
sg15
(lp866
sg17
(lp867
sg19
(lp868
sg21
I0
sba(iArchitecture
Entity
p869
(dp870
g11
(lp871
sg13
S'android.widget.AbsListView$PositionScroller$3'
p872
sg15
(lp873
sg17
(lp874
sg19
(lp875
sg21
I0
sba(iArchitecture
Entity
p876
(dp877
g11
(lp878
sg13
S'android.widget.AbsListView$RecycleBin'
p879
sg15
(lp880
sg17
(lp881
sg19
(lp882
sg21
I0
sba(iArchitecture
Entity
p883
(dp884
g11
(lp885
sg13
S'android.widget.AbsListView$RecyclerListener'
p886
sg15
(lp887
sg17
(lp888
sg19
(lp889
sg21
I0
sba(iArchitecture
Entity
p890
(dp891
g11
(lp892
sg13
S'android.widget.AbsListView$SavedState'
p893
sg15
(lp894
sg17
(lp895
sg19
(lp896
sg21
I0
sba(iArchitecture
Entity
p897
(dp898
g11
(lp899
sg13
S'android.widget.AbsListView$SavedState$1'
p900
sg15
(lp901
sg17
(lp902
sg19
(lp903
sg21
I0
sba(iArchitecture
Entity
p904
(dp905
g11
(lp906
sg13
S'android.widget.AbsListView$SelectionBoundsAdjuster'
p907
sg15
(lp908
sg17
(lp909
sg19
(lp910
sg21
I0
sba(iArchitecture
Entity
p911
(dp912
g11
(lp913
sg13
S'android.widget.AbsListView$WindowRunnnable'
p914
sg15
(lp915
sg17
(lp916
sg19
(lp917
sg21
I0
sba(iArchitecture
Entity
p918
(dp919
g11
(lp920
sg13
S'android.widget.AbsSpinner'
p921
sg15
(lp922
sg17
(lp923
sg19
(lp924
sg21
I0
sba(iArchitecture
Entity
p925
(dp926
g11
(lp927
sg13
S'android.widget.AbsSpinner$RecycleBin'
p928
sg15
(lp929
sg17
(lp930
sg19
(lp931
sg21
I0
sba(iArchitecture
Entity
p932
(dp933
g11
(lp934
sg13
S'android.widget.AbsSpinner$SavedState'
p935
sg15
(lp936
sg17
(lp937
sg19
(lp938
sg21
I0
sba(iArchitecture
Entity
p939
(dp940
g11
(lp941
sg13
S'android.widget.AbsSpinner$SavedState$1'
p942
sg15
(lp943
sg17
(lp944
sg19
(lp945
sg21
I0
sba(iArchitecture
Entity
p946
(dp947
g11
(lp948
sg13
S'android.widget.AbsoluteLayout'
p949
sg15
(lp950
sg17
(lp951
sg19
(lp952
sg21
I0
sba(iArchitecture
Entity
p953
(dp954
g11
(lp955
sg13
S'android.widget.AbsoluteLayout$LayoutParams'
p956
sg15
(lp957
sg17
(lp958
sg19
(lp959
sg21
I0
sba(iArchitecture
Entity
p960
(dp961
g11
(lp962
sg13
S'android.widget.AccessibilityIterators'
p963
sg15
(lp964
sg17
(lp965
sg19
(lp966
sg21
I0
sba(iArchitecture
Entity
p967
(dp968
g11
(lp969
sg13
S'android.widget.AccessibilityIterators$LineTextSegmentIterator'
p970
sg15
(lp971
sg17
(lp972
sg19
(lp973
sg21
I0
sba(iArchitecture
Entity
p974
(dp975
g11
(lp976
sg13
S'android.widget.AccessibilityIterators$PageTextSegmentIterator'
p977
sg15
(lp978
sg17
(lp979
sg19
(lp980
sg21
I0
sba(iArchitecture
Entity
p981
(dp982
g11
(lp983
sg13
S'android.widget.ActionMenuPresenter'
p984
sg15
(lp985
sg17
(lp986
sg19
(lp987
sg21
I0
sba(iArchitecture
Entity
p988
(dp989
g11
(lp990
sg13
S'android.widget.ActionMenuPresenter$1'
p991
sg15
(lp992
sg17
(lp993
sg19
(lp994
sg21
I0
sba(iArchitecture
Entity
p995
(dp996
g11
(lp997
sg13
S'android.widget.ActionMenuPresenter$2'
p998
sg15
(lp999
sg17
(lp1000
sg19
(lp1001
sg21
I0
sba(iArchitecture
Entity
p1002
(dp1003
g11
(lp1004
sg13
S'android.widget.ActionMenuPresenter$3'
p1005
sg15
(lp1006
sg17
(lp1007
sg19
(lp1008
sg21
I0
sba(iArchitecture
Entity
p1009
(dp1010
g11
(lp1011
sg13
S'android.widget.ActionMenuPresenter$4'
p1012
sg15
(lp1013
sg17
(lp1014
sg19
(lp1015
sg21
I0
sba(iArchitecture
Entity
p1016
(dp1017
g11
(lp1018
sg13
S'android.widget.ActionMenuPresenter$5'
p1019
sg15
(lp1020
sg17
(lp1021
sg19
(lp1022
sg21
I0
sba(iArchitecture
Entity
p1023
(dp1024
g11
(lp1025
sg13
S'android.widget.ActionMenuPresenter$ActionButtonSubmenu'
p1026
sg15
(lp1027
sg17
(lp1028
sg19
(lp1029
sg21
I0
sba(iArchitecture
Entity
p1030
(dp1031
g11
(lp1032
sg13
S'android.widget.ActionMenuPresenter$ActionMenuPopupCallback'
p1033
sg15
(lp1034
sg17
(lp1035
sg19
(lp1036
sg21
I0
sba(iArchitecture
Entity
p1037
(dp1038
g11
(lp1039
sg13
S'android.widget.ActionMenuPresenter$ItemAnimationInfo'
p1040
sg15
(lp1041
sg17
(lp1042
sg19
(lp1043
sg21
I0
sba(iArchitecture
Entity
p1044
(dp1045
g11
(lp1046
sg13
S'android.widget.ActionMenuPresenter$MenuItemLayoutInfo'
p1047
sg15
(lp1048
sg17
(lp1049
sg19
(lp1050
sg21
I0
sba(iArchitecture
Entity
p1051
(dp1052
g11
(lp1053
sg13
S'android.widget.ActionMenuPresenter$OpenOverflowRunnable'
p1054
sg15
(lp1055
sg17
(lp1056
sg19
(lp1057
sg21
I0
sba(iArchitecture
Entity
p1058
(dp1059
g11
(lp1060
sg13
S'android.widget.ActionMenuPresenter$OverflowMenuButton'
p1061
sg15
(lp1062
sg17
(lp1063
sg19
(lp1064
sg21
I0
sba(iArchitecture
Entity
p1065
(dp1066
g11
(lp1067
sg13
S'android.widget.ActionMenuPresenter$OverflowMenuButton$1'
p1068
sg15
(lp1069
sg17
(lp1070
sg19
(lp1071
sg21
I0
sba(iArchitecture
Entity
p1072
(dp1073
g11
(lp1074
sg13
S'android.widget.ActionMenuPresenter$OverflowPopup'
p1075
sg15
(lp1076
sg17
(lp1077
sg19
(lp1078
sg21
I0
sba(iArchitecture
Entity
p1079
(dp1080
g11
(lp1081
sg13
S'android.widget.ActionMenuPresenter$PopupPresenterCallback'
p1082
sg15
(lp1083
sg17
(lp1084
sg19
(lp1085
sg21
I0
sba(iArchitecture
Entity
p1086
(dp1087
g11
(lp1088
sg13
S'android.widget.ActionMenuPresenter$SavedState'
p1089
sg15
(lp1090
sg17
(lp1091
sg19
(lp1092
sg21
I0
sba(iArchitecture
Entity
p1093
(dp1094
g11
(lp1095
sg13
S'android.widget.ActionMenuPresenter$SavedState$1'
p1096
sg15
(lp1097
sg17
(lp1098
sg19
(lp1099
sg21
I0
sba(iArchitecture
Entity
p1100
(dp1101
g11
(lp1102
sg13
S'android.widget.ActionMenuView'
p1103
sg15
(lp1104
sg17
(lp1105
sg19
(lp1106
sg21
I0
sba(iArchitecture
Entity
p1107
(dp1108
g11
(lp1109
sg13
S'android.widget.ActionMenuView$ActionMenuPresenterCallback'
p1110
sg15
(lp1111
sg17
(lp1112
sg19
(lp1113
sg21
I0
sba(iArchitecture
Entity
p1114
(dp1115
g11
(lp1116
sg13
S'android.widget.ActionMenuView$LayoutParams'
p1117
sg15
(lp1118
sg17
(lp1119
sg19
(lp1120
sg21
I0
sba(iArchitecture
Entity
p1121
(dp1122
g11
(lp1123
sg13
S'android.widget.ActionMenuView$MenuBuilderCallback'
p1124
sg15
(lp1125
sg17
(lp1126
sg19
(lp1127
sg21
I0
sba(iArchitecture
Entity
p1128
(dp1129
g11
(lp1130
sg13
S'android.widget.ActionMenuView$OnMenuItemClickListener'
p1131
sg15
(lp1132
sg17
(lp1133
sg19
(lp1134
sg21
I0
sba(iArchitecture
Entity
p1135
(dp1136
g11
(lp1137
sg13
S'android.widget.ActivityChooserModel'
p1138
sg15
(lp1139
sg17
(lp1140
sg19
(lp1141
sg21
I0
sba(iArchitecture
Entity
p1142
(dp1143
g11
(lp1144
sg13
S'android.widget.ActivityChooserModel$ActivityChooserModelClient'
p1145
sg15
(lp1146
sg17
(lp1147
sg19
(lp1148
sg21
I0
sba(iArchitecture
Entity
p1149
(dp1150
g11
(lp1151
sg13
S'android.widget.ActivityChooserModel$ActivityResolveInfo'
p1152
sg15
(lp1153
sg17
(lp1154
sg19
(lp1155
sg21
I0
sba(iArchitecture
Entity
p1156
(dp1157
g11
(lp1158
sg13
S'android.widget.ActivityChooserModel$ActivitySorter'
p1159
sg15
(lp1160
sg17
(lp1161
sg19
(lp1162
sg21
I0
sba(iArchitecture
Entity
p1163
(dp1164
g11
(lp1165
sg13
S'android.widget.ActivityChooserModel$DataModelPackageMonitor'
p1166
sg15
(lp1167
sg17
(lp1168
sg19
(lp1169
sg21
I0
sba(iArchitecture
Entity
p1170
(dp1171
g11
(lp1172
sg13
S'android.widget.ActivityChooserModel$DefaultSorter'
p1173
sg15
(lp1174
sg17
(lp1175
sg19
(lp1176
sg21
I0
sba(iArchitecture
Entity
p1177
(dp1178
g11
(lp1179
sg13
S'android.widget.ActivityChooserModel$HistoricalRecord'
p1180
sg15
(lp1181
sg17
(lp1182
sg19
(lp1183
sg21
I0
sba(iArchitecture
Entity
p1184
(dp1185
g11
(lp1186
sg13
S'android.widget.ActivityChooserModel$OnChooseActivityListener'
p1187
sg15
(lp1188
sg17
(lp1189
sg19
(lp1190
sg21
I0
sba(iArchitecture
Entity
p1191
(dp1192
g11
(lp1193
sg13
S'android.widget.ActivityChooserModel$PersistHistoryAsyncTask'
p1194
sg15
(lp1195
sg17
(lp1196
sg19
(lp1197
sg21
I0
sba(iArchitecture
Entity
p1198
(dp1199
g11
(lp1200
sg13
S'android.widget.ActivityChooserView'
p1201
sg15
(lp1202
sg17
(lp1203
sg19
(lp1204
sg21
I0
sba(iArchitecture
Entity
p1205
(dp1206
g11
(lp1207
sg13
S'android.widget.ActivityChooserView$1'
p1208
sg15
(lp1209
sg17
(lp1210
sg19
(lp1211
sg21
I0
sba(iArchitecture
Entity
p1212
(dp1213
g11
(lp1214
sg13
S'android.widget.ActivityChooserView$2'
p1215
sg15
(lp1216
sg17
(lp1217
sg19
(lp1218
sg21
I0
sba(iArchitecture
Entity
p1219
(dp1220
g11
(lp1221
sg13
S'android.widget.ActivityChooserView$3'
p1222
sg15
(lp1223
sg17
(lp1224
sg19
(lp1225
sg21
I0
sba(iArchitecture
Entity
p1226
(dp1227
g11
(lp1228
sg13
S'android.widget.ActivityChooserView$4'
p1229
sg15
(lp1230
sg17
(lp1231
sg19
(lp1232
sg21
I0
sba(iArchitecture
Entity
p1233
(dp1234
g11
(lp1235
sg13
S'android.widget.ActivityChooserView$5'
p1236
sg15
(lp1237
sg17
(lp1238
sg19
(lp1239
sg21
I0
sba(iArchitecture
Entity
p1240
(dp1241
g11
(lp1242
sg13
S'android.widget.ActivityChooserView$ActivityChooserViewAdapter'
p1243
sg15
(lp1244
sg17
(lp1245
sg19
(lp1246
sg21
I0
sba(iArchitecture
Entity
p1247
(dp1248
g11
(lp1249
sg13
S'android.widget.ActivityChooserView$Callbacks'
p1250
sg15
(lp1251
sg17
(lp1252
sg19
(lp1253
sg21
I0
sba(iArchitecture
Entity
p1254
(dp1255
g11
(lp1256
sg13
S'android.widget.Adapter'
p1257
sg15
(lp1258
sg17
(lp1259
sg19
(lp1260
sg21
I0
sba(iArchitecture
Entity
p1261
(dp1262
g11
(lp1263
sg13
S'android.widget.AdapterView'
p1264
sg15
(lp1265
sg17
(lp1266
sg19
(lp1267
sg21
I0
sba(iArchitecture
Entity
p1268
(dp1269
g11
(lp1270
sg13
S'android.widget.AdapterView$AdapterContextMenuInfo'
p1271
sg15
(lp1272
sg17
(lp1273
sg19
(lp1274
sg21
I0
sba(iArchitecture
Entity
p1275
(dp1276
g11
(lp1277
sg13
S'android.widget.AdapterView$AdapterDataSetObserver'
p1278
sg15
(lp1279
sg17
(lp1280
sg19
(lp1281
sg21
I0
sba(iArchitecture
Entity
p1282
(dp1283
g11
(lp1284
sg13
S'android.widget.AdapterView$OnItemClickListener'
p1285
sg15
(lp1286
sg17
(lp1287
sg19
(lp1288
sg21
I0
sba(iArchitecture
Entity
p1289
(dp1290
g11
(lp1291
sg13
S'android.widget.AdapterView$OnItemSelectedListener'
p1292
sg15
(lp1293
sg17
(lp1294
sg19
(lp1295
sg21
I0
sba(iArchitecture
Entity
p1296
(dp1297
g11
(lp1298
sg13
S'android.widget.AdapterView$SelectionNotifier'
p1299
sg15
(lp1300
sg17
(lp1301
sg19
(lp1302
sg21
I0
sba(iArchitecture
Entity
p1303
(dp1304
g11
(lp1305
sg13
S'android.widget.AdapterViewAnimator'
p1306
sg15
(lp1307
sg17
(lp1308
sg19
(lp1309
sg21
I0
sba(iArchitecture
Entity
p1310
(dp1311
g11
(lp1312
sg13
S'android.widget.AdapterViewAnimator$1'
p1313
sg15
(lp1314
sg17
(lp1315
sg19
(lp1316
sg21
I0
sba(iArchitecture
Entity
p1317
(dp1318
g11
(lp1319
sg13
S'android.widget.AdapterViewAnimator$1$1'
p1320
sg15
(lp1321
sg17
(lp1322
sg19
(lp1323
sg21
I0
sba(iArchitecture
Entity
p1324
(dp1325
g11
(lp1326
sg13
S'android.widget.AdapterViewAnimator$2'
p1327
sg15
(lp1328
sg17
(lp1329
sg19
(lp1330
sg21
I0
sba(iArchitecture
Entity
p1331
(dp1332
g11
(lp1333
sg13
S'android.widget.AdapterViewAnimator$CheckForTap'
p1334
sg15
(lp1335
sg17
(lp1336
sg19
(lp1337
sg21
I0
sba(iArchitecture
Entity
p1338
(dp1339
g11
(lp1340
sg13
S'android.widget.AdapterViewAnimator$SavedState'
p1341
sg15
(lp1342
sg17
(lp1343
sg19
(lp1344
sg21
I0
sba(iArchitecture
Entity
p1345
(dp1346
g11
(lp1347
sg13
S'android.widget.AdapterViewAnimator$SavedState$1'
p1348
sg15
(lp1349
sg17
(lp1350
sg19
(lp1351
sg21
I0
sba(iArchitecture
Entity
p1352
(dp1353
g11
(lp1354
sg13
S'android.widget.AdapterViewAnimator$ViewAndMetaData'
p1355
sg15
(lp1356
sg17
(lp1357
sg19
(lp1358
sg21
I0
sba(iArchitecture
Entity
p1359
(dp1360
g11
(lp1361
sg13
S'android.widget.AdapterViewFlipper'
p1362
sg15
(lp1363
sg17
(lp1364
sg19
(lp1365
sg21
I0
sba(iArchitecture
Entity
p1366
(dp1367
g11
(lp1368
sg13
S'android.widget.AdapterViewFlipper$1'
p1369
sg15
(lp1370
sg17
(lp1371
sg19
(lp1372
sg21
I0
sba(iArchitecture
Entity
p1373
(dp1374
g11
(lp1375
sg13
S'android.widget.AdapterViewFlipper$2'
p1376
sg15
(lp1377
sg17
(lp1378
sg19
(lp1379
sg21
I0
sba(iArchitecture
Entity
p1380
(dp1381
g11
(lp1382
sg13
S'android.widget.Advanceable'
p1383
sg15
(lp1384
sg17
(lp1385
sg19
(lp1386
sg21
I0
sba(iArchitecture
Entity
p1387
(dp1388
g11
(lp1389
sg13
S'android.widget.AlphabetIndexer'
p1390
sg15
(lp1391
sg17
(lp1392
sg19
(lp1393
sg21
I0
sba(iArchitecture
Entity
p1394
(dp1395
g11
(lp1396
sg13
S'android.widget.AnalogClock'
p1397
sg15
(lp1398
sg17
(lp1399
sg19
(lp1400
sg21
I0
sba(iArchitecture
Entity
p1401
(dp1402
g11
(lp1403
sg13
S'android.widget.AnalogClock$1'
p1404
sg15
(lp1405
sg17
(lp1406
sg19
(lp1407
sg21
I0
sba(iArchitecture
Entity
p1408
(dp1409
g11
(lp1410
sg13
S'android.widget.AppSecurityPermissions'
p1411
sg15
(lp1412
sg17
(lp1413
sg19
(lp1414
sg21
I0
sba(iArchitecture
Entity
p1415
(dp1416
g11
(lp1417
sg13
S'android.widget.AppSecurityPermissions$MyPermissionGroupInfo'
p1418
sg15
(lp1419
sg17
(lp1420
sg19
(lp1421
sg21
I0
sba(iArchitecture
Entity
p1422
(dp1423
g11
(lp1424
sg13
S'android.widget.AppSecurityPermissions$MyPermissionInfo'
p1425
sg15
(lp1426
sg17
(lp1427
sg19
(lp1428
sg21
I0
sba(iArchitecture
Entity
p1429
(dp1430
g11
(lp1431
sg13
S'android.widget.AppSecurityPermissions$PermissionGroupInfoComparator'
p1432
sg15
(lp1433
sg17
(lp1434
sg19
(lp1435
sg21
I0
sba(iArchitecture
Entity
p1436
(dp1437
g11
(lp1438
sg13
S'android.widget.AppSecurityPermissions$PermissionInfoComparator'
p1439
sg15
(lp1440
sg17
(lp1441
sg19
(lp1442
sg21
I0
sba(iArchitecture
Entity
p1443
(dp1444
g11
(lp1445
sg13
S'android.widget.AppSecurityPermissions$PermissionItemView'
p1446
sg15
(lp1447
sg17
(lp1448
sg19
(lp1449
sg21
I0
sba(iArchitecture
Entity
p1450
(dp1451
g11
(lp1452
sg13
S'android.widget.AppSecurityPermissions$PermissionItemView$1'
p1453
sg15
(lp1454
sg17
(lp1455
sg19
(lp1456
sg21
I0
sba(iArchitecture
Entity
p1457
(dp1458
g11
(lp1459
sg13
S'android.widget.ArrayAdapter'
p1460
sg15
(lp1461
sg17
(lp1462
sg19
(lp1463
sg21
I0
sba(iArchitecture
Entity
p1464
(dp1465
g11
(lp1466
sg13
S'android.widget.ArrayAdapter$ArrayFilter'
p1467
sg15
(lp1468
sg17
(lp1469
sg19
(lp1470
sg21
I0
sba(iArchitecture
Entity
p1471
(dp1472
g11
(lp1473
sg13
S'android.widget.AutoCompleteTextView'
p1474
sg15
(lp1475
sg17
(lp1476
sg19
(lp1477
sg21
I0
sba(iArchitecture
Entity
p1478
(dp1479
g11
(lp1480
sg13
S'android.widget.AutoCompleteTextView$1'
p1481
sg15
(lp1482
sg17
(lp1483
sg19
(lp1484
sg21
I0
sba(iArchitecture
Entity
p1485
(dp1486
g11
(lp1487
sg13
S'android.widget.AutoCompleteTextView$DropDownItemClickListener'
p1488
sg15
(lp1489
sg17
(lp1490
sg19
(lp1491
sg21
I0
sba(iArchitecture
Entity
p1492
(dp1493
g11
(lp1494
sg13
S'android.widget.AutoCompleteTextView$MyWatcher'
p1495
sg15
(lp1496
sg17
(lp1497
sg19
(lp1498
sg21
I0
sba(iArchitecture
Entity
p1499
(dp1500
g11
(lp1501
sg13
S'android.widget.AutoCompleteTextView$OnDismissListener'
p1502
sg15
(lp1503
sg17
(lp1504
sg19
(lp1505
sg21
I0
sba(iArchitecture
Entity
p1506
(dp1507
g11
(lp1508
sg13
S'android.widget.AutoCompleteTextView$PassThroughClickListener'
p1509
sg15
(lp1510
sg17
(lp1511
sg19
(lp1512
sg21
I0
sba(iArchitecture
Entity
p1513
(dp1514
g11
(lp1515
sg13
S'android.widget.AutoCompleteTextView$PopupDataSetObserver'
p1516
sg15
(lp1517
sg17
(lp1518
sg19
(lp1519
sg21
I0
sba(iArchitecture
Entity
p1520
(dp1521
g11
(lp1522
sg13
S'android.widget.AutoCompleteTextView$PopupDataSetObserver$1'
p1523
sg15
(lp1524
sg17
(lp1525
sg19
(lp1526
sg21
I0
sba(iArchitecture
Entity
p1527
(dp1528
g11
(lp1529
sg13
S'android.widget.AutoCompleteTextView$Validator'
p1530
sg15
(lp1531
sg17
(lp1532
sg19
(lp1533
sg21
I0
sba(iArchitecture
Entity
p1534
(dp1535
g11
(lp1536
sg13
S'android.widget.BaseExpandableListAdapter'
p1537
sg15
(lp1538
sg17
(lp1539
sg19
(lp1540
sg21
I0
sba(iArchitecture
Entity
p1541
(dp1542
g11
(lp1543
sg13
S'android.widget.CalendarView'
p1544
sg15
(lp1545
sg17
(lp1546
sg19
(lp1547
sg21
I0
sba(iArchitecture
Entity
p1548
(dp1549
g11
(lp1550
sg13
S'android.widget.CalendarView$AbstractCalendarViewDelegate'
p1551
sg15
(lp1552
sg17
(lp1553
sg19
(lp1554
sg21
I0
sba(iArchitecture
Entity
p1555
(dp1556
g11
(lp1557
sg13
S'android.widget.CalendarView$CalendarViewDelegate'
p1558
sg15
(lp1559
sg17
(lp1560
sg19
(lp1561
sg21
I0
sba(iArchitecture
Entity
p1562
(dp1563
g11
(lp1564
sg13
S'android.widget.CalendarView$OnDateChangeListener'
p1565
sg15
(lp1566
sg17
(lp1567
sg19
(lp1568
sg21
I0
sba(iArchitecture
Entity
p1569
(dp1570
g11
(lp1571
sg13
S'android.widget.CalendarViewLegacyDelegate'
p1572
sg15
(lp1573
sg17
(lp1574
sg19
(lp1575
sg21
I0
sba(iArchitecture
Entity
p1576
(dp1577
g11
(lp1578
sg13
S'android.widget.CalendarViewLegacyDelegate$1'
p1579
sg15
(lp1580
sg17
(lp1581
sg19
(lp1582
sg21
I0
sba(iArchitecture
Entity
p1583
(dp1584
g11
(lp1585
sg13
S'android.widget.CalendarViewLegacyDelegate$2'
p1586
sg15
(lp1587
sg17
(lp1588
sg19
(lp1589
sg21
I0
sba(iArchitecture
Entity
p1590
(dp1591
g11
(lp1592
sg13
S'android.widget.CalendarViewLegacyDelegate$ScrollStateRunnable'
p1593
sg15
(lp1594
sg17
(lp1595
sg19
(lp1596
sg21
I0
sba(iArchitecture
Entity
p1597
(dp1598
g11
(lp1599
sg13
S'android.widget.CalendarViewLegacyDelegate$WeekView'
p1600
sg15
(lp1601
sg17
(lp1602
sg19
(lp1603
sg21
I0
sba(iArchitecture
Entity
p1604
(dp1605
g11
(lp1606
sg13
S'android.widget.CalendarViewLegacyDelegate$WeeksAdapter'
p1607
sg15
(lp1608
sg17
(lp1609
sg19
(lp1610
sg21
I0
sba(iArchitecture
Entity
p1611
(dp1612
g11
(lp1613
sg13
S'android.widget.CalendarViewLegacyDelegate$WeeksAdapter$CalendarGestureListener'
p1614
sg15
(lp1615
sg17
(lp1616
sg19
(lp1617
sg21
I0
sba(iArchitecture
Entity
p1618
(dp1619
g11
(lp1620
sg13
S'android.widget.CalendarViewMaterialDelegate'
p1621
sg15
(lp1622
sg17
(lp1623
sg19
(lp1624
sg21
I0
sba(iArchitecture
Entity
p1625
(dp1626
g11
(lp1627
sg13
S'android.widget.CalendarViewMaterialDelegate$1'
p1628
sg15
(lp1629
sg17
(lp1630
sg19
(lp1631
sg21
I0
sba(iArchitecture
Entity
p1632
(dp1633
g11
(lp1634
sg13
S'android.widget.Checkable'
p1635
sg15
(lp1636
sg17
(lp1637
sg19
(lp1638
sg21
I0
sba(iArchitecture
Entity
p1639
(dp1640
g11
(lp1641
sg13
S'android.widget.CheckedTextView'
p1642
sg15
(lp1643
sg17
(lp1644
sg19
(lp1645
sg21
I0
sba(iArchitecture
Entity
p1646
(dp1647
g11
(lp1648
sg13
S'android.widget.Chronometer'
p1649
sg15
(lp1650
sg17
(lp1651
sg19
(lp1652
sg21
I0
sba(iArchitecture
Entity
p1653
(dp1654
g11
(lp1655
sg13
S'android.widget.Chronometer$1'
p1656
sg15
(lp1657
sg17
(lp1658
sg19
(lp1659
sg21
I0
sba(iArchitecture
Entity
p1660
(dp1661
g11
(lp1662
sg13
S'android.widget.Chronometer$OnChronometerTickListener'
p1663
sg15
(lp1664
sg17
(lp1665
sg19
(lp1666
sg21
I0
sba(iArchitecture
Entity
p1667
(dp1668
g11
(lp1669
sg13
S'android.widget.CompoundButton'
p1670
sg15
(lp1671
sg17
(lp1672
sg19
(lp1673
sg21
I0
sba(iArchitecture
Entity
p1674
(dp1675
g11
(lp1676
sg13
S'android.widget.CompoundButton$SavedState'
p1677
sg15
(lp1678
sg17
(lp1679
sg19
(lp1680
sg21
I0
sba(iArchitecture
Entity
p1681
(dp1682
g11
(lp1683
sg13
S'android.widget.CompoundButton$SavedState$1'
p1684
sg15
(lp1685
sg17
(lp1686
sg19
(lp1687
sg21
I0
sba(iArchitecture
Entity
p1688
(dp1689
g11
(lp1690
sg13
S'android.widget.CursorAdapter'
p1691
sg15
(lp1692
sg17
(lp1693
sg19
(lp1694
sg21
I0
sba(iArchitecture
Entity
p1695
(dp1696
g11
(lp1697
sg13
S'android.widget.CursorAdapter$ChangeObserver'
p1698
sg15
(lp1699
sg17
(lp1700
sg19
(lp1701
sg21
I0
sba(iArchitecture
Entity
p1702
(dp1703
g11
(lp1704
sg13
S'android.widget.CursorAdapter$MyDataSetObserver'
p1705
sg15
(lp1706
sg17
(lp1707
sg19
(lp1708
sg21
I0
sba(iArchitecture
Entity
p1709
(dp1710
g11
(lp1711
sg13
S'android.widget.CursorFilter'
p1712
sg15
(lp1713
sg17
(lp1714
sg19
(lp1715
sg21
I0
sba(iArchitecture
Entity
p1716
(dp1717
g11
(lp1718
sg13
S'android.widget.CursorFilter$CursorFilterClient'
p1719
sg15
(lp1720
sg17
(lp1721
sg19
(lp1722
sg21
I0
sba(iArchitecture
Entity
p1723
(dp1724
g11
(lp1725
sg13
S'android.widget.CursorTreeAdapter'
p1726
sg15
(lp1727
sg17
(lp1728
sg19
(lp1729
sg21
I0
sba(iArchitecture
Entity
p1730
(dp1731
g11
(lp1732
sg13
S'android.widget.CursorTreeAdapter$MyCursorHelper'
p1733
sg15
(lp1734
sg17
(lp1735
sg19
(lp1736
sg21
I0
sba(iArchitecture
Entity
p1737
(dp1738
g11
(lp1739
sg13
S'android.widget.CursorTreeAdapter$MyCursorHelper$MyContentObserver'
p1740
sg15
(lp1741
sg17
(lp1742
sg19
(lp1743
sg21
I0
sba(iArchitecture
Entity
p1744
(dp1745
g11
(lp1746
sg13
S'android.widget.CursorTreeAdapter$MyCursorHelper$MyDataSetObserver'
p1747
sg15
(lp1748
sg17
(lp1749
sg19
(lp1750
sg21
I0
sba(iArchitecture
Entity
p1751
(dp1752
g11
(lp1753
sg13
S'android.widget.DatePicker'
p1754
sg15
(lp1755
sg17
(lp1756
sg19
(lp1757
sg21
I0
sba(iArchitecture
Entity
p1758
(dp1759
g11
(lp1760
sg13
S'android.widget.DatePicker$AbstractDatePickerDelegate'
p1761
sg15
(lp1762
sg17
(lp1763
sg19
(lp1764
sg21
I0
sba(iArchitecture
Entity
p1765
(dp1766
g11
(lp1767
sg13
S'android.widget.DatePicker$DatePickerDelegate'
p1768
sg15
(lp1769
sg17
(lp1770
sg19
(lp1771
sg21
I0
sba(iArchitecture
Entity
p1772
(dp1773
g11
(lp1774
sg13
S'android.widget.DatePicker$DatePickerSpinnerDelegate'
p1775
sg15
(lp1776
sg17
(lp1777
sg19
(lp1778
sg21
I0
sba(iArchitecture
Entity
p1779
(dp1780
g11
(lp1781
sg13
S'android.widget.DatePicker$DatePickerSpinnerDelegate$1'
p1782
sg15
(lp1783
sg17
(lp1784
sg19
(lp1785
sg21
I0
sba(iArchitecture
Entity
p1786
(dp1787
g11
(lp1788
sg13
S'android.widget.DatePicker$DatePickerSpinnerDelegate$2'
p1789
sg15
(lp1790
sg17
(lp1791
sg19
(lp1792
sg21
I0
sba(iArchitecture
Entity
p1793
(dp1794
g11
(lp1795
sg13
S'android.widget.DatePicker$OnDateChangedListener'
p1796
sg15
(lp1797
sg17
(lp1798
sg19
(lp1799
sg21
I0
sba(iArchitecture
Entity
p1800
(dp1801
g11
(lp1802
sg13
S'android.widget.DatePicker$SavedState'
p1803
sg15
(lp1804
sg17
(lp1805
sg19
(lp1806
sg21
I0
sba(iArchitecture
Entity
p1807
(dp1808
g11
(lp1809
sg13
S'android.widget.DatePicker$SavedState$1'
p1810
sg15
(lp1811
sg17
(lp1812
sg19
(lp1813
sg21
I0
sba(iArchitecture
Entity
p1814
(dp1815
g11
(lp1816
sg13
S'android.widget.DatePickerCalendarDelegate'
p1817
sg15
(lp1818
sg17
(lp1819
sg19
(lp1820
sg21
I0
sba(iArchitecture
Entity
p1821
(dp1822
g11
(lp1823
sg13
S'android.widget.DatePickerCalendarDelegate$1'
p1824
sg15
(lp1825
sg17
(lp1826
sg19
(lp1827
sg21
I0
sba(iArchitecture
Entity
p1828
(dp1829
g11
(lp1830
sg13
S'android.widget.DatePickerCalendarDelegate$2'
p1831
sg15
(lp1832
sg17
(lp1833
sg19
(lp1834
sg21
I0
sba(iArchitecture
Entity
p1835
(dp1836
g11
(lp1837
sg13
S'android.widget.DatePickerCalendarDelegate$3'
p1838
sg15
(lp1839
sg17
(lp1840
sg19
(lp1841
sg21
I0
sba(iArchitecture
Entity
p1842
(dp1843
g11
(lp1844
sg13
S'android.widget.DatePickerCalendarDelegate$SavedState'
p1845
sg15
(lp1846
sg17
(lp1847
sg19
(lp1848
sg21
I0
sba(iArchitecture
Entity
p1849
(dp1850
g11
(lp1851
sg13
S'android.widget.DatePickerCalendarDelegate$SavedState$1'
p1852
sg15
(lp1853
sg17
(lp1854
sg19
(lp1855
sg21
I0
sba(iArchitecture
Entity
p1856
(dp1857
g11
(lp1858
sg13
S'android.widget.DatePickerController'
p1859
sg15
(lp1860
sg17
(lp1861
sg19
(lp1862
sg21
I0
sba(iArchitecture
Entity
p1863
(dp1864
g11
(lp1865
sg13
S'android.widget.DateTimeView'
p1866
sg15
(lp1867
sg17
(lp1868
sg19
(lp1869
sg21
I0
sba(iArchitecture
Entity
p1870
(dp1871
g11
(lp1872
sg13
S'android.widget.DateTimeView$ReceiverInfo'
p1873
sg15
(lp1874
sg17
(lp1875
sg19
(lp1876
sg21
I0
sba(iArchitecture
Entity
p1877
(dp1878
g11
(lp1879
sg13
S'android.widget.DateTimeView$ReceiverInfo$1'
p1880
sg15
(lp1881
sg17
(lp1882
sg19
(lp1883
sg21
I0
sba(iArchitecture
Entity
p1884
(dp1885
g11
(lp1886
sg13
S'android.widget.DateTimeView$ReceiverInfo$2'
p1887
sg15
(lp1888
sg17
(lp1889
sg19
(lp1890
sg21
I0
sba(iArchitecture
Entity
p1891
(dp1892
g11
(lp1893
sg13
S'android.widget.DayPickerPagerAdapter'
p1894
sg15
(lp1895
sg17
(lp1896
sg19
(lp1897
sg21
I0
sba(iArchitecture
Entity
p1898
(dp1899
g11
(lp1900
sg13
S'android.widget.DayPickerPagerAdapter$1'
p1901
sg15
(lp1902
sg17
(lp1903
sg19
(lp1904
sg21
I0
sba(iArchitecture
Entity
p1905
(dp1906
g11
(lp1907
sg13
S'android.widget.DayPickerPagerAdapter$OnDaySelectedListener'
p1908
sg15
(lp1909
sg17
(lp1910
sg19
(lp1911
sg21
I0
sba(iArchitecture
Entity
p1912
(dp1913
g11
(lp1914
sg13
S'android.widget.DayPickerPagerAdapter$ViewHolder'
p1915
sg15
(lp1916
sg17
(lp1917
sg19
(lp1918
sg21
I0
sba(iArchitecture
Entity
p1919
(dp1920
g11
(lp1921
sg13
S'android.widget.DayPickerView'
p1922
sg15
(lp1923
sg17
(lp1924
sg19
(lp1925
sg21
I0
sba(iArchitecture
Entity
p1926
(dp1927
g11
(lp1928
sg13
S'android.widget.DayPickerView$1'
p1929
sg15
(lp1930
sg17
(lp1931
sg19
(lp1932
sg21
I0
sba(iArchitecture
Entity
p1933
(dp1934
g11
(lp1935
sg13
S'android.widget.DayPickerView$2'
p1936
sg15
(lp1937
sg17
(lp1938
sg19
(lp1939
sg21
I0
sba(iArchitecture
Entity
p1940
(dp1941
g11
(lp1942
sg13
S'android.widget.DayPickerView$3'
p1943
sg15
(lp1944
sg17
(lp1945
sg19
(lp1946
sg21
I0
sba(iArchitecture
Entity
p1947
(dp1948
g11
(lp1949
sg13
S'android.widget.DayPickerView$OnDaySelectedListener'
p1950
sg15
(lp1951
sg17
(lp1952
sg19
(lp1953
sg21
I0
sba(iArchitecture
Entity
p1954
(dp1955
g11
(lp1956
sg13
S'android.widget.DigitalClock'
p1957
sg15
(lp1958
sg17
(lp1959
sg19
(lp1960
sg21
I0
sba(iArchitecture
Entity
p1961
(dp1962
g11
(lp1963
sg13
S'android.widget.DigitalClock$1'
p1964
sg15
(lp1965
sg17
(lp1966
sg19
(lp1967
sg21
I0
sba(iArchitecture
Entity
p1968
(dp1969
g11
(lp1970
sg13
S'android.widget.DigitalClock$FormatChangeObserver'
p1971
sg15
(lp1972
sg17
(lp1973
sg19
(lp1974
sg21
I0
sba(iArchitecture
Entity
p1975
(dp1976
g11
(lp1977
sg13
S'android.widget.DoubleDigitManager'
p1978
sg15
(lp1979
sg17
(lp1980
sg19
(lp1981
sg21
I0
sba(iArchitecture
Entity
p1982
(dp1983
g11
(lp1984
sg13
S'android.widget.DoubleDigitManager$1'
p1985
sg15
(lp1986
sg17
(lp1987
sg19
(lp1988
sg21
I0
sba(iArchitecture
Entity
p1989
(dp1990
g11
(lp1991
sg13
S'android.widget.DoubleDigitManager$CallBack'
p1992
sg15
(lp1993
sg17
(lp1994
sg19
(lp1995
sg21
I0
sba(iArchitecture
Entity
p1996
(dp1997
g11
(lp1998
sg13
S'android.widget.EdgeEffect'
p1999
sg15
(lp2000
sg17
(lp2001
sg19
(lp2002
sg21
I0
sba(iArchitecture
Entity
p2003
(dp2004
g11
(lp2005
sg13
S'android.widget.EditText'
p2006
sg15
(lp2007
sg17
(lp2008
sg19
(lp2009
sg21
I0
sba(iArchitecture
Entity
p2010
(dp2011
g11
(lp2012
sg13
S'android.widget.Editor'
p2013
sg15
(lp2014
sg17
(lp2015
sg19
(lp2016
sg21
I0
sba(iArchitecture
Entity
p2017
(dp2018
g11
(lp2019
sg13
S'android.widget.Editor$1'
p2020
sg15
(lp2021
sg17
(lp2022
sg19
(lp2023
sg21
I0
sba(iArchitecture
Entity
p2024
(dp2025
g11
(lp2026
sg13
S'android.widget.Editor$2'
p2027
sg15
(lp2028
sg17
(lp2029
sg19
(lp2030
sg21
I0
sba(iArchitecture
Entity
p2031
(dp2032
g11
(lp2033
sg13
S'android.widget.Editor$Blink'
p2034
sg15
(lp2035
sg17
(lp2036
sg19
(lp2037
sg21
I0
sba(iArchitecture
Entity
p2038
(dp2039
g11
(lp2040
sg13
S'android.widget.Editor$CorrectionHighlighter'
p2041
sg15
(lp2042
sg17
(lp2043
sg19
(lp2044
sg21
I0
sba(iArchitecture
Entity
p2045
(dp2046
g11
(lp2047
sg13
S'android.widget.Editor$CursorAnchorInfoNotifier'
p2048
sg15
(lp2049
sg17
(lp2050
sg19
(lp2051
sg21
I0
sba(iArchitecture
Entity
p2052
(dp2053
g11
(lp2054
sg13
S'android.widget.Editor$CursorController'
p2055
sg15
(lp2056
sg17
(lp2057
sg19
(lp2058
sg21
I0
sba(iArchitecture
Entity
p2059
(dp2060
g11
(lp2061
sg13
S'android.widget.Editor$DragLocalState'
p2062
sg15
(lp2063
sg17
(lp2064
sg19
(lp2065
sg21
I0
sba(iArchitecture
Entity
p2066
(dp2067
g11
(lp2068
sg13
S'android.widget.Editor$EasyEditDeleteListener'
p2069
sg15
(lp2070
sg17
(lp2071
sg19
(lp2072
sg21
I0
sba(iArchitecture
Entity
p2073
(dp2074
g11
(lp2075
sg13
S'android.widget.Editor$EasyEditPopupWindow'
p2076
sg15
(lp2077
sg17
(lp2078
sg19
(lp2079
sg21
I0
sba(iArchitecture
Entity
p2080
(dp2081
g11
(lp2082
sg13
S'android.widget.Editor$EditOperation'
p2083
sg15
(lp2084
sg17
(lp2085
sg19
(lp2086
sg21
I0
sba(iArchitecture
Entity
p2087
(dp2088
g11
(lp2089
sg13
S'android.widget.Editor$EditOperation$1'
p2090
sg15
(lp2091
sg17
(lp2092
sg19
(lp2093
sg21
I0
sba(iArchitecture
Entity
p2094
(dp2095
g11
(lp2096
sg13
S'android.widget.Editor$ErrorPopup'
p2097
sg15
(lp2098
sg17
(lp2099
sg19
(lp2100
sg21
I0
sba(iArchitecture
Entity
p2101
(dp2102
g11
(lp2103
sg13
S'android.widget.Editor$HandleView'
p2104
sg15
(lp2105
sg17
(lp2106
sg19
(lp2107
sg21
I0
sba(iArchitecture
Entity
p2108
(dp2109
g11
(lp2110
sg13
S'android.widget.Editor$InputContentType'
p2111
sg15
(lp2112
sg17
(lp2113
sg19
(lp2114
sg21
I0
sba(iArchitecture
Entity
p2115
(dp2116
g11
(lp2117
sg13
S'android.widget.Editor$InputMethodState'
p2118
sg15
(lp2119
sg17
(lp2120
sg19
(lp2121
sg21
I0
sba(iArchitecture
Entity
p2122
(dp2123
g11
(lp2124
sg13
S'android.widget.Editor$InsertionHandleView'
p2125
sg15
(lp2126
sg17
(lp2127
sg19
(lp2128
sg21
I0
sba(iArchitecture
Entity
p2129
(dp2130
g11
(lp2131
sg13
S'android.widget.Editor$InsertionHandleView$1'
p2132
sg15
(lp2133
sg17
(lp2134
sg19
(lp2135
sg21
I0
sba(iArchitecture
Entity
p2136
(dp2137
g11
(lp2138
sg13
S'android.widget.Editor$InsertionHandleView$2'
p2139
sg15
(lp2140
sg17
(lp2141
sg19
(lp2142
sg21
I0
sba(iArchitecture
Entity
p2143
(dp2144
g11
(lp2145
sg13
S'android.widget.Editor$InsertionPointCursorController'
p2146
sg15
(lp2147
sg17
(lp2148
sg19
(lp2149
sg21
I0
sba(iArchitecture
Entity
p2150
(dp2151
g11
(lp2152
sg13
S'android.widget.Editor$PinnedPopupWindow'
p2153
sg15
(lp2154
sg17
(lp2155
sg19
(lp2156
sg21
I0
sba(iArchitecture
Entity
p2157
(dp2158
g11
(lp2159
sg13
S'android.widget.Editor$PositionListener'
p2160
sg15
(lp2161
sg17
(lp2162
sg19
(lp2163
sg21
I0
sba(iArchitecture
Entity
p2164
(dp2165
g11
(lp2166
sg13
S'android.widget.Editor$ProcessTextIntentActionsHandler'
p2167
sg15
(lp2168
sg17
(lp2169
sg19
(lp2170
sg21
I0
sba(iArchitecture
Entity
p2171
(dp2172
g11
(lp2173
sg13
S'android.widget.Editor$SelectionEndHandleView'
p2174
sg15
(lp2175
sg17
(lp2176
sg19
(lp2177
sg21
I0
sba(iArchitecture
Entity
p2178
(dp2179
g11
(lp2180
sg13
S'android.widget.Editor$SelectionModifierCursorController'
p2181
sg15
(lp2182
sg17
(lp2183
sg19
(lp2184
sg21
I0
sba(iArchitecture
Entity
p2185
(dp2186
g11
(lp2187
sg13
S'android.widget.Editor$SelectionStartHandleView'
p2188
sg15
(lp2189
sg17
(lp2190
sg19
(lp2191
sg21
I0
sba(iArchitecture
Entity
p2192
(dp2193
g11
(lp2194
sg13
S'android.widget.Editor$SpanController'
p2195
sg15
(lp2196
sg17
(lp2197
sg19
(lp2198
sg21
I0
sba(iArchitecture
Entity
p2199
(dp2200
g11
(lp2201
sg13
S'android.widget.Editor$SpanController$1'
p2202
sg15
(lp2203
sg17
(lp2204
sg19
(lp2205
sg21
I0
sba(iArchitecture
Entity
p2206
(dp2207
g11
(lp2208
sg13
S'android.widget.Editor$SpanController$2'
p2209
sg15
(lp2210
sg17
(lp2211
sg19
(lp2212
sg21
I0
sba(iArchitecture
Entity
p2213
(dp2214
g11
(lp2215
sg13
S'android.widget.Editor$SuggestionsPopupWindow'
p2216
sg15
(lp2217
sg17
(lp2218
sg19
(lp2219
sg21
I0
sba(iArchitecture
Entity
p2220
(dp2221
g11
(lp2222
sg13
S'android.widget.Editor$SuggestionsPopupWindow$CustomPopupWindow'
p2223
sg15
(lp2224
sg17
(lp2225
sg19
(lp2226
sg21
I0
sba(iArchitecture
Entity
p2227
(dp2228
g11
(lp2229
sg13
S'android.widget.Editor$SuggestionsPopupWindow$SuggestionAdapter'
p2230
sg15
(lp2231
sg17
(lp2232
sg19
(lp2233
sg21
I0
sba(iArchitecture
Entity
p2234
(dp2235
g11
(lp2236
sg13
S'android.widget.Editor$SuggestionsPopupWindow$SuggestionInfo'
p2237
sg15
(lp2238
sg17
(lp2239
sg19
(lp2240
sg21
I0
sba(iArchitecture
Entity
p2241
(dp2242
g11
(lp2243
sg13
S'android.widget.Editor$SuggestionsPopupWindow$SuggestionSpanComparator'
p2244
sg15
(lp2245
sg17
(lp2246
sg19
(lp2247
sg21
I0
sba(iArchitecture
Entity
p2248
(dp2249
g11
(lp2250
sg13
S'android.widget.Editor$TextActionModeCallback'
p2251
sg15
(lp2252
sg17
(lp2253
sg19
(lp2254
sg21
I0
sba(iArchitecture
Entity
p2255
(dp2256
g11
(lp2257
sg13
S'android.widget.Editor$TextRenderNode'
p2258
sg15
(lp2259
sg17
(lp2260
sg19
(lp2261
sg21
I0
sba(iArchitecture
Entity
p2262
(dp2263
g11
(lp2264
sg13
S'android.widget.Editor$TextViewPositionListener'
p2265
sg15
(lp2266
sg17
(lp2267
sg19
(lp2268
sg21
I0
sba(iArchitecture
Entity
p2269
(dp2270
g11
(lp2271
sg13
S'android.widget.Editor$UndoInputFilter'
p2272
sg15
(lp2273
sg17
(lp2274
sg19
(lp2275
sg21
I0
sba(iArchitecture
Entity
p2276
(dp2277
g11
(lp2278
sg13
S'android.widget.ExpandableListAdapter'
p2279
sg15
(lp2280
sg17
(lp2281
sg19
(lp2282
sg21
I0
sba(iArchitecture
Entity
p2283
(dp2284
g11
(lp2285
sg13
S'android.widget.ExpandableListConnector'
p2286
sg15
(lp2287
sg17
(lp2288
sg19
(lp2289
sg21
I0
sba(iArchitecture
Entity
p2290
(dp2291
g11
(lp2292
sg13
S'android.widget.ExpandableListConnector$GroupMetadata'
p2293
sg15
(lp2294
sg17
(lp2295
sg19
(lp2296
sg21
I0
sba(iArchitecture
Entity
p2297
(dp2298
g11
(lp2299
sg13
S'android.widget.ExpandableListConnector$GroupMetadata$1'
p2300
sg15
(lp2301
sg17
(lp2302
sg19
(lp2303
sg21
I0
sba(iArchitecture
Entity
p2304
(dp2305
g11
(lp2306
sg13
S'android.widget.ExpandableListConnector$MyDataSetObserver'
p2307
sg15
(lp2308
sg17
(lp2309
sg19
(lp2310
sg21
I0
sba(iArchitecture
Entity
p2311
(dp2312
g11
(lp2313
sg13
S'android.widget.ExpandableListConnector$PositionMetadata'
p2314
sg15
(lp2315
sg17
(lp2316
sg19
(lp2317
sg21
I0
sba(iArchitecture
Entity
p2318
(dp2319
g11
(lp2320
sg13
S'android.widget.ExpandableListPosition'
p2321
sg15
(lp2322
sg17
(lp2323
sg19
(lp2324
sg21
I0
sba(iArchitecture
Entity
p2325
(dp2326
g11
(lp2327
sg13
S'android.widget.ExpandableListView'
p2328
sg15
(lp2329
sg17
(lp2330
sg19
(lp2331
sg21
I0
sba(iArchitecture
Entity
p2332
(dp2333
g11
(lp2334
sg13
S'android.widget.ExpandableListView$ExpandableListContextMenuInfo'
p2335
sg15
(lp2336
sg17
(lp2337
sg19
(lp2338
sg21
I0
sba(iArchitecture
Entity
p2339
(dp2340
g11
(lp2341
sg13
S'android.widget.ExpandableListView$OnChildClickListener'
p2342
sg15
(lp2343
sg17
(lp2344
sg19
(lp2345
sg21
I0
sba(iArchitecture
Entity
p2346
(dp2347
g11
(lp2348
sg13
S'android.widget.ExpandableListView$OnGroupClickListener'
p2349
sg15
(lp2350
sg17
(lp2351
sg19
(lp2352
sg21
I0
sba(iArchitecture
Entity
p2353
(dp2354
g11
(lp2355
sg13
S'android.widget.ExpandableListView$OnGroupCollapseListener'
p2356
sg15
(lp2357
sg17
(lp2358
sg19
(lp2359
sg21
I0
sba(iArchitecture
Entity
p2360
(dp2361
g11
(lp2362
sg13
S'android.widget.ExpandableListView$OnGroupExpandListener'
p2363
sg15
(lp2364
sg17
(lp2365
sg19
(lp2366
sg21
I0
sba(iArchitecture
Entity
p2367
(dp2368
g11
(lp2369
sg13
S'android.widget.ExpandableListView$SavedState'
p2370
sg15
(lp2371
sg17
(lp2372
sg19
(lp2373
sg21
I0
sba(iArchitecture
Entity
p2374
(dp2375
g11
(lp2376
sg13
S'android.widget.ExpandableListView$SavedState$1'
p2377
sg15
(lp2378
sg17
(lp2379
sg19
(lp2380
sg21
I0
sba(iArchitecture
Entity
p2381
(dp2382
g11
(lp2383
sg13
S'android.widget.FastScroller'
p2384
sg15
(lp2385
sg17
(lp2386
sg19
(lp2387
sg21
I0
sba(iArchitecture
Entity
p2388
(dp2389
g11
(lp2390
sg13
S'android.widget.FastScroller$1'
p2391
sg15
(lp2392
sg17
(lp2393
sg19
(lp2394
sg21
I0
sba(iArchitecture
Entity
p2395
(dp2396
g11
(lp2397
sg13
S'android.widget.FastScroller$2'
p2398
sg15
(lp2399
sg17
(lp2400
sg19
(lp2401
sg21
I0
sba(iArchitecture
Entity
p2402
(dp2403
g11
(lp2404
sg13
S'android.widget.FastScroller$3'
p2405
sg15
(lp2406
sg17
(lp2407
sg19
(lp2408
sg21
I0
sba(iArchitecture
Entity
p2409
(dp2410
g11
(lp2411
sg13
S'android.widget.FastScroller$4'
p2412
sg15
(lp2413
sg17
(lp2414
sg19
(lp2415
sg21
I0
sba(iArchitecture
Entity
p2416
(dp2417
g11
(lp2418
sg13
S'android.widget.FastScroller$5'
p2419
sg15
(lp2420
sg17
(lp2421
sg19
(lp2422
sg21
I0
sba(iArchitecture
Entity
p2423
(dp2424
g11
(lp2425
sg13
S'android.widget.FastScroller$6'
p2426
sg15
(lp2427
sg17
(lp2428
sg19
(lp2429
sg21
I0
sba(iArchitecture
Entity
p2430
(dp2431
g11
(lp2432
sg13
S'android.widget.Filter'
p2433
sg15
(lp2434
sg17
(lp2435
sg19
(lp2436
sg21
I0
sba(iArchitecture
Entity
p2437
(dp2438
g11
(lp2439
sg13
S'android.widget.Filter$Delayer'
p2440
sg15
(lp2441
sg17
(lp2442
sg19
(lp2443
sg21
I0
sba(iArchitecture
Entity
p2444
(dp2445
g11
(lp2446
sg13
S'android.widget.Filter$FilterListener'
p2447
sg15
(lp2448
sg17
(lp2449
sg19
(lp2450
sg21
I0
sba(iArchitecture
Entity
p2451
(dp2452
g11
(lp2453
sg13
S'android.widget.Filter$FilterResults'
p2454
sg15
(lp2455
sg17
(lp2456
sg19
(lp2457
sg21
I0
sba(iArchitecture
Entity
p2458
(dp2459
g11
(lp2460
sg13
S'android.widget.Filter$RequestArguments'
p2461
sg15
(lp2462
sg17
(lp2463
sg19
(lp2464
sg21
I0
sba(iArchitecture
Entity
p2465
(dp2466
g11
(lp2467
sg13
S'android.widget.Filter$RequestHandler'
p2468
sg15
(lp2469
sg17
(lp2470
sg19
(lp2471
sg21
I0
sba(iArchitecture
Entity
p2472
(dp2473
g11
(lp2474
sg13
S'android.widget.Filter$ResultsHandler'
p2475
sg15
(lp2476
sg17
(lp2477
sg19
(lp2478
sg21
I0
sba(iArchitecture
Entity
p2479
(dp2480
g11
(lp2481
sg13
S'android.widget.FilterQueryProvider'
p2482
sg15
(lp2483
sg17
(lp2484
sg19
(lp2485
sg21
I0
sba(iArchitecture
Entity
p2486
(dp2487
g11
(lp2488
sg13
S'android.widget.Filterable'
p2489
sg15
(lp2490
sg17
(lp2491
sg19
(lp2492
sg21
I0
sba(iArchitecture
Entity
p2493
(dp2494
g11
(lp2495
sg13
S'android.widget.FrameLayout'
p2496
sg15
(lp2497
sg17
(lp2498
sg19
(lp2499
sg21
I0
sba(iArchitecture
Entity
p2500
(dp2501
g11
(lp2502
sg13
S'android.widget.Gallery'
p2503
sg15
(lp2504
sg17
(lp2505
sg19
(lp2506
sg21
I0
sba(iArchitecture
Entity
p2507
(dp2508
g11
(lp2509
sg13
S'android.widget.Gallery$1'
p2510
sg15
(lp2511
sg17
(lp2512
sg19
(lp2513
sg21
I0
sba(iArchitecture
Entity
p2514
(dp2515
g11
(lp2516
sg13
S'android.widget.Gallery$2'
p2517
sg15
(lp2518
sg17
(lp2519
sg19
(lp2520
sg21
I0
sba(iArchitecture
Entity
p2521
(dp2522
g11
(lp2523
sg13
S'android.widget.Gallery$FlingRunnable'
p2524
sg15
(lp2525
sg17
(lp2526
sg19
(lp2527
sg21
I0
sba(iArchitecture
Entity
p2528
(dp2529
g11
(lp2530
sg13
S'android.widget.Gallery$LayoutParams'
p2531
sg15
(lp2532
sg17
(lp2533
sg19
(lp2534
sg21
I0
sba(iArchitecture
Entity
p2535
(dp2536
g11
(lp2537
sg13
S'android.widget.GridLayout'
p2538
sg15
(lp2539
sg17
(lp2540
sg19
(lp2541
sg21
I0
sba(iArchitecture
Entity
p2542
(dp2543
g11
(lp2544
sg13
S'android.widget.GridLayout$1'
p2545
sg15
(lp2546
sg17
(lp2547
sg19
(lp2548
sg21
I0
sba(iArchitecture
Entity
p2549
(dp2550
g11
(lp2551
sg13
S'android.widget.GridLayout$2'
p2552
sg15
(lp2553
sg17
(lp2554
sg19
(lp2555
sg21
I0
sba(iArchitecture
Entity
p2556
(dp2557
g11
(lp2558
sg13
S'android.widget.GridLayout$3'
p2559
sg15
(lp2560
sg17
(lp2561
sg19
(lp2562
sg21
I0
sba(iArchitecture
Entity
p2563
(dp2564
g11
(lp2565
sg13
S'android.widget.GridLayout$4'
p2566
sg15
(lp2567
sg17
(lp2568
sg19
(lp2569
sg21
I0
sba(iArchitecture
Entity
p2570
(dp2571
g11
(lp2572
sg13
S'android.widget.GridLayout$5'
p2573
sg15
(lp2574
sg17
(lp2575
sg19
(lp2576
sg21
I0
sba(iArchitecture
Entity
p2577
(dp2578
g11
(lp2579
sg13
S'android.widget.GridLayout$6'
p2580
sg15
(lp2581
sg17
(lp2582
sg19
(lp2583
sg21
I0
sba(iArchitecture
Entity
p2584
(dp2585
g11
(lp2586
sg13
S'android.widget.GridLayout$6$1'
p2587
sg15
(lp2588
sg17
(lp2589
sg19
(lp2590
sg21
I0
sba(iArchitecture
Entity
p2591
(dp2592
g11
(lp2593
sg13
S'android.widget.GridLayout$7'
p2594
sg15
(lp2595
sg17
(lp2596
sg19
(lp2597
sg21
I0
sba(iArchitecture
Entity
p2598
(dp2599
g11
(lp2600
sg13
S'android.widget.GridLayout$8'
p2601
sg15
(lp2602
sg17
(lp2603
sg19
(lp2604
sg21
I0
sba(iArchitecture
Entity
p2605
(dp2606
g11
(lp2607
sg13
S'android.widget.GridLayout$Alignment'
p2608
sg15
(lp2609
sg17
(lp2610
sg19
(lp2611
sg21
I0
sba(iArchitecture
Entity
p2612
(dp2613
g11
(lp2614
sg13
S'android.widget.GridLayout$Arc'
p2615
sg15
(lp2616
sg17
(lp2617
sg19
(lp2618
sg21
I0
sba(iArchitecture
Entity
p2619
(dp2620
g11
(lp2621
sg13
S'android.widget.GridLayout$Assoc'
p2622
sg15
(lp2623
sg17
(lp2624
sg19
(lp2625
sg21
I0
sba(iArchitecture
Entity
p2626
(dp2627
g11
(lp2628
sg13
S'android.widget.GridLayout$Axis'
p2629
sg15
(lp2630
sg17
(lp2631
sg19
(lp2632
sg21
I0
sba(iArchitecture
Entity
p2633
(dp2634
g11
(lp2635
sg13
S'android.widget.GridLayout$Axis$1'
p2636
sg15
(lp2637
sg17
(lp2638
sg19
(lp2639
sg21
I0
sba(iArchitecture
Entity
p2640
(dp2641
g11
(lp2642
sg13
S'android.widget.GridLayout$Bounds'
p2643
sg15
(lp2644
sg17
(lp2645
sg19
(lp2646
sg21
I0
sba(iArchitecture
Entity
p2647
(dp2648
g11
(lp2649
sg13
S'android.widget.GridLayout$Interval'
p2650
sg15
(lp2651
sg17
(lp2652
sg19
(lp2653
sg21
I0
sba(iArchitecture
Entity
p2654
(dp2655
g11
(lp2656
sg13
S'android.widget.GridLayout$LayoutParams'
p2657
sg15
(lp2658
sg17
(lp2659
sg19
(lp2660
sg21
I0
sba(iArchitecture
Entity
p2661
(dp2662
g11
(lp2663
sg13
S'android.widget.GridLayout$MutableInt'
p2664
sg15
(lp2665
sg17
(lp2666
sg19
(lp2667
sg21
I0
sba(iArchitecture
Entity
p2668
(dp2669
g11
(lp2670
sg13
S'android.widget.GridLayout$PackedMap'
p2671
sg15
(lp2672
sg17
(lp2673
sg19
(lp2674
sg21
I0
sba(iArchitecture
Entity
p2675
(dp2676
g11
(lp2677
sg13
S'android.widget.GridLayout$Spec'
p2678
sg15
(lp2679
sg17
(lp2680
sg19
(lp2681
sg21
I0
sba(iArchitecture
Entity
p2682
(dp2683
g11
(lp2684
sg13
S'android.widget.HeaderViewListAdapter'
p2685
sg15
(lp2686
sg17
(lp2687
sg19
(lp2688
sg21
I0
sba(iArchitecture
Entity
p2689
(dp2690
g11
(lp2691
sg13
S'android.widget.HeterogeneousExpandableList'
p2692
sg15
(lp2693
sg17
(lp2694
sg19
(lp2695
sg21
I0
sba(iArchitecture
Entity
p2696
(dp2697
g11
(lp2698
sg13
S'android.widget.HorizontalScrollView'
p2699
sg15
(lp2700
sg17
(lp2701
sg19
(lp2702
sg21
I0
sba(iArchitecture
Entity
p2703
(dp2704
g11
(lp2705
sg13
S'android.widget.HorizontalScrollView$SavedState'
p2706
sg15
(lp2707
sg17
(lp2708
sg19
(lp2709
sg21
I0
sba(iArchitecture
Entity
p2710
(dp2711
g11
(lp2712
sg13
S'android.widget.HorizontalScrollView$SavedState$1'
p2713
sg15
(lp2714
sg17
(lp2715
sg19
(lp2716
sg21
I0
sba(iArchitecture
Entity
p2717
(dp2718
g11
(lp2719
sg13
S'android.widget.ImageButton'
p2720
sg15
(lp2721
sg17
(lp2722
sg19
(lp2723
sg21
I0
sba(iArchitecture
Entity
p2724
(dp2725
g11
(lp2726
sg13
S'android.widget.ImageView'
p2727
sg15
(lp2728
sg17
(lp2729
sg19
(lp2730
sg21
I0
sba(iArchitecture
Entity
p2731
(dp2732
g11
(lp2733
sg13
S'android.widget.ImageView$ImageViewBitmapDrawable'
p2734
sg15
(lp2735
sg17
(lp2736
sg19
(lp2737
sg21
I0
sba(iArchitecture
Entity
p2738
(dp2739
g11
(lp2740
sg13
S'android.widget.ListAdapter'
p2741
sg15
(lp2742
sg17
(lp2743
sg19
(lp2744
sg21
I0
sba(iArchitecture
Entity
p2745
(dp2746
g11
(lp2747
sg13
S'android.widget.ListPopupWindow'
p2748
sg15
(lp2749
sg17
(lp2750
sg19
(lp2751
sg21
I0
sba(iArchitecture
Entity
p2752
(dp2753
g11
(lp2754
sg13
S'android.widget.ListPopupWindow$1'
p2755
sg15
(lp2756
sg17
(lp2757
sg19
(lp2758
sg21
I0
sba(iArchitecture
Entity
p2759
(dp2760
g11
(lp2761
sg13
S'android.widget.ListPopupWindow$2'
p2762
sg15
(lp2763
sg17
(lp2764
sg19
(lp2765
sg21
I0
sba(iArchitecture
Entity
p2766
(dp2767
g11
(lp2768
sg13
S'android.widget.ListPopupWindow$3'
p2769
sg15
(lp2770
sg17
(lp2771
sg19
(lp2772
sg21
I0
sba(iArchitecture
Entity
p2773
(dp2774
g11
(lp2775
sg13
S'android.widget.ListPopupWindow$DropDownListView'
p2776
sg15
(lp2777
sg17
(lp2778
sg19
(lp2779
sg21
I0
sba(iArchitecture
Entity
p2780
(dp2781
g11
(lp2782
sg13
S'android.widget.ListPopupWindow$DropDownListView$1'
p2783
sg15
(lp2784
sg17
(lp2785
sg19
(lp2786
sg21
I0
sba(iArchitecture
Entity
p2787
(dp2788
g11
(lp2789
sg13
S'android.widget.ListPopupWindow$DropDownListView$2'
p2790
sg15
(lp2791
sg17
(lp2792
sg19
(lp2793
sg21
I0
sba(iArchitecture
Entity
p2794
(dp2795
g11
(lp2796
sg13
S'android.widget.ListPopupWindow$ForwardingListener'
p2797
sg15
(lp2798
sg17
(lp2799
sg19
(lp2800
sg21
I0
sba(iArchitecture
Entity
p2801
(dp2802
g11
(lp2803
sg13
S'android.widget.ListPopupWindow$ForwardingListener$DisallowIntercept'
p2804
sg15
(lp2805
sg17
(lp2806
sg19
(lp2807
sg21
I0
sba(iArchitecture
Entity
p2808
(dp2809
g11
(lp2810
sg13
S'android.widget.ListPopupWindow$ForwardingListener$TriggerLongPress'
p2811
sg15
(lp2812
sg17
(lp2813
sg19
(lp2814
sg21
I0
sba(iArchitecture
Entity
p2815
(dp2816
g11
(lp2817
sg13
S'android.widget.ListPopupWindow$ListSelectorHider'
p2818
sg15
(lp2819
sg17
(lp2820
sg19
(lp2821
sg21
I0
sba(iArchitecture
Entity
p2822
(dp2823
g11
(lp2824
sg13
S'android.widget.ListPopupWindow$PopupDataSetObserver'
p2825
sg15
(lp2826
sg17
(lp2827
sg19
(lp2828
sg21
I0
sba(iArchitecture
Entity
p2829
(dp2830
g11
(lp2831
sg13
S'android.widget.ListPopupWindow$PopupScrollListener'
p2832
sg15
(lp2833
sg17
(lp2834
sg19
(lp2835
sg21
I0
sba(iArchitecture
Entity
p2836
(dp2837
g11
(lp2838
sg13
S'android.widget.ListPopupWindow$PopupTouchInterceptor'
p2839
sg15
(lp2840
sg17
(lp2841
sg19
(lp2842
sg21
I0
sba(iArchitecture
Entity
p2843
(dp2844
g11
(lp2845
sg13
S'android.widget.ListPopupWindow$ResizePopupRunnable'
p2846
sg15
(lp2847
sg17
(lp2848
sg19
(lp2849
sg21
I0
sba(iArchitecture
Entity
p2850
(dp2851
g11
(lp2852
sg13
S'android.widget.ListView'
p2853
sg15
(lp2854
sg17
(lp2855
sg19
(lp2856
sg21
I0
sba(iArchitecture
Entity
p2857
(dp2858
g11
(lp2859
sg13
S'android.widget.ListView$ArrowScrollFocusResult'
p2860
sg15
(lp2861
sg17
(lp2862
sg19
(lp2863
sg21
I0
sba(iArchitecture
Entity
p2864
(dp2865
g11
(lp2866
sg13
S'android.widget.ListView$FixedViewInfo'
p2867
sg15
(lp2868
sg17
(lp2869
sg19
(lp2870
sg21
I0
sba(iArchitecture
Entity
p2871
(dp2872
g11
(lp2873
sg13
S'android.widget.ListView$FocusSelector'
p2874
sg15
(lp2875
sg17
(lp2876
sg19
(lp2877
sg21
I0
sba(iArchitecture
Entity
p2878
(dp2879
g11
(lp2880
sg13
S'android.widget.MediaController'
p2881
sg15
(lp2882
sg17
(lp2883
sg19
(lp2884
sg21
I0
sba(iArchitecture
Entity
p2885
(dp2886
g11
(lp2887
sg13
S'android.widget.MediaController$1'
p2888
sg15
(lp2889
sg17
(lp2890
sg19
(lp2891
sg21
I0
sba(iArchitecture
Entity
p2892
(dp2893
g11
(lp2894
sg13
S'android.widget.MediaController$2'
p2895
sg15
(lp2896
sg17
(lp2897
sg19
(lp2898
sg21
I0
sba(iArchitecture
Entity
p2899
(dp2900
g11
(lp2901
sg13
S'android.widget.MediaController$3'
p2902
sg15
(lp2903
sg17
(lp2904
sg19
(lp2905
sg21
I0
sba(iArchitecture
Entity
p2906
(dp2907
g11
(lp2908
sg13
S'android.widget.MediaController$4'
p2909
sg15
(lp2910
sg17
(lp2911
sg19
(lp2912
sg21
I0
sba(iArchitecture
Entity
p2913
(dp2914
g11
(lp2915
sg13
S'android.widget.MediaController$5'
p2916
sg15
(lp2917
sg17
(lp2918
sg19
(lp2919
sg21
I0
sba(iArchitecture
Entity
p2920
(dp2921
g11
(lp2922
sg13
S'android.widget.MediaController$6'
p2923
sg15
(lp2924
sg17
(lp2925
sg19
(lp2926
sg21
I0
sba(iArchitecture
Entity
p2927
(dp2928
g11
(lp2929
sg13
S'android.widget.MediaController$7'
p2930
sg15
(lp2931
sg17
(lp2932
sg19
(lp2933
sg21
I0
sba(iArchitecture
Entity
p2934
(dp2935
g11
(lp2936
sg13
S'android.widget.MediaController$MediaPlayerControl'
p2937
sg15
(lp2938
sg17
(lp2939
sg19
(lp2940
sg21
I0
sba(iArchitecture
Entity
p2941
(dp2942
g11
(lp2943
sg13
S'android.widget.MultiAutoCompleteTextView'
p2944
sg15
(lp2945
sg17
(lp2946
sg19
(lp2947
sg21
I0
sba(iArchitecture
Entity
p2948
(dp2949
g11
(lp2950
sg13
S'android.widget.MultiAutoCompleteTextView$CommaTokenizer'
p2951
sg15
(lp2952
sg17
(lp2953
sg19
(lp2954
sg21
I0
sba(iArchitecture
Entity
p2955
(dp2956
g11
(lp2957
sg13
S'android.widget.MultiAutoCompleteTextView$Tokenizer'
p2958
sg15
(lp2959
sg17
(lp2960
sg19
(lp2961
sg21
I0
sba(iArchitecture
Entity
p2962
(dp2963
g11
(lp2964
sg13
S'android.widget.NumberPicker'
p2965
sg15
(lp2966
sg17
(lp2967
sg19
(lp2968
sg21
I0
sba(iArchitecture
Entity
p2969
(dp2970
g11
(lp2971
sg13
S'android.widget.NumberPicker$1'
p2972
sg15
(lp2973
sg17
(lp2974
sg19
(lp2975
sg21
I0
sba(iArchitecture
Entity
p2976
(dp2977
g11
(lp2978
sg13
S'android.widget.NumberPicker$2'
p2979
sg15
(lp2980
sg17
(lp2981
sg19
(lp2982
sg21
I0
sba(iArchitecture
Entity
p2983
(dp2984
g11
(lp2985
sg13
S'android.widget.NumberPicker$3'
p2986
sg15
(lp2987
sg17
(lp2988
sg19
(lp2989
sg21
I0
sba(iArchitecture
Entity
p2990
(dp2991
g11
(lp2992
sg13
S'android.widget.NumberPicker$AccessibilityNodeProviderImpl'
p2993
sg15
(lp2994
sg17
(lp2995
sg19
(lp2996
sg21
I0
sba(iArchitecture
Entity
p2997
(dp2998
g11
(lp2999
sg13
S'android.widget.NumberPicker$BeginSoftInputOnLongPressCommand'
p3000
sg15
(lp3001
sg17
(lp3002
sg19
(lp3003
sg21
I0
sba(iArchitecture
Entity
p3004
(dp3005
g11
(lp3006
sg13
S'android.widget.NumberPicker$ChangeCurrentByOneFromLongPressCommand'
p3007
sg15
(lp3008
sg17
(lp3009
sg19
(lp3010
sg21
I0
sba(iArchitecture
Entity
p3011
(dp3012
g11
(lp3013
sg13
S'android.widget.NumberPicker$CustomEditText'
p3014
sg15
(lp3015
sg17
(lp3016
sg19
(lp3017
sg21
I0
sba(iArchitecture
Entity
p3018
(dp3019
g11
(lp3020
sg13
S'android.widget.NumberPicker$Formatter'
p3021
sg15
(lp3022
sg17
(lp3023
sg19
(lp3024
sg21
I0
sba(iArchitecture
Entity
p3025
(dp3026
g11
(lp3027
sg13
S'android.widget.NumberPicker$InputTextFilter'
p3028
sg15
(lp3029
sg17
(lp3030
sg19
(lp3031
sg21
I0
sba(iArchitecture
Entity
p3032
(dp3033
g11
(lp3034
sg13
S'android.widget.NumberPicker$OnScrollListener'
p3035
sg15
(lp3036
sg17
(lp3037
sg19
(lp3038
sg21
I0
sba(iArchitecture
Entity
p3039
(dp3040
g11
(lp3041
sg13
S'android.widget.NumberPicker$OnValueChangeListener'
p3042
sg15
(lp3043
sg17
(lp3044
sg19
(lp3045
sg21
I0
sba(iArchitecture
Entity
p3046
(dp3047
g11
(lp3048
sg13
S'android.widget.NumberPicker$PressedStateHelper'
p3049
sg15
(lp3050
sg17
(lp3051
sg19
(lp3052
sg21
I0
sba(iArchitecture
Entity
p3053
(dp3054
g11
(lp3055
sg13
S'android.widget.NumberPicker$SetSelectionCommand'
p3056
sg15
(lp3057
sg17
(lp3058
sg19
(lp3059
sg21
I0
sba(iArchitecture
Entity
p3060
(dp3061
g11
(lp3062
sg13
S'android.widget.NumberPicker$TwoDigitFormatter'
p3063
sg15
(lp3064
sg17
(lp3065
sg19
(lp3066
sg21
I0
sba(iArchitecture
Entity
p3067
(dp3068
g11
(lp3069
sg13
S'android.widget.OnDateChangedListener'
p3070
sg15
(lp3071
sg17
(lp3072
sg19
(lp3073
sg21
I0
sba(iArchitecture
Entity
p3074
(dp3075
g11
(lp3076
sg13
S'android.widget.OverScroller'
p3077
sg15
(lp3078
sg17
(lp3079
sg19
(lp3080
sg21
I0
sba(iArchitecture
Entity
p3081
(dp3082
g11
(lp3083
sg13
S'android.widget.OverScroller$SplineOverScroller'
p3084
sg15
(lp3085
sg17
(lp3086
sg19
(lp3087
sg21
I0
sba(iArchitecture
Entity
p3088
(dp3089
g11
(lp3090
sg13
S'android.widget.PopupMenu'
p3091
sg15
(lp3092
sg17
(lp3093
sg19
(lp3094
sg21
I0
sba(iArchitecture
Entity
p3095
(dp3096
g11
(lp3097
sg13
S'android.widget.PopupMenu$1'
p3098
sg15
(lp3099
sg17
(lp3100
sg19
(lp3101
sg21
I0
sba(iArchitecture
Entity
p3102
(dp3103
g11
(lp3104
sg13
S'android.widget.PopupMenu$OnDismissListener'
p3105
sg15
(lp3106
sg17
(lp3107
sg19
(lp3108
sg21
I0
sba(iArchitecture
Entity
p3109
(dp3110
g11
(lp3111
sg13
S'android.widget.PopupMenu$OnMenuItemClickListener'
p3112
sg15
(lp3113
sg17
(lp3114
sg19
(lp3115
sg21
I0
sba(iArchitecture
Entity
p3116
(dp3117
g11
(lp3118
sg13
S'android.widget.PopupWindow'
p3119
sg15
(lp3120
sg17
(lp3121
sg19
(lp3122
sg21
I0
sba(iArchitecture
Entity
p3123
(dp3124
g11
(lp3125
sg13
S'android.widget.PopupWindow$1'
p3126
sg15
(lp3127
sg17
(lp3128
sg19
(lp3129
sg21
I0
sba(iArchitecture
Entity
p3130
(dp3131
g11
(lp3132
sg13
S'android.widget.PopupWindow$2'
p3133
sg15
(lp3134
sg17
(lp3135
sg19
(lp3136
sg21
I0
sba(iArchitecture
Entity
p3137
(dp3138
g11
(lp3139
sg13
S'android.widget.PopupWindow$3'
p3140
sg15
(lp3141
sg17
(lp3142
sg19
(lp3143
sg21
I0
sba(iArchitecture
Entity
p3144
(dp3145
g11
(lp3146
sg13
S'android.widget.PopupWindow$OnDismissListener'
p3147
sg15
(lp3148
sg17
(lp3149
sg19
(lp3150
sg21
I0
sba(iArchitecture
Entity
p3151
(dp3152
g11
(lp3153
sg13
S'android.widget.PopupWindow$PopupBackgroundView'
p3154
sg15
(lp3155
sg17
(lp3156
sg19
(lp3157
sg21
I0
sba(iArchitecture
Entity
p3158
(dp3159
g11
(lp3160
sg13
S'android.widget.PopupWindow$PopupDecorView'
p3161
sg15
(lp3162
sg17
(lp3163
sg19
(lp3164
sg21
I0
sba(iArchitecture
Entity
p3165
(dp3166
g11
(lp3167
sg13
S'android.widget.PopupWindow$PopupDecorView$1'
p3168
sg15
(lp3169
sg17
(lp3170
sg19
(lp3171
sg21
I0
sba(iArchitecture
Entity
p3172
(dp3173
g11
(lp3174
sg13
S'android.widget.PopupWindow$PopupDecorView$1$1'
p3175
sg15
(lp3176
sg17
(lp3177
sg19
(lp3178
sg21
I0
sba(iArchitecture
Entity
p3179
(dp3180
g11
(lp3181
sg13
S'android.widget.PopupWindow$PopupDecorView$2'
p3182
sg15
(lp3183
sg17
(lp3184
sg19
(lp3185
sg21
I0
sba(iArchitecture
Entity
p3186
(dp3187
g11
(lp3188
sg13
S'android.widget.ProgressBar'
p3189
sg15
(lp3190
sg17
(lp3191
sg19
(lp3192
sg21
I0
sba(iArchitecture
Entity
p3193
(dp3194
g11
(lp3195
sg13
S'android.widget.ProgressBar$AccessibilityEventSender'
p3196
sg15
(lp3197
sg17
(lp3198
sg19
(lp3199
sg21
I0
sba(iArchitecture
Entity
p3200
(dp3201
g11
(lp3202
sg13
S'android.widget.ProgressBar$ProgressTintInfo'
p3203
sg15
(lp3204
sg17
(lp3205
sg19
(lp3206
sg21
I0
sba(iArchitecture
Entity
p3207
(dp3208
g11
(lp3209
sg13
S'android.widget.ProgressBar$RefreshData'
p3210
sg15
(lp3211
sg17
(lp3212
sg19
(lp3213
sg21
I0
sba(iArchitecture
Entity
p3214
(dp3215
g11
(lp3216
sg13
S'android.widget.ProgressBar$RefreshProgressRunnable'
p3217
sg15
(lp3218
sg17
(lp3219
sg19
(lp3220
sg21
I0
sba(iArchitecture
Entity
p3221
(dp3222
g11
(lp3223
sg13
S'android.widget.ProgressBar$SavedState'
p3224
sg15
(lp3225
sg17
(lp3226
sg19
(lp3227
sg21
I0
sba(iArchitecture
Entity
p3228
(dp3229
g11
(lp3230
sg13
S'android.widget.ProgressBar$SavedState$1'
p3231
sg15
(lp3232
sg17
(lp3233
sg19
(lp3234
sg21
I0
sba(iArchitecture
Entity
p3235
(dp3236
g11
(lp3237
sg13
S'android.widget.QuickContactBadge'
p3238
sg15
(lp3239
sg17
(lp3240
sg19
(lp3241
sg21
I0
sba(iArchitecture
Entity
p3242
(dp3243
g11
(lp3244
sg13
S'android.widget.QuickContactBadge$QueryHandler'
p3245
sg15
(lp3246
sg17
(lp3247
sg19
(lp3248
sg21
I0
sba(iArchitecture
Entity
p3249
(dp3250
g11
(lp3251
sg13
S'android.widget.RadialTimePickerView'
p3252
sg15
(lp3253
sg17
(lp3254
sg19
(lp3255
sg21
I0
sba(iArchitecture
Entity
p3256
(dp3257
g11
(lp3258
sg13
S'android.widget.RadialTimePickerView$IntHolder'
p3259
sg15
(lp3260
sg17
(lp3261
sg19
(lp3262
sg21
I0
sba(iArchitecture
Entity
p3263
(dp3264
g11
(lp3265
sg13
S'android.widget.RadialTimePickerView$InvalidateUpdateListener'
p3266
sg15
(lp3267
sg17
(lp3268
sg19
(lp3269
sg21
I0
sba(iArchitecture
Entity
p3270
(dp3271
g11
(lp3272
sg13
S'android.widget.RadialTimePickerView$OnValueSelectedListener'
p3273
sg15
(lp3274
sg17
(lp3275
sg19
(lp3276
sg21
I0
sba(iArchitecture
Entity
p3277
(dp3278
g11
(lp3279
sg13
S'android.widget.RadialTimePickerView$RadialPickerTouchHelper'
p3280
sg15
(lp3281
sg17
(lp3282
sg19
(lp3283
sg21
I0
sba(iArchitecture
Entity
p3284
(dp3285
g11
(lp3286
sg13
S'android.widget.RadioButton'
p3287
sg15
(lp3288
sg17
(lp3289
sg19
(lp3290
sg21
I0
sba(iArchitecture
Entity
p3291
(dp3292
g11
(lp3293
sg13
S'android.widget.RadioGroup'
p3294
sg15
(lp3295
sg17
(lp3296
sg19
(lp3297
sg21
I0
sba(iArchitecture
Entity
p3298
(dp3299
g11
(lp3300
sg13
S'android.widget.RadioGroup$CheckedStateTracker'
p3301
sg15
(lp3302
sg17
(lp3303
sg19
(lp3304
sg21
I0
sba(iArchitecture
Entity
p3305
(dp3306
g11
(lp3307
sg13
S'android.widget.RadioGroup$LayoutParams'
p3308
sg15
(lp3309
sg17
(lp3310
sg19
(lp3311
sg21
I0
sba(iArchitecture
Entity
p3312
(dp3313
g11
(lp3314
sg13
S'android.widget.RadioGroup$OnCheckedChangeListener'
p3315
sg15
(lp3316
sg17
(lp3317
sg19
(lp3318
sg21
I0
sba(iArchitecture
Entity
p3319
(dp3320
g11
(lp3321
sg13
S'android.widget.RadioGroup$PassThroughHierarchyChangeListener'
p3322
sg15
(lp3323
sg17
(lp3324
sg19
(lp3325
sg21
I0
sba(iArchitecture
Entity
p3326
(dp3327
g11
(lp3328
sg13
S'android.widget.RatingBar'
p3329
sg15
(lp3330
sg17
(lp3331
sg19
(lp3332
sg21
I0
sba(iArchitecture
Entity
p3333
(dp3334
g11
(lp3335
sg13
S'android.widget.RatingBar$OnRatingBarChangeListener'
p3336
sg15
(lp3337
sg17
(lp3338
sg19
(lp3339
sg21
I0
sba(iArchitecture
Entity
p3340
(dp3341
g11
(lp3342
sg13
S'android.widget.RelativeLayout'
p3343
sg15
(lp3344
sg17
(lp3345
sg19
(lp3346
sg21
I0
sba(iArchitecture
Entity
p3347
(dp3348
g11
(lp3349
sg13
S'android.widget.RelativeLayout$DependencyGraph'
p3350
sg15
(lp3351
sg17
(lp3352
sg19
(lp3353
sg21
I0
sba(iArchitecture
Entity
p3354
(dp3355
g11
(lp3356
sg13
S'android.widget.RelativeLayout$DependencyGraph$Node'
p3357
sg15
(lp3358
sg17
(lp3359
sg19
(lp3360
sg21
I0
sba(iArchitecture
Entity
p3361
(dp3362
g11
(lp3363
sg13
S'android.widget.RelativeLayout$LayoutParams'
p3364
sg15
(lp3365
sg17
(lp3366
sg19
(lp3367
sg21
I0
sba(iArchitecture
Entity
p3368
(dp3369
g11
(lp3370
sg13
S'android.widget.RelativeLayout$TopToBottomLeftToRightComparator'
p3371
sg15
(lp3372
sg17
(lp3373
sg19
(lp3374
sg21
I0
sba(iArchitecture
Entity
p3375
(dp3376
g11
(lp3377
sg13
S'android.widget.RemoteViews'
p3378
sg15
(lp3379
sg17
(lp3380
sg19
(lp3381
sg21
I0
sba(iArchitecture
Entity
p3382
(dp3383
g11
(lp3384
sg13
S'android.widget.RemoteViews$1'
p3385
sg15
(lp3386
sg17
(lp3387
sg19
(lp3388
sg21
I0
sba(iArchitecture
Entity
p3389
(dp3390
g11
(lp3391
sg13
S'android.widget.RemoteViews$2'
p3392
sg15
(lp3393
sg17
(lp3394
sg19
(lp3395
sg21
I0
sba(iArchitecture
Entity
p3396
(dp3397
g11
(lp3398
sg13
S'android.widget.RemoteViews$3'
p3399
sg15
(lp3400
sg17
(lp3401
sg19
(lp3402
sg21
I0
sba(iArchitecture
Entity
p3403
(dp3404
g11
(lp3405
sg13
S'android.widget.RemoteViews$Action'
p3406
sg15
(lp3407
sg17
(lp3408
sg19
(lp3409
sg21
I0
sba(iArchitecture
Entity
p3410
(dp3411
g11
(lp3412
sg13
S'android.widget.RemoteViews$ActionException'
p3413
sg15
(lp3414
sg17
(lp3415
sg19
(lp3416
sg21
I0
sba(iArchitecture
Entity
p3417
(dp3418
g11
(lp3419
sg13
S'android.widget.RemoteViews$BitmapCache'
p3420
sg15
(lp3421
sg17
(lp3422
sg19
(lp3423
sg21
I0
sba(iArchitecture
Entity
p3424
(dp3425
g11
(lp3426
sg13
S'android.widget.RemoteViews$BitmapReflectionAction'
p3427
sg15
(lp3428
sg17
(lp3429
sg19
(lp3430
sg21
I0
sba(iArchitecture
Entity
p3431
(dp3432
g11
(lp3433
sg13
S'android.widget.RemoteViews$MemoryUsageCounter'
p3434
sg15
(lp3435
sg17
(lp3436
sg19
(lp3437
sg21
I0
sba(iArchitecture
Entity
p3438
(dp3439
g11
(lp3440
sg13
S'android.widget.RemoteViews$MutablePair'
p3441
sg15
(lp3442
sg17
(lp3443
sg19
(lp3444
sg21
I0
sba(iArchitecture
Entity
p3445
(dp3446
g11
(lp3447
sg13
S'android.widget.RemoteViews$OnClickHandler'
p3448
sg15
(lp3449
sg17
(lp3450
sg19
(lp3451
sg21
I0
sba(iArchitecture
Entity
p3452
(dp3453
g11
(lp3454
sg13
S'android.widget.RemoteViews$ReflectionAction'
p3455
sg15
(lp3456
sg17
(lp3457
sg19
(lp3458
sg21
I0
sba(iArchitecture
Entity
p3459
(dp3460
g11
(lp3461
sg13
S'android.widget.RemoteViews$ReflectionActionWithoutParams'
p3462
sg15
(lp3463
sg17
(lp3464
sg19
(lp3465
sg21
I0
sba(iArchitecture
Entity
p3466
(dp3467
g11
(lp3468
sg13
S'android.widget.RemoteViews$RemoteView'
p3469
sg15
(lp3470
sg17
(lp3471
sg19
(lp3472
sg21
I0
sba(iArchitecture
Entity
p3473
(dp3474
g11
(lp3475
sg13
S'android.widget.RemoteViews$SetDrawableParameters'
p3476
sg15
(lp3477
sg17
(lp3478
sg19
(lp3479
sg21
I0
sba(iArchitecture
Entity
p3480
(dp3481
g11
(lp3482
sg13
S'android.widget.RemoteViews$SetEmptyView'
p3483
sg15
(lp3484
sg17
(lp3485
sg19
(lp3486
sg21
I0
sba(iArchitecture
Entity
p3487
(dp3488
g11
(lp3489
sg13
S'android.widget.RemoteViews$SetOnClickFillInIntent'
p3490
sg15
(lp3491
sg17
(lp3492
sg19
(lp3493
sg21
I0
sba(iArchitecture
Entity
p3494
(dp3495
g11
(lp3496
sg13
S'android.widget.RemoteViews$SetOnClickFillInIntent$1'
p3497
sg15
(lp3498
sg17
(lp3499
sg19
(lp3500
sg21
I0
sba(iArchitecture
Entity
p3501
(dp3502
g11
(lp3503
sg13
S'android.widget.RemoteViews$SetOnClickPendingIntent'
p3504
sg15
(lp3505
sg17
(lp3506
sg19
(lp3507
sg21
I0
sba(iArchitecture
Entity
p3508
(dp3509
g11
(lp3510
sg13
S'android.widget.RemoteViews$SetOnClickPendingIntent$1'
p3511
sg15
(lp3512
sg17
(lp3513
sg19
(lp3514
sg21
I0
sba(iArchitecture
Entity
p3515
(dp3516
g11
(lp3517
sg13
S'android.widget.RemoteViews$SetPendingIntentTemplate'
p3518
sg15
(lp3519
sg17
(lp3520
sg19
(lp3521
sg21
I0
sba(iArchitecture
Entity
p3522
(dp3523
g11
(lp3524
sg13
S'android.widget.RemoteViews$SetPendingIntentTemplate$1'
p3525
sg15
(lp3526
sg17
(lp3527
sg19
(lp3528
sg21
I0
sba(iArchitecture
Entity
p3529
(dp3530
g11
(lp3531
sg13
S'android.widget.RemoteViews$SetRemoteViewsAdapterIntent'
p3532
sg15
(lp3533
sg17
(lp3534
sg19
(lp3535
sg21
I0
sba(iArchitecture
Entity
p3536
(dp3537
g11
(lp3538
sg13
S'android.widget.RemoteViews$SetRemoteViewsAdapterList'
p3539
sg15
(lp3540
sg17
(lp3541
sg19
(lp3542
sg21
I0
sba(iArchitecture
Entity
p3543
(dp3544
g11
(lp3545
sg13
S'android.widget.RemoteViews$TextViewDrawableAction'
p3546
sg15
(lp3547
sg17
(lp3548
sg19
(lp3549
sg21
I0
sba(iArchitecture
Entity
p3550
(dp3551
g11
(lp3552
sg13
S'android.widget.RemoteViews$TextViewDrawableColorFilterAction'
p3553
sg15
(lp3554
sg17
(lp3555
sg19
(lp3556
sg21
I0
sba(iArchitecture
Entity
p3557
(dp3558
g11
(lp3559
sg13
S'android.widget.RemoteViews$TextViewSizeAction'
p3560
sg15
(lp3561
sg17
(lp3562
sg19
(lp3563
sg21
I0
sba(iArchitecture
Entity
p3564
(dp3565
g11
(lp3566
sg13
S'android.widget.RemoteViews$ViewGroupAction'
p3567
sg15
(lp3568
sg17
(lp3569
sg19
(lp3570
sg21
I0
sba(iArchitecture
Entity
p3571
(dp3572
g11
(lp3573
sg13
S'android.widget.RemoteViews$ViewPaddingAction'
p3574
sg15
(lp3575
sg17
(lp3576
sg19
(lp3577
sg21
I0
sba(iArchitecture
Entity
p3578
(dp3579
g11
(lp3580
sg13
S'android.widget.RemoteViewsAdapter'
p3581
sg15
(lp3582
sg17
(lp3583
sg19
(lp3584
sg21
I0
sba(iArchitecture
Entity
p3585
(dp3586
g11
(lp3587
sg13
S'android.widget.RemoteViewsAdapter$1'
p3588
sg15
(lp3589
sg17
(lp3590
sg19
(lp3591
sg21
I0
sba(iArchitecture
Entity
p3592
(dp3593
g11
(lp3594
sg13
S'android.widget.RemoteViewsAdapter$2'
p3595
sg15
(lp3596
sg17
(lp3597
sg19
(lp3598
sg21
I0
sba(iArchitecture
Entity
p3599
(dp3600
g11
(lp3601
sg13
S'android.widget.RemoteViewsAdapter$3'
p3602
sg15
(lp3603
sg17
(lp3604
sg19
(lp3605
sg21
I0
sba(iArchitecture
Entity
p3606
(dp3607
g11
(lp3608
sg13
S'android.widget.RemoteViewsAdapter$4'
p3609
sg15
(lp3610
sg17
(lp3611
sg19
(lp3612
sg21
I0
sba(iArchitecture
Entity
p3613
(dp3614
g11
(lp3615
sg13
S'android.widget.RemoteViewsAdapter$5'
p3616
sg15
(lp3617
sg17
(lp3618
sg19
(lp3619
sg21
I0
sba(iArchitecture
Entity
p3620
(dp3621
g11
(lp3622
sg13
S'android.widget.RemoteViewsAdapter$6'
p3623
sg15
(lp3624
sg17
(lp3625
sg19
(lp3626
sg21
I0
sba(iArchitecture
Entity
p3627
(dp3628
g11
(lp3629
sg13
S'android.widget.RemoteViewsAdapter$FixedSizeRemoteViewsCache'
p3630
sg15
(lp3631
sg17
(lp3632
sg19
(lp3633
sg21
I0
sba(iArchitecture
Entity
p3634
(dp3635
g11
(lp3636
sg13
S'android.widget.RemoteViewsAdapter$RemoteAdapterConnectionCallback'
p3637
sg15
(lp3638
sg17
(lp3639
sg19
(lp3640
sg21
I0
sba(iArchitecture
Entity
p3641
(dp3642
g11
(lp3643
sg13
S'android.widget.RemoteViewsAdapter$RemoteViewsAdapterServiceConnection'
p3644
sg15
(lp3645
sg17
(lp3646
sg19
(lp3647
sg21
I0
sba(iArchitecture
Entity
p3648
(dp3649
g11
(lp3650
sg13
S'android.widget.RemoteViewsAdapter$RemoteViewsAdapterServiceConnection$1'
p3651
sg15
(lp3652
sg17
(lp3653
sg19
(lp3654
sg21
I0
sba(iArchitecture
Entity
p3655
(dp3656
g11
(lp3657
sg13
S'android.widget.RemoteViewsAdapter$RemoteViewsAdapterServiceConnection$1$1'
p3658
sg15
(lp3659
sg17
(lp3660
sg19
(lp3661
sg21
I0
sba(iArchitecture
Entity
p3662
(dp3663
g11
(lp3664
sg13
S'android.widget.RemoteViewsAdapter$RemoteViewsAdapterServiceConnection$2'
p3665
sg15
(lp3666
sg17
(lp3667
sg19
(lp3668
sg21
I0
sba(iArchitecture
Entity
p3669
(dp3670
g11
(lp3671
sg13
S'android.widget.RemoteViewsAdapter$RemoteViewsCacheKey'
p3672
sg15
(lp3673
sg17
(lp3674
sg19
(lp3675
sg21
I0
sba(iArchitecture
Entity
p3676
(dp3677
g11
(lp3678
sg13
S'android.widget.RemoteViewsAdapter$RemoteViewsFrameLayout'
p3679
sg15
(lp3680
sg17
(lp3681
sg19
(lp3682
sg21
I0
sba(iArchitecture
Entity
p3683
(dp3684
g11
(lp3685
sg13
S'android.widget.RemoteViewsAdapter$RemoteViewsFrameLayoutRefSet'
p3686
sg15
(lp3687
sg17
(lp3688
sg19
(lp3689
sg21
I0
sba(iArchitecture
Entity
p3690
(dp3691
g11
(lp3692
sg13
S'android.widget.RemoteViewsAdapter$RemoteViewsIndexMetaData'
p3693
sg15
(lp3694
sg17
(lp3695
sg19
(lp3696
sg21
I0
sba(iArchitecture
Entity
p3697
(dp3698
g11
(lp3699
sg13
S'android.widget.RemoteViewsAdapter$RemoteViewsMetaData'
p3700
sg15
(lp3701
sg17
(lp3702
sg19
(lp3703
sg21
I0
sba(iArchitecture
Entity
p3704
(dp3705
g11
(lp3706
sg13
S'android.widget.RemoteViewsListAdapter'
p3707
sg15
(lp3708
sg17
(lp3709
sg19
(lp3710
sg21
I0
sba(iArchitecture
Entity
p3711
(dp3712
g11
(lp3713
sg13
S'android.widget.RemoteViewsService'
p3714
sg15
(lp3715
sg17
(lp3716
sg19
(lp3717
sg21
I0
sba(iArchitecture
Entity
p3718
(dp3719
g11
(lp3720
sg13
S'android.widget.RemoteViewsService$RemoteViewsFactory'
p3721
sg15
(lp3722
sg17
(lp3723
sg19
(lp3724
sg21
I0
sba(iArchitecture
Entity
p3725
(dp3726
g11
(lp3727
sg13
S'android.widget.RemoteViewsService$RemoteViewsFactoryAdapter'
p3728
sg15
(lp3729
sg17
(lp3730
sg19
(lp3731
sg21
I0
sba(iArchitecture
Entity
p3732
(dp3733
g11
(lp3734
sg13
S'android.widget.ResourceCursorAdapter'
p3735
sg15
(lp3736
sg17
(lp3737
sg19
(lp3738
sg21
I0
sba(iArchitecture
Entity
p3739
(dp3740
g11
(lp3741
sg13
S'android.widget.ResourceCursorTreeAdapter'
p3742
sg15
(lp3743
sg17
(lp3744
sg19
(lp3745
sg21
I0
sba(iArchitecture
Entity
p3746
(dp3747
g11
(lp3748
sg13
S'android.widget.RtlSpacingHelper'
p3749
sg15
(lp3750
sg17
(lp3751
sg19
(lp3752
sg21
I0
sba(iArchitecture
Entity
p3753
(dp3754
g11
(lp3755
sg13
S'android.widget.ScrollView'
p3756
sg15
(lp3757
sg17
(lp3758
sg19
(lp3759
sg21
I0
sba(iArchitecture
Entity
p3760
(dp3761
g11
(lp3762
sg13
S'android.widget.ScrollView$SavedState'
p3763
sg15
(lp3764
sg17
(lp3765
sg19
(lp3766
sg21
I0
sba(iArchitecture
Entity
p3767
(dp3768
g11
(lp3769
sg13
S'android.widget.ScrollView$SavedState$1'
p3770
sg15
(lp3771
sg17
(lp3772
sg19
(lp3773
sg21
I0
sba(iArchitecture
Entity
p3774
(dp3775
g11
(lp3776
sg13
S'android.widget.Scroller'
p3777
sg15
(lp3778
sg17
(lp3779
sg19
(lp3780
sg21
I0
sba(iArchitecture
Entity
p3781
(dp3782
g11
(lp3783
sg13
S'android.widget.Scroller$ViscousFluidInterpolator'
p3784
sg15
(lp3785
sg17
(lp3786
sg19
(lp3787
sg21
I0
sba(iArchitecture
Entity
p3788
(dp3789
g11
(lp3790
sg13
S'android.widget.SearchView'
p3791
sg15
(lp3792
sg17
(lp3793
sg19
(lp3794
sg21
I0
sba(iArchitecture
Entity
p3795
(dp3796
g11
(lp3797
sg13
S'android.widget.SearchView$1'
p3798
sg15
(lp3799
sg17
(lp3800
sg19
(lp3801
sg21
I0
sba(iArchitecture
Entity
p3802
(dp3803
g11
(lp3804
sg13
S'android.widget.SearchView$10'
p3805
sg15
(lp3806
sg17
(lp3807
sg19
(lp3808
sg21
I0
sba(iArchitecture
Entity
p3809
(dp3810
g11
(lp3811
sg13
S'android.widget.SearchView$11'
p3812
sg15
(lp3813
sg17
(lp3814
sg19
(lp3815
sg21
I0
sba(iArchitecture
Entity
p3816
(dp3817
g11
(lp3818
sg13
S'android.widget.SearchView$2'
p3819
sg15
(lp3820
sg17
(lp3821
sg19
(lp3822
sg21
I0
sba(iArchitecture
Entity
p3823
(dp3824
g11
(lp3825
sg13
S'android.widget.SearchView$3'
p3826
sg15
(lp3827
sg17
(lp3828
sg19
(lp3829
sg21
I0
sba(iArchitecture
Entity
p3830
(dp3831
g11
(lp3832
sg13
S'android.widget.SearchView$4'
p3833
sg15
(lp3834
sg17
(lp3835
sg19
(lp3836
sg21
I0
sba(iArchitecture
Entity
p3837
(dp3838
g11
(lp3839
sg13
S'android.widget.SearchView$5'
p3840
sg15
(lp3841
sg17
(lp3842
sg19
(lp3843
sg21
I0
sba(iArchitecture
Entity
p3844
(dp3845
g11
(lp3846
sg13
S'android.widget.SearchView$6'
p3847
sg15
(lp3848
sg17
(lp3849
sg19
(lp3850
sg21
I0
sba(iArchitecture
Entity
p3851
(dp3852
g11
(lp3853
sg13
S'android.widget.SearchView$7'
p3854
sg15
(lp3855
sg17
(lp3856
sg19
(lp3857
sg21
I0
sba(iArchitecture
Entity
p3858
(dp3859
g11
(lp3860
sg13
S'android.widget.SearchView$8'
p3861
sg15
(lp3862
sg17
(lp3863
sg19
(lp3864
sg21
I0
sba(iArchitecture
Entity
p3865
(dp3866
g11
(lp3867
sg13
S'android.widget.SearchView$9'
p3868
sg15
(lp3869
sg17
(lp3870
sg19
(lp3871
sg21
I0
sba(iArchitecture
Entity
p3872
(dp3873
g11
(lp3874
sg13
S'android.widget.SearchView$SearchAutoComplete'
p3875
sg15
(lp3876
sg17
(lp3877
sg19
(lp3878
sg21
I0
sba(iArchitecture
Entity
p3879
(dp3880
g11
(lp3881
sg13
S'android.widget.SectionIndexer'
p3882
sg15
(lp3883
sg17
(lp3884
sg19
(lp3885
sg21
I0
sba(iArchitecture
Entity
p3886
(dp3887
g11
(lp3888
sg13
S'android.widget.ShareActionProvider'
p3889
sg15
(lp3890
sg17
(lp3891
sg19
(lp3892
sg21
I0
sba(iArchitecture
Entity
p3893
(dp3894
g11
(lp3895
sg13
S'android.widget.ShareActionProvider$OnShareTargetSelectedListener'
p3896
sg15
(lp3897
sg17
(lp3898
sg19
(lp3899
sg21
I0
sba(iArchitecture
Entity
p3900
(dp3901
g11
(lp3902
sg13
S'android.widget.ShareActionProvider$ShareActivityChooserModelPolicy'
p3903
sg15
(lp3904
sg17
(lp3905
sg19
(lp3906
sg21
I0
sba(iArchitecture
Entity
p3907
(dp3908
g11
(lp3909
sg13
S'android.widget.ShareActionProvider$ShareMenuItemOnMenuItemClickListener'
p3910
sg15
(lp3911
sg17
(lp3912
sg19
(lp3913
sg21
I0
sba(iArchitecture
Entity
p3914
(dp3915
g11
(lp3916
sg13
S'android.widget.SimpleAdapter'
p3917
sg15
(lp3918
sg17
(lp3919
sg19
(lp3920
sg21
I0
sba(iArchitecture
Entity
p3921
(dp3922
g11
(lp3923
sg13
S'android.widget.SimpleAdapter$SimpleFilter'
p3924
sg15
(lp3925
sg17
(lp3926
sg19
(lp3927
sg21
I0
sba(iArchitecture
Entity
p3928
(dp3929
g11
(lp3930
sg13
S'android.widget.SimpleAdapter$ViewBinder'
p3931
sg15
(lp3932
sg17
(lp3933
sg19
(lp3934
sg21
I0
sba(iArchitecture
Entity
p3935
(dp3936
g11
(lp3937
sg13
S'android.widget.SimpleCursorAdapter'
p3938
sg15
(lp3939
sg17
(lp3940
sg19
(lp3941
sg21
I0
sba(iArchitecture
Entity
p3942
(dp3943
g11
(lp3944
sg13
S'android.widget.SimpleCursorAdapter$CursorToStringConverter'
p3945
sg15
(lp3946
sg17
(lp3947
sg19
(lp3948
sg21
I0
sba(iArchitecture
Entity
p3949
(dp3950
g11
(lp3951
sg13
S'android.widget.SimpleCursorAdapter$ViewBinder'
p3952
sg15
(lp3953
sg17
(lp3954
sg19
(lp3955
sg21
I0
sba(iArchitecture
Entity
p3956
(dp3957
g11
(lp3958
sg13
S'android.widget.SimpleCursorTreeAdapter'
p3959
sg15
(lp3960
sg17
(lp3961
sg19
(lp3962
sg21
I0
sba(iArchitecture
Entity
p3963
(dp3964
g11
(lp3965
sg13
S'android.widget.SimpleCursorTreeAdapter$ViewBinder'
p3966
sg15
(lp3967
sg17
(lp3968
sg19
(lp3969
sg21
I0
sba(iArchitecture
Entity
p3970
(dp3971
g11
(lp3972
sg13
S'android.widget.SimpleMonthView'
p3973
sg15
(lp3974
sg17
(lp3975
sg19
(lp3976
sg21
I0
sba(iArchitecture
Entity
p3977
(dp3978
g11
(lp3979
sg13
S'android.widget.SimpleMonthView$MonthViewTouchHelper'
p3980
sg15
(lp3981
sg17
(lp3982
sg19
(lp3983
sg21
I0
sba(iArchitecture
Entity
p3984
(dp3985
g11
(lp3986
sg13
S'android.widget.SimpleMonthView$OnDayClickListener'
p3987
sg15
(lp3988
sg17
(lp3989
sg19
(lp3990
sg21
I0
sba(iArchitecture
Entity
p3991
(dp3992
g11
(lp3993
sg13
S'android.widget.SlidingDrawer'
p3994
sg15
(lp3995
sg17
(lp3996
sg19
(lp3997
sg21
I0
sba(iArchitecture
Entity
p3998
(dp3999
g11
(lp4000
sg13
S'android.widget.SlidingDrawer$DrawerToggler'
p4001
sg15
(lp4002
sg17
(lp4003
sg19
(lp4004
sg21
I0
sba(iArchitecture
Entity
p4005
(dp4006
g11
(lp4007
sg13
S'android.widget.SlidingDrawer$OnDrawerCloseListener'
p4008
sg15
(lp4009
sg17
(lp4010
sg19
(lp4011
sg21
I0
sba(iArchitecture
Entity
p4012
(dp4013
g11
(lp4014
sg13
S'android.widget.SlidingDrawer$OnDrawerOpenListener'
p4015
sg15
(lp4016
sg17
(lp4017
sg19
(lp4018
sg21
I0
sba(iArchitecture
Entity
p4019
(dp4020
g11
(lp4021
sg13
S'android.widget.SlidingDrawer$OnDrawerScrollListener'
p4022
sg15
(lp4023
sg17
(lp4024
sg19
(lp4025
sg21
I0
sba(iArchitecture
Entity
p4026
(dp4027
g11
(lp4028
sg13
S'android.widget.SlidingDrawer$SlidingHandler'
p4029
sg15
(lp4030
sg17
(lp4031
sg19
(lp4032
sg21
I0
sba(iArchitecture
Entity
p4033
(dp4034
g11
(lp4035
sg13
S'android.widget.Space'
p4036
sg15
(lp4037
sg17
(lp4038
sg19
(lp4039
sg21
I0
sba(iArchitecture
Entity
p4040
(dp4041
g11
(lp4042
sg13
S'android.widget.SpellChecker'
p4043
sg15
(lp4044
sg17
(lp4045
sg19
(lp4046
sg21
I0
sba(iArchitecture
Entity
p4047
(dp4048
g11
(lp4049
sg13
S'android.widget.SpellChecker$1'
p4050
sg15
(lp4051
sg17
(lp4052
sg19
(lp4053
sg21
I0
sba(iArchitecture
Entity
p4054
(dp4055
g11
(lp4056
sg13
S'android.widget.SpellChecker$SpellParser'
p4057
sg15
(lp4058
sg17
(lp4059
sg19
(lp4060
sg21
I0
sba(iArchitecture
Entity
p4061
(dp4062
g11
(lp4063
sg13
S'android.widget.Spinner'
p4064
sg15
(lp4065
sg17
(lp4066
sg19
(lp4067
sg21
I0
sba(iArchitecture
Entity
p4068
(dp4069
g11
(lp4070
sg13
S'android.widget.Spinner$1'
p4071
sg15
(lp4072
sg17
(lp4073
sg19
(lp4074
sg21
I0
sba(iArchitecture
Entity
p4075
(dp4076
g11
(lp4077
sg13
S'android.widget.Spinner$2'
p4078
sg15
(lp4079
sg17
(lp4080
sg19
(lp4081
sg21
I0
sba(iArchitecture
Entity
p4082
(dp4083
g11
(lp4084
sg13
S'android.widget.Spinner$DialogPopup'
p4085
sg15
(lp4086
sg17
(lp4087
sg19
(lp4088
sg21
I0
sba(iArchitecture
Entity
p4089
(dp4090
g11
(lp4091
sg13
S'android.widget.Spinner$DropDownAdapter'
p4092
sg15
(lp4093
sg17
(lp4094
sg19
(lp4095
sg21
I0
sba(iArchitecture
Entity
p4096
(dp4097
g11
(lp4098
sg13
S'android.widget.Spinner$DropdownPopup'
p4099
sg15
(lp4100
sg17
(lp4101
sg19
(lp4102
sg21
I0
sba(iArchitecture
Entity
p4103
(dp4104
g11
(lp4105
sg13
S'android.widget.Spinner$DropdownPopup$1'
p4106
sg15
(lp4107
sg17
(lp4108
sg19
(lp4109
sg21
I0
sba(iArchitecture
Entity
p4110
(dp4111
g11
(lp4112
sg13
S'android.widget.Spinner$DropdownPopup$2'
p4113
sg15
(lp4114
sg17
(lp4115
sg19
(lp4116
sg21
I0
sba(iArchitecture
Entity
p4117
(dp4118
g11
(lp4119
sg13
S'android.widget.Spinner$DropdownPopup$3'
p4120
sg15
(lp4121
sg17
(lp4122
sg19
(lp4123
sg21
I0
sba(iArchitecture
Entity
p4124
(dp4125
g11
(lp4126
sg13
S'android.widget.Spinner$SavedState'
p4127
sg15
(lp4128
sg17
(lp4129
sg19
(lp4130
sg21
I0
sba(iArchitecture
Entity
p4131
(dp4132
g11
(lp4133
sg13
S'android.widget.Spinner$SavedState$1'
p4134
sg15
(lp4135
sg17
(lp4136
sg19
(lp4137
sg21
I0
sba(iArchitecture
Entity
p4138
(dp4139
g11
(lp4140
sg13
S'android.widget.Spinner$SpinnerPopup'
p4141
sg15
(lp4142
sg17
(lp4143
sg19
(lp4144
sg21
I0
sba(iArchitecture
Entity
p4145
(dp4146
g11
(lp4147
sg13
S'android.widget.SpinnerAdapter'
p4148
sg15
(lp4149
sg17
(lp4150
sg19
(lp4151
sg21
I0
sba(iArchitecture
Entity
p4152
(dp4153
g11
(lp4154
sg13
S'android.widget.StackView'
p4155
sg15
(lp4156
sg17
(lp4157
sg19
(lp4158
sg21
I0
sba(iArchitecture
Entity
p4159
(dp4160
g11
(lp4161
sg13
S'android.widget.StackView$1'
p4162
sg15
(lp4163
sg17
(lp4164
sg19
(lp4165
sg21
I0
sba(iArchitecture
Entity
p4166
(dp4167
g11
(lp4168
sg13
S'android.widget.StackView$HolographicHelper'
p4169
sg15
(lp4170
sg17
(lp4171
sg19
(lp4172
sg21
I0
sba(iArchitecture
Entity
p4173
(dp4174
g11
(lp4175
sg13
S'android.widget.StackView$LayoutParams'
p4176
sg15
(lp4177
sg17
(lp4178
sg19
(lp4179
sg21
I0
sba(iArchitecture
Entity
p4180
(dp4181
g11
(lp4182
sg13
S'android.widget.StackView$StackFrame'
p4183
sg15
(lp4184
sg17
(lp4185
sg19
(lp4186
sg21
I0
sba(iArchitecture
Entity
p4187
(dp4188
g11
(lp4189
sg13
S'android.widget.StackView$StackSlider'
p4190
sg15
(lp4191
sg17
(lp4192
sg19
(lp4193
sg21
I0
sba(iArchitecture
Entity
p4194
(dp4195
g11
(lp4196
sg13
S'android.widget.SuggestionsAdapter'
p4197
sg15
(lp4198
sg17
(lp4199
sg19
(lp4200
sg21
I0
sba(iArchitecture
Entity
p4201
(dp4202
g11
(lp4203
sg13
S'android.widget.SuggestionsAdapter$1'
p4204
sg15
(lp4205
sg17
(lp4206
sg19
(lp4207
sg21
I0
sba(iArchitecture
Entity
p4208
(dp4209
g11
(lp4210
sg13
S'android.widget.SuggestionsAdapter$ChildViewCache'
p4211
sg15
(lp4212
sg17
(lp4213
sg19
(lp4214
sg21
I0
sba(iArchitecture
Entity
p4215
(dp4216
g11
(lp4217
sg13
S'android.widget.Switch'
p4218
sg15
(lp4219
sg17
(lp4220
sg19
(lp4221
sg21
I0
sba(iArchitecture
Entity
p4222
(dp4223
g11
(lp4224
sg13
S'android.widget.Switch$1'
p4225
sg15
(lp4226
sg17
(lp4227
sg19
(lp4228
sg21
I0
sba(iArchitecture
Entity
p4229
(dp4230
g11
(lp4231
sg13
S'android.widget.TabHost'
p4232
sg15
(lp4233
sg17
(lp4234
sg19
(lp4235
sg21
I0
sba(iArchitecture
Entity
p4236
(dp4237
g11
(lp4238
sg13
S'android.widget.TabHost$1'
p4239
sg15
(lp4240
sg17
(lp4241
sg19
(lp4242
sg21
I0
sba(iArchitecture
Entity
p4243
(dp4244
g11
(lp4245
sg13
S'android.widget.TabHost$2'
p4246
sg15
(lp4247
sg17
(lp4248
sg19
(lp4249
sg21
I0
sba(iArchitecture
Entity
p4250
(dp4251
g11
(lp4252
sg13
S'android.widget.TabHost$ContentStrategy'
p4253
sg15
(lp4254
sg17
(lp4255
sg19
(lp4256
sg21
I0
sba(iArchitecture
Entity
p4257
(dp4258
g11
(lp4259
sg13
S'android.widget.TabHost$FactoryContentStrategy'
p4260
sg15
(lp4261
sg17
(lp4262
sg19
(lp4263
sg21
I0
sba(iArchitecture
Entity
p4264
(dp4265
g11
(lp4266
sg13
S'android.widget.TabHost$IndicatorStrategy'
p4267
sg15
(lp4268
sg17
(lp4269
sg19
(lp4270
sg21
I0
sba(iArchitecture
Entity
p4271
(dp4272
g11
(lp4273
sg13
S'android.widget.TabHost$IntentContentStrategy'
p4274
sg15
(lp4275
sg17
(lp4276
sg19
(lp4277
sg21
I0
sba(iArchitecture
Entity
p4278
(dp4279
g11
(lp4280
sg13
S'android.widget.TabHost$LabelAndIconIndicatorStrategy'
p4281
sg15
(lp4282
sg17
(lp4283
sg19
(lp4284
sg21
I0
sba(iArchitecture
Entity
p4285
(dp4286
g11
(lp4287
sg13
S'android.widget.TabHost$LabelIndicatorStrategy'
p4288
sg15
(lp4289
sg17
(lp4290
sg19
(lp4291
sg21
I0
sba(iArchitecture
Entity
p4292
(dp4293
g11
(lp4294
sg13
S'android.widget.TabHost$OnTabChangeListener'
p4295
sg15
(lp4296
sg17
(lp4297
sg19
(lp4298
sg21
I0
sba(iArchitecture
Entity
p4299
(dp4300
g11
(lp4301
sg13
S'android.widget.TabHost$TabContentFactory'
p4302
sg15
(lp4303
sg17
(lp4304
sg19
(lp4305
sg21
I0
sba(iArchitecture
Entity
p4306
(dp4307
g11
(lp4308
sg13
S'android.widget.TabHost$TabSpec'
p4309
sg15
(lp4310
sg17
(lp4311
sg19
(lp4312
sg21
I0
sba(iArchitecture
Entity
p4313
(dp4314
g11
(lp4315
sg13
S'android.widget.TabHost$ViewIdContentStrategy'
p4316
sg15
(lp4317
sg17
(lp4318
sg19
(lp4319
sg21
I0
sba(iArchitecture
Entity
p4320
(dp4321
g11
(lp4322
sg13
S'android.widget.TabHost$ViewIndicatorStrategy'
p4323
sg15
(lp4324
sg17
(lp4325
sg19
(lp4326
sg21
I0
sba(iArchitecture
Entity
p4327
(dp4328
g11
(lp4329
sg13
S'android.widget.TabWidget'
p4330
sg15
(lp4331
sg17
(lp4332
sg19
(lp4333
sg21
I0
sba(iArchitecture
Entity
p4334
(dp4335
g11
(lp4336
sg13
S'android.widget.TabWidget$OnTabSelectionChanged'
p4337
sg15
(lp4338
sg17
(lp4339
sg19
(lp4340
sg21
I0
sba(iArchitecture
Entity
p4341
(dp4342
g11
(lp4343
sg13
S'android.widget.TabWidget$TabClickListener'
p4344
sg15
(lp4345
sg17
(lp4346
sg19
(lp4347
sg21
I0
sba(iArchitecture
Entity
p4348
(dp4349
g11
(lp4350
sg13
S'android.widget.TableLayout'
p4351
sg15
(lp4352
sg17
(lp4353
sg19
(lp4354
sg21
I0
sba(iArchitecture
Entity
p4355
(dp4356
g11
(lp4357
sg13
S'android.widget.TableLayout$LayoutParams'
p4358
sg15
(lp4359
sg17
(lp4360
sg19
(lp4361
sg21
I0
sba(iArchitecture
Entity
p4362
(dp4363
g11
(lp4364
sg13
S'android.widget.TableLayout$PassThroughHierarchyChangeListener'
p4365
sg15
(lp4366
sg17
(lp4367
sg19
(lp4368
sg21
I0
sba(iArchitecture
Entity
p4369
(dp4370
g11
(lp4371
sg13
S'android.widget.TableRow'
p4372
sg15
(lp4373
sg17
(lp4374
sg19
(lp4375
sg21
I0
sba(iArchitecture
Entity
p4376
(dp4377
g11
(lp4378
sg13
S'android.widget.TableRow$ChildrenTracker'
p4379
sg15
(lp4380
sg17
(lp4381
sg19
(lp4382
sg21
I0
sba(iArchitecture
Entity
p4383
(dp4384
g11
(lp4385
sg13
S'android.widget.TableRow$LayoutParams'
p4386
sg15
(lp4387
sg17
(lp4388
sg19
(lp4389
sg21
I0
sba(iArchitecture
Entity
p4390
(dp4391
g11
(lp4392
sg13
S'android.widget.TextClock'
p4393
sg15
(lp4394
sg17
(lp4395
sg19
(lp4396
sg21
I0
sba(iArchitecture
Entity
p4397
(dp4398
g11
(lp4399
sg13
S'android.widget.TextClock$1'
p4400
sg15
(lp4401
sg17
(lp4402
sg19
(lp4403
sg21
I0
sba(iArchitecture
Entity
p4404
(dp4405
g11
(lp4406
sg13
S'android.widget.TextClock$2'
p4407
sg15
(lp4408
sg17
(lp4409
sg19
(lp4410
sg21
I0
sba(iArchitecture
Entity
p4411
(dp4412
g11
(lp4413
sg13
S'android.widget.TextClock$3'
p4414
sg15
(lp4415
sg17
(lp4416
sg19
(lp4417
sg21
I0
sba(iArchitecture
Entity
p4418
(dp4419
g11
(lp4420
sg13
S'android.widget.TextView'
p4421
sg15
(lp4422
sg17
(lp4423
sg19
(lp4424
sg21
I0
sba(iArchitecture
Entity
p4425
(dp4426
g11
(lp4427
sg13
S'android.widget.TextView$1'
p4428
sg15
(lp4429
sg17
(lp4430
sg19
(lp4431
sg21
I0
sba(iArchitecture
Entity
p4432
(dp4433
g11
(lp4434
sg13
S'android.widget.TextView$2'
p4435
sg15
(lp4436
sg17
(lp4437
sg19
(lp4438
sg21
I0
sba(iArchitecture
Entity
p4439
(dp4440
g11
(lp4441
sg13
S'android.widget.TextView$3'
p4442
sg15
(lp4443
sg17
(lp4444
sg19
(lp4445
sg21
I0
sba(iArchitecture
Entity
p4446
(dp4447
g11
(lp4448
sg13
S'android.widget.TextView$BufferType'
p4449
sg15
(lp4450
sg17
(lp4451
sg19
(lp4452
sg21
I0
sba(iArchitecture
Entity
p4453
(dp4454
g11
(lp4455
sg13
S'android.widget.TextView$ChangeWatcher'
p4456
sg15
(lp4457
sg17
(lp4458
sg19
(lp4459
sg21
I0
sba(iArchitecture
Entity
p4460
(dp4461
g11
(lp4462
sg13
S'android.widget.TextView$CharWrapper'
p4463
sg15
(lp4464
sg17
(lp4465
sg19
(lp4466
sg21
I0
sba(iArchitecture
Entity
p4467
(dp4468
g11
(lp4469
sg13
S'android.widget.TextView$Drawables'
p4470
sg15
(lp4471
sg17
(lp4472
sg19
(lp4473
sg21
I0
sba(iArchitecture
Entity
p4474
(dp4475
g11
(lp4476
sg13
S'android.widget.TextView$Marquee'
p4477
sg15
(lp4478
sg17
(lp4479
sg19
(lp4480
sg21
I0
sba(iArchitecture
Entity
p4481
(dp4482
g11
(lp4483
sg13
S'android.widget.TextView$Marquee$1'
p4484
sg15
(lp4485
sg17
(lp4486
sg19
(lp4487
sg21
I0
sba(iArchitecture
Entity
p4488
(dp4489
g11
(lp4490
sg13
S'android.widget.TextView$Marquee$2'
p4491
sg15
(lp4492
sg17
(lp4493
sg19
(lp4494
sg21
I0
sba(iArchitecture
Entity
p4495
(dp4496
g11
(lp4497
sg13
S'android.widget.TextView$Marquee$3'
p4498
sg15
(lp4499
sg17
(lp4500
sg19
(lp4501
sg21
I0
sba(iArchitecture
Entity
p4502
(dp4503
g11
(lp4504
sg13
S'android.widget.TextView$OnEditorActionListener'
p4505
sg15
(lp4506
sg17
(lp4507
sg19
(lp4508
sg21
I0
sba(iArchitecture
Entity
p4509
(dp4510
g11
(lp4511
sg13
S'android.widget.TextView$SavedState'
p4512
sg15
(lp4513
sg17
(lp4514
sg19
(lp4515
sg21
I0
sba(iArchitecture
Entity
p4516
(dp4517
g11
(lp4518
sg13
S'android.widget.TextView$SavedState$1'
p4519
sg15
(lp4520
sg17
(lp4521
sg19
(lp4522
sg21
I0
sba(iArchitecture
Entity
p4523
(dp4524
g11
(lp4525
sg13
S'android.widget.ThemedSpinnerAdapter'
p4526
sg15
(lp4527
sg17
(lp4528
sg19
(lp4529
sg21
I0
sba(iArchitecture
Entity
p4530
(dp4531
g11
(lp4532
sg13
S'android.widget.TimePicker'
p4533
sg15
(lp4534
sg17
(lp4535
sg19
(lp4536
sg21
I0
sba(iArchitecture
Entity
p4537
(dp4538
g11
(lp4539
sg13
S'android.widget.TimePicker$AbstractTimePickerDelegate'
p4540
sg15
(lp4541
sg17
(lp4542
sg19
(lp4543
sg21
I0
sba(iArchitecture
Entity
p4544
(dp4545
g11
(lp4546
sg13
S'android.widget.TimePicker$OnTimeChangedListener'
p4547
sg15
(lp4548
sg17
(lp4549
sg19
(lp4550
sg21
I0
sba(iArchitecture
Entity
p4551
(dp4552
g11
(lp4553
sg13
S'android.widget.TimePicker$TimePickerDelegate'
p4554
sg15
(lp4555
sg17
(lp4556
sg19
(lp4557
sg21
I0
sba(iArchitecture
Entity
p4558
(dp4559
g11
(lp4560
sg13
S'android.widget.TimePickerClockDelegate'
p4561
sg15
(lp4562
sg17
(lp4563
sg19
(lp4564
sg21
I0
sba(iArchitecture
Entity
p4565
(dp4566
g11
(lp4567
sg13
S'android.widget.TimePickerClockDelegate$1'
p4568
sg15
(lp4569
sg17
(lp4570
sg19
(lp4571
sg21
I0
sba(iArchitecture
Entity
p4572
(dp4573
g11
(lp4574
sg13
S'android.widget.TimePickerClockDelegate$2'
p4575
sg15
(lp4576
sg17
(lp4577
sg19
(lp4578
sg21
I0
sba(iArchitecture
Entity
p4579
(dp4580
g11
(lp4581
sg13
S'android.widget.TimePickerClockDelegate$3'
p4582
sg15
(lp4583
sg17
(lp4584
sg19
(lp4585
sg21
I0
sba(iArchitecture
Entity
p4586
(dp4587
g11
(lp4588
sg13
S'android.widget.TimePickerClockDelegate$ClickActionDelegate'
p4589
sg15
(lp4590
sg17
(lp4591
sg19
(lp4592
sg21
I0
sba(iArchitecture
Entity
p4593
(dp4594
g11
(lp4595
sg13
S'android.widget.TimePickerClockDelegate$Node'
p4596
sg15
(lp4597
sg17
(lp4598
sg19
(lp4599
sg21
I0
sba(iArchitecture
Entity
p4600
(dp4601
g11
(lp4602
sg13
S'android.widget.TimePickerClockDelegate$SavedState'
p4603
sg15
(lp4604
sg17
(lp4605
sg19
(lp4606
sg21
I0
sba(iArchitecture
Entity
p4607
(dp4608
g11
(lp4609
sg13
S'android.widget.TimePickerClockDelegate$SavedState$1'
p4610
sg15
(lp4611
sg17
(lp4612
sg19
(lp4613
sg21
I0
sba(iArchitecture
Entity
p4614
(dp4615
g11
(lp4616
sg13
S'android.widget.TimePickerSpinnerDelegate'
p4617
sg15
(lp4618
sg17
(lp4619
sg19
(lp4620
sg21
I0
sba(iArchitecture
Entity
p4621
(dp4622
g11
(lp4623
sg13
S'android.widget.TimePickerSpinnerDelegate$1'
p4624
sg15
(lp4625
sg17
(lp4626
sg19
(lp4627
sg21
I0
sba(iArchitecture
Entity
p4628
(dp4629
g11
(lp4630
sg13
S'android.widget.TimePickerSpinnerDelegate$2'
p4631
sg15
(lp4632
sg17
(lp4633
sg19
(lp4634
sg21
I0
sba(iArchitecture
Entity
p4635
(dp4636
g11
(lp4637
sg13
S'android.widget.TimePickerSpinnerDelegate$3'
p4638
sg15
(lp4639
sg17
(lp4640
sg19
(lp4641
sg21
I0
sba(iArchitecture
Entity
p4642
(dp4643
g11
(lp4644
sg13
S'android.widget.TimePickerSpinnerDelegate$4'
p4645
sg15
(lp4646
sg17
(lp4647
sg19
(lp4648
sg21
I0
sba(iArchitecture
Entity
p4649
(dp4650
g11
(lp4651
sg13
S'android.widget.TimePickerSpinnerDelegate$SavedState'
p4652
sg15
(lp4653
sg17
(lp4654
sg19
(lp4655
sg21
I0
sba(iArchitecture
Entity
p4656
(dp4657
g11
(lp4658
sg13
S'android.widget.TimePickerSpinnerDelegate$SavedState$1'
p4659
sg15
(lp4660
sg17
(lp4661
sg19
(lp4662
sg21
I0
sba(iArchitecture
Entity
p4663
(dp4664
g11
(lp4665
sg13
S'android.widget.Toast'
p4666
sg15
(lp4667
sg17
(lp4668
sg19
(lp4669
sg21
I0
sba(iArchitecture
Entity
p4670
(dp4671
g11
(lp4672
sg13
S'android.widget.Toast$TN'
p4673
sg15
(lp4674
sg17
(lp4675
sg19
(lp4676
sg21
I0
sba(iArchitecture
Entity
p4677
(dp4678
g11
(lp4679
sg13
S'android.widget.Toast$TN$1'
p4680
sg15
(lp4681
sg17
(lp4682
sg19
(lp4683
sg21
I0
sba(iArchitecture
Entity
p4684
(dp4685
g11
(lp4686
sg13
S'android.widget.Toast$TN$2'
p4687
sg15
(lp4688
sg17
(lp4689
sg19
(lp4690
sg21
I0
sba(iArchitecture
Entity
p4691
(dp4692
g11
(lp4693
sg13
S'android.widget.Toolbar'
p4694
sg15
(lp4695
sg17
(lp4696
sg19
(lp4697
sg21
I0
sba(iArchitecture
Entity
p4698
(dp4699
g11
(lp4700
sg13
S'android.widget.Toolbar$1'
p4701
sg15
(lp4702
sg17
(lp4703
sg19
(lp4704
sg21
I0
sba(iArchitecture
Entity
p4705
(dp4706
g11
(lp4707
sg13
S'android.widget.Toolbar$2'
p4708
sg15
(lp4709
sg17
(lp4710
sg19
(lp4711
sg21
I0
sba(iArchitecture
Entity
p4712
(dp4713
g11
(lp4714
sg13
S'android.widget.Toolbar$3'
p4715
sg15
(lp4716
sg17
(lp4717
sg19
(lp4718
sg21
I0
sba(iArchitecture
Entity
p4719
(dp4720
g11
(lp4721
sg13
S'android.widget.Toolbar$ExpandedActionViewMenuPresenter'
p4722
sg15
(lp4723
sg17
(lp4724
sg19
(lp4725
sg21
I0
sba(iArchitecture
Entity
p4726
(dp4727
g11
(lp4728
sg13
S'android.widget.Toolbar$LayoutParams'
p4729
sg15
(lp4730
sg17
(lp4731
sg19
(lp4732
sg21
I0
sba(iArchitecture
Entity
p4733
(dp4734
g11
(lp4735
sg13
S'android.widget.Toolbar$OnMenuItemClickListener'
p4736
sg15
(lp4737
sg17
(lp4738
sg19
(lp4739
sg21
I0
sba(iArchitecture
Entity
p4740
(dp4741
g11
(lp4742
sg13
S'android.widget.Toolbar$SavedState'
p4743
sg15
(lp4744
sg17
(lp4745
sg19
(lp4746
sg21
I0
sba(iArchitecture
Entity
p4747
(dp4748
g11
(lp4749
sg13
S'android.widget.Toolbar$SavedState$1'
p4750
sg15
(lp4751
sg17
(lp4752
sg19
(lp4753
sg21
I0
sba(iArchitecture
Entity
p4754
(dp4755
g11
(lp4756
sg13
S'android.widget.VideoView'
p4757
sg15
(lp4758
sg17
(lp4759
sg19
(lp4760
sg21
I0
sba(iArchitecture
Entity
p4761
(dp4762
g11
(lp4763
sg13
S'android.widget.VideoView$1'
p4764
sg15
(lp4765
sg17
(lp4766
sg19
(lp4767
sg21
I0
sba(iArchitecture
Entity
p4768
(dp4769
g11
(lp4770
sg13
S'android.widget.VideoView$2'
p4771
sg15
(lp4772
sg17
(lp4773
sg19
(lp4774
sg21
I0
sba(iArchitecture
Entity
p4775
(dp4776
g11
(lp4777
sg13
S'android.widget.VideoView$3'
p4778
sg15
(lp4779
sg17
(lp4780
sg19
(lp4781
sg21
I0
sba(iArchitecture
Entity
p4782
(dp4783
g11
(lp4784
sg13
S'android.widget.VideoView$4'
p4785
sg15
(lp4786
sg17
(lp4787
sg19
(lp4788
sg21
I0
sba(iArchitecture
Entity
p4789
(dp4790
g11
(lp4791
sg13
S'android.widget.VideoView$5'
p4792
sg15
(lp4793
sg17
(lp4794
sg19
(lp4795
sg21
I0
sba(iArchitecture
Entity
p4796
(dp4797
g11
(lp4798
sg13
S'android.widget.VideoView$5$1'
p4799
sg15
(lp4800
sg17
(lp4801
sg19
(lp4802
sg21
I0
sba(iArchitecture
Entity
p4803
(dp4804
g11
(lp4805
sg13
S'android.widget.VideoView$6'
p4806
sg15
(lp4807
sg17
(lp4808
sg19
(lp4809
sg21
I0
sba(iArchitecture
Entity
p4810
(dp4811
g11
(lp4812
sg13
S'android.widget.VideoView$7'
p4813
sg15
(lp4814
sg17
(lp4815
sg19
(lp4816
sg21
I0
sba(iArchitecture
Entity
p4817
(dp4818
g11
(lp4819
sg13
S'android.widget.VideoView$8'
p4820
sg15
(lp4821
sg17
(lp4822
sg19
(lp4823
sg21
I0
sba(iArchitecture
Entity
p4824
(dp4825
g11
(lp4826
sg13
S'android.widget.ViewAnimator'
p4827
sg15
(lp4828
sg17
(lp4829
sg19
(lp4830
sg21
I0
sba(iArchitecture
Entity
p4831
(dp4832
g11
(lp4833
sg13
S'android.widget.ViewFlipper'
p4834
sg15
(lp4835
sg17
(lp4836
sg19
(lp4837
sg21
I0
sba(iArchitecture
Entity
p4838
(dp4839
g11
(lp4840
sg13
S'android.widget.ViewFlipper$1'
p4841
sg15
(lp4842
sg17
(lp4843
sg19
(lp4844
sg21
I0
sba(iArchitecture
Entity
p4845
(dp4846
g11
(lp4847
sg13
S'android.widget.ViewFlipper$2'
p4848
sg15
(lp4849
sg17
(lp4850
sg19
(lp4851
sg21
I0
sba(iArchitecture
Entity
p4852
(dp4853
g11
(lp4854
sg13
S'android.widget.ViewSwitcher'
p4855
sg15
(lp4856
sg17
(lp4857
sg19
(lp4858
sg21
I0
sba(iArchitecture
Entity
p4859
(dp4860
g11
(lp4861
sg13
S'android.widget.ViewSwitcher$ViewFactory'
p4862
sg15
(lp4863
sg17
(lp4864
sg19
(lp4865
sg21
I0
sba(iArchitecture
Entity
p4866
(dp4867
g11
(lp4868
sg13
S'android.widget.WrapperListAdapter'
p4869
sg15
(lp4870
sg17
(lp4871
sg19
(lp4872
sg21
I0
sba(iArchitecture
Entity
p4873
(dp4874
g11
(lp4875
sg13
S'android.widget.YearPickerView'
p4876
sg15
(lp4877
sg17
(lp4878
sg19
(lp4879
sg21
I0
sba(iArchitecture
Entity
p4880
(dp4881
g11
(lp4882
sg13
S'android.widget.YearPickerView$1'
p4883
sg15
(lp4884
sg17
(lp4885
sg19
(lp4886
sg21
I0
sba(iArchitecture
Entity
p4887
(dp4888
g11
(lp4889
sg13
S'android.widget.YearPickerView$2'
p4890
sg15
(lp4891
sg17
(lp4892
sg19
(lp4893
sg21
I0
sba(iArchitecture
Entity
p4894
(dp4895
g11
(lp4896
sg13
S'android.widget.YearPickerView$OnYearSelectedListener'
p4897
sg15
(lp4898
sg17
(lp4899
sg19
(lp4900
sg21
I0
sba(iArchitecture
Entity
p4901
(dp4902
g11
(lp4903
sg13
S'android.widget.YearPickerView$YearAdapter'
p4904
sg15
(lp4905
sg17
(lp4906
sg19
(lp4907
sg21
I0
sba(iArchitecture
Entity
p4908
(dp4909
g11
(lp4910
sg13
S'android.widget.ZoomButton'
p4911
sg15
(lp4912
sg17
(lp4913
sg19
(lp4914
sg21
I0
sba(iArchitecture
Entity
p4915
(dp4916
g11
(lp4917
sg13
S'android.widget.ZoomButton$1'
p4918
sg15
(lp4919
sg17
(lp4920
sg19
(lp4921
sg21
I0
sba(iArchitecture
Entity
p4922
(dp4923
g11
(lp4924
sg13
S'android.widget.ZoomButtonsController'
p4925
sg15
(lp4926
sg17
(lp4927
sg19
(lp4928
sg21
I0
sba(iArchitecture
Entity
p4929
(dp4930
g11
(lp4931
sg13
S'android.widget.ZoomButtonsController$1'
p4932
sg15
(lp4933
sg17
(lp4934
sg19
(lp4935
sg21
I0
sba(iArchitecture
Entity
p4936
(dp4937
g11
(lp4938
sg13
S'android.widget.ZoomButtonsController$2'
p4939
sg15
(lp4940
sg17
(lp4941
sg19
(lp4942
sg21
I0
sba(iArchitecture
Entity
p4943
(dp4944
g11
(lp4945
sg13
S'android.widget.ZoomButtonsController$3'
p4946
sg15
(lp4947
sg17
(lp4948
sg19
(lp4949
sg21
I0
sba(iArchitecture
Entity
p4950
(dp4951
g11
(lp4952
sg13
S'android.widget.ZoomButtonsController$4'
p4953
sg15
(lp4954
sg17
(lp4955
sg19
(lp4956
sg21
I0
sba(iArchitecture
Entity
p4957
(dp4958
g11
(lp4959
sg13
S'android.widget.ZoomButtonsController$5'
p4960
sg15
(lp4961
sg17
(lp4962
sg19
(lp4963
sg21
I0
sba(iArchitecture
Entity
p4964
(dp4965
g11
(lp4966
sg13
S'android.widget.ZoomButtonsController$Container'
p4967
sg15
(lp4968
sg17
(lp4969
sg19
(lp4970
sg21
I0
sba(iArchitecture
Entity
p4971
(dp4972
g11
(lp4973
sg13
S'android.widget.ZoomButtonsController$OnZoomListener'
p4974
sg15
(lp4975
sg17
(lp4976
sg19
(lp4977
sg21
I0
sba(iArchitecture
Entity
p4978
(dp4979
g11
(lp4980
sg13
S'android.widget.ZoomControls'
p4981
sg15
(lp4982
sg17
(lp4983
sg19
(lp4984
sg21
I0
sba(iArchitecture
Entity
p4985
(dp4986
g11
(lp4987
sg13
S'com.android.internal.util.FastMath'
p4988
sg15
(lp4989
sg17
(lp4990
sg19
(lp4991
sg21
I0
sba(iArchitecture
Entity
p4992
(dp4993
g11
(lp4994
sg13
S'com.android.internal.view.menu.MenuView'
p4995
sg15
(lp4996
sg17
(lp4997
sg19
(lp4998
sg21
I0
sba(iArchitecture
Entity
p4999
(dp5000
g11
(lp5001
sg13
S'com.android.internal.view.menu.MenuView$ItemView'
p5002
sg15
(lp5003
sg17
(lp5004
sg19
(lp5005
sg21
I0
sba(iArchitecture
Entity
p5006
(dp5007
g11
(lp5008
sg13
S'com.android.internal.widget.DrawingSpace'
p5009
sg15
(lp5010
sg17
(lp5011
sg19
(lp5012
sg21
I0
sba(iArchitecture
Entity
p5013
(dp5014
g11
(lp5015
sg13
S'com.android.internal.widget.EditableInputConnection'
p5016
sg15
(lp5017
sg17
(lp5018
sg19
(lp5019
sg21
I0
sba(iArchitecture
Entity
p5020
(dp5021
g11
(lp5022
sg13
S'com.android.internal.widget.IRemoteViewsFactory'
p5023
sg15
(lp5024
sg17
(lp5025
sg19
(lp5026
sg21
I0
sba(iArchitecture
Entity
p5027
(dp5028
g11
(lp5029
sg13
S'com.android.internal.widget.IRemoteViewsFactory$Stub'
p5030
sg15
(lp5031
sg17
(lp5032
sg19
(lp5033
sg21
I0
sba(iArchitecture
Entity
p5034
(dp5035
g11
(lp5036
sg13
S'com.android.internal.widget.IRemoteViewsFactory$Stub$Proxy'
p5037
sg15
(lp5038
sg17
(lp5039
sg19
(lp5040
sg21
I0
sba(iArchitecture
Entity
p5041
(dp5042
g11
(lp5043
sg13
S'com.android.internal.widget.PreferenceImageView'
p5044
sg15
(lp5045
sg17
(lp5046
sg19
(lp5047
sg21
I0
sba(iArchitecture
Entity
p5048
(dp5049
g11
(lp5050
sg13
S'com.android.internal.widget.TextProgressBar'
p5051
sg15
(lp5052
sg17
(lp5053
sg19
(lp5054
sg21
I0
sba(iArchitecture
Entity
p5055
(dp5056
g11
(lp5057
sg13
S'com.android.server.policy.IconUtilities'
p5058
sg15
(lp5059
sg17
(lp5060
sg19
(lp5061
sg21
I0
sba(iArchitecture
Entity
p5062
(dp5063
g11
(lp5064
sg13
S'java.lang.CharSequence'
p5065
sg15
(lp5066
sg17
(lp5067
sg19
(lp5068
sg21
I0
sba(iArchitecture
Entity
p5069
(dp5070
g11
(lp5071
sg13
S'java.lang.Class'
p5072
sg15
(lp5073
sg17
(lp5074
sg19
(lp5075
sg21
I0
sba(iArchitecture
Entity
p5076
(dp5077
g11
(lp5078
sg13
S'java.lang.IncompatibleClassChangeError'
p5079
sg15
(lp5080
sg17
(lp5081
sg19
(lp5082
sg21
I0
sba(iArchitecture
Entity
p5083
(dp5084
g11
(lp5085
sg13
S'java.lang.Math'
p5086
sg15
(lp5087
sg17
(lp5088
sg19
(lp5089
sg21
I0
sba(iArchitecture
Entity
p5090
(dp5091
g11
(lp5092
sg13
S'java.lang.Short'
p5093
sg15
(lp5094
sg17
(lp5095
sg19
(lp5096
sg21
I0
sba(iArchitecture
Entity
p5097
(dp5098
g11
(lp5099
sg13
S'java.lang.ref.WeakReference'
p5100
sg15
(lp5101
sg17
(lp5102
sg19
(lp5103
sg21
I0
sba(iArchitecture
Entity
p5104
(dp5105
g11
(lp5106
sg13
S'java.lang.reflect.Array'
p5107
sg15
(lp5108
sg17
(lp5109
sg19
(lp5110
sg21
I0
sba(iArchitecture
Entity
p5111
(dp5112
g11
(lp5113
sg13
S'java.math.BigDecimal'
p5114
sg15
(lp5115
sg17
(lp5116
sg19
(lp5117
sg21
I0
sba(iArchitecture
Entity
p5118
(dp5119
g11
(lp5120
sg13
S'java.text.BreakIterator'
p5121
sg15
(lp5122
sg17
(lp5123
sg19
(lp5124
sg21
I0
sba(iArchitecture
Entity
p5125
(dp5126
g11
(lp5127
sg13
S'java.text.Collator'
p5128
sg15
(lp5129
sg17
(lp5130
sg19
(lp5131
sg21
I0
sba(iArchitecture
Entity
p5132
(dp5133
g11
(lp5134
sg13
S'java.text.DateFormatSymbols'
p5135
sg15
(lp5136
sg17
(lp5137
sg19
(lp5138
sg21
I0
sba(iArchitecture
Entity
p5139
(dp5140
g11
(lp5141
sg13
S'java.text.NumberFormat'
p5142
sg15
(lp5143
sg17
(lp5144
sg19
(lp5145
sg21
I0
sba(iArchitecture
Entity
p5146
(dp5147
g11
(lp5148
sg13
S'java.text.ParseException'
p5149
sg15
(lp5150
sg17
(lp5151
sg19
(lp5152
sg21
I0
sba(iArchitecture
Entity
p5153
(dp5154
g11
(lp5155
sg13
S'java.util.Calendar'
p5156
sg15
(lp5157
sg17
(lp5158
sg19
(lp5159
sg21
I0
sba(iArchitecture
Entity
p5160
(dp5161
g11
(lp5162
sg13
S'java.util.IllegalFormatException'
p5163
sg15
(lp5164
sg17
(lp5165
sg19
(lp5166
sg21
I0
sba(iArchitecture
Entity
p5167
(dp5168
g11
(lp5169
sg13
S'java.util.WeakHashMap'
p5170
sg15
(lp5171
sg17
(lp5172
sg19
(lp5173
sg21
I0
sba(iArchitecture
Entity
p5174
(dp5175
g11
(lp5176
sg13
S'libcore.icu.ICU'
p5177
sg15
(lp5178
sg17
(lp5179
sg19
(lp5180
sg21
I0
sba(iArchitecture
Entity
p5181
(dp5182
g11
(lp5183
sg13
S'libcore.icu.LocaleData'
p5184
sg15
(lp5185
sg17
(lp5186
sg19
(lp5187
sg21
I0
sbasS'classes'
p5188
(lp5189
g14
ag25
ag32
ag39
ag46
ag53
ag60
ag67
ag74
ag81
ag88
ag95
ag102
ag109
ag116
ag123
ag130
ag137
ag144
ag151
ag158
ag165
ag172
ag179
ag186
ag193
ag200
ag207
ag214
ag221
ag228
ag235
ag242
ag249
ag256
ag263
ag270
ag277
ag284
ag291
ag298
ag305
ag312
ag319
ag326
ag333
ag340
ag347
ag354
ag361
ag368
ag375
ag382
ag389
ag396
ag403
ag410
ag417
ag424
ag431
ag438
ag445
ag452
ag459
ag466
ag473
ag480
ag487
ag494
ag501
ag508
ag515
ag522
ag529
ag536
ag543
ag550
ag557
ag564
ag571
ag578
ag585
ag592
ag599
ag606
ag613
ag620
ag627
ag634
ag641
ag648
ag655
ag662
ag669
ag676
ag683
ag690
ag697
ag704
ag711
ag718
ag725
ag732
ag739
ag746
ag753
ag760
ag767
ag774
ag781
ag788
ag795
ag802
ag809
ag816
ag823
ag830
ag837
ag844
ag851
ag858
ag865
ag872
ag879
ag886
ag893
ag900
ag907
ag914
ag921
ag928
ag935
ag942
ag949
ag956
ag963
ag970
ag977
ag984
ag991
ag998
ag1005
ag1012
ag1019
ag1026
ag1033
ag1040
ag1047
ag1054
ag1061
ag1068
ag1075
ag1082
ag1089
ag1096
ag1103
ag1110
ag1117
ag1124
ag1131
ag1138
ag1145
ag1152
ag1159
ag1166
ag1173
ag1180
ag1187
ag1194
ag1201
ag1208
ag1215
ag1222
ag1229
ag1236
ag1243
ag1250
ag1257
ag1264
ag1271
ag1278
ag1285
ag1292
ag1299
ag1306
ag1313
ag1320
ag1327
ag1334
ag1341
ag1348
ag1355
ag1362
ag1369
ag1376
ag1383
ag1390
ag1397
ag1404
ag1411
ag1418
ag1425
ag1432
ag1439
ag1446
ag1453
ag1460
ag1467
ag1474
ag1481
ag1488
ag1495
ag1502
ag1509
ag1516
ag1523
ag1530
ag1537
ag1544
ag1551
ag1558
ag1565
ag1572
ag1579
ag1586
ag1593
ag1600
ag1607
ag1614
ag1621
ag1628
ag1635
ag1642
ag1649
ag1656
ag1663
ag1670
ag1677
ag1684
ag1691
ag1698
ag1705
ag1712
ag1719
ag1726
ag1733
ag1740
ag1747
ag1754
ag1761
ag1768
ag1775
ag1782
ag1789
ag1796
ag1803
ag1810
ag1817
ag1824
ag1831
ag1838
ag1845
ag1852
ag1859
ag1866
ag1873
ag1880
ag1887
ag1894
ag1901
ag1908
ag1915
ag1922
ag1929
ag1936
ag1943
ag1950
ag1957
ag1964
ag1971
ag1978
ag1985
ag1992
ag1999
ag2006
ag2013
ag2020
ag2027
ag2034
ag2041
ag2048
ag2055
ag2062
ag2069
ag2076
ag2083
ag2090
ag2097
ag2104
ag2111
ag2118
ag2125
ag2132
ag2139
ag2146
ag2153
ag2160
ag2167
ag2174
ag2181
ag2188
ag2195
ag2202
ag2209
ag2216
ag2223
ag2230
ag2237
ag2244
ag2251
ag2258
ag2265
ag2272
ag2279
ag2286
ag2293
ag2300
ag2307
ag2314
ag2321
ag2328
ag2335
ag2342
ag2349
ag2356
ag2363
ag2370
ag2377
ag2384
ag2391
ag2398
ag2405
ag2412
ag2419
ag2426
ag2433
ag2440
ag2447
ag2454
ag2461
ag2468
ag2475
ag2482
ag2489
ag2496
ag2503
ag2510
ag2517
ag2524
ag2531
ag2538
ag2545
ag2552
ag2559
ag2566
ag2573
ag2580
ag2587
ag2594
ag2601
ag2608
ag2615
ag2622
ag2629
ag2636
ag2643
ag2650
ag2657
ag2664
ag2671
ag2678
ag2685
ag2692
ag2699
ag2706
ag2713
ag2720
ag2727
ag2734
ag2741
ag2748
ag2755
ag2762
ag2769
ag2776
ag2783
ag2790
ag2797
ag2804
ag2811
ag2818
ag2825
ag2832
ag2839
ag2846
ag2853
ag2860
ag2867
ag2874
ag2881
ag2888
ag2895
ag2902
ag2909
ag2916
ag2923
ag2930
ag2937
ag2944
ag2951
ag2958
ag2965
ag2972
ag2979
ag2986
ag2993
ag3000
ag3007
ag3014
ag3021
ag3028
ag3035
ag3042
ag3049
ag3056
ag3063
ag3070
ag3077
ag3084
ag3091
ag3098
ag3105
ag3112
ag3119
ag3126
ag3133
ag3140
ag3147
ag3154
ag3161
ag3168
ag3175
ag3182
ag3189
ag3196
ag3203
ag3210
ag3217
ag3224
ag3231
ag3238
ag3245
ag3252
ag3259
ag3266
ag3273
ag3280
ag3287
ag3294
ag3301
ag3308
ag3315
ag3322
ag3329
ag3336
ag3343
ag3350
ag3357
ag3364
ag3371
ag3378
ag3385
ag3392
ag3399
ag3406
ag3413
ag3420
ag3427
ag3434
ag3441
ag3448
ag3455
ag3462
ag3469
ag3476
ag3483
ag3490
ag3497
ag3504
ag3511
ag3518
ag3525
ag3532
ag3539
ag3546
ag3553
ag3560
ag3567
ag3574
ag3581
ag3588
ag3595
ag3602
ag3609
ag3616
ag3623
ag3630
ag3637
ag3644
ag3651
ag3658
ag3665
ag3672
ag3679
ag3686
ag3693
ag3700
ag3707
ag3714
ag3721
ag3728
ag3735
ag3742
ag3749
ag3756
ag3763
ag3770
ag3777
ag3784
ag3791
ag3798
ag3805
ag3812
ag3819
ag3826
ag3833
ag3840
ag3847
ag3854
ag3861
ag3868
ag3875
ag3882
ag3889
ag3896
ag3903
ag3910
ag3917
ag3924
ag3931
ag3938
ag3945
ag3952
ag3959
ag3966
ag3973
ag3980
ag3987
ag3994
ag4001
ag4008
ag4015
ag4022
ag4029
ag4036
ag4043
ag4050
ag4057
ag4064
ag4071
ag4078
ag4085
ag4092
ag4099
ag4106
ag4113
ag4120
ag4127
ag4134
ag4141
ag4148
ag4155
ag4162
ag4169
ag4176
ag4183
ag4190
ag4197
ag4204
ag4211
ag4218
ag4225
ag4232
ag4239
ag4246
ag4253
ag4260
ag4267
ag4274
ag4281
ag4288
ag4295
ag4302
ag4309
ag4316
ag4323
ag4330
ag4337
ag4344
ag4351
ag4358
ag4365
ag4372
ag4379
ag4386
ag4393
ag4400
ag4407
ag4414
ag4421
ag4428
ag4435
ag4442
ag4449
ag4456
ag4463
ag4470
ag4477
ag4484
ag4491
ag4498
ag4505
ag4512
ag4519
ag4526
ag4533
ag4540
ag4547
ag4554
ag4561
ag4568
ag4575
ag4582
ag4589
ag4596
ag4603
ag4610
ag4617
ag4624
ag4631
ag4638
ag4645
ag4652
ag4659
ag4666
ag4673
ag4680
ag4687
ag4694
ag4701
ag4708
ag4715
ag4722
ag4729
ag4736
ag4743
ag4750
ag4757
ag4764
ag4771
ag4778
ag4785
ag4792
ag4799
ag4806
ag4813
ag4820
ag4827
ag4834
ag4841
ag4848
ag4855
ag4862
ag4869
ag4876
ag4883
ag4890
ag4897
ag4904
ag4911
ag4918
ag4925
ag4932
ag4939
ag4946
ag4953
ag4960
ag4967
ag4974
ag4981
ag4988
ag4995
ag5002
ag5009
ag5016
ag5023
ag5030
ag5037
ag5044
ag5051
ag5058
ag5065
ag5072
ag5079
ag5086
ag5093
ag5100
ag5107
ag5114
ag5121
ag5128
ag5135
ag5142
ag5149
ag5156
ag5163
ag5170
ag5177
ag5184
asg21
I0
sS'label'
p5190
S'android.widget.ss'
p5191
sbasS'target_sub'
p5192
S'android.widget.ss'
p5193
sg5188
(lp5194
sS'is_component_arch'
p5195
I01
sg5190
S'6.0.0_r1'
p5196
sba.