(lp0
(iArchitecture
Architecture
p1
(dp2
S'clusters'
p3
(lp4
(iArchitecture
Cluster
p5
(dp6
S'entities'
p7
(lp8
(iArchitecture
Entity
p9
(dp10
S'issue_ids'
p11
(lp12
sS'name'
p13
S'android.telephony.cdma.CdmaSmsCbProgramData'
p14
sS'descs'
p15
(lp16
sS'labels'
p17
(lp18
sS'titles'
p19
(lp20
sS'change'
p21
I0
sba(iArchitecture
Entity
p22
(dp23
g11
(lp24
sg13
S'android.telephony.cdma.CdmaSmsCbProgramData$1'
p25
sg15
(lp26
sg17
(lp27
sg19
(lp28
sg21
I0
sba(iArchitecture
Entity
p29
(dp30
g11
(lp31
sg13
S'android.telephony.cdma.CdmaSmsCbProgramResults'
p32
sg15
(lp33
sg17
(lp34
sg19
(lp35
sg21
I0
sba(iArchitecture
Entity
p36
(dp37
g11
(lp38
sg13
S'android.telephony.cdma.CdmaSmsCbProgramResults$1'
p39
sg15
(lp40
sg17
(lp41
sg19
(lp42
sg21
I0
sbasS'classes'
p43
(lp44
g14
ag25
ag32
ag39
asg21
I0
sS'label'
p45
S'android.telephony.cdma.ss'
p46
sbasS'target_sub'
p47
S'android.telephony.cdma.ss'
p48
sg43
(lp49
sS'is_component_arch'
p50
I01
sg45
S'7.0.0_r1'
p51
sba.