(lp0
(iArchitecture
Architecture
p1
(dp2
S'clusters'
p3
(lp4
(iArchitecture
Cluster
p5
(dp6
S'entities'
p7
(lp8
(iArchitecture
Entity
p9
(dp10
S'issue_ids'
p11
(lp12
sS'name'
p13
S'android.hardware.Camera$CameraInfo'
p14
sS'descs'
p15
(lp16
sS'labels'
p17
(lp18
sS'titles'
p19
(lp20
sS'change'
p21
I0
sba(iArchitecture
Entity
p22
(dp23
g11
(lp24
sg13
S'android.media.AsyncPlayer'
p25
sg15
(lp26
sg17
(lp27
sg19
(lp28
sg21
I0
sba(iArchitecture
Entity
p29
(dp30
g11
(lp31
sg13
S'android.media.AsyncPlayer$Command'
p32
sg15
(lp33
sg17
(lp34
sg19
(lp35
sg21
I0
sba(iArchitecture
Entity
p36
(dp37
g11
(lp38
sg13
S'android.media.AsyncPlayer$Thread'
p39
sg15
(lp40
sg17
(lp41
sg19
(lp42
sg21
I0
sba(iArchitecture
Entity
p43
(dp44
g11
(lp45
sg13
S'android.media.AudioAttributes'
p46
sg15
(lp47
sg17
(lp48
sg19
(lp49
sg21
I0
sba(iArchitecture
Entity
p50
(dp51
g11
(lp52
sg13
S'android.media.AudioAttributes$1'
p53
sg15
(lp54
sg17
(lp55
sg19
(lp56
sg21
I0
sba(iArchitecture
Entity
p57
(dp58
g11
(lp59
sg13
S'android.media.AudioAttributes$Builder'
p60
sg15
(lp61
sg17
(lp62
sg19
(lp63
sg21
I0
sba(iArchitecture
Entity
p64
(dp65
g11
(lp66
sg13
S'android.media.AudioDeviceCallback'
p67
sg15
(lp68
sg17
(lp69
sg19
(lp70
sg21
I0
sba(iArchitecture
Entity
p71
(dp72
g11
(lp73
sg13
S'android.media.AudioDeviceInfo'
p74
sg15
(lp75
sg17
(lp76
sg19
(lp77
sg21
I0
sba(iArchitecture
Entity
p78
(dp79
g11
(lp80
sg13
S'android.media.AudioDevicePort'
p81
sg15
(lp82
sg17
(lp83
sg19
(lp84
sg21
I0
sba(iArchitecture
Entity
p85
(dp86
g11
(lp87
sg13
S'android.media.AudioDevicePortConfig'
p88
sg15
(lp89
sg17
(lp90
sg19
(lp91
sg21
I0
sba(iArchitecture
Entity
p92
(dp93
g11
(lp94
sg13
S'android.media.AudioFocusInfo'
p95
sg15
(lp96
sg17
(lp97
sg19
(lp98
sg21
I0
sba(iArchitecture
Entity
p99
(dp100
g11
(lp101
sg13
S'android.media.AudioFocusInfo$1'
p102
sg15
(lp103
sg17
(lp104
sg19
(lp105
sg21
I0
sba(iArchitecture
Entity
p106
(dp107
g11
(lp108
sg13
S'android.media.AudioFormat'
p109
sg15
(lp110
sg17
(lp111
sg19
(lp112
sg21
I0
sba(iArchitecture
Entity
p113
(dp114
g11
(lp115
sg13
S'android.media.AudioFormat$1'
p116
sg15
(lp117
sg17
(lp118
sg19
(lp119
sg21
I0
sba(iArchitecture
Entity
p120
(dp121
g11
(lp122
sg13
S'android.media.AudioGain'
p123
sg15
(lp124
sg17
(lp125
sg19
(lp126
sg21
I0
sba(iArchitecture
Entity
p127
(dp128
g11
(lp129
sg13
S'android.media.AudioGainConfig'
p130
sg15
(lp131
sg17
(lp132
sg19
(lp133
sg21
I0
sba(iArchitecture
Entity
p134
(dp135
g11
(lp136
sg13
S'android.media.AudioHandle'
p137
sg15
(lp138
sg17
(lp139
sg19
(lp140
sg21
I0
sba(iArchitecture
Entity
p141
(dp142
g11
(lp143
sg13
S'android.media.AudioManager'
p144
sg15
(lp145
sg17
(lp146
sg19
(lp147
sg21
I0
sba(iArchitecture
Entity
p148
(dp149
g11
(lp150
sg13
S'android.media.AudioManager$1'
p151
sg15
(lp152
sg17
(lp153
sg19
(lp154
sg21
I0
sba(iArchitecture
Entity
p155
(dp156
g11
(lp157
sg13
S'android.media.AudioManager$2'
p158
sg15
(lp159
sg17
(lp160
sg19
(lp161
sg21
I0
sba(iArchitecture
Entity
p162
(dp163
g11
(lp164
sg13
S'android.media.AudioManager$AudioRecordingCallback'
p165
sg15
(lp166
sg17
(lp167
sg19
(lp168
sg21
I0
sba(iArchitecture
Entity
p169
(dp170
g11
(lp171
sg13
S'android.media.AudioManager$AudioRecordingCallbackInfo'
p172
sg15
(lp173
sg17
(lp174
sg19
(lp175
sg21
I0
sba(iArchitecture
Entity
p176
(dp177
g11
(lp178
sg13
S'android.media.AudioManager$NativeEventHandlerDelegate'
p179
sg15
(lp180
sg17
(lp181
sg19
(lp182
sg21
I0
sba(iArchitecture
Entity
p183
(dp184
g11
(lp185
sg13
S'android.media.AudioManager$NativeEventHandlerDelegate$1'
p186
sg15
(lp187
sg17
(lp188
sg19
(lp189
sg21
I0
sba(iArchitecture
Entity
p190
(dp191
g11
(lp192
sg13
S'android.media.AudioManager$OnAmPortUpdateListener'
p193
sg15
(lp194
sg17
(lp195
sg19
(lp196
sg21
I0
sba(iArchitecture
Entity
p197
(dp198
g11
(lp199
sg13
S'android.media.AudioManager$OnAudioFocusChangeListener'
p200
sg15
(lp201
sg17
(lp202
sg19
(lp203
sg21
I0
sba(iArchitecture
Entity
p204
(dp205
g11
(lp206
sg13
S'android.media.AudioManager$OnAudioPortUpdateListener'
p207
sg15
(lp208
sg17
(lp209
sg19
(lp210
sg21
I0
sba(iArchitecture
Entity
p211
(dp212
g11
(lp213
sg13
S'android.media.AudioManager$RecordConfigChangeCallbackData'
p214
sg15
(lp215
sg17
(lp216
sg19
(lp217
sg21
I0
sba(iArchitecture
Entity
p218
(dp219
g11
(lp220
sg13
S'android.media.AudioManager$ServiceEventHandlerDelegate'
p221
sg15
(lp222
sg17
(lp223
sg19
(lp224
sg21
I0
sba(iArchitecture
Entity
p225
(dp226
g11
(lp227
sg13
S'android.media.AudioManager$ServiceEventHandlerDelegate$1'
p228
sg15
(lp229
sg17
(lp230
sg19
(lp231
sg21
I0
sba(iArchitecture
Entity
p232
(dp233
g11
(lp234
sg13
S'android.media.AudioMixPort'
p235
sg15
(lp236
sg17
(lp237
sg19
(lp238
sg21
I0
sba(iArchitecture
Entity
p239
(dp240
g11
(lp241
sg13
S'android.media.AudioMixPortConfig'
p242
sg15
(lp243
sg17
(lp244
sg19
(lp245
sg21
I0
sba(iArchitecture
Entity
p246
(dp247
g11
(lp248
sg13
S'android.media.AudioPatch'
p249
sg15
(lp250
sg17
(lp251
sg19
(lp252
sg21
I0
sba(iArchitecture
Entity
p253
(dp254
g11
(lp255
sg13
S'android.media.AudioPort'
p256
sg15
(lp257
sg17
(lp258
sg19
(lp259
sg21
I0
sba(iArchitecture
Entity
p260
(dp261
g11
(lp262
sg13
S'android.media.AudioPortConfig'
p263
sg15
(lp264
sg17
(lp265
sg19
(lp266
sg21
I0
sba(iArchitecture
Entity
p267
(dp268
g11
(lp269
sg13
S'android.media.AudioPortEventHandler'
p270
sg15
(lp271
sg17
(lp272
sg19
(lp273
sg21
I0
sba(iArchitecture
Entity
p274
(dp275
g11
(lp276
sg13
S'android.media.AudioPortEventHandler$1'
p277
sg15
(lp278
sg17
(lp279
sg19
(lp280
sg21
I0
sba(iArchitecture
Entity
p281
(dp282
g11
(lp283
sg13
S'android.media.AudioRecord'
p284
sg15
(lp285
sg17
(lp286
sg19
(lp287
sg21
I0
sba(iArchitecture
Entity
p288
(dp289
g11
(lp290
sg13
S'android.media.AudioRecord$Builder'
p291
sg15
(lp292
sg17
(lp293
sg19
(lp294
sg21
I0
sba(iArchitecture
Entity
p295
(dp296
g11
(lp297
sg13
S'android.media.AudioRecord$NativeEventHandler'
p298
sg15
(lp299
sg17
(lp300
sg19
(lp301
sg21
I0
sba(iArchitecture
Entity
p302
(dp303
g11
(lp304
sg13
S'android.media.AudioRecord$NativeRoutingEventHandlerDelegate'
p305
sg15
(lp306
sg17
(lp307
sg19
(lp308
sg21
I0
sba(iArchitecture
Entity
p309
(dp310
g11
(lp311
sg13
S'android.media.AudioRecord$NativeRoutingEventHandlerDelegate$1'
p312
sg15
(lp313
sg17
(lp314
sg19
(lp315
sg21
I0
sba(iArchitecture
Entity
p316
(dp317
g11
(lp318
sg13
S'android.media.AudioRecord$OnRecordPositionUpdateListener'
p319
sg15
(lp320
sg17
(lp321
sg19
(lp322
sg21
I0
sba(iArchitecture
Entity
p323
(dp324
g11
(lp325
sg13
S'android.media.AudioRecord$OnRoutingChangedListener'
p326
sg15
(lp327
sg17
(lp328
sg19
(lp329
sg21
I0
sba(iArchitecture
Entity
p330
(dp331
g11
(lp332
sg13
S'android.media.AudioRecordRoutingProxy'
p333
sg15
(lp334
sg17
(lp335
sg19
(lp336
sg21
I0
sba(iArchitecture
Entity
p337
(dp338
g11
(lp339
sg13
S'android.media.AudioRecordingConfiguration'
p340
sg15
(lp341
sg17
(lp342
sg19
(lp343
sg21
I0
sba(iArchitecture
Entity
p344
(dp345
g11
(lp346
sg13
S'android.media.AudioRecordingConfiguration$1'
p347
sg15
(lp348
sg17
(lp349
sg19
(lp350
sg21
I0
sba(iArchitecture
Entity
p351
(dp352
g11
(lp353
sg13
S'android.media.AudioRoutesInfo'
p354
sg15
(lp355
sg17
(lp356
sg19
(lp357
sg21
I0
sba(iArchitecture
Entity
p358
(dp359
g11
(lp360
sg13
S'android.media.AudioRoutesInfo$1'
p361
sg15
(lp362
sg17
(lp363
sg19
(lp364
sg21
I0
sba(iArchitecture
Entity
p365
(dp366
g11
(lp367
sg13
S'android.media.AudioRouting'
p368
sg15
(lp369
sg17
(lp370
sg19
(lp371
sg21
I0
sba(iArchitecture
Entity
p372
(dp373
g11
(lp374
sg13
S'android.media.AudioRouting$OnRoutingChangedListener'
p375
sg15
(lp376
sg17
(lp377
sg19
(lp378
sg21
I0
sba(iArchitecture
Entity
p379
(dp380
g11
(lp381
sg13
S'android.media.AudioTimestamp'
p382
sg15
(lp383
sg17
(lp384
sg19
(lp385
sg21
I0
sba(iArchitecture
Entity
p386
(dp387
g11
(lp388
sg13
S'android.media.AudioTrack'
p389
sg15
(lp390
sg17
(lp391
sg19
(lp392
sg21
I0
sba(iArchitecture
Entity
p393
(dp394
g11
(lp395
sg13
S'android.media.AudioTrack$Builder'
p396
sg15
(lp397
sg17
(lp398
sg19
(lp399
sg21
I0
sba(iArchitecture
Entity
p400
(dp401
g11
(lp402
sg13
S'android.media.AudioTrack$NativePositionEventHandlerDelegate'
p403
sg15
(lp404
sg17
(lp405
sg19
(lp406
sg21
I0
sba(iArchitecture
Entity
p407
(dp408
g11
(lp409
sg13
S'android.media.AudioTrack$NativePositionEventHandlerDelegate$1'
p410
sg15
(lp411
sg17
(lp412
sg19
(lp413
sg21
I0
sba(iArchitecture
Entity
p414
(dp415
g11
(lp416
sg13
S'android.media.AudioTrack$NativeRoutingEventHandlerDelegate'
p417
sg15
(lp418
sg17
(lp419
sg19
(lp420
sg21
I0
sba(iArchitecture
Entity
p421
(dp422
g11
(lp423
sg13
S'android.media.AudioTrack$NativeRoutingEventHandlerDelegate$1'
p424
sg15
(lp425
sg17
(lp426
sg19
(lp427
sg21
I0
sba(iArchitecture
Entity
p428
(dp429
g11
(lp430
sg13
S'android.media.AudioTrack$OnPlaybackPositionUpdateListener'
p431
sg15
(lp432
sg17
(lp433
sg19
(lp434
sg21
I0
sba(iArchitecture
Entity
p435
(dp436
g11
(lp437
sg13
S'android.media.AudioTrack$OnRoutingChangedListener'
p438
sg15
(lp439
sg17
(lp440
sg19
(lp441
sg21
I0
sba(iArchitecture
Entity
p442
(dp443
g11
(lp444
sg13
S'android.media.AudioTrackRoutingProxy'
p445
sg15
(lp446
sg17
(lp447
sg19
(lp448
sg21
I0
sba(iArchitecture
Entity
p449
(dp450
g11
(lp451
sg13
S'android.media.CamcorderProfile'
p452
sg15
(lp453
sg17
(lp454
sg19
(lp455
sg21
I0
sba(iArchitecture
Entity
p456
(dp457
g11
(lp458
sg13
S'android.media.Cea608CCParser'
p459
sg15
(lp460
sg17
(lp461
sg19
(lp462
sg21
I0
sba(iArchitecture
Entity
p463
(dp464
g11
(lp465
sg13
S'android.media.Cea608CCParser$CCData'
p466
sg15
(lp467
sg17
(lp468
sg19
(lp469
sg21
I0
sba(iArchitecture
Entity
p470
(dp471
g11
(lp472
sg13
S'android.media.Cea608CCParser$CCLineBuilder'
p473
sg15
(lp474
sg17
(lp475
sg19
(lp476
sg21
I0
sba(iArchitecture
Entity
p477
(dp478
g11
(lp479
sg13
S'android.media.Cea608CCParser$CCMemory'
p480
sg15
(lp481
sg17
(lp482
sg19
(lp483
sg21
I0
sba(iArchitecture
Entity
p484
(dp485
g11
(lp486
sg13
S'android.media.Cea608CCParser$DisplayListener'
p487
sg15
(lp488
sg17
(lp489
sg19
(lp490
sg21
I0
sba(iArchitecture
Entity
p491
(dp492
g11
(lp493
sg13
S'android.media.Cea608CCParser$MutableBackgroundColorSpan'
p494
sg15
(lp495
sg17
(lp496
sg19
(lp497
sg21
I0
sba(iArchitecture
Entity
p498
(dp499
g11
(lp500
sg13
S'android.media.Cea608CCParser$PAC'
p501
sg15
(lp502
sg17
(lp503
sg19
(lp504
sg21
I0
sba(iArchitecture
Entity
p505
(dp506
g11
(lp507
sg13
S'android.media.Cea608CCParser$StyleCode'
p508
sg15
(lp509
sg17
(lp510
sg19
(lp511
sg21
I0
sba(iArchitecture
Entity
p512
(dp513
g11
(lp514
sg13
S'android.media.Cea608CCWidget'
p515
sg15
(lp516
sg17
(lp517
sg19
(lp518
sg21
I0
sba(iArchitecture
Entity
p519
(dp520
g11
(lp521
sg13
S'android.media.Cea608CCWidget$CCLayout'
p522
sg15
(lp523
sg17
(lp524
sg19
(lp525
sg21
I0
sba(iArchitecture
Entity
p526
(dp527
g11
(lp528
sg13
S'android.media.Cea608CCWidget$CCLineBox'
p529
sg15
(lp530
sg17
(lp531
sg19
(lp532
sg21
I0
sba(iArchitecture
Entity
p533
(dp534
g11
(lp535
sg13
S'android.media.Cea608CaptionTrack'
p536
sg15
(lp537
sg17
(lp538
sg19
(lp539
sg21
I0
sba(iArchitecture
Entity
p540
(dp541
g11
(lp542
sg13
S'android.media.Cea708CCParser'
p543
sg15
(lp544
sg17
(lp545
sg19
(lp546
sg21
I0
sba(iArchitecture
Entity
p547
(dp548
g11
(lp549
sg13
S'android.media.Cea708CCParser$1'
p550
sg15
(lp551
sg17
(lp552
sg19
(lp553
sg21
I0
sba(iArchitecture
Entity
p554
(dp555
g11
(lp556
sg13
S'android.media.Cea708CCParser$CaptionColor'
p557
sg15
(lp558
sg17
(lp559
sg19
(lp560
sg21
I0
sba(iArchitecture
Entity
p561
(dp562
g11
(lp563
sg13
S'android.media.Cea708CCParser$CaptionEvent'
p564
sg15
(lp565
sg17
(lp566
sg19
(lp567
sg21
I0
sba(iArchitecture
Entity
p568
(dp569
g11
(lp570
sg13
S'android.media.Cea708CCParser$CaptionPenAttr'
p571
sg15
(lp572
sg17
(lp573
sg19
(lp574
sg21
I0
sba(iArchitecture
Entity
p575
(dp576
g11
(lp577
sg13
S'android.media.Cea708CCParser$CaptionPenColor'
p578
sg15
(lp579
sg17
(lp580
sg19
(lp581
sg21
I0
sba(iArchitecture
Entity
p582
(dp583
g11
(lp584
sg13
S'android.media.Cea708CCParser$CaptionPenLocation'
p585
sg15
(lp586
sg17
(lp587
sg19
(lp588
sg21
I0
sba(iArchitecture
Entity
p589
(dp590
g11
(lp591
sg13
S'android.media.Cea708CCParser$CaptionWindow'
p592
sg15
(lp593
sg17
(lp594
sg19
(lp595
sg21
I0
sba(iArchitecture
Entity
p596
(dp597
g11
(lp598
sg13
S'android.media.Cea708CCParser$CaptionWindowAttr'
p599
sg15
(lp600
sg17
(lp601
sg19
(lp602
sg21
I0
sba(iArchitecture
Entity
p603
(dp604
g11
(lp605
sg13
S'android.media.Cea708CCParser$Const'
p606
sg15
(lp607
sg17
(lp608
sg19
(lp609
sg21
I0
sba(iArchitecture
Entity
p610
(dp611
g11
(lp612
sg13
S'android.media.Cea708CCParser$DisplayListener'
p613
sg15
(lp614
sg17
(lp615
sg19
(lp616
sg21
I0
sba(iArchitecture
Entity
p617
(dp618
g11
(lp619
sg13
S'android.media.Cea708CCWidget'
p620
sg15
(lp621
sg17
(lp622
sg19
(lp623
sg21
I0
sba(iArchitecture
Entity
p624
(dp625
g11
(lp626
sg13
S'android.media.Cea708CCWidget$CCHandler'
p627
sg15
(lp628
sg17
(lp629
sg19
(lp630
sg21
I0
sba(iArchitecture
Entity
p631
(dp632
g11
(lp633
sg13
S'android.media.Cea708CCWidget$CCLayout'
p634
sg15
(lp635
sg17
(lp636
sg19
(lp637
sg21
I0
sba(iArchitecture
Entity
p638
(dp639
g11
(lp640
sg13
S'android.media.Cea708CCWidget$CCView'
p641
sg15
(lp642
sg17
(lp643
sg19
(lp644
sg21
I0
sba(iArchitecture
Entity
p645
(dp646
g11
(lp647
sg13
S'android.media.Cea708CCWidget$CCWindowLayout'
p648
sg15
(lp649
sg17
(lp650
sg19
(lp651
sg21
I0
sba(iArchitecture
Entity
p652
(dp653
g11
(lp654
sg13
S'android.media.Cea708CCWidget$ScaledLayout'
p655
sg15
(lp656
sg17
(lp657
sg19
(lp658
sg21
I0
sba(iArchitecture
Entity
p659
(dp660
g11
(lp661
sg13
S'android.media.Cea708CCWidget$ScaledLayout$1'
p662
sg15
(lp663
sg17
(lp664
sg19
(lp665
sg21
I0
sba(iArchitecture
Entity
p666
(dp667
g11
(lp668
sg13
S'android.media.Cea708CCWidget$ScaledLayout$ScaledLayoutParams'
p669
sg15
(lp670
sg17
(lp671
sg19
(lp672
sg21
I0
sba(iArchitecture
Entity
p673
(dp674
g11
(lp675
sg13
S'android.media.Cea708CaptionRenderer'
p676
sg15
(lp677
sg17
(lp678
sg19
(lp679
sg21
I0
sba(iArchitecture
Entity
p680
(dp681
g11
(lp682
sg13
S'android.media.Cea708CaptionTrack'
p683
sg15
(lp684
sg17
(lp685
sg19
(lp686
sg21
I0
sba(iArchitecture
Entity
p687
(dp688
g11
(lp689
sg13
S'android.media.ClosedCaptionRenderer'
p690
sg15
(lp691
sg17
(lp692
sg19
(lp693
sg21
I0
sba(iArchitecture
Entity
p694
(dp695
g11
(lp696
sg13
S'android.media.ClosedCaptionWidget'
p697
sg15
(lp698
sg17
(lp699
sg19
(lp700
sg21
I0
sba(iArchitecture
Entity
p701
(dp702
g11
(lp703
sg13
S'android.media.ClosedCaptionWidget$1'
p704
sg15
(lp705
sg17
(lp706
sg19
(lp707
sg21
I0
sba(iArchitecture
Entity
p708
(dp709
g11
(lp710
sg13
S'android.media.ClosedCaptionWidget$ClosedCaptionLayout'
p711
sg15
(lp712
sg17
(lp713
sg19
(lp714
sg21
I0
sba(iArchitecture
Entity
p715
(dp716
g11
(lp717
sg13
S'android.media.DecoderCapabilities'
p718
sg15
(lp719
sg17
(lp720
sg19
(lp721
sg21
I0
sba(iArchitecture
Entity
p722
(dp723
g11
(lp724
sg13
S'android.media.DecoderCapabilities$AudioDecoder'
p725
sg15
(lp726
sg17
(lp727
sg19
(lp728
sg21
I0
sba(iArchitecture
Entity
p729
(dp730
g11
(lp731
sg13
S'android.media.DecoderCapabilities$VideoDecoder'
p732
sg15
(lp733
sg17
(lp734
sg19
(lp735
sg21
I0
sba(iArchitecture
Entity
p736
(dp737
g11
(lp738
sg13
S'android.media.DeniedByServerException'
p739
sg15
(lp740
sg17
(lp741
sg19
(lp742
sg21
I0
sba(iArchitecture
Entity
p743
(dp744
g11
(lp745
sg13
S'android.media.DrmInitData'
p746
sg15
(lp747
sg17
(lp748
sg19
(lp749
sg21
I0
sba(iArchitecture
Entity
p750
(dp751
g11
(lp752
sg13
S'android.media.DrmInitData$SchemeInitData'
p753
sg15
(lp754
sg17
(lp755
sg19
(lp756
sg21
I0
sba(iArchitecture
Entity
p757
(dp758
g11
(lp759
sg13
S'android.media.EncoderCapabilities'
p760
sg15
(lp761
sg17
(lp762
sg19
(lp763
sg21
I0
sba(iArchitecture
Entity
p764
(dp765
g11
(lp766
sg13
S'android.media.EncoderCapabilities$AudioEncoderCap'
p767
sg15
(lp768
sg17
(lp769
sg19
(lp770
sg21
I0
sba(iArchitecture
Entity
p771
(dp772
g11
(lp773
sg13
S'android.media.EncoderCapabilities$VideoEncoderCap'
p774
sg15
(lp775
sg17
(lp776
sg19
(lp777
sg21
I0
sba(iArchitecture
Entity
p778
(dp779
g11
(lp780
sg13
S'android.media.ExifInterface'
p781
sg15
(lp782
sg17
(lp783
sg19
(lp784
sg21
I0
sba(iArchitecture
Entity
p785
(dp786
g11
(lp787
sg13
S'android.media.ExifInterface$ByteOrderAwarenessDataInputStream'
p788
sg15
(lp789
sg17
(lp790
sg19
(lp791
sg21
I0
sba(iArchitecture
Entity
p792
(dp793
g11
(lp794
sg13
S'android.media.ExifInterface$ByteOrderAwarenessDataOutputStream'
p795
sg15
(lp796
sg17
(lp797
sg19
(lp798
sg21
I0
sba(iArchitecture
Entity
p799
(dp800
g11
(lp801
sg13
S'android.media.ExifInterface$ExifAttribute'
p802
sg15
(lp803
sg17
(lp804
sg19
(lp805
sg21
I0
sba(iArchitecture
Entity
p806
(dp807
g11
(lp808
sg13
S'android.media.ExifInterface$ExifTag'
p809
sg15
(lp810
sg17
(lp811
sg19
(lp812
sg21
I0
sba(iArchitecture
Entity
p813
(dp814
g11
(lp815
sg13
S'android.media.ExifInterface$Rational'
p816
sg15
(lp817
sg17
(lp818
sg19
(lp819
sg21
I0
sba(iArchitecture
Entity
p820
(dp821
g11
(lp822
sg13
S'android.media.FaceDetector'
p823
sg15
(lp824
sg17
(lp825
sg19
(lp826
sg21
I0
sba(iArchitecture
Entity
p827
(dp828
g11
(lp829
sg13
S'android.media.FaceDetector$Face'
p830
sg15
(lp831
sg17
(lp832
sg19
(lp833
sg21
I0
sba(iArchitecture
Entity
p834
(dp835
g11
(lp836
sg13
S'android.media.IMediaHTTPConnection'
p837
sg15
(lp838
sg17
(lp839
sg19
(lp840
sg21
I0
sba(iArchitecture
Entity
p841
(dp842
g11
(lp843
sg13
S'android.media.IMediaHTTPConnection$Stub'
p844
sg15
(lp845
sg17
(lp846
sg19
(lp847
sg21
I0
sba(iArchitecture
Entity
p848
(dp849
g11
(lp850
sg13
S'android.media.IMediaHTTPConnection$Stub$Proxy'
p851
sg15
(lp852
sg17
(lp853
sg19
(lp854
sg21
I0
sba(iArchitecture
Entity
p855
(dp856
g11
(lp857
sg13
S'android.media.IMediaHTTPService'
p858
sg15
(lp859
sg17
(lp860
sg19
(lp861
sg21
I0
sba(iArchitecture
Entity
p862
(dp863
g11
(lp864
sg13
S'android.media.IMediaHTTPService$Stub'
p865
sg15
(lp866
sg17
(lp867
sg19
(lp868
sg21
I0
sba(iArchitecture
Entity
p869
(dp870
g11
(lp871
sg13
S'android.media.IMediaHTTPService$Stub$Proxy'
p872
sg15
(lp873
sg17
(lp874
sg19
(lp875
sg21
I0
sba(iArchitecture
Entity
p876
(dp877
g11
(lp878
sg13
S'android.media.IMediaResourceMonitor'
p879
sg15
(lp880
sg17
(lp881
sg19
(lp882
sg21
I0
sba(iArchitecture
Entity
p883
(dp884
g11
(lp885
sg13
S'android.media.IMediaResourceMonitor$Stub'
p886
sg15
(lp887
sg17
(lp888
sg19
(lp889
sg21
I0
sba(iArchitecture
Entity
p890
(dp891
g11
(lp892
sg13
S'android.media.IMediaResourceMonitor$Stub$Proxy'
p893
sg15
(lp894
sg17
(lp895
sg19
(lp896
sg21
I0
sba(iArchitecture
Entity
p897
(dp898
g11
(lp899
sg13
S'android.media.IMediaScannerListener'
p900
sg15
(lp901
sg17
(lp902
sg19
(lp903
sg21
I0
sba(iArchitecture
Entity
p904
(dp905
g11
(lp906
sg13
S'android.media.IMediaScannerListener$Stub'
p907
sg15
(lp908
sg17
(lp909
sg19
(lp910
sg21
I0
sba(iArchitecture
Entity
p911
(dp912
g11
(lp913
sg13
S'android.media.IMediaScannerListener$Stub$Proxy'
p914
sg15
(lp915
sg17
(lp916
sg19
(lp917
sg21
I0
sba(iArchitecture
Entity
p918
(dp919
g11
(lp920
sg13
S'android.media.IMediaScannerService'
p921
sg15
(lp922
sg17
(lp923
sg19
(lp924
sg21
I0
sba(iArchitecture
Entity
p925
(dp926
g11
(lp927
sg13
S'android.media.IMediaScannerService$Stub'
p928
sg15
(lp929
sg17
(lp930
sg19
(lp931
sg21
I0
sba(iArchitecture
Entity
p932
(dp933
g11
(lp934
sg13
S'android.media.IMediaScannerService$Stub$Proxy'
p935
sg15
(lp936
sg17
(lp937
sg19
(lp938
sg21
I0
sba(iArchitecture
Entity
p939
(dp940
g11
(lp941
sg13
S'android.media.IRemoteVolumeObserver'
p942
sg15
(lp943
sg17
(lp944
sg19
(lp945
sg21
I0
sba(iArchitecture
Entity
p946
(dp947
g11
(lp948
sg13
S'android.media.IRemoteVolumeObserver$Stub'
p949
sg15
(lp950
sg17
(lp951
sg19
(lp952
sg21
I0
sba(iArchitecture
Entity
p953
(dp954
g11
(lp955
sg13
S'android.media.IRemoteVolumeObserver$Stub$Proxy'
p956
sg15
(lp957
sg17
(lp958
sg19
(lp959
sg21
I0
sba(iArchitecture
Entity
p960
(dp961
g11
(lp962
sg13
S'android.media.Image'
p963
sg15
(lp964
sg17
(lp965
sg19
(lp966
sg21
I0
sba(iArchitecture
Entity
p967
(dp968
g11
(lp969
sg13
S'android.media.Image$Plane'
p970
sg15
(lp971
sg17
(lp972
sg19
(lp973
sg21
I0
sba(iArchitecture
Entity
p974
(dp975
g11
(lp976
sg13
S'android.media.ImageReader'
p977
sg15
(lp978
sg17
(lp979
sg19
(lp980
sg21
I0
sba(iArchitecture
Entity
p981
(dp982
g11
(lp983
sg13
S'android.media.ImageReader$ListenerHandler'
p984
sg15
(lp985
sg17
(lp986
sg19
(lp987
sg21
I0
sba(iArchitecture
Entity
p988
(dp989
g11
(lp990
sg13
S'android.media.ImageReader$OnImageAvailableListener'
p991
sg15
(lp992
sg17
(lp993
sg19
(lp994
sg21
I0
sba(iArchitecture
Entity
p995
(dp996
g11
(lp997
sg13
S'android.media.ImageReader$SurfaceImage'
p998
sg15
(lp999
sg17
(lp1000
sg19
(lp1001
sg21
I0
sba(iArchitecture
Entity
p1002
(dp1003
g11
(lp1004
sg13
S'android.media.ImageReader$SurfaceImage$SurfacePlane'
p1005
sg15
(lp1006
sg17
(lp1007
sg19
(lp1008
sg21
I0
sba(iArchitecture
Entity
p1009
(dp1010
g11
(lp1011
sg13
S'android.media.ImageUtils'
p1012
sg15
(lp1013
sg17
(lp1014
sg19
(lp1015
sg21
I0
sba(iArchitecture
Entity
p1016
(dp1017
g11
(lp1018
sg13
S'android.media.ImageWriter'
p1019
sg15
(lp1020
sg17
(lp1021
sg19
(lp1022
sg21
I0
sba(iArchitecture
Entity
p1023
(dp1024
g11
(lp1025
sg13
S'android.media.ImageWriter$ListenerHandler'
p1026
sg15
(lp1027
sg17
(lp1028
sg19
(lp1029
sg21
I0
sba(iArchitecture
Entity
p1030
(dp1031
g11
(lp1032
sg13
S'android.media.ImageWriter$OnImageReleasedListener'
p1033
sg15
(lp1034
sg17
(lp1035
sg19
(lp1036
sg21
I0
sba(iArchitecture
Entity
p1037
(dp1038
g11
(lp1039
sg13
S'android.media.ImageWriter$WriterSurfaceImage'
p1040
sg15
(lp1041
sg17
(lp1042
sg19
(lp1043
sg21
I0
sba(iArchitecture
Entity
p1044
(dp1045
g11
(lp1046
sg13
S'android.media.ImageWriter$WriterSurfaceImage$SurfacePlane'
p1047
sg15
(lp1048
sg17
(lp1049
sg19
(lp1050
sg21
I0
sba(iArchitecture
Entity
p1051
(dp1052
g11
(lp1053
sg13
S'android.media.JetPlayer'
p1054
sg15
(lp1055
sg17
(lp1056
sg19
(lp1057
sg21
I0
sba(iArchitecture
Entity
p1058
(dp1059
g11
(lp1060
sg13
S'android.media.JetPlayer$NativeEventHandler'
p1061
sg15
(lp1062
sg17
(lp1063
sg19
(lp1064
sg21
I0
sba(iArchitecture
Entity
p1065
(dp1066
g11
(lp1067
sg13
S'android.media.JetPlayer$OnJetEventListener'
p1068
sg15
(lp1069
sg17
(lp1070
sg19
(lp1071
sg21
I0
sba(iArchitecture
Entity
p1072
(dp1073
g11
(lp1074
sg13
S'android.media.MediaActionSound'
p1075
sg15
(lp1076
sg17
(lp1077
sg19
(lp1078
sg21
I0
sba(iArchitecture
Entity
p1079
(dp1080
g11
(lp1081
sg13
S'android.media.MediaActionSound$1'
p1082
sg15
(lp1083
sg17
(lp1084
sg19
(lp1085
sg21
I0
sba(iArchitecture
Entity
p1086
(dp1087
g11
(lp1088
sg13
S'android.media.MediaActionSound$SoundState'
p1089
sg15
(lp1090
sg17
(lp1091
sg19
(lp1092
sg21
I0
sba(iArchitecture
Entity
p1093
(dp1094
g11
(lp1095
sg13
S'android.media.MediaCodec'
p1096
sg15
(lp1097
sg17
(lp1098
sg19
(lp1099
sg21
I0
sba(iArchitecture
Entity
p1100
(dp1101
g11
(lp1102
sg13
S'android.media.MediaCodec$BufferInfo'
p1103
sg15
(lp1104
sg17
(lp1105
sg19
(lp1106
sg21
I0
sba(iArchitecture
Entity
p1107
(dp1108
g11
(lp1109
sg13
S'android.media.MediaCodec$BufferMap'
p1110
sg15
(lp1111
sg17
(lp1112
sg19
(lp1113
sg21
I0
sba(iArchitecture
Entity
p1114
(dp1115
g11
(lp1116
sg13
S'android.media.MediaCodec$BufferMap$CodecBuffer'
p1117
sg15
(lp1118
sg17
(lp1119
sg19
(lp1120
sg21
I0
sba(iArchitecture
Entity
p1121
(dp1122
g11
(lp1123
sg13
S'android.media.MediaCodec$Callback'
p1124
sg15
(lp1125
sg17
(lp1126
sg19
(lp1127
sg21
I0
sba(iArchitecture
Entity
p1128
(dp1129
g11
(lp1130
sg13
S'android.media.MediaCodec$CodecException'
p1131
sg15
(lp1132
sg17
(lp1133
sg19
(lp1134
sg21
I0
sba(iArchitecture
Entity
p1135
(dp1136
g11
(lp1137
sg13
S'android.media.MediaCodec$CryptoException'
p1138
sg15
(lp1139
sg17
(lp1140
sg19
(lp1141
sg21
I0
sba(iArchitecture
Entity
p1142
(dp1143
g11
(lp1144
sg13
S'android.media.MediaCodec$CryptoInfo'
p1145
sg15
(lp1146
sg17
(lp1147
sg19
(lp1148
sg21
I0
sba(iArchitecture
Entity
p1149
(dp1150
g11
(lp1151
sg13
S'android.media.MediaCodec$CryptoInfo$Pattern'
p1152
sg15
(lp1153
sg17
(lp1154
sg19
(lp1155
sg21
I0
sba(iArchitecture
Entity
p1156
(dp1157
g11
(lp1158
sg13
S'android.media.MediaCodec$EventHandler'
p1159
sg15
(lp1160
sg17
(lp1161
sg19
(lp1162
sg21
I0
sba(iArchitecture
Entity
p1163
(dp1164
g11
(lp1165
sg13
S'android.media.MediaCodec$MediaImage'
p1166
sg15
(lp1167
sg17
(lp1168
sg19
(lp1169
sg21
I0
sba(iArchitecture
Entity
p1170
(dp1171
g11
(lp1172
sg13
S'android.media.MediaCodec$MediaImage$MediaPlane'
p1173
sg15
(lp1174
sg17
(lp1175
sg19
(lp1176
sg21
I0
sba(iArchitecture
Entity
p1177
(dp1178
g11
(lp1179
sg13
S'android.media.MediaCodec$OnFrameRenderedListener'
p1180
sg15
(lp1181
sg17
(lp1182
sg19
(lp1183
sg21
I0
sba(iArchitecture
Entity
p1184
(dp1185
g11
(lp1186
sg13
S'android.media.MediaCodec$PersistentSurface'
p1187
sg15
(lp1188
sg17
(lp1189
sg19
(lp1190
sg21
I0
sba(iArchitecture
Entity
p1191
(dp1192
g11
(lp1193
sg13
S'android.media.MediaCodecInfo'
p1194
sg15
(lp1195
sg17
(lp1196
sg19
(lp1197
sg21
I0
sba(iArchitecture
Entity
p1198
(dp1199
g11
(lp1200
sg13
S'android.media.MediaCodecInfo$AudioCapabilities'
p1201
sg15
(lp1202
sg17
(lp1203
sg19
(lp1204
sg21
I0
sba(iArchitecture
Entity
p1205
(dp1206
g11
(lp1207
sg13
S'android.media.MediaCodecInfo$CodecCapabilities'
p1208
sg15
(lp1209
sg17
(lp1210
sg19
(lp1211
sg21
I0
sba(iArchitecture
Entity
p1212
(dp1213
g11
(lp1214
sg13
S'android.media.MediaCodecInfo$CodecProfileLevel'
p1215
sg15
(lp1216
sg17
(lp1217
sg19
(lp1218
sg21
I0
sba(iArchitecture
Entity
p1219
(dp1220
g11
(lp1221
sg13
S'android.media.MediaCodecInfo$EncoderCapabilities'
p1222
sg15
(lp1223
sg17
(lp1224
sg19
(lp1225
sg21
I0
sba(iArchitecture
Entity
p1226
(dp1227
g11
(lp1228
sg13
S'android.media.MediaCodecInfo$Feature'
p1229
sg15
(lp1230
sg17
(lp1231
sg19
(lp1232
sg21
I0
sba(iArchitecture
Entity
p1233
(dp1234
g11
(lp1235
sg13
S'android.media.MediaCodecInfo$VideoCapabilities'
p1236
sg15
(lp1237
sg17
(lp1238
sg19
(lp1239
sg21
I0
sba(iArchitecture
Entity
p1240
(dp1241
g11
(lp1242
sg13
S'android.media.MediaCodecList'
p1243
sg15
(lp1244
sg17
(lp1245
sg19
(lp1246
sg21
I0
sba(iArchitecture
Entity
p1247
(dp1248
g11
(lp1249
sg13
S'android.media.MediaCrypto'
p1250
sg15
(lp1251
sg17
(lp1252
sg19
(lp1253
sg21
I0
sba(iArchitecture
Entity
p1254
(dp1255
g11
(lp1256
sg13
S'android.media.MediaCryptoException'
p1257
sg15
(lp1258
sg17
(lp1259
sg19
(lp1260
sg21
I0
sba(iArchitecture
Entity
p1261
(dp1262
g11
(lp1263
sg13
S'android.media.MediaDataSource'
p1264
sg15
(lp1265
sg17
(lp1266
sg19
(lp1267
sg21
I0
sba(iArchitecture
Entity
p1268
(dp1269
g11
(lp1270
sg13
S'android.media.MediaDescription'
p1271
sg15
(lp1272
sg17
(lp1273
sg19
(lp1274
sg21
I0
sba(iArchitecture
Entity
p1275
(dp1276
g11
(lp1277
sg13
S'android.media.MediaDescription$1'
p1278
sg15
(lp1279
sg17
(lp1280
sg19
(lp1281
sg21
I0
sba(iArchitecture
Entity
p1282
(dp1283
g11
(lp1284
sg13
S'android.media.MediaDescription$Builder'
p1285
sg15
(lp1286
sg17
(lp1287
sg19
(lp1288
sg21
I0
sba(iArchitecture
Entity
p1289
(dp1290
g11
(lp1291
sg13
S'android.media.MediaDrm'
p1292
sg15
(lp1293
sg17
(lp1294
sg19
(lp1295
sg21
I0
sba(iArchitecture
Entity
p1296
(dp1297
g11
(lp1298
sg13
S'android.media.MediaDrm$Certificate'
p1299
sg15
(lp1300
sg17
(lp1301
sg19
(lp1302
sg21
I0
sba(iArchitecture
Entity
p1303
(dp1304
g11
(lp1305
sg13
S'android.media.MediaDrm$CertificateRequest'
p1306
sg15
(lp1307
sg17
(lp1308
sg19
(lp1309
sg21
I0
sba(iArchitecture
Entity
p1310
(dp1311
g11
(lp1312
sg13
S'android.media.MediaDrm$CryptoSession'
p1313
sg15
(lp1314
sg17
(lp1315
sg19
(lp1316
sg21
I0
sba(iArchitecture
Entity
p1317
(dp1318
g11
(lp1319
sg13
S'android.media.MediaDrm$EventHandler'
p1320
sg15
(lp1321
sg17
(lp1322
sg19
(lp1323
sg21
I0
sba(iArchitecture
Entity
p1324
(dp1325
g11
(lp1326
sg13
S'android.media.MediaDrm$KeyRequest'
p1327
sg15
(lp1328
sg17
(lp1329
sg19
(lp1330
sg21
I0
sba(iArchitecture
Entity
p1331
(dp1332
g11
(lp1333
sg13
S'android.media.MediaDrm$KeyStatus'
p1334
sg15
(lp1335
sg17
(lp1336
sg19
(lp1337
sg21
I0
sba(iArchitecture
Entity
p1338
(dp1339
g11
(lp1340
sg13
S'android.media.MediaDrm$MediaDrmStateException'
p1341
sg15
(lp1342
sg17
(lp1343
sg19
(lp1344
sg21
I0
sba(iArchitecture
Entity
p1345
(dp1346
g11
(lp1347
sg13
S'android.media.MediaDrm$OnEventListener'
p1348
sg15
(lp1349
sg17
(lp1350
sg19
(lp1351
sg21
I0
sba(iArchitecture
Entity
p1352
(dp1353
g11
(lp1354
sg13
S'android.media.MediaDrm$OnExpirationUpdateListener'
p1355
sg15
(lp1356
sg17
(lp1357
sg19
(lp1358
sg21
I0
sba(iArchitecture
Entity
p1359
(dp1360
g11
(lp1361
sg13
S'android.media.MediaDrm$OnKeyStatusChangeListener'
p1362
sg15
(lp1363
sg17
(lp1364
sg19
(lp1365
sg21
I0
sba(iArchitecture
Entity
p1366
(dp1367
g11
(lp1368
sg13
S'android.media.MediaDrm$ProvisionRequest'
p1369
sg15
(lp1370
sg17
(lp1371
sg19
(lp1372
sg21
I0
sba(iArchitecture
Entity
p1373
(dp1374
g11
(lp1375
sg13
S'android.media.MediaDrmException'
p1376
sg15
(lp1377
sg17
(lp1378
sg19
(lp1379
sg21
I0
sba(iArchitecture
Entity
p1380
(dp1381
g11
(lp1382
sg13
S'android.media.MediaExtractor'
p1383
sg15
(lp1384
sg17
(lp1385
sg19
(lp1386
sg21
I0
sba(iArchitecture
Entity
p1387
(dp1388
g11
(lp1389
sg13
S'android.media.MediaExtractor$1'
p1390
sg15
(lp1391
sg17
(lp1392
sg19
(lp1393
sg21
I0
sba(iArchitecture
Entity
p1394
(dp1395
g11
(lp1396
sg13
S'android.media.MediaExtractor$2'
p1397
sg15
(lp1398
sg17
(lp1399
sg19
(lp1400
sg21
I0
sba(iArchitecture
Entity
p1401
(dp1402
g11
(lp1403
sg13
S'android.media.MediaFile'
p1404
sg15
(lp1405
sg17
(lp1406
sg19
(lp1407
sg21
I0
sba(iArchitecture
Entity
p1408
(dp1409
g11
(lp1410
sg13
S'android.media.MediaFile$MediaFileType'
p1411
sg15
(lp1412
sg17
(lp1413
sg19
(lp1414
sg21
I0
sba(iArchitecture
Entity
p1415
(dp1416
g11
(lp1417
sg13
S'android.media.MediaFormat'
p1418
sg15
(lp1419
sg17
(lp1420
sg19
(lp1421
sg21
I0
sba(iArchitecture
Entity
p1422
(dp1423
g11
(lp1424
sg13
S'android.media.MediaHTTPConnection'
p1425
sg15
(lp1426
sg17
(lp1427
sg19
(lp1428
sg21
I0
sba(iArchitecture
Entity
p1429
(dp1430
g11
(lp1431
sg13
S'android.media.MediaHTTPService'
p1432
sg15
(lp1433
sg17
(lp1434
sg19
(lp1435
sg21
I0
sba(iArchitecture
Entity
p1436
(dp1437
g11
(lp1438
sg13
S'android.media.MediaInserter'
p1439
sg15
(lp1440
sg17
(lp1441
sg19
(lp1442
sg21
I0
sba(iArchitecture
Entity
p1443
(dp1444
g11
(lp1445
sg13
S'android.media.MediaMetadata'
p1446
sg15
(lp1447
sg17
(lp1448
sg19
(lp1449
sg21
I0
sba(iArchitecture
Entity
p1450
(dp1451
g11
(lp1452
sg13
S'android.media.MediaMetadata$1'
p1453
sg15
(lp1454
sg17
(lp1455
sg19
(lp1456
sg21
I0
sba(iArchitecture
Entity
p1457
(dp1458
g11
(lp1459
sg13
S'android.media.MediaMetadata$Builder'
p1460
sg15
(lp1461
sg17
(lp1462
sg19
(lp1463
sg21
I0
sba(iArchitecture
Entity
p1464
(dp1465
g11
(lp1466
sg13
S'android.media.MediaMetadataEditor'
p1467
sg15
(lp1468
sg17
(lp1469
sg19
(lp1470
sg21
I0
sba(iArchitecture
Entity
p1471
(dp1472
g11
(lp1473
sg13
S'android.media.MediaMetadataRetriever'
p1474
sg15
(lp1475
sg17
(lp1476
sg19
(lp1477
sg21
I0
sba(iArchitecture
Entity
p1478
(dp1479
g11
(lp1480
sg13
S'android.media.MediaMuxer'
p1481
sg15
(lp1482
sg17
(lp1483
sg19
(lp1484
sg21
I0
sba(iArchitecture
Entity
p1485
(dp1486
g11
(lp1487
sg13
S'android.media.MediaMuxer$OutputFormat'
p1488
sg15
(lp1489
sg17
(lp1490
sg19
(lp1491
sg21
I0
sba(iArchitecture
Entity
p1492
(dp1493
g11
(lp1494
sg13
S'android.media.MediaPlayer'
p1495
sg15
(lp1496
sg17
(lp1497
sg19
(lp1498
sg21
I0
sba(iArchitecture
Entity
p1499
(dp1500
g11
(lp1501
sg13
S'android.media.MediaPlayer$1'
p1502
sg15
(lp1503
sg17
(lp1504
sg19
(lp1505
sg21
I0
sba(iArchitecture
Entity
p1506
(dp1507
g11
(lp1508
sg13
S'android.media.MediaPlayer$2'
p1509
sg15
(lp1510
sg17
(lp1511
sg19
(lp1512
sg21
I0
sba(iArchitecture
Entity
p1513
(dp1514
g11
(lp1515
sg13
S'android.media.MediaPlayer$2$1'
p1516
sg15
(lp1517
sg17
(lp1518
sg19
(lp1519
sg21
I0
sba(iArchitecture
Entity
p1520
(dp1521
g11
(lp1522
sg13
S'android.media.MediaPlayer$3'
p1523
sg15
(lp1524
sg17
(lp1525
sg19
(lp1526
sg21
I0
sba(iArchitecture
Entity
p1527
(dp1528
g11
(lp1529
sg13
S'android.media.MediaPlayer$4'
p1530
sg15
(lp1531
sg17
(lp1532
sg19
(lp1533
sg21
I0
sba(iArchitecture
Entity
p1534
(dp1535
g11
(lp1536
sg13
S'android.media.MediaPlayer$EventHandler'
p1537
sg15
(lp1538
sg17
(lp1539
sg19
(lp1540
sg21
I0
sba(iArchitecture
Entity
p1541
(dp1542
g11
(lp1543
sg13
S'android.media.MediaPlayer$OnBufferingUpdateListener'
p1544
sg15
(lp1545
sg17
(lp1546
sg19
(lp1547
sg21
I0
sba(iArchitecture
Entity
p1548
(dp1549
g11
(lp1550
sg13
S'android.media.MediaPlayer$OnErrorListener'
p1551
sg15
(lp1552
sg17
(lp1553
sg19
(lp1554
sg21
I0
sba(iArchitecture
Entity
p1555
(dp1556
g11
(lp1557
sg13
S'android.media.MediaPlayer$OnInfoListener'
p1558
sg15
(lp1559
sg17
(lp1560
sg19
(lp1561
sg21
I0
sba(iArchitecture
Entity
p1562
(dp1563
g11
(lp1564
sg13
S'android.media.MediaPlayer$OnSeekCompleteListener'
p1565
sg15
(lp1566
sg17
(lp1567
sg19
(lp1568
sg21
I0
sba(iArchitecture
Entity
p1569
(dp1570
g11
(lp1571
sg13
S'android.media.MediaPlayer$OnSubtitleDataListener'
p1572
sg15
(lp1573
sg17
(lp1574
sg19
(lp1575
sg21
I0
sba(iArchitecture
Entity
p1576
(dp1577
g11
(lp1578
sg13
S'android.media.MediaPlayer$OnTimedMetaDataAvailableListener'
p1579
sg15
(lp1580
sg17
(lp1581
sg19
(lp1582
sg21
I0
sba(iArchitecture
Entity
p1583
(dp1584
g11
(lp1585
sg13
S'android.media.MediaPlayer$OnTimedTextListener'
p1586
sg15
(lp1587
sg17
(lp1588
sg19
(lp1589
sg21
I0
sba(iArchitecture
Entity
p1590
(dp1591
g11
(lp1592
sg13
S'android.media.MediaPlayer$TimeProvider'
p1593
sg15
(lp1594
sg17
(lp1595
sg19
(lp1596
sg21
I0
sba(iArchitecture
Entity
p1597
(dp1598
g11
(lp1599
sg13
S'android.media.MediaPlayer$TimeProvider$EventHandler'
p1600
sg15
(lp1601
sg17
(lp1602
sg19
(lp1603
sg21
I0
sba(iArchitecture
Entity
p1604
(dp1605
g11
(lp1606
sg13
S'android.media.MediaPlayer$TrackInfo'
p1607
sg15
(lp1608
sg17
(lp1609
sg19
(lp1610
sg21
I0
sba(iArchitecture
Entity
p1611
(dp1612
g11
(lp1613
sg13
S'android.media.MediaPlayer$TrackInfo$1'
p1614
sg15
(lp1615
sg17
(lp1616
sg19
(lp1617
sg21
I0
sba(iArchitecture
Entity
p1618
(dp1619
g11
(lp1620
sg13
S'android.media.MediaRecorder'
p1621
sg15
(lp1622
sg17
(lp1623
sg19
(lp1624
sg21
I0
sba(iArchitecture
Entity
p1625
(dp1626
g11
(lp1627
sg13
S'android.media.MediaRecorder$AudioEncoder'
p1628
sg15
(lp1629
sg17
(lp1630
sg19
(lp1631
sg21
I0
sba(iArchitecture
Entity
p1632
(dp1633
g11
(lp1634
sg13
S'android.media.MediaRecorder$AudioSource'
p1635
sg15
(lp1636
sg17
(lp1637
sg19
(lp1638
sg21
I0
sba(iArchitecture
Entity
p1639
(dp1640
g11
(lp1641
sg13
S'android.media.MediaRecorder$EventHandler'
p1642
sg15
(lp1643
sg17
(lp1644
sg19
(lp1645
sg21
I0
sba(iArchitecture
Entity
p1646
(dp1647
g11
(lp1648
sg13
S'android.media.MediaRecorder$OnErrorListener'
p1649
sg15
(lp1650
sg17
(lp1651
sg19
(lp1652
sg21
I0
sba(iArchitecture
Entity
p1653
(dp1654
g11
(lp1655
sg13
S'android.media.MediaRecorder$OnInfoListener'
p1656
sg15
(lp1657
sg17
(lp1658
sg19
(lp1659
sg21
I0
sba(iArchitecture
Entity
p1660
(dp1661
g11
(lp1662
sg13
S'android.media.MediaRecorder$OutputFormat'
p1663
sg15
(lp1664
sg17
(lp1665
sg19
(lp1666
sg21
I0
sba(iArchitecture
Entity
p1667
(dp1668
g11
(lp1669
sg13
S'android.media.MediaRecorder$VideoEncoder'
p1670
sg15
(lp1671
sg17
(lp1672
sg19
(lp1673
sg21
I0
sba(iArchitecture
Entity
p1674
(dp1675
g11
(lp1676
sg13
S'android.media.MediaRecorder$VideoSource'
p1677
sg15
(lp1678
sg17
(lp1679
sg19
(lp1680
sg21
I0
sba(iArchitecture
Entity
p1681
(dp1682
g11
(lp1683
sg13
S'android.media.MediaRouter'
p1684
sg15
(lp1685
sg17
(lp1686
sg19
(lp1687
sg21
I0
sba(iArchitecture
Entity
p1688
(dp1689
g11
(lp1690
sg13
S'android.media.MediaRouter$CallbackInfo'
p1691
sg15
(lp1692
sg17
(lp1693
sg19
(lp1694
sg21
I0
sba(iArchitecture
Entity
p1695
(dp1696
g11
(lp1697
sg13
S'android.media.MediaRouter$UserRouteInfo'
p1698
sg15
(lp1699
sg17
(lp1700
sg19
(lp1701
sg21
I0
sba(iArchitecture
Entity
p1702
(dp1703
g11
(lp1704
sg13
S'android.media.MediaRouter$UserRouteInfo$SessionVolumeProvider'
p1705
sg15
(lp1706
sg17
(lp1707
sg19
(lp1708
sg21
I0
sba(iArchitecture
Entity
p1709
(dp1710
g11
(lp1711
sg13
S'android.media.MediaRouter$UserRouteInfo$SessionVolumeProvider$1'
p1712
sg15
(lp1713
sg17
(lp1714
sg19
(lp1715
sg21
I0
sba(iArchitecture
Entity
p1716
(dp1717
g11
(lp1718
sg13
S'android.media.MediaRouter$UserRouteInfo$SessionVolumeProvider$2'
p1719
sg15
(lp1720
sg17
(lp1721
sg19
(lp1722
sg21
I0
sba(iArchitecture
Entity
p1723
(dp1724
g11
(lp1725
sg13
S'android.media.MediaRouter$VolumeCallback'
p1726
sg15
(lp1727
sg17
(lp1728
sg19
(lp1729
sg21
I0
sba(iArchitecture
Entity
p1730
(dp1731
g11
(lp1732
sg13
S'android.media.MediaRouter$VolumeCallbackInfo'
p1733
sg15
(lp1734
sg17
(lp1735
sg19
(lp1736
sg21
I0
sba(iArchitecture
Entity
p1737
(dp1738
g11
(lp1739
sg13
S'android.media.MediaRouterClientState'
p1740
sg15
(lp1741
sg17
(lp1742
sg19
(lp1743
sg21
I0
sba(iArchitecture
Entity
p1744
(dp1745
g11
(lp1746
sg13
S'android.media.MediaRouterClientState$1'
p1747
sg15
(lp1748
sg17
(lp1749
sg19
(lp1750
sg21
I0
sba(iArchitecture
Entity
p1751
(dp1752
g11
(lp1753
sg13
S'android.media.MediaScanner'
p1754
sg15
(lp1755
sg17
(lp1756
sg19
(lp1757
sg21
I0
sba(iArchitecture
Entity
p1758
(dp1759
g11
(lp1760
sg13
S'android.media.MediaScanner$FileEntry'
p1761
sg15
(lp1762
sg17
(lp1763
sg19
(lp1764
sg21
I0
sba(iArchitecture
Entity
p1765
(dp1766
g11
(lp1767
sg13
S'android.media.MediaScanner$MediaBulkDeleter'
p1768
sg15
(lp1769
sg17
(lp1770
sg19
(lp1771
sg21
I0
sba(iArchitecture
Entity
p1772
(dp1773
g11
(lp1774
sg13
S'android.media.MediaScanner$MyMediaScannerClient'
p1775
sg15
(lp1776
sg17
(lp1777
sg19
(lp1778
sg21
I0
sba(iArchitecture
Entity
p1779
(dp1780
g11
(lp1781
sg13
S'android.media.MediaScanner$PlaylistEntry'
p1782
sg15
(lp1783
sg17
(lp1784
sg19
(lp1785
sg21
I0
sba(iArchitecture
Entity
p1786
(dp1787
g11
(lp1788
sg13
S'android.media.MediaScanner$WplHandler'
p1789
sg15
(lp1790
sg17
(lp1791
sg19
(lp1792
sg21
I0
sba(iArchitecture
Entity
p1793
(dp1794
g11
(lp1795
sg13
S'android.media.MediaScannerClient'
p1796
sg15
(lp1797
sg17
(lp1798
sg19
(lp1799
sg21
I0
sba(iArchitecture
Entity
p1800
(dp1801
g11
(lp1802
sg13
S'android.media.MediaScannerConnection'
p1803
sg15
(lp1804
sg17
(lp1805
sg19
(lp1806
sg21
I0
sba(iArchitecture
Entity
p1807
(dp1808
g11
(lp1809
sg13
S'android.media.MediaScannerConnection$1'
p1810
sg15
(lp1811
sg17
(lp1812
sg19
(lp1813
sg21
I0
sba(iArchitecture
Entity
p1814
(dp1815
g11
(lp1816
sg13
S'android.media.MediaScannerConnection$ClientProxy'
p1817
sg15
(lp1818
sg17
(lp1819
sg19
(lp1820
sg21
I0
sba(iArchitecture
Entity
p1821
(dp1822
g11
(lp1823
sg13
S'android.media.MediaScannerConnection$MediaScannerConnectionClient'
p1824
sg15
(lp1825
sg17
(lp1826
sg19
(lp1827
sg21
I0
sba(iArchitecture
Entity
p1828
(dp1829
g11
(lp1830
sg13
S'android.media.MediaScannerConnection$OnScanCompletedListener'
p1831
sg15
(lp1832
sg17
(lp1833
sg19
(lp1834
sg21
I0
sba(iArchitecture
Entity
p1835
(dp1836
g11
(lp1837
sg13
S'android.media.MediaSync'
p1838
sg15
(lp1839
sg17
(lp1840
sg19
(lp1841
sg21
I0
sba(iArchitecture
Entity
p1842
(dp1843
g11
(lp1844
sg13
S'android.media.MediaSync$1'
p1845
sg15
(lp1846
sg17
(lp1847
sg19
(lp1848
sg21
I0
sba(iArchitecture
Entity
p1849
(dp1850
g11
(lp1851
sg13
S'android.media.MediaSync$2'
p1852
sg15
(lp1853
sg17
(lp1854
sg19
(lp1855
sg21
I0
sba(iArchitecture
Entity
p1856
(dp1857
g11
(lp1858
sg13
S'android.media.MediaSync$3'
p1859
sg15
(lp1860
sg17
(lp1861
sg19
(lp1862
sg21
I0
sba(iArchitecture
Entity
p1863
(dp1864
g11
(lp1865
sg13
S'android.media.MediaSync$AudioBuffer'
p1866
sg15
(lp1867
sg17
(lp1868
sg19
(lp1869
sg21
I0
sba(iArchitecture
Entity
p1870
(dp1871
g11
(lp1872
sg13
S'android.media.MediaSync$Callback'
p1873
sg15
(lp1874
sg17
(lp1875
sg19
(lp1876
sg21
I0
sba(iArchitecture
Entity
p1877
(dp1878
g11
(lp1879
sg13
S'android.media.MediaSync$OnErrorListener'
p1880
sg15
(lp1881
sg17
(lp1882
sg19
(lp1883
sg21
I0
sba(iArchitecture
Entity
p1884
(dp1885
g11
(lp1886
sg13
S'android.media.MediaSyncEvent'
p1887
sg15
(lp1888
sg17
(lp1889
sg19
(lp1890
sg21
I0
sba(iArchitecture
Entity
p1891
(dp1892
g11
(lp1893
sg13
S'android.media.MediaTimeProvider'
p1894
sg15
(lp1895
sg17
(lp1896
sg19
(lp1897
sg21
I0
sba(iArchitecture
Entity
p1898
(dp1899
g11
(lp1900
sg13
S'android.media.MediaTimeProvider$OnMediaTimeListener'
p1901
sg15
(lp1902
sg17
(lp1903
sg19
(lp1904
sg21
I0
sba(iArchitecture
Entity
p1905
(dp1906
g11
(lp1907
sg13
S'android.media.MediaTimestamp'
p1908
sg15
(lp1909
sg17
(lp1910
sg19
(lp1911
sg21
I0
sba(iArchitecture
Entity
p1912
(dp1913
g11
(lp1914
sg13
S'android.media.MiniThumbFile'
p1915
sg15
(lp1916
sg17
(lp1917
sg19
(lp1918
sg21
I0
sba(iArchitecture
Entity
p1919
(dp1920
g11
(lp1921
sg13
S'android.media.NotProvisionedException'
p1922
sg15
(lp1923
sg17
(lp1924
sg19
(lp1925
sg21
I0
sba(iArchitecture
Entity
p1926
(dp1927
g11
(lp1928
sg13
S'android.media.PlaybackParams'
p1929
sg15
(lp1930
sg17
(lp1931
sg19
(lp1932
sg21
I0
sba(iArchitecture
Entity
p1933
(dp1934
g11
(lp1935
sg13
S'android.media.PlaybackParams$1'
p1936
sg15
(lp1937
sg17
(lp1938
sg19
(lp1939
sg21
I0
sba(iArchitecture
Entity
p1940
(dp1941
g11
(lp1942
sg13
S'android.media.PlayerBase'
p1943
sg15
(lp1944
sg17
(lp1945
sg19
(lp1946
sg21
I0
sba(iArchitecture
Entity
p1947
(dp1948
g11
(lp1949
sg13
S'android.media.PlayerBase$1'
p1950
sg15
(lp1951
sg17
(lp1952
sg19
(lp1953
sg21
I0
sba(iArchitecture
Entity
p1954
(dp1955
g11
(lp1956
sg13
S'android.media.Rating'
p1957
sg15
(lp1958
sg17
(lp1959
sg19
(lp1960
sg21
I0
sba(iArchitecture
Entity
p1961
(dp1962
g11
(lp1963
sg13
S'android.media.Rating$1'
p1964
sg15
(lp1965
sg17
(lp1966
sg19
(lp1967
sg21
I0
sba(iArchitecture
Entity
p1968
(dp1969
g11
(lp1970
sg13
S'android.media.RemoteControlClient'
p1971
sg15
(lp1972
sg17
(lp1973
sg19
(lp1974
sg21
I0
sba(iArchitecture
Entity
p1975
(dp1976
g11
(lp1977
sg13
S'android.media.RemoteControlClient$1'
p1978
sg15
(lp1979
sg17
(lp1980
sg19
(lp1981
sg21
I0
sba(iArchitecture
Entity
p1982
(dp1983
g11
(lp1984
sg13
S'android.media.RemoteControlClient$MetadataEditor'
p1985
sg15
(lp1986
sg17
(lp1987
sg19
(lp1988
sg21
I0
sba(iArchitecture
Entity
p1989
(dp1990
g11
(lp1991
sg13
S'android.media.RemoteControlClient$OnGetPlaybackPositionListener'
p1992
sg15
(lp1993
sg17
(lp1994
sg19
(lp1995
sg21
I0
sba(iArchitecture
Entity
p1996
(dp1997
g11
(lp1998
sg13
S'android.media.RemoteControlClient$OnMetadataUpdateListener'
p1999
sg15
(lp2000
sg17
(lp2001
sg19
(lp2002
sg21
I0
sba(iArchitecture
Entity
p2003
(dp2004
g11
(lp2005
sg13
S'android.media.RemoteControlClient$OnPlaybackPositionUpdateListener'
p2006
sg15
(lp2007
sg17
(lp2008
sg19
(lp2009
sg21
I0
sba(iArchitecture
Entity
p2010
(dp2011
g11
(lp2012
sg13
S'android.media.RemoteController'
p2013
sg15
(lp2014
sg17
(lp2015
sg19
(lp2016
sg21
I0
sba(iArchitecture
Entity
p2017
(dp2018
g11
(lp2019
sg13
S'android.media.RemoteController$EventHandler'
p2020
sg15
(lp2021
sg17
(lp2022
sg19
(lp2023
sg21
I0
sba(iArchitecture
Entity
p2024
(dp2025
g11
(lp2026
sg13
S'android.media.RemoteController$MediaControllerCallback'
p2027
sg15
(lp2028
sg17
(lp2029
sg19
(lp2030
sg21
I0
sba(iArchitecture
Entity
p2031
(dp2032
g11
(lp2033
sg13
S'android.media.RemoteController$MetadataEditor'
p2034
sg15
(lp2035
sg17
(lp2036
sg19
(lp2037
sg21
I0
sba(iArchitecture
Entity
p2038
(dp2039
g11
(lp2040
sg13
S'android.media.RemoteController$OnClientUpdateListener'
p2041
sg15
(lp2042
sg17
(lp2043
sg19
(lp2044
sg21
I0
sba(iArchitecture
Entity
p2045
(dp2046
g11
(lp2047
sg13
S'android.media.RemoteController$PlaybackInfo'
p2048
sg15
(lp2049
sg17
(lp2050
sg19
(lp2051
sg21
I0
sba(iArchitecture
Entity
p2052
(dp2053
g11
(lp2054
sg13
S'android.media.RemoteController$TopTransportSessionListener'
p2055
sg15
(lp2056
sg17
(lp2057
sg19
(lp2058
sg21
I0
sba(iArchitecture
Entity
p2059
(dp2060
g11
(lp2061
sg13
S'android.media.RemoteDisplay'
p2062
sg15
(lp2063
sg17
(lp2064
sg19
(lp2065
sg21
I0
sba(iArchitecture
Entity
p2066
(dp2067
g11
(lp2068
sg13
S'android.media.RemoteDisplay$1'
p2069
sg15
(lp2070
sg17
(lp2071
sg19
(lp2072
sg21
I0
sba(iArchitecture
Entity
p2073
(dp2074
g11
(lp2075
sg13
S'android.media.RemoteDisplay$2'
p2076
sg15
(lp2077
sg17
(lp2078
sg19
(lp2079
sg21
I0
sba(iArchitecture
Entity
p2080
(dp2081
g11
(lp2082
sg13
S'android.media.RemoteDisplay$3'
p2083
sg15
(lp2084
sg17
(lp2085
sg19
(lp2086
sg21
I0
sba(iArchitecture
Entity
p2087
(dp2088
g11
(lp2089
sg13
S'android.media.RemoteDisplay$Listener'
p2090
sg15
(lp2091
sg17
(lp2092
sg19
(lp2093
sg21
I0
sba(iArchitecture
Entity
p2094
(dp2095
g11
(lp2096
sg13
S'android.media.RemoteDisplayState'
p2097
sg15
(lp2098
sg17
(lp2099
sg19
(lp2100
sg21
I0
sba(iArchitecture
Entity
p2101
(dp2102
g11
(lp2103
sg13
S'android.media.RemoteDisplayState$1'
p2104
sg15
(lp2105
sg17
(lp2106
sg19
(lp2107
sg21
I0
sba(iArchitecture
Entity
p2108
(dp2109
g11
(lp2110
sg13
S'android.media.ResourceBusyException'
p2111
sg15
(lp2112
sg17
(lp2113
sg19
(lp2114
sg21
I0
sba(iArchitecture
Entity
p2115
(dp2116
g11
(lp2117
sg13
S'android.media.Ringtone'
p2118
sg15
(lp2119
sg17
(lp2120
sg19
(lp2121
sg21
I0
sba(iArchitecture
Entity
p2122
(dp2123
g11
(lp2124
sg13
S'android.media.Ringtone$MyOnCompletionListener'
p2125
sg15
(lp2126
sg17
(lp2127
sg19
(lp2128
sg21
I0
sba(iArchitecture
Entity
p2129
(dp2130
g11
(lp2131
sg13
S'android.media.SRTRenderer'
p2132
sg15
(lp2133
sg17
(lp2134
sg19
(lp2135
sg21
I0
sba(iArchitecture
Entity
p2136
(dp2137
g11
(lp2138
sg13
S'android.media.SRTTrack'
p2139
sg15
(lp2140
sg17
(lp2141
sg19
(lp2142
sg21
I0
sba(iArchitecture
Entity
p2143
(dp2144
g11
(lp2145
sg13
S'android.media.SoundPool'
p2146
sg15
(lp2147
sg17
(lp2148
sg19
(lp2149
sg21
I0
sba(iArchitecture
Entity
p2150
(dp2151
g11
(lp2152
sg13
S'android.media.SoundPool$1'
p2153
sg15
(lp2154
sg17
(lp2155
sg19
(lp2156
sg21
I0
sba(iArchitecture
Entity
p2157
(dp2158
g11
(lp2159
sg13
S'android.media.SoundPool$EventHandler'
p2160
sg15
(lp2161
sg17
(lp2162
sg19
(lp2163
sg21
I0
sba(iArchitecture
Entity
p2164
(dp2165
g11
(lp2166
sg13
S'android.media.SubtitleController'
p2167
sg15
(lp2168
sg17
(lp2169
sg19
(lp2170
sg21
I0
sba(iArchitecture
Entity
p2171
(dp2172
g11
(lp2173
sg13
S'android.media.SubtitleController$1'
p2174
sg15
(lp2175
sg17
(lp2176
sg19
(lp2177
sg21
I0
sba(iArchitecture
Entity
p2178
(dp2179
g11
(lp2180
sg13
S'android.media.SubtitleController$2'
p2181
sg15
(lp2182
sg17
(lp2183
sg19
(lp2184
sg21
I0
sba(iArchitecture
Entity
p2185
(dp2186
g11
(lp2187
sg13
S'android.media.SubtitleController$Anchor'
p2188
sg15
(lp2189
sg17
(lp2190
sg19
(lp2191
sg21
I0
sba(iArchitecture
Entity
p2192
(dp2193
g11
(lp2194
sg13
S'android.media.SubtitleController$Listener'
p2195
sg15
(lp2196
sg17
(lp2197
sg19
(lp2198
sg21
I0
sba(iArchitecture
Entity
p2199
(dp2200
g11
(lp2201
sg13
S'android.media.SubtitleData'
p2202
sg15
(lp2203
sg17
(lp2204
sg19
(lp2205
sg21
I0
sba(iArchitecture
Entity
p2206
(dp2207
g11
(lp2208
sg13
S'android.media.SubtitleTrack'
p2209
sg15
(lp2210
sg17
(lp2211
sg19
(lp2212
sg21
I0
sba(iArchitecture
Entity
p2213
(dp2214
g11
(lp2215
sg13
S'android.media.SubtitleTrack$1'
p2216
sg15
(lp2217
sg17
(lp2218
sg19
(lp2219
sg21
I0
sba(iArchitecture
Entity
p2220
(dp2221
g11
(lp2222
sg13
S'android.media.SubtitleTrack$Cue'
p2223
sg15
(lp2224
sg17
(lp2225
sg19
(lp2226
sg21
I0
sba(iArchitecture
Entity
p2227
(dp2228
g11
(lp2229
sg13
S'android.media.SubtitleTrack$CueList'
p2230
sg15
(lp2231
sg17
(lp2232
sg19
(lp2233
sg21
I0
sba(iArchitecture
Entity
p2234
(dp2235
g11
(lp2236
sg13
S'android.media.SubtitleTrack$CueList$1'
p2237
sg15
(lp2238
sg17
(lp2239
sg19
(lp2240
sg21
I0
sba(iArchitecture
Entity
p2241
(dp2242
g11
(lp2243
sg13
S'android.media.SubtitleTrack$CueList$EntryIterator'
p2244
sg15
(lp2245
sg17
(lp2246
sg19
(lp2247
sg21
I0
sba(iArchitecture
Entity
p2248
(dp2249
g11
(lp2250
sg13
S'android.media.SubtitleTrack$Run'
p2251
sg15
(lp2252
sg17
(lp2253
sg19
(lp2254
sg21
I0
sba(iArchitecture
Entity
p2255
(dp2256
g11
(lp2257
sg13
S'android.media.SyncParams'
p2258
sg15
(lp2259
sg17
(lp2260
sg19
(lp2261
sg21
I0
sba(iArchitecture
Entity
p2262
(dp2263
g11
(lp2264
sg13
S'android.media.TextTrackCue'
p2265
sg15
(lp2266
sg17
(lp2267
sg19
(lp2268
sg21
I0
sba(iArchitecture
Entity
p2269
(dp2270
g11
(lp2271
sg13
S'android.media.TextTrackCueSpan'
p2272
sg15
(lp2273
sg17
(lp2274
sg19
(lp2275
sg21
I0
sba(iArchitecture
Entity
p2276
(dp2277
g11
(lp2278
sg13
S'android.media.TextTrackRegion'
p2279
sg15
(lp2280
sg17
(lp2281
sg19
(lp2282
sg21
I0
sba(iArchitecture
Entity
p2283
(dp2284
g11
(lp2285
sg13
S'android.media.ThumbnailUtils'
p2286
sg15
(lp2287
sg17
(lp2288
sg19
(lp2289
sg21
I0
sba(iArchitecture
Entity
p2290
(dp2291
g11
(lp2292
sg13
S'android.media.ThumbnailUtils$SizedThumbnailBitmap'
p2293
sg15
(lp2294
sg17
(lp2295
sg19
(lp2296
sg21
I0
sba(iArchitecture
Entity
p2297
(dp2298
g11
(lp2299
sg13
S'android.media.TimedMetaData'
p2300
sg15
(lp2301
sg17
(lp2302
sg19
(lp2303
sg21
I0
sba(iArchitecture
Entity
p2304
(dp2305
g11
(lp2306
sg13
S'android.media.TimedText'
p2307
sg15
(lp2308
sg17
(lp2309
sg19
(lp2310
sg21
I0
sba(iArchitecture
Entity
p2311
(dp2312
g11
(lp2313
sg13
S'android.media.TimedText$CharPos'
p2314
sg15
(lp2315
sg17
(lp2316
sg19
(lp2317
sg21
I0
sba(iArchitecture
Entity
p2318
(dp2319
g11
(lp2320
sg13
S'android.media.TimedText$Font'
p2321
sg15
(lp2322
sg17
(lp2323
sg19
(lp2324
sg21
I0
sba(iArchitecture
Entity
p2325
(dp2326
g11
(lp2327
sg13
S'android.media.TimedText$HyperText'
p2328
sg15
(lp2329
sg17
(lp2330
sg19
(lp2331
sg21
I0
sba(iArchitecture
Entity
p2332
(dp2333
g11
(lp2334
sg13
S'android.media.TimedText$Justification'
p2335
sg15
(lp2336
sg17
(lp2337
sg19
(lp2338
sg21
I0
sba(iArchitecture
Entity
p2339
(dp2340
g11
(lp2341
sg13
S'android.media.TimedText$Karaoke'
p2342
sg15
(lp2343
sg17
(lp2344
sg19
(lp2345
sg21
I0
sba(iArchitecture
Entity
p2346
(dp2347
g11
(lp2348
sg13
S'android.media.TimedText$Style'
p2349
sg15
(lp2350
sg17
(lp2351
sg19
(lp2352
sg21
I0
sba(iArchitecture
Entity
p2353
(dp2354
g11
(lp2355
sg13
S'android.media.Tokenizer'
p2356
sg15
(lp2357
sg17
(lp2358
sg19
(lp2359
sg21
I0
sba(iArchitecture
Entity
p2360
(dp2361
g11
(lp2362
sg13
S'android.media.Tokenizer$DataTokenizer'
p2363
sg15
(lp2364
sg17
(lp2365
sg19
(lp2366
sg21
I0
sba(iArchitecture
Entity
p2367
(dp2368
g11
(lp2369
sg13
S'android.media.Tokenizer$OnTokenListener'
p2370
sg15
(lp2371
sg17
(lp2372
sg19
(lp2373
sg21
I0
sba(iArchitecture
Entity
p2374
(dp2375
g11
(lp2376
sg13
S'android.media.Tokenizer$TagTokenizer'
p2377
sg15
(lp2378
sg17
(lp2379
sg19
(lp2380
sg21
I0
sba(iArchitecture
Entity
p2381
(dp2382
g11
(lp2383
sg13
S'android.media.Tokenizer$TokenizerPhase'
p2384
sg15
(lp2385
sg17
(lp2386
sg19
(lp2387
sg21
I0
sba(iArchitecture
Entity
p2388
(dp2389
g11
(lp2390
sg13
S'android.media.TtmlCue'
p2391
sg15
(lp2392
sg17
(lp2393
sg19
(lp2394
sg21
I0
sba(iArchitecture
Entity
p2395
(dp2396
g11
(lp2397
sg13
S'android.media.TtmlNode'
p2398
sg15
(lp2399
sg17
(lp2400
sg19
(lp2401
sg21
I0
sba(iArchitecture
Entity
p2402
(dp2403
g11
(lp2404
sg13
S'android.media.TtmlNodeListener'
p2405
sg15
(lp2406
sg17
(lp2407
sg19
(lp2408
sg21
I0
sba(iArchitecture
Entity
p2409
(dp2410
g11
(lp2411
sg13
S'android.media.TtmlParser'
p2412
sg15
(lp2413
sg17
(lp2414
sg19
(lp2415
sg21
I0
sba(iArchitecture
Entity
p2416
(dp2417
g11
(lp2418
sg13
S'android.media.TtmlRenderer'
p2419
sg15
(lp2420
sg17
(lp2421
sg19
(lp2422
sg21
I0
sba(iArchitecture
Entity
p2423
(dp2424
g11
(lp2425
sg13
S'android.media.TtmlRenderingWidget'
p2426
sg15
(lp2427
sg17
(lp2428
sg19
(lp2429
sg21
I0
sba(iArchitecture
Entity
p2430
(dp2431
g11
(lp2432
sg13
S'android.media.TtmlTrack'
p2433
sg15
(lp2434
sg17
(lp2435
sg19
(lp2436
sg21
I0
sba(iArchitecture
Entity
p2437
(dp2438
g11
(lp2439
sg13
S'android.media.TtmlUtils'
p2440
sg15
(lp2441
sg17
(lp2442
sg19
(lp2443
sg21
I0
sba(iArchitecture
Entity
p2444
(dp2445
g11
(lp2446
sg13
S'android.media.UnstyledTextExtractor'
p2447
sg15
(lp2448
sg17
(lp2449
sg19
(lp2450
sg21
I0
sba(iArchitecture
Entity
p2451
(dp2452
g11
(lp2453
sg13
S'android.media.UnsupportedSchemeException'
p2454
sg15
(lp2455
sg17
(lp2456
sg19
(lp2457
sg21
I0
sba(iArchitecture
Entity
p2458
(dp2459
g11
(lp2460
sg13
S'android.media.Utils'
p2461
sg15
(lp2462
sg17
(lp2463
sg19
(lp2464
sg21
I0
sba(iArchitecture
Entity
p2465
(dp2466
g11
(lp2467
sg13
S'android.media.Utils$1'
p2468
sg15
(lp2469
sg17
(lp2470
sg19
(lp2471
sg21
I0
sba(iArchitecture
Entity
p2472
(dp2473
g11
(lp2474
sg13
S'android.media.Utils$2'
p2475
sg15
(lp2476
sg17
(lp2477
sg19
(lp2478
sg21
I0
sba(iArchitecture
Entity
p2479
(dp2480
g11
(lp2481
sg13
S'android.media.VolumePolicy'
p2482
sg15
(lp2483
sg17
(lp2484
sg19
(lp2485
sg21
I0
sba(iArchitecture
Entity
p2486
(dp2487
g11
(lp2488
sg13
S'android.media.VolumePolicy$1'
p2489
sg15
(lp2490
sg17
(lp2491
sg19
(lp2492
sg21
I0
sba(iArchitecture
Entity
p2493
(dp2494
g11
(lp2495
sg13
S'android.media.WebVttCueListener'
p2496
sg15
(lp2497
sg17
(lp2498
sg19
(lp2499
sg21
I0
sba(iArchitecture
Entity
p2500
(dp2501
g11
(lp2502
sg13
S'android.media.WebVttParser'
p2503
sg15
(lp2504
sg17
(lp2505
sg19
(lp2506
sg21
I0
sba(iArchitecture
Entity
p2507
(dp2508
g11
(lp2509
sg13
S'android.media.WebVttParser$1'
p2510
sg15
(lp2511
sg17
(lp2512
sg19
(lp2513
sg21
I0
sba(iArchitecture
Entity
p2514
(dp2515
g11
(lp2516
sg13
S'android.media.WebVttParser$2'
p2517
sg15
(lp2518
sg17
(lp2519
sg19
(lp2520
sg21
I0
sba(iArchitecture
Entity
p2521
(dp2522
g11
(lp2523
sg13
S'android.media.WebVttParser$3'
p2524
sg15
(lp2525
sg17
(lp2526
sg19
(lp2527
sg21
I0
sba(iArchitecture
Entity
p2528
(dp2529
g11
(lp2530
sg13
S'android.media.WebVttParser$4'
p2531
sg15
(lp2532
sg17
(lp2533
sg19
(lp2534
sg21
I0
sba(iArchitecture
Entity
p2535
(dp2536
g11
(lp2537
sg13
S'android.media.WebVttParser$5'
p2538
sg15
(lp2539
sg17
(lp2540
sg19
(lp2541
sg21
I0
sba(iArchitecture
Entity
p2542
(dp2543
g11
(lp2544
sg13
S'android.media.WebVttParser$6'
p2545
sg15
(lp2546
sg17
(lp2547
sg19
(lp2548
sg21
I0
sba(iArchitecture
Entity
p2549
(dp2550
g11
(lp2551
sg13
S'android.media.WebVttParser$Phase'
p2552
sg15
(lp2553
sg17
(lp2554
sg19
(lp2555
sg21
I0
sba(iArchitecture
Entity
p2556
(dp2557
g11
(lp2558
sg13
S'android.media.WebVttRenderingWidget'
p2559
sg15
(lp2560
sg17
(lp2561
sg19
(lp2562
sg21
I0
sba(iArchitecture
Entity
p2563
(dp2564
g11
(lp2565
sg13
S'android.media.WebVttRenderingWidget$1'
p2566
sg15
(lp2567
sg17
(lp2568
sg19
(lp2569
sg21
I0
sba(iArchitecture
Entity
p2570
(dp2571
g11
(lp2572
sg13
S'android.media.WebVttRenderingWidget$CueLayout'
p2573
sg15
(lp2574
sg17
(lp2575
sg19
(lp2576
sg21
I0
sba(iArchitecture
Entity
p2577
(dp2578
g11
(lp2579
sg13
S'android.media.WebVttRenderingWidget$RegionLayout'
p2580
sg15
(lp2581
sg17
(lp2582
sg19
(lp2583
sg21
I0
sba(iArchitecture
Entity
p2584
(dp2585
g11
(lp2586
sg13
S'android.media.WebVttRenderingWidget$SpanLayout'
p2587
sg15
(lp2588
sg17
(lp2589
sg19
(lp2590
sg21
I0
sba(iArchitecture
Entity
p2591
(dp2592
g11
(lp2593
sg13
S'android.media.WebVttTrack'
p2594
sg15
(lp2595
sg17
(lp2596
sg19
(lp2597
sg21
I0
sba(iArchitecture
Entity
p2598
(dp2599
g11
(lp2600
sg13
S'android.media.session.MediaController$TransportControls'
p2601
sg15
(lp2602
sg17
(lp2603
sg19
(lp2604
sg21
I0
sba(iArchitecture
Entity
p2605
(dp2606
g11
(lp2607
sg13
S'android.mtp.MtpConstants'
p2608
sg15
(lp2609
sg17
(lp2610
sg19
(lp2611
sg21
I0
sba(iArchitecture
Entity
p2612
(dp2613
g11
(lp2614
sg13
S'android.os.HandlerThread'
p2615
sg15
(lp2616
sg17
(lp2617
sg19
(lp2618
sg21
I0
sba(iArchitecture
Entity
p2619
(dp2620
g11
(lp2621
sg13
S'android.text.Layout$Alignment'
p2622
sg15
(lp2623
sg17
(lp2624
sg19
(lp2625
sg21
I0
sba(iArchitecture
Entity
p2626
(dp2627
g11
(lp2628
sg13
S'android.util.Pair'
p2629
sg15
(lp2630
sg17
(lp2631
sg19
(lp2632
sg21
I0
sba(iArchitecture
Entity
p2633
(dp2634
g11
(lp2635
sg13
S'android.view.accessibility.CaptioningManager$CaptionStyle'
p2636
sg15
(lp2637
sg17
(lp2638
sg19
(lp2639
sg21
I0
sba(iArchitecture
Entity
p2640
(dp2641
g11
(lp2642
sg13
S'android.view.accessibility.CaptioningManager$CaptioningChangeListener'
p2643
sg15
(lp2644
sg17
(lp2645
sg19
(lp2646
sg21
I0
sba(iArchitecture
Entity
p2647
(dp2648
g11
(lp2649
sg13
S'com.android.internal.widget.SubtitleView'
p2650
sg15
(lp2651
sg17
(lp2652
sg19
(lp2653
sg21
I0
sba(iArchitecture
Entity
p2654
(dp2655
g11
(lp2656
sg13
S'java.io.FilterOutputStream'
p2657
sg15
(lp2658
sg17
(lp2659
sg19
(lp2660
sg21
I0
sba(iArchitecture
Entity
p2661
(dp2662
g11
(lp2663
sg13
S'java.lang.AssertionError'
p2664
sg15
(lp2665
sg17
(lp2666
sg19
(lp2667
sg21
I0
sba(iArchitecture
Entity
p2668
(dp2669
g11
(lp2670
sg13
S'java.lang.Comparable'
p2671
sg15
(lp2672
sg17
(lp2673
sg19
(lp2674
sg21
I0
sba(iArchitecture
Entity
p2675
(dp2676
g11
(lp2677
sg13
S'java.lang.Double'
p2678
sg15
(lp2679
sg17
(lp2680
sg19
(lp2681
sg21
I0
sba(iArchitecture
Entity
p2682
(dp2683
g11
(lp2684
sg13
S'java.lang.NumberFormatException'
p2685
sg15
(lp2686
sg17
(lp2687
sg19
(lp2688
sg21
I0
sba(iArchitecture
Entity
p2689
(dp2690
g11
(lp2691
sg13
S'java.net.CookieHandler'
p2692
sg15
(lp2693
sg17
(lp2694
sg19
(lp2695
sg21
I0
sba(iArchitecture
Entity
p2696
(dp2697
g11
(lp2698
sg13
S'java.net.CookieManager'
p2699
sg15
(lp2700
sg17
(lp2701
sg19
(lp2702
sg21
I0
sba(iArchitecture
Entity
p2703
(dp2704
g11
(lp2705
sg13
S'java.net.NoRouteToHostException'
p2706
sg15
(lp2707
sg17
(lp2708
sg19
(lp2709
sg21
I0
sba(iArchitecture
Entity
p2710
(dp2711
g11
(lp2712
sg13
S'java.net.UnknownServiceException'
p2713
sg15
(lp2714
sg17
(lp2715
sg19
(lp2716
sg21
I0
sba(iArchitecture
Entity
p2717
(dp2718
g11
(lp2719
sg13
S'java.nio.ByteOrder'
p2720
sg15
(lp2721
sg17
(lp2722
sg19
(lp2723
sg21
I0
sba(iArchitecture
Entity
p2724
(dp2725
g11
(lp2726
sg13
S'java.nio.NioUtils'
p2727
sg15
(lp2728
sg17
(lp2729
sg19
(lp2730
sg21
I0
sba(iArchitecture
Entity
p2731
(dp2732
g11
(lp2733
sg13
S'java.nio.channels.FileLock'
p2734
sg15
(lp2735
sg17
(lp2736
sg19
(lp2737
sg21
I0
sba(iArchitecture
Entity
p2738
(dp2739
g11
(lp2740
sg13
S'java.text.ParsePosition'
p2741
sg15
(lp2742
sg17
(lp2743
sg19
(lp2744
sg21
I0
sba(iArchitecture
Entity
p2745
(dp2746
g11
(lp2747
sg13
S'java.util.SortedMap'
p2748
sg15
(lp2749
sg17
(lp2750
sg19
(lp2751
sg21
I0
sba(iArchitecture
Entity
p2752
(dp2753
g11
(lp2754
sg13
S'java.util.UUID'
p2755
sg15
(lp2756
sg17
(lp2757
sg19
(lp2758
sg21
I0
sba(iArchitecture
Entity
p2759
(dp2760
g11
(lp2761
sg13
S'java.util.Vector'
p2762
sg15
(lp2763
sg17
(lp2764
sg19
(lp2765
sg21
I0
sba(iArchitecture
Entity
p2766
(dp2767
g11
(lp2768
sg13
S'libcore.io.Libcore'
p2769
sg15
(lp2770
sg17
(lp2771
sg19
(lp2772
sg21
I0
sba(iArchitecture
Entity
p2773
(dp2774
g11
(lp2775
sg13
S'libcore.io.Os'
p2776
sg15
(lp2777
sg17
(lp2778
sg19
(lp2779
sg21
I0
sba(iArchitecture
Entity
p2780
(dp2781
g11
(lp2782
sg13
S'org.xml.sax.ContentHandler'
p2783
sg15
(lp2784
sg17
(lp2785
sg19
(lp2786
sg21
I0
sbasS'classes'
p2787
(lp2788
g14
ag25
ag32
ag39
ag46
ag53
ag60
ag67
ag74
ag81
ag88
ag95
ag102
ag109
ag116
ag123
ag130
ag137
ag144
ag151
ag158
ag165
ag172
ag179
ag186
ag193
ag200
ag207
ag214
ag221
ag228
ag235
ag242
ag249
ag256
ag263
ag270
ag277
ag284
ag291
ag298
ag305
ag312
ag319
ag326
ag333
ag340
ag347
ag354
ag361
ag368
ag375
ag382
ag389
ag396
ag403
ag410
ag417
ag424
ag431
ag438
ag445
ag452
ag459
ag466
ag473
ag480
ag487
ag494
ag501
ag508
ag515
ag522
ag529
ag536
ag543
ag550
ag557
ag564
ag571
ag578
ag585
ag592
ag599
ag606
ag613
ag620
ag627
ag634
ag641
ag648
ag655
ag662
ag669
ag676
ag683
ag690
ag697
ag704
ag711
ag718
ag725
ag732
ag739
ag746
ag753
ag760
ag767
ag774
ag781
ag788
ag795
ag802
ag809
ag816
ag823
ag830
ag837
ag844
ag851
ag858
ag865
ag872
ag879
ag886
ag893
ag900
ag907
ag914
ag921
ag928
ag935
ag942
ag949
ag956
ag963
ag970
ag977
ag984
ag991
ag998
ag1005
ag1012
ag1019
ag1026
ag1033
ag1040
ag1047
ag1054
ag1061
ag1068
ag1075
ag1082
ag1089
ag1096
ag1103
ag1110
ag1117
ag1124
ag1131
ag1138
ag1145
ag1152
ag1159
ag1166
ag1173
ag1180
ag1187
ag1194
ag1201
ag1208
ag1215
ag1222
ag1229
ag1236
ag1243
ag1250
ag1257
ag1264
ag1271
ag1278
ag1285
ag1292
ag1299
ag1306
ag1313
ag1320
ag1327
ag1334
ag1341
ag1348
ag1355
ag1362
ag1369
ag1376
ag1383
ag1390
ag1397
ag1404
ag1411
ag1418
ag1425
ag1432
ag1439
ag1446
ag1453
ag1460
ag1467
ag1474
ag1481
ag1488
ag1495
ag1502
ag1509
ag1516
ag1523
ag1530
ag1537
ag1544
ag1551
ag1558
ag1565
ag1572
ag1579
ag1586
ag1593
ag1600
ag1607
ag1614
ag1621
ag1628
ag1635
ag1642
ag1649
ag1656
ag1663
ag1670
ag1677
ag1684
ag1691
ag1698
ag1705
ag1712
ag1719
ag1726
ag1733
ag1740
ag1747
ag1754
ag1761
ag1768
ag1775
ag1782
ag1789
ag1796
ag1803
ag1810
ag1817
ag1824
ag1831
ag1838
ag1845
ag1852
ag1859
ag1866
ag1873
ag1880
ag1887
ag1894
ag1901
ag1908
ag1915
ag1922
ag1929
ag1936
ag1943
ag1950
ag1957
ag1964
ag1971
ag1978
ag1985
ag1992
ag1999
ag2006
ag2013
ag2020
ag2027
ag2034
ag2041
ag2048
ag2055
ag2062
ag2069
ag2076
ag2083
ag2090
ag2097
ag2104
ag2111
ag2118
ag2125
ag2132
ag2139
ag2146
ag2153
ag2160
ag2167
ag2174
ag2181
ag2188
ag2195
ag2202
ag2209
ag2216
ag2223
ag2230
ag2237
ag2244
ag2251
ag2258
ag2265
ag2272
ag2279
ag2286
ag2293
ag2300
ag2307
ag2314
ag2321
ag2328
ag2335
ag2342
ag2349
ag2356
ag2363
ag2370
ag2377
ag2384
ag2391
ag2398
ag2405
ag2412
ag2419
ag2426
ag2433
ag2440
ag2447
ag2454
ag2461
ag2468
ag2475
ag2482
ag2489
ag2496
ag2503
ag2510
ag2517
ag2524
ag2531
ag2538
ag2545
ag2552
ag2559
ag2566
ag2573
ag2580
ag2587
ag2594
ag2601
ag2608
ag2615
ag2622
ag2629
ag2636
ag2643
ag2650
ag2657
ag2664
ag2671
ag2678
ag2685
ag2692
ag2699
ag2706
ag2713
ag2720
ag2727
ag2734
ag2741
ag2748
ag2755
ag2762
ag2769
ag2776
ag2783
asg21
I0
sS'label'
p2789
S'android.media.ss'
p2790
sbasS'target_sub'
p2791
S'android.media.ss'
p2792
sg2787
(lp2793
sS'is_component_arch'
p2794
I01
sg2789
S'7.0.0_r1'
p2795
sba.