(lp0
(iArchitecture
Architecture
p1
(dp2
S'clusters'
p3
(lp4
(iArchitecture
Cluster
p5
(dp6
S'entities'
p7
(lp8
(iArchitecture
Entity
p9
(dp10
S'issue_ids'
p11
(lp12
sS'name'
p13
S'com.android.server.lights.Light'
p14
sS'descs'
p15
(lp16
sS'labels'
p17
(lp18
sS'titles'
p19
(lp20
sS'change'
p21
I0
sbasS'classes'
p22
(lp23
g14
asg21
I0
sS'label'
p24
S'1176'
p25
sba(iArchitecture
Cluster
p26
(dp27
g7
(lp28
(iArchitecture
Entity
p29
(dp30
g11
(lp31
sg13
S'com.android.server.lights.LightsManager'
p32
sg15
(lp33
sg17
(lp34
sg19
(lp35
sg21
I0
sbasg22
(lp36
g32
asg21
I0
sg24
S'1223'
p37
sba(iArchitecture
Cluster
p38
(dp39
g7
(lp40
(iArchitecture
Entity
p41
(dp42
g11
(lp43
sg13
S'com.android.server.lights.LightsService'
p44
sg15
(lp45
sg17
(lp46
sg19
(lp47
sg21
I0
sba(iArchitecture
Entity
p48
(dp49
g11
(lp50
sg13
S'com.android.server.lights.LightsService$1'
p51
sg15
(lp52
sg17
(lp53
sg19
(lp54
sg21
I0
sba(iArchitecture
Entity
p55
(dp56
g11
(lp57
sg13
S'com.android.server.lights.LightsService$2'
p58
sg15
(lp59
sg17
(lp60
sg19
(lp61
sg21
I0
sba(iArchitecture
Entity
p62
(dp63
g11
(lp64
sg13
S'com.android.server.lights.LightsService$LightImpl'
p65
sg15
(lp66
sg17
(lp67
sg19
(lp68
sg21
I0
sbasg22
(lp69
g44
ag51
ag58
ag65
asg21
I0
sg24
S'885'
p70
sbasS'target_sub'
p71
S'com.android.server.lights'
p72
sg22
(lp73
sS'is_component_arch'
p74
I00
sg24
S'6.0.0_r1'
p75
sba(iArchitecture
Architecture
p76
(dp77
g3
(lp78
(iArchitecture
Cluster
p79
(dp80
g7
(lp81
(iArchitecture
Entity
p82
(dp83
g11
(lp84
sg13
S'com.android.server.lights.LightsService'
p85
sg15
(lp86
sg17
(lp87
sg19
(lp88
sg21
I0
sba(iArchitecture
Entity
p89
(dp90
g11
(lp91
sg13
S'com.android.server.lights.LightsService$1'
p92
sg15
(lp93
sg17
(lp94
sg19
(lp95
sg21
I0
sba(iArchitecture
Entity
p96
(dp97
g11
(lp98
sg13
S'com.android.server.lights.LightsService$2'
p99
sg15
(lp100
sg17
(lp101
sg19
(lp102
sg21
I0
sba(iArchitecture
Entity
p103
(dp104
g11
(lp105
sg13
S'com.android.server.lights.LightsService$3'
p106
sg15
(lp107
sg17
(lp108
sg19
(lp109
sg21
I0
sba(iArchitecture
Entity
p110
(dp111
g11
(lp112
sg13
S'com.android.server.lights.LightsService$LightImpl'
p113
sg15
(lp114
sg17
(lp115
sg19
(lp116
sg21
I0
sbasg22
(lp117
g85
ag92
ag99
ag106
ag113
asg21
I0
sg24
S'1112'
p118
sba(iArchitecture
Cluster
p119
(dp120
g7
(lp121
(iArchitecture
Entity
p122
(dp123
g11
(lp124
sg13
S'com.android.server.lights.LightsManager'
p125
sg15
(lp126
sg17
(lp127
sg19
(lp128
sg21
I0
sbasg22
(lp129
g125
asg21
I0
sg24
S'1330'
p130
sba(iArchitecture
Cluster
p131
(dp132
g7
(lp133
(iArchitecture
Entity
p134
(dp135
g11
(lp136
sg13
S'com.android.server.lights.Light'
p137
sg15
(lp138
sg17
(lp139
sg19
(lp140
sg21
I0
sbasg22
(lp141
g137
asg21
I0
sg24
S'1331'
p142
sbasg71
g72
sg22
(lp143
sg74
I00
sg24
S'7.0.0_r1'
p144
sba.