(lp0
(iArchitecture
Architecture
p1
(dp2
S'clusters'
p3
(lp4
(iArchitecture
Cluster
p5
(dp6
S'entities'
p7
(lp8
(iArchitecture
Entity
p9
(dp10
S'issue_ids'
p11
(lp12
sS'name'
p13
S'com.android.server.content.SyncStorageEngine'
p14
sS'descs'
p15
(lp16
sS'labels'
p17
(lp18
sS'titles'
p19
(lp20
sS'change'
p21
I0
sba(iArchitecture
Entity
p22
(dp23
g11
(lp24
sg13
S'com.android.server.content.SyncStorageEngine$AccountInfo'
p25
sg15
(lp26
sg17
(lp27
sg19
(lp28
sg21
I0
sba(iArchitecture
Entity
p29
(dp30
g11
(lp31
sg13
S'com.android.server.content.SyncStorageEngine$AuthorityInfo'
p32
sg15
(lp33
sg17
(lp34
sg19
(lp35
sg21
I0
sba(iArchitecture
Entity
p36
(dp37
g11
(lp38
sg13
S'com.android.server.content.SyncStorageEngine$DayStats'
p39
sg15
(lp40
sg17
(lp41
sg19
(lp42
sg21
I0
sba(iArchitecture
Entity
p43
(dp44
g11
(lp45
sg13
S'com.android.server.content.SyncStorageEngine$EndPoint'
p46
sg15
(lp47
sg17
(lp48
sg19
(lp49
sg21
I0
sba(iArchitecture
Entity
p50
(dp51
g11
(lp52
sg13
S'com.android.server.content.SyncStorageEngine$OnSyncRequestListener'
p53
sg15
(lp54
sg17
(lp55
sg19
(lp56
sg21
I0
sba(iArchitecture
Entity
p57
(dp58
g11
(lp59
sg13
S'com.android.server.content.SyncStorageEngine$PendingOperation'
p60
sg15
(lp61
sg17
(lp62
sg19
(lp63
sg21
I0
sba(iArchitecture
Entity
p64
(dp65
g11
(lp66
sg13
S'com.android.server.content.SyncStorageEngine$SyncHistoryItem'
p67
sg15
(lp68
sg17
(lp69
sg19
(lp70
sg21
I0
sbasS'classes'
p71
(lp72
g14
ag25
ag32
ag39
ag46
ag53
ag60
ag67
asg21
I0
sS'label'
p73
S'1040'
p74
sba(iArchitecture
Cluster
p75
(dp76
g7
(lp77
(iArchitecture
Entity
p78
(dp79
g11
(lp80
sg13
S'com.android.server.content.SyncOperation'
p81
sg15
(lp82
sg17
(lp83
sg19
(lp84
sg21
I0
sbasg71
(lp85
g81
asg21
I0
sg73
S'399'
p86
sbasS'target_sub'
p87
S'com.android.server.content'
p88
sg71
(lp89
sS'is_component_arch'
p90
I00
sg73
S'6.0.0_r1'
p91
sba(iArchitecture
Architecture
p92
(dp93
g3
(lp94
(iArchitecture
Cluster
p95
(dp96
g7
(lp97
(iArchitecture
Entity
p98
(dp99
g11
(lp100
sg13
S'com.android.server.content.SyncStorageEngine'
p101
sg15
(lp102
sg17
(lp103
sg19
(lp104
sg21
I0
sba(iArchitecture
Entity
p105
(dp106
g11
(lp107
sg13
S'com.android.server.content.SyncStorageEngine$AccountInfo'
p108
sg15
(lp109
sg17
(lp110
sg19
(lp111
sg21
I0
sba(iArchitecture
Entity
p112
(dp113
g11
(lp114
sg13
S'com.android.server.content.SyncStorageEngine$AuthorityInfo'
p115
sg15
(lp116
sg17
(lp117
sg19
(lp118
sg21
I0
sba(iArchitecture
Entity
p119
(dp120
g11
(lp121
sg13
S'com.android.server.content.SyncStorageEngine$DayStats'
p122
sg15
(lp123
sg17
(lp124
sg19
(lp125
sg21
I0
sba(iArchitecture
Entity
p126
(dp127
g11
(lp128
sg13
S'com.android.server.content.SyncStorageEngine$EndPoint'
p129
sg15
(lp130
sg17
(lp131
sg19
(lp132
sg21
I0
sba(iArchitecture
Entity
p133
(dp134
g11
(lp135
sg13
S'com.android.server.content.SyncStorageEngine$OnAuthorityRemovedListener'
p136
sg15
(lp137
sg17
(lp138
sg19
(lp139
sg21
I0
sba(iArchitecture
Entity
p140
(dp141
g11
(lp142
sg13
S'com.android.server.content.SyncStorageEngine$OnSyncRequestListener'
p143
sg15
(lp144
sg17
(lp145
sg19
(lp146
sg21
I0
sba(iArchitecture
Entity
p147
(dp148
g11
(lp149
sg13
S'com.android.server.content.SyncStorageEngine$PeriodicSyncAddedListener'
p150
sg15
(lp151
sg17
(lp152
sg19
(lp153
sg21
I0
sba(iArchitecture
Entity
p154
(dp155
g11
(lp156
sg13
S'com.android.server.content.SyncStorageEngine$SyncHistoryItem'
p157
sg15
(lp158
sg17
(lp159
sg19
(lp160
sg21
I0
sbasg71
(lp161
g101
ag108
ag115
ag122
ag129
ag136
ag143
ag150
ag157
asg21
I0
sg73
S'1205'
p162
sba(iArchitecture
Cluster
p163
(dp164
g7
(lp165
(iArchitecture
Entity
p166
(dp167
g11
(lp168
sg13
S'com.android.server.content.SyncOperation'
p169
sg15
(lp170
sg17
(lp171
sg19
(lp172
sg21
I0
sbasg71
(lp173
g169
asg21
I0
sg73
S'438'
p174
sba(iArchitecture
Cluster
p175
(dp176
g7
(lp177
(iArchitecture
Entity
p178
(dp179
g11
(lp180
sg13
S'com.android.server.content.SyncJobService'
p181
sg15
(lp182
sg17
(lp183
sg19
(lp184
sg21
I0
sbasg71
(lp185
g181
asg21
I0
sg73
S'71'
p186
sbasg87
g88
sg71
(lp187
sg90
I00
sg73
S'7.0.0_r1'
p188
sba.