(lp0
(iArchitecture
Architecture
p1
(dp2
S'clusters'
p3
(lp4
(iArchitecture
Cluster
p5
(dp6
S'entities'
p7
(lp8
(iArchitecture
Entity
p9
(dp10
S'issue_ids'
p11
(lp12
sS'name'
p13
S'android.accounts.AccountManagerCallback'
p14
sS'descs'
p15
(lp16
sS'labels'
p17
(lp18
sS'titles'
p19
(lp20
sS'change'
p21
I0
sba(iArchitecture
Entity
p22
(dp23
g11
(lp24
sg13
S'android.accounts.AccountsException'
p25
sg15
(lp26
sg17
(lp27
sg19
(lp28
sg21
I0
sba(iArchitecture
Entity
p29
(dp30
g11
(lp31
sg13
S'android.accounts.AuthenticatorException'
p32
sg15
(lp33
sg17
(lp34
sg19
(lp35
sg21
I0
sba(iArchitecture
Entity
p36
(dp37
g11
(lp38
sg13
S'android.accounts.CantAddAccountActivity'
p39
sg15
(lp40
sg17
(lp41
sg19
(lp42
sg21
I0
sba(iArchitecture
Entity
p43
(dp44
g11
(lp45
sg13
S'android.accounts.ChooseAccountActivity'
p46
sg15
(lp47
sg17
(lp48
sg19
(lp49
sg21
I0
sba(iArchitecture
Entity
p50
(dp51
g11
(lp52
sg13
S'android.accounts.ChooseAccountActivity$1'
p53
sg15
(lp54
sg17
(lp55
sg19
(lp56
sg21
I0
sba(iArchitecture
Entity
p57
(dp58
g11
(lp59
sg13
S'android.accounts.ChooseAccountActivity$AccountArrayAdapter'
p60
sg15
(lp61
sg17
(lp62
sg19
(lp63
sg21
I0
sba(iArchitecture
Entity
p64
(dp65
g11
(lp66
sg13
S'android.accounts.ChooseAccountActivity$AccountInfo'
p67
sg15
(lp68
sg17
(lp69
sg19
(lp70
sg21
I0
sba(iArchitecture
Entity
p71
(dp72
g11
(lp73
sg13
S'android.accounts.ChooseAccountActivity$ViewHolder'
p74
sg15
(lp75
sg17
(lp76
sg19
(lp77
sg21
I0
sba(iArchitecture
Entity
p78
(dp79
g11
(lp80
sg13
S'android.accounts.ChooseAccountTypeActivity'
p81
sg15
(lp82
sg17
(lp83
sg19
(lp84
sg21
I0
sba(iArchitecture
Entity
p85
(dp86
g11
(lp87
sg13
S'android.accounts.ChooseAccountTypeActivity$1'
p88
sg15
(lp89
sg17
(lp90
sg19
(lp91
sg21
I0
sba(iArchitecture
Entity
p92
(dp93
g11
(lp94
sg13
S'android.accounts.ChooseAccountTypeActivity$AccountArrayAdapter'
p95
sg15
(lp96
sg17
(lp97
sg19
(lp98
sg21
I0
sba(iArchitecture
Entity
p99
(dp100
g11
(lp101
sg13
S'android.accounts.ChooseAccountTypeActivity$AuthInfo'
p102
sg15
(lp103
sg17
(lp104
sg19
(lp105
sg21
I0
sba(iArchitecture
Entity
p106
(dp107
g11
(lp108
sg13
S'android.accounts.ChooseAccountTypeActivity$ViewHolder'
p109
sg15
(lp110
sg17
(lp111
sg19
(lp112
sg21
I0
sba(iArchitecture
Entity
p113
(dp114
g11
(lp115
sg13
S'android.accounts.GrantCredentialsPermissionActivity'
p116
sg15
(lp117
sg17
(lp118
sg19
(lp119
sg21
I0
sba(iArchitecture
Entity
p120
(dp121
g11
(lp122
sg13
S'android.accounts.GrantCredentialsPermissionActivity$1'
p123
sg15
(lp124
sg17
(lp125
sg19
(lp126
sg21
I0
sba(iArchitecture
Entity
p127
(dp128
g11
(lp129
sg13
S'android.accounts.GrantCredentialsPermissionActivity$1$1'
p130
sg15
(lp131
sg17
(lp132
sg19
(lp133
sg21
I0
sba(iArchitecture
Entity
p134
(dp135
g11
(lp136
sg13
S'android.accounts.NetworkErrorException'
p137
sg15
(lp138
sg17
(lp139
sg19
(lp140
sg21
I0
sba(iArchitecture
Entity
p141
(dp142
g11
(lp143
sg13
S'android.accounts.OnAccountsUpdateListener'
p144
sg15
(lp145
sg17
(lp146
sg19
(lp147
sg21
I0
sba(iArchitecture
Entity
p148
(dp149
g11
(lp150
sg13
S'android.accounts.OperationCanceledException'
p151
sg15
(lp152
sg17
(lp153
sg19
(lp154
sg21
I0
sbasS'classes'
p155
(lp156
g14
ag25
ag32
ag39
ag46
ag53
ag60
ag67
ag74
ag81
ag88
ag95
ag102
ag109
ag116
ag123
ag130
ag137
ag144
ag151
asg21
I0
sS'label'
p157
S'1223'
p158
sba(iArchitecture
Cluster
p159
(dp160
g7
(lp161
(iArchitecture
Entity
p162
(dp163
g11
(lp164
sg13
S'android.accounts.AccountManager'
p165
sg15
(lp166
sg17
(lp167
sg19
(lp168
sg21
I0
sba(iArchitecture
Entity
p169
(dp170
g11
(lp171
sg13
S'android.accounts.AccountManager$1'
p172
sg15
(lp173
sg17
(lp174
sg19
(lp175
sg21
I0
sba(iArchitecture
Entity
p176
(dp177
g11
(lp178
sg13
S'android.accounts.AccountManager$10'
p179
sg15
(lp180
sg17
(lp181
sg19
(lp182
sg21
I0
sba(iArchitecture
Entity
p183
(dp184
g11
(lp185
sg13
S'android.accounts.AccountManager$11'
p186
sg15
(lp187
sg17
(lp188
sg19
(lp189
sg21
I0
sba(iArchitecture
Entity
p190
(dp191
g11
(lp192
sg13
S'android.accounts.AccountManager$12'
p193
sg15
(lp194
sg17
(lp195
sg19
(lp196
sg21
I0
sba(iArchitecture
Entity
p197
(dp198
g11
(lp199
sg13
S'android.accounts.AccountManager$13'
p200
sg15
(lp201
sg17
(lp202
sg19
(lp203
sg21
I0
sba(iArchitecture
Entity
p204
(dp205
g11
(lp206
sg13
S'android.accounts.AccountManager$14'
p207
sg15
(lp208
sg17
(lp209
sg19
(lp210
sg21
I0
sba(iArchitecture
Entity
p211
(dp212
g11
(lp213
sg13
S'android.accounts.AccountManager$15'
p214
sg15
(lp215
sg17
(lp216
sg19
(lp217
sg21
I0
sba(iArchitecture
Entity
p218
(dp219
g11
(lp220
sg13
S'android.accounts.AccountManager$16'
p221
sg15
(lp222
sg17
(lp223
sg19
(lp224
sg21
I0
sba(iArchitecture
Entity
p225
(dp226
g11
(lp227
sg13
S'android.accounts.AccountManager$17'
p228
sg15
(lp229
sg17
(lp230
sg19
(lp231
sg21
I0
sba(iArchitecture
Entity
p232
(dp233
g11
(lp234
sg13
S'android.accounts.AccountManager$18'
p235
sg15
(lp236
sg17
(lp237
sg19
(lp238
sg21
I0
sba(iArchitecture
Entity
p239
(dp240
g11
(lp241
sg13
S'android.accounts.AccountManager$19'
p242
sg15
(lp243
sg17
(lp244
sg19
(lp245
sg21
I0
sba(iArchitecture
Entity
p246
(dp247
g11
(lp248
sg13
S'android.accounts.AccountManager$2'
p249
sg15
(lp250
sg17
(lp251
sg19
(lp252
sg21
I0
sba(iArchitecture
Entity
p253
(dp254
g11
(lp255
sg13
S'android.accounts.AccountManager$3'
p256
sg15
(lp257
sg17
(lp258
sg19
(lp259
sg21
I0
sba(iArchitecture
Entity
p260
(dp261
g11
(lp262
sg13
S'android.accounts.AccountManager$4'
p263
sg15
(lp264
sg17
(lp265
sg19
(lp266
sg21
I0
sba(iArchitecture
Entity
p267
(dp268
g11
(lp269
sg13
S'android.accounts.AccountManager$5'
p270
sg15
(lp271
sg17
(lp272
sg19
(lp273
sg21
I0
sba(iArchitecture
Entity
p274
(dp275
g11
(lp276
sg13
S'android.accounts.AccountManager$6'
p277
sg15
(lp278
sg17
(lp279
sg19
(lp280
sg21
I0
sba(iArchitecture
Entity
p281
(dp282
g11
(lp283
sg13
S'android.accounts.AccountManager$7'
p284
sg15
(lp285
sg17
(lp286
sg19
(lp287
sg21
I0
sba(iArchitecture
Entity
p288
(dp289
g11
(lp290
sg13
S'android.accounts.AccountManager$8'
p291
sg15
(lp292
sg17
(lp293
sg19
(lp294
sg21
I0
sba(iArchitecture
Entity
p295
(dp296
g11
(lp297
sg13
S'android.accounts.AccountManager$9'
p298
sg15
(lp299
sg17
(lp300
sg19
(lp301
sg21
I0
sba(iArchitecture
Entity
p302
(dp303
g11
(lp304
sg13
S'android.accounts.AccountManager$AmsTask'
p305
sg15
(lp306
sg17
(lp307
sg19
(lp308
sg21
I0
sba(iArchitecture
Entity
p309
(dp310
g11
(lp311
sg13
S'android.accounts.AccountManager$AmsTask$1'
p312
sg15
(lp313
sg17
(lp314
sg19
(lp315
sg21
I0
sba(iArchitecture
Entity
p316
(dp317
g11
(lp318
sg13
S'android.accounts.AccountManager$AmsTask$Response'
p319
sg15
(lp320
sg17
(lp321
sg19
(lp322
sg21
I0
sba(iArchitecture
Entity
p323
(dp324
g11
(lp325
sg13
S'android.accounts.AccountManager$BaseFutureTask'
p326
sg15
(lp327
sg17
(lp328
sg19
(lp329
sg21
I0
sba(iArchitecture
Entity
p330
(dp331
g11
(lp332
sg13
S'android.accounts.AccountManager$BaseFutureTask$1'
p333
sg15
(lp334
sg17
(lp335
sg19
(lp336
sg21
I0
sba(iArchitecture
Entity
p337
(dp338
g11
(lp339
sg13
S'android.accounts.AccountManager$BaseFutureTask$Response'
p340
sg15
(lp341
sg17
(lp342
sg19
(lp343
sg21
I0
sba(iArchitecture
Entity
p344
(dp345
g11
(lp346
sg13
S'android.accounts.AccountManager$Future2Task'
p347
sg15
(lp348
sg17
(lp349
sg19
(lp350
sg21
I0
sba(iArchitecture
Entity
p351
(dp352
g11
(lp353
sg13
S'android.accounts.AccountManager$Future2Task$1'
p354
sg15
(lp355
sg17
(lp356
sg19
(lp357
sg21
I0
sba(iArchitecture
Entity
p358
(dp359
g11
(lp360
sg13
S'android.accounts.AccountManager$GetAuthTokenByTypeAndFeaturesTask'
p361
sg15
(lp362
sg17
(lp363
sg19
(lp364
sg21
I0
sba(iArchitecture
Entity
p365
(dp366
g11
(lp367
sg13
S'android.accounts.AccountManager$GetAuthTokenByTypeAndFeaturesTask$1'
p368
sg15
(lp369
sg17
(lp370
sg19
(lp371
sg21
I0
sba(iArchitecture
Entity
p372
(dp373
g11
(lp374
sg13
S'android.accounts.AccountManager$GetAuthTokenByTypeAndFeaturesTask$1$1'
p375
sg15
(lp376
sg17
(lp377
sg19
(lp378
sg21
I0
sbasg155
(lp379
g165
ag172
ag179
ag186
ag193
ag200
ag207
ag214
ag221
ag228
ag235
ag242
ag249
ag256
ag263
ag270
ag277
ag284
ag291
ag298
ag305
ag312
ag319
ag326
ag333
ag340
ag347
ag354
ag361
ag368
ag375
asg21
I0
sg157
S'1232'
p380
sba(iArchitecture
Cluster
p381
(dp382
g7
(lp383
(iArchitecture
Entity
p384
(dp385
g11
(lp386
sg13
S'android.accounts.Account'
p387
sg15
(lp388
sg17
(lp389
sg19
(lp390
sg21
I0
sba(iArchitecture
Entity
p391
(dp392
g11
(lp393
sg13
S'android.accounts.Account$1'
p394
sg15
(lp395
sg17
(lp396
sg19
(lp397
sg21
I0
sbasg155
(lp398
g387
ag394
asg21
I0
sg157
S'1237'
p399
sba(iArchitecture
Cluster
p400
(dp401
g7
(lp402
(iArchitecture
Entity
p403
(dp404
g11
(lp405
sg13
S'android.accounts.AccountAuthenticatorActivity'
p406
sg15
(lp407
sg17
(lp408
sg19
(lp409
sg21
I0
sba(iArchitecture
Entity
p410
(dp411
g11
(lp412
sg13
S'android.accounts.AccountAuthenticatorResponse'
p413
sg15
(lp414
sg17
(lp415
sg19
(lp416
sg21
I0
sba(iArchitecture
Entity
p417
(dp418
g11
(lp419
sg13
S'android.accounts.AccountAuthenticatorResponse$1'
p420
sg15
(lp421
sg17
(lp422
sg19
(lp423
sg21
I0
sba(iArchitecture
Entity
p424
(dp425
g11
(lp426
sg13
S'android.accounts.AccountManagerResponse'
p427
sg15
(lp428
sg17
(lp429
sg19
(lp430
sg21
I0
sba(iArchitecture
Entity
p431
(dp432
g11
(lp433
sg13
S'android.accounts.AccountManagerResponse$1'
p434
sg15
(lp435
sg17
(lp436
sg19
(lp437
sg21
I0
sbasg155
(lp438
g406
ag413
ag420
ag427
ag434
asg21
I0
sg157
S'1241'
p439
sba(iArchitecture
Cluster
p440
(dp441
g7
(lp442
(iArchitecture
Entity
p443
(dp444
g11
(lp445
sg13
S'android.accounts.AccountAndUser'
p446
sg15
(lp447
sg17
(lp448
sg19
(lp449
sg21
I0
sba(iArchitecture
Entity
p450
(dp451
g11
(lp452
sg13
S'android.accounts.AuthenticatorDescription'
p453
sg15
(lp454
sg17
(lp455
sg19
(lp456
sg21
I0
sba(iArchitecture
Entity
p457
(dp458
g11
(lp459
sg13
S'android.accounts.AuthenticatorDescription$1'
p460
sg15
(lp461
sg17
(lp462
sg19
(lp463
sg21
I0
sbasg155
(lp464
g446
ag453
ag460
asg21
I0
sg157
S'1246'
p465
sba(iArchitecture
Cluster
p466
(dp467
g7
(lp468
(iArchitecture
Entity
p469
(dp470
g11
(lp471
sg13
S'android.accounts.AccountManagerFuture'
p472
sg15
(lp473
sg17
(lp474
sg19
(lp475
sg21
I0
sbasg155
(lp476
g472
asg21
I0
sg157
S'285'
p477
sba(iArchitecture
Cluster
p478
(dp479
g7
(lp480
(iArchitecture
Entity
p481
(dp482
g11
(lp483
sg13
S'android.accounts.ChooseTypeAndAccountActivity'
p484
sg15
(lp485
sg17
(lp486
sg19
(lp487
sg21
I0
sba(iArchitecture
Entity
p488
(dp489
g11
(lp490
sg13
S'android.accounts.ChooseTypeAndAccountActivity$1'
p491
sg15
(lp492
sg17
(lp493
sg19
(lp494
sg21
I0
sbasg155
(lp495
g484
ag491
asg21
I0
sg157
S'727'
p496
sba(iArchitecture
Cluster
p497
(dp498
g7
(lp499
(iArchitecture
Entity
p500
(dp501
g11
(lp502
sg13
S'android.accounts.AbstractAccountAuthenticator'
p503
sg15
(lp504
sg17
(lp505
sg19
(lp506
sg21
I0
sba(iArchitecture
Entity
p507
(dp508
g11
(lp509
sg13
S'android.accounts.AbstractAccountAuthenticator$1'
p510
sg15
(lp511
sg17
(lp512
sg19
(lp513
sg21
I0
sba(iArchitecture
Entity
p514
(dp515
g11
(lp516
sg13
S'android.accounts.AbstractAccountAuthenticator$2'
p517
sg15
(lp518
sg17
(lp519
sg19
(lp520
sg21
I0
sba(iArchitecture
Entity
p521
(dp522
g11
(lp523
sg13
S'android.accounts.AbstractAccountAuthenticator$Transport'
p524
sg15
(lp525
sg17
(lp526
sg19
(lp527
sg21
I0
sbasg155
(lp528
g503
ag510
ag517
ag524
asg21
I0
sg157
S'914'
p529
sbasS'target_sub'
p530
S'android.accounts'
p531
sg155
(lp532
sS'is_component_arch'
p533
I00
sg157
S'6.0.0_r1'
p534
sba(iArchitecture
Architecture
p535
(dp536
g3
(lp537
(iArchitecture
Cluster
p538
(dp539
g7
(lp540
(iArchitecture
Entity
p541
(dp542
g11
(lp543
sg13
S'android.accounts.AbstractAccountAuthenticator'
p544
sg15
(lp545
sg17
(lp546
sg19
(lp547
sg21
I0
sba(iArchitecture
Entity
p548
(dp549
g11
(lp550
sg13
S'android.accounts.AbstractAccountAuthenticator$1'
p551
sg15
(lp552
sg17
(lp553
sg19
(lp554
sg21
I0
sba(iArchitecture
Entity
p555
(dp556
g11
(lp557
sg13
S'android.accounts.AbstractAccountAuthenticator$2'
p558
sg15
(lp559
sg17
(lp560
sg19
(lp561
sg21
I0
sba(iArchitecture
Entity
p562
(dp563
g11
(lp564
sg13
S'android.accounts.AbstractAccountAuthenticator$3'
p565
sg15
(lp566
sg17
(lp567
sg19
(lp568
sg21
I0
sba(iArchitecture
Entity
p569
(dp570
g11
(lp571
sg13
S'android.accounts.AbstractAccountAuthenticator$4'
p572
sg15
(lp573
sg17
(lp574
sg19
(lp575
sg21
I0
sba(iArchitecture
Entity
p576
(dp577
g11
(lp578
sg13
S'android.accounts.AbstractAccountAuthenticator$Transport'
p579
sg15
(lp580
sg17
(lp581
sg19
(lp582
sg21
I0
sbasg155
(lp583
g544
ag551
ag558
ag565
ag572
ag579
asg21
I0
sg157
S'1143'
p584
sba(iArchitecture
Cluster
p585
(dp586
g7
(lp587
(iArchitecture
Entity
p588
(dp589
g11
(lp590
sg13
S'android.accounts.Account'
p591
sg15
(lp592
sg17
(lp593
sg19
(lp594
sg21
I0
sba(iArchitecture
Entity
p595
(dp596
g11
(lp597
sg13
S'android.accounts.Account$1'
p598
sg15
(lp599
sg17
(lp600
sg19
(lp601
sg21
I0
sba(iArchitecture
Entity
p602
(dp603
g11
(lp604
sg13
S'android.accounts.AccountManagerCallback'
p605
sg15
(lp606
sg17
(lp607
sg19
(lp608
sg21
I0
sba(iArchitecture
Entity
p609
(dp610
g11
(lp611
sg13
S'android.accounts.AccountsException'
p612
sg15
(lp613
sg17
(lp614
sg19
(lp615
sg21
I0
sba(iArchitecture
Entity
p616
(dp617
g11
(lp618
sg13
S'android.accounts.AuthenticatorDescription'
p619
sg15
(lp620
sg17
(lp621
sg19
(lp622
sg21
I0
sba(iArchitecture
Entity
p623
(dp624
g11
(lp625
sg13
S'android.accounts.AuthenticatorDescription$1'
p626
sg15
(lp627
sg17
(lp628
sg19
(lp629
sg21
I0
sba(iArchitecture
Entity
p630
(dp631
g11
(lp632
sg13
S'android.accounts.AuthenticatorException'
p633
sg15
(lp634
sg17
(lp635
sg19
(lp636
sg21
I0
sba(iArchitecture
Entity
p637
(dp638
g11
(lp639
sg13
S'android.accounts.CantAddAccountActivity'
p640
sg15
(lp641
sg17
(lp642
sg19
(lp643
sg21
I0
sba(iArchitecture
Entity
p644
(dp645
g11
(lp646
sg13
S'android.accounts.ChooseAccountActivity'
p647
sg15
(lp648
sg17
(lp649
sg19
(lp650
sg21
I0
sba(iArchitecture
Entity
p651
(dp652
g11
(lp653
sg13
S'android.accounts.ChooseAccountActivity$1'
p654
sg15
(lp655
sg17
(lp656
sg19
(lp657
sg21
I0
sba(iArchitecture
Entity
p658
(dp659
g11
(lp660
sg13
S'android.accounts.ChooseAccountActivity$AccountArrayAdapter'
p661
sg15
(lp662
sg17
(lp663
sg19
(lp664
sg21
I0
sba(iArchitecture
Entity
p665
(dp666
g11
(lp667
sg13
S'android.accounts.ChooseAccountActivity$AccountInfo'
p668
sg15
(lp669
sg17
(lp670
sg19
(lp671
sg21
I0
sba(iArchitecture
Entity
p672
(dp673
g11
(lp674
sg13
S'android.accounts.ChooseAccountActivity$ViewHolder'
p675
sg15
(lp676
sg17
(lp677
sg19
(lp678
sg21
I0
sba(iArchitecture
Entity
p679
(dp680
g11
(lp681
sg13
S'android.accounts.ChooseAccountTypeActivity'
p682
sg15
(lp683
sg17
(lp684
sg19
(lp685
sg21
I0
sba(iArchitecture
Entity
p686
(dp687
g11
(lp688
sg13
S'android.accounts.ChooseAccountTypeActivity$1'
p689
sg15
(lp690
sg17
(lp691
sg19
(lp692
sg21
I0
sba(iArchitecture
Entity
p693
(dp694
g11
(lp695
sg13
S'android.accounts.ChooseAccountTypeActivity$AccountArrayAdapter'
p696
sg15
(lp697
sg17
(lp698
sg19
(lp699
sg21
I0
sba(iArchitecture
Entity
p700
(dp701
g11
(lp702
sg13
S'android.accounts.ChooseAccountTypeActivity$AuthInfo'
p703
sg15
(lp704
sg17
(lp705
sg19
(lp706
sg21
I0
sba(iArchitecture
Entity
p707
(dp708
g11
(lp709
sg13
S'android.accounts.ChooseAccountTypeActivity$ViewHolder'
p710
sg15
(lp711
sg17
(lp712
sg19
(lp713
sg21
I0
sba(iArchitecture
Entity
p714
(dp715
g11
(lp716
sg13
S'android.accounts.GrantCredentialsPermissionActivity'
p717
sg15
(lp718
sg17
(lp719
sg19
(lp720
sg21
I0
sba(iArchitecture
Entity
p721
(dp722
g11
(lp723
sg13
S'android.accounts.GrantCredentialsPermissionActivity$1'
p724
sg15
(lp725
sg17
(lp726
sg19
(lp727
sg21
I0
sba(iArchitecture
Entity
p728
(dp729
g11
(lp730
sg13
S'android.accounts.GrantCredentialsPermissionActivity$1$1'
p731
sg15
(lp732
sg17
(lp733
sg19
(lp734
sg21
I0
sba(iArchitecture
Entity
p735
(dp736
g11
(lp737
sg13
S'android.accounts.NetworkErrorException'
p738
sg15
(lp739
sg17
(lp740
sg19
(lp741
sg21
I0
sba(iArchitecture
Entity
p742
(dp743
g11
(lp744
sg13
S'android.accounts.OnAccountsUpdateListener'
p745
sg15
(lp746
sg17
(lp747
sg19
(lp748
sg21
I0
sba(iArchitecture
Entity
p749
(dp750
g11
(lp751
sg13
S'android.accounts.OperationCanceledException'
p752
sg15
(lp753
sg17
(lp754
sg19
(lp755
sg21
I0
sbasg155
(lp756
g591
ag598
ag605
ag612
ag619
ag626
ag633
ag640
ag647
ag654
ag661
ag668
ag675
ag682
ag689
ag696
ag703
ag710
ag717
ag724
ag731
ag738
ag745
ag752
asg21
I0
sg157
S'1330'
p757
sba(iArchitecture
Cluster
p758
(dp759
g7
(lp760
(iArchitecture
Entity
p761
(dp762
g11
(lp763
sg13
S'android.accounts.AccountAndUser'
p764
sg15
(lp765
sg17
(lp766
sg19
(lp767
sg21
I0
sbasg155
(lp768
g764
asg21
I0
sg157
S'1331'
p769
sba(iArchitecture
Cluster
p770
(dp771
g7
(lp772
(iArchitecture
Entity
p773
(dp774
g11
(lp775
sg13
S'android.accounts.AccountManager'
p776
sg15
(lp777
sg17
(lp778
sg19
(lp779
sg21
I0
sba(iArchitecture
Entity
p780
(dp781
g11
(lp782
sg13
S'android.accounts.AccountManager$1'
p783
sg15
(lp784
sg17
(lp785
sg19
(lp786
sg21
I0
sba(iArchitecture
Entity
p787
(dp788
g11
(lp789
sg13
S'android.accounts.AccountManager$10'
p790
sg15
(lp791
sg17
(lp792
sg19
(lp793
sg21
I0
sba(iArchitecture
Entity
p794
(dp795
g11
(lp796
sg13
S'android.accounts.AccountManager$11'
p797
sg15
(lp798
sg17
(lp799
sg19
(lp800
sg21
I0
sba(iArchitecture
Entity
p801
(dp802
g11
(lp803
sg13
S'android.accounts.AccountManager$12'
p804
sg15
(lp805
sg17
(lp806
sg19
(lp807
sg21
I0
sba(iArchitecture
Entity
p808
(dp809
g11
(lp810
sg13
S'android.accounts.AccountManager$13'
p811
sg15
(lp812
sg17
(lp813
sg19
(lp814
sg21
I0
sba(iArchitecture
Entity
p815
(dp816
g11
(lp817
sg13
S'android.accounts.AccountManager$14'
p818
sg15
(lp819
sg17
(lp820
sg19
(lp821
sg21
I0
sba(iArchitecture
Entity
p822
(dp823
g11
(lp824
sg13
S'android.accounts.AccountManager$15'
p825
sg15
(lp826
sg17
(lp827
sg19
(lp828
sg21
I0
sba(iArchitecture
Entity
p829
(dp830
g11
(lp831
sg13
S'android.accounts.AccountManager$16'
p832
sg15
(lp833
sg17
(lp834
sg19
(lp835
sg21
I0
sba(iArchitecture
Entity
p836
(dp837
g11
(lp838
sg13
S'android.accounts.AccountManager$17'
p839
sg15
(lp840
sg17
(lp841
sg19
(lp842
sg21
I0
sba(iArchitecture
Entity
p843
(dp844
g11
(lp845
sg13
S'android.accounts.AccountManager$18'
p846
sg15
(lp847
sg17
(lp848
sg19
(lp849
sg21
I0
sba(iArchitecture
Entity
p850
(dp851
g11
(lp852
sg13
S'android.accounts.AccountManager$19'
p853
sg15
(lp854
sg17
(lp855
sg19
(lp856
sg21
I0
sba(iArchitecture
Entity
p857
(dp858
g11
(lp859
sg13
S'android.accounts.AccountManager$2'
p860
sg15
(lp861
sg17
(lp862
sg19
(lp863
sg21
I0
sba(iArchitecture
Entity
p864
(dp865
g11
(lp866
sg13
S'android.accounts.AccountManager$20'
p867
sg15
(lp868
sg17
(lp869
sg19
(lp870
sg21
I0
sba(iArchitecture
Entity
p871
(dp872
g11
(lp873
sg13
S'android.accounts.AccountManager$21'
p874
sg15
(lp875
sg17
(lp876
sg19
(lp877
sg21
I0
sba(iArchitecture
Entity
p878
(dp879
g11
(lp880
sg13
S'android.accounts.AccountManager$22'
p881
sg15
(lp882
sg17
(lp883
sg19
(lp884
sg21
I0
sba(iArchitecture
Entity
p885
(dp886
g11
(lp887
sg13
S'android.accounts.AccountManager$23'
p888
sg15
(lp889
sg17
(lp890
sg19
(lp891
sg21
I0
sba(iArchitecture
Entity
p892
(dp893
g11
(lp894
sg13
S'android.accounts.AccountManager$3'
p895
sg15
(lp896
sg17
(lp897
sg19
(lp898
sg21
I0
sba(iArchitecture
Entity
p899
(dp900
g11
(lp901
sg13
S'android.accounts.AccountManager$4'
p902
sg15
(lp903
sg17
(lp904
sg19
(lp905
sg21
I0
sba(iArchitecture
Entity
p906
(dp907
g11
(lp908
sg13
S'android.accounts.AccountManager$5'
p909
sg15
(lp910
sg17
(lp911
sg19
(lp912
sg21
I0
sba(iArchitecture
Entity
p913
(dp914
g11
(lp915
sg13
S'android.accounts.AccountManager$6'
p916
sg15
(lp917
sg17
(lp918
sg19
(lp919
sg21
I0
sba(iArchitecture
Entity
p920
(dp921
g11
(lp922
sg13
S'android.accounts.AccountManager$7'
p923
sg15
(lp924
sg17
(lp925
sg19
(lp926
sg21
I0
sba(iArchitecture
Entity
p927
(dp928
g11
(lp929
sg13
S'android.accounts.AccountManager$8'
p930
sg15
(lp931
sg17
(lp932
sg19
(lp933
sg21
I0
sba(iArchitecture
Entity
p934
(dp935
g11
(lp936
sg13
S'android.accounts.AccountManager$9'
p937
sg15
(lp938
sg17
(lp939
sg19
(lp940
sg21
I0
sba(iArchitecture
Entity
p941
(dp942
g11
(lp943
sg13
S'android.accounts.AccountManager$AmsTask'
p944
sg15
(lp945
sg17
(lp946
sg19
(lp947
sg21
I0
sba(iArchitecture
Entity
p948
(dp949
g11
(lp950
sg13
S'android.accounts.AccountManager$AmsTask$1'
p951
sg15
(lp952
sg17
(lp953
sg19
(lp954
sg21
I0
sba(iArchitecture
Entity
p955
(dp956
g11
(lp957
sg13
S'android.accounts.AccountManager$AmsTask$Response'
p958
sg15
(lp959
sg17
(lp960
sg19
(lp961
sg21
I0
sba(iArchitecture
Entity
p962
(dp963
g11
(lp964
sg13
S'android.accounts.AccountManager$BaseFutureTask'
p965
sg15
(lp966
sg17
(lp967
sg19
(lp968
sg21
I0
sba(iArchitecture
Entity
p969
(dp970
g11
(lp971
sg13
S'android.accounts.AccountManager$BaseFutureTask$1'
p972
sg15
(lp973
sg17
(lp974
sg19
(lp975
sg21
I0
sba(iArchitecture
Entity
p976
(dp977
g11
(lp978
sg13
S'android.accounts.AccountManager$BaseFutureTask$Response'
p979
sg15
(lp980
sg17
(lp981
sg19
(lp982
sg21
I0
sba(iArchitecture
Entity
p983
(dp984
g11
(lp985
sg13
S'android.accounts.AccountManager$Future2Task'
p986
sg15
(lp987
sg17
(lp988
sg19
(lp989
sg21
I0
sba(iArchitecture
Entity
p990
(dp991
g11
(lp992
sg13
S'android.accounts.AccountManager$Future2Task$1'
p993
sg15
(lp994
sg17
(lp995
sg19
(lp996
sg21
I0
sba(iArchitecture
Entity
p997
(dp998
g11
(lp999
sg13
S'android.accounts.AccountManager$GetAuthTokenByTypeAndFeaturesTask'
p1000
sg15
(lp1001
sg17
(lp1002
sg19
(lp1003
sg21
I0
sba(iArchitecture
Entity
p1004
(dp1005
g11
(lp1006
sg13
S'android.accounts.AccountManager$GetAuthTokenByTypeAndFeaturesTask$1'
p1007
sg15
(lp1008
sg17
(lp1009
sg19
(lp1010
sg21
I0
sba(iArchitecture
Entity
p1011
(dp1012
g11
(lp1013
sg13
S'android.accounts.AccountManager$GetAuthTokenByTypeAndFeaturesTask$1$1'
p1014
sg15
(lp1015
sg17
(lp1016
sg19
(lp1017
sg21
I0
sba(iArchitecture
Entity
p1018
(dp1019
g11
(lp1020
sg13
S'android.accounts.AccountManagerFuture'
p1021
sg15
(lp1022
sg17
(lp1023
sg19
(lp1024
sg21
I0
sbasg155
(lp1025
g776
ag783
ag790
ag797
ag804
ag811
ag818
ag825
ag832
ag839
ag846
ag853
ag860
ag867
ag874
ag881
ag888
ag895
ag902
ag909
ag916
ag923
ag930
ag937
ag944
ag951
ag958
ag965
ag972
ag979
ag986
ag993
ag1000
ag1007
ag1014
ag1021
asg21
I0
sg157
S'1375'
p1026
sba(iArchitecture
Cluster
p1027
(dp1028
g7
(lp1029
(iArchitecture
Entity
p1030
(dp1031
g11
(lp1032
sg13
S'android.accounts.AccountManagerResponse'
p1033
sg15
(lp1034
sg17
(lp1035
sg19
(lp1036
sg21
I0
sba(iArchitecture
Entity
p1037
(dp1038
g11
(lp1039
sg13
S'android.accounts.AccountManagerResponse$1'
p1040
sg15
(lp1041
sg17
(lp1042
sg19
(lp1043
sg21
I0
sbasg155
(lp1044
g1033
ag1040
asg21
I0
sg157
S'1383'
p1045
sba(iArchitecture
Cluster
p1046
(dp1047
g7
(lp1048
(iArchitecture
Entity
p1049
(dp1050
g11
(lp1051
sg13
S'android.accounts.AccountAuthenticatorActivity'
p1052
sg15
(lp1053
sg17
(lp1054
sg19
(lp1055
sg21
I0
sba(iArchitecture
Entity
p1056
(dp1057
g11
(lp1058
sg13
S'android.accounts.AccountAuthenticatorResponse'
p1059
sg15
(lp1060
sg17
(lp1061
sg19
(lp1062
sg21
I0
sba(iArchitecture
Entity
p1063
(dp1064
g11
(lp1065
sg13
S'android.accounts.AccountAuthenticatorResponse$1'
p1066
sg15
(lp1067
sg17
(lp1068
sg19
(lp1069
sg21
I0
sbasg155
(lp1070
g1052
ag1059
ag1066
asg21
I0
sg157
S'1414'
p1071
sba(iArchitecture
Cluster
p1072
(dp1073
g7
(lp1074
(iArchitecture
Entity
p1075
(dp1076
g11
(lp1077
sg13
S'android.accounts.ChooseTypeAndAccountActivity'
p1078
sg15
(lp1079
sg17
(lp1080
sg19
(lp1081
sg21
I0
sba(iArchitecture
Entity
p1082
(dp1083
g11
(lp1084
sg13
S'android.accounts.ChooseTypeAndAccountActivity$1'
p1085
sg15
(lp1086
sg17
(lp1087
sg19
(lp1088
sg21
I0
sbasg155
(lp1089
g1078
ag1085
asg21
I0
sg157
S'826'
p1090
sbasg530
g531
sg155
(lp1091
sg533
I00
sg157
S'7.0.0_r1'
p1092
sba.