(lp0
(iArchitecture
Architecture
p1
(dp2
S'clusters'
p3
(lp4
(iArchitecture
Cluster
p5
(dp6
S'entities'
p7
(lp8
(iArchitecture
Entity
p9
(dp10
S'issue_ids'
p11
(lp12
sS'name'
p13
S'com.android.server.storage.DeviceStorageMonitorInternal'
p14
sS'descs'
p15
(lp16
sS'labels'
p17
(lp18
sS'titles'
p19
(lp20
sS'change'
p21
I0
sbasS'classes'
p22
(lp23
g14
asg21
I0
sS'label'
p24
S'1223'
p25
sba(iArchitecture
Cluster
p26
(dp27
g7
(lp28
(iArchitecture
Entity
p29
(dp30
g11
(lp31
sg13
S'com.android.server.storage.DeviceStorageMonitorService'
p32
sg15
(lp33
sg17
(lp34
sg19
(lp35
sg21
I0
sba(iArchitecture
Entity
p36
(dp37
g11
(lp38
sg13
S'com.android.server.storage.DeviceStorageMonitorService$1'
p39
sg15
(lp40
sg17
(lp41
sg19
(lp42
sg21
I0
sba(iArchitecture
Entity
p43
(dp44
g11
(lp45
sg13
S'com.android.server.storage.DeviceStorageMonitorService$2'
p46
sg15
(lp47
sg17
(lp48
sg19
(lp49
sg21
I0
sba(iArchitecture
Entity
p50
(dp51
g11
(lp52
sg13
S'com.android.server.storage.DeviceStorageMonitorService$3'
p53
sg15
(lp54
sg17
(lp55
sg19
(lp56
sg21
I0
sba(iArchitecture
Entity
p57
(dp58
g11
(lp59
sg13
S'com.android.server.storage.DeviceStorageMonitorService$CacheFileDeletedObserver'
p60
sg15
(lp61
sg17
(lp62
sg19
(lp63
sg21
I0
sba(iArchitecture
Entity
p64
(dp65
g11
(lp66
sg13
S'com.android.server.storage.DeviceStorageMonitorService$CachePackageDataObserver'
p67
sg15
(lp68
sg17
(lp69
sg19
(lp70
sg21
I0
sbasg22
(lp71
g32
ag39
ag46
ag53
ag60
ag67
asg21
I0
sg24
S'1261'
p72
sbasS'target_sub'
p73
S'com.android.server.storage'
p74
sg22
(lp75
sS'is_component_arch'
p76
I00
sg24
S'6.0.0_r1'
p77
sba(iArchitecture
Architecture
p78
(dp79
g3
(lp80
(iArchitecture
Cluster
p81
(dp82
g7
(lp83
(iArchitecture
Entity
p84
(dp85
g11
(lp86
sg13
S'com.android.server.storage.DeviceStorageMonitorInternal'
p87
sg15
(lp88
sg17
(lp89
sg19
(lp90
sg21
I0
sbasg22
(lp91
g87
asg21
I0
sg24
S'1330'
p92
sba(iArchitecture
Cluster
p93
(dp94
g7
(lp95
(iArchitecture
Entity
p96
(dp97
g11
(lp98
sg13
S'com.android.server.storage.DeviceStorageMonitorService'
p99
sg15
(lp100
sg17
(lp101
sg19
(lp102
sg21
I0
sba(iArchitecture
Entity
p103
(dp104
g11
(lp105
sg13
S'com.android.server.storage.DeviceStorageMonitorService$1'
p106
sg15
(lp107
sg17
(lp108
sg19
(lp109
sg21
I0
sba(iArchitecture
Entity
p110
(dp111
g11
(lp112
sg13
S'com.android.server.storage.DeviceStorageMonitorService$2'
p113
sg15
(lp114
sg17
(lp115
sg19
(lp116
sg21
I0
sba(iArchitecture
Entity
p117
(dp118
g11
(lp119
sg13
S'com.android.server.storage.DeviceStorageMonitorService$3'
p120
sg15
(lp121
sg17
(lp122
sg19
(lp123
sg21
I0
sba(iArchitecture
Entity
p124
(dp125
g11
(lp126
sg13
S'com.android.server.storage.DeviceStorageMonitorService$CacheFileDeletedObserver'
p127
sg15
(lp128
sg17
(lp129
sg19
(lp130
sg21
I0
sba(iArchitecture
Entity
p131
(dp132
g11
(lp133
sg13
S'com.android.server.storage.DeviceStorageMonitorService$CachePackageDataObserver'
p134
sg15
(lp135
sg17
(lp136
sg19
(lp137
sg21
I0
sbasg22
(lp138
g99
ag106
ag113
ag120
ag127
ag134
asg21
I0
sg24
S'1401'
p139
sbasg73
g74
sg22
(lp140
sg76
I00
sg24
S'7.0.0_r1'
p141
sba.