(lp0
(iArchitecture
Architecture
p1
(dp2
S'clusters'
p3
(lp4
(iArchitecture
Cluster
p5
(dp6
S'entities'
p7
(lp8
(iArchitecture
Entity
p9
(dp10
S'issue_ids'
p11
(lp12
sS'name'
p13
S'com.android.server.job.JobCompletedListener'
p14
sS'descs'
p15
(lp16
sS'labels'
p17
(lp18
sS'titles'
p19
(lp20
sS'change'
p21
I0
sba(iArchitecture
Entity
p22
(dp23
g11
(lp24
sg13
S'com.android.server.job.StateChangedListener'
p25
sg15
(lp26
sg17
(lp27
sg19
(lp28
sg21
I0
sbasS'classes'
p29
(lp30
g14
ag25
asg21
I0
sS'label'
p31
S'1223'
p32
sba(iArchitecture
Cluster
p33
(dp34
g7
(lp35
(iArchitecture
Entity
p36
(dp37
g11
(lp38
sg13
S'com.android.server.job.JobServiceContext'
p39
sg15
(lp40
sg17
(lp41
sg19
(lp42
sg21
I0
sba(iArchitecture
Entity
p43
(dp44
g11
(lp45
sg13
S'com.android.server.job.JobServiceContext$JobServiceHandler'
p46
sg15
(lp47
sg17
(lp48
sg19
(lp49
sg21
I0
sbasg29
(lp50
g39
ag46
asg21
I0
sg31
S'1232'
p51
sba(iArchitecture
Cluster
p52
(dp53
g7
(lp54
(iArchitecture
Entity
p55
(dp56
g11
(lp57
sg13
S'com.android.server.job.controllers.BatteryController'
p58
sg15
(lp59
sg17
(lp60
sg19
(lp61
sg21
I0
sba(iArchitecture
Entity
p62
(dp63
g11
(lp64
sg13
S'com.android.server.job.controllers.BatteryController$ChargingTracker'
p65
sg15
(lp66
sg17
(lp67
sg19
(lp68
sg21
I0
sbasg29
(lp69
g58
ag65
asg21
I0
sg31
S'1261'
p70
sba(iArchitecture
Cluster
p71
(dp72
g7
(lp73
(iArchitecture
Entity
p74
(dp75
g11
(lp76
sg13
S'com.android.server.job.controllers.JobStatus'
p77
sg15
(lp78
sg17
(lp79
sg19
(lp80
sg21
I0
sbasg29
(lp81
g77
asg21
I0
sg31
S'332'
p82
sba(iArchitecture
Cluster
p83
(dp84
g7
(lp85
(iArchitecture
Entity
p86
(dp87
g11
(lp88
sg13
S'com.android.server.job.controllers.AppIdleController'
p89
sg15
(lp90
sg17
(lp91
sg19
(lp92
sg21
I0
sba(iArchitecture
Entity
p93
(dp94
g11
(lp95
sg13
S'com.android.server.job.controllers.AppIdleController$AppIdleStateChangeListener'
p96
sg15
(lp97
sg17
(lp98
sg19
(lp99
sg21
I0
sbasg29
(lp100
g89
ag96
asg21
I0
sg31
S'464'
p101
sba(iArchitecture
Cluster
p102
(dp103
g7
(lp104
(iArchitecture
Entity
p105
(dp106
g11
(lp107
sg13
S'com.android.server.job.controllers.IdleController'
p108
sg15
(lp109
sg17
(lp110
sg19
(lp111
sg21
I0
sba(iArchitecture
Entity
p112
(dp113
g11
(lp114
sg13
S'com.android.server.job.controllers.IdleController$IdlenessTracker'
p115
sg15
(lp116
sg17
(lp117
sg19
(lp118
sg21
I0
sbasg29
(lp119
g108
ag115
asg21
I0
sg31
S'492'
p120
sba(iArchitecture
Cluster
p121
(dp122
g7
(lp123
(iArchitecture
Entity
p124
(dp125
g11
(lp126
sg13
S'com.android.server.job.controllers.ConnectivityController'
p127
sg15
(lp128
sg17
(lp129
sg19
(lp130
sg21
I0
sba(iArchitecture
Entity
p131
(dp132
g11
(lp133
sg13
S'com.android.server.job.controllers.ConnectivityController$ConnectivityChangedReceiver'
p134
sg15
(lp135
sg17
(lp136
sg19
(lp137
sg21
I0
sbasg29
(lp138
g127
ag134
asg21
I0
sg31
S'523'
p139
sba(iArchitecture
Cluster
p140
(dp141
g7
(lp142
(iArchitecture
Entity
p143
(dp144
g11
(lp145
sg13
S'com.android.server.job.controllers.TimeController'
p146
sg15
(lp147
sg17
(lp148
sg19
(lp149
sg21
I0
sba(iArchitecture
Entity
p150
(dp151
g11
(lp152
sg13
S'com.android.server.job.controllers.TimeController$1'
p153
sg15
(lp154
sg17
(lp155
sg19
(lp156
sg21
I0
sbasg29
(lp157
g146
ag153
asg21
I0
sg31
S'617'
p158
sba(iArchitecture
Cluster
p159
(dp160
g7
(lp161
(iArchitecture
Entity
p162
(dp163
g11
(lp164
sg13
S'com.android.server.job.JobStore'
p165
sg15
(lp166
sg17
(lp167
sg19
(lp168
sg21
I0
sba(iArchitecture
Entity
p169
(dp170
g11
(lp171
sg13
S'com.android.server.job.JobStore$ReadJobMapFromDiskRunnable'
p172
sg15
(lp173
sg17
(lp174
sg19
(lp175
sg21
I0
sba(iArchitecture
Entity
p176
(dp177
g11
(lp178
sg13
S'com.android.server.job.JobStore$WriteJobsMapToDiskRunnable'
p179
sg15
(lp180
sg17
(lp181
sg19
(lp182
sg21
I0
sbasg29
(lp183
g165
ag172
ag179
asg21
I0
sg31
S'862'
p184
sba(iArchitecture
Cluster
p185
(dp186
g7
(lp187
(iArchitecture
Entity
p188
(dp189
g11
(lp190
sg13
S'com.android.server.job.controllers.StateController'
p191
sg15
(lp192
sg17
(lp193
sg19
(lp194
sg21
I0
sbasg29
(lp195
g191
asg21
I0
sg31
S'97'
p196
sbasS'target_sub'
p197
S'com.android.server.job'
p198
sg29
(lp199
sS'is_component_arch'
p200
I00
sg31
S'6.0.0_r1'
p201
sba(iArchitecture
Architecture
p202
(dp203
g3
(lp204
(iArchitecture
Cluster
p205
(dp206
g7
(lp207
(iArchitecture
Entity
p208
(dp209
g11
(lp210
sg13
S'com.android.server.job.controllers.AppIdleController'
p211
sg15
(lp212
sg17
(lp213
sg19
(lp214
sg21
I0
sba(iArchitecture
Entity
p215
(dp216
g11
(lp217
sg13
S'com.android.server.job.controllers.AppIdleController$1'
p218
sg15
(lp219
sg17
(lp220
sg19
(lp221
sg21
I0
sba(iArchitecture
Entity
p222
(dp223
g11
(lp224
sg13
S'com.android.server.job.controllers.AppIdleController$AppIdleStateChangeListener'
p225
sg15
(lp226
sg17
(lp227
sg19
(lp228
sg21
I0
sba(iArchitecture
Entity
p229
(dp230
g11
(lp231
sg13
S'com.android.server.job.controllers.AppIdleController$GlobalUpdateFunc'
p232
sg15
(lp233
sg17
(lp234
sg19
(lp235
sg21
I0
sba(iArchitecture
Entity
p236
(dp237
g11
(lp238
sg13
S'com.android.server.job.controllers.AppIdleController$PackageUpdateFunc'
p239
sg15
(lp240
sg17
(lp241
sg19
(lp242
sg21
I0
sbasg29
(lp243
g211
ag218
ag225
ag232
ag239
asg21
I0
sg31
S'1047'
p244
sba(iArchitecture
Cluster
p245
(dp246
g7
(lp247
(iArchitecture
Entity
p248
(dp249
g11
(lp250
sg13
S'com.android.server.job.JobStore'
p251
sg15
(lp252
sg17
(lp253
sg19
(lp254
sg21
I0
sba(iArchitecture
Entity
p255
(dp256
g11
(lp257
sg13
S'com.android.server.job.JobStore$JobSet'
p258
sg15
(lp259
sg17
(lp260
sg19
(lp261
sg21
I0
sba(iArchitecture
Entity
p262
(dp263
g11
(lp264
sg13
S'com.android.server.job.JobStore$JobStatusFunctor'
p265
sg15
(lp266
sg17
(lp267
sg19
(lp268
sg21
I0
sba(iArchitecture
Entity
p269
(dp270
g11
(lp271
sg13
S'com.android.server.job.JobStore$ReadJobMapFromDiskRunnable'
p272
sg15
(lp273
sg17
(lp274
sg19
(lp275
sg21
I0
sba(iArchitecture
Entity
p276
(dp277
g11
(lp278
sg13
S'com.android.server.job.JobStore$WriteJobsMapToDiskRunnable'
p279
sg15
(lp280
sg17
(lp281
sg19
(lp282
sg21
I0
sba(iArchitecture
Entity
p283
(dp284
g11
(lp285
sg13
S'com.android.server.job.JobStore$WriteJobsMapToDiskRunnable$1'
p286
sg15
(lp287
sg17
(lp288
sg19
(lp289
sg21
I0
sbasg29
(lp290
g251
ag258
ag265
ag272
ag279
ag286
asg21
I0
sg31
S'1125'
p291
sba(iArchitecture
Cluster
p292
(dp293
g7
(lp294
(iArchitecture
Entity
p295
(dp296
g11
(lp297
sg13
S'com.android.server.job.JobCompletedListener'
p298
sg15
(lp299
sg17
(lp300
sg19
(lp301
sg21
I0
sba(iArchitecture
Entity
p302
(dp303
g11
(lp304
sg13
S'com.android.server.job.JobSchedulerInternal'
p305
sg15
(lp306
sg17
(lp307
sg19
(lp308
sg21
I0
sba(iArchitecture
Entity
p309
(dp310
g11
(lp311
sg13
S'com.android.server.job.StateChangedListener'
p312
sg15
(lp313
sg17
(lp314
sg19
(lp315
sg21
I0
sba(iArchitecture
Entity
p316
(dp317
g11
(lp318
sg13
S'com.android.server.job.controllers.StateController'
p319
sg15
(lp320
sg17
(lp321
sg19
(lp322
sg21
I0
sbasg29
(lp323
g298
ag305
ag312
ag319
asg21
I0
sg31
S'1330'
p324
sba(iArchitecture
Cluster
p325
(dp326
g7
(lp327
(iArchitecture
Entity
p328
(dp329
g11
(lp330
sg13
S'com.android.server.job.controllers.DeviceIdleJobsController'
p331
sg15
(lp332
sg17
(lp333
sg19
(lp334
sg21
I0
sba(iArchitecture
Entity
p335
(dp336
g11
(lp337
sg13
S'com.android.server.job.controllers.DeviceIdleJobsController$1'
p338
sg15
(lp339
sg17
(lp340
sg19
(lp341
sg21
I0
sba(iArchitecture
Entity
p342
(dp343
g11
(lp344
sg13
S'com.android.server.job.controllers.DeviceIdleJobsController$2'
p345
sg15
(lp346
sg17
(lp347
sg19
(lp348
sg21
I0
sba(iArchitecture
Entity
p349
(dp350
g11
(lp351
sg13
S'com.android.server.job.controllers.DeviceIdleJobsController$3'
p352
sg15
(lp353
sg17
(lp354
sg19
(lp355
sg21
I0
sba(iArchitecture
Entity
p356
(dp357
g11
(lp358
sg13
S'com.android.server.job.controllers.IdleController'
p359
sg15
(lp360
sg17
(lp361
sg19
(lp362
sg21
I0
sba(iArchitecture
Entity
p363
(dp364
g11
(lp365
sg13
S'com.android.server.job.controllers.IdleController$IdlenessTracker'
p366
sg15
(lp367
sg17
(lp368
sg19
(lp369
sg21
I0
sbasg29
(lp370
g331
ag338
ag345
ag352
ag359
ag366
asg21
I0
sg31
S'1349'
p371
sba(iArchitecture
Cluster
p372
(dp373
g7
(lp374
(iArchitecture
Entity
p375
(dp376
g11
(lp377
sg13
S'com.android.server.job.controllers.BatteryController'
p378
sg15
(lp379
sg17
(lp380
sg19
(lp381
sg21
I0
sba(iArchitecture
Entity
p382
(dp383
g11
(lp384
sg13
S'com.android.server.job.controllers.BatteryController$ChargingTracker'
p385
sg15
(lp386
sg17
(lp387
sg19
(lp388
sg21
I0
sba(iArchitecture
Entity
p389
(dp390
g11
(lp391
sg13
S'com.android.server.job.controllers.ConnectivityController'
p392
sg15
(lp393
sg17
(lp394
sg19
(lp395
sg21
I0
sba(iArchitecture
Entity
p396
(dp397
g11
(lp398
sg13
S'com.android.server.job.controllers.ConnectivityController$1'
p399
sg15
(lp400
sg17
(lp401
sg19
(lp402
sg21
I0
sba(iArchitecture
Entity
p403
(dp404
g11
(lp405
sg13
S'com.android.server.job.controllers.ConnectivityController$2'
p406
sg15
(lp407
sg17
(lp408
sg19
(lp409
sg21
I0
sbasg29
(lp410
g378
ag385
ag392
ag399
ag406
asg21
I0
sg31
S'1401'
p411
sba(iArchitecture
Cluster
p412
(dp413
g7
(lp414
(iArchitecture
Entity
p415
(dp416
g11
(lp417
sg13
S'com.android.server.job.controllers.JobStatus'
p418
sg15
(lp419
sg17
(lp420
sg19
(lp421
sg21
I0
sbasg29
(lp422
g418
asg21
I0
sg31
S'363'
p423
sba(iArchitecture
Cluster
p424
(dp425
g7
(lp426
(iArchitecture
Entity
p427
(dp428
g11
(lp429
sg13
S'com.android.server.job.JobServiceContext'
p430
sg15
(lp431
sg17
(lp432
sg19
(lp433
sg21
I0
sba(iArchitecture
Entity
p434
(dp435
g11
(lp436
sg13
S'com.android.server.job.JobServiceContext$JobServiceHandler'
p437
sg15
(lp438
sg17
(lp439
sg19
(lp440
sg21
I0
sbasg29
(lp441
g430
ag437
asg21
I0
sg31
S'502'
p442
sba(iArchitecture
Cluster
p443
(dp444
g7
(lp445
(iArchitecture
Entity
p446
(dp447
g11
(lp448
sg13
S'com.android.server.job.JobPackageTracker'
p449
sg15
(lp450
sg17
(lp451
sg19
(lp452
sg21
I0
sba(iArchitecture
Entity
p453
(dp454
g11
(lp455
sg13
S'com.android.server.job.JobPackageTracker$DataSet'
p456
sg15
(lp457
sg17
(lp458
sg19
(lp459
sg21
I0
sba(iArchitecture
Entity
p460
(dp461
g11
(lp462
sg13
S'com.android.server.job.JobPackageTracker$PackageEntry'
p463
sg15
(lp464
sg17
(lp465
sg19
(lp466
sg21
I0
sbasg29
(lp467
g449
ag456
ag463
asg21
I0
sg31
S'855'
p468
sba(iArchitecture
Cluster
p469
(dp470
g7
(lp471
(iArchitecture
Entity
p472
(dp473
g11
(lp474
sg13
S'com.android.server.job.controllers.ContentObserverController'
p475
sg15
(lp476
sg17
(lp477
sg19
(lp478
sg21
I0
sba(iArchitecture
Entity
p479
(dp480
g11
(lp481
sg13
S'com.android.server.job.controllers.ContentObserverController$JobInstance'
p482
sg15
(lp483
sg17
(lp484
sg19
(lp485
sg21
I0
sba(iArchitecture
Entity
p486
(dp487
g11
(lp488
sg13
S'com.android.server.job.controllers.ContentObserverController$ObserverInstance'
p489
sg15
(lp490
sg17
(lp491
sg19
(lp492
sg21
I0
sba(iArchitecture
Entity
p493
(dp494
g11
(lp495
sg13
S'com.android.server.job.controllers.ContentObserverController$TriggerRunnable'
p496
sg15
(lp497
sg17
(lp498
sg19
(lp499
sg21
I0
sbasg29
(lp500
g475
ag482
ag489
ag496
asg21
I0
sg31
S'938'
p501
sba(iArchitecture
Cluster
p502
(dp503
g7
(lp504
(iArchitecture
Entity
p505
(dp506
g11
(lp507
sg13
S'com.android.server.job.controllers.TimeController'
p508
sg15
(lp509
sg17
(lp510
sg19
(lp511
sg21
I0
sba(iArchitecture
Entity
p512
(dp513
g11
(lp514
sg13
S'com.android.server.job.controllers.TimeController$1'
p515
sg15
(lp516
sg17
(lp517
sg19
(lp518
sg21
I0
sba(iArchitecture
Entity
p519
(dp520
g11
(lp521
sg13
S'com.android.server.job.controllers.TimeController$2'
p522
sg15
(lp523
sg17
(lp524
sg19
(lp525
sg21
I0
sbasg29
(lp526
g508
ag515
ag522
asg21
I0
sg31
S'969'
p527
sbasg197
g198
sg29
(lp528
sg200
I00
sg31
S'7.0.0_r1'
p529
sba.