(lp0
(iArchitecture
Architecture
p1
(dp2
S'clusters'
p3
(lp4
(iArchitecture
Cluster
p5
(dp6
S'entities'
p7
(lp8
(iArchitecture
Entity
p9
(dp10
S'issue_ids'
p11
(lp12
sS'name'
p13
S'android.net.http.X509TrustManagerExtensions'
p14
sS'descs'
p15
(lp16
sS'labels'
p17
(lp18
sS'titles'
p19
(lp20
sS'change'
p21
I0
sbasS'classes'
p22
(lp23
g14
asg21
I0
sS'label'
p24
S'101'
p25
sba(iArchitecture
Cluster
p26
(dp27
g7
(lp28
(iArchitecture
Entity
p29
(dp30
g11
(lp31
sg13
S'android.net.netlink.NetlinkMessage'
p32
sg15
(lp33
sg17
(lp34
sg19
(lp35
sg21
I0
sbasg22
(lp36
g32
asg21
I0
sg24
S'106'
p37
sba(iArchitecture
Cluster
p38
(dp39
g7
(lp40
(iArchitecture
Entity
p41
(dp42
g11
(lp43
sg13
S'android.net.Uri'
p44
sg15
(lp45
sg17
(lp46
sg19
(lp47
sg21
I0
sba(iArchitecture
Entity
p48
(dp49
g11
(lp50
sg13
S'android.net.Uri$1'
p51
sg15
(lp52
sg17
(lp53
sg19
(lp54
sg21
I0
sba(iArchitecture
Entity
p55
(dp56
g11
(lp57
sg13
S'android.net.Uri$AbstractHierarchicalUri'
p58
sg15
(lp59
sg17
(lp60
sg19
(lp61
sg21
I0
sba(iArchitecture
Entity
p62
(dp63
g11
(lp64
sg13
S'android.net.Uri$AbstractPart'
p65
sg15
(lp66
sg17
(lp67
sg19
(lp68
sg21
I0
sba(iArchitecture
Entity
p69
(dp70
g11
(lp71
sg13
S'android.net.Uri$AbstractPart$Representation'
p72
sg15
(lp73
sg17
(lp74
sg19
(lp75
sg21
I0
sba(iArchitecture
Entity
p76
(dp77
g11
(lp78
sg13
S'android.net.Uri$Builder'
p79
sg15
(lp80
sg17
(lp81
sg19
(lp82
sg21
I0
sba(iArchitecture
Entity
p83
(dp84
g11
(lp85
sg13
S'android.net.Uri$HierarchicalUri'
p86
sg15
(lp87
sg17
(lp88
sg19
(lp89
sg21
I0
sba(iArchitecture
Entity
p90
(dp91
g11
(lp92
sg13
S'android.net.Uri$OpaqueUri'
p93
sg15
(lp94
sg17
(lp95
sg19
(lp96
sg21
I0
sba(iArchitecture
Entity
p97
(dp98
g11
(lp99
sg13
S'android.net.Uri$Part'
p100
sg15
(lp101
sg17
(lp102
sg19
(lp103
sg21
I0
sba(iArchitecture
Entity
p104
(dp105
g11
(lp106
sg13
S'android.net.Uri$Part$EmptyPart'
p107
sg15
(lp108
sg17
(lp109
sg19
(lp110
sg21
I0
sba(iArchitecture
Entity
p111
(dp112
g11
(lp113
sg13
S'android.net.Uri$PathPart'
p114
sg15
(lp115
sg17
(lp116
sg19
(lp117
sg21
I0
sba(iArchitecture
Entity
p118
(dp119
g11
(lp120
sg13
S'android.net.Uri$PathSegments'
p121
sg15
(lp122
sg17
(lp123
sg19
(lp124
sg21
I0
sba(iArchitecture
Entity
p125
(dp126
g11
(lp127
sg13
S'android.net.Uri$PathSegmentsBuilder'
p128
sg15
(lp129
sg17
(lp130
sg19
(lp131
sg21
I0
sba(iArchitecture
Entity
p132
(dp133
g11
(lp134
sg13
S'android.net.Uri$StringUri'
p135
sg15
(lp136
sg17
(lp137
sg19
(lp138
sg21
I0
sbasg22
(lp139
g44
ag51
ag58
ag65
ag72
ag79
ag86
ag93
ag100
ag107
ag114
ag121
ag128
ag135
asg21
I0
sg24
S'1076'
p140
sba(iArchitecture
Cluster
p141
(dp142
g7
(lp143
(iArchitecture
Entity
p144
(dp145
g11
(lp146
sg13
S'android.net.wifi.RttManager'
p147
sg15
(lp148
sg17
(lp149
sg19
(lp150
sg21
I0
sba(iArchitecture
Entity
p151
(dp152
g11
(lp153
sg13
S'android.net.wifi.RttManager$Capabilities'
p154
sg15
(lp155
sg17
(lp156
sg19
(lp157
sg21
I0
sba(iArchitecture
Entity
p158
(dp159
g11
(lp160
sg13
S'android.net.wifi.RttManager$ParcelableRttParams'
p161
sg15
(lp162
sg17
(lp163
sg19
(lp164
sg21
I0
sba(iArchitecture
Entity
p165
(dp166
g11
(lp167
sg13
S'android.net.wifi.RttManager$ParcelableRttParams$1'
p168
sg15
(lp169
sg17
(lp170
sg19
(lp171
sg21
I0
sba(iArchitecture
Entity
p172
(dp173
g11
(lp174
sg13
S'android.net.wifi.RttManager$ParcelableRttResults'
p175
sg15
(lp176
sg17
(lp177
sg19
(lp178
sg21
I0
sba(iArchitecture
Entity
p179
(dp180
g11
(lp181
sg13
S'android.net.wifi.RttManager$ParcelableRttResults$1'
p182
sg15
(lp183
sg17
(lp184
sg19
(lp185
sg21
I0
sba(iArchitecture
Entity
p186
(dp187
g11
(lp188
sg13
S'android.net.wifi.RttManager$RttCapabilities'
p189
sg15
(lp190
sg17
(lp191
sg19
(lp192
sg21
I0
sba(iArchitecture
Entity
p193
(dp194
g11
(lp195
sg13
S'android.net.wifi.RttManager$RttCapabilities$1'
p196
sg15
(lp197
sg17
(lp198
sg19
(lp199
sg21
I0
sba(iArchitecture
Entity
p200
(dp201
g11
(lp202
sg13
S'android.net.wifi.RttManager$RttListener'
p203
sg15
(lp204
sg17
(lp205
sg19
(lp206
sg21
I0
sba(iArchitecture
Entity
p207
(dp208
g11
(lp209
sg13
S'android.net.wifi.RttManager$RttParams'
p210
sg15
(lp211
sg17
(lp212
sg19
(lp213
sg21
I0
sba(iArchitecture
Entity
p214
(dp215
g11
(lp216
sg13
S'android.net.wifi.RttManager$RttResult'
p217
sg15
(lp218
sg17
(lp219
sg19
(lp220
sg21
I0
sba(iArchitecture
Entity
p221
(dp222
g11
(lp223
sg13
S'android.net.wifi.RttManager$ServiceHandler'
p224
sg15
(lp225
sg17
(lp226
sg19
(lp227
sg21
I0
sba(iArchitecture
Entity
p228
(dp229
g11
(lp230
sg13
S'android.net.wifi.RttManager$WifiInformationElement'
p231
sg15
(lp232
sg17
(lp233
sg19
(lp234
sg21
I0
sbasg22
(lp235
g147
ag154
ag161
ag168
ag175
ag182
ag189
ag196
ag203
ag210
ag217
ag224
ag231
asg21
I0
sg24
S'1080'
p236
sba(iArchitecture
Cluster
p237
(dp238
g7
(lp239
(iArchitecture
Entity
p240
(dp241
g11
(lp242
sg13
S'android.net.wifi.p2p.WifiP2pManager'
p243
sg15
(lp244
sg17
(lp245
sg19
(lp246
sg21
I0
sba(iArchitecture
Entity
p247
(dp248
g11
(lp249
sg13
S'android.net.wifi.p2p.WifiP2pManager$ActionListener'
p250
sg15
(lp251
sg17
(lp252
sg19
(lp253
sg21
I0
sba(iArchitecture
Entity
p254
(dp255
g11
(lp256
sg13
S'android.net.wifi.p2p.WifiP2pManager$Channel'
p257
sg15
(lp258
sg17
(lp259
sg19
(lp260
sg21
I0
sba(iArchitecture
Entity
p261
(dp262
g11
(lp263
sg13
S'android.net.wifi.p2p.WifiP2pManager$Channel$P2pHandler'
p264
sg15
(lp265
sg17
(lp266
sg19
(lp267
sg21
I0
sba(iArchitecture
Entity
p268
(dp269
g11
(lp270
sg13
S'android.net.wifi.p2p.WifiP2pManager$ChannelListener'
p271
sg15
(lp272
sg17
(lp273
sg19
(lp274
sg21
I0
sba(iArchitecture
Entity
p275
(dp276
g11
(lp277
sg13
S'android.net.wifi.p2p.WifiP2pManager$ConnectionInfoListener'
p278
sg15
(lp279
sg17
(lp280
sg19
(lp281
sg21
I0
sba(iArchitecture
Entity
p282
(dp283
g11
(lp284
sg13
S'android.net.wifi.p2p.WifiP2pManager$DnsSdServiceResponseListener'
p285
sg15
(lp286
sg17
(lp287
sg19
(lp288
sg21
I0
sba(iArchitecture
Entity
p289
(dp290
g11
(lp291
sg13
S'android.net.wifi.p2p.WifiP2pManager$DnsSdTxtRecordListener'
p292
sg15
(lp293
sg17
(lp294
sg19
(lp295
sg21
I0
sba(iArchitecture
Entity
p296
(dp297
g11
(lp298
sg13
S'android.net.wifi.p2p.WifiP2pManager$GroupInfoListener'
p299
sg15
(lp300
sg17
(lp301
sg19
(lp302
sg21
I0
sba(iArchitecture
Entity
p303
(dp304
g11
(lp305
sg13
S'android.net.wifi.p2p.WifiP2pManager$HandoverMessageListener'
p306
sg15
(lp307
sg17
(lp308
sg19
(lp309
sg21
I0
sba(iArchitecture
Entity
p310
(dp311
g11
(lp312
sg13
S'android.net.wifi.p2p.WifiP2pManager$PeerListListener'
p313
sg15
(lp314
sg17
(lp315
sg19
(lp316
sg21
I0
sba(iArchitecture
Entity
p317
(dp318
g11
(lp319
sg13
S'android.net.wifi.p2p.WifiP2pManager$PersistentGroupInfoListener'
p320
sg15
(lp321
sg17
(lp322
sg19
(lp323
sg21
I0
sba(iArchitecture
Entity
p324
(dp325
g11
(lp326
sg13
S'android.net.wifi.p2p.WifiP2pManager$ServiceResponseListener'
p327
sg15
(lp328
sg17
(lp329
sg19
(lp330
sg21
I0
sba(iArchitecture
Entity
p331
(dp332
g11
(lp333
sg13
S'android.net.wifi.p2p.WifiP2pManager$UpnpServiceResponseListener'
p334
sg15
(lp335
sg17
(lp336
sg19
(lp337
sg21
I0
sbasg22
(lp338
g243
ag250
ag257
ag264
ag271
ag278
ag285
ag292
ag299
ag306
ag313
ag320
ag327
ag334
asg21
I0
sg24
S'1082'
p339
sba(iArchitecture
Cluster
p340
(dp341
g7
(lp342
(iArchitecture
Entity
p343
(dp344
g11
(lp345
sg13
S'android.net.wifi.WifiScanner'
p346
sg15
(lp347
sg17
(lp348
sg19
(lp349
sg21
I0
sba(iArchitecture
Entity
p350
(dp351
g11
(lp352
sg13
S'android.net.wifi.WifiScanner$ActionListener'
p353
sg15
(lp354
sg17
(lp355
sg19
(lp356
sg21
I0
sba(iArchitecture
Entity
p357
(dp358
g11
(lp359
sg13
S'android.net.wifi.WifiScanner$BssidInfo'
p360
sg15
(lp361
sg17
(lp362
sg19
(lp363
sg21
I0
sba(iArchitecture
Entity
p364
(dp365
g11
(lp366
sg13
S'android.net.wifi.WifiScanner$BssidListener'
p367
sg15
(lp368
sg17
(lp369
sg19
(lp370
sg21
I0
sba(iArchitecture
Entity
p371
(dp372
g11
(lp373
sg13
S'android.net.wifi.WifiScanner$ChannelSpec'
p374
sg15
(lp375
sg17
(lp376
sg19
(lp377
sg21
I0
sba(iArchitecture
Entity
p378
(dp379
g11
(lp380
sg13
S'android.net.wifi.WifiScanner$HotlistSettings'
p381
sg15
(lp382
sg17
(lp383
sg19
(lp384
sg21
I0
sba(iArchitecture
Entity
p385
(dp386
g11
(lp387
sg13
S'android.net.wifi.WifiScanner$HotlistSettings$1'
p388
sg15
(lp389
sg17
(lp390
sg19
(lp391
sg21
I0
sba(iArchitecture
Entity
p392
(dp393
g11
(lp394
sg13
S'android.net.wifi.WifiScanner$OperationResult'
p395
sg15
(lp396
sg17
(lp397
sg19
(lp398
sg21
I0
sba(iArchitecture
Entity
p399
(dp400
g11
(lp401
sg13
S'android.net.wifi.WifiScanner$OperationResult$1'
p402
sg15
(lp403
sg17
(lp404
sg19
(lp405
sg21
I0
sba(iArchitecture
Entity
p406
(dp407
g11
(lp408
sg13
S'android.net.wifi.WifiScanner$ParcelableScanData'
p409
sg15
(lp410
sg17
(lp411
sg19
(lp412
sg21
I0
sba(iArchitecture
Entity
p413
(dp414
g11
(lp415
sg13
S'android.net.wifi.WifiScanner$ParcelableScanData$1'
p416
sg15
(lp417
sg17
(lp418
sg19
(lp419
sg21
I0
sba(iArchitecture
Entity
p420
(dp421
g11
(lp422
sg13
S'android.net.wifi.WifiScanner$ParcelableScanResults'
p423
sg15
(lp424
sg17
(lp425
sg19
(lp426
sg21
I0
sba(iArchitecture
Entity
p427
(dp428
g11
(lp429
sg13
S'android.net.wifi.WifiScanner$ParcelableScanResults$1'
p430
sg15
(lp431
sg17
(lp432
sg19
(lp433
sg21
I0
sba(iArchitecture
Entity
p434
(dp435
g11
(lp436
sg13
S'android.net.wifi.WifiScanner$ScanData'
p437
sg15
(lp438
sg17
(lp439
sg19
(lp440
sg21
I0
sba(iArchitecture
Entity
p441
(dp442
g11
(lp443
sg13
S'android.net.wifi.WifiScanner$ScanData$1'
p444
sg15
(lp445
sg17
(lp446
sg19
(lp447
sg21
I0
sba(iArchitecture
Entity
p448
(dp449
g11
(lp450
sg13
S'android.net.wifi.WifiScanner$ScanListener'
p451
sg15
(lp452
sg17
(lp453
sg19
(lp454
sg21
I0
sba(iArchitecture
Entity
p455
(dp456
g11
(lp457
sg13
S'android.net.wifi.WifiScanner$ScanSettings'
p458
sg15
(lp459
sg17
(lp460
sg19
(lp461
sg21
I0
sba(iArchitecture
Entity
p462
(dp463
g11
(lp464
sg13
S'android.net.wifi.WifiScanner$ScanSettings$1'
p465
sg15
(lp466
sg17
(lp467
sg19
(lp468
sg21
I0
sba(iArchitecture
Entity
p469
(dp470
g11
(lp471
sg13
S'android.net.wifi.WifiScanner$ServiceHandler'
p472
sg15
(lp473
sg17
(lp474
sg19
(lp475
sg21
I0
sba(iArchitecture
Entity
p476
(dp477
g11
(lp478
sg13
S'android.net.wifi.WifiScanner$WifiChangeListener'
p479
sg15
(lp480
sg17
(lp481
sg19
(lp482
sg21
I0
sba(iArchitecture
Entity
p483
(dp484
g11
(lp485
sg13
S'android.net.wifi.WifiScanner$WifiChangeSettings'
p486
sg15
(lp487
sg17
(lp488
sg19
(lp489
sg21
I0
sba(iArchitecture
Entity
p490
(dp491
g11
(lp492
sg13
S'android.net.wifi.WifiScanner$WifiChangeSettings$1'
p493
sg15
(lp494
sg17
(lp495
sg19
(lp496
sg21
I0
sbasg22
(lp497
g346
ag353
ag360
ag367
ag374
ag381
ag388
ag395
ag402
ag409
ag416
ag423
ag430
ag437
ag444
ag451
ag458
ag465
ag472
ag479
ag486
ag493
asg21
I0
sg24
S'1090'
p498
sba(iArchitecture
Cluster
p499
(dp500
g7
(lp501
(iArchitecture
Entity
p502
(dp503
g11
(lp504
sg13
S'android.net.dhcp.DhcpAckPacket'
p505
sg15
(lp506
sg17
(lp507
sg19
(lp508
sg21
I0
sba(iArchitecture
Entity
p509
(dp510
g11
(lp511
sg13
S'android.net.dhcp.DhcpDeclinePacket'
p512
sg15
(lp513
sg17
(lp514
sg19
(lp515
sg21
I0
sba(iArchitecture
Entity
p516
(dp517
g11
(lp518
sg13
S'android.net.dhcp.DhcpDiscoverPacket'
p519
sg15
(lp520
sg17
(lp521
sg19
(lp522
sg21
I0
sba(iArchitecture
Entity
p523
(dp524
g11
(lp525
sg13
S'android.net.dhcp.DhcpInformPacket'
p526
sg15
(lp527
sg17
(lp528
sg19
(lp529
sg21
I0
sba(iArchitecture
Entity
p530
(dp531
g11
(lp532
sg13
S'android.net.dhcp.DhcpNakPacket'
p533
sg15
(lp534
sg17
(lp535
sg19
(lp536
sg21
I0
sba(iArchitecture
Entity
p537
(dp538
g11
(lp539
sg13
S'android.net.dhcp.DhcpOfferPacket'
p540
sg15
(lp541
sg17
(lp542
sg19
(lp543
sg21
I0
sba(iArchitecture
Entity
p544
(dp545
g11
(lp546
sg13
S'android.net.dhcp.DhcpRequestPacket'
p547
sg15
(lp548
sg17
(lp549
sg19
(lp550
sg21
I0
sbasg22
(lp551
g505
ag512
ag519
ag526
ag533
ag540
ag547
asg21
I0
sg24
S'1114'
p552
sba(iArchitecture
Cluster
p553
(dp554
g7
(lp555
(iArchitecture
Entity
p556
(dp557
g11
(lp558
sg13
S'android.net.netlink.RtNetlinkNeighborMessage'
p559
sg15
(lp560
sg17
(lp561
sg19
(lp562
sg21
I0
sba(iArchitecture
Entity
p563
(dp564
g11
(lp565
sg13
S'android.net.netlink.StructNlAttr'
p566
sg15
(lp567
sg17
(lp568
sg19
(lp569
sg21
I0
sba(iArchitecture
Entity
p570
(dp571
g11
(lp572
sg13
S'android.net.netlink.StructNlMsgHdr'
p573
sg15
(lp574
sg17
(lp575
sg19
(lp576
sg21
I0
sbasg22
(lp577
g559
ag566
ag573
asg21
I0
sg24
S'1137'
p578
sba(iArchitecture
Cluster
p579
(dp580
g7
(lp581
(iArchitecture
Entity
p582
(dp583
g11
(lp584
sg13
S'android.net.nsd.NsdManager'
p585
sg15
(lp586
sg17
(lp587
sg19
(lp588
sg21
I0
sba(iArchitecture
Entity
p589
(dp590
g11
(lp591
sg13
S'android.net.nsd.NsdManager$DiscoveryListener'
p592
sg15
(lp593
sg17
(lp594
sg19
(lp595
sg21
I0
sba(iArchitecture
Entity
p596
(dp597
g11
(lp598
sg13
S'android.net.nsd.NsdManager$RegistrationListener'
p599
sg15
(lp600
sg17
(lp601
sg19
(lp602
sg21
I0
sba(iArchitecture
Entity
p603
(dp604
g11
(lp605
sg13
S'android.net.nsd.NsdManager$ResolveListener'
p606
sg15
(lp607
sg17
(lp608
sg19
(lp609
sg21
I0
sba(iArchitecture
Entity
p610
(dp611
g11
(lp612
sg13
S'android.net.nsd.NsdManager$ServiceHandler'
p613
sg15
(lp614
sg17
(lp615
sg19
(lp616
sg21
I0
sbasg22
(lp617
g585
ag592
ag599
ag606
ag613
asg21
I0
sg24
S'1153'
p618
sba(iArchitecture
Cluster
p619
(dp620
g7
(lp621
(iArchitecture
Entity
p622
(dp623
g11
(lp624
sg13
S'android.net.wifi.WifiActivityEnergyInfo'
p625
sg15
(lp626
sg17
(lp627
sg19
(lp628
sg21
I0
sba(iArchitecture
Entity
p629
(dp630
g11
(lp631
sg13
S'android.net.wifi.WifiActivityEnergyInfo$1'
p632
sg15
(lp633
sg17
(lp634
sg19
(lp635
sg21
I0
sbasg22
(lp636
g625
ag632
asg21
I0
sg24
S'1155'
p637
sba(iArchitecture
Cluster
p638
(dp639
g7
(lp640
(iArchitecture
Entity
p641
(dp642
g11
(lp643
sg13
S'android.net.dhcp.DhcpClient'
p644
sg15
(lp645
sg17
(lp646
sg19
(lp647
sg21
I0
sba(iArchitecture
Entity
p648
(dp649
g11
(lp650
sg13
S'android.net.dhcp.DhcpClient$1'
p651
sg15
(lp652
sg17
(lp653
sg19
(lp654
sg21
I0
sba(iArchitecture
Entity
p655
(dp656
g11
(lp657
sg13
S'android.net.dhcp.DhcpClient$DhcpBoundState'
p658
sg15
(lp659
sg17
(lp660
sg19
(lp661
sg21
I0
sba(iArchitecture
Entity
p662
(dp663
g11
(lp664
sg13
S'android.net.dhcp.DhcpClient$DhcpHaveAddressState'
p665
sg15
(lp666
sg17
(lp667
sg19
(lp668
sg21
I0
sba(iArchitecture
Entity
p669
(dp670
g11
(lp671
sg13
S'android.net.dhcp.DhcpClient$DhcpInitRebootState'
p672
sg15
(lp673
sg17
(lp674
sg19
(lp675
sg21
I0
sba(iArchitecture
Entity
p676
(dp677
g11
(lp678
sg13
S'android.net.dhcp.DhcpClient$DhcpInitState'
p679
sg15
(lp680
sg17
(lp681
sg19
(lp682
sg21
I0
sba(iArchitecture
Entity
p683
(dp684
g11
(lp685
sg13
S'android.net.dhcp.DhcpClient$DhcpRebindingState'
p686
sg15
(lp687
sg17
(lp688
sg19
(lp689
sg21
I0
sba(iArchitecture
Entity
p690
(dp691
g11
(lp692
sg13
S'android.net.dhcp.DhcpClient$DhcpRebootingState'
p693
sg15
(lp694
sg17
(lp695
sg19
(lp696
sg21
I0
sba(iArchitecture
Entity
p697
(dp698
g11
(lp699
sg13
S'android.net.dhcp.DhcpClient$DhcpRenewingState'
p700
sg15
(lp701
sg17
(lp702
sg19
(lp703
sg21
I0
sba(iArchitecture
Entity
p704
(dp705
g11
(lp706
sg13
S'android.net.dhcp.DhcpClient$DhcpRequestingState'
p707
sg15
(lp708
sg17
(lp709
sg19
(lp710
sg21
I0
sba(iArchitecture
Entity
p711
(dp712
g11
(lp713
sg13
S'android.net.dhcp.DhcpClient$DhcpSelectingState'
p714
sg15
(lp715
sg17
(lp716
sg19
(lp717
sg21
I0
sba(iArchitecture
Entity
p718
(dp719
g11
(lp720
sg13
S'android.net.dhcp.DhcpClient$DhcpState'
p721
sg15
(lp722
sg17
(lp723
sg19
(lp724
sg21
I0
sba(iArchitecture
Entity
p725
(dp726
g11
(lp727
sg13
S'android.net.dhcp.DhcpClient$LoggingState'
p728
sg15
(lp729
sg17
(lp730
sg19
(lp731
sg21
I0
sba(iArchitecture
Entity
p732
(dp733
g11
(lp734
sg13
S'android.net.dhcp.DhcpClient$PacketRetransmittingState'
p735
sg15
(lp736
sg17
(lp737
sg19
(lp738
sg21
I0
sba(iArchitecture
Entity
p739
(dp740
g11
(lp741
sg13
S'android.net.dhcp.DhcpClient$ReceiveThread'
p742
sg15
(lp743
sg17
(lp744
sg19
(lp745
sg21
I0
sba(iArchitecture
Entity
p746
(dp747
g11
(lp748
sg13
S'android.net.dhcp.DhcpClient$StoppedState'
p749
sg15
(lp750
sg17
(lp751
sg19
(lp752
sg21
I0
sba(iArchitecture
Entity
p753
(dp754
g11
(lp755
sg13
S'android.net.dhcp.DhcpClient$WaitBeforeOtherState'
p756
sg15
(lp757
sg17
(lp758
sg19
(lp759
sg21
I0
sba(iArchitecture
Entity
p760
(dp761
g11
(lp762
sg13
S'android.net.dhcp.DhcpClient$WaitBeforeRenewalState'
p763
sg15
(lp764
sg17
(lp765
sg19
(lp766
sg21
I0
sba(iArchitecture
Entity
p767
(dp768
g11
(lp769
sg13
S'android.net.dhcp.DhcpClient$WaitBeforeStartState'
p770
sg15
(lp771
sg17
(lp772
sg19
(lp773
sg21
I0
sba(iArchitecture
Entity
p774
(dp775
g11
(lp776
sg13
S'android.net.dhcp.DhcpPacket'
p777
sg15
(lp778
sg17
(lp779
sg19
(lp780
sg21
I0
sbasg22
(lp781
g644
ag651
ag658
ag665
ag672
ag679
ag686
ag693
ag700
ag707
ag714
ag721
ag728
ag735
ag742
ag749
ag756
ag763
ag770
ag777
asg21
I0
sg24
S'1167'
p782
sba(iArchitecture
Cluster
p783
(dp784
g7
(lp785
(iArchitecture
Entity
p786
(dp787
g11
(lp788
sg13
S'android.net.PacProxySelector'
p789
sg15
(lp790
sg17
(lp791
sg19
(lp792
sg21
I0
sba(iArchitecture
Entity
p793
(dp794
g11
(lp795
sg13
S'android.net.Proxy'
p796
sg15
(lp797
sg17
(lp798
sg19
(lp799
sg21
I0
sbasg22
(lp800
g789
ag796
asg21
I0
sg24
S'1181'
p801
sba(iArchitecture
Cluster
p802
(dp803
g7
(lp804
(iArchitecture
Entity
p805
(dp806
g11
(lp807
sg13
S'android.net.wifi.p2p.WifiP2pWfdInfo'
p808
sg15
(lp809
sg17
(lp810
sg19
(lp811
sg21
I0
sba(iArchitecture
Entity
p812
(dp813
g11
(lp814
sg13
S'android.net.wifi.p2p.WifiP2pWfdInfo$1'
p815
sg15
(lp816
sg17
(lp817
sg19
(lp818
sg21
I0
sbasg22
(lp819
g808
ag815
asg21
I0
sg24
S'1198'
p820
sba(iArchitecture
Cluster
p821
(dp822
g7
(lp823
(iArchitecture
Entity
p824
(dp825
g11
(lp826
sg13
S'android.net.SntpClient'
p827
sg15
(lp828
sg17
(lp829
sg19
(lp830
sg21
I0
sbasg22
(lp831
g827
asg21
I0
sg24
S'12'
p832
sba(iArchitecture
Cluster
p833
(dp834
g7
(lp835
(iArchitecture
Entity
p836
(dp837
g11
(lp838
sg13
S'android.net.LocalServerSocket'
p839
sg15
(lp840
sg17
(lp841
sg19
(lp842
sg21
I0
sba(iArchitecture
Entity
p843
(dp844
g11
(lp845
sg13
S'android.net.LocalSocketAddress'
p846
sg15
(lp847
sg17
(lp848
sg19
(lp849
sg21
I0
sba(iArchitecture
Entity
p850
(dp851
g11
(lp852
sg13
S'android.net.LocalSocketAddress$Namespace'
p853
sg15
(lp854
sg17
(lp855
sg19
(lp856
sg21
I0
sbasg22
(lp857
g839
ag846
ag853
asg21
I0
sg24
S'1215'
p858
sba(iArchitecture
Cluster
p859
(dp860
g7
(lp861
(iArchitecture
Entity
p862
(dp863
g11
(lp864
sg13
S'android.net.NetworkCapabilities'
p865
sg15
(lp866
sg17
(lp867
sg19
(lp868
sg21
I0
sba(iArchitecture
Entity
p869
(dp870
g11
(lp871
sg13
S'android.net.NetworkCapabilities$1'
p872
sg15
(lp873
sg17
(lp874
sg19
(lp875
sg21
I0
sba(iArchitecture
Entity
p876
(dp877
g11
(lp878
sg13
S'android.net.NetworkFactory'
p879
sg15
(lp880
sg17
(lp881
sg19
(lp882
sg21
I0
sba(iArchitecture
Entity
p883
(dp884
g11
(lp885
sg13
S'android.net.NetworkFactory$NetworkRequestInfo'
p886
sg15
(lp887
sg17
(lp888
sg19
(lp889
sg21
I0
sba(iArchitecture
Entity
p890
(dp891
g11
(lp892
sg13
S'android.net.NetworkRequest'
p893
sg15
(lp894
sg17
(lp895
sg19
(lp896
sg21
I0
sba(iArchitecture
Entity
p897
(dp898
g11
(lp899
sg13
S'android.net.NetworkRequest$1'
p900
sg15
(lp901
sg17
(lp902
sg19
(lp903
sg21
I0
sba(iArchitecture
Entity
p904
(dp905
g11
(lp906
sg13
S'android.net.NetworkRequest$Builder'
p907
sg15
(lp908
sg17
(lp909
sg19
(lp910
sg21
I0
sbasg22
(lp911
g865
ag872
ag879
ag886
ag893
ag900
ag907
asg21
I0
sg24
S'1218'
p912
sba(iArchitecture
Cluster
p913
(dp914
g7
(lp915
(iArchitecture
Entity
p916
(dp917
g11
(lp918
sg13
S'android.net.IpPrefix'
p919
sg15
(lp920
sg17
(lp921
sg19
(lp922
sg21
I0
sba(iArchitecture
Entity
p923
(dp924
g11
(lp925
sg13
S'android.net.IpPrefix$1'
p926
sg15
(lp927
sg17
(lp928
sg19
(lp929
sg21
I0
sba(iArchitecture
Entity
p930
(dp931
g11
(lp932
sg13
S'android.net.NetworkUtils'
p933
sg15
(lp934
sg17
(lp935
sg19
(lp936
sg21
I0
sba(iArchitecture
Entity
p937
(dp938
g11
(lp939
sg13
S'android.net.VpnService'
p940
sg15
(lp941
sg17
(lp942
sg19
(lp943
sg21
I0
sba(iArchitecture
Entity
p944
(dp945
g11
(lp946
sg13
S'android.net.VpnService$Builder'
p947
sg15
(lp948
sg17
(lp949
sg19
(lp950
sg21
I0
sba(iArchitecture
Entity
p951
(dp952
g11
(lp953
sg13
S'android.net.VpnService$Callback'
p954
sg15
(lp955
sg17
(lp956
sg19
(lp957
sg21
I0
sbasg22
(lp958
g919
ag926
ag933
ag940
ag947
ag954
asg21
I0
sg24
S'1219'
p959
sba(iArchitecture
Cluster
p960
(dp961
g7
(lp962
(iArchitecture
Entity
p963
(dp964
g11
(lp965
sg13
S'android.net.ParseException'
p966
sg15
(lp967
sg17
(lp968
sg19
(lp969
sg21
I0
sba(iArchitecture
Entity
p970
(dp971
g11
(lp972
sg13
S'android.net.netlink.StructNlMsgErr'
p973
sg15
(lp974
sg17
(lp975
sg19
(lp976
sg21
I0
sba(iArchitecture
Entity
p977
(dp978
g11
(lp979
sg13
S'android.net.wifi.p2p.WifiP2pGroup'
p980
sg15
(lp981
sg17
(lp982
sg19
(lp983
sg21
I0
sba(iArchitecture
Entity
p984
(dp985
g11
(lp986
sg13
S'android.net.wifi.p2p.WifiP2pGroup$1'
p987
sg15
(lp988
sg17
(lp989
sg19
(lp990
sg21
I0
sbasg22
(lp991
g966
ag973
ag980
ag987
asg21
I0
sg24
S'1223'
p992
sba(iArchitecture
Cluster
p993
(dp994
g7
(lp995
(iArchitecture
Entity
p996
(dp997
g11
(lp998
sg13
S'android.net.RouteInfo'
p999
sg15
(lp1000
sg17
(lp1001
sg19
(lp1002
sg21
I0
sba(iArchitecture
Entity
p1003
(dp1004
g11
(lp1005
sg13
S'android.net.RouteInfo$1'
p1006
sg15
(lp1007
sg17
(lp1008
sg19
(lp1009
sg21
I0
sba(iArchitecture
Entity
p1010
(dp1011
g11
(lp1012
sg13
S'android.net.StaticIpConfiguration'
p1013
sg15
(lp1014
sg17
(lp1015
sg19
(lp1016
sg21
I0
sba(iArchitecture
Entity
p1017
(dp1018
g11
(lp1019
sg13
S'android.net.StaticIpConfiguration$1'
p1020
sg15
(lp1021
sg17
(lp1022
sg19
(lp1023
sg21
I0
sbasg22
(lp1024
g999
ag1006
ag1013
ag1020
asg21
I0
sg24
S'1227'
p1025
sba(iArchitecture
Cluster
p1026
(dp1027
g7
(lp1028
(iArchitecture
Entity
p1029
(dp1030
g11
(lp1031
sg13
S'android.net.NetworkInfo'
p1032
sg15
(lp1033
sg17
(lp1034
sg19
(lp1035
sg21
I0
sba(iArchitecture
Entity
p1036
(dp1037
g11
(lp1038
sg13
S'android.net.NetworkInfo$1'
p1039
sg15
(lp1040
sg17
(lp1041
sg19
(lp1042
sg21
I0
sba(iArchitecture
Entity
p1043
(dp1044
g11
(lp1045
sg13
S'android.net.NetworkInfo$DetailedState'
p1046
sg15
(lp1047
sg17
(lp1048
sg19
(lp1049
sg21
I0
sba(iArchitecture
Entity
p1050
(dp1051
g11
(lp1052
sg13
S'android.net.NetworkInfo$State'
p1053
sg15
(lp1054
sg17
(lp1055
sg19
(lp1056
sg21
I0
sba(iArchitecture
Entity
p1057
(dp1058
g11
(lp1059
sg13
S'android.net.wifi.WifiManager'
p1060
sg15
(lp1061
sg17
(lp1062
sg19
(lp1063
sg21
I0
sba(iArchitecture
Entity
p1064
(dp1065
g11
(lp1066
sg13
S'android.net.wifi.WifiManager$ActionListener'
p1067
sg15
(lp1068
sg17
(lp1069
sg19
(lp1070
sg21
I0
sba(iArchitecture
Entity
p1071
(dp1072
g11
(lp1073
sg13
S'android.net.wifi.WifiManager$MulticastLock'
p1074
sg15
(lp1075
sg17
(lp1076
sg19
(lp1077
sg21
I0
sba(iArchitecture
Entity
p1078
(dp1079
g11
(lp1080
sg13
S'android.net.wifi.WifiManager$PinningNetworkCallback'
p1081
sg15
(lp1082
sg17
(lp1083
sg19
(lp1084
sg21
I0
sba(iArchitecture
Entity
p1085
(dp1086
g11
(lp1087
sg13
S'android.net.wifi.WifiManager$ServiceHandler'
p1088
sg15
(lp1089
sg17
(lp1090
sg19
(lp1091
sg21
I0
sba(iArchitecture
Entity
p1092
(dp1093
g11
(lp1094
sg13
S'android.net.wifi.WifiManager$TxPacketCountListener'
p1095
sg15
(lp1096
sg17
(lp1097
sg19
(lp1098
sg21
I0
sba(iArchitecture
Entity
p1099
(dp1100
g11
(lp1101
sg13
S'android.net.wifi.WifiManager$WifiLock'
p1102
sg15
(lp1103
sg17
(lp1104
sg19
(lp1105
sg21
I0
sba(iArchitecture
Entity
p1106
(dp1107
g11
(lp1108
sg13
S'android.net.wifi.WifiManager$WpsCallback'
p1109
sg15
(lp1110
sg17
(lp1111
sg19
(lp1112
sg21
I0
sbasg22
(lp1113
g1032
ag1039
ag1046
ag1053
ag1060
ag1067
ag1074
ag1081
ag1088
ag1095
ag1102
ag1109
asg21
I0
sg24
S'1232'
p1114
sba(iArchitecture
Cluster
p1115
(dp1116
g7
(lp1117
(iArchitecture
Entity
p1118
(dp1119
g11
(lp1120
sg13
S'android.net.WifiLinkQualityInfo'
p1121
sg15
(lp1122
sg17
(lp1123
sg19
(lp1124
sg21
I0
sba(iArchitecture
Entity
p1125
(dp1126
g11
(lp1127
sg13
S'android.net.netlink.NetlinkErrorMessage'
p1128
sg15
(lp1129
sg17
(lp1130
sg19
(lp1131
sg21
I0
sba(iArchitecture
Entity
p1132
(dp1133
g11
(lp1134
sg13
S'android.net.wifi.RssiPacketCountInfo'
p1135
sg15
(lp1136
sg17
(lp1137
sg19
(lp1138
sg21
I0
sba(iArchitecture
Entity
p1139
(dp1140
g11
(lp1141
sg13
S'android.net.wifi.RssiPacketCountInfo$1'
p1142
sg15
(lp1143
sg17
(lp1144
sg19
(lp1145
sg21
I0
sba(iArchitecture
Entity
p1146
(dp1147
g11
(lp1148
sg13
S'android.net.wifi.ScanSettings'
p1149
sg15
(lp1150
sg17
(lp1151
sg19
(lp1152
sg21
I0
sba(iArchitecture
Entity
p1153
(dp1154
g11
(lp1155
sg13
S'android.net.wifi.ScanSettings$1'
p1156
sg15
(lp1157
sg17
(lp1158
sg19
(lp1159
sg21
I0
sba(iArchitecture
Entity
p1160
(dp1161
g11
(lp1162
sg13
S'android.net.wifi.WifiChannel'
p1163
sg15
(lp1164
sg17
(lp1165
sg19
(lp1166
sg21
I0
sba(iArchitecture
Entity
p1167
(dp1168
g11
(lp1169
sg13
S'android.net.wifi.WifiChannel$1'
p1170
sg15
(lp1171
sg17
(lp1172
sg19
(lp1173
sg21
I0
sba(iArchitecture
Entity
p1174
(dp1175
g11
(lp1176
sg13
S'android.net.wifi.WifiConnectionStatistics'
p1177
sg15
(lp1178
sg17
(lp1179
sg19
(lp1180
sg21
I0
sba(iArchitecture
Entity
p1181
(dp1182
g11
(lp1183
sg13
S'android.net.wifi.WifiConnectionStatistics$1'
p1184
sg15
(lp1185
sg17
(lp1186
sg19
(lp1187
sg21
I0
sba(iArchitecture
Entity
p1188
(dp1189
g11
(lp1190
sg13
S'android.net.wifi.WifiNetworkConnectionStatistics'
p1191
sg15
(lp1192
sg17
(lp1193
sg19
(lp1194
sg21
I0
sba(iArchitecture
Entity
p1195
(dp1196
g11
(lp1197
sg13
S'android.net.wifi.WifiNetworkConnectionStatistics$1'
p1198
sg15
(lp1199
sg17
(lp1200
sg19
(lp1201
sg21
I0
sba(iArchitecture
Entity
p1202
(dp1203
g11
(lp1204
sg13
S'android.net.wifi.WpsInfo'
p1205
sg15
(lp1206
sg17
(lp1207
sg19
(lp1208
sg21
I0
sba(iArchitecture
Entity
p1209
(dp1210
g11
(lp1211
sg13
S'android.net.wifi.WpsInfo$1'
p1212
sg15
(lp1213
sg17
(lp1214
sg19
(lp1215
sg21
I0
sba(iArchitecture
Entity
p1216
(dp1217
g11
(lp1218
sg13
S'android.net.wifi.p2p.nsd.WifiP2pUpnpServiceRequest'
p1219
sg15
(lp1220
sg17
(lp1221
sg19
(lp1222
sg21
I0
sbasg22
(lp1223
g1121
ag1128
ag1135
ag1142
ag1149
ag1156
ag1163
ag1170
ag1177
ag1184
ag1191
ag1198
ag1205
ag1212
ag1219
asg21
I0
sg24
S'1237'
p1224
sba(iArchitecture
Cluster
p1225
(dp1226
g7
(lp1227
(iArchitecture
Entity
p1228
(dp1229
g11
(lp1230
sg13
S'android.net.wifi.WifiSsid'
p1231
sg15
(lp1232
sg17
(lp1233
sg19
(lp1234
sg21
I0
sba(iArchitecture
Entity
p1235
(dp1236
g11
(lp1237
sg13
S'android.net.wifi.WifiSsid$1'
p1238
sg15
(lp1239
sg17
(lp1240
sg19
(lp1241
sg21
I0
sbasg22
(lp1242
g1231
ag1238
asg21
I0
sg24
S'1242'
p1243
sba(iArchitecture
Cluster
p1244
(dp1245
g7
(lp1246
(iArchitecture
Entity
p1247
(dp1248
g11
(lp1249
sg13
S'android.net.Credentials'
p1250
sg15
(lp1251
sg17
(lp1252
sg19
(lp1253
sg21
I0
sba(iArchitecture
Entity
p1254
(dp1255
g11
(lp1256
sg13
S'android.net.EthernetManager'
p1257
sg15
(lp1258
sg17
(lp1259
sg19
(lp1260
sg21
I0
sba(iArchitecture
Entity
p1261
(dp1262
g11
(lp1263
sg13
S'android.net.EthernetManager$1'
p1264
sg15
(lp1265
sg17
(lp1266
sg19
(lp1267
sg21
I0
sba(iArchitecture
Entity
p1268
(dp1269
g11
(lp1270
sg13
S'android.net.EthernetManager$2'
p1271
sg15
(lp1272
sg17
(lp1273
sg19
(lp1274
sg21
I0
sba(iArchitecture
Entity
p1275
(dp1276
g11
(lp1277
sg13
S'android.net.EthernetManager$Listener'
p1278
sg15
(lp1279
sg17
(lp1280
sg19
(lp1281
sg21
I0
sba(iArchitecture
Entity
p1282
(dp1283
g11
(lp1284
sg13
S'android.net.NetworkConfig'
p1285
sg15
(lp1286
sg17
(lp1287
sg19
(lp1288
sg21
I0
sba(iArchitecture
Entity
p1289
(dp1290
g11
(lp1291
sg13
S'android.net.NetworkKey'
p1292
sg15
(lp1293
sg17
(lp1294
sg19
(lp1295
sg21
I0
sba(iArchitecture
Entity
p1296
(dp1297
g11
(lp1298
sg13
S'android.net.NetworkKey$1'
p1299
sg15
(lp1300
sg17
(lp1301
sg19
(lp1302
sg21
I0
sba(iArchitecture
Entity
p1303
(dp1304
g11
(lp1305
sg13
S'android.net.NetworkQuotaInfo'
p1306
sg15
(lp1307
sg17
(lp1308
sg19
(lp1309
sg21
I0
sba(iArchitecture
Entity
p1310
(dp1311
g11
(lp1312
sg13
S'android.net.NetworkQuotaInfo$1'
p1313
sg15
(lp1314
sg17
(lp1315
sg19
(lp1316
sg21
I0
sba(iArchitecture
Entity
p1317
(dp1318
g11
(lp1319
sg13
S'android.net.NetworkScoreManager'
p1320
sg15
(lp1321
sg17
(lp1322
sg19
(lp1323
sg21
I0
sba(iArchitecture
Entity
p1324
(dp1325
g11
(lp1326
sg13
S'android.net.wifi.WifiConfiguration'
p1327
sg15
(lp1328
sg17
(lp1329
sg19
(lp1330
sg21
I0
sba(iArchitecture
Entity
p1331
(dp1332
g11
(lp1333
sg13
S'android.net.wifi.WifiConfiguration$1'
p1334
sg15
(lp1335
sg17
(lp1336
sg19
(lp1337
sg21
I0
sba(iArchitecture
Entity
p1338
(dp1339
g11
(lp1340
sg13
S'android.net.wifi.WifiConfiguration$AuthAlgorithm'
p1341
sg15
(lp1342
sg17
(lp1343
sg19
(lp1344
sg21
I0
sba(iArchitecture
Entity
p1345
(dp1346
g11
(lp1347
sg13
S'android.net.wifi.WifiConfiguration$GroupCipher'
p1348
sg15
(lp1349
sg17
(lp1350
sg19
(lp1351
sg21
I0
sba(iArchitecture
Entity
p1352
(dp1353
g11
(lp1354
sg13
S'android.net.wifi.WifiConfiguration$KeyMgmt'
p1355
sg15
(lp1356
sg17
(lp1357
sg19
(lp1358
sg21
I0
sba(iArchitecture
Entity
p1359
(dp1360
g11
(lp1361
sg13
S'android.net.wifi.WifiConfiguration$PairwiseCipher'
p1362
sg15
(lp1363
sg17
(lp1364
sg19
(lp1365
sg21
I0
sba(iArchitecture
Entity
p1366
(dp1367
g11
(lp1368
sg13
S'android.net.wifi.WifiConfiguration$Protocol'
p1369
sg15
(lp1370
sg17
(lp1371
sg19
(lp1372
sg21
I0
sba(iArchitecture
Entity
p1373
(dp1374
g11
(lp1375
sg13
S'android.net.wifi.WifiConfiguration$Status'
p1376
sg15
(lp1377
sg17
(lp1378
sg19
(lp1379
sg21
I0
sba(iArchitecture
Entity
p1380
(dp1381
g11
(lp1382
sg13
S'android.net.wifi.WifiConfiguration$Visibility'
p1383
sg15
(lp1384
sg17
(lp1385
sg19
(lp1386
sg21
I0
sba(iArchitecture
Entity
p1387
(dp1388
g11
(lp1389
sg13
S'android.net.wifi.p2p.WifiP2pInfo'
p1390
sg15
(lp1391
sg17
(lp1392
sg19
(lp1393
sg21
I0
sba(iArchitecture
Entity
p1394
(dp1395
g11
(lp1396
sg13
S'android.net.wifi.p2p.WifiP2pInfo$1'
p1397
sg15
(lp1398
sg17
(lp1399
sg19
(lp1400
sg21
I0
sba(iArchitecture
Entity
p1401
(dp1402
g11
(lp1403
sg13
S'android.net.wifi.p2p.WifiP2pProvDiscEvent'
p1404
sg15
(lp1405
sg17
(lp1406
sg19
(lp1407
sg21
I0
sba(iArchitecture
Entity
p1408
(dp1409
g11
(lp1410
sg13
S'android.net.wifi.p2p.nsd.WifiP2pDnsSdServiceInfo'
p1411
sg15
(lp1412
sg17
(lp1413
sg19
(lp1414
sg21
I0
sba(iArchitecture
Entity
p1415
(dp1416
g11
(lp1417
sg13
S'android.net.wifi.p2p.nsd.WifiP2pDnsSdServiceRequest'
p1418
sg15
(lp1419
sg17
(lp1420
sg19
(lp1421
sg21
I0
sba(iArchitecture
Entity
p1422
(dp1423
g11
(lp1424
sg13
S'android.net.wifi.p2p.nsd.WifiP2pDnsSdServiceResponse'
p1425
sg15
(lp1426
sg17
(lp1427
sg19
(lp1428
sg21
I0
sba(iArchitecture
Entity
p1429
(dp1430
g11
(lp1431
sg13
S'android.net.wifi.p2p.nsd.WifiP2pServiceInfo'
p1432
sg15
(lp1433
sg17
(lp1434
sg19
(lp1435
sg21
I0
sba(iArchitecture
Entity
p1436
(dp1437
g11
(lp1438
sg13
S'android.net.wifi.p2p.nsd.WifiP2pServiceInfo$1'
p1439
sg15
(lp1440
sg17
(lp1441
sg19
(lp1442
sg21
I0
sba(iArchitecture
Entity
p1443
(dp1444
g11
(lp1445
sg13
S'android.net.wifi.p2p.nsd.WifiP2pServiceRequest'
p1446
sg15
(lp1447
sg17
(lp1448
sg19
(lp1449
sg21
I0
sba(iArchitecture
Entity
p1450
(dp1451
g11
(lp1452
sg13
S'android.net.wifi.p2p.nsd.WifiP2pServiceRequest$1'
p1453
sg15
(lp1454
sg17
(lp1455
sg19
(lp1456
sg21
I0
sba(iArchitecture
Entity
p1457
(dp1458
g11
(lp1459
sg13
S'android.net.wifi.p2p.nsd.WifiP2pServiceResponse'
p1460
sg15
(lp1461
sg17
(lp1462
sg19
(lp1463
sg21
I0
sba(iArchitecture
Entity
p1464
(dp1465
g11
(lp1466
sg13
S'android.net.wifi.p2p.nsd.WifiP2pServiceResponse$1'
p1467
sg15
(lp1468
sg17
(lp1469
sg19
(lp1470
sg21
I0
sba(iArchitecture
Entity
p1471
(dp1472
g11
(lp1473
sg13
S'android.net.wifi.p2p.nsd.WifiP2pServiceResponse$Status'
p1474
sg15
(lp1475
sg17
(lp1476
sg19
(lp1477
sg21
I0
sba(iArchitecture
Entity
p1478
(dp1479
g11
(lp1480
sg13
S'android.net.wifi.p2p.nsd.WifiP2pUpnpServiceInfo'
p1481
sg15
(lp1482
sg17
(lp1483
sg19
(lp1484
sg21
I0
sba(iArchitecture
Entity
p1485
(dp1486
g11
(lp1487
sg13
S'android.net.wifi.p2p.nsd.WifiP2pUpnpServiceResponse'
p1488
sg15
(lp1489
sg17
(lp1490
sg19
(lp1491
sg21
I0
sbasg22
(lp1492
g1250
ag1257
ag1264
ag1271
ag1278
ag1285
ag1292
ag1299
ag1306
ag1313
ag1320
ag1327
ag1334
ag1341
ag1348
ag1355
ag1362
ag1369
ag1376
ag1383
ag1390
ag1397
ag1404
ag1411
ag1418
ag1425
ag1432
ag1439
ag1446
ag1453
ag1460
ag1467
ag1474
ag1481
ag1488
asg21
I0
sg24
S'1246'
p1493
sba(iArchitecture
Cluster
p1494
(dp1495
g7
(lp1496
(iArchitecture
Entity
p1497
(dp1498
g11
(lp1499
sg13
S'android.net.NetworkAgent'
p1500
sg15
(lp1501
sg17
(lp1502
sg19
(lp1503
sg21
I0
sba(iArchitecture
Entity
p1504
(dp1505
g11
(lp1506
sg13
S'android.net.nsd.NsdServiceInfo'
p1507
sg15
(lp1508
sg17
(lp1509
sg19
(lp1510
sg21
I0
sba(iArchitecture
Entity
p1511
(dp1512
g11
(lp1513
sg13
S'android.net.nsd.NsdServiceInfo$1'
p1514
sg15
(lp1515
sg17
(lp1516
sg19
(lp1517
sg21
I0
sbasg22
(lp1518
g1500
ag1507
ag1514
asg21
I0
sg24
S'1261'
p1519
sba(iArchitecture
Cluster
p1520
(dp1521
g7
(lp1522
(iArchitecture
Entity
p1523
(dp1524
g11
(lp1525
sg13
S'android.net.NetworkPolicyManager'
p1526
sg15
(lp1527
sg17
(lp1528
sg19
(lp1529
sg21
I0
sbasg22
(lp1530
g1526
asg21
I0
sg24
S'151'
p1531
sba(iArchitecture
Cluster
p1532
(dp1533
g7
(lp1534
(iArchitecture
Entity
p1535
(dp1536
g11
(lp1537
sg13
S'android.net.http.HttpResponseCache'
p1538
sg15
(lp1539
sg17
(lp1540
sg19
(lp1541
sg21
I0
sbasg22
(lp1542
g1538
asg21
I0
sg24
S'176'
p1543
sba(iArchitecture
Cluster
p1544
(dp1545
g7
(lp1546
(iArchitecture
Entity
p1547
(dp1548
g11
(lp1549
sg13
S'android.net.TrafficStats'
p1550
sg15
(lp1551
sg17
(lp1552
sg19
(lp1553
sg21
I0
sbasg22
(lp1554
g1550
asg21
I0
sg24
S'183'
p1555
sba(iArchitecture
Cluster
p1556
(dp1557
g7
(lp1558
(iArchitecture
Entity
p1559
(dp1560
g11
(lp1561
sg13
S'android.net.http.SslError'
p1562
sg15
(lp1563
sg17
(lp1564
sg19
(lp1565
sg21
I0
sbasg22
(lp1566
g1562
asg21
I0
sg24
S'188'
p1567
sba(iArchitecture
Cluster
p1568
(dp1569
g7
(lp1570
(iArchitecture
Entity
p1571
(dp1572
g11
(lp1573
sg13
S'android.net.MobileLinkQualityInfo'
p1574
sg15
(lp1575
sg17
(lp1576
sg19
(lp1577
sg21
I0
sbasg22
(lp1578
g1574
asg21
I0
sg24
S'193'
p1579
sba(iArchitecture
Cluster
p1580
(dp1581
g7
(lp1582
(iArchitecture
Entity
p1583
(dp1584
g11
(lp1585
sg13
S'android.net.netlink.NetlinkSocket'
p1586
sg15
(lp1587
sg17
(lp1588
sg19
(lp1589
sg21
I0
sbasg22
(lp1590
g1586
asg21
I0
sg24
S'26'
p1591
sba(iArchitecture
Cluster
p1592
(dp1593
g7
(lp1594
(iArchitecture
Entity
p1595
(dp1596
g11
(lp1597
sg13
S'android.net.wimax.WimaxManagerConstants'
p1598
sg15
(lp1599
sg17
(lp1600
sg19
(lp1601
sg21
I0
sbasg22
(lp1602
g1598
asg21
I0
sg24
S'266'
p1603
sba(iArchitecture
Cluster
p1604
(dp1605
g7
(lp1606
(iArchitecture
Entity
p1607
(dp1608
g11
(lp1609
sg13
S'android.net.netlink.StructNdaCacheInfo'
p1610
sg15
(lp1611
sg17
(lp1612
sg19
(lp1613
sg21
I0
sbasg22
(lp1614
g1610
asg21
I0
sg24
S'3'
p1615
sba(iArchitecture
Cluster
p1616
(dp1617
g7
(lp1618
(iArchitecture
Entity
p1619
(dp1620
g11
(lp1621
sg13
S'android.net.NetworkIdentity'
p1622
sg15
(lp1623
sg17
(lp1624
sg19
(lp1625
sg21
I0
sbasg22
(lp1626
g1622
asg21
I0
sg24
S'330'
p1627
sba(iArchitecture
Cluster
p1628
(dp1629
g7
(lp1630
(iArchitecture
Entity
p1631
(dp1632
g11
(lp1633
sg13
S'android.net.netlink.NetlinkConstants'
p1634
sg15
(lp1635
sg17
(lp1636
sg19
(lp1637
sg21
I0
sbasg22
(lp1638
g1634
asg21
I0
sg24
S'341'
p1639
sba(iArchitecture
Cluster
p1640
(dp1641
g7
(lp1642
(iArchitecture
Entity
p1643
(dp1644
g11
(lp1645
sg13
S'android.net.netlink.StructNdMsg'
p1646
sg15
(lp1647
sg17
(lp1648
sg19
(lp1649
sg21
I0
sbasg22
(lp1650
g1646
asg21
I0
sg24
S'349'
p1651
sba(iArchitecture
Cluster
p1652
(dp1653
g7
(lp1654
(iArchitecture
Entity
p1655
(dp1656
g11
(lp1657
sg13
S'android.net.PskKeyManager'
p1658
sg15
(lp1659
sg17
(lp1660
sg19
(lp1661
sg21
I0
sbasg22
(lp1662
g1658
asg21
I0
sg24
S'394'
p1663
sba(iArchitecture
Cluster
p1664
(dp1665
g7
(lp1666
(iArchitecture
Entity
p1667
(dp1668
g11
(lp1669
sg13
S'android.net.WebAddress'
p1670
sg15
(lp1671
sg17
(lp1672
sg19
(lp1673
sg21
I0
sbasg22
(lp1674
g1670
asg21
I0
sg24
S'431'
p1675
sba(iArchitecture
Cluster
p1676
(dp1677
g7
(lp1678
(iArchitecture
Entity
p1679
(dp1680
g11
(lp1681
sg13
S'android.net.MailTo'
p1682
sg15
(lp1683
sg17
(lp1684
sg19
(lp1685
sg21
I0
sbasg22
(lp1686
g1682
asg21
I0
sg24
S'439'
p1687
sba(iArchitecture
Cluster
p1688
(dp1689
g7
(lp1690
(iArchitecture
Entity
p1691
(dp1692
g11
(lp1693
sg13
S'android.net.NetworkMisc'
p1694
sg15
(lp1695
sg17
(lp1696
sg19
(lp1697
sg21
I0
sba(iArchitecture
Entity
p1698
(dp1699
g11
(lp1700
sg13
S'android.net.NetworkMisc$1'
p1701
sg15
(lp1702
sg17
(lp1703
sg19
(lp1704
sg21
I0
sbasg22
(lp1705
g1694
ag1701
asg21
I0
sg24
S'455'
p1706
sba(iArchitecture
Cluster
p1707
(dp1708
g7
(lp1709
(iArchitecture
Entity
p1710
(dp1711
g11
(lp1712
sg13
S'android.net.NetworkTemplate'
p1713
sg15
(lp1714
sg17
(lp1715
sg19
(lp1716
sg21
I0
sba(iArchitecture
Entity
p1717
(dp1718
g11
(lp1719
sg13
S'android.net.NetworkTemplate$1'
p1720
sg15
(lp1721
sg17
(lp1722
sg19
(lp1723
sg21
I0
sbasg22
(lp1724
g1713
ag1720
asg21
I0
sg24
S'457'
p1725
sba(iArchitecture
Cluster
p1726
(dp1727
g7
(lp1728
(iArchitecture
Entity
p1729
(dp1730
g11
(lp1731
sg13
S'android.net.http.SslCertificate'
p1732
sg15
(lp1733
sg17
(lp1734
sg19
(lp1735
sg21
I0
sba(iArchitecture
Entity
p1736
(dp1737
g11
(lp1738
sg13
S'android.net.http.SslCertificate$DName'
p1739
sg15
(lp1740
sg17
(lp1741
sg19
(lp1742
sg21
I0
sbasg22
(lp1743
g1732
ag1739
asg21
I0
sg24
S'459'
p1744
sba(iArchitecture
Cluster
p1745
(dp1746
g7
(lp1747
(iArchitecture
Entity
p1748
(dp1749
g11
(lp1750
sg13
S'android.net.wifi.WifiLinkLayerStats'
p1751
sg15
(lp1752
sg17
(lp1753
sg19
(lp1754
sg21
I0
sba(iArchitecture
Entity
p1755
(dp1756
g11
(lp1757
sg13
S'android.net.wifi.WifiLinkLayerStats$1'
p1758
sg15
(lp1759
sg17
(lp1760
sg19
(lp1761
sg21
I0
sbasg22
(lp1762
g1751
ag1758
asg21
I0
sg24
S'462'
p1763
sba(iArchitecture
Cluster
p1764
(dp1765
g7
(lp1766
(iArchitecture
Entity
p1767
(dp1768
g11
(lp1769
sg13
S'android.net.WifiKey'
p1770
sg15
(lp1771
sg17
(lp1772
sg19
(lp1773
sg21
I0
sba(iArchitecture
Entity
p1774
(dp1775
g11
(lp1776
sg13
S'android.net.WifiKey$1'
p1777
sg15
(lp1778
sg17
(lp1779
sg19
(lp1780
sg21
I0
sbasg22
(lp1781
g1770
ag1777
asg21
I0
sg24
S'502'
p1782
sba(iArchitecture
Cluster
p1783
(dp1784
g7
(lp1785
(iArchitecture
Entity
p1786
(dp1787
g11
(lp1788
sg13
S'android.net.NetworkState'
p1789
sg15
(lp1790
sg17
(lp1791
sg19
(lp1792
sg21
I0
sba(iArchitecture
Entity
p1793
(dp1794
g11
(lp1795
sg13
S'android.net.NetworkState$1'
p1796
sg15
(lp1797
sg17
(lp1798
sg19
(lp1799
sg21
I0
sbasg22
(lp1800
g1789
ag1796
asg21
I0
sg24
S'516'
p1801
sba(iArchitecture
Cluster
p1802
(dp1803
g7
(lp1804
(iArchitecture
Entity
p1805
(dp1806
g11
(lp1807
sg13
S'android.net.wifi.WifiInfo'
p1808
sg15
(lp1809
sg17
(lp1810
sg19
(lp1811
sg21
I0
sba(iArchitecture
Entity
p1812
(dp1813
g11
(lp1814
sg13
S'android.net.wifi.WifiInfo$1'
p1815
sg15
(lp1816
sg17
(lp1817
sg19
(lp1818
sg21
I0
sbasg22
(lp1819
g1808
ag1815
asg21
I0
sg24
S'517'
p1820
sba(iArchitecture
Cluster
p1821
(dp1822
g7
(lp1823
(iArchitecture
Entity
p1824
(dp1825
g11
(lp1826
sg13
S'android.net.LinkQualityInfo'
p1827
sg15
(lp1828
sg17
(lp1829
sg19
(lp1830
sg21
I0
sba(iArchitecture
Entity
p1831
(dp1832
g11
(lp1833
sg13
S'android.net.LinkQualityInfo$1'
p1834
sg15
(lp1835
sg17
(lp1836
sg19
(lp1837
sg21
I0
sbasg22
(lp1838
g1827
ag1834
asg21
I0
sg24
S'521'
p1839
sba(iArchitecture
Cluster
p1840
(dp1841
g7
(lp1842
(iArchitecture
Entity
p1843
(dp1844
g11
(lp1845
sg13
S'android.net.SSLCertificateSocketFactory'
p1846
sg15
(lp1847
sg17
(lp1848
sg19
(lp1849
sg21
I0
sba(iArchitecture
Entity
p1850
(dp1851
g11
(lp1852
sg13
S'android.net.SSLCertificateSocketFactory$1'
p1853
sg15
(lp1854
sg17
(lp1855
sg19
(lp1856
sg21
I0
sbasg22
(lp1857
g1846
ag1853
asg21
I0
sg24
S'537'
p1858
sba(iArchitecture
Cluster
p1859
(dp1860
g7
(lp1861
(iArchitecture
Entity
p1862
(dp1863
g11
(lp1864
sg13
S'android.net.CaptivePortal'
p1865
sg15
(lp1866
sg17
(lp1867
sg19
(lp1868
sg21
I0
sba(iArchitecture
Entity
p1869
(dp1870
g11
(lp1871
sg13
S'android.net.CaptivePortal$1'
p1872
sg15
(lp1873
sg17
(lp1874
sg19
(lp1875
sg21
I0
sbasg22
(lp1876
g1865
ag1872
asg21
I0
sg24
S'541'
p1877
sba(iArchitecture
Cluster
p1878
(dp1879
g7
(lp1880
(iArchitecture
Entity
p1881
(dp1882
g11
(lp1883
sg13
S'android.net.DhcpResults'
p1884
sg15
(lp1885
sg17
(lp1886
sg19
(lp1887
sg21
I0
sba(iArchitecture
Entity
p1888
(dp1889
g11
(lp1890
sg13
S'android.net.DhcpResults$1'
p1891
sg15
(lp1892
sg17
(lp1893
sg19
(lp1894
sg21
I0
sbasg22
(lp1895
g1884
ag1891
asg21
I0
sg24
S'551'
p1896
sba(iArchitecture
Cluster
p1897
(dp1898
g7
(lp1899
(iArchitecture
Entity
p1900
(dp1901
g11
(lp1902
sg13
S'android.net.wifi.p2p.WifiP2pConfig'
p1903
sg15
(lp1904
sg17
(lp1905
sg19
(lp1906
sg21
I0
sba(iArchitecture
Entity
p1907
(dp1908
g11
(lp1909
sg13
S'android.net.wifi.p2p.WifiP2pConfig$1'
p1910
sg15
(lp1911
sg17
(lp1912
sg19
(lp1913
sg21
I0
sbasg22
(lp1914
g1903
ag1910
asg21
I0
sg24
S'553'
p1915
sba(iArchitecture
Cluster
p1916
(dp1917
g7
(lp1918
(iArchitecture
Entity
p1919
(dp1920
g11
(lp1921
sg13
S'android.net.wifi.p2p.WifiP2pDevice'
p1922
sg15
(lp1923
sg17
(lp1924
sg19
(lp1925
sg21
I0
sba(iArchitecture
Entity
p1926
(dp1927
g11
(lp1928
sg13
S'android.net.wifi.p2p.WifiP2pDevice$1'
p1929
sg15
(lp1930
sg17
(lp1931
sg19
(lp1932
sg21
I0
sbasg22
(lp1933
g1922
ag1929
asg21
I0
sg24
S'559'
p1934
sba(iArchitecture
Cluster
p1935
(dp1936
g7
(lp1937
(iArchitecture
Entity
p1938
(dp1939
g11
(lp1940
sg13
S'android.net.nsd.DnsSdTxtRecord'
p1941
sg15
(lp1942
sg17
(lp1943
sg19
(lp1944
sg21
I0
sba(iArchitecture
Entity
p1945
(dp1946
g11
(lp1947
sg13
S'android.net.nsd.DnsSdTxtRecord$1'
p1948
sg15
(lp1949
sg17
(lp1950
sg19
(lp1951
sg21
I0
sbasg22
(lp1952
g1941
ag1948
asg21
I0
sg24
S'571'
p1953
sba(iArchitecture
Cluster
p1954
(dp1955
g7
(lp1956
(iArchitecture
Entity
p1957
(dp1958
g11
(lp1959
sg13
S'android.net.wifi.SupplicantState'
p1960
sg15
(lp1961
sg17
(lp1962
sg19
(lp1963
sg21
I0
sba(iArchitecture
Entity
p1964
(dp1965
g11
(lp1966
sg13
S'android.net.wifi.SupplicantState$1'
p1967
sg15
(lp1968
sg17
(lp1969
sg19
(lp1970
sg21
I0
sbasg22
(lp1971
g1960
ag1967
asg21
I0
sg24
S'585'
p1972
sba(iArchitecture
Cluster
p1973
(dp1974
g7
(lp1975
(iArchitecture
Entity
p1976
(dp1977
g11
(lp1978
sg13
S'android.net.InterfaceConfiguration'
p1979
sg15
(lp1980
sg17
(lp1981
sg19
(lp1982
sg21
I0
sba(iArchitecture
Entity
p1983
(dp1984
g11
(lp1985
sg13
S'android.net.InterfaceConfiguration$1'
p1986
sg15
(lp1987
sg17
(lp1988
sg19
(lp1989
sg21
I0
sbasg22
(lp1990
g1979
ag1986
asg21
I0
sg24
S'592'
p1991
sba(iArchitecture
Cluster
p1992
(dp1993
g7
(lp1994
(iArchitecture
Entity
p1995
(dp1996
g11
(lp1997
sg13
S'android.net.wifi.BatchedScanResult'
p1998
sg15
(lp1999
sg17
(lp2000
sg19
(lp2001
sg21
I0
sba(iArchitecture
Entity
p2002
(dp2003
g11
(lp2004
sg13
S'android.net.wifi.BatchedScanResult$1'
p2005
sg15
(lp2006
sg17
(lp2007
sg19
(lp2008
sg21
I0
sbasg22
(lp2009
g1998
ag2005
asg21
I0
sg24
S'607'
p2010
sba(iArchitecture
Cluster
p2011
(dp2012
g7
(lp2013
(iArchitecture
Entity
p2014
(dp2015
g11
(lp2016
sg13
S'android.net.RssiCurve'
p2017
sg15
(lp2018
sg17
(lp2019
sg19
(lp2020
sg21
I0
sba(iArchitecture
Entity
p2021
(dp2022
g11
(lp2023
sg13
S'android.net.RssiCurve$1'
p2024
sg15
(lp2025
sg17
(lp2026
sg19
(lp2027
sg21
I0
sbasg22
(lp2028
g2017
ag2024
asg21
I0
sg24
S'618'
p2029
sba(iArchitecture
Cluster
p2030
(dp2031
g7
(lp2032
(iArchitecture
Entity
p2033
(dp2034
g11
(lp2035
sg13
S'android.net.wifi.p2p.WifiP2pDeviceList'
p2036
sg15
(lp2037
sg17
(lp2038
sg19
(lp2039
sg21
I0
sba(iArchitecture
Entity
p2040
(dp2041
g11
(lp2042
sg13
S'android.net.wifi.p2p.WifiP2pDeviceList$1'
p2043
sg15
(lp2044
sg17
(lp2045
sg19
(lp2046
sg21
I0
sbasg22
(lp2047
g2036
ag2043
asg21
I0
sg24
S'620'
p2048
sba(iArchitecture
Cluster
p2049
(dp2050
g7
(lp2051
(iArchitecture
Entity
p2052
(dp2053
g11
(lp2054
sg13
S'android.net.UidRange'
p2055
sg15
(lp2056
sg17
(lp2057
sg19
(lp2058
sg21
I0
sba(iArchitecture
Entity
p2059
(dp2060
g11
(lp2061
sg13
S'android.net.UidRange$1'
p2062
sg15
(lp2063
sg17
(lp2064
sg19
(lp2065
sg21
I0
sbasg22
(lp2066
g2055
ag2062
asg21
I0
sg24
S'631'
p2067
sba(iArchitecture
Cluster
p2068
(dp2069
g7
(lp2070
(iArchitecture
Entity
p2071
(dp2072
g11
(lp2073
sg13
S'android.net.ProxyInfo'
p2074
sg15
(lp2075
sg17
(lp2076
sg19
(lp2077
sg21
I0
sba(iArchitecture
Entity
p2078
(dp2079
g11
(lp2080
sg13
S'android.net.ProxyInfo$1'
p2081
sg15
(lp2082
sg17
(lp2083
sg19
(lp2084
sg21
I0
sbasg22
(lp2085
g2074
ag2081
asg21
I0
sg24
S'651'
p2086
sba(iArchitecture
Cluster
p2087
(dp2088
g7
(lp2089
(iArchitecture
Entity
p2090
(dp2091
g11
(lp2092
sg13
S'android.net.ScoredNetwork'
p2093
sg15
(lp2094
sg17
(lp2095
sg19
(lp2096
sg21
I0
sba(iArchitecture
Entity
p2097
(dp2098
g11
(lp2099
sg13
S'android.net.ScoredNetwork$1'
p2100
sg15
(lp2101
sg17
(lp2102
sg19
(lp2103
sg21
I0
sbasg22
(lp2104
g2093
ag2100
asg21
I0
sg24
S'652'
p2105
sba(iArchitecture
Cluster
p2106
(dp2107
g7
(lp2108
(iArchitecture
Entity
p2109
(dp2110
g11
(lp2111
sg13
S'android.net.NetworkPolicy'
p2112
sg15
(lp2113
sg17
(lp2114
sg19
(lp2115
sg21
I0
sba(iArchitecture
Entity
p2116
(dp2117
g11
(lp2118
sg13
S'android.net.NetworkPolicy$1'
p2119
sg15
(lp2120
sg17
(lp2121
sg19
(lp2122
sg21
I0
sbasg22
(lp2123
g2112
ag2119
asg21
I0
sg24
S'693'
p2124
sba(iArchitecture
Cluster
p2125
(dp2126
g7
(lp2127
(iArchitecture
Entity
p2128
(dp2129
g11
(lp2130
sg13
S'android.net.LinkAddress'
p2131
sg15
(lp2132
sg17
(lp2133
sg19
(lp2134
sg21
I0
sba(iArchitecture
Entity
p2135
(dp2136
g11
(lp2137
sg13
S'android.net.LinkAddress$1'
p2138
sg15
(lp2139
sg17
(lp2140
sg19
(lp2141
sg21
I0
sbasg22
(lp2142
g2131
ag2138
asg21
I0
sg24
S'721'
p2143
sba(iArchitecture
Cluster
p2144
(dp2145
g7
(lp2146
(iArchitecture
Entity
p2147
(dp2148
g11
(lp2149
sg13
S'android.net.DhcpInfo'
p2150
sg15
(lp2151
sg17
(lp2152
sg19
(lp2153
sg21
I0
sba(iArchitecture
Entity
p2154
(dp2155
g11
(lp2156
sg13
S'android.net.DhcpInfo$1'
p2157
sg15
(lp2158
sg17
(lp2159
sg19
(lp2160
sg21
I0
sbasg22
(lp2161
g2150
ag2157
asg21
I0
sg24
S'729'
p2162
sba(iArchitecture
Cluster
p2163
(dp2164
g7
(lp2165
(iArchitecture
Entity
p2166
(dp2167
g11
(lp2168
sg13
S'android.net.LocalSocketImpl'
p2169
sg15
(lp2170
sg17
(lp2171
sg19
(lp2172
sg21
I0
sba(iArchitecture
Entity
p2173
(dp2174
g11
(lp2175
sg13
S'android.net.LocalSocketImpl$SocketInputStream'
p2176
sg15
(lp2177
sg17
(lp2178
sg19
(lp2179
sg21
I0
sba(iArchitecture
Entity
p2180
(dp2181
g11
(lp2182
sg13
S'android.net.LocalSocketImpl$SocketOutputStream'
p2183
sg15
(lp2184
sg17
(lp2185
sg19
(lp2186
sg21
I0
sbasg22
(lp2187
g2169
ag2176
ag2183
asg21
I0
sg24
S'740'
p2188
sba(iArchitecture
Cluster
p2189
(dp2190
g7
(lp2191
(iArchitecture
Entity
p2192
(dp2193
g11
(lp2194
sg13
S'android.net.wifi.ScanResult'
p2195
sg15
(lp2196
sg17
(lp2197
sg19
(lp2198
sg21
I0
sba(iArchitecture
Entity
p2199
(dp2200
g11
(lp2201
sg13
S'android.net.wifi.ScanResult$1'
p2202
sg15
(lp2203
sg17
(lp2204
sg19
(lp2205
sg21
I0
sba(iArchitecture
Entity
p2206
(dp2207
g11
(lp2208
sg13
S'android.net.wifi.ScanResult$InformationElement'
p2209
sg15
(lp2210
sg17
(lp2211
sg19
(lp2212
sg21
I0
sbasg22
(lp2213
g2195
ag2202
ag2209
asg21
I0
sg24
S'816'
p2214
sba(iArchitecture
Cluster
p2215
(dp2216
g7
(lp2217
(iArchitecture
Entity
p2218
(dp2219
g11
(lp2220
sg13
S'android.net.wifi.WifiEnterpriseConfig'
p2221
sg15
(lp2222
sg17
(lp2223
sg19
(lp2224
sg21
I0
sba(iArchitecture
Entity
p2225
(dp2226
g11
(lp2227
sg13
S'android.net.wifi.WifiEnterpriseConfig$1'
p2228
sg15
(lp2229
sg17
(lp2230
sg19
(lp2231
sg21
I0
sba(iArchitecture
Entity
p2232
(dp2233
g11
(lp2234
sg13
S'android.net.wifi.WifiEnterpriseConfig$Eap'
p2235
sg15
(lp2236
sg17
(lp2237
sg19
(lp2238
sg21
I0
sba(iArchitecture
Entity
p2239
(dp2240
g11
(lp2241
sg13
S'android.net.wifi.WifiEnterpriseConfig$Phase2'
p2242
sg15
(lp2243
sg17
(lp2244
sg19
(lp2245
sg21
I0
sbasg22
(lp2246
g2221
ag2228
ag2235
ag2242
asg21
I0
sg24
S'820'
p2247
sba(iArchitecture
Cluster
p2248
(dp2249
g7
(lp2250
(iArchitecture
Entity
p2251
(dp2252
g11
(lp2253
sg13
S'android.net.UrlQuerySanitizer'
p2254
sg15
(lp2255
sg17
(lp2256
sg19
(lp2257
sg21
I0
sba(iArchitecture
Entity
p2258
(dp2259
g11
(lp2260
sg13
S'android.net.UrlQuerySanitizer$IllegalCharacterValueSanitizer'
p2261
sg15
(lp2262
sg17
(lp2263
sg19
(lp2264
sg21
I0
sba(iArchitecture
Entity
p2265
(dp2266
g11
(lp2267
sg13
S'android.net.UrlQuerySanitizer$ParameterValuePair'
p2268
sg15
(lp2269
sg17
(lp2270
sg19
(lp2271
sg21
I0
sba(iArchitecture
Entity
p2272
(dp2273
g11
(lp2274
sg13
S'android.net.UrlQuerySanitizer$ValueSanitizer'
p2275
sg15
(lp2276
sg17
(lp2277
sg19
(lp2278
sg21
I0
sbasg22
(lp2279
g2254
ag2261
ag2268
ag2275
asg21
I0
sg24
S'846'
p2280
sba(iArchitecture
Cluster
p2281
(dp2282
g7
(lp2283
(iArchitecture
Entity
p2284
(dp2285
g11
(lp2286
sg13
S'android.net.wifi.WpsResult'
p2287
sg15
(lp2288
sg17
(lp2289
sg19
(lp2290
sg21
I0
sba(iArchitecture
Entity
p2291
(dp2292
g11
(lp2293
sg13
S'android.net.wifi.WpsResult$1'
p2294
sg15
(lp2295
sg17
(lp2296
sg19
(lp2297
sg21
I0
sba(iArchitecture
Entity
p2298
(dp2299
g11
(lp2300
sg13
S'android.net.wifi.WpsResult$Status'
p2301
sg15
(lp2302
sg17
(lp2303
sg19
(lp2304
sg21
I0
sbasg22
(lp2305
g2287
ag2294
ag2301
asg21
I0
sg24
S'860'
p2306
sba(iArchitecture
Cluster
p2307
(dp2308
g7
(lp2309
(iArchitecture
Entity
p2310
(dp2311
g11
(lp2312
sg13
S'android.net.wifi.p2p.WifiP2pGroupList'
p2313
sg15
(lp2314
sg17
(lp2315
sg19
(lp2316
sg21
I0
sba(iArchitecture
Entity
p2317
(dp2318
g11
(lp2319
sg13
S'android.net.wifi.p2p.WifiP2pGroupList$1'
p2320
sg15
(lp2321
sg17
(lp2322
sg19
(lp2323
sg21
I0
sba(iArchitecture
Entity
p2324
(dp2325
g11
(lp2326
sg13
S'android.net.wifi.p2p.WifiP2pGroupList$2'
p2327
sg15
(lp2328
sg17
(lp2329
sg19
(lp2330
sg21
I0
sba(iArchitecture
Entity
p2331
(dp2332
g11
(lp2333
sg13
S'android.net.wifi.p2p.WifiP2pGroupList$GroupDeleteListener'
p2334
sg15
(lp2335
sg17
(lp2336
sg19
(lp2337
sg21
I0
sbasg22
(lp2338
g2313
ag2320
ag2327
ag2334
asg21
I0
sg24
S'883'
p2339
sba(iArchitecture
Cluster
p2340
(dp2341
g7
(lp2342
(iArchitecture
Entity
p2343
(dp2344
g11
(lp2345
sg13
S'android.net.NetworkStats'
p2346
sg15
(lp2347
sg17
(lp2348
sg19
(lp2349
sg21
I0
sba(iArchitecture
Entity
p2350
(dp2351
g11
(lp2352
sg13
S'android.net.NetworkStats$1'
p2353
sg15
(lp2354
sg17
(lp2355
sg19
(lp2356
sg21
I0
sba(iArchitecture
Entity
p2357
(dp2358
g11
(lp2359
sg13
S'android.net.NetworkStats$Entry'
p2360
sg15
(lp2361
sg17
(lp2362
sg19
(lp2363
sg21
I0
sba(iArchitecture
Entity
p2364
(dp2365
g11
(lp2366
sg13
S'android.net.NetworkStats$NonMonotonicObserver'
p2367
sg15
(lp2368
sg17
(lp2369
sg19
(lp2370
sg21
I0
sbasg22
(lp2371
g2346
ag2353
ag2360
ag2367
asg21
I0
sg24
S'901'
p2372
sba(iArchitecture
Cluster
p2373
(dp2374
g7
(lp2375
(iArchitecture
Entity
p2376
(dp2377
g11
(lp2378
sg13
S'android.net.Network'
p2379
sg15
(lp2380
sg17
(lp2381
sg19
(lp2382
sg21
I0
sba(iArchitecture
Entity
p2383
(dp2384
g11
(lp2385
sg13
S'android.net.Network$1'
p2386
sg15
(lp2387
sg17
(lp2388
sg19
(lp2389
sg21
I0
sba(iArchitecture
Entity
p2390
(dp2391
g11
(lp2392
sg13
S'android.net.Network$2'
p2393
sg15
(lp2394
sg17
(lp2395
sg19
(lp2396
sg21
I0
sba(iArchitecture
Entity
p2397
(dp2398
g11
(lp2399
sg13
S'android.net.Network$NetworkBoundSocketFactory'
p2400
sg15
(lp2401
sg17
(lp2402
sg19
(lp2403
sg21
I0
sbasg22
(lp2404
g2379
ag2386
ag2393
ag2400
asg21
I0
sg24
S'917'
p2405
sba(iArchitecture
Cluster
p2406
(dp2407
g7
(lp2408
(iArchitecture
Entity
p2409
(dp2410
g11
(lp2411
sg13
S'android.net.LinkProperties'
p2412
sg15
(lp2413
sg17
(lp2414
sg19
(lp2415
sg21
I0
sba(iArchitecture
Entity
p2416
(dp2417
g11
(lp2418
sg13
S'android.net.LinkProperties$1'
p2419
sg15
(lp2420
sg17
(lp2421
sg19
(lp2422
sg21
I0
sba(iArchitecture
Entity
p2423
(dp2424
g11
(lp2425
sg13
S'android.net.LinkProperties$CompareResult'
p2426
sg15
(lp2427
sg17
(lp2428
sg19
(lp2429
sg21
I0
sba(iArchitecture
Entity
p2430
(dp2431
g11
(lp2432
sg13
S'android.net.LinkProperties$ProvisioningChange'
p2433
sg15
(lp2434
sg17
(lp2435
sg19
(lp2436
sg21
I0
sbasg22
(lp2437
g2412
ag2419
ag2426
ag2433
asg21
I0
sg24
S'918'
p2438
sba(iArchitecture
Cluster
p2439
(dp2440
g7
(lp2441
(iArchitecture
Entity
p2442
(dp2443
g11
(lp2444
sg13
S'android.net.IpConfiguration'
p2445
sg15
(lp2446
sg17
(lp2447
sg19
(lp2448
sg21
I0
sba(iArchitecture
Entity
p2449
(dp2450
g11
(lp2451
sg13
S'android.net.IpConfiguration$1'
p2452
sg15
(lp2453
sg17
(lp2454
sg19
(lp2455
sg21
I0
sba(iArchitecture
Entity
p2456
(dp2457
g11
(lp2458
sg13
S'android.net.IpConfiguration$IpAssignment'
p2459
sg15
(lp2460
sg17
(lp2461
sg19
(lp2462
sg21
I0
sba(iArchitecture
Entity
p2463
(dp2464
g11
(lp2465
sg13
S'android.net.IpConfiguration$ProxySettings'
p2466
sg15
(lp2467
sg17
(lp2468
sg19
(lp2469
sg21
I0
sbasg22
(lp2470
g2445
ag2452
ag2459
ag2466
asg21
I0
sg24
S'921'
p2471
sba(iArchitecture
Cluster
p2472
(dp2473
g7
(lp2474
(iArchitecture
Entity
p2475
(dp2476
g11
(lp2477
sg13
S'android.net.NetworkStatsHistory'
p2478
sg15
(lp2479
sg17
(lp2480
sg19
(lp2481
sg21
I0
sba(iArchitecture
Entity
p2482
(dp2483
g11
(lp2484
sg13
S'android.net.NetworkStatsHistory$1'
p2485
sg15
(lp2486
sg17
(lp2487
sg19
(lp2488
sg21
I0
sba(iArchitecture
Entity
p2489
(dp2490
g11
(lp2491
sg13
S'android.net.NetworkStatsHistory$DataStreamUtils'
p2492
sg15
(lp2493
sg17
(lp2494
sg19
(lp2495
sg21
I0
sba(iArchitecture
Entity
p2496
(dp2497
g11
(lp2498
sg13
S'android.net.NetworkStatsHistory$Entry'
p2499
sg15
(lp2500
sg17
(lp2501
sg19
(lp2502
sg21
I0
sba(iArchitecture
Entity
p2503
(dp2504
g11
(lp2505
sg13
S'android.net.NetworkStatsHistory$ParcelUtils'
p2506
sg15
(lp2507
sg17
(lp2508
sg19
(lp2509
sg21
I0
sbasg22
(lp2510
g2478
ag2485
ag2492
ag2499
ag2506
asg21
I0
sg24
S'962'
p2511
sbasS'target_sub'
p2512
S'android.net'
p2513
sg22
(lp2514
sS'is_component_arch'
p2515
I00
sg24
S'6.0.0_r1'
p2516
sba(iArchitecture
Architecture
p2517
(dp2518
g3
(lp2519
(iArchitecture
Cluster
p2520
(dp2521
g7
(lp2522
(iArchitecture
Entity
p2523
(dp2524
g11
(lp2525
sg13
S'android.net.apf.ApfFilter'
p2526
sg15
(lp2527
sg17
(lp2528
sg19
(lp2529
sg21
I0
sba(iArchitecture
Entity
p2530
(dp2531
g11
(lp2532
sg13
S'android.net.apf.ApfFilter$Ra'
p2533
sg15
(lp2534
sg17
(lp2535
sg19
(lp2536
sg21
I0
sba(iArchitecture
Entity
p2537
(dp2538
g11
(lp2539
sg13
S'android.net.apf.ApfFilter$ReceiveThread'
p2540
sg15
(lp2541
sg17
(lp2542
sg19
(lp2543
sg21
I0
sbasg22
(lp2544
g2526
ag2533
ag2540
asg21
I0
sg24
S'1002'
p2545
sba(iArchitecture
Cluster
p2546
(dp2547
g7
(lp2548
(iArchitecture
Entity
p2549
(dp2550
g11
(lp2551
sg13
S'android.net.NetworkStats'
p2552
sg15
(lp2553
sg17
(lp2554
sg19
(lp2555
sg21
I0
sba(iArchitecture
Entity
p2556
(dp2557
g11
(lp2558
sg13
S'android.net.NetworkStats$1'
p2559
sg15
(lp2560
sg17
(lp2561
sg19
(lp2562
sg21
I0
sba(iArchitecture
Entity
p2563
(dp2564
g11
(lp2565
sg13
S'android.net.NetworkStats$Entry'
p2566
sg15
(lp2567
sg17
(lp2568
sg19
(lp2569
sg21
I0
sba(iArchitecture
Entity
p2570
(dp2571
g11
(lp2572
sg13
S'android.net.NetworkStats$NonMonotonicObserver'
p2573
sg15
(lp2574
sg17
(lp2575
sg19
(lp2576
sg21
I0
sbasg22
(lp2577
g2552
ag2559
ag2566
ag2573
asg21
I0
sg24
S'1016'
p2578
sba(iArchitecture
Cluster
p2579
(dp2580
g7
(lp2581
(iArchitecture
Entity
p2582
(dp2583
g11
(lp2584
sg13
S'android.net.Network'
p2585
sg15
(lp2586
sg17
(lp2587
sg19
(lp2588
sg21
I0
sba(iArchitecture
Entity
p2589
(dp2590
g11
(lp2591
sg13
S'android.net.Network$1'
p2592
sg15
(lp2593
sg17
(lp2594
sg19
(lp2595
sg21
I0
sba(iArchitecture
Entity
p2596
(dp2597
g11
(lp2598
sg13
S'android.net.Network$2'
p2599
sg15
(lp2600
sg17
(lp2601
sg19
(lp2602
sg21
I0
sba(iArchitecture
Entity
p2603
(dp2604
g11
(lp2605
sg13
S'android.net.Network$NetworkBoundSocketFactory'
p2606
sg15
(lp2607
sg17
(lp2608
sg19
(lp2609
sg21
I0
sbasg22
(lp2610
g2585
ag2592
ag2599
ag2606
asg21
I0
sg24
S'1032'
p2611
sba(iArchitecture
Cluster
p2612
(dp2613
g7
(lp2614
(iArchitecture
Entity
p2615
(dp2616
g11
(lp2617
sg13
S'android.net.LinkProperties'
p2618
sg15
(lp2619
sg17
(lp2620
sg19
(lp2621
sg21
I0
sba(iArchitecture
Entity
p2622
(dp2623
g11
(lp2624
sg13
S'android.net.LinkProperties$1'
p2625
sg15
(lp2626
sg17
(lp2627
sg19
(lp2628
sg21
I0
sba(iArchitecture
Entity
p2629
(dp2630
g11
(lp2631
sg13
S'android.net.LinkProperties$CompareResult'
p2632
sg15
(lp2633
sg17
(lp2634
sg19
(lp2635
sg21
I0
sba(iArchitecture
Entity
p2636
(dp2637
g11
(lp2638
sg13
S'android.net.LinkProperties$ProvisioningChange'
p2639
sg15
(lp2640
sg17
(lp2641
sg19
(lp2642
sg21
I0
sbasg22
(lp2643
g2618
ag2625
ag2632
ag2639
asg21
I0
sg24
S'1034'
p2644
sba(iArchitecture
Cluster
p2645
(dp2646
g7
(lp2647
(iArchitecture
Entity
p2648
(dp2649
g11
(lp2650
sg13
S'android.net.IpConfiguration'
p2651
sg15
(lp2652
sg17
(lp2653
sg19
(lp2654
sg21
I0
sba(iArchitecture
Entity
p2655
(dp2656
g11
(lp2657
sg13
S'android.net.IpConfiguration$1'
p2658
sg15
(lp2659
sg17
(lp2660
sg19
(lp2661
sg21
I0
sba(iArchitecture
Entity
p2662
(dp2663
g11
(lp2664
sg13
S'android.net.IpConfiguration$IpAssignment'
p2665
sg15
(lp2666
sg17
(lp2667
sg19
(lp2668
sg21
I0
sba(iArchitecture
Entity
p2669
(dp2670
g11
(lp2671
sg13
S'android.net.IpConfiguration$ProxySettings'
p2672
sg15
(lp2673
sg17
(lp2674
sg19
(lp2675
sg21
I0
sbasg22
(lp2676
g2651
ag2658
ag2665
ag2672
asg21
I0
sg24
S'1037'
p2677
sba(iArchitecture
Cluster
p2678
(dp2679
g7
(lp2680
(iArchitecture
Entity
p2681
(dp2682
g11
(lp2683
sg13
S'android.net.wifi.WifiEnterpriseConfig'
p2684
sg15
(lp2685
sg17
(lp2686
sg19
(lp2687
sg21
I0
sba(iArchitecture
Entity
p2688
(dp2689
g11
(lp2690
sg13
S'android.net.wifi.WifiEnterpriseConfig$1'
p2691
sg15
(lp2692
sg17
(lp2693
sg19
(lp2694
sg21
I0
sba(iArchitecture
Entity
p2695
(dp2696
g11
(lp2697
sg13
S'android.net.wifi.WifiEnterpriseConfig$Eap'
p2698
sg15
(lp2699
sg17
(lp2700
sg19
(lp2701
sg21
I0
sba(iArchitecture
Entity
p2702
(dp2703
g11
(lp2704
sg13
S'android.net.wifi.WifiEnterpriseConfig$Phase2'
p2705
sg15
(lp2706
sg17
(lp2707
sg19
(lp2708
sg21
I0
sba(iArchitecture
Entity
p2709
(dp2710
g11
(lp2711
sg13
S'android.net.wifi.WifiEnterpriseConfig$SupplicantLoader'
p2712
sg15
(lp2713
sg17
(lp2714
sg19
(lp2715
sg21
I0
sba(iArchitecture
Entity
p2716
(dp2717
g11
(lp2718
sg13
S'android.net.wifi.WifiEnterpriseConfig$SupplicantSaver'
p2719
sg15
(lp2720
sg17
(lp2721
sg19
(lp2722
sg21
I0
sbasg22
(lp2723
g2684
ag2691
ag2698
ag2705
ag2712
ag2719
asg21
I0
sg24
S'1084'
p2724
sba(iArchitecture
Cluster
p2725
(dp2726
g7
(lp2727
(iArchitecture
Entity
p2728
(dp2729
g11
(lp2730
sg13
S'android.net.NetworkStatsHistory'
p2731
sg15
(lp2732
sg17
(lp2733
sg19
(lp2734
sg21
I0
sba(iArchitecture
Entity
p2735
(dp2736
g11
(lp2737
sg13
S'android.net.NetworkStatsHistory$1'
p2738
sg15
(lp2739
sg17
(lp2740
sg19
(lp2741
sg21
I0
sba(iArchitecture
Entity
p2742
(dp2743
g11
(lp2744
sg13
S'android.net.NetworkStatsHistory$DataStreamUtils'
p2745
sg15
(lp2746
sg17
(lp2747
sg19
(lp2748
sg21
I0
sba(iArchitecture
Entity
p2749
(dp2750
g11
(lp2751
sg13
S'android.net.NetworkStatsHistory$Entry'
p2752
sg15
(lp2753
sg17
(lp2754
sg19
(lp2755
sg21
I0
sba(iArchitecture
Entity
p2756
(dp2757
g11
(lp2758
sg13
S'android.net.NetworkStatsHistory$ParcelUtils'
p2759
sg15
(lp2760
sg17
(lp2761
sg19
(lp2762
sg21
I0
sbasg22
(lp2763
g2731
ag2738
ag2745
ag2752
ag2759
asg21
I0
sg24
S'1089'
p2764
sba(iArchitecture
Cluster
p2765
(dp2766
g7
(lp2767
(iArchitecture
Entity
p2768
(dp2769
g11
(lp2770
sg13
S'android.net.apf.ApfGenerator'
p2771
sg15
(lp2772
sg17
(lp2773
sg19
(lp2774
sg21
I0
sba(iArchitecture
Entity
p2775
(dp2776
g11
(lp2777
sg13
S'android.net.apf.ApfGenerator$ExtendedOpcodes'
p2778
sg15
(lp2779
sg17
(lp2780
sg19
(lp2781
sg21
I0
sba(iArchitecture
Entity
p2782
(dp2783
g11
(lp2784
sg13
S'android.net.apf.ApfGenerator$IllegalInstructionException'
p2785
sg15
(lp2786
sg17
(lp2787
sg19
(lp2788
sg21
I0
sba(iArchitecture
Entity
p2789
(dp2790
g11
(lp2791
sg13
S'android.net.apf.ApfGenerator$Instruction'
p2792
sg15
(lp2793
sg17
(lp2794
sg19
(lp2795
sg21
I0
sba(iArchitecture
Entity
p2796
(dp2797
g11
(lp2798
sg13
S'android.net.apf.ApfGenerator$Opcodes'
p2799
sg15
(lp2800
sg17
(lp2801
sg19
(lp2802
sg21
I0
sba(iArchitecture
Entity
p2803
(dp2804
g11
(lp2805
sg13
S'android.net.apf.ApfGenerator$Register'
p2806
sg15
(lp2807
sg17
(lp2808
sg19
(lp2809
sg21
I0
sbasg22
(lp2810
g2771
ag2778
ag2785
ag2792
ag2799
ag2806
asg21
I0
sg24
S'1129'
p2811
sba(iArchitecture
Cluster
p2812
(dp2813
g7
(lp2814
(iArchitecture
Entity
p2815
(dp2816
g11
(lp2817
sg13
S'android.net.netlink.NetlinkMessage'
p2818
sg15
(lp2819
sg17
(lp2820
sg19
(lp2821
sg21
I0
sbasg22
(lp2822
g2818
asg21
I0
sg24
S'120'
p2823
sba(iArchitecture
Cluster
p2824
(dp2825
g7
(lp2826
(iArchitecture
Entity
p2827
(dp2828
g11
(lp2829
sg13
S'android.net.Uri'
p2830
sg15
(lp2831
sg17
(lp2832
sg19
(lp2833
sg21
I0
sba(iArchitecture
Entity
p2834
(dp2835
g11
(lp2836
sg13
S'android.net.Uri$1'
p2837
sg15
(lp2838
sg17
(lp2839
sg19
(lp2840
sg21
I0
sba(iArchitecture
Entity
p2841
(dp2842
g11
(lp2843
sg13
S'android.net.Uri$AbstractHierarchicalUri'
p2844
sg15
(lp2845
sg17
(lp2846
sg19
(lp2847
sg21
I0
sba(iArchitecture
Entity
p2848
(dp2849
g11
(lp2850
sg13
S'android.net.Uri$AbstractPart'
p2851
sg15
(lp2852
sg17
(lp2853
sg19
(lp2854
sg21
I0
sba(iArchitecture
Entity
p2855
(dp2856
g11
(lp2857
sg13
S'android.net.Uri$AbstractPart$Representation'
p2858
sg15
(lp2859
sg17
(lp2860
sg19
(lp2861
sg21
I0
sba(iArchitecture
Entity
p2862
(dp2863
g11
(lp2864
sg13
S'android.net.Uri$Builder'
p2865
sg15
(lp2866
sg17
(lp2867
sg19
(lp2868
sg21
I0
sba(iArchitecture
Entity
p2869
(dp2870
g11
(lp2871
sg13
S'android.net.Uri$HierarchicalUri'
p2872
sg15
(lp2873
sg17
(lp2874
sg19
(lp2875
sg21
I0
sba(iArchitecture
Entity
p2876
(dp2877
g11
(lp2878
sg13
S'android.net.Uri$OpaqueUri'
p2879
sg15
(lp2880
sg17
(lp2881
sg19
(lp2882
sg21
I0
sba(iArchitecture
Entity
p2883
(dp2884
g11
(lp2885
sg13
S'android.net.Uri$Part'
p2886
sg15
(lp2887
sg17
(lp2888
sg19
(lp2889
sg21
I0
sba(iArchitecture
Entity
p2890
(dp2891
g11
(lp2892
sg13
S'android.net.Uri$Part$EmptyPart'
p2893
sg15
(lp2894
sg17
(lp2895
sg19
(lp2896
sg21
I0
sba(iArchitecture
Entity
p2897
(dp2898
g11
(lp2899
sg13
S'android.net.Uri$PathPart'
p2900
sg15
(lp2901
sg17
(lp2902
sg19
(lp2903
sg21
I0
sba(iArchitecture
Entity
p2904
(dp2905
g11
(lp2906
sg13
S'android.net.Uri$PathSegments'
p2907
sg15
(lp2908
sg17
(lp2909
sg19
(lp2910
sg21
I0
sba(iArchitecture
Entity
p2911
(dp2912
g11
(lp2913
sg13
S'android.net.Uri$PathSegmentsBuilder'
p2914
sg15
(lp2915
sg17
(lp2916
sg19
(lp2917
sg21
I0
sba(iArchitecture
Entity
p2918
(dp2919
g11
(lp2920
sg13
S'android.net.Uri$StringUri'
p2921
sg15
(lp2922
sg17
(lp2923
sg19
(lp2924
sg21
I0
sbasg22
(lp2925
g2830
ag2837
ag2844
ag2851
ag2858
ag2865
ag2872
ag2879
ag2886
ag2893
ag2900
ag2907
ag2914
ag2921
asg21
I0
sg24
S'1211'
p2926
sba(iArchitecture
Cluster
p2927
(dp2928
g7
(lp2929
(iArchitecture
Entity
p2930
(dp2931
g11
(lp2932
sg13
S'android.net.wifi.RttManager'
p2933
sg15
(lp2934
sg17
(lp2935
sg19
(lp2936
sg21
I0
sba(iArchitecture
Entity
p2937
(dp2938
g11
(lp2939
sg13
S'android.net.wifi.RttManager$Capabilities'
p2940
sg15
(lp2941
sg17
(lp2942
sg19
(lp2943
sg21
I0
sba(iArchitecture
Entity
p2944
(dp2945
g11
(lp2946
sg13
S'android.net.wifi.RttManager$ParcelableRttParams'
p2947
sg15
(lp2948
sg17
(lp2949
sg19
(lp2950
sg21
I0
sba(iArchitecture
Entity
p2951
(dp2952
g11
(lp2953
sg13
S'android.net.wifi.RttManager$ParcelableRttParams$1'
p2954
sg15
(lp2955
sg17
(lp2956
sg19
(lp2957
sg21
I0
sba(iArchitecture
Entity
p2958
(dp2959
g11
(lp2960
sg13
S'android.net.wifi.RttManager$ParcelableRttResults'
p2961
sg15
(lp2962
sg17
(lp2963
sg19
(lp2964
sg21
I0
sba(iArchitecture
Entity
p2965
(dp2966
g11
(lp2967
sg13
S'android.net.wifi.RttManager$ParcelableRttResults$1'
p2968
sg15
(lp2969
sg17
(lp2970
sg19
(lp2971
sg21
I0
sba(iArchitecture
Entity
p2972
(dp2973
g11
(lp2974
sg13
S'android.net.wifi.RttManager$ResponderCallback'
p2975
sg15
(lp2976
sg17
(lp2977
sg19
(lp2978
sg21
I0
sba(iArchitecture
Entity
p2979
(dp2980
g11
(lp2981
sg13
S'android.net.wifi.RttManager$ResponderConfig'
p2982
sg15
(lp2983
sg17
(lp2984
sg19
(lp2985
sg21
I0
sba(iArchitecture
Entity
p2986
(dp2987
g11
(lp2988
sg13
S'android.net.wifi.RttManager$ResponderConfig$1'
p2989
sg15
(lp2990
sg17
(lp2991
sg19
(lp2992
sg21
I0
sba(iArchitecture
Entity
p2993
(dp2994
g11
(lp2995
sg13
S'android.net.wifi.RttManager$RttCapabilities'
p2996
sg15
(lp2997
sg17
(lp2998
sg19
(lp2999
sg21
I0
sba(iArchitecture
Entity
p3000
(dp3001
g11
(lp3002
sg13
S'android.net.wifi.RttManager$RttCapabilities$1'
p3003
sg15
(lp3004
sg17
(lp3005
sg19
(lp3006
sg21
I0
sba(iArchitecture
Entity
p3007
(dp3008
g11
(lp3009
sg13
S'android.net.wifi.RttManager$RttListener'
p3010
sg15
(lp3011
sg17
(lp3012
sg19
(lp3013
sg21
I0
sba(iArchitecture
Entity
p3014
(dp3015
g11
(lp3016
sg13
S'android.net.wifi.RttManager$RttParams'
p3017
sg15
(lp3018
sg17
(lp3019
sg19
(lp3020
sg21
I0
sba(iArchitecture
Entity
p3021
(dp3022
g11
(lp3023
sg13
S'android.net.wifi.RttManager$RttResult'
p3024
sg15
(lp3025
sg17
(lp3026
sg19
(lp3027
sg21
I0
sba(iArchitecture
Entity
p3028
(dp3029
g11
(lp3030
sg13
S'android.net.wifi.RttManager$ServiceHandler'
p3031
sg15
(lp3032
sg17
(lp3033
sg19
(lp3034
sg21
I0
sba(iArchitecture
Entity
p3035
(dp3036
g11
(lp3037
sg13
S'android.net.wifi.RttManager$WifiInformationElement'
p3038
sg15
(lp3039
sg17
(lp3040
sg19
(lp3041
sg21
I0
sbasg22
(lp3042
g2933
ag2940
ag2947
ag2954
ag2961
ag2968
ag2975
ag2982
ag2989
ag2996
ag3003
ag3010
ag3017
ag3024
ag3031
ag3038
asg21
I0
sg24
S'1218'
p3043
sba(iArchitecture
Cluster
p3044
(dp3045
g7
(lp3046
(iArchitecture
Entity
p3047
(dp3048
g11
(lp3049
sg13
S'android.net.wifi.WifiScanner'
p3050
sg15
(lp3051
sg17
(lp3052
sg19
(lp3053
sg21
I0
sba(iArchitecture
Entity
p3054
(dp3055
g11
(lp3056
sg13
S'android.net.wifi.WifiScanner$ActionListener'
p3057
sg15
(lp3058
sg17
(lp3059
sg19
(lp3060
sg21
I0
sba(iArchitecture
Entity
p3061
(dp3062
g11
(lp3063
sg13
S'android.net.wifi.WifiScanner$BssidInfo'
p3064
sg15
(lp3065
sg17
(lp3066
sg19
(lp3067
sg21
I0
sba(iArchitecture
Entity
p3068
(dp3069
g11
(lp3070
sg13
S'android.net.wifi.WifiScanner$BssidListener'
p3071
sg15
(lp3072
sg17
(lp3073
sg19
(lp3074
sg21
I0
sba(iArchitecture
Entity
p3075
(dp3076
g11
(lp3077
sg13
S'android.net.wifi.WifiScanner$ChannelSpec'
p3078
sg15
(lp3079
sg17
(lp3080
sg19
(lp3081
sg21
I0
sba(iArchitecture
Entity
p3082
(dp3083
g11
(lp3084
sg13
S'android.net.wifi.WifiScanner$HotlistSettings'
p3085
sg15
(lp3086
sg17
(lp3087
sg19
(lp3088
sg21
I0
sba(iArchitecture
Entity
p3089
(dp3090
g11
(lp3091
sg13
S'android.net.wifi.WifiScanner$HotlistSettings$1'
p3092
sg15
(lp3093
sg17
(lp3094
sg19
(lp3095
sg21
I0
sba(iArchitecture
Entity
p3096
(dp3097
g11
(lp3098
sg13
S'android.net.wifi.WifiScanner$OperationResult'
p3099
sg15
(lp3100
sg17
(lp3101
sg19
(lp3102
sg21
I0
sba(iArchitecture
Entity
p3103
(dp3104
g11
(lp3105
sg13
S'android.net.wifi.WifiScanner$OperationResult$1'
p3106
sg15
(lp3107
sg17
(lp3108
sg19
(lp3109
sg21
I0
sba(iArchitecture
Entity
p3110
(dp3111
g11
(lp3112
sg13
S'android.net.wifi.WifiScanner$ParcelableScanData'
p3113
sg15
(lp3114
sg17
(lp3115
sg19
(lp3116
sg21
I0
sba(iArchitecture
Entity
p3117
(dp3118
g11
(lp3119
sg13
S'android.net.wifi.WifiScanner$ParcelableScanData$1'
p3120
sg15
(lp3121
sg17
(lp3122
sg19
(lp3123
sg21
I0
sba(iArchitecture
Entity
p3124
(dp3125
g11
(lp3126
sg13
S'android.net.wifi.WifiScanner$ParcelableScanResults'
p3127
sg15
(lp3128
sg17
(lp3129
sg19
(lp3130
sg21
I0
sba(iArchitecture
Entity
p3131
(dp3132
g11
(lp3133
sg13
S'android.net.wifi.WifiScanner$ParcelableScanResults$1'
p3134
sg15
(lp3135
sg17
(lp3136
sg19
(lp3137
sg21
I0
sba(iArchitecture
Entity
p3138
(dp3139
g11
(lp3140
sg13
S'android.net.wifi.WifiScanner$PnoScanListener'
p3141
sg15
(lp3142
sg17
(lp3143
sg19
(lp3144
sg21
I0
sba(iArchitecture
Entity
p3145
(dp3146
g11
(lp3147
sg13
S'android.net.wifi.WifiScanner$PnoSettings'
p3148
sg15
(lp3149
sg17
(lp3150
sg19
(lp3151
sg21
I0
sba(iArchitecture
Entity
p3152
(dp3153
g11
(lp3154
sg13
S'android.net.wifi.WifiScanner$PnoSettings$1'
p3155
sg15
(lp3156
sg17
(lp3157
sg19
(lp3158
sg21
I0
sba(iArchitecture
Entity
p3159
(dp3160
g11
(lp3161
sg13
S'android.net.wifi.WifiScanner$PnoSettings$PnoNetwork'
p3162
sg15
(lp3163
sg17
(lp3164
sg19
(lp3165
sg21
I0
sba(iArchitecture
Entity
p3166
(dp3167
g11
(lp3168
sg13
S'android.net.wifi.WifiScanner$ScanData'
p3169
sg15
(lp3170
sg17
(lp3171
sg19
(lp3172
sg21
I0
sba(iArchitecture
Entity
p3173
(dp3174
g11
(lp3175
sg13
S'android.net.wifi.WifiScanner$ScanData$1'
p3176
sg15
(lp3177
sg17
(lp3178
sg19
(lp3179
sg21
I0
sba(iArchitecture
Entity
p3180
(dp3181
g11
(lp3182
sg13
S'android.net.wifi.WifiScanner$ScanListener'
p3183
sg15
(lp3184
sg17
(lp3185
sg19
(lp3186
sg21
I0
sba(iArchitecture
Entity
p3187
(dp3188
g11
(lp3189
sg13
S'android.net.wifi.WifiScanner$ScanSettings'
p3190
sg15
(lp3191
sg17
(lp3192
sg19
(lp3193
sg21
I0
sba(iArchitecture
Entity
p3194
(dp3195
g11
(lp3196
sg13
S'android.net.wifi.WifiScanner$ScanSettings$1'
p3197
sg15
(lp3198
sg17
(lp3199
sg19
(lp3200
sg21
I0
sba(iArchitecture
Entity
p3201
(dp3202
g11
(lp3203
sg13
S'android.net.wifi.WifiScanner$ServiceHandler'
p3204
sg15
(lp3205
sg17
(lp3206
sg19
(lp3207
sg21
I0
sba(iArchitecture
Entity
p3208
(dp3209
g11
(lp3210
sg13
S'android.net.wifi.WifiScanner$WifiChangeListener'
p3211
sg15
(lp3212
sg17
(lp3213
sg19
(lp3214
sg21
I0
sba(iArchitecture
Entity
p3215
(dp3216
g11
(lp3217
sg13
S'android.net.wifi.WifiScanner$WifiChangeSettings'
p3218
sg15
(lp3219
sg17
(lp3220
sg19
(lp3221
sg21
I0
sba(iArchitecture
Entity
p3222
(dp3223
g11
(lp3224
sg13
S'android.net.wifi.WifiScanner$WifiChangeSettings$1'
p3225
sg15
(lp3226
sg17
(lp3227
sg19
(lp3228
sg21
I0
sbasg22
(lp3229
g3050
ag3057
ag3064
ag3071
ag3078
ag3085
ag3092
ag3099
ag3106
ag3113
ag3120
ag3127
ag3134
ag3141
ag3148
ag3155
ag3162
ag3169
ag3176
ag3183
ag3190
ag3197
ag3204
ag3211
ag3218
ag3225
asg21
I0
sg24
S'1226'
p3230
sba(iArchitecture
Cluster
p3231
(dp3232
g7
(lp3233
(iArchitecture
Entity
p3234
(dp3235
g11
(lp3236
sg13
S'android.net.netlink.RtNetlinkNeighborMessage'
p3237
sg15
(lp3238
sg17
(lp3239
sg19
(lp3240
sg21
I0
sba(iArchitecture
Entity
p3241
(dp3242
g11
(lp3243
sg13
S'android.net.netlink.StructNlAttr'
p3244
sg15
(lp3245
sg17
(lp3246
sg19
(lp3247
sg21
I0
sba(iArchitecture
Entity
p3248
(dp3249
g11
(lp3250
sg13
S'android.net.netlink.StructNlMsgHdr'
p3251
sg15
(lp3252
sg17
(lp3253
sg19
(lp3254
sg21
I0
sbasg22
(lp3255
g3237
ag3244
ag3251
asg21
I0
sg24
S'1277'
p3256
sba(iArchitecture
Cluster
p3257
(dp3258
g7
(lp3259
(iArchitecture
Entity
p3260
(dp3261
g11
(lp3262
sg13
S'android.net.http.X509TrustManagerExtensions'
p3263
sg15
(lp3264
sg17
(lp3265
sg19
(lp3266
sg21
I0
sbasg22
(lp3267
g3263
asg21
I0
sg24
S'1282'
p3268
sba(iArchitecture
Cluster
p3269
(dp3270
g7
(lp3271
(iArchitecture
Entity
p3272
(dp3273
g11
(lp3274
sg13
S'android.net.nsd.NsdManager'
p3275
sg15
(lp3276
sg17
(lp3277
sg19
(lp3278
sg21
I0
sba(iArchitecture
Entity
p3279
(dp3280
g11
(lp3281
sg13
S'android.net.nsd.NsdManager$DiscoveryListener'
p3282
sg15
(lp3283
sg17
(lp3284
sg19
(lp3285
sg21
I0
sba(iArchitecture
Entity
p3286
(dp3287
g11
(lp3288
sg13
S'android.net.nsd.NsdManager$RegistrationListener'
p3289
sg15
(lp3290
sg17
(lp3291
sg19
(lp3292
sg21
I0
sba(iArchitecture
Entity
p3293
(dp3294
g11
(lp3295
sg13
S'android.net.nsd.NsdManager$ResolveListener'
p3296
sg15
(lp3297
sg17
(lp3298
sg19
(lp3299
sg21
I0
sba(iArchitecture
Entity
p3300
(dp3301
g11
(lp3302
sg13
S'android.net.nsd.NsdManager$ServiceHandler'
p3303
sg15
(lp3304
sg17
(lp3305
sg19
(lp3306
sg21
I0
sbasg22
(lp3307
g3275
ag3282
ag3289
ag3296
ag3303
asg21
I0
sg24
S'1297'
p3308
sba(iArchitecture
Cluster
p3309
(dp3310
g7
(lp3311
(iArchitecture
Entity
p3312
(dp3313
g11
(lp3314
sg13
S'android.net.wifi.WifiActivityEnergyInfo'
p3315
sg15
(lp3316
sg17
(lp3317
sg19
(lp3318
sg21
I0
sba(iArchitecture
Entity
p3319
(dp3320
g11
(lp3321
sg13
S'android.net.wifi.WifiActivityEnergyInfo$1'
p3322
sg15
(lp3323
sg17
(lp3324
sg19
(lp3325
sg21
I0
sbasg22
(lp3326
g3315
ag3322
asg21
I0
sg24
S'1300'
p3327
sba(iArchitecture
Cluster
p3328
(dp3329
g7
(lp3330
(iArchitecture
Entity
p3331
(dp3332
g11
(lp3333
sg13
S'android.net.dhcp.DhcpClient'
p3334
sg15
(lp3335
sg17
(lp3336
sg19
(lp3337
sg21
I0
sba(iArchitecture
Entity
p3338
(dp3339
g11
(lp3340
sg13
S'android.net.dhcp.DhcpClient$ConfiguringInterfaceState'
p3341
sg15
(lp3342
sg17
(lp3343
sg19
(lp3344
sg21
I0
sba(iArchitecture
Entity
p3345
(dp3346
g11
(lp3347
sg13
S'android.net.dhcp.DhcpClient$DhcpBoundState'
p3348
sg15
(lp3349
sg17
(lp3350
sg19
(lp3351
sg21
I0
sba(iArchitecture
Entity
p3352
(dp3353
g11
(lp3354
sg13
S'android.net.dhcp.DhcpClient$DhcpHaveLeaseState'
p3355
sg15
(lp3356
sg17
(lp3357
sg19
(lp3358
sg21
I0
sba(iArchitecture
Entity
p3359
(dp3360
g11
(lp3361
sg13
S'android.net.dhcp.DhcpClient$DhcpInitRebootState'
p3362
sg15
(lp3363
sg17
(lp3364
sg19
(lp3365
sg21
I0
sba(iArchitecture
Entity
p3366
(dp3367
g11
(lp3368
sg13
S'android.net.dhcp.DhcpClient$DhcpInitState'
p3369
sg15
(lp3370
sg17
(lp3371
sg19
(lp3372
sg21
I0
sba(iArchitecture
Entity
p3373
(dp3374
g11
(lp3375
sg13
S'android.net.dhcp.DhcpClient$DhcpReacquiringState'
p3376
sg15
(lp3377
sg17
(lp3378
sg19
(lp3379
sg21
I0
sba(iArchitecture
Entity
p3380
(dp3381
g11
(lp3382
sg13
S'android.net.dhcp.DhcpClient$DhcpRebindingState'
p3383
sg15
(lp3384
sg17
(lp3385
sg19
(lp3386
sg21
I0
sba(iArchitecture
Entity
p3387
(dp3388
g11
(lp3389
sg13
S'android.net.dhcp.DhcpClient$DhcpRebootingState'
p3390
sg15
(lp3391
sg17
(lp3392
sg19
(lp3393
sg21
I0
sba(iArchitecture
Entity
p3394
(dp3395
g11
(lp3396
sg13
S'android.net.dhcp.DhcpClient$DhcpRenewingState'
p3397
sg15
(lp3398
sg17
(lp3399
sg19
(lp3400
sg21
I0
sba(iArchitecture
Entity
p3401
(dp3402
g11
(lp3403
sg13
S'android.net.dhcp.DhcpClient$DhcpRequestingState'
p3404
sg15
(lp3405
sg17
(lp3406
sg19
(lp3407
sg21
I0
sba(iArchitecture
Entity
p3408
(dp3409
g11
(lp3410
sg13
S'android.net.dhcp.DhcpClient$DhcpSelectingState'
p3411
sg15
(lp3412
sg17
(lp3413
sg19
(lp3414
sg21
I0
sba(iArchitecture
Entity
p3415
(dp3416
g11
(lp3417
sg13
S'android.net.dhcp.DhcpClient$DhcpState'
p3418
sg15
(lp3419
sg17
(lp3420
sg19
(lp3421
sg21
I0
sba(iArchitecture
Entity
p3422
(dp3423
g11
(lp3424
sg13
S'android.net.dhcp.DhcpClient$LoggingState'
p3425
sg15
(lp3426
sg17
(lp3427
sg19
(lp3428
sg21
I0
sba(iArchitecture
Entity
p3429
(dp3430
g11
(lp3431
sg13
S'android.net.dhcp.DhcpClient$PacketRetransmittingState'
p3432
sg15
(lp3433
sg17
(lp3434
sg19
(lp3435
sg21
I0
sba(iArchitecture
Entity
p3436
(dp3437
g11
(lp3438
sg13
S'android.net.dhcp.DhcpClient$ReceiveThread'
p3439
sg15
(lp3440
sg17
(lp3441
sg19
(lp3442
sg21
I0
sba(iArchitecture
Entity
p3443
(dp3444
g11
(lp3445
sg13
S'android.net.dhcp.DhcpClient$StoppedState'
p3446
sg15
(lp3447
sg17
(lp3448
sg19
(lp3449
sg21
I0
sba(iArchitecture
Entity
p3450
(dp3451
g11
(lp3452
sg13
S'android.net.dhcp.DhcpClient$WaitBeforeOtherState'
p3453
sg15
(lp3454
sg17
(lp3455
sg19
(lp3456
sg21
I0
sba(iArchitecture
Entity
p3457
(dp3458
g11
(lp3459
sg13
S'android.net.dhcp.DhcpClient$WaitBeforeRenewalState'
p3460
sg15
(lp3461
sg17
(lp3462
sg19
(lp3463
sg21
I0
sba(iArchitecture
Entity
p3464
(dp3465
g11
(lp3466
sg13
S'android.net.dhcp.DhcpClient$WaitBeforeStartState'
p3467
sg15
(lp3468
sg17
(lp3469
sg19
(lp3470
sg21
I0
sba(iArchitecture
Entity
p3471
(dp3472
g11
(lp3473
sg13
S'android.net.dhcp.DhcpPacket'
p3474
sg15
(lp3475
sg17
(lp3476
sg19
(lp3477
sg21
I0
sba(iArchitecture
Entity
p3478
(dp3479
g11
(lp3480
sg13
S'android.net.dhcp.DhcpPacket$ParseException'
p3481
sg15
(lp3482
sg17
(lp3483
sg19
(lp3484
sg21
I0
sbasg22
(lp3485
g3334
ag3341
ag3348
ag3355
ag3362
ag3369
ag3376
ag3383
ag3390
ag3397
ag3404
ag3411
ag3418
ag3425
ag3432
ag3439
ag3446
ag3453
ag3460
ag3467
ag3474
ag3481
asg21
I0
sg24
S'1315'
p3486
sba(iArchitecture
Cluster
p3487
(dp3488
g7
(lp3489
(iArchitecture
Entity
p3490
(dp3491
g11
(lp3492
sg13
S'android.net.DataUsageRequest'
p3493
sg15
(lp3494
sg17
(lp3495
sg19
(lp3496
sg21
I0
sba(iArchitecture
Entity
p3497
(dp3498
g11
(lp3499
sg13
S'android.net.DataUsageRequest$1'
p3500
sg15
(lp3501
sg17
(lp3502
sg19
(lp3503
sg21
I0
sba(iArchitecture
Entity
p3504
(dp3505
g11
(lp3506
sg13
S'android.net.LocalSocketAddress'
p3507
sg15
(lp3508
sg17
(lp3509
sg19
(lp3510
sg21
I0
sba(iArchitecture
Entity
p3511
(dp3512
g11
(lp3513
sg13
S'android.net.LocalSocketAddress$Namespace'
p3514
sg15
(lp3515
sg17
(lp3516
sg19
(lp3517
sg21
I0
sba(iArchitecture
Entity
p3518
(dp3519
g11
(lp3520
sg13
S'android.net.NetworkKey'
p3521
sg15
(lp3522
sg17
(lp3523
sg19
(lp3524
sg21
I0
sba(iArchitecture
Entity
p3525
(dp3526
g11
(lp3527
sg13
S'android.net.NetworkKey$1'
p3528
sg15
(lp3529
sg17
(lp3530
sg19
(lp3531
sg21
I0
sba(iArchitecture
Entity
p3532
(dp3533
g11
(lp3534
sg13
S'android.net.ParseException'
p3535
sg15
(lp3536
sg17
(lp3537
sg19
(lp3538
sg21
I0
sba(iArchitecture
Entity
p3539
(dp3540
g11
(lp3541
sg13
S'android.net.metrics.DefaultNetworkEvent'
p3542
sg15
(lp3543
sg17
(lp3544
sg19
(lp3545
sg21
I0
sba(iArchitecture
Entity
p3546
(dp3547
g11
(lp3548
sg13
S'android.net.metrics.DefaultNetworkEvent$1'
p3549
sg15
(lp3550
sg17
(lp3551
sg19
(lp3552
sg21
I0
sba(iArchitecture
Entity
p3553
(dp3554
g11
(lp3555
sg13
S'android.net.metrics.DnsEvent'
p3556
sg15
(lp3557
sg17
(lp3558
sg19
(lp3559
sg21
I0
sba(iArchitecture
Entity
p3560
(dp3561
g11
(lp3562
sg13
S'android.net.metrics.DnsEvent$1'
p3563
sg15
(lp3564
sg17
(lp3565
sg19
(lp3566
sg21
I0
sba(iArchitecture
Entity
p3567
(dp3568
g11
(lp3569
sg13
S'android.net.metrics.IpManagerEvent'
p3570
sg15
(lp3571
sg17
(lp3572
sg19
(lp3573
sg21
I0
sba(iArchitecture
Entity
p3574
(dp3575
g11
(lp3576
sg13
S'android.net.metrics.IpManagerEvent$1'
p3577
sg15
(lp3578
sg17
(lp3579
sg19
(lp3580
sg21
I0
sba(iArchitecture
Entity
p3581
(dp3582
g11
(lp3583
sg13
S'android.net.metrics.IpManagerEvent$Decoder'
p3584
sg15
(lp3585
sg17
(lp3586
sg19
(lp3587
sg21
I0
sba(iArchitecture
Entity
p3588
(dp3589
g11
(lp3590
sg13
S'android.net.metrics.NetworkEvent'
p3591
sg15
(lp3592
sg17
(lp3593
sg19
(lp3594
sg21
I0
sba(iArchitecture
Entity
p3595
(dp3596
g11
(lp3597
sg13
S'android.net.metrics.NetworkEvent$1'
p3598
sg15
(lp3599
sg17
(lp3600
sg19
(lp3601
sg21
I0
sba(iArchitecture
Entity
p3602
(dp3603
g11
(lp3604
sg13
S'android.net.metrics.NetworkEvent$Decoder'
p3605
sg15
(lp3606
sg17
(lp3607
sg19
(lp3608
sg21
I0
sba(iArchitecture
Entity
p3609
(dp3610
g11
(lp3611
sg13
S'android.net.netlink.StructNlMsgErr'
p3612
sg15
(lp3613
sg17
(lp3614
sg19
(lp3615
sg21
I0
sba(iArchitecture
Entity
p3616
(dp3617
g11
(lp3618
sg13
S'android.net.wifi.WpsInfo'
p3619
sg15
(lp3620
sg17
(lp3621
sg19
(lp3622
sg21
I0
sba(iArchitecture
Entity
p3623
(dp3624
g11
(lp3625
sg13
S'android.net.wifi.WpsInfo$1'
p3626
sg15
(lp3627
sg17
(lp3628
sg19
(lp3629
sg21
I0
sba(iArchitecture
Entity
p3630
(dp3631
g11
(lp3632
sg13
S'android.net.wifi.p2p.WifiP2pGroup'
p3633
sg15
(lp3634
sg17
(lp3635
sg19
(lp3636
sg21
I0
sba(iArchitecture
Entity
p3637
(dp3638
g11
(lp3639
sg13
S'android.net.wifi.p2p.WifiP2pGroup$1'
p3640
sg15
(lp3641
sg17
(lp3642
sg19
(lp3643
sg21
I0
sba(iArchitecture
Entity
p3644
(dp3645
g11
(lp3646
sg13
S'android.net.wifi.p2p.WifiP2pInfo'
p3647
sg15
(lp3648
sg17
(lp3649
sg19
(lp3650
sg21
I0
sba(iArchitecture
Entity
p3651
(dp3652
g11
(lp3653
sg13
S'android.net.wifi.p2p.WifiP2pInfo$1'
p3654
sg15
(lp3655
sg17
(lp3656
sg19
(lp3657
sg21
I0
sba(iArchitecture
Entity
p3658
(dp3659
g11
(lp3660
sg13
S'android.net.wifi.p2p.nsd.WifiP2pDnsSdServiceInfo'
p3661
sg15
(lp3662
sg17
(lp3663
sg19
(lp3664
sg21
I0
sba(iArchitecture
Entity
p3665
(dp3666
g11
(lp3667
sg13
S'android.net.wifi.p2p.nsd.WifiP2pDnsSdServiceRequest'
p3668
sg15
(lp3669
sg17
(lp3670
sg19
(lp3671
sg21
I0
sba(iArchitecture
Entity
p3672
(dp3673
g11
(lp3674
sg13
S'android.net.wifi.p2p.nsd.WifiP2pServiceInfo'
p3675
sg15
(lp3676
sg17
(lp3677
sg19
(lp3678
sg21
I0
sba(iArchitecture
Entity
p3679
(dp3680
g11
(lp3681
sg13
S'android.net.wifi.p2p.nsd.WifiP2pServiceInfo$1'
p3682
sg15
(lp3683
sg17
(lp3684
sg19
(lp3685
sg21
I0
sba(iArchitecture
Entity
p3686
(dp3687
g11
(lp3688
sg13
S'android.net.wifi.p2p.nsd.WifiP2pServiceRequest'
p3689
sg15
(lp3690
sg17
(lp3691
sg19
(lp3692
sg21
I0
sba(iArchitecture
Entity
p3693
(dp3694
g11
(lp3695
sg13
S'android.net.wifi.p2p.nsd.WifiP2pServiceRequest$1'
p3696
sg15
(lp3697
sg17
(lp3698
sg19
(lp3699
sg21
I0
sba(iArchitecture
Entity
p3700
(dp3701
g11
(lp3702
sg13
S'android.net.wifi.p2p.nsd.WifiP2pUpnpServiceInfo'
p3703
sg15
(lp3704
sg17
(lp3705
sg19
(lp3706
sg21
I0
sba(iArchitecture
Entity
p3707
(dp3708
g11
(lp3709
sg13
S'android.net.wifi.p2p.nsd.WifiP2pUpnpServiceRequest'
p3710
sg15
(lp3711
sg17
(lp3712
sg19
(lp3713
sg21
I0
sbasg22
(lp3714
g3493
ag3500
ag3507
ag3514
ag3521
ag3528
ag3535
ag3542
ag3549
ag3556
ag3563
ag3570
ag3577
ag3584
ag3591
ag3598
ag3605
ag3612
ag3619
ag3626
ag3633
ag3640
ag3647
ag3654
ag3661
ag3668
ag3675
ag3682
ag3689
ag3696
ag3703
ag3710
asg21
I0
sg24
S'1330'
p3715
sba(iArchitecture
Cluster
p3716
(dp3717
g7
(lp3718
(iArchitecture
Entity
p3719
(dp3720
g11
(lp3721
sg13
S'android.net.Credentials'
p3722
sg15
(lp3723
sg17
(lp3724
sg19
(lp3725
sg21
I0
sba(iArchitecture
Entity
p3726
(dp3727
g11
(lp3728
sg13
S'android.net.NetworkConfig'
p3729
sg15
(lp3730
sg17
(lp3731
sg19
(lp3732
sg21
I0
sba(iArchitecture
Entity
p3733
(dp3734
g11
(lp3735
sg13
S'android.net.WifiLinkQualityInfo'
p3736
sg15
(lp3737
sg17
(lp3738
sg19
(lp3739
sg21
I0
sba(iArchitecture
Entity
p3740
(dp3741
g11
(lp3742
sg13
S'android.net.util.Stopwatch'
p3743
sg15
(lp3744
sg17
(lp3745
sg19
(lp3746
sg21
I0
sbasg22
(lp3747
g3722
ag3729
ag3736
ag3743
asg21
I0
sg24
S'1331'
p3748
sba(iArchitecture
Cluster
p3749
(dp3750
g7
(lp3751
(iArchitecture
Entity
p3752
(dp3753
g11
(lp3754
sg13
S'android.net.PacProxySelector'
p3755
sg15
(lp3756
sg17
(lp3757
sg19
(lp3758
sg21
I0
sba(iArchitecture
Entity
p3759
(dp3760
g11
(lp3761
sg13
S'android.net.Proxy'
p3762
sg15
(lp3763
sg17
(lp3764
sg19
(lp3765
sg21
I0
sbasg22
(lp3766
g3755
ag3762
asg21
I0
sg24
S'1335'
p3767
sba(iArchitecture
Cluster
p3768
(dp3769
g7
(lp3770
(iArchitecture
Entity
p3771
(dp3772
g11
(lp3773
sg13
S'android.net.wifi.p2p.WifiP2pProvDiscEvent'
p3774
sg15
(lp3775
sg17
(lp3776
sg19
(lp3777
sg21
I0
sba(iArchitecture
Entity
p3778
(dp3779
g11
(lp3780
sg13
S'android.net.wifi.p2p.nsd.WifiP2pDnsSdServiceResponse'
p3781
sg15
(lp3782
sg17
(lp3783
sg19
(lp3784
sg21
I0
sba(iArchitecture
Entity
p3785
(dp3786
g11
(lp3787
sg13
S'android.net.wifi.p2p.nsd.WifiP2pServiceResponse'
p3788
sg15
(lp3789
sg17
(lp3790
sg19
(lp3791
sg21
I0
sba(iArchitecture
Entity
p3792
(dp3793
g11
(lp3794
sg13
S'android.net.wifi.p2p.nsd.WifiP2pServiceResponse$1'
p3795
sg15
(lp3796
sg17
(lp3797
sg19
(lp3798
sg21
I0
sba(iArchitecture
Entity
p3799
(dp3800
g11
(lp3801
sg13
S'android.net.wifi.p2p.nsd.WifiP2pServiceResponse$Status'
p3802
sg15
(lp3803
sg17
(lp3804
sg19
(lp3805
sg21
I0
sba(iArchitecture
Entity
p3806
(dp3807
g11
(lp3808
sg13
S'android.net.wifi.p2p.nsd.WifiP2pUpnpServiceResponse'
p3809
sg15
(lp3810
sg17
(lp3811
sg19
(lp3812
sg21
I0
sbasg22
(lp3813
g3774
ag3781
ag3788
ag3795
ag3802
ag3809
asg21
I0
sg24
S'1340'
p3814
sba(iArchitecture
Cluster
p3815
(dp3816
g7
(lp3817
(iArchitecture
Entity
p3818
(dp3819
g11
(lp3820
sg13
S'android.net.NetworkCapabilities'
p3821
sg15
(lp3822
sg17
(lp3823
sg19
(lp3824
sg21
I0
sba(iArchitecture
Entity
p3825
(dp3826
g11
(lp3827
sg13
S'android.net.NetworkCapabilities$1'
p3828
sg15
(lp3829
sg17
(lp3830
sg19
(lp3831
sg21
I0
sba(iArchitecture
Entity
p3832
(dp3833
g11
(lp3834
sg13
S'android.net.NetworkFactory'
p3835
sg15
(lp3836
sg17
(lp3837
sg19
(lp3838
sg21
I0
sba(iArchitecture
Entity
p3839
(dp3840
g11
(lp3841
sg13
S'android.net.NetworkFactory$NetworkRequestInfo'
p3842
sg15
(lp3843
sg17
(lp3844
sg19
(lp3845
sg21
I0
sba(iArchitecture
Entity
p3846
(dp3847
g11
(lp3848
sg13
S'android.net.NetworkRequest'
p3849
sg15
(lp3850
sg17
(lp3851
sg19
(lp3852
sg21
I0
sba(iArchitecture
Entity
p3853
(dp3854
g11
(lp3855
sg13
S'android.net.NetworkRequest$1'
p3856
sg15
(lp3857
sg17
(lp3858
sg19
(lp3859
sg21
I0
sba(iArchitecture
Entity
p3860
(dp3861
g11
(lp3862
sg13
S'android.net.NetworkRequest$Builder'
p3863
sg15
(lp3864
sg17
(lp3865
sg19
(lp3866
sg21
I0
sbasg22
(lp3867
g3821
ag3828
ag3835
ag3842
ag3849
ag3856
ag3863
asg21
I0
sg24
S'1367'
p3868
sba(iArchitecture
Cluster
p3869
(dp3870
g7
(lp3871
(iArchitecture
Entity
p3872
(dp3873
g11
(lp3874
sg13
S'android.net.apf.ApfCapabilities'
p3875
sg15
(lp3876
sg17
(lp3877
sg19
(lp3878
sg21
I0
sba(iArchitecture
Entity
p3879
(dp3880
g11
(lp3881
sg13
S'android.net.dhcp.DhcpAckPacket'
p3882
sg15
(lp3883
sg17
(lp3884
sg19
(lp3885
sg21
I0
sba(iArchitecture
Entity
p3886
(dp3887
g11
(lp3888
sg13
S'android.net.dhcp.DhcpDeclinePacket'
p3889
sg15
(lp3890
sg17
(lp3891
sg19
(lp3892
sg21
I0
sba(iArchitecture
Entity
p3893
(dp3894
g11
(lp3895
sg13
S'android.net.dhcp.DhcpDiscoverPacket'
p3896
sg15
(lp3897
sg17
(lp3898
sg19
(lp3899
sg21
I0
sba(iArchitecture
Entity
p3900
(dp3901
g11
(lp3902
sg13
S'android.net.dhcp.DhcpInformPacket'
p3903
sg15
(lp3904
sg17
(lp3905
sg19
(lp3906
sg21
I0
sba(iArchitecture
Entity
p3907
(dp3908
g11
(lp3909
sg13
S'android.net.dhcp.DhcpNakPacket'
p3910
sg15
(lp3911
sg17
(lp3912
sg19
(lp3913
sg21
I0
sba(iArchitecture
Entity
p3914
(dp3915
g11
(lp3916
sg13
S'android.net.dhcp.DhcpOfferPacket'
p3917
sg15
(lp3918
sg17
(lp3919
sg19
(lp3920
sg21
I0
sba(iArchitecture
Entity
p3921
(dp3922
g11
(lp3923
sg13
S'android.net.dhcp.DhcpRequestPacket'
p3924
sg15
(lp3925
sg17
(lp3926
sg19
(lp3927
sg21
I0
sba(iArchitecture
Entity
p3928
(dp3929
g11
(lp3930
sg13
S'android.net.metrics.DhcpClientEvent'
p3931
sg15
(lp3932
sg17
(lp3933
sg19
(lp3934
sg21
I0
sba(iArchitecture
Entity
p3935
(dp3936
g11
(lp3937
sg13
S'android.net.metrics.DhcpClientEvent$1'
p3938
sg15
(lp3939
sg17
(lp3940
sg19
(lp3941
sg21
I0
sba(iArchitecture
Entity
p3942
(dp3943
g11
(lp3944
sg13
S'android.net.metrics.IpReachabilityEvent'
p3945
sg15
(lp3946
sg17
(lp3947
sg19
(lp3948
sg21
I0
sba(iArchitecture
Entity
p3949
(dp3950
g11
(lp3951
sg13
S'android.net.metrics.IpReachabilityEvent$1'
p3952
sg15
(lp3953
sg17
(lp3954
sg19
(lp3955
sg21
I0
sba(iArchitecture
Entity
p3956
(dp3957
g11
(lp3958
sg13
S'android.net.metrics.IpReachabilityEvent$Decoder'
p3959
sg15
(lp3960
sg17
(lp3961
sg19
(lp3962
sg21
I0
sba(iArchitecture
Entity
p3963
(dp3964
g11
(lp3965
sg13
S'android.net.metrics.ValidationProbeEvent'
p3966
sg15
(lp3967
sg17
(lp3968
sg19
(lp3969
sg21
I0
sba(iArchitecture
Entity
p3970
(dp3971
g11
(lp3972
sg13
S'android.net.metrics.ValidationProbeEvent$1'
p3973
sg15
(lp3974
sg17
(lp3975
sg19
(lp3976
sg21
I0
sba(iArchitecture
Entity
p3977
(dp3978
g11
(lp3979
sg13
S'android.net.metrics.ValidationProbeEvent$Decoder'
p3980
sg15
(lp3981
sg17
(lp3982
sg19
(lp3983
sg21
I0
sbasg22
(lp3984
g3875
ag3882
ag3889
ag3896
ag3903
ag3910
ag3917
ag3924
ag3931
ag3938
ag3945
ag3952
ag3959
ag3966
ag3973
ag3980
asg21
I0
sg24
S'1369'
p3985
sba(iArchitecture
Cluster
p3986
(dp3987
g7
(lp3988
(iArchitecture
Entity
p3989
(dp3990
g11
(lp3991
sg13
S'android.net.RouteInfo'
p3992
sg15
(lp3993
sg17
(lp3994
sg19
(lp3995
sg21
I0
sba(iArchitecture
Entity
p3996
(dp3997
g11
(lp3998
sg13
S'android.net.RouteInfo$1'
p3999
sg15
(lp4000
sg17
(lp4001
sg19
(lp4002
sg21
I0
sba(iArchitecture
Entity
p4003
(dp4004
g11
(lp4005
sg13
S'android.net.StaticIpConfiguration'
p4006
sg15
(lp4007
sg17
(lp4008
sg19
(lp4009
sg21
I0
sba(iArchitecture
Entity
p4010
(dp4011
g11
(lp4012
sg13
S'android.net.StaticIpConfiguration$1'
p4013
sg15
(lp4014
sg17
(lp4015
sg19
(lp4016
sg21
I0
sbasg22
(lp4017
g3992
ag3999
ag4006
ag4013
asg21
I0
sg24
S'1376'
p4018
sba(iArchitecture
Cluster
p4019
(dp4020
g7
(lp4021
(iArchitecture
Entity
p4022
(dp4023
g11
(lp4024
sg13
S'android.net.wifi.BatchedScanResult'
p4025
sg15
(lp4026
sg17
(lp4027
sg19
(lp4028
sg21
I0
sba(iArchitecture
Entity
p4029
(dp4030
g11
(lp4031
sg13
S'android.net.wifi.BatchedScanResult$1'
p4032
sg15
(lp4033
sg17
(lp4034
sg19
(lp4035
sg21
I0
sba(iArchitecture
Entity
p4036
(dp4037
g11
(lp4038
sg13
S'android.net.wifi.ScanSettings'
p4039
sg15
(lp4040
sg17
(lp4041
sg19
(lp4042
sg21
I0
sba(iArchitecture
Entity
p4043
(dp4044
g11
(lp4045
sg13
S'android.net.wifi.ScanSettings$1'
p4046
sg15
(lp4047
sg17
(lp4048
sg19
(lp4049
sg21
I0
sba(iArchitecture
Entity
p4050
(dp4051
g11
(lp4052
sg13
S'android.net.wifi.WifiChannel'
p4053
sg15
(lp4054
sg17
(lp4055
sg19
(lp4056
sg21
I0
sba(iArchitecture
Entity
p4057
(dp4058
g11
(lp4059
sg13
S'android.net.wifi.WifiChannel$1'
p4060
sg15
(lp4061
sg17
(lp4062
sg19
(lp4063
sg21
I0
sbasg22
(lp4064
g4025
ag4032
ag4039
ag4046
ag4053
ag4060
asg21
I0
sg24
S'1379'
p4065
sba(iArchitecture
Cluster
p4066
(dp4067
g7
(lp4068
(iArchitecture
Entity
p4069
(dp4070
g11
(lp4071
sg13
S'android.net.ConnectivityMetricsEvent'
p4072
sg15
(lp4073
sg17
(lp4074
sg19
(lp4075
sg21
I0
sba(iArchitecture
Entity
p4076
(dp4077
g11
(lp4078
sg13
S'android.net.ConnectivityMetricsEvent$1'
p4079
sg15
(lp4080
sg17
(lp4081
sg19
(lp4082
sg21
I0
sba(iArchitecture
Entity
p4083
(dp4084
g11
(lp4085
sg13
S'android.net.ConnectivityMetricsEvent$Reference'
p4086
sg15
(lp4087
sg17
(lp4088
sg19
(lp4089
sg21
I0
sba(iArchitecture
Entity
p4090
(dp4091
g11
(lp4092
sg13
S'android.net.ConnectivityMetricsEvent$Reference$1'
p4093
sg15
(lp4094
sg17
(lp4095
sg19
(lp4096
sg21
I0
sba(iArchitecture
Entity
p4097
(dp4098
g11
(lp4099
sg13
S'android.net.ConnectivityThread'
p4100
sg15
(lp4101
sg17
(lp4102
sg19
(lp4103
sg21
I0
sba(iArchitecture
Entity
p4104
(dp4105
g11
(lp4106
sg13
S'android.net.EthernetManager'
p4107
sg15
(lp4108
sg17
(lp4109
sg19
(lp4110
sg21
I0
sba(iArchitecture
Entity
p4111
(dp4112
g11
(lp4113
sg13
S'android.net.EthernetManager$1'
p4114
sg15
(lp4115
sg17
(lp4116
sg19
(lp4117
sg21
I0
sba(iArchitecture
Entity
p4118
(dp4119
g11
(lp4120
sg13
S'android.net.EthernetManager$2'
p4121
sg15
(lp4122
sg17
(lp4123
sg19
(lp4124
sg21
I0
sba(iArchitecture
Entity
p4125
(dp4126
g11
(lp4127
sg13
S'android.net.EthernetManager$Listener'
p4128
sg15
(lp4129
sg17
(lp4130
sg19
(lp4131
sg21
I0
sba(iArchitecture
Entity
p4132
(dp4133
g11
(lp4134
sg13
S'android.net.NetworkQuotaInfo'
p4135
sg15
(lp4136
sg17
(lp4137
sg19
(lp4138
sg21
I0
sba(iArchitecture
Entity
p4139
(dp4140
g11
(lp4141
sg13
S'android.net.NetworkQuotaInfo$1'
p4142
sg15
(lp4143
sg17
(lp4144
sg19
(lp4145
sg21
I0
sba(iArchitecture
Entity
p4146
(dp4147
g11
(lp4148
sg13
S'android.net.netlink.NetlinkErrorMessage'
p4149
sg15
(lp4150
sg17
(lp4151
sg19
(lp4152
sg21
I0
sba(iArchitecture
Entity
p4153
(dp4154
g11
(lp4155
sg13
S'android.net.wifi.RssiPacketCountInfo'
p4156
sg15
(lp4157
sg17
(lp4158
sg19
(lp4159
sg21
I0
sba(iArchitecture
Entity
p4160
(dp4161
g11
(lp4162
sg13
S'android.net.wifi.RssiPacketCountInfo$1'
p4163
sg15
(lp4164
sg17
(lp4165
sg19
(lp4166
sg21
I0
sbasg22
(lp4167
g4072
ag4079
ag4086
ag4093
ag4100
ag4107
ag4114
ag4121
ag4128
ag4135
ag4142
ag4149
ag4156
ag4163
asg21
I0
sg24
S'1384'
p4168
sba(iArchitecture
Cluster
p4169
(dp4170
g7
(lp4171
(iArchitecture
Entity
p4172
(dp4173
g11
(lp4174
sg13
S'android.net.IpPrefix'
p4175
sg15
(lp4176
sg17
(lp4177
sg19
(lp4178
sg21
I0
sba(iArchitecture
Entity
p4179
(dp4180
g11
(lp4181
sg13
S'android.net.IpPrefix$1'
p4182
sg15
(lp4183
sg17
(lp4184
sg19
(lp4185
sg21
I0
sba(iArchitecture
Entity
p4186
(dp4187
g11
(lp4188
sg13
S'android.net.LocalServerSocket'
p4189
sg15
(lp4190
sg17
(lp4191
sg19
(lp4192
sg21
I0
sba(iArchitecture
Entity
p4193
(dp4194
g11
(lp4195
sg13
S'android.net.NetworkInfo'
p4196
sg15
(lp4197
sg17
(lp4198
sg19
(lp4199
sg21
I0
sba(iArchitecture
Entity
p4200
(dp4201
g11
(lp4202
sg13
S'android.net.NetworkInfo$1'
p4203
sg15
(lp4204
sg17
(lp4205
sg19
(lp4206
sg21
I0
sba(iArchitecture
Entity
p4207
(dp4208
g11
(lp4209
sg13
S'android.net.NetworkInfo$DetailedState'
p4210
sg15
(lp4211
sg17
(lp4212
sg19
(lp4213
sg21
I0
sba(iArchitecture
Entity
p4214
(dp4215
g11
(lp4216
sg13
S'android.net.NetworkInfo$State'
p4217
sg15
(lp4218
sg17
(lp4219
sg19
(lp4220
sg21
I0
sba(iArchitecture
Entity
p4221
(dp4222
g11
(lp4223
sg13
S'android.net.NetworkScoreManager'
p4224
sg15
(lp4225
sg17
(lp4226
sg19
(lp4227
sg21
I0
sba(iArchitecture
Entity
p4228
(dp4229
g11
(lp4230
sg13
S'android.net.NetworkUtils'
p4231
sg15
(lp4232
sg17
(lp4233
sg19
(lp4234
sg21
I0
sba(iArchitecture
Entity
p4235
(dp4236
g11
(lp4237
sg13
S'android.net.VpnService'
p4238
sg15
(lp4239
sg17
(lp4240
sg19
(lp4241
sg21
I0
sba(iArchitecture
Entity
p4242
(dp4243
g11
(lp4244
sg13
S'android.net.VpnService$Builder'
p4245
sg15
(lp4246
sg17
(lp4247
sg19
(lp4248
sg21
I0
sba(iArchitecture
Entity
p4249
(dp4250
g11
(lp4251
sg13
S'android.net.VpnService$Callback'
p4252
sg15
(lp4253
sg17
(lp4254
sg19
(lp4255
sg21
I0
sba(iArchitecture
Entity
p4256
(dp4257
g11
(lp4258
sg13
S'android.net.nsd.NsdServiceInfo'
p4259
sg15
(lp4260
sg17
(lp4261
sg19
(lp4262
sg21
I0
sba(iArchitecture
Entity
p4263
(dp4264
g11
(lp4265
sg13
S'android.net.nsd.NsdServiceInfo$1'
p4266
sg15
(lp4267
sg17
(lp4268
sg19
(lp4269
sg21
I0
sba(iArchitecture
Entity
p4270
(dp4271
g11
(lp4272
sg13
S'android.net.wifi.WifiConfiguration'
p4273
sg15
(lp4274
sg17
(lp4275
sg19
(lp4276
sg21
I0
sba(iArchitecture
Entity
p4277
(dp4278
g11
(lp4279
sg13
S'android.net.wifi.WifiConfiguration$1'
p4280
sg15
(lp4281
sg17
(lp4282
sg19
(lp4283
sg21
I0
sba(iArchitecture
Entity
p4284
(dp4285
g11
(lp4286
sg13
S'android.net.wifi.WifiConfiguration$AuthAlgorithm'
p4287
sg15
(lp4288
sg17
(lp4289
sg19
(lp4290
sg21
I0
sba(iArchitecture
Entity
p4291
(dp4292
g11
(lp4293
sg13
S'android.net.wifi.WifiConfiguration$GroupCipher'
p4294
sg15
(lp4295
sg17
(lp4296
sg19
(lp4297
sg21
I0
sba(iArchitecture
Entity
p4298
(dp4299
g11
(lp4300
sg13
S'android.net.wifi.WifiConfiguration$KeyMgmt'
p4301
sg15
(lp4302
sg17
(lp4303
sg19
(lp4304
sg21
I0
sba(iArchitecture
Entity
p4305
(dp4306
g11
(lp4307
sg13
S'android.net.wifi.WifiConfiguration$NetworkSelectionStatus'
p4308
sg15
(lp4309
sg17
(lp4310
sg19
(lp4311
sg21
I0
sba(iArchitecture
Entity
p4312
(dp4313
g11
(lp4314
sg13
S'android.net.wifi.WifiConfiguration$PairwiseCipher'
p4315
sg15
(lp4316
sg17
(lp4317
sg19
(lp4318
sg21
I0
sba(iArchitecture
Entity
p4319
(dp4320
g11
(lp4321
sg13
S'android.net.wifi.WifiConfiguration$Protocol'
p4322
sg15
(lp4323
sg17
(lp4324
sg19
(lp4325
sg21
I0
sba(iArchitecture
Entity
p4326
(dp4327
g11
(lp4328
sg13
S'android.net.wifi.WifiConfiguration$Status'
p4329
sg15
(lp4330
sg17
(lp4331
sg19
(lp4332
sg21
I0
sba(iArchitecture
Entity
p4333
(dp4334
g11
(lp4335
sg13
S'android.net.wifi.WifiConfiguration$Visibility'
p4336
sg15
(lp4337
sg17
(lp4338
sg19
(lp4339
sg21
I0
sba(iArchitecture
Entity
p4340
(dp4341
g11
(lp4342
sg13
S'android.net.wifi.WifiConnectionStatistics'
p4343
sg15
(lp4344
sg17
(lp4345
sg19
(lp4346
sg21
I0
sba(iArchitecture
Entity
p4347
(dp4348
g11
(lp4349
sg13
S'android.net.wifi.WifiConnectionStatistics$1'
p4350
sg15
(lp4351
sg17
(lp4352
sg19
(lp4353
sg21
I0
sba(iArchitecture
Entity
p4354
(dp4355
g11
(lp4356
sg13
S'android.net.wifi.WifiManager'
p4357
sg15
(lp4358
sg17
(lp4359
sg19
(lp4360
sg21
I0
sba(iArchitecture
Entity
p4361
(dp4362
g11
(lp4363
sg13
S'android.net.wifi.WifiManager$ActionListener'
p4364
sg15
(lp4365
sg17
(lp4366
sg19
(lp4367
sg21
I0
sba(iArchitecture
Entity
p4368
(dp4369
g11
(lp4370
sg13
S'android.net.wifi.WifiManager$MulticastLock'
p4371
sg15
(lp4372
sg17
(lp4373
sg19
(lp4374
sg21
I0
sba(iArchitecture
Entity
p4375
(dp4376
g11
(lp4377
sg13
S'android.net.wifi.WifiManager$ServiceHandler'
p4378
sg15
(lp4379
sg17
(lp4380
sg19
(lp4381
sg21
I0
sba(iArchitecture
Entity
p4382
(dp4383
g11
(lp4384
sg13
S'android.net.wifi.WifiManager$TxPacketCountListener'
p4385
sg15
(lp4386
sg17
(lp4387
sg19
(lp4388
sg21
I0
sba(iArchitecture
Entity
p4389
(dp4390
g11
(lp4391
sg13
S'android.net.wifi.WifiManager$WifiLock'
p4392
sg15
(lp4393
sg17
(lp4394
sg19
(lp4395
sg21
I0
sba(iArchitecture
Entity
p4396
(dp4397
g11
(lp4398
sg13
S'android.net.wifi.WifiManager$WpsCallback'
p4399
sg15
(lp4400
sg17
(lp4401
sg19
(lp4402
sg21
I0
sba(iArchitecture
Entity
p4403
(dp4404
g11
(lp4405
sg13
S'android.net.wifi.WifiNetworkConnectionStatistics'
p4406
sg15
(lp4407
sg17
(lp4408
sg19
(lp4409
sg21
I0
sba(iArchitecture
Entity
p4410
(dp4411
g11
(lp4412
sg13
S'android.net.wifi.WifiNetworkConnectionStatistics$1'
p4413
sg15
(lp4414
sg17
(lp4415
sg19
(lp4416
sg21
I0
sba(iArchitecture
Entity
p4417
(dp4418
g11
(lp4419
sg13
S'android.net.wifi.WifiSsid'
p4420
sg15
(lp4421
sg17
(lp4422
sg19
(lp4423
sg21
I0
sba(iArchitecture
Entity
p4424
(dp4425
g11
(lp4426
sg13
S'android.net.wifi.WifiSsid$1'
p4427
sg15
(lp4428
sg17
(lp4429
sg19
(lp4430
sg21
I0
sbasg22
(lp4431
g4175
ag4182
ag4189
ag4196
ag4203
ag4210
ag4217
ag4224
ag4231
ag4238
ag4245
ag4252
ag4259
ag4266
ag4273
ag4280
ag4287
ag4294
ag4301
ag4308
ag4315
ag4322
ag4329
ag4336
ag4343
ag4350
ag4357
ag4364
ag4371
ag4378
ag4385
ag4392
ag4399
ag4406
ag4413
ag4420
ag4427
asg21
I0
sg24
S'1401'
p4432
sba(iArchitecture
Cluster
p4433
(dp4434
g7
(lp4435
(iArchitecture
Entity
p4436
(dp4437
g11
(lp4438
sg13
S'android.net.wifi.p2p.WifiP2pManager'
p4439
sg15
(lp4440
sg17
(lp4441
sg19
(lp4442
sg21
I0
sba(iArchitecture
Entity
p4443
(dp4444
g11
(lp4445
sg13
S'android.net.wifi.p2p.WifiP2pManager$ActionListener'
p4446
sg15
(lp4447
sg17
(lp4448
sg19
(lp4449
sg21
I0
sba(iArchitecture
Entity
p4450
(dp4451
g11
(lp4452
sg13
S'android.net.wifi.p2p.WifiP2pManager$Channel'
p4453
sg15
(lp4454
sg17
(lp4455
sg19
(lp4456
sg21
I0
sba(iArchitecture
Entity
p4457
(dp4458
g11
(lp4459
sg13
S'android.net.wifi.p2p.WifiP2pManager$Channel$P2pHandler'
p4460
sg15
(lp4461
sg17
(lp4462
sg19
(lp4463
sg21
I0
sba(iArchitecture
Entity
p4464
(dp4465
g11
(lp4466
sg13
S'android.net.wifi.p2p.WifiP2pManager$ChannelListener'
p4467
sg15
(lp4468
sg17
(lp4469
sg19
(lp4470
sg21
I0
sba(iArchitecture
Entity
p4471
(dp4472
g11
(lp4473
sg13
S'android.net.wifi.p2p.WifiP2pManager$ConnectionInfoListener'
p4474
sg15
(lp4475
sg17
(lp4476
sg19
(lp4477
sg21
I0
sba(iArchitecture
Entity
p4478
(dp4479
g11
(lp4480
sg13
S'android.net.wifi.p2p.WifiP2pManager$DnsSdServiceResponseListener'
p4481
sg15
(lp4482
sg17
(lp4483
sg19
(lp4484
sg21
I0
sba(iArchitecture
Entity
p4485
(dp4486
g11
(lp4487
sg13
S'android.net.wifi.p2p.WifiP2pManager$DnsSdTxtRecordListener'
p4488
sg15
(lp4489
sg17
(lp4490
sg19
(lp4491
sg21
I0
sba(iArchitecture
Entity
p4492
(dp4493
g11
(lp4494
sg13
S'android.net.wifi.p2p.WifiP2pManager$GroupInfoListener'
p4495
sg15
(lp4496
sg17
(lp4497
sg19
(lp4498
sg21
I0
sba(iArchitecture
Entity
p4499
(dp4500
g11
(lp4501
sg13
S'android.net.wifi.p2p.WifiP2pManager$HandoverMessageListener'
p4502
sg15
(lp4503
sg17
(lp4504
sg19
(lp4505
sg21
I0
sba(iArchitecture
Entity
p4506
(dp4507
g11
(lp4508
sg13
S'android.net.wifi.p2p.WifiP2pManager$PeerListListener'
p4509
sg15
(lp4510
sg17
(lp4511
sg19
(lp4512
sg21
I0
sba(iArchitecture
Entity
p4513
(dp4514
g11
(lp4515
sg13
S'android.net.wifi.p2p.WifiP2pManager$PersistentGroupInfoListener'
p4516
sg15
(lp4517
sg17
(lp4518
sg19
(lp4519
sg21
I0
sba(iArchitecture
Entity
p4520
(dp4521
g11
(lp4522
sg13
S'android.net.wifi.p2p.WifiP2pManager$ServiceResponseListener'
p4523
sg15
(lp4524
sg17
(lp4525
sg19
(lp4526
sg21
I0
sba(iArchitecture
Entity
p4527
(dp4528
g11
(lp4529
sg13
S'android.net.wifi.p2p.WifiP2pManager$UpnpServiceResponseListener'
p4530
sg15
(lp4531
sg17
(lp4532
sg19
(lp4533
sg21
I0
sba(iArchitecture
Entity
p4534
(dp4535
g11
(lp4536
sg13
S'android.net.wifi.p2p.WifiP2pWfdInfo'
p4537
sg15
(lp4538
sg17
(lp4539
sg19
(lp4540
sg21
I0
sba(iArchitecture
Entity
p4541
(dp4542
g11
(lp4543
sg13
S'android.net.wifi.p2p.WifiP2pWfdInfo$1'
p4544
sg15
(lp4545
sg17
(lp4546
sg19
(lp4547
sg21
I0
sbasg22
(lp4548
g4439
ag4446
ag4453
ag4460
ag4467
ag4474
ag4481
ag4488
ag4495
ag4502
ag4509
ag4516
ag4523
ag4530
ag4537
ag4544
asg21
I0
sg24
S'1406'
p4549
sba(iArchitecture
Cluster
p4550
(dp4551
g7
(lp4552
(iArchitecture
Entity
p4553
(dp4554
g11
(lp4555
sg13
S'android.net.NetworkPolicyManager'
p4556
sg15
(lp4557
sg17
(lp4558
sg19
(lp4559
sg21
I0
sbasg22
(lp4560
g4556
asg21
I0
sg24
S'166'
p4561
sba(iArchitecture
Cluster
p4562
(dp4563
g7
(lp4564
(iArchitecture
Entity
p4565
(dp4566
g11
(lp4567
sg13
S'android.net.util.IpUtils'
p4568
sg15
(lp4569
sg17
(lp4570
sg19
(lp4571
sg21
I0
sbasg22
(lp4572
g4568
asg21
I0
sg24
S'195'
p4573
sba(iArchitecture
Cluster
p4574
(dp4575
g7
(lp4576
(iArchitecture
Entity
p4577
(dp4578
g11
(lp4579
sg13
S'android.net.http.HttpResponseCache'
p4580
sg15
(lp4581
sg17
(lp4582
sg19
(lp4583
sg21
I0
sbasg22
(lp4584
g4580
asg21
I0
sg24
S'198'
p4585
sba(iArchitecture
Cluster
p4586
(dp4587
g7
(lp4588
(iArchitecture
Entity
p4589
(dp4590
g11
(lp4591
sg13
S'android.net.netlink.StructNdaCacheInfo'
p4592
sg15
(lp4593
sg17
(lp4594
sg19
(lp4595
sg21
I0
sbasg22
(lp4596
g4592
asg21
I0
sg24
S'2'
p4597
sba(iArchitecture
Cluster
p4598
(dp4599
g7
(lp4600
(iArchitecture
Entity
p4601
(dp4602
g11
(lp4603
sg13
S'android.net.TrafficStats'
p4604
sg15
(lp4605
sg17
(lp4606
sg19
(lp4607
sg21
I0
sbasg22
(lp4608
g4604
asg21
I0
sg24
S'207'
p4609
sba(iArchitecture
Cluster
p4610
(dp4611
g7
(lp4612
(iArchitecture
Entity
p4613
(dp4614
g11
(lp4615
sg13
S'android.net.http.SslError'
p4616
sg15
(lp4617
sg17
(lp4618
sg19
(lp4619
sg21
I0
sbasg22
(lp4620
g4616
asg21
I0
sg24
S'211'
p4621
sba(iArchitecture
Cluster
p4622
(dp4623
g7
(lp4624
(iArchitecture
Entity
p4625
(dp4626
g11
(lp4627
sg13
S'android.net.MobileLinkQualityInfo'
p4628
sg15
(lp4629
sg17
(lp4630
sg19
(lp4631
sg21
I0
sbasg22
(lp4632
g4628
asg21
I0
sg24
S'216'
p4633
sba(iArchitecture
Cluster
p4634
(dp4635
g7
(lp4636
(iArchitecture
Entity
p4637
(dp4638
g11
(lp4639
sg13
S'android.net.wimax.WimaxManagerConstants'
p4640
sg15
(lp4641
sg17
(lp4642
sg19
(lp4643
sg21
I0
sbasg22
(lp4644
g4640
asg21
I0
sg24
S'295'
p4645
sba(iArchitecture
Cluster
p4646
(dp4647
g7
(lp4648
(iArchitecture
Entity
p4649
(dp4650
g11
(lp4651
sg13
S'android.net.netlink.NetlinkSocket'
p4652
sg15
(lp4653
sg17
(lp4654
sg19
(lp4655
sg21
I0
sbasg22
(lp4656
g4652
asg21
I0
sg24
S'33'
p4657
sba(iArchitecture
Cluster
p4658
(dp4659
g7
(lp4660
(iArchitecture
Entity
p4661
(dp4662
g11
(lp4663
sg13
S'android.net.NetworkIdentity'
p4664
sg15
(lp4665
sg17
(lp4666
sg19
(lp4667
sg21
I0
sbasg22
(lp4668
g4664
asg21
I0
sg24
S'361'
p4669
sba(iArchitecture
Cluster
p4670
(dp4671
g7
(lp4672
(iArchitecture
Entity
p4673
(dp4674
g11
(lp4675
sg13
S'android.net.netlink.NetlinkConstants'
p4676
sg15
(lp4677
sg17
(lp4678
sg19
(lp4679
sg21
I0
sbasg22
(lp4680
g4676
asg21
I0
sg24
S'373'
p4681
sba(iArchitecture
Cluster
p4682
(dp4683
g7
(lp4684
(iArchitecture
Entity
p4685
(dp4686
g11
(lp4687
sg13
S'android.net.netlink.StructNdMsg'
p4688
sg15
(lp4689
sg17
(lp4690
sg19
(lp4691
sg21
I0
sbasg22
(lp4692
g4688
asg21
I0
sg24
S'381'
p4693
sba(iArchitecture
Cluster
p4694
(dp4695
g7
(lp4696
(iArchitecture
Entity
p4697
(dp4698
g11
(lp4699
sg13
S'android.net.wifi.AnqpInformationElement'
p4700
sg15
(lp4701
sg17
(lp4702
sg19
(lp4703
sg21
I0
sbasg22
(lp4704
g4700
asg21
I0
sg24
S'417'
p4705
sba(iArchitecture
Cluster
p4706
(dp4707
g7
(lp4708
(iArchitecture
Entity
p4709
(dp4710
g11
(lp4711
sg13
S'android.net.NetworkAgent'
p4712
sg15
(lp4713
sg17
(lp4714
sg19
(lp4715
sg21
I0
sbasg22
(lp4716
g4712
asg21
I0
sg24
S'427'
p4717
sba(iArchitecture
Cluster
p4718
(dp4719
g7
(lp4720
(iArchitecture
Entity
p4721
(dp4722
g11
(lp4723
sg13
S'android.net.PskKeyManager'
p4724
sg15
(lp4725
sg17
(lp4726
sg19
(lp4727
sg21
I0
sbasg22
(lp4728
g4724
asg21
I0
sg24
S'432'
p4729
sba(iArchitecture
Cluster
p4730
(dp4731
g7
(lp4732
(iArchitecture
Entity
p4733
(dp4734
g11
(lp4735
sg13
S'android.net.WebAddress'
p4736
sg15
(lp4737
sg17
(lp4738
sg19
(lp4739
sg21
I0
sbasg22
(lp4740
g4736
asg21
I0
sg24
S'475'
p4741
sba(iArchitecture
Cluster
p4742
(dp4743
g7
(lp4744
(iArchitecture
Entity
p4745
(dp4746
g11
(lp4747
sg13
S'android.net.MailTo'
p4748
sg15
(lp4749
sg17
(lp4750
sg19
(lp4751
sg21
I0
sbasg22
(lp4752
g4748
asg21
I0
sg24
S'483'
p4753
sba(iArchitecture
Cluster
p4754
(dp4755
g7
(lp4756
(iArchitecture
Entity
p4757
(dp4758
g11
(lp4759
sg13
S'android.net.NetworkMisc'
p4760
sg15
(lp4761
sg17
(lp4762
sg19
(lp4763
sg21
I0
sba(iArchitecture
Entity
p4764
(dp4765
g11
(lp4766
sg13
S'android.net.NetworkMisc$1'
p4767
sg15
(lp4768
sg17
(lp4769
sg19
(lp4770
sg21
I0
sbasg22
(lp4771
g4760
ag4767
asg21
I0
sg24
S'507'
p4772
sba(iArchitecture
Cluster
p4773
(dp4774
g7
(lp4775
(iArchitecture
Entity
p4776
(dp4777
g11
(lp4778
sg13
S'android.net.SntpClient'
p4779
sg15
(lp4780
sg17
(lp4781
sg19
(lp4782
sg21
I0
sba(iArchitecture
Entity
p4783
(dp4784
g11
(lp4785
sg13
S'android.net.SntpClient$InvalidServerReplyException'
p4786
sg15
(lp4787
sg17
(lp4788
sg19
(lp4789
sg21
I0
sbasg22
(lp4790
g4779
ag4786
asg21
I0
sg24
S'508'
p4791
sba(iArchitecture
Cluster
p4792
(dp4793
g7
(lp4794
(iArchitecture
Entity
p4795
(dp4796
g11
(lp4797
sg13
S'android.net.NetworkTemplate'
p4798
sg15
(lp4799
sg17
(lp4800
sg19
(lp4801
sg21
I0
sba(iArchitecture
Entity
p4802
(dp4803
g11
(lp4804
sg13
S'android.net.NetworkTemplate$1'
p4805
sg15
(lp4806
sg17
(lp4807
sg19
(lp4808
sg21
I0
sbasg22
(lp4809
g4798
ag4805
asg21
I0
sg24
S'510'
p4810
sba(iArchitecture
Cluster
p4811
(dp4812
g7
(lp4813
(iArchitecture
Entity
p4814
(dp4815
g11
(lp4816
sg13
S'android.net.http.SslCertificate'
p4817
sg15
(lp4818
sg17
(lp4819
sg19
(lp4820
sg21
I0
sba(iArchitecture
Entity
p4821
(dp4822
g11
(lp4823
sg13
S'android.net.http.SslCertificate$DName'
p4824
sg15
(lp4825
sg17
(lp4826
sg19
(lp4827
sg21
I0
sbasg22
(lp4828
g4817
ag4824
asg21
I0
sg24
S'513'
p4829
sba(iArchitecture
Cluster
p4830
(dp4831
g7
(lp4832
(iArchitecture
Entity
p4833
(dp4834
g11
(lp4835
sg13
S'android.net.wifi.WifiLinkLayerStats'
p4836
sg15
(lp4837
sg17
(lp4838
sg19
(lp4839
sg21
I0
sba(iArchitecture
Entity
p4840
(dp4841
g11
(lp4842
sg13
S'android.net.wifi.WifiLinkLayerStats$1'
p4843
sg15
(lp4844
sg17
(lp4845
sg19
(lp4846
sg21
I0
sbasg22
(lp4847
g4836
ag4843
asg21
I0
sg24
S'516'
p4848
sba(iArchitecture
Cluster
p4849
(dp4850
g7
(lp4851
(iArchitecture
Entity
p4852
(dp4853
g11
(lp4854
sg13
S'android.net.wifi.PasspointManagementObjectDefinition'
p4855
sg15
(lp4856
sg17
(lp4857
sg19
(lp4858
sg21
I0
sba(iArchitecture
Entity
p4859
(dp4860
g11
(lp4861
sg13
S'android.net.wifi.PasspointManagementObjectDefinition$1'
p4862
sg15
(lp4863
sg17
(lp4864
sg19
(lp4865
sg21
I0
sbasg22
(lp4866
g4855
ag4862
asg21
I0
sg24
S'523'
p4867
sba(iArchitecture
Cluster
p4868
(dp4869
g7
(lp4870
(iArchitecture
Entity
p4871
(dp4872
g11
(lp4873
sg13
S'android.net.wifi.WifiWakeReasonAndCounts'
p4874
sg15
(lp4875
sg17
(lp4876
sg19
(lp4877
sg21
I0
sba(iArchitecture
Entity
p4878
(dp4879
g11
(lp4880
sg13
S'android.net.wifi.WifiWakeReasonAndCounts$1'
p4881
sg15
(lp4882
sg17
(lp4883
sg19
(lp4884
sg21
I0
sbasg22
(lp4885
g4874
ag4881
asg21
I0
sg24
S'562'
p4886
sba(iArchitecture
Cluster
p4887
(dp4888
g7
(lp4889
(iArchitecture
Entity
p4890
(dp4891
g11
(lp4892
sg13
S'android.net.WifiKey'
p4893
sg15
(lp4894
sg17
(lp4895
sg19
(lp4896
sg21
I0
sba(iArchitecture
Entity
p4897
(dp4898
g11
(lp4899
sg13
S'android.net.WifiKey$1'
p4900
sg15
(lp4901
sg17
(lp4902
sg19
(lp4903
sg21
I0
sbasg22
(lp4904
g4893
ag4900
asg21
I0
sg24
S'563'
p4905
sba(iArchitecture
Cluster
p4906
(dp4907
g7
(lp4908
(iArchitecture
Entity
p4909
(dp4910
g11
(lp4911
sg13
S'android.net.NetworkState'
p4912
sg15
(lp4913
sg17
(lp4914
sg19
(lp4915
sg21
I0
sba(iArchitecture
Entity
p4916
(dp4917
g11
(lp4918
sg13
S'android.net.NetworkState$1'
p4919
sg15
(lp4920
sg17
(lp4921
sg19
(lp4922
sg21
I0
sbasg22
(lp4923
g4912
ag4919
asg21
I0
sg24
S'575'
p4924
sba(iArchitecture
Cluster
p4925
(dp4926
g7
(lp4927
(iArchitecture
Entity
p4928
(dp4929
g11
(lp4930
sg13
S'android.net.wifi.WifiInfo'
p4931
sg15
(lp4932
sg17
(lp4933
sg19
(lp4934
sg21
I0
sba(iArchitecture
Entity
p4935
(dp4936
g11
(lp4937
sg13
S'android.net.wifi.WifiInfo$1'
p4938
sg15
(lp4939
sg17
(lp4940
sg19
(lp4941
sg21
I0
sbasg22
(lp4942
g4931
ag4938
asg21
I0
sg24
S'579'
p4943
sba(iArchitecture
Cluster
p4944
(dp4945
g7
(lp4946
(iArchitecture
Entity
p4947
(dp4948
g11
(lp4949
sg13
S'android.net.LinkQualityInfo'
p4950
sg15
(lp4951
sg17
(lp4952
sg19
(lp4953
sg21
I0
sba(iArchitecture
Entity
p4954
(dp4955
g11
(lp4956
sg13
S'android.net.LinkQualityInfo$1'
p4957
sg15
(lp4958
sg17
(lp4959
sg19
(lp4960
sg21
I0
sbasg22
(lp4961
g4950
ag4957
asg21
I0
sg24
S'583'
p4962
sba(iArchitecture
Cluster
p4963
(dp4964
g7
(lp4965
(iArchitecture
Entity
p4966
(dp4967
g11
(lp4968
sg13
S'android.net.SSLCertificateSocketFactory'
p4969
sg15
(lp4970
sg17
(lp4971
sg19
(lp4972
sg21
I0
sba(iArchitecture
Entity
p4973
(dp4974
g11
(lp4975
sg13
S'android.net.SSLCertificateSocketFactory$1'
p4976
sg15
(lp4977
sg17
(lp4978
sg19
(lp4979
sg21
I0
sbasg22
(lp4980
g4969
ag4976
asg21
I0
sg24
S'601'
p4981
sba(iArchitecture
Cluster
p4982
(dp4983
g7
(lp4984
(iArchitecture
Entity
p4985
(dp4986
g11
(lp4987
sg13
S'android.net.CaptivePortal'
p4988
sg15
(lp4989
sg17
(lp4990
sg19
(lp4991
sg21
I0
sba(iArchitecture
Entity
p4992
(dp4993
g11
(lp4994
sg13
S'android.net.CaptivePortal$1'
p4995
sg15
(lp4996
sg17
(lp4997
sg19
(lp4998
sg21
I0
sbasg22
(lp4999
g4988
ag4995
asg21
I0
sg24
S'605'
p5000
sba(iArchitecture
Cluster
p5001
(dp5002
g7
(lp5003
(iArchitecture
Entity
p5004
(dp5005
g11
(lp5006
sg13
S'android.net.DhcpResults'
p5007
sg15
(lp5008
sg17
(lp5009
sg19
(lp5010
sg21
I0
sba(iArchitecture
Entity
p5011
(dp5012
g11
(lp5013
sg13
S'android.net.DhcpResults$1'
p5014
sg15
(lp5015
sg17
(lp5016
sg19
(lp5017
sg21
I0
sbasg22
(lp5018
g5007
ag5014
asg21
I0
sg24
S'624'
p5019
sba(iArchitecture
Cluster
p5020
(dp5021
g7
(lp5022
(iArchitecture
Entity
p5023
(dp5024
g11
(lp5025
sg13
S'android.net.wifi.p2p.WifiP2pConfig'
p5026
sg15
(lp5027
sg17
(lp5028
sg19
(lp5029
sg21
I0
sba(iArchitecture
Entity
p5030
(dp5031
g11
(lp5032
sg13
S'android.net.wifi.p2p.WifiP2pConfig$1'
p5033
sg15
(lp5034
sg17
(lp5035
sg19
(lp5036
sg21
I0
sbasg22
(lp5037
g5026
ag5033
asg21
I0
sg24
S'628'
p5038
sba(iArchitecture
Cluster
p5039
(dp5040
g7
(lp5041
(iArchitecture
Entity
p5042
(dp5043
g11
(lp5044
sg13
S'android.net.wifi.p2p.WifiP2pDevice'
p5045
sg15
(lp5046
sg17
(lp5047
sg19
(lp5048
sg21
I0
sba(iArchitecture
Entity
p5049
(dp5050
g11
(lp5051
sg13
S'android.net.wifi.p2p.WifiP2pDevice$1'
p5052
sg15
(lp5053
sg17
(lp5054
sg19
(lp5055
sg21
I0
sbasg22
(lp5056
g5045
ag5052
asg21
I0
sg24
S'636'
p5057
sba(iArchitecture
Cluster
p5058
(dp5059
g7
(lp5060
(iArchitecture
Entity
p5061
(dp5062
g11
(lp5063
sg13
S'android.net.nsd.DnsSdTxtRecord'
p5064
sg15
(lp5065
sg17
(lp5066
sg19
(lp5067
sg21
I0
sba(iArchitecture
Entity
p5068
(dp5069
g11
(lp5070
sg13
S'android.net.nsd.DnsSdTxtRecord$1'
p5071
sg15
(lp5072
sg17
(lp5073
sg19
(lp5074
sg21
I0
sbasg22
(lp5075
g5064
ag5071
asg21
I0
sg24
S'648'
p5076
sba(iArchitecture
Cluster
p5077
(dp5078
g7
(lp5079
(iArchitecture
Entity
p5080
(dp5081
g11
(lp5082
sg13
S'android.net.wifi.SupplicantState'
p5083
sg15
(lp5084
sg17
(lp5085
sg19
(lp5086
sg21
I0
sba(iArchitecture
Entity
p5087
(dp5088
g11
(lp5089
sg13
S'android.net.wifi.SupplicantState$1'
p5090
sg15
(lp5091
sg17
(lp5092
sg19
(lp5093
sg21
I0
sbasg22
(lp5094
g5083
ag5090
asg21
I0
sg24
S'668'
p5095
sba(iArchitecture
Cluster
p5096
(dp5097
g7
(lp5098
(iArchitecture
Entity
p5099
(dp5100
g11
(lp5101
sg13
S'android.net.InterfaceConfiguration'
p5102
sg15
(lp5103
sg17
(lp5104
sg19
(lp5105
sg21
I0
sba(iArchitecture
Entity
p5106
(dp5107
g11
(lp5108
sg13
S'android.net.InterfaceConfiguration$1'
p5109
sg15
(lp5110
sg17
(lp5111
sg19
(lp5112
sg21
I0
sbasg22
(lp5113
g5102
ag5109
asg21
I0
sg24
S'676'
p5114
sba(iArchitecture
Cluster
p5115
(dp5116
g7
(lp5117
(iArchitecture
Entity
p5118
(dp5119
g11
(lp5120
sg13
S'android.net.RssiCurve'
p5121
sg15
(lp5122
sg17
(lp5123
sg19
(lp5124
sg21
I0
sba(iArchitecture
Entity
p5125
(dp5126
g11
(lp5127
sg13
S'android.net.RssiCurve$1'
p5128
sg15
(lp5129
sg17
(lp5130
sg19
(lp5131
sg21
I0
sbasg22
(lp5132
g5121
ag5128
asg21
I0
sg24
S'701'
p5133
sba(iArchitecture
Cluster
p5134
(dp5135
g7
(lp5136
(iArchitecture
Entity
p5137
(dp5138
g11
(lp5139
sg13
S'android.net.wifi.p2p.WifiP2pDeviceList'
p5140
sg15
(lp5141
sg17
(lp5142
sg19
(lp5143
sg21
I0
sba(iArchitecture
Entity
p5144
(dp5145
g11
(lp5146
sg13
S'android.net.wifi.p2p.WifiP2pDeviceList$1'
p5147
sg15
(lp5148
sg17
(lp5149
sg19
(lp5150
sg21
I0
sbasg22
(lp5151
g5140
ag5147
asg21
I0
sg24
S'703'
p5152
sba(iArchitecture
Cluster
p5153
(dp5154
g7
(lp5155
(iArchitecture
Entity
p5156
(dp5157
g11
(lp5158
sg13
S'android.net.UidRange'
p5159
sg15
(lp5160
sg17
(lp5161
sg19
(lp5162
sg21
I0
sba(iArchitecture
Entity
p5163
(dp5164
g11
(lp5165
sg13
S'android.net.UidRange$1'
p5166
sg15
(lp5167
sg17
(lp5168
sg19
(lp5169
sg21
I0
sbasg22
(lp5170
g5159
ag5166
asg21
I0
sg24
S'715'
p5171
sba(iArchitecture
Cluster
p5172
(dp5173
g7
(lp5174
(iArchitecture
Entity
p5175
(dp5176
g11
(lp5177
sg13
S'android.net.ProxyInfo'
p5178
sg15
(lp5179
sg17
(lp5180
sg19
(lp5181
sg21
I0
sba(iArchitecture
Entity
p5182
(dp5183
g11
(lp5184
sg13
S'android.net.ProxyInfo$1'
p5185
sg15
(lp5186
sg17
(lp5187
sg19
(lp5188
sg21
I0
sbasg22
(lp5189
g5178
ag5185
asg21
I0
sg24
S'738'
p5190
sba(iArchitecture
Cluster
p5191
(dp5192
g7
(lp5193
(iArchitecture
Entity
p5194
(dp5195
g11
(lp5196
sg13
S'android.net.ScoredNetwork'
p5197
sg15
(lp5198
sg17
(lp5199
sg19
(lp5200
sg21
I0
sba(iArchitecture
Entity
p5201
(dp5202
g11
(lp5203
sg13
S'android.net.ScoredNetwork$1'
p5204
sg15
(lp5205
sg17
(lp5206
sg19
(lp5207
sg21
I0
sbasg22
(lp5208
g5197
ag5204
asg21
I0
sg24
S'739'
p5209
sba(iArchitecture
Cluster
p5210
(dp5211
g7
(lp5212
(iArchitecture
Entity
p5213
(dp5214
g11
(lp5215
sg13
S'android.net.NetworkPolicy'
p5216
sg15
(lp5217
sg17
(lp5218
sg19
(lp5219
sg21
I0
sba(iArchitecture
Entity
p5220
(dp5221
g11
(lp5222
sg13
S'android.net.NetworkPolicy$1'
p5223
sg15
(lp5224
sg17
(lp5225
sg19
(lp5226
sg21
I0
sbasg22
(lp5227
g5216
ag5223
asg21
I0
sg24
S'785'
p5228
sba(iArchitecture
Cluster
p5229
(dp5230
g7
(lp5231
(iArchitecture
Entity
p5232
(dp5233
g11
(lp5234
sg13
S'android.net.LinkAddress'
p5235
sg15
(lp5236
sg17
(lp5237
sg19
(lp5238
sg21
I0
sba(iArchitecture
Entity
p5239
(dp5240
g11
(lp5241
sg13
S'android.net.LinkAddress$1'
p5242
sg15
(lp5243
sg17
(lp5244
sg19
(lp5245
sg21
I0
sbasg22
(lp5246
g5235
ag5242
asg21
I0
sg24
S'818'
p5247
sba(iArchitecture
Cluster
p5248
(dp5249
g7
(lp5250
(iArchitecture
Entity
p5251
(dp5252
g11
(lp5253
sg13
S'android.net.DhcpInfo'
p5254
sg15
(lp5255
sg17
(lp5256
sg19
(lp5257
sg21
I0
sba(iArchitecture
Entity
p5258
(dp5259
g11
(lp5260
sg13
S'android.net.DhcpInfo$1'
p5261
sg15
(lp5262
sg17
(lp5263
sg19
(lp5264
sg21
I0
sbasg22
(lp5265
g5254
ag5261
asg21
I0
sg24
S'828'
p5266
sba(iArchitecture
Cluster
p5267
(dp5268
g7
(lp5269
(iArchitecture
Entity
p5270
(dp5271
g11
(lp5272
sg13
S'android.net.LocalSocketImpl'
p5273
sg15
(lp5274
sg17
(lp5275
sg19
(lp5276
sg21
I0
sba(iArchitecture
Entity
p5277
(dp5278
g11
(lp5279
sg13
S'android.net.LocalSocketImpl$SocketInputStream'
p5280
sg15
(lp5281
sg17
(lp5282
sg19
(lp5283
sg21
I0
sba(iArchitecture
Entity
p5284
(dp5285
g11
(lp5286
sg13
S'android.net.LocalSocketImpl$SocketOutputStream'
p5287
sg15
(lp5288
sg17
(lp5289
sg19
(lp5290
sg21
I0
sbasg22
(lp5291
g5273
ag5280
ag5287
asg21
I0
sg24
S'839'
p5292
sba(iArchitecture
Cluster
p5293
(dp5294
g7
(lp5295
(iArchitecture
Entity
p5296
(dp5297
g11
(lp5298
sg13
S'android.net.metrics.DhcpErrorEvent'
p5299
sg15
(lp5300
sg17
(lp5301
sg19
(lp5302
sg21
I0
sba(iArchitecture
Entity
p5303
(dp5304
g11
(lp5305
sg13
S'android.net.metrics.DhcpErrorEvent$1'
p5306
sg15
(lp5307
sg17
(lp5308
sg19
(lp5309
sg21
I0
sba(iArchitecture
Entity
p5310
(dp5311
g11
(lp5312
sg13
S'android.net.metrics.DhcpErrorEvent$Decoder'
p5313
sg15
(lp5314
sg17
(lp5315
sg19
(lp5316
sg21
I0
sbasg22
(lp5317
g5299
ag5306
ag5313
asg21
I0
sg24
S'883'
p5318
sba(iArchitecture
Cluster
p5319
(dp5320
g7
(lp5321
(iArchitecture
Entity
p5322
(dp5323
g11
(lp5324
sg13
S'android.net.wifi.ScanResult'
p5325
sg15
(lp5326
sg17
(lp5327
sg19
(lp5328
sg21
I0
sba(iArchitecture
Entity
p5329
(dp5330
g11
(lp5331
sg13
S'android.net.wifi.ScanResult$1'
p5332
sg15
(lp5333
sg17
(lp5334
sg19
(lp5335
sg21
I0
sba(iArchitecture
Entity
p5336
(dp5337
g11
(lp5338
sg13
S'android.net.wifi.ScanResult$InformationElement'
p5339
sg15
(lp5340
sg17
(lp5341
sg19
(lp5342
sg21
I0
sbasg22
(lp5343
g5325
ag5332
ag5339
asg21
I0
sg24
S'917'
p5344
sba(iArchitecture
Cluster
p5345
(dp5346
g7
(lp5347
(iArchitecture
Entity
p5348
(dp5349
g11
(lp5350
sg13
S'android.net.UrlQuerySanitizer'
p5351
sg15
(lp5352
sg17
(lp5353
sg19
(lp5354
sg21
I0
sba(iArchitecture
Entity
p5355
(dp5356
g11
(lp5357
sg13
S'android.net.UrlQuerySanitizer$IllegalCharacterValueSanitizer'
p5358
sg15
(lp5359
sg17
(lp5360
sg19
(lp5361
sg21
I0
sba(iArchitecture
Entity
p5362
(dp5363
g11
(lp5364
sg13
S'android.net.UrlQuerySanitizer$ParameterValuePair'
p5365
sg15
(lp5366
sg17
(lp5367
sg19
(lp5368
sg21
I0
sba(iArchitecture
Entity
p5369
(dp5370
g11
(lp5371
sg13
S'android.net.UrlQuerySanitizer$ValueSanitizer'
p5372
sg15
(lp5373
sg17
(lp5374
sg19
(lp5375
sg21
I0
sbasg22
(lp5376
g5351
ag5358
ag5365
ag5372
asg21
I0
sg24
S'950'
p5377
sba(iArchitecture
Cluster
p5378
(dp5379
g7
(lp5380
(iArchitecture
Entity
p5381
(dp5382
g11
(lp5383
sg13
S'android.net.ip.IpReachabilityMonitor'
p5384
sg15
(lp5385
sg17
(lp5386
sg19
(lp5387
sg21
I0
sba(iArchitecture
Entity
p5388
(dp5389
g11
(lp5390
sg13
S'android.net.ip.IpReachabilityMonitor$Callback'
p5391
sg15
(lp5392
sg17
(lp5393
sg19
(lp5394
sg21
I0
sba(iArchitecture
Entity
p5395
(dp5396
g11
(lp5397
sg13
S'android.net.ip.IpReachabilityMonitor$NetlinkSocketObserver'
p5398
sg15
(lp5399
sg17
(lp5400
sg19
(lp5401
sg21
I0
sbasg22
(lp5402
g5384
ag5391
ag5398
asg21
I0
sg24
S'961'
p5403
sba(iArchitecture
Cluster
p5404
(dp5405
g7
(lp5406
(iArchitecture
Entity
p5407
(dp5408
g11
(lp5409
sg13
S'android.net.wifi.WpsResult'
p5410
sg15
(lp5411
sg17
(lp5412
sg19
(lp5413
sg21
I0
sba(iArchitecture
Entity
p5414
(dp5415
g11
(lp5416
sg13
S'android.net.wifi.WpsResult$1'
p5417
sg15
(lp5418
sg17
(lp5419
sg19
(lp5420
sg21
I0
sba(iArchitecture
Entity
p5421
(dp5422
g11
(lp5423
sg13
S'android.net.wifi.WpsResult$Status'
p5424
sg15
(lp5425
sg17
(lp5426
sg19
(lp5427
sg21
I0
sbasg22
(lp5428
g5410
ag5417
ag5424
asg21
I0
sg24
S'963'
p5429
sba(iArchitecture
Cluster
p5430
(dp5431
g7
(lp5432
(iArchitecture
Entity
p5433
(dp5434
g11
(lp5435
sg13
S'android.net.wifi.p2p.WifiP2pGroupList'
p5436
sg15
(lp5437
sg17
(lp5438
sg19
(lp5439
sg21
I0
sba(iArchitecture
Entity
p5440
(dp5441
g11
(lp5442
sg13
S'android.net.wifi.p2p.WifiP2pGroupList$1'
p5443
sg15
(lp5444
sg17
(lp5445
sg19
(lp5446
sg21
I0
sba(iArchitecture
Entity
p5447
(dp5448
g11
(lp5449
sg13
S'android.net.wifi.p2p.WifiP2pGroupList$2'
p5450
sg15
(lp5451
sg17
(lp5452
sg19
(lp5453
sg21
I0
sba(iArchitecture
Entity
p5454
(dp5455
g11
(lp5456
sg13
S'android.net.wifi.p2p.WifiP2pGroupList$GroupDeleteListener'
p5457
sg15
(lp5458
sg17
(lp5459
sg19
(lp5460
sg21
I0
sbasg22
(lp5461
g5436
ag5443
ag5450
ag5457
asg21
I0
sg24
S'997'
p5462
sbasg2512
g2513
sg22
(lp5463
sg2515
I00
sg24
S'7.0.0_r1'
p5464
sba.