(lp0
(iArchitecture
Architecture
p1
(dp2
S'clusters'
p3
(lp4
(iArchitecture
Cluster
p5
(dp6
S'entities'
p7
(lp8
(iArchitecture
Entity
p9
(dp10
S'issue_ids'
p11
(lp12
sS'name'
p13
S'com.android.server.input.InputWindowHandle'
p14
sS'descs'
p15
(lp16
sS'labels'
p17
(lp18
sS'titles'
p19
(lp20
sS'change'
p21
I0
sbasS'classes'
p22
(lp23
g14
asg21
I0
sS'label'
p24
S'1122'
p25
sba(iArchitecture
Cluster
p26
(dp27
g7
(lp28
(iArchitecture
Entity
p29
(dp30
g11
(lp31
sg13
S'com.android.server.input.InputApplicationHandle'
p32
sg15
(lp33
sg17
(lp34
sg19
(lp35
sg21
I0
sbasg22
(lp36
g32
asg21
I0
sg24
S'1246'
p37
sba(iArchitecture
Cluster
p38
(dp39
g7
(lp40
(iArchitecture
Entity
p41
(dp42
g11
(lp43
sg13
S'com.android.server.input.InputManagerService'
p44
sg15
(lp45
sg17
(lp46
sg19
(lp47
sg21
I0
sba(iArchitecture
Entity
p48
(dp49
g11
(lp50
sg13
S'com.android.server.input.InputManagerService$1'
p51
sg15
(lp52
sg17
(lp53
sg19
(lp54
sg21
I0
sba(iArchitecture
Entity
p55
(dp56
g11
(lp57
sg13
S'com.android.server.input.InputManagerService$2'
p58
sg15
(lp59
sg17
(lp60
sg19
(lp61
sg21
I0
sba(iArchitecture
Entity
p62
(dp63
g11
(lp64
sg13
S'com.android.server.input.InputManagerService$3'
p65
sg15
(lp66
sg17
(lp67
sg19
(lp68
sg21
I0
sba(iArchitecture
Entity
p69
(dp70
g11
(lp71
sg13
S'com.android.server.input.InputManagerService$4'
p72
sg15
(lp73
sg17
(lp74
sg19
(lp75
sg21
I0
sba(iArchitecture
Entity
p76
(dp77
g11
(lp78
sg13
S'com.android.server.input.InputManagerService$5'
p79
sg15
(lp80
sg17
(lp81
sg19
(lp82
sg21
I0
sba(iArchitecture
Entity
p83
(dp84
g11
(lp85
sg13
S'com.android.server.input.InputManagerService$6'
p86
sg15
(lp87
sg17
(lp88
sg19
(lp89
sg21
I0
sba(iArchitecture
Entity
p90
(dp91
g11
(lp92
sg13
S'com.android.server.input.InputManagerService$7'
p93
sg15
(lp94
sg17
(lp95
sg19
(lp96
sg21
I0
sba(iArchitecture
Entity
p97
(dp98
g11
(lp99
sg13
S'com.android.server.input.InputManagerService$8'
p100
sg15
(lp101
sg17
(lp102
sg19
(lp103
sg21
I0
sba(iArchitecture
Entity
p104
(dp105
g11
(lp106
sg13
S'com.android.server.input.InputManagerService$9'
p107
sg15
(lp108
sg17
(lp109
sg19
(lp110
sg21
I0
sba(iArchitecture
Entity
p111
(dp112
g11
(lp113
sg13
S'com.android.server.input.InputManagerService$InputDevicesChangedListenerRecord'
p114
sg15
(lp115
sg17
(lp116
sg19
(lp117
sg21
I0
sba(iArchitecture
Entity
p118
(dp119
g11
(lp120
sg13
S'com.android.server.input.InputManagerService$InputFilterHost'
p121
sg15
(lp122
sg17
(lp123
sg19
(lp124
sg21
I0
sba(iArchitecture
Entity
p125
(dp126
g11
(lp127
sg13
S'com.android.server.input.InputManagerService$InputManagerHandler'
p128
sg15
(lp129
sg17
(lp130
sg19
(lp131
sg21
I0
sba(iArchitecture
Entity
p132
(dp133
g11
(lp134
sg13
S'com.android.server.input.InputManagerService$KeyboardLayoutDescriptor'
p135
sg15
(lp136
sg17
(lp137
sg19
(lp138
sg21
I0
sba(iArchitecture
Entity
p139
(dp140
g11
(lp141
sg13
S'com.android.server.input.InputManagerService$KeyboardLayoutVisitor'
p142
sg15
(lp143
sg17
(lp144
sg19
(lp145
sg21
I0
sba(iArchitecture
Entity
p146
(dp147
g11
(lp148
sg13
S'com.android.server.input.InputManagerService$LocalService'
p149
sg15
(lp150
sg17
(lp151
sg19
(lp152
sg21
I0
sba(iArchitecture
Entity
p153
(dp154
g11
(lp155
sg13
S'com.android.server.input.InputManagerService$VibratorToken'
p156
sg15
(lp157
sg17
(lp158
sg19
(lp159
sg21
I0
sba(iArchitecture
Entity
p160
(dp161
g11
(lp162
sg13
S'com.android.server.input.InputManagerService$WindowManagerCallbacks'
p163
sg15
(lp164
sg17
(lp165
sg19
(lp166
sg21
I0
sba(iArchitecture
Entity
p167
(dp168
g11
(lp169
sg13
S'com.android.server.input.InputManagerService$WiredAccessoryCallbacks'
p170
sg15
(lp171
sg17
(lp172
sg19
(lp173
sg21
I0
sba(iArchitecture
Entity
p174
(dp175
g11
(lp176
sg13
S'com.android.server.input.PersistentDataStore'
p177
sg15
(lp178
sg17
(lp179
sg19
(lp180
sg21
I0
sba(iArchitecture
Entity
p181
(dp182
g11
(lp183
sg13
S'com.android.server.input.PersistentDataStore$InputDeviceState'
p184
sg15
(lp185
sg17
(lp186
sg19
(lp187
sg21
I0
sbasg22
(lp188
g44
ag51
ag58
ag65
ag72
ag79
ag86
ag93
ag100
ag107
ag114
ag121
ag128
ag135
ag142
ag149
ag156
ag163
ag170
ag177
ag184
asg21
I0
sg24
S'1248'
p189
sbasS'target_sub'
p190
S'com.android.server.input'
p191
sg22
(lp192
sS'is_component_arch'
p193
I00
sg24
S'6.0.0_r1'
p194
sba(iArchitecture
Architecture
p195
(dp196
g3
(lp197
(iArchitecture
Cluster
p198
(dp199
g7
(lp200
(iArchitecture
Entity
p201
(dp202
g11
(lp203
sg13
S'com.android.server.input.InputWindowHandle'
p204
sg15
(lp205
sg17
(lp206
sg19
(lp207
sg21
I0
sbasg22
(lp208
g204
asg21
I0
sg24
S'1260'
p209
sba(iArchitecture
Cluster
p210
(dp211
g7
(lp212
(iArchitecture
Entity
p213
(dp214
g11
(lp215
sg13
S'com.android.server.input.InputApplicationHandle'
p216
sg15
(lp217
sg17
(lp218
sg19
(lp219
sg21
I0
sbasg22
(lp220
g216
asg21
I0
sg24
S'1331'
p221
sba(iArchitecture
Cluster
p222
(dp223
g7
(lp224
(iArchitecture
Entity
p225
(dp226
g11
(lp227
sg13
S'com.android.server.input.InputManagerService'
p228
sg15
(lp229
sg17
(lp230
sg19
(lp231
sg21
I0
sba(iArchitecture
Entity
p232
(dp233
g11
(lp234
sg13
S'com.android.server.input.InputManagerService$1'
p235
sg15
(lp236
sg17
(lp237
sg19
(lp238
sg21
I0
sba(iArchitecture
Entity
p239
(dp240
g11
(lp241
sg13
S'com.android.server.input.InputManagerService$10'
p242
sg15
(lp243
sg17
(lp244
sg19
(lp245
sg21
I0
sba(iArchitecture
Entity
p246
(dp247
g11
(lp248
sg13
S'com.android.server.input.InputManagerService$11'
p249
sg15
(lp250
sg17
(lp251
sg19
(lp252
sg21
I0
sba(iArchitecture
Entity
p253
(dp254
g11
(lp255
sg13
S'com.android.server.input.InputManagerService$12'
p256
sg15
(lp257
sg17
(lp258
sg19
(lp259
sg21
I0
sba(iArchitecture
Entity
p260
(dp261
g11
(lp262
sg13
S'com.android.server.input.InputManagerService$13'
p263
sg15
(lp264
sg17
(lp265
sg19
(lp266
sg21
I0
sba(iArchitecture
Entity
p267
(dp268
g11
(lp269
sg13
S'com.android.server.input.InputManagerService$14'
p270
sg15
(lp271
sg17
(lp272
sg19
(lp273
sg21
I0
sba(iArchitecture
Entity
p274
(dp275
g11
(lp276
sg13
S'com.android.server.input.InputManagerService$2'
p277
sg15
(lp278
sg17
(lp279
sg19
(lp280
sg21
I0
sba(iArchitecture
Entity
p281
(dp282
g11
(lp283
sg13
S'com.android.server.input.InputManagerService$3'
p284
sg15
(lp285
sg17
(lp286
sg19
(lp287
sg21
I0
sba(iArchitecture
Entity
p288
(dp289
g11
(lp290
sg13
S'com.android.server.input.InputManagerService$4'
p291
sg15
(lp292
sg17
(lp293
sg19
(lp294
sg21
I0
sba(iArchitecture
Entity
p295
(dp296
g11
(lp297
sg13
S'com.android.server.input.InputManagerService$5'
p298
sg15
(lp299
sg17
(lp300
sg19
(lp301
sg21
I0
sba(iArchitecture
Entity
p302
(dp303
g11
(lp304
sg13
S'com.android.server.input.InputManagerService$6'
p305
sg15
(lp306
sg17
(lp307
sg19
(lp308
sg21
I0
sba(iArchitecture
Entity
p309
(dp310
g11
(lp311
sg13
S'com.android.server.input.InputManagerService$7'
p312
sg15
(lp313
sg17
(lp314
sg19
(lp315
sg21
I0
sba(iArchitecture
Entity
p316
(dp317
g11
(lp318
sg13
S'com.android.server.input.InputManagerService$8'
p319
sg15
(lp320
sg17
(lp321
sg19
(lp322
sg21
I0
sba(iArchitecture
Entity
p323
(dp324
g11
(lp325
sg13
S'com.android.server.input.InputManagerService$9'
p326
sg15
(lp327
sg17
(lp328
sg19
(lp329
sg21
I0
sba(iArchitecture
Entity
p330
(dp331
g11
(lp332
sg13
S'com.android.server.input.InputManagerService$InputDevicesChangedListenerRecord'
p333
sg15
(lp334
sg17
(lp335
sg19
(lp336
sg21
I0
sba(iArchitecture
Entity
p337
(dp338
g11
(lp339
sg13
S'com.android.server.input.InputManagerService$InputFilterHost'
p340
sg15
(lp341
sg17
(lp342
sg19
(lp343
sg21
I0
sba(iArchitecture
Entity
p344
(dp345
g11
(lp346
sg13
S'com.android.server.input.InputManagerService$InputManagerHandler'
p347
sg15
(lp348
sg17
(lp349
sg19
(lp350
sg21
I0
sba(iArchitecture
Entity
p351
(dp352
g11
(lp353
sg13
S'com.android.server.input.InputManagerService$KeyboardLayoutDescriptor'
p354
sg15
(lp355
sg17
(lp356
sg19
(lp357
sg21
I0
sba(iArchitecture
Entity
p358
(dp359
g11
(lp360
sg13
S'com.android.server.input.InputManagerService$KeyboardLayoutVisitor'
p361
sg15
(lp362
sg17
(lp363
sg19
(lp364
sg21
I0
sba(iArchitecture
Entity
p365
(dp366
g11
(lp367
sg13
S'com.android.server.input.InputManagerService$LocalService'
p368
sg15
(lp369
sg17
(lp370
sg19
(lp371
sg21
I0
sba(iArchitecture
Entity
p372
(dp373
g11
(lp374
sg13
S'com.android.server.input.InputManagerService$Shell'
p375
sg15
(lp376
sg17
(lp377
sg19
(lp378
sg21
I0
sba(iArchitecture
Entity
p379
(dp380
g11
(lp381
sg13
S'com.android.server.input.InputManagerService$TabletModeChangedListenerRecord'
p382
sg15
(lp383
sg17
(lp384
sg19
(lp385
sg21
I0
sba(iArchitecture
Entity
p386
(dp387
g11
(lp388
sg13
S'com.android.server.input.InputManagerService$VibratorToken'
p389
sg15
(lp390
sg17
(lp391
sg19
(lp392
sg21
I0
sba(iArchitecture
Entity
p393
(dp394
g11
(lp395
sg13
S'com.android.server.input.InputManagerService$WindowManagerCallbacks'
p396
sg15
(lp397
sg17
(lp398
sg19
(lp399
sg21
I0
sba(iArchitecture
Entity
p400
(dp401
g11
(lp402
sg13
S'com.android.server.input.InputManagerService$WiredAccessoryCallbacks'
p403
sg15
(lp404
sg17
(lp405
sg19
(lp406
sg21
I0
sba(iArchitecture
Entity
p407
(dp408
g11
(lp409
sg13
S'com.android.server.input.PersistentDataStore'
p410
sg15
(lp411
sg17
(lp412
sg19
(lp413
sg21
I0
sba(iArchitecture
Entity
p414
(dp415
g11
(lp416
sg13
S'com.android.server.input.PersistentDataStore$InputDeviceState'
p417
sg15
(lp418
sg17
(lp419
sg19
(lp420
sg21
I0
sbasg22
(lp421
g228
ag235
ag242
ag249
ag256
ag263
ag270
ag277
ag284
ag291
ag298
ag305
ag312
ag319
ag326
ag333
ag340
ag347
ag354
ag361
ag368
ag375
ag382
ag389
ag396
ag403
ag410
ag417
asg21
I0
sg24
S'1402'
p422
sbasg190
g191
sg22
(lp423
sg193
I00
sg24
S'7.0.0_r1'
p424
sba.