(lp0
(iArchitecture
Architecture
p1
(dp2
S'clusters'
p3
(lp4
(iArchitecture
Cluster
p5
(dp6
S'entities'
p7
(lp8
(iArchitecture
Entity
p9
(dp10
S'issue_ids'
p11
(lp12
sS'name'
p13
S'com.android.server.backup.NotificationBackupHelper'
p14
sS'descs'
p15
(lp16
sS'labels'
p17
(lp18
sS'titles'
p19
(lp20
sS'change'
p21
I0
sba(iArchitecture
Entity
p22
(dp23
g11
(lp24
sg13
S'com.android.server.backup.PreferredActivityBackupHelper'
p25
sg15
(lp26
sg17
(lp27
sg19
(lp28
sg21
I0
sbasS'classes'
p29
(lp30
g14
ag25
asg21
I0
sS'label'
p31
S'1237'
p32
sba(iArchitecture
Cluster
p33
(dp34
g7
(lp35
(iArchitecture
Entity
p36
(dp37
g11
(lp38
sg13
S'com.android.server.backup.FullBackupJob'
p39
sg15
(lp40
sg17
(lp41
sg19
(lp42
sg21
I0
sba(iArchitecture
Entity
p43
(dp44
g11
(lp45
sg13
S'com.android.server.backup.KeyValueBackupJob'
p46
sg15
(lp47
sg17
(lp48
sg19
(lp49
sg21
I0
sbasg29
(lp50
g39
ag46
asg21
I0
sg31
S'1246'
p51
sba(iArchitecture
Cluster
p52
(dp53
g7
(lp54
(iArchitecture
Entity
p55
(dp56
g11
(lp57
sg13
S'com.android.server.backup.SystemBackupAgent'
p58
sg15
(lp59
sg17
(lp60
sg19
(lp61
sg21
I0
sbasg29
(lp62
g58
asg21
I0
sg31
S'1254'
p63
sba(iArchitecture
Cluster
p64
(dp65
g7
(lp66
(iArchitecture
Entity
p67
(dp68
g11
(lp69
sg13
S'com.android.server.backup.Trampoline'
p70
sg15
(lp71
sg17
(lp72
sg19
(lp73
sg21
I0
sbasg29
(lp74
g70
asg21
I0
sg31
S'163'
p75
sba(iArchitecture
Cluster
p76
(dp77
g7
(lp78
(iArchitecture
Entity
p79
(dp80
g11
(lp81
sg13
S'com.android.server.backup.AccountSyncSettingsBackupHelper'
p82
sg15
(lp83
sg17
(lp84
sg19
(lp85
sg21
I0
sbasg29
(lp86
g82
asg21
I0
sg31
S'164'
p87
sbasS'target_sub'
p88
S'com.android.server.backup'
p89
sg29
(lp90
sS'is_component_arch'
p91
I00
sg31
S'6.0.0_r1'
p92
sba(iArchitecture
Architecture
p93
(dp94
g3
(lp95
(iArchitecture
Cluster
p96
(dp97
g7
(lp98
(iArchitecture
Entity
p99
(dp100
g11
(lp101
sg13
S'com.android.server.backup.FullBackupJob'
p102
sg15
(lp103
sg17
(lp104
sg19
(lp105
sg21
I0
sba(iArchitecture
Entity
p106
(dp107
g11
(lp108
sg13
S'com.android.server.backup.KeyValueBackupJob'
p109
sg15
(lp110
sg17
(lp111
sg19
(lp112
sg21
I0
sbasg29
(lp113
g102
ag109
asg21
I0
sg31
S'1330'
p114
sba(iArchitecture
Cluster
p115
(dp116
g7
(lp117
(iArchitecture
Entity
p118
(dp119
g11
(lp120
sg13
S'com.android.server.backup.NotificationBackupHelper'
p121
sg15
(lp122
sg17
(lp123
sg19
(lp124
sg21
I0
sba(iArchitecture
Entity
p125
(dp126
g11
(lp127
sg13
S'com.android.server.backup.PermissionBackupHelper'
p128
sg15
(lp129
sg17
(lp130
sg19
(lp131
sg21
I0
sba(iArchitecture
Entity
p132
(dp133
g11
(lp134
sg13
S'com.android.server.backup.PreferredActivityBackupHelper'
p135
sg15
(lp136
sg17
(lp137
sg19
(lp138
sg21
I0
sba(iArchitecture
Entity
p139
(dp140
g11
(lp141
sg13
S'com.android.server.backup.ShortcutBackupHelper'
p142
sg15
(lp143
sg17
(lp144
sg19
(lp145
sg21
I0
sbasg29
(lp146
g121
ag128
ag135
ag142
asg21
I0
sg31
S'1383'
p147
sba(iArchitecture
Cluster
p148
(dp149
g7
(lp150
(iArchitecture
Entity
p151
(dp152
g11
(lp153
sg13
S'com.android.server.backup.SystemBackupAgent'
p154
sg15
(lp155
sg17
(lp156
sg19
(lp157
sg21
I0
sbasg29
(lp158
g154
asg21
I0
sg31
S'1406'
p159
sba(iArchitecture
Cluster
p160
(dp161
g7
(lp162
(iArchitecture
Entity
p163
(dp164
g11
(lp165
sg13
S'com.android.server.backup.Trampoline'
p166
sg15
(lp167
sg17
(lp168
sg19
(lp169
sg21
I0
sbasg29
(lp170
g166
asg21
I0
sg31
S'179'
p171
sba(iArchitecture
Cluster
p172
(dp173
g7
(lp174
(iArchitecture
Entity
p175
(dp176
g11
(lp177
sg13
S'com.android.server.backup.AccountSyncSettingsBackupHelper'
p178
sg15
(lp179
sg17
(lp180
sg19
(lp181
sg21
I0
sbasg29
(lp182
g178
asg21
I0
sg31
S'180'
p183
sba(iArchitecture
Cluster
p184
(dp185
g7
(lp186
(iArchitecture
Entity
p187
(dp188
g11
(lp189
sg13
S'com.android.server.backup.UsageStatsBackupHelper'
p190
sg15
(lp191
sg17
(lp192
sg19
(lp193
sg21
I0
sbasg29
(lp194
g190
asg21
I0
sg31
S'340'
p195
sba(iArchitecture
Cluster
p196
(dp197
g7
(lp198
(iArchitecture
Entity
p199
(dp200
g11
(lp201
sg13
S'com.android.server.backup.BackupUtils'
p202
sg15
(lp203
sg17
(lp204
sg19
(lp205
sg21
I0
sbasg29
(lp206
g202
asg21
I0
sg31
S'446'
p207
sbasg88
g89
sg29
(lp208
sg91
I00
sg31
S'7.0.0_r1'
p209
sba.