(lp0
(iArchitecture
Architecture
p1
(dp2
S'clusters'
p3
(lp4
(iArchitecture
Cluster
p5
(dp6
S'entities'
p7
(lp8
(iArchitecture
Entity
p9
(dp10
S'issue_ids'
p11
(lp12
sS'name'
p13
S'com.android.server.pm.PackageVerificationState'
p14
sS'descs'
p15
(lp16
sS'labels'
p17
(lp18
sS'titles'
p19
(lp20
sS'change'
p21
I0
sbasS'classes'
p22
(lp23
g14
asg21
I0
sS'label'
p24
S'105'
p25
sba(iArchitecture
Cluster
p26
(dp27
g7
(lp28
(iArchitecture
Entity
p29
(dp30
g11
(lp31
sg13
S'com.android.server.pm.UserManagerService'
p32
sg15
(lp33
sg17
(lp34
sg19
(lp35
sg21
I0
sba(iArchitecture
Entity
p36
(dp37
g11
(lp38
sg13
S'com.android.server.pm.UserManagerService$1'
p39
sg15
(lp40
sg17
(lp41
sg19
(lp42
sg21
I0
sba(iArchitecture
Entity
p43
(dp44
g11
(lp45
sg13
S'com.android.server.pm.UserManagerService$2'
p46
sg15
(lp47
sg17
(lp48
sg19
(lp49
sg21
I0
sba(iArchitecture
Entity
p50
(dp51
g11
(lp52
sg13
S'com.android.server.pm.UserManagerService$2$1'
p53
sg15
(lp54
sg17
(lp55
sg19
(lp56
sg21
I0
sba(iArchitecture
Entity
p57
(dp58
g11
(lp59
sg13
S'com.android.server.pm.UserManagerService$3'
p60
sg15
(lp61
sg17
(lp62
sg19
(lp63
sg21
I0
sba(iArchitecture
Entity
p64
(dp65
g11
(lp66
sg13
S'com.android.server.pm.UserManagerService$MainHandler'
p67
sg15
(lp68
sg17
(lp69
sg19
(lp70
sg21
I0
sbasg22
(lp71
g32
ag39
ag46
ag53
ag60
ag67
asg21
I0
sg24
S'1143'
p72
sba(iArchitecture
Cluster
p73
(dp74
g7
(lp75
(iArchitecture
Entity
p76
(dp77
g11
(lp78
sg13
S'com.android.server.pm.PackageInstallerService'
p79
sg15
(lp80
sg17
(lp81
sg19
(lp82
sg21
I0
sba(iArchitecture
Entity
p83
(dp84
g11
(lp85
sg13
S'com.android.server.pm.PackageInstallerService$1'
p86
sg15
(lp87
sg17
(lp88
sg19
(lp89
sg21
I0
sba(iArchitecture
Entity
p90
(dp91
g11
(lp92
sg13
S'com.android.server.pm.PackageInstallerService$2'
p93
sg15
(lp94
sg17
(lp95
sg19
(lp96
sg21
I0
sba(iArchitecture
Entity
p97
(dp98
g11
(lp99
sg13
S'com.android.server.pm.PackageInstallerService$Callbacks'
p100
sg15
(lp101
sg17
(lp102
sg19
(lp103
sg21
I0
sba(iArchitecture
Entity
p104
(dp105
g11
(lp106
sg13
S'com.android.server.pm.PackageInstallerService$InternalCallback'
p107
sg15
(lp108
sg17
(lp109
sg19
(lp110
sg21
I0
sba(iArchitecture
Entity
p111
(dp112
g11
(lp113
sg13
S'com.android.server.pm.PackageInstallerService$InternalCallback$1'
p114
sg15
(lp115
sg17
(lp116
sg19
(lp117
sg21
I0
sba(iArchitecture
Entity
p118
(dp119
g11
(lp120
sg13
S'com.android.server.pm.PackageInstallerService$PackageDeleteObserverAdapter'
p121
sg15
(lp122
sg17
(lp123
sg19
(lp124
sg21
I0
sba(iArchitecture
Entity
p125
(dp126
g11
(lp127
sg13
S'com.android.server.pm.PackageInstallerService$PackageInstallObserverAdapter'
p128
sg15
(lp129
sg17
(lp130
sg19
(lp131
sg21
I0
sbasg22
(lp132
g79
ag86
ag93
ag100
ag107
ag114
ag121
ag128
asg21
I0
sg24
S'1190'
p133
sba(iArchitecture
Cluster
p134
(dp135
g7
(lp136
(iArchitecture
Entity
p137
(dp138
g11
(lp139
sg13
S'com.android.server.pm.IntentFilterVerificationResponse'
p140
sg15
(lp141
sg17
(lp142
sg19
(lp143
sg21
I0
sba(iArchitecture
Entity
p144
(dp145
g11
(lp146
sg13
S'com.android.server.pm.PackageVerificationResponse'
p147
sg15
(lp148
sg17
(lp149
sg19
(lp150
sg21
I0
sba(iArchitecture
Entity
p151
(dp152
g11
(lp153
sg13
S'com.android.server.pm.PersistentPreferredIntentResolver'
p154
sg15
(lp155
sg17
(lp156
sg19
(lp157
sg21
I0
sba(iArchitecture
Entity
p158
(dp159
g11
(lp160
sg13
S'com.android.server.pm.PreferredIntentResolver'
p161
sg15
(lp162
sg17
(lp163
sg19
(lp164
sg21
I0
sbasg22
(lp165
g140
ag147
ag154
ag161
asg21
I0
sg24
S'1223'
p166
sba(iArchitecture
Cluster
p167
(dp168
g7
(lp169
(iArchitecture
Entity
p170
(dp171
g11
(lp172
sg13
S'com.android.server.pm.CrossProfileIntentResolver'
p173
sg15
(lp174
sg17
(lp175
sg19
(lp176
sg21
I0
sba(iArchitecture
Entity
p177
(dp178
g11
(lp179
sg13
S'com.android.server.pm.IntentFilterVerificationKey'
p180
sg15
(lp181
sg17
(lp182
sg19
(lp183
sg21
I0
sba(iArchitecture
Entity
p184
(dp185
g11
(lp186
sg13
S'com.android.server.pm.KeySetHandle'
p187
sg15
(lp188
sg17
(lp189
sg19
(lp190
sg21
I0
sbasg22
(lp191
g173
ag180
ag187
asg21
I0
sg24
S'1237'
p192
sba(iArchitecture
Cluster
p193
(dp194
g7
(lp195
(iArchitecture
Entity
p196
(dp197
g11
(lp198
sg13
S'com.android.server.pm.CrossProfileIntentFilter'
p199
sg15
(lp200
sg17
(lp201
sg19
(lp202
sg21
I0
sba(iArchitecture
Entity
p203
(dp204
g11
(lp205
sg13
S'com.android.server.pm.PackageSetting'
p206
sg15
(lp207
sg17
(lp208
sg19
(lp209
sg21
I0
sba(iArchitecture
Entity
p210
(dp211
g11
(lp212
sg13
S'com.android.server.pm.PackageSignatures'
p213
sg15
(lp214
sg17
(lp215
sg19
(lp216
sg21
I0
sba(iArchitecture
Entity
p217
(dp218
g11
(lp219
sg13
S'com.android.server.pm.PersistentPreferredActivity'
p220
sg15
(lp221
sg17
(lp222
sg19
(lp223
sg21
I0
sba(iArchitecture
Entity
p224
(dp225
g11
(lp226
sg13
S'com.android.server.pm.PreferredActivity'
p227
sg15
(lp228
sg17
(lp229
sg19
(lp230
sg21
I0
sbasg22
(lp231
g199
ag206
ag213
ag220
ag227
asg21
I0
sg24
S'1246'
p232
sba(iArchitecture
Cluster
p233
(dp234
g7
(lp235
(iArchitecture
Entity
p236
(dp237
g11
(lp238
sg13
S'com.android.server.pm.IntentFilterVerificationState'
p239
sg15
(lp240
sg17
(lp241
sg19
(lp242
sg21
I0
sbasg22
(lp243
g239
asg21
I0
sg24
S'173'
p244
sba(iArchitecture
Cluster
p245
(dp246
g7
(lp247
(iArchitecture
Entity
p248
(dp249
g11
(lp250
sg13
S'com.android.server.pm.SettingBase'
p251
sg15
(lp252
sg17
(lp253
sg19
(lp254
sg21
I0
sbasg22
(lp255
g251
asg21
I0
sg24
S'19'
p256
sba(iArchitecture
Cluster
p257
(dp258
g7
(lp259
(iArchitecture
Entity
p260
(dp261
g11
(lp262
sg13
S'com.android.server.pm.BasePermission'
p263
sg15
(lp264
sg17
(lp265
sg19
(lp266
sg21
I0
sbasg22
(lp267
g263
asg21
I0
sg24
S'23'
p268
sba(iArchitecture
Cluster
p269
(dp270
g7
(lp271
(iArchitecture
Entity
p272
(dp273
g11
(lp274
sg13
S'com.android.server.pm.SharedUserSetting'
p275
sg15
(lp276
sg17
(lp277
sg19
(lp278
sg21
I0
sbasg22
(lp279
g275
asg21
I0
sg24
S'346'
p280
sba(iArchitecture
Cluster
p281
(dp282
g7
(lp283
(iArchitecture
Entity
p284
(dp285
g11
(lp286
sg13
S'com.android.server.pm.PackageKeySetData'
p287
sg15
(lp288
sg17
(lp289
sg19
(lp290
sg21
I0
sbasg22
(lp291
g287
asg21
I0
sg24
S'388'
p292
sba(iArchitecture
Cluster
p293
(dp294
g7
(lp295
(iArchitecture
Entity
p296
(dp297
g11
(lp298
sg13
S'com.android.server.pm.PackageManagerException'
p299
sg15
(lp300
sg17
(lp301
sg19
(lp302
sg21
I0
sbasg22
(lp303
g299
asg21
I0
sg24
S'397'
p304
sba(iArchitecture
Cluster
p305
(dp306
g7
(lp307
(iArchitecture
Entity
p308
(dp309
g11
(lp310
sg13
S'com.android.server.pm.InstructionSets'
p311
sg15
(lp312
sg17
(lp313
sg19
(lp314
sg21
I0
sbasg22
(lp315
g311
asg21
I0
sg24
S'403'
p316
sba(iArchitecture
Cluster
p317
(dp318
g7
(lp319
(iArchitecture
Entity
p320
(dp321
g11
(lp322
sg13
S'com.android.server.pm.PackageSettingBase'
p323
sg15
(lp324
sg17
(lp325
sg19
(lp326
sg21
I0
sbasg22
(lp327
g323
asg21
I0
sg24
S'434'
p328
sba(iArchitecture
Cluster
p329
(dp330
g7
(lp331
(iArchitecture
Entity
p332
(dp333
g11
(lp334
sg13
S'com.android.server.pm.PreferredComponent'
p335
sg15
(lp336
sg17
(lp337
sg19
(lp338
sg21
I0
sba(iArchitecture
Entity
p339
(dp340
g11
(lp341
sg13
S'com.android.server.pm.PreferredComponent$Callbacks'
p342
sg15
(lp343
sg17
(lp344
sg19
(lp345
sg21
I0
sbasg22
(lp346
g335
ag342
asg21
I0
sg24
S'731'
p347
sba(iArchitecture
Cluster
p348
(dp349
g7
(lp350
(iArchitecture
Entity
p351
(dp352
g11
(lp353
sg13
S'com.android.server.pm.DefaultPermissionGrantPolicy'
p354
sg15
(lp355
sg17
(lp356
sg19
(lp357
sg21
I0
sbasg22
(lp358
g354
asg21
I0
sg24
S'75'
p359
sba(iArchitecture
Cluster
p360
(dp361
g7
(lp362
(iArchitecture
Entity
p363
(dp364
g11
(lp365
sg13
S'com.android.server.pm.Installer'
p366
sg15
(lp367
sg17
(lp368
sg19
(lp369
sg21
I0
sbasg22
(lp370
g366
asg21
I0
sg24
S'86'
p371
sba(iArchitecture
Cluster
p372
(dp373
g7
(lp374
(iArchitecture
Entity
p375
(dp376
g11
(lp377
sg13
S'com.android.server.pm.PermissionsState'
p378
sg15
(lp379
sg17
(lp380
sg19
(lp381
sg21
I0
sba(iArchitecture
Entity
p382
(dp383
g11
(lp384
sg13
S'com.android.server.pm.PermissionsState$PermissionData'
p385
sg15
(lp386
sg17
(lp387
sg19
(lp388
sg21
I0
sba(iArchitecture
Entity
p389
(dp390
g11
(lp391
sg13
S'com.android.server.pm.PermissionsState$PermissionState'
p392
sg15
(lp393
sg17
(lp394
sg19
(lp395
sg21
I0
sbasg22
(lp396
g378
ag385
ag392
asg21
I0
sg24
S'863'
p397
sbasS'target_sub'
p398
S'com.android.server.pm'
p399
sg22
(lp400
sS'is_component_arch'
p401
I00
sg24
S'6.0.0_r1'
p402
sba(iArchitecture
Architecture
p403
(dp404
g3
(lp405
(iArchitecture
Cluster
p406
(dp407
g7
(lp408
(iArchitecture
Entity
p409
(dp410
g11
(lp411
sg13
S'com.android.server.pm.ShortcutUser'
p412
sg15
(lp413
sg17
(lp414
sg19
(lp415
sg21
I0
sba(iArchitecture
Entity
p416
(dp417
g11
(lp418
sg13
S'com.android.server.pm.ShortcutUser$PackageWithUser'
p419
sg15
(lp420
sg17
(lp421
sg19
(lp422
sg21
I0
sba(iArchitecture
Entity
p423
(dp424
g11
(lp425
sg13
S'com.android.server.pm.ShortcutUser$_void_attemptToRestoreIfNeededAndSave_com_android_server_pm_ShortcutService_s_java_lang_String_packageName_int_packageUserId_LambdaImpl0'
p426
sg15
(lp427
sg17
(lp428
sg19
(lp429
sg21
I0
sba(iArchitecture
Entity
p430
(dp431
g11
(lp432
sg13
S'com.android.server.pm.ShortcutUser$_void_forPackageItem_java_lang_String_packageName_int_packageUserId_java_util_function_Consumer_callback_LambdaImpl0'
p433
sg15
(lp434
sg17
(lp435
sg19
(lp436
sg21
I0
sba(iArchitecture
Entity
p437
(dp438
g11
(lp439
sg13
S'com.android.server.pm.ShortcutUser$_void_resetThrottlingIfNeeded_com_android_server_pm_ShortcutService_s_LambdaImpl0'
p440
sg15
(lp441
sg17
(lp442
sg19
(lp443
sg21
I0
sbasg22
(lp444
g412
ag419
ag426
ag433
ag440
asg21
I0
sg24
S'1069'
p445
sba(iArchitecture
Cluster
p446
(dp447
g7
(lp448
(iArchitecture
Entity
p449
(dp450
g11
(lp451
sg13
S'com.android.server.pm.UserRestrictionsUtils'
p452
sg15
(lp453
sg17
(lp454
sg19
(lp455
sg21
I0
sbasg22
(lp456
g452
asg21
I0
sg24
S'116'
p457
sba(iArchitecture
Cluster
p458
(dp459
g7
(lp460
(iArchitecture
Entity
p461
(dp462
g11
(lp463
sg13
S'com.android.server.pm.PackageVerificationState'
p464
sg15
(lp465
sg17
(lp466
sg19
(lp467
sg21
I0
sbasg22
(lp468
g464
asg21
I0
sg24
S'118'
p469
sba(iArchitecture
Cluster
p470
(dp471
g7
(lp472
(iArchitecture
Entity
p473
(dp474
g11
(lp475
sg13
S'com.android.server.pm.CrossProfileIntentFilter'
p476
sg15
(lp477
sg17
(lp478
sg19
(lp479
sg21
I0
sba(iArchitecture
Entity
p480
(dp481
g11
(lp482
sg13
S'com.android.server.pm.PersistentPreferredActivity'
p483
sg15
(lp484
sg17
(lp485
sg19
(lp486
sg21
I0
sba(iArchitecture
Entity
p487
(dp488
g11
(lp489
sg13
S'com.android.server.pm.PreferredActivity'
p490
sg15
(lp491
sg17
(lp492
sg19
(lp493
sg21
I0
sbasg22
(lp494
g476
ag483
ag490
asg21
I0
sg24
S'1275'
p495
sba(iArchitecture
Cluster
p496
(dp497
g7
(lp498
(iArchitecture
Entity
p499
(dp500
g11
(lp501
sg13
S'com.android.server.pm.KeySetHandle'
p502
sg15
(lp503
sg17
(lp504
sg19
(lp505
sg21
I0
sbasg22
(lp506
g502
asg21
I0
sg24
S'1293'
p507
sba(iArchitecture
Cluster
p508
(dp509
g7
(lp510
(iArchitecture
Entity
p511
(dp512
g11
(lp513
sg13
S'com.android.server.pm.CrossProfileIntentResolver'
p514
sg15
(lp515
sg17
(lp516
sg19
(lp517
sg21
I0
sba(iArchitecture
Entity
p518
(dp519
g11
(lp520
sg13
S'com.android.server.pm.IntentFilterVerificationResponse'
p521
sg15
(lp522
sg17
(lp523
sg19
(lp524
sg21
I0
sba(iArchitecture
Entity
p525
(dp526
g11
(lp527
sg13
S'com.android.server.pm.PackageSetting'
p528
sg15
(lp529
sg17
(lp530
sg19
(lp531
sg21
I0
sba(iArchitecture
Entity
p532
(dp533
g11
(lp534
sg13
S'com.android.server.pm.PackageSignatures'
p535
sg15
(lp536
sg17
(lp537
sg19
(lp538
sg21
I0
sba(iArchitecture
Entity
p539
(dp540
g11
(lp541
sg13
S'com.android.server.pm.PackageVerificationResponse'
p542
sg15
(lp543
sg17
(lp544
sg19
(lp545
sg21
I0
sba(iArchitecture
Entity
p546
(dp547
g11
(lp548
sg13
S'com.android.server.pm.PersistentPreferredIntentResolver'
p549
sg15
(lp550
sg17
(lp551
sg19
(lp552
sg21
I0
sba(iArchitecture
Entity
p553
(dp554
g11
(lp555
sg13
S'com.android.server.pm.PreferredIntentResolver'
p556
sg15
(lp557
sg17
(lp558
sg19
(lp559
sg21
I0
sbasg22
(lp560
g514
ag521
ag528
ag535
ag542
ag549
ag556
asg21
I0
sg24
S'1330'
p561
sba(iArchitecture
Cluster
p562
(dp563
g7
(lp564
(iArchitecture
Entity
p565
(dp566
g11
(lp567
sg13
S'com.android.server.pm.IntentFilterVerificationKey'
p568
sg15
(lp569
sg17
(lp570
sg19
(lp571
sg21
I0
sbasg22
(lp572
g568
asg21
I0
sg24
S'1331'
p573
sba(iArchitecture
Cluster
p574
(dp575
g7
(lp576
(iArchitecture
Entity
p577
(dp578
g11
(lp579
sg13
S'com.android.server.pm.PackageManagerServiceCompilerMapping'
p580
sg15
(lp581
sg17
(lp582
sg19
(lp583
sg21
I0
sba(iArchitecture
Entity
p584
(dp585
g11
(lp586
sg13
S'com.android.server.pm.ProtectedPackages'
p587
sg15
(lp588
sg17
(lp589
sg19
(lp590
sg21
I0
sbasg22
(lp591
g580
ag587
asg21
I0
sg24
S'1384'
p592
sba(iArchitecture
Cluster
p593
(dp594
g7
(lp595
(iArchitecture
Entity
p596
(dp597
g11
(lp598
sg13
S'com.android.server.pm.UserManagerService'
p599
sg15
(lp600
sg17
(lp601
sg19
(lp602
sg21
I0
sba(iArchitecture
Entity
p603
(dp604
g11
(lp605
sg13
S'com.android.server.pm.UserManagerService$1'
p606
sg15
(lp607
sg17
(lp608
sg19
(lp609
sg21
I0
sba(iArchitecture
Entity
p610
(dp611
g11
(lp612
sg13
S'com.android.server.pm.UserManagerService$2'
p613
sg15
(lp614
sg17
(lp615
sg19
(lp616
sg21
I0
sba(iArchitecture
Entity
p617
(dp618
g11
(lp619
sg13
S'com.android.server.pm.UserManagerService$3'
p620
sg15
(lp621
sg17
(lp622
sg19
(lp623
sg21
I0
sba(iArchitecture
Entity
p624
(dp625
g11
(lp626
sg13
S'com.android.server.pm.UserManagerService$4'
p627
sg15
(lp628
sg17
(lp629
sg19
(lp630
sg21
I0
sba(iArchitecture
Entity
p631
(dp632
g11
(lp633
sg13
S'com.android.server.pm.UserManagerService$5'
p634
sg15
(lp635
sg17
(lp636
sg19
(lp637
sg21
I0
sba(iArchitecture
Entity
p638
(dp639
g11
(lp640
sg13
S'com.android.server.pm.UserManagerService$6'
p641
sg15
(lp642
sg17
(lp643
sg19
(lp644
sg21
I0
sba(iArchitecture
Entity
p645
(dp646
g11
(lp647
sg13
S'com.android.server.pm.UserManagerService$6$1'
p648
sg15
(lp649
sg17
(lp650
sg19
(lp651
sg21
I0
sba(iArchitecture
Entity
p652
(dp653
g11
(lp654
sg13
S'com.android.server.pm.UserManagerService$LifeCycle'
p655
sg15
(lp656
sg17
(lp657
sg19
(lp658
sg21
I0
sba(iArchitecture
Entity
p659
(dp660
g11
(lp661
sg13
S'com.android.server.pm.UserManagerService$LocalService'
p662
sg15
(lp663
sg17
(lp664
sg19
(lp665
sg21
I0
sba(iArchitecture
Entity
p666
(dp667
g11
(lp668
sg13
S'com.android.server.pm.UserManagerService$LocalService$1'
p669
sg15
(lp670
sg17
(lp671
sg19
(lp672
sg21
I0
sba(iArchitecture
Entity
p673
(dp674
g11
(lp675
sg13
S'com.android.server.pm.UserManagerService$MainHandler'
p676
sg15
(lp677
sg17
(lp678
sg19
(lp679
sg21
I0
sba(iArchitecture
Entity
p680
(dp681
g11
(lp682
sg13
S'com.android.server.pm.UserManagerService$Shell'
p683
sg15
(lp684
sg17
(lp685
sg19
(lp686
sg21
I0
sba(iArchitecture
Entity
p687
(dp688
g11
(lp689
sg13
S'com.android.server.pm.UserManagerService$UserData'
p690
sg15
(lp691
sg17
(lp692
sg19
(lp693
sg21
I0
sbasg22
(lp694
g599
ag606
ag613
ag620
ag627
ag634
ag641
ag648
ag655
ag662
ag669
ag676
ag683
ag690
asg21
I0
sg24
S'1392'
p695
sba(iArchitecture
Cluster
p696
(dp697
g7
(lp698
(iArchitecture
Entity
p699
(dp700
g11
(lp701
sg13
S'com.android.server.pm.PreferredComponent'
p702
sg15
(lp703
sg17
(lp704
sg19
(lp705
sg21
I0
sba(iArchitecture
Entity
p706
(dp707
g11
(lp708
sg13
S'com.android.server.pm.PreferredComponent$Callbacks'
p709
sg15
(lp710
sg17
(lp711
sg19
(lp712
sg21
I0
sbasg22
(lp713
g702
ag709
asg21
I0
sg24
S'1397'
p714
sba(iArchitecture
Cluster
p715
(dp716
g7
(lp717
(iArchitecture
Entity
p718
(dp719
g11
(lp720
sg13
S'com.android.server.pm.OtaDexoptService'
p721
sg15
(lp722
sg17
(lp723
sg19
(lp724
sg21
I0
sba(iArchitecture
Entity
p725
(dp726
g11
(lp727
sg13
S'com.android.server.pm.OtaDexoptService$OTADexoptPackageDexOptimizer'
p728
sg15
(lp729
sg17
(lp730
sg19
(lp731
sg21
I0
sba(iArchitecture
Entity
p732
(dp733
g11
(lp734
sg13
S'com.android.server.pm.PackageInstallerService'
p735
sg15
(lp736
sg17
(lp737
sg19
(lp738
sg21
I0
sba(iArchitecture
Entity
p739
(dp740
g11
(lp741
sg13
S'com.android.server.pm.PackageInstallerService$1'
p742
sg15
(lp743
sg17
(lp744
sg19
(lp745
sg21
I0
sba(iArchitecture
Entity
p746
(dp747
g11
(lp748
sg13
S'com.android.server.pm.PackageInstallerService$2'
p749
sg15
(lp750
sg17
(lp751
sg19
(lp752
sg21
I0
sba(iArchitecture
Entity
p753
(dp754
g11
(lp755
sg13
S'com.android.server.pm.PackageInstallerService$Callbacks'
p756
sg15
(lp757
sg17
(lp758
sg19
(lp759
sg21
I0
sba(iArchitecture
Entity
p760
(dp761
g11
(lp762
sg13
S'com.android.server.pm.PackageInstallerService$InternalCallback'
p763
sg15
(lp764
sg17
(lp765
sg19
(lp766
sg21
I0
sba(iArchitecture
Entity
p767
(dp768
g11
(lp769
sg13
S'com.android.server.pm.PackageInstallerService$InternalCallback$1'
p770
sg15
(lp771
sg17
(lp772
sg19
(lp773
sg21
I0
sba(iArchitecture
Entity
p774
(dp775
g11
(lp776
sg13
S'com.android.server.pm.PackageInstallerService$PackageDeleteObserverAdapter'
p777
sg15
(lp778
sg17
(lp779
sg19
(lp780
sg21
I0
sba(iArchitecture
Entity
p781
(dp782
g11
(lp783
sg13
S'com.android.server.pm.PackageInstallerService$PackageInstallObserverAdapter'
p784
sg15
(lp785
sg17
(lp786
sg19
(lp787
sg21
I0
sba(iArchitecture
Entity
p788
(dp789
g11
(lp790
sg13
S'com.android.server.pm.ShortcutPackage'
p791
sg15
(lp792
sg17
(lp793
sg19
(lp794
sg21
I0
sba(iArchitecture
Entity
p795
(dp796
g11
(lp797
sg13
S'com.android.server.pm.ShortcutPackage$_void_refreshPinnedFlags_com_android_server_pm_ShortcutService_s_LambdaImpl0'
p798
sg15
(lp799
sg17
(lp800
sg19
(lp801
sg21
I0
sbasg22
(lp802
g721
ag728
ag735
ag742
ag749
ag756
ag763
ag770
ag777
ag784
ag791
ag798
asg21
I0
sg24
S'1401'
p803
sba(iArchitecture
Cluster
p804
(dp805
g7
(lp806
(iArchitecture
Entity
p807
(dp808
g11
(lp809
sg13
S'com.android.server.pm.IntentFilterVerificationState'
p810
sg15
(lp811
sg17
(lp812
sg19
(lp813
sg21
I0
sbasg22
(lp814
g810
asg21
I0
sg24
S'193'
p815
sba(iArchitecture
Cluster
p816
(dp817
g7
(lp818
(iArchitecture
Entity
p819
(dp820
g11
(lp821
sg13
S'com.android.server.pm.ShortcutPackageItem'
p822
sg15
(lp823
sg17
(lp824
sg19
(lp825
sg21
I0
sbasg22
(lp826
g822
asg21
I0
sg24
S'22'
p827
sba(iArchitecture
Cluster
p828
(dp829
g7
(lp830
(iArchitecture
Entity
p831
(dp832
g11
(lp833
sg13
S'com.android.server.pm.SettingBase'
p834
sg15
(lp835
sg17
(lp836
sg19
(lp837
sg21
I0
sbasg22
(lp838
g834
asg21
I0
sg24
S'26'
p839
sba(iArchitecture
Cluster
p840
(dp841
g7
(lp842
(iArchitecture
Entity
p843
(dp844
g11
(lp845
sg13
S'com.android.server.pm.BasePermission'
p846
sg15
(lp847
sg17
(lp848
sg19
(lp849
sg21
I0
sbasg22
(lp850
g846
asg21
I0
sg24
S'30'
p851
sba(iArchitecture
Cluster
p852
(dp853
g7
(lp854
(iArchitecture
Entity
p855
(dp856
g11
(lp857
sg13
S'com.android.server.pm.SharedUserSetting'
p858
sg15
(lp859
sg17
(lp860
sg19
(lp861
sg21
I0
sbasg22
(lp862
g858
asg21
I0
sg24
S'378'
p863
sba(iArchitecture
Cluster
p864
(dp865
g7
(lp866
(iArchitecture
Entity
p867
(dp868
g11
(lp869
sg13
S'com.android.server.pm.OtaDexoptShellCommand'
p870
sg15
(lp871
sg17
(lp872
sg19
(lp873
sg21
I0
sbasg22
(lp874
g870
asg21
I0
sg24
S'392'
p875
sba(iArchitecture
Cluster
p876
(dp877
g7
(lp878
(iArchitecture
Entity
p879
(dp880
g11
(lp881
sg13
S'com.android.server.pm.PackageKeySetData'
p882
sg15
(lp883
sg17
(lp884
sg19
(lp885
sg21
I0
sbasg22
(lp886
g882
asg21
I0
sg24
S'425'
p887
sba(iArchitecture
Cluster
p888
(dp889
g7
(lp890
(iArchitecture
Entity
p891
(dp892
g11
(lp893
sg13
S'com.android.server.pm.ProcessLoggingHandler'
p894
sg15
(lp895
sg17
(lp896
sg19
(lp897
sg21
I0
sbasg22
(lp898
g894
asg21
I0
sg24
S'434'
p899
sba(iArchitecture
Cluster
p900
(dp901
g7
(lp902
(iArchitecture
Entity
p903
(dp904
g11
(lp905
sg13
S'com.android.server.pm.PackageManagerException'
p906
sg15
(lp907
sg17
(lp908
sg19
(lp909
sg21
I0
sbasg22
(lp910
g906
asg21
I0
sg24
S'436'
p911
sba(iArchitecture
Cluster
p912
(dp913
g7
(lp914
(iArchitecture
Entity
p915
(dp916
g11
(lp917
sg13
S'com.android.server.pm.InstructionSets'
p918
sg15
(lp919
sg17
(lp920
sg19
(lp921
sg21
I0
sbasg22
(lp922
g918
asg21
I0
sg24
S'442'
p923
sba(iArchitecture
Cluster
p924
(dp925
g7
(lp926
(iArchitecture
Entity
p927
(dp928
g11
(lp929
sg13
S'com.android.server.pm.PackageSettingBase'
p930
sg15
(lp931
sg17
(lp932
sg19
(lp933
sg21
I0
sbasg22
(lp934
g930
asg21
I0
sg24
S'477'
p935
sba(iArchitecture
Cluster
p936
(dp937
g7
(lp938
(iArchitecture
Entity
p939
(dp940
g11
(lp941
sg13
S'com.android.server.pm.ShortcutLauncher'
p942
sg15
(lp943
sg17
(lp944
sg19
(lp945
sg21
I0
sbasg22
(lp946
g942
asg21
I0
sg24
S'487'
p947
sba(iArchitecture
Cluster
p948
(dp949
g7
(lp950
(iArchitecture
Entity
p951
(dp952
g11
(lp953
sg13
S'com.android.server.pm.DefaultPermissionGrantPolicy'
p954
sg15
(lp955
sg17
(lp956
sg19
(lp957
sg21
I0
sbasg22
(lp958
g954
asg21
I0
sg24
S'83'
p959
sba(iArchitecture
Cluster
p960
(dp961
g7
(lp962
(iArchitecture
Entity
p963
(dp964
g11
(lp965
sg13
S'com.android.server.pm.PermissionsState'
p966
sg15
(lp967
sg17
(lp968
sg19
(lp969
sg21
I0
sba(iArchitecture
Entity
p970
(dp971
g11
(lp972
sg13
S'com.android.server.pm.PermissionsState$PermissionData'
p973
sg15
(lp974
sg17
(lp975
sg19
(lp976
sg21
I0
sba(iArchitecture
Entity
p977
(dp978
g11
(lp979
sg13
S'com.android.server.pm.PermissionsState$PermissionState'
p980
sg15
(lp981
sg17
(lp982
sg19
(lp983
sg21
I0
sbasg22
(lp984
g966
ag973
ag980
asg21
I0
sg24
S'968'
p985
sba(iArchitecture
Cluster
p986
(dp987
g7
(lp988
(iArchitecture
Entity
p989
(dp990
g11
(lp991
sg13
S'com.android.server.pm.Installer'
p992
sg15
(lp993
sg17
(lp994
sg19
(lp995
sg21
I0
sbasg22
(lp996
g992
asg21
I0
sg24
S'97'
p997
sba(iArchitecture
Cluster
p998
(dp999
g7
(lp1000
(iArchitecture
Entity
p1001
(dp1002
g11
(lp1003
sg13
S'com.android.server.pm.EphemeralResolverConnection'
p1004
sg15
(lp1005
sg17
(lp1006
sg19
(lp1007
sg21
I0
sba(iArchitecture
Entity
p1008
(dp1009
g11
(lp1010
sg13
S'com.android.server.pm.EphemeralResolverConnection$GetEphemeralResolveInfoCaller'
p1011
sg15
(lp1012
sg17
(lp1013
sg19
(lp1014
sg21
I0
sba(iArchitecture
Entity
p1015
(dp1016
g11
(lp1017
sg13
S'com.android.server.pm.EphemeralResolverConnection$GetEphemeralResolveInfoCaller$1'
p1018
sg15
(lp1019
sg17
(lp1020
sg19
(lp1021
sg21
I0
sba(iArchitecture
Entity
p1022
(dp1023
g11
(lp1024
sg13
S'com.android.server.pm.EphemeralResolverConnection$MyServiceConnection'
p1025
sg15
(lp1026
sg17
(lp1027
sg19
(lp1028
sg21
I0
sbasg22
(lp1029
g1004
ag1011
ag1018
ag1025
asg21
I0
sg24
S'985'
p1030
sbasg398
g399
sg22
(lp1031
sg401
I00
sg24
S'7.0.0_r1'
p1032
sba.