(lp0
(iArchitecture
Architecture
p1
(dp2
S'clusters'
p3
(lp4
(iArchitecture
Cluster
p5
(dp6
S'entities'
p7
(lp8
(iArchitecture
Entity
p9
(dp10
S'issue_ids'
p11
(lp12
sS'name'
p13
S'android.opengl.GLSurfaceView'
p14
sS'descs'
p15
(lp16
sS'labels'
p17
(lp18
sS'titles'
p19
(lp20
sS'change'
p21
I0
sba(iArchitecture
Entity
p22
(dp23
g11
(lp24
sg13
S'android.opengl.GLSurfaceView$BaseConfigChooser'
p25
sg15
(lp26
sg17
(lp27
sg19
(lp28
sg21
I0
sba(iArchitecture
Entity
p29
(dp30
g11
(lp31
sg13
S'android.opengl.GLSurfaceView$ComponentSizeChooser'
p32
sg15
(lp33
sg17
(lp34
sg19
(lp35
sg21
I0
sba(iArchitecture
Entity
p36
(dp37
g11
(lp38
sg13
S'android.opengl.GLSurfaceView$DefaultContextFactory'
p39
sg15
(lp40
sg17
(lp41
sg19
(lp42
sg21
I0
sba(iArchitecture
Entity
p43
(dp44
g11
(lp45
sg13
S'android.opengl.GLSurfaceView$DefaultWindowSurfaceFactory'
p46
sg15
(lp47
sg17
(lp48
sg19
(lp49
sg21
I0
sba(iArchitecture
Entity
p50
(dp51
g11
(lp52
sg13
S'android.opengl.GLSurfaceView$EGLConfigChooser'
p53
sg15
(lp54
sg17
(lp55
sg19
(lp56
sg21
I0
sba(iArchitecture
Entity
p57
(dp58
g11
(lp59
sg13
S'android.opengl.GLSurfaceView$EGLContextFactory'
p60
sg15
(lp61
sg17
(lp62
sg19
(lp63
sg21
I0
sba(iArchitecture
Entity
p64
(dp65
g11
(lp66
sg13
S'android.opengl.GLSurfaceView$EGLWindowSurfaceFactory'
p67
sg15
(lp68
sg17
(lp69
sg19
(lp70
sg21
I0
sba(iArchitecture
Entity
p71
(dp72
g11
(lp73
sg13
S'android.opengl.GLSurfaceView$EglHelper'
p74
sg15
(lp75
sg17
(lp76
sg19
(lp77
sg21
I0
sba(iArchitecture
Entity
p78
(dp79
g11
(lp80
sg13
S'android.opengl.GLSurfaceView$GLThread'
p81
sg15
(lp82
sg17
(lp83
sg19
(lp84
sg21
I0
sba(iArchitecture
Entity
p85
(dp86
g11
(lp87
sg13
S'android.opengl.GLSurfaceView$GLThreadManager'
p88
sg15
(lp89
sg17
(lp90
sg19
(lp91
sg21
I0
sba(iArchitecture
Entity
p92
(dp93
g11
(lp94
sg13
S'android.opengl.GLSurfaceView$GLWrapper'
p95
sg15
(lp96
sg17
(lp97
sg19
(lp98
sg21
I0
sba(iArchitecture
Entity
p99
(dp100
g11
(lp101
sg13
S'android.opengl.GLSurfaceView$LogWriter'
p102
sg15
(lp103
sg17
(lp104
sg19
(lp105
sg21
I0
sba(iArchitecture
Entity
p106
(dp107
g11
(lp108
sg13
S'android.opengl.GLSurfaceView$Renderer'
p109
sg15
(lp110
sg17
(lp111
sg19
(lp112
sg21
I0
sba(iArchitecture
Entity
p113
(dp114
g11
(lp115
sg13
S'android.opengl.GLSurfaceView$SimpleEGLConfigChooser'
p116
sg15
(lp117
sg17
(lp118
sg19
(lp119
sg21
I0
sbasS'classes'
p120
(lp121
g14
ag25
ag32
ag39
ag46
ag53
ag60
ag67
ag74
ag81
ag88
ag95
ag102
ag109
ag116
asg21
I0
sS'label'
p122
S'1083'
p123
sba(iArchitecture
Cluster
p124
(dp125
g7
(lp126
(iArchitecture
Entity
p127
(dp128
g11
(lp129
sg13
S'android.opengl.ETC1'
p130
sg15
(lp131
sg17
(lp132
sg19
(lp133
sg21
I0
sbasg120
(lp134
g130
asg21
I0
sg122
S'113'
p135
sba(iArchitecture
Cluster
p136
(dp137
g7
(lp138
(iArchitecture
Entity
p139
(dp140
g11
(lp141
sg13
S'android.opengl.GLES20'
p142
sg15
(lp143
sg17
(lp144
sg19
(lp145
sg21
I0
sba(iArchitecture
Entity
p146
(dp147
g11
(lp148
sg13
S'android.opengl.GLES30'
p149
sg15
(lp150
sg17
(lp151
sg19
(lp152
sg21
I0
sba(iArchitecture
Entity
p153
(dp154
g11
(lp155
sg13
S'android.opengl.GLES31'
p156
sg15
(lp157
sg17
(lp158
sg19
(lp159
sg21
I0
sbasg120
(lp160
g142
ag149
ag156
asg21
I0
sg122
S'1139'
p161
sba(iArchitecture
Cluster
p162
(dp163
g7
(lp164
(iArchitecture
Entity
p165
(dp166
g11
(lp167
sg13
S'android.opengl.EGL14'
p168
sg15
(lp169
sg17
(lp170
sg19
(lp171
sg21
I0
sba(iArchitecture
Entity
p172
(dp173
g11
(lp174
sg13
S'android.opengl.EGLLogWrapper'
p175
sg15
(lp176
sg17
(lp177
sg19
(lp178
sg21
I0
sbasg120
(lp179
g168
ag175
asg21
I0
sg122
S'1204'
p180
sba(iArchitecture
Cluster
p181
(dp182
g7
(lp183
(iArchitecture
Entity
p184
(dp185
g11
(lp186
sg13
S'android.opengl.GLES10'
p187
sg15
(lp188
sg17
(lp189
sg19
(lp190
sg21
I0
sba(iArchitecture
Entity
p191
(dp192
g11
(lp193
sg13
S'android.opengl.GLES11'
p194
sg15
(lp195
sg17
(lp196
sg19
(lp197
sg21
I0
sba(iArchitecture
Entity
p198
(dp199
g11
(lp200
sg13
S'android.opengl.GLES11Ext'
p201
sg15
(lp202
sg17
(lp203
sg19
(lp204
sg21
I0
sbasg120
(lp205
g187
ag194
ag201
asg21
I0
sg122
S'1208'
p206
sba(iArchitecture
Cluster
p207
(dp208
g7
(lp209
(iArchitecture
Entity
p210
(dp211
g11
(lp212
sg13
S'android.opengl.GLWallpaperService'
p213
sg15
(lp214
sg17
(lp215
sg19
(lp216
sg21
I0
sbasg120
(lp217
g213
asg21
I0
sg122
S'1223'
p218
sba(iArchitecture
Cluster
p219
(dp220
g7
(lp221
(iArchitecture
Entity
p222
(dp223
g11
(lp224
sg13
S'android.opengl.EGLConfig'
p225
sg15
(lp226
sg17
(lp227
sg19
(lp228
sg21
I0
sbasg120
(lp229
g225
asg21
I0
sg122
S'1224'
p230
sba(iArchitecture
Cluster
p231
(dp232
g7
(lp233
(iArchitecture
Entity
p234
(dp235
g11
(lp236
sg13
S'android.opengl.GLES10Ext'
p237
sg15
(lp238
sg17
(lp239
sg19
(lp240
sg21
I0
sba(iArchitecture
Entity
p241
(dp242
g11
(lp243
sg13
S'android.opengl.GLException'
p244
sg15
(lp245
sg17
(lp246
sg19
(lp247
sg21
I0
sbasg120
(lp248
g237
ag244
asg21
I0
sg122
S'1246'
p249
sba(iArchitecture
Cluster
p250
(dp251
g7
(lp252
(iArchitecture
Entity
p253
(dp254
g11
(lp255
sg13
S'android.opengl.EGLObjectHandle'
p256
sg15
(lp257
sg17
(lp258
sg19
(lp259
sg21
I0
sbasg120
(lp260
g256
asg21
I0
sg122
S'1247'
p261
sba(iArchitecture
Cluster
p262
(dp263
g7
(lp264
(iArchitecture
Entity
p265
(dp266
g11
(lp267
sg13
S'android.opengl.EGLContext'
p268
sg15
(lp269
sg17
(lp270
sg19
(lp271
sg21
I0
sba(iArchitecture
Entity
p272
(dp273
g11
(lp274
sg13
S'android.opengl.EGLDisplay'
p275
sg15
(lp276
sg17
(lp277
sg19
(lp278
sg21
I0
sba(iArchitecture
Entity
p279
(dp280
g11
(lp281
sg13
S'android.opengl.EGLExt'
p282
sg15
(lp283
sg17
(lp284
sg19
(lp285
sg21
I0
sba(iArchitecture
Entity
p286
(dp287
g11
(lp288
sg13
S'android.opengl.EGLSurface'
p289
sg15
(lp290
sg17
(lp291
sg19
(lp292
sg21
I0
sbasg120
(lp293
g268
ag275
ag282
ag289
asg21
I0
sg122
S'1262'
p294
sba(iArchitecture
Cluster
p295
(dp296
g7
(lp297
(iArchitecture
Entity
p298
(dp299
g11
(lp300
sg13
S'android.opengl.Visibility'
p301
sg15
(lp302
sg17
(lp303
sg19
(lp304
sg21
I0
sbasg120
(lp305
g301
asg21
I0
sg122
S'137'
p306
sba(iArchitecture
Cluster
p307
(dp308
g7
(lp309
(iArchitecture
Entity
p310
(dp311
g11
(lp312
sg13
S'android.opengl.GLDebugHelper'
p313
sg15
(lp314
sg17
(lp315
sg19
(lp316
sg21
I0
sbasg120
(lp317
g313
asg21
I0
sg122
S'140'
p318
sba(iArchitecture
Cluster
p319
(dp320
g7
(lp321
(iArchitecture
Entity
p322
(dp323
g11
(lp324
sg13
S'android.opengl.Matrix'
p325
sg15
(lp326
sg17
(lp327
sg19
(lp328
sg21
I0
sbasg120
(lp329
g325
asg21
I0
sg122
S'156'
p330
sba(iArchitecture
Cluster
p331
(dp332
g7
(lp333
(iArchitecture
Entity
p334
(dp335
g11
(lp336
sg13
S'android.opengl.GLUtils'
p337
sg15
(lp338
sg17
(lp339
sg19
(lp340
sg21
I0
sbasg120
(lp341
g337
asg21
I0
sg122
S'215'
p342
sba(iArchitecture
Cluster
p343
(dp344
g7
(lp345
(iArchitecture
Entity
p346
(dp347
g11
(lp348
sg13
S'android.opengl.GLErrorWrapper'
p349
sg15
(lp350
sg17
(lp351
sg19
(lp352
sg21
I0
sbasg120
(lp353
g349
asg21
I0
sg122
S'226'
p354
sba(iArchitecture
Cluster
p355
(dp356
g7
(lp357
(iArchitecture
Entity
p358
(dp359
g11
(lp360
sg13
S'android.opengl.GLWrapperBase'
p361
sg15
(lp362
sg17
(lp363
sg19
(lp364
sg21
I0
sbasg120
(lp365
g361
asg21
I0
sg122
S'379'
p366
sba(iArchitecture
Cluster
p367
(dp368
g7
(lp369
(iArchitecture
Entity
p370
(dp371
g11
(lp372
sg13
S'android.opengl.GLLogWrapper'
p373
sg15
(lp374
sg17
(lp375
sg19
(lp376
sg21
I0
sba(iArchitecture
Entity
p377
(dp378
g11
(lp379
sg13
S'android.opengl.GLLogWrapper$PointerInfo'
p380
sg15
(lp381
sg17
(lp382
sg19
(lp383
sg21
I0
sbasg120
(lp384
g373
ag380
asg21
I0
sg122
S'575'
p385
sba(iArchitecture
Cluster
p386
(dp387
g7
(lp388
(iArchitecture
Entity
p389
(dp390
g11
(lp391
sg13
S'android.opengl.ETC1Util'
p392
sg15
(lp393
sg17
(lp394
sg19
(lp395
sg21
I0
sba(iArchitecture
Entity
p396
(dp397
g11
(lp398
sg13
S'android.opengl.ETC1Util$ETC1Texture'
p399
sg15
(lp400
sg17
(lp401
sg19
(lp402
sg21
I0
sbasg120
(lp403
g392
ag399
asg21
I0
sg122
S'596'
p404
sba(iArchitecture
Cluster
p405
(dp406
g7
(lp407
(iArchitecture
Entity
p408
(dp409
g11
(lp410
sg13
S'android.opengl.GLES31Ext'
p411
sg15
(lp412
sg17
(lp413
sg19
(lp414
sg21
I0
sba(iArchitecture
Entity
p415
(dp416
g11
(lp417
sg13
S'android.opengl.GLES31Ext$DebugProcKHR'
p418
sg15
(lp419
sg17
(lp420
sg19
(lp421
sg21
I0
sbasg120
(lp422
g411
ag418
asg21
I0
sg122
S'682'
p423
sba(iArchitecture
Cluster
p424
(dp425
g7
(lp426
(iArchitecture
Entity
p427
(dp428
g11
(lp429
sg13
S'android.opengl.GLU'
p430
sg15
(lp431
sg17
(lp432
sg19
(lp433
sg21
I0
sbasg120
(lp434
g430
asg21
I0
sg122
S'88'
p435
sbasS'target_sub'
p436
S'android.opengl'
p437
sg120
(lp438
sS'is_component_arch'
p439
I00
sg122
S'6.0.0_r1'
p440
sba(iArchitecture
Architecture
p441
(dp442
g3
(lp443
(iArchitecture
Cluster
p444
(dp445
g7
(lp446
(iArchitecture
Entity
p447
(dp448
g11
(lp449
sg13
S'android.opengl.GLSurfaceView'
p450
sg15
(lp451
sg17
(lp452
sg19
(lp453
sg21
I0
sba(iArchitecture
Entity
p454
(dp455
g11
(lp456
sg13
S'android.opengl.GLSurfaceView$BaseConfigChooser'
p457
sg15
(lp458
sg17
(lp459
sg19
(lp460
sg21
I0
sba(iArchitecture
Entity
p461
(dp462
g11
(lp463
sg13
S'android.opengl.GLSurfaceView$ComponentSizeChooser'
p464
sg15
(lp465
sg17
(lp466
sg19
(lp467
sg21
I0
sba(iArchitecture
Entity
p468
(dp469
g11
(lp470
sg13
S'android.opengl.GLSurfaceView$DefaultContextFactory'
p471
sg15
(lp472
sg17
(lp473
sg19
(lp474
sg21
I0
sba(iArchitecture
Entity
p475
(dp476
g11
(lp477
sg13
S'android.opengl.GLSurfaceView$DefaultWindowSurfaceFactory'
p478
sg15
(lp479
sg17
(lp480
sg19
(lp481
sg21
I0
sba(iArchitecture
Entity
p482
(dp483
g11
(lp484
sg13
S'android.opengl.GLSurfaceView$EGLConfigChooser'
p485
sg15
(lp486
sg17
(lp487
sg19
(lp488
sg21
I0
sba(iArchitecture
Entity
p489
(dp490
g11
(lp491
sg13
S'android.opengl.GLSurfaceView$EGLContextFactory'
p492
sg15
(lp493
sg17
(lp494
sg19
(lp495
sg21
I0
sba(iArchitecture
Entity
p496
(dp497
g11
(lp498
sg13
S'android.opengl.GLSurfaceView$EGLWindowSurfaceFactory'
p499
sg15
(lp500
sg17
(lp501
sg19
(lp502
sg21
I0
sba(iArchitecture
Entity
p503
(dp504
g11
(lp505
sg13
S'android.opengl.GLSurfaceView$EglHelper'
p506
sg15
(lp507
sg17
(lp508
sg19
(lp509
sg21
I0
sba(iArchitecture
Entity
p510
(dp511
g11
(lp512
sg13
S'android.opengl.GLSurfaceView$GLThread'
p513
sg15
(lp514
sg17
(lp515
sg19
(lp516
sg21
I0
sba(iArchitecture
Entity
p517
(dp518
g11
(lp519
sg13
S'android.opengl.GLSurfaceView$GLThreadManager'
p520
sg15
(lp521
sg17
(lp522
sg19
(lp523
sg21
I0
sba(iArchitecture
Entity
p524
(dp525
g11
(lp526
sg13
S'android.opengl.GLSurfaceView$GLWrapper'
p527
sg15
(lp528
sg17
(lp529
sg19
(lp530
sg21
I0
sba(iArchitecture
Entity
p531
(dp532
g11
(lp533
sg13
S'android.opengl.GLSurfaceView$LogWriter'
p534
sg15
(lp535
sg17
(lp536
sg19
(lp537
sg21
I0
sba(iArchitecture
Entity
p538
(dp539
g11
(lp540
sg13
S'android.opengl.GLSurfaceView$Renderer'
p541
sg15
(lp542
sg17
(lp543
sg19
(lp544
sg21
I0
sba(iArchitecture
Entity
p545
(dp546
g11
(lp547
sg13
S'android.opengl.GLSurfaceView$SimpleEGLConfigChooser'
p548
sg15
(lp549
sg17
(lp550
sg19
(lp551
sg21
I0
sbasg120
(lp552
g450
ag457
ag464
ag471
ag478
ag485
ag492
ag499
ag506
ag513
ag520
ag527
ag534
ag541
ag548
asg21
I0
sg122
S'1215'
p553
sba(iArchitecture
Cluster
p554
(dp555
g7
(lp556
(iArchitecture
Entity
p557
(dp558
g11
(lp559
sg13
S'android.opengl.GLES31Ext'
p560
sg15
(lp561
sg17
(lp562
sg19
(lp563
sg21
I0
sba(iArchitecture
Entity
p564
(dp565
g11
(lp566
sg13
S'android.opengl.GLES31Ext$DebugProcKHR'
p567
sg15
(lp568
sg17
(lp569
sg19
(lp570
sg21
I0
sba(iArchitecture
Entity
p571
(dp572
g11
(lp573
sg13
S'android.opengl.GLES32'
p574
sg15
(lp575
sg17
(lp576
sg19
(lp577
sg21
I0
sba(iArchitecture
Entity
p578
(dp579
g11
(lp580
sg13
S'android.opengl.GLES32$DebugProc'
p581
sg15
(lp582
sg17
(lp583
sg19
(lp584
sg21
I0
sbasg120
(lp585
g560
ag567
ag574
ag581
asg21
I0
sg122
S'1262'
p586
sba(iArchitecture
Cluster
p587
(dp588
g7
(lp589
(iArchitecture
Entity
p590
(dp591
g11
(lp592
sg13
S'android.opengl.GLException'
p593
sg15
(lp594
sg17
(lp595
sg19
(lp596
sg21
I0
sbasg120
(lp597
g593
asg21
I0
sg122
S'1269'
p598
sba(iArchitecture
Cluster
p599
(dp600
g7
(lp601
(iArchitecture
Entity
p602
(dp603
g11
(lp604
sg13
S'android.opengl.GLES20'
p605
sg15
(lp606
sg17
(lp607
sg19
(lp608
sg21
I0
sba(iArchitecture
Entity
p609
(dp610
g11
(lp611
sg13
S'android.opengl.GLES30'
p612
sg15
(lp613
sg17
(lp614
sg19
(lp615
sg21
I0
sba(iArchitecture
Entity
p616
(dp617
g11
(lp618
sg13
S'android.opengl.GLES31'
p619
sg15
(lp620
sg17
(lp621
sg19
(lp622
sg21
I0
sbasg120
(lp623
g605
ag612
ag619
asg21
I0
sg122
S'1279'
p624
sba(iArchitecture
Cluster
p625
(dp626
g7
(lp627
(iArchitecture
Entity
p628
(dp629
g11
(lp630
sg13
S'android.opengl.ETC1'
p631
sg15
(lp632
sg17
(lp633
sg19
(lp634
sg21
I0
sbasg120
(lp635
g631
asg21
I0
sg122
S'128'
p636
sba(iArchitecture
Cluster
p637
(dp638
g7
(lp639
(iArchitecture
Entity
p640
(dp641
g11
(lp642
sg13
S'android.opengl.EGLContext'
p643
sg15
(lp644
sg17
(lp645
sg19
(lp646
sg21
I0
sba(iArchitecture
Entity
p647
(dp648
g11
(lp649
sg13
S'android.opengl.EGLDisplay'
p650
sg15
(lp651
sg17
(lp652
sg19
(lp653
sg21
I0
sba(iArchitecture
Entity
p654
(dp655
g11
(lp656
sg13
S'android.opengl.EGLExt'
p657
sg15
(lp658
sg17
(lp659
sg19
(lp660
sg21
I0
sba(iArchitecture
Entity
p661
(dp662
g11
(lp663
sg13
S'android.opengl.EGLSurface'
p664
sg15
(lp665
sg17
(lp666
sg19
(lp667
sg21
I0
sbasg120
(lp668
g643
ag650
ag657
ag664
asg21
I0
sg122
S'1319'
p669
sba(iArchitecture
Cluster
p670
(dp671
g7
(lp672
(iArchitecture
Entity
p673
(dp674
g11
(lp675
sg13
S'android.opengl.GLWallpaperService'
p676
sg15
(lp677
sg17
(lp678
sg19
(lp679
sg21
I0
sbasg120
(lp680
g676
asg21
I0
sg122
S'1330'
p681
sba(iArchitecture
Cluster
p682
(dp683
g7
(lp684
(iArchitecture
Entity
p685
(dp686
g11
(lp687
sg13
S'android.opengl.GLES10Ext'
p688
sg15
(lp689
sg17
(lp690
sg19
(lp691
sg21
I0
sbasg120
(lp692
g688
asg21
I0
sg122
S'1331'
p693
sba(iArchitecture
Cluster
p694
(dp695
g7
(lp696
(iArchitecture
Entity
p697
(dp698
g11
(lp699
sg13
S'android.opengl.EGL14'
p700
sg15
(lp701
sg17
(lp702
sg19
(lp703
sg21
I0
sba(iArchitecture
Entity
p704
(dp705
g11
(lp706
sg13
S'android.opengl.EGLLogWrapper'
p707
sg15
(lp708
sg17
(lp709
sg19
(lp710
sg21
I0
sbasg120
(lp711
g700
ag707
asg21
I0
sg122
S'1354'
p712
sba(iArchitecture
Cluster
p713
(dp714
g7
(lp715
(iArchitecture
Entity
p716
(dp717
g11
(lp718
sg13
S'android.opengl.GLES10'
p719
sg15
(lp720
sg17
(lp721
sg19
(lp722
sg21
I0
sba(iArchitecture
Entity
p723
(dp724
g11
(lp725
sg13
S'android.opengl.GLES11'
p726
sg15
(lp727
sg17
(lp728
sg19
(lp729
sg21
I0
sba(iArchitecture
Entity
p730
(dp731
g11
(lp732
sg13
S'android.opengl.GLES11Ext'
p733
sg15
(lp734
sg17
(lp735
sg19
(lp736
sg21
I0
sbasg120
(lp737
g719
ag726
ag733
asg21
I0
sg122
S'1358'
p738
sba(iArchitecture
Cluster
p739
(dp740
g7
(lp741
(iArchitecture
Entity
p742
(dp743
g11
(lp744
sg13
S'android.opengl.EGLConfig'
p745
sg15
(lp746
sg17
(lp747
sg19
(lp748
sg21
I0
sbasg120
(lp749
g745
asg21
I0
sg122
S'1384'
p750
sba(iArchitecture
Cluster
p751
(dp752
g7
(lp753
(iArchitecture
Entity
p754
(dp755
g11
(lp756
sg13
S'android.opengl.EGLObjectHandle'
p757
sg15
(lp758
sg17
(lp759
sg19
(lp760
sg21
I0
sbasg120
(lp761
g757
asg21
I0
sg122
S'1400'
p762
sba(iArchitecture
Cluster
p763
(dp764
g7
(lp765
(iArchitecture
Entity
p766
(dp767
g11
(lp768
sg13
S'android.opengl.Visibility'
p769
sg15
(lp770
sg17
(lp771
sg19
(lp772
sg21
I0
sbasg120
(lp773
g769
asg21
I0
sg122
S'153'
p774
sba(iArchitecture
Cluster
p775
(dp776
g7
(lp777
(iArchitecture
Entity
p778
(dp779
g11
(lp780
sg13
S'android.opengl.GLDebugHelper'
p781
sg15
(lp782
sg17
(lp783
sg19
(lp784
sg21
I0
sbasg120
(lp785
g781
asg21
I0
sg122
S'156'
p786
sba(iArchitecture
Cluster
p787
(dp788
g7
(lp789
(iArchitecture
Entity
p790
(dp791
g11
(lp792
sg13
S'android.opengl.Matrix'
p793
sg15
(lp794
sg17
(lp795
sg19
(lp796
sg21
I0
sbasg120
(lp797
g793
asg21
I0
sg122
S'172'
p798
sba(iArchitecture
Cluster
p799
(dp800
g7
(lp801
(iArchitecture
Entity
p802
(dp803
g11
(lp804
sg13
S'android.opengl.GLUtils'
p805
sg15
(lp806
sg17
(lp807
sg19
(lp808
sg21
I0
sbasg120
(lp809
g805
asg21
I0
sg122
S'238'
p810
sba(iArchitecture
Cluster
p811
(dp812
g7
(lp813
(iArchitecture
Entity
p814
(dp815
g11
(lp816
sg13
S'android.opengl.GLErrorWrapper'
p817
sg15
(lp818
sg17
(lp819
sg19
(lp820
sg21
I0
sbasg120
(lp821
g817
asg21
I0
sg122
S'249'
p822
sba(iArchitecture
Cluster
p823
(dp824
g7
(lp825
(iArchitecture
Entity
p826
(dp827
g11
(lp828
sg13
S'android.opengl.GLWrapperBase'
p829
sg15
(lp830
sg17
(lp831
sg19
(lp832
sg21
I0
sbasg120
(lp833
g829
asg21
I0
sg122
S'415'
p834
sba(iArchitecture
Cluster
p835
(dp836
g7
(lp837
(iArchitecture
Entity
p838
(dp839
g11
(lp840
sg13
S'android.opengl.GLLogWrapper'
p841
sg15
(lp842
sg17
(lp843
sg19
(lp844
sg21
I0
sba(iArchitecture
Entity
p845
(dp846
g11
(lp847
sg13
S'android.opengl.GLLogWrapper$PointerInfo'
p848
sg15
(lp849
sg17
(lp850
sg19
(lp851
sg21
I0
sbasg120
(lp852
g841
ag848
asg21
I0
sg122
S'656'
p853
sba(iArchitecture
Cluster
p854
(dp855
g7
(lp856
(iArchitecture
Entity
p857
(dp858
g11
(lp859
sg13
S'android.opengl.ETC1Util'
p860
sg15
(lp861
sg17
(lp862
sg19
(lp863
sg21
I0
sba(iArchitecture
Entity
p864
(dp865
g11
(lp866
sg13
S'android.opengl.ETC1Util$ETC1Texture'
p867
sg15
(lp868
sg17
(lp869
sg19
(lp870
sg21
I0
sbasg120
(lp871
g860
ag867
asg21
I0
sg122
S'680'
p872
sba(iArchitecture
Cluster
p873
(dp874
g7
(lp875
(iArchitecture
Entity
p876
(dp877
g11
(lp878
sg13
S'android.opengl.GLU'
p879
sg15
(lp880
sg17
(lp881
sg19
(lp882
sg21
I0
sbasg120
(lp883
g879
asg21
I0
sg122
S'99'
p884
sbasg436
g437
sg120
(lp885
sg439
I00
sg122
S'7.0.0_r1'
p886
sba.