(lp0
(iArchitecture
Architecture
p1
(dp2
S'clusters'
p3
(lp4
sS'target_sub'
p5
S'com.android.server.devicepolicy'
p6
sS'classes'
p7
(lp8
sS'is_component_arch'
p9
I00
sS'label'
p10
S'6.0.0_r1'
p11
sba(iArchitecture
Architecture
p12
(dp13
g3
(lp14
(iArchitecture
Cluster
p15
(dp16
S'entities'
p17
(lp18
(iArchitecture
Entity
p19
(dp20
S'issue_ids'
p21
(lp22
sS'name'
p23
S'com.android.server.devicepolicy.Owners'
p24
sS'descs'
p25
(lp26
sS'labels'
p27
(lp28
sS'titles'
p29
(lp30
sS'change'
p31
I0
sba(iArchitecture
Entity
p32
(dp33
g21
(lp34
sg23
S'com.android.server.devicepolicy.Owners$DeviceOwnerReadWriter'
p35
sg25
(lp36
sg27
(lp37
sg29
(lp38
sg31
I0
sba(iArchitecture
Entity
p39
(dp40
g21
(lp41
sg23
S'com.android.server.devicepolicy.Owners$FileReadWriter'
p42
sg25
(lp43
sg27
(lp44
sg29
(lp45
sg31
I0
sba(iArchitecture
Entity
p46
(dp47
g21
(lp48
sg23
S'com.android.server.devicepolicy.Owners$OwnerInfo'
p49
sg25
(lp50
sg27
(lp51
sg29
(lp52
sg31
I0
sba(iArchitecture
Entity
p53
(dp54
g21
(lp55
sg23
S'com.android.server.devicepolicy.Owners$ProfileOwnerReadWriter'
p56
sg25
(lp57
sg27
(lp58
sg29
(lp59
sg31
I0
sbasg7
(lp60
g24
ag35
ag42
ag49
ag56
asg31
I0
sg10
S'1063'
p61
sba(iArchitecture
Cluster
p62
(dp63
g17
(lp64
(iArchitecture
Entity
p65
(dp66
g21
(lp67
sg23
S'com.android.server.devicepolicy.RemoteBugreportUtils'
p68
sg25
(lp69
sg27
(lp70
sg29
(lp71
sg31
I0
sba(iArchitecture
Entity
p72
(dp73
g21
(lp74
sg23
S'com.android.server.devicepolicy.RemoteBugreportUtils$RemoteBugreportNotificationType'
p75
sg25
(lp76
sg27
(lp77
sg29
(lp78
sg31
I0
sbasg7
(lp79
g68
ag75
asg31
I0
sg10
S'545'
p80
sba(iArchitecture
Cluster
p81
(dp82
g17
(lp83
(iArchitecture
Entity
p84
(dp85
g21
(lp86
sg23
S'com.android.server.devicepolicy.SecurityLogMonitor'
p87
sg25
(lp88
sg27
(lp89
sg29
(lp90
sg31
I0
sbasg7
(lp91
g87
asg31
I0
sg10
S'88'
p92
sbasg5
g6
sg7
(lp93
sg9
I00
sg10
S'7.0.0_r1'
p94
sba.