(lp0
(iArchitecture
Architecture
p1
(dp2
S'clusters'
p3
(lp4
(iArchitecture
Cluster
p5
(dp6
S'entities'
p7
(lp8
(iArchitecture
Entity
p9
(dp10
S'issue_ids'
p11
(lp12
sS'name'
p13
S'android.print.PrinterDiscoverySession'
p14
sS'descs'
p15
(lp16
sS'labels'
p17
(lp18
sS'titles'
p19
(lp20
sS'change'
p21
I0
sba(iArchitecture
Entity
p22
(dp23
g11
(lp24
sg13
S'android.print.PrinterDiscoverySession$OnPrintersChangeListener'
p25
sg15
(lp26
sg17
(lp27
sg19
(lp28
sg21
I0
sba(iArchitecture
Entity
p29
(dp30
g11
(lp31
sg13
S'android.print.PrinterDiscoverySession$PrinterDiscoveryObserver'
p32
sg15
(lp33
sg17
(lp34
sg19
(lp35
sg21
I0
sba(iArchitecture
Entity
p36
(dp37
g11
(lp38
sg13
S'android.print.PrinterDiscoverySession$SessionHandler'
p39
sg15
(lp40
sg17
(lp41
sg19
(lp42
sg21
I0
sba(iArchitecture
Entity
p43
(dp44
g11
(lp45
sg13
S'android.printservice.PrinterDiscoverySession'
p46
sg15
(lp47
sg17
(lp48
sg19
(lp49
sg21
I0
sbasS'classes'
p50
(lp51
g14
ag25
ag32
ag39
ag46
asg21
I0
sS'label'
p52
S'1146'
p53
sba(iArchitecture
Cluster
p54
(dp55
g7
(lp56
(iArchitecture
Entity
p57
(dp58
g11
(lp59
sg13
S'android.print.PrintJobId'
p60
sg15
(lp61
sg17
(lp62
sg19
(lp63
sg21
I0
sba(iArchitecture
Entity
p64
(dp65
g11
(lp66
sg13
S'android.print.PrintJobId$1'
p67
sg15
(lp68
sg17
(lp69
sg19
(lp70
sg21
I0
sba(iArchitecture
Entity
p71
(dp72
g11
(lp73
sg13
S'android.print.PrinterId'
p74
sg15
(lp75
sg17
(lp76
sg19
(lp77
sg21
I0
sba(iArchitecture
Entity
p78
(dp79
g11
(lp80
sg13
S'android.print.PrinterId$1'
p81
sg15
(lp82
sg17
(lp83
sg19
(lp84
sg21
I0
sba(iArchitecture
Entity
p85
(dp86
g11
(lp87
sg13
S'android.printservice.PrintDocument'
p88
sg15
(lp89
sg17
(lp90
sg19
(lp91
sg21
I0
sbasg50
(lp92
g60
ag67
ag74
ag81
ag88
asg21
I0
sg52
S'1223'
p93
sba(iArchitecture
Cluster
p94
(dp95
g7
(lp96
(iArchitecture
Entity
p97
(dp98
g11
(lp99
sg13
S'android.print.PrintManager'
p100
sg15
(lp101
sg17
(lp102
sg19
(lp103
sg21
I0
sba(iArchitecture
Entity
p104
(dp105
g11
(lp106
sg13
S'android.print.PrintManager$1'
p107
sg15
(lp108
sg17
(lp109
sg19
(lp110
sg21
I0
sba(iArchitecture
Entity
p111
(dp112
g11
(lp113
sg13
S'android.print.PrintManager$PrintDocumentAdapterDelegate'
p114
sg15
(lp115
sg17
(lp116
sg19
(lp117
sg21
I0
sba(iArchitecture
Entity
p118
(dp119
g11
(lp120
sg13
S'android.print.PrintManager$PrintDocumentAdapterDelegate$DestroyableCallback'
p121
sg15
(lp122
sg17
(lp123
sg19
(lp124
sg21
I0
sba(iArchitecture
Entity
p125
(dp126
g11
(lp127
sg13
S'android.print.PrintManager$PrintDocumentAdapterDelegate$MyHandler'
p128
sg15
(lp129
sg17
(lp130
sg19
(lp131
sg21
I0
sba(iArchitecture
Entity
p132
(dp133
g11
(lp134
sg13
S'android.print.PrintManager$PrintDocumentAdapterDelegate$MyLayoutResultCallback'
p135
sg15
(lp136
sg17
(lp137
sg19
(lp138
sg21
I0
sba(iArchitecture
Entity
p139
(dp140
g11
(lp141
sg13
S'android.print.PrintManager$PrintDocumentAdapterDelegate$MyWriteResultCallback'
p142
sg15
(lp143
sg17
(lp144
sg19
(lp145
sg21
I0
sba(iArchitecture
Entity
p146
(dp147
g11
(lp148
sg13
S'android.print.PrintManager$PrintJobStateChangeListener'
p149
sg15
(lp150
sg17
(lp151
sg19
(lp152
sg21
I0
sba(iArchitecture
Entity
p153
(dp154
g11
(lp155
sg13
S'android.print.PrintManager$PrintJobStateChangeListenerWrapper'
p156
sg15
(lp157
sg17
(lp158
sg19
(lp159
sg21
I0
sba(iArchitecture
Entity
p160
(dp161
g11
(lp162
sg13
S'android.printservice.PrintService'
p163
sg15
(lp164
sg17
(lp165
sg19
(lp166
sg21
I0
sba(iArchitecture
Entity
p167
(dp168
g11
(lp169
sg13
S'android.printservice.PrintService$1'
p170
sg15
(lp171
sg17
(lp172
sg19
(lp173
sg21
I0
sba(iArchitecture
Entity
p174
(dp175
g11
(lp176
sg13
S'android.printservice.PrintService$ServiceHandler'
p177
sg15
(lp178
sg17
(lp179
sg19
(lp180
sg21
I0
sbasg50
(lp181
g100
ag107
ag114
ag121
ag128
ag135
ag142
ag149
ag156
ag163
ag170
ag177
asg21
I0
sg52
S'1232'
p182
sba(iArchitecture
Cluster
p183
(dp184
g7
(lp185
(iArchitecture
Entity
p186
(dp187
g11
(lp188
sg13
S'android.print.PageRange'
p189
sg15
(lp190
sg17
(lp191
sg19
(lp192
sg21
I0
sba(iArchitecture
Entity
p193
(dp194
g11
(lp195
sg13
S'android.print.PageRange$1'
p196
sg15
(lp197
sg17
(lp198
sg19
(lp199
sg21
I0
sbasg50
(lp200
g189
ag196
asg21
I0
sg52
S'1237'
p201
sba(iArchitecture
Cluster
p202
(dp203
g7
(lp204
(iArchitecture
Entity
p205
(dp206
g11
(lp207
sg13
S'android.print.PrintFileDocumentAdapter'
p208
sg15
(lp209
sg17
(lp210
sg19
(lp211
sg21
I0
sba(iArchitecture
Entity
p212
(dp213
g11
(lp214
sg13
S'android.print.PrintFileDocumentAdapter$WriteFileAsyncTask'
p215
sg15
(lp216
sg17
(lp217
sg19
(lp218
sg21
I0
sba(iArchitecture
Entity
p219
(dp220
g11
(lp221
sg13
S'android.print.PrintFileDocumentAdapter$WriteFileAsyncTask$1'
p222
sg15
(lp223
sg17
(lp224
sg19
(lp225
sg21
I0
sbasg50
(lp226
g208
ag215
ag222
asg21
I0
sg52
S'1246'
p227
sba(iArchitecture
Cluster
p228
(dp229
g7
(lp230
(iArchitecture
Entity
p231
(dp232
g11
(lp233
sg13
S'android.print.PrintDocumentAdapter'
p234
sg15
(lp235
sg17
(lp236
sg19
(lp237
sg21
I0
sba(iArchitecture
Entity
p238
(dp239
g11
(lp240
sg13
S'android.print.PrintDocumentAdapter$LayoutResultCallback'
p241
sg15
(lp242
sg17
(lp243
sg19
(lp244
sg21
I0
sba(iArchitecture
Entity
p245
(dp246
g11
(lp247
sg13
S'android.print.PrintDocumentAdapter$WriteResultCallback'
p248
sg15
(lp249
sg17
(lp250
sg19
(lp251
sg21
I0
sbasg50
(lp252
g234
ag241
ag248
asg21
I0
sg52
S'1261'
p253
sba(iArchitecture
Cluster
p254
(dp255
g7
(lp256
(iArchitecture
Entity
p257
(dp258
g11
(lp259
sg13
S'android.print.pdf.PrintedPdfDocument'
p260
sg15
(lp261
sg17
(lp262
sg19
(lp263
sg21
I0
sbasg50
(lp264
g260
asg21
I0
sg52
S'245'
p265
sba(iArchitecture
Cluster
p266
(dp267
g7
(lp268
(iArchitecture
Entity
p269
(dp270
g11
(lp271
sg13
S'android.printservice.PrintServiceInfo'
p272
sg15
(lp273
sg17
(lp274
sg19
(lp275
sg21
I0
sba(iArchitecture
Entity
p276
(dp277
g11
(lp278
sg13
S'android.printservice.PrintServiceInfo$1'
p279
sg15
(lp280
sg17
(lp281
sg19
(lp282
sg21
I0
sbasg50
(lp283
g272
ag279
asg21
I0
sg52
S'539'
p284
sba(iArchitecture
Cluster
p285
(dp286
g7
(lp287
(iArchitecture
Entity
p288
(dp289
g11
(lp290
sg13
S'android.printservice.PrintJob'
p291
sg15
(lp292
sg17
(lp293
sg19
(lp294
sg21
I0
sbasg50
(lp295
g291
asg21
I0
sg52
S'66'
p296
sba(iArchitecture
Cluster
p297
(dp298
g7
(lp299
(iArchitecture
Entity
p300
(dp301
g11
(lp302
sg13
S'android.print.PrinterCapabilitiesInfo'
p303
sg15
(lp304
sg17
(lp305
sg19
(lp306
sg21
I0
sba(iArchitecture
Entity
p307
(dp308
g11
(lp309
sg13
S'android.print.PrinterCapabilitiesInfo$1'
p310
sg15
(lp311
sg17
(lp312
sg19
(lp313
sg21
I0
sba(iArchitecture
Entity
p314
(dp315
g11
(lp316
sg13
S'android.print.PrinterCapabilitiesInfo$Builder'
p317
sg15
(lp318
sg17
(lp319
sg19
(lp320
sg21
I0
sbasg50
(lp321
g303
ag310
ag317
asg21
I0
sg52
S'755'
p322
sba(iArchitecture
Cluster
p323
(dp324
g7
(lp325
(iArchitecture
Entity
p326
(dp327
g11
(lp328
sg13
S'android.print.PrintDocumentInfo'
p329
sg15
(lp330
sg17
(lp331
sg19
(lp332
sg21
I0
sba(iArchitecture
Entity
p333
(dp334
g11
(lp335
sg13
S'android.print.PrintDocumentInfo$1'
p336
sg15
(lp337
sg17
(lp338
sg19
(lp339
sg21
I0
sba(iArchitecture
Entity
p340
(dp341
g11
(lp342
sg13
S'android.print.PrintDocumentInfo$Builder'
p343
sg15
(lp344
sg17
(lp345
sg19
(lp346
sg21
I0
sbasg50
(lp347
g329
ag336
ag343
asg21
I0
sg52
S'766'
p348
sba(iArchitecture
Cluster
p349
(dp350
g7
(lp351
(iArchitecture
Entity
p352
(dp353
g11
(lp354
sg13
S'android.print.PrinterInfo'
p355
sg15
(lp356
sg17
(lp357
sg19
(lp358
sg21
I0
sba(iArchitecture
Entity
p359
(dp360
g11
(lp361
sg13
S'android.print.PrinterInfo$1'
p362
sg15
(lp363
sg17
(lp364
sg19
(lp365
sg21
I0
sba(iArchitecture
Entity
p366
(dp367
g11
(lp368
sg13
S'android.print.PrinterInfo$Builder'
p369
sg15
(lp370
sg17
(lp371
sg19
(lp372
sg21
I0
sbasg50
(lp373
g355
ag362
ag369
asg21
I0
sg52
S'822'
p374
sba(iArchitecture
Cluster
p375
(dp376
g7
(lp377
(iArchitecture
Entity
p378
(dp379
g11
(lp380
sg13
S'android.print.PrintJobInfo'
p381
sg15
(lp382
sg17
(lp383
sg19
(lp384
sg21
I0
sba(iArchitecture
Entity
p385
(dp386
g11
(lp387
sg13
S'android.print.PrintJobInfo$1'
p388
sg15
(lp389
sg17
(lp390
sg19
(lp391
sg21
I0
sba(iArchitecture
Entity
p392
(dp393
g11
(lp394
sg13
S'android.print.PrintJobInfo$Builder'
p395
sg15
(lp396
sg17
(lp397
sg19
(lp398
sg21
I0
sbasg50
(lp399
g381
ag388
ag395
asg21
I0
sg52
S'836'
p400
sba(iArchitecture
Cluster
p401
(dp402
g7
(lp403
(iArchitecture
Entity
p404
(dp405
g11
(lp406
sg13
S'android.print.PrintJob'
p407
sg15
(lp408
sg17
(lp409
sg19
(lp410
sg21
I0
sbasg50
(lp411
g407
asg21
I0
sg52
S'94'
p412
sbasS'target_sub'
p413
S'android.print'
p414
sg50
(lp415
sS'is_component_arch'
p416
I00
sg52
S'6.0.0_r1'
p417
sba(iArchitecture
Architecture
p418
(dp419
g3
(lp420
(iArchitecture
Cluster
p421
(dp422
g7
(lp423
(iArchitecture
Entity
p424
(dp425
g11
(lp426
sg13
S'android.print.PrintJob'
p427
sg15
(lp428
sg17
(lp429
sg19
(lp430
sg21
I0
sbasg50
(lp431
g427
asg21
I0
sg52
S'107'
p432
sba(iArchitecture
Cluster
p433
(dp434
g7
(lp435
(iArchitecture
Entity
p436
(dp437
g11
(lp438
sg13
S'android.print.PrinterCapabilitiesInfo'
p439
sg15
(lp440
sg17
(lp441
sg19
(lp442
sg21
I0
sba(iArchitecture
Entity
p443
(dp444
g11
(lp445
sg13
S'android.print.PrinterCapabilitiesInfo$1'
p446
sg15
(lp447
sg17
(lp448
sg19
(lp449
sg21
I0
sba(iArchitecture
Entity
p450
(dp451
g11
(lp452
sg13
S'android.print.PrinterCapabilitiesInfo$Builder'
p453
sg15
(lp454
sg17
(lp455
sg19
(lp456
sg21
I0
sba(iArchitecture
Entity
p457
(dp458
g11
(lp459
sg13
S'android.print.PrinterCapabilitiesInfo$Builder$_android_print_PrinterCapabilitiesInfo$Builder_setColorModes_int_colorModes_int_defaultColorMode_LambdaImpl0'
p460
sg15
(lp461
sg17
(lp462
sg19
(lp463
sg21
I0
sba(iArchitecture
Entity
p464
(dp465
g11
(lp466
sg13
S'android.print.PrinterCapabilitiesInfo$Builder$_android_print_PrinterCapabilitiesInfo$Builder_setDuplexModes_int_duplexModes_int_defaultDuplexMode_LambdaImpl0'
p467
sg15
(lp468
sg17
(lp469
sg19
(lp470
sg21
I0
sba(iArchitecture
Entity
p471
(dp472
g11
(lp473
sg13
S'android.print.PrinterCapabilitiesInfo$_void__init__android_os_Parcel_parcel_LambdaImpl0'
p474
sg15
(lp475
sg17
(lp476
sg19
(lp477
sg21
I0
sba(iArchitecture
Entity
p478
(dp479
g11
(lp480
sg13
S'android.print.PrinterCapabilitiesInfo$_void__init__android_os_Parcel_parcel_LambdaImpl1'
p481
sg15
(lp482
sg17
(lp483
sg19
(lp484
sg21
I0
sbasg50
(lp485
g439
ag446
ag453
ag460
ag467
ag474
ag481
asg21
I0
sg52
S'1134'
p486
sba(iArchitecture
Cluster
p487
(dp488
g7
(lp489
(iArchitecture
Entity
p490
(dp491
g11
(lp492
sg13
S'android.print.PrintServiceRecommendationsLoader'
p493
sg15
(lp494
sg17
(lp495
sg19
(lp496
sg21
I0
sba(iArchitecture
Entity
p497
(dp498
g11
(lp499
sg13
S'android.print.PrintServiceRecommendationsLoader$1'
p500
sg15
(lp501
sg17
(lp502
sg19
(lp503
sg21
I0
sba(iArchitecture
Entity
p504
(dp505
g11
(lp506
sg13
S'android.print.PrintServiceRecommendationsLoader$MyHandler'
p507
sg15
(lp508
sg17
(lp509
sg19
(lp510
sg21
I0
sba(iArchitecture
Entity
p511
(dp512
g11
(lp513
sg13
S'android.print.PrintServicesLoader'
p514
sg15
(lp515
sg17
(lp516
sg19
(lp517
sg21
I0
sba(iArchitecture
Entity
p518
(dp519
g11
(lp520
sg13
S'android.print.PrintServicesLoader$1'
p521
sg15
(lp522
sg17
(lp523
sg19
(lp524
sg21
I0
sba(iArchitecture
Entity
p525
(dp526
g11
(lp527
sg13
S'android.print.PrintServicesLoader$MyHandler'
p528
sg15
(lp529
sg17
(lp530
sg19
(lp531
sg21
I0
sbasg50
(lp532
g493
ag500
ag507
ag514
ag521
ag528
asg21
I0
sg52
S'1239'
p533
sba(iArchitecture
Cluster
p534
(dp535
g7
(lp536
(iArchitecture
Entity
p537
(dp538
g11
(lp539
sg13
S'android.print.PrinterDiscoverySession'
p540
sg15
(lp541
sg17
(lp542
sg19
(lp543
sg21
I0
sba(iArchitecture
Entity
p544
(dp545
g11
(lp546
sg13
S'android.print.PrinterDiscoverySession$OnPrintersChangeListener'
p547
sg15
(lp548
sg17
(lp549
sg19
(lp550
sg21
I0
sba(iArchitecture
Entity
p551
(dp552
g11
(lp553
sg13
S'android.print.PrinterDiscoverySession$PrinterDiscoveryObserver'
p554
sg15
(lp555
sg17
(lp556
sg19
(lp557
sg21
I0
sba(iArchitecture
Entity
p558
(dp559
g11
(lp560
sg13
S'android.print.PrinterDiscoverySession$SessionHandler'
p561
sg15
(lp562
sg17
(lp563
sg19
(lp564
sg21
I0
sba(iArchitecture
Entity
p565
(dp566
g11
(lp567
sg13
S'android.printservice.PrinterDiscoverySession'
p568
sg15
(lp569
sg17
(lp570
sg19
(lp571
sg21
I0
sbasg50
(lp572
g540
ag547
ag554
ag561
ag568
asg21
I0
sg52
S'1287'
p573
sba(iArchitecture
Cluster
p574
(dp575
g7
(lp576
(iArchitecture
Entity
p577
(dp578
g11
(lp579
sg13
S'android.print.PrintFileDocumentAdapter'
p580
sg15
(lp581
sg17
(lp582
sg19
(lp583
sg21
I0
sba(iArchitecture
Entity
p584
(dp585
g11
(lp586
sg13
S'android.print.PrintFileDocumentAdapter$WriteFileAsyncTask'
p587
sg15
(lp588
sg17
(lp589
sg19
(lp590
sg21
I0
sba(iArchitecture
Entity
p591
(dp592
g11
(lp593
sg13
S'android.print.PrintFileDocumentAdapter$WriteFileAsyncTask$1'
p594
sg15
(lp595
sg17
(lp596
sg19
(lp597
sg21
I0
sba(iArchitecture
Entity
p598
(dp599
g11
(lp600
sg13
S'android.print.PrintJobId'
p601
sg15
(lp602
sg17
(lp603
sg19
(lp604
sg21
I0
sba(iArchitecture
Entity
p605
(dp606
g11
(lp607
sg13
S'android.print.PrintJobId$1'
p608
sg15
(lp609
sg17
(lp610
sg19
(lp611
sg21
I0
sba(iArchitecture
Entity
p612
(dp613
g11
(lp614
sg13
S'android.print.PrinterId'
p615
sg15
(lp616
sg17
(lp617
sg19
(lp618
sg21
I0
sba(iArchitecture
Entity
p619
(dp620
g11
(lp621
sg13
S'android.print.PrinterId$1'
p622
sg15
(lp623
sg17
(lp624
sg19
(lp625
sg21
I0
sba(iArchitecture
Entity
p626
(dp627
g11
(lp628
sg13
S'android.printservice.CustomPrinterIconCallback'
p629
sg15
(lp630
sg17
(lp631
sg19
(lp632
sg21
I0
sba(iArchitecture
Entity
p633
(dp634
g11
(lp635
sg13
S'android.printservice.PrintDocument'
p636
sg15
(lp637
sg17
(lp638
sg19
(lp639
sg21
I0
sba(iArchitecture
Entity
p640
(dp641
g11
(lp642
sg13
S'android.printservice.recommendation.RecommendationService'
p643
sg15
(lp644
sg17
(lp645
sg19
(lp646
sg21
I0
sba(iArchitecture
Entity
p647
(dp648
g11
(lp649
sg13
S'android.printservice.recommendation.RecommendationService$1'
p650
sg15
(lp651
sg17
(lp652
sg19
(lp653
sg21
I0
sba(iArchitecture
Entity
p654
(dp655
g11
(lp656
sg13
S'android.printservice.recommendation.RecommendationService$MyHandler'
p657
sg15
(lp658
sg17
(lp659
sg19
(lp660
sg21
I0
sbasg50
(lp661
g580
ag587
ag594
ag601
ag608
ag615
ag622
ag629
ag636
ag643
ag650
ag657
asg21
I0
sg52
S'1330'
p662
sba(iArchitecture
Cluster
p663
(dp664
g7
(lp665
(iArchitecture
Entity
p666
(dp667
g11
(lp668
sg13
S'android.print.PageRange'
p669
sg15
(lp670
sg17
(lp671
sg19
(lp672
sg21
I0
sba(iArchitecture
Entity
p673
(dp674
g11
(lp675
sg13
S'android.print.PageRange$1'
p676
sg15
(lp677
sg17
(lp678
sg19
(lp679
sg21
I0
sba(iArchitecture
Entity
p680
(dp681
g11
(lp682
sg13
S'android.print.PrintDocumentAdapter'
p683
sg15
(lp684
sg17
(lp685
sg19
(lp686
sg21
I0
sba(iArchitecture
Entity
p687
(dp688
g11
(lp689
sg13
S'android.print.PrintDocumentAdapter$LayoutResultCallback'
p690
sg15
(lp691
sg17
(lp692
sg19
(lp693
sg21
I0
sba(iArchitecture
Entity
p694
(dp695
g11
(lp696
sg13
S'android.print.PrintDocumentAdapter$WriteResultCallback'
p697
sg15
(lp698
sg17
(lp699
sg19
(lp700
sg21
I0
sba(iArchitecture
Entity
p701
(dp702
g11
(lp703
sg13
S'android.print.PrintDocumentInfo'
p704
sg15
(lp705
sg17
(lp706
sg19
(lp707
sg21
I0
sba(iArchitecture
Entity
p708
(dp709
g11
(lp710
sg13
S'android.print.PrintDocumentInfo$1'
p711
sg15
(lp712
sg17
(lp713
sg19
(lp714
sg21
I0
sba(iArchitecture
Entity
p715
(dp716
g11
(lp717
sg13
S'android.print.PrintDocumentInfo$Builder'
p718
sg15
(lp719
sg17
(lp720
sg19
(lp721
sg21
I0
sba(iArchitecture
Entity
p722
(dp723
g11
(lp724
sg13
S'android.print.PrintManager'
p725
sg15
(lp726
sg17
(lp727
sg19
(lp728
sg21
I0
sba(iArchitecture
Entity
p729
(dp730
g11
(lp731
sg13
S'android.print.PrintManager$1'
p732
sg15
(lp733
sg17
(lp734
sg19
(lp735
sg21
I0
sba(iArchitecture
Entity
p736
(dp737
g11
(lp738
sg13
S'android.print.PrintManager$PrintDocumentAdapterDelegate'
p739
sg15
(lp740
sg17
(lp741
sg19
(lp742
sg21
I0
sba(iArchitecture
Entity
p743
(dp744
g11
(lp745
sg13
S'android.print.PrintManager$PrintDocumentAdapterDelegate$DestroyableCallback'
p746
sg15
(lp747
sg17
(lp748
sg19
(lp749
sg21
I0
sba(iArchitecture
Entity
p750
(dp751
g11
(lp752
sg13
S'android.print.PrintManager$PrintDocumentAdapterDelegate$MyHandler'
p753
sg15
(lp754
sg17
(lp755
sg19
(lp756
sg21
I0
sba(iArchitecture
Entity
p757
(dp758
g11
(lp759
sg13
S'android.print.PrintManager$PrintDocumentAdapterDelegate$MyLayoutResultCallback'
p760
sg15
(lp761
sg17
(lp762
sg19
(lp763
sg21
I0
sba(iArchitecture
Entity
p764
(dp765
g11
(lp766
sg13
S'android.print.PrintManager$PrintDocumentAdapterDelegate$MyWriteResultCallback'
p767
sg15
(lp768
sg17
(lp769
sg19
(lp770
sg21
I0
sba(iArchitecture
Entity
p771
(dp772
g11
(lp773
sg13
S'android.print.PrintManager$PrintJobStateChangeListener'
p774
sg15
(lp775
sg17
(lp776
sg19
(lp777
sg21
I0
sba(iArchitecture
Entity
p778
(dp779
g11
(lp780
sg13
S'android.print.PrintManager$PrintJobStateChangeListenerWrapper'
p781
sg15
(lp782
sg17
(lp783
sg19
(lp784
sg21
I0
sba(iArchitecture
Entity
p785
(dp786
g11
(lp787
sg13
S'android.print.PrintManager$PrintServiceRecommendationsChangeListener'
p788
sg15
(lp789
sg17
(lp790
sg19
(lp791
sg21
I0
sba(iArchitecture
Entity
p792
(dp793
g11
(lp794
sg13
S'android.print.PrintManager$PrintServiceRecommendationsChangeListenerWrapper'
p795
sg15
(lp796
sg17
(lp797
sg19
(lp798
sg21
I0
sba(iArchitecture
Entity
p799
(dp800
g11
(lp801
sg13
S'android.print.PrintManager$PrintServicesChangeListener'
p802
sg15
(lp803
sg17
(lp804
sg19
(lp805
sg21
I0
sba(iArchitecture
Entity
p806
(dp807
g11
(lp808
sg13
S'android.print.PrintManager$PrintServicesChangeListenerWrapper'
p809
sg15
(lp810
sg17
(lp811
sg19
(lp812
sg21
I0
sba(iArchitecture
Entity
p813
(dp814
g11
(lp815
sg13
S'android.printservice.PrintService'
p816
sg15
(lp817
sg17
(lp818
sg19
(lp819
sg21
I0
sba(iArchitecture
Entity
p820
(dp821
g11
(lp822
sg13
S'android.printservice.PrintService$1'
p823
sg15
(lp824
sg17
(lp825
sg19
(lp826
sg21
I0
sba(iArchitecture
Entity
p827
(dp828
g11
(lp829
sg13
S'android.printservice.PrintService$ServiceHandler'
p830
sg15
(lp831
sg17
(lp832
sg19
(lp833
sg21
I0
sbasg50
(lp834
g669
ag676
ag683
ag690
ag697
ag704
ag711
ag718
ag725
ag732
ag739
ag746
ag753
ag760
ag767
ag774
ag781
ag788
ag795
ag802
ag809
ag816
ag823
ag830
asg21
I0
sg52
S'1401'
p835
sba(iArchitecture
Cluster
p836
(dp837
g7
(lp838
(iArchitecture
Entity
p839
(dp840
g11
(lp841
sg13
S'android.print.pdf.PrintedPdfDocument'
p842
sg15
(lp843
sg17
(lp844
sg19
(lp845
sg21
I0
sbasg50
(lp846
g842
asg21
I0
sg52
S'274'
p847
sba(iArchitecture
Cluster
p848
(dp849
g7
(lp850
(iArchitecture
Entity
p851
(dp852
g11
(lp853
sg13
S'android.printservice.PrintServiceInfo'
p854
sg15
(lp855
sg17
(lp856
sg19
(lp857
sg21
I0
sba(iArchitecture
Entity
p858
(dp859
g11
(lp860
sg13
S'android.printservice.PrintServiceInfo$1'
p861
sg15
(lp862
sg17
(lp863
sg19
(lp864
sg21
I0
sbasg50
(lp865
g854
ag861
asg21
I0
sg52
S'603'
p866
sba(iArchitecture
Cluster
p867
(dp868
g7
(lp869
(iArchitecture
Entity
p870
(dp871
g11
(lp872
sg13
S'android.printservice.recommendation.RecommendationInfo'
p873
sg15
(lp874
sg17
(lp875
sg19
(lp876
sg21
I0
sba(iArchitecture
Entity
p877
(dp878
g11
(lp879
sg13
S'android.printservice.recommendation.RecommendationInfo$1'
p880
sg15
(lp881
sg17
(lp882
sg19
(lp883
sg21
I0
sbasg50
(lp884
g873
ag880
asg21
I0
sg52
S'664'
p885
sba(iArchitecture
Cluster
p886
(dp887
g7
(lp888
(iArchitecture
Entity
p889
(dp890
g11
(lp891
sg13
S'android.printservice.PrintJob'
p892
sg15
(lp893
sg17
(lp894
sg19
(lp895
sg21
I0
sbasg50
(lp896
g892
asg21
I0
sg52
S'73'
p897
sba(iArchitecture
Cluster
p898
(dp899
g7
(lp900
(iArchitecture
Entity
p901
(dp902
g11
(lp903
sg13
S'android.print.PrinterInfo'
p904
sg15
(lp905
sg17
(lp906
sg19
(lp907
sg21
I0
sba(iArchitecture
Entity
p908
(dp909
g11
(lp910
sg13
S'android.print.PrinterInfo$1'
p911
sg15
(lp912
sg17
(lp913
sg19
(lp914
sg21
I0
sba(iArchitecture
Entity
p915
(dp916
g11
(lp917
sg13
S'android.print.PrinterInfo$Builder'
p918
sg15
(lp919
sg17
(lp920
sg19
(lp921
sg21
I0
sbasg50
(lp922
g904
ag911
ag918
asg21
I0
sg52
S'922'
p923
sba(iArchitecture
Cluster
p924
(dp925
g7
(lp926
(iArchitecture
Entity
p927
(dp928
g11
(lp929
sg13
S'android.print.PrintJobInfo'
p930
sg15
(lp931
sg17
(lp932
sg19
(lp933
sg21
I0
sba(iArchitecture
Entity
p934
(dp935
g11
(lp936
sg13
S'android.print.PrintJobInfo$1'
p937
sg15
(lp938
sg17
(lp939
sg19
(lp940
sg21
I0
sba(iArchitecture
Entity
p941
(dp942
g11
(lp943
sg13
S'android.print.PrintJobInfo$Builder'
p944
sg15
(lp945
sg17
(lp946
sg19
(lp947
sg21
I0
sbasg50
(lp948
g930
ag937
ag944
asg21
I0
sg52
S'936'
p949
sbasg413
g414
sg50
(lp950
sg416
I00
sg52
S'7.0.0_r1'
p951
sba.