(lp0
(iArchitecture
Architecture
p1
(dp2
S'clusters'
p3
(lp4
(iArchitecture
Cluster
p5
(dp6
S'entities'
p7
(lp8
(iArchitecture
Entity
p9
(dp10
S'issue_ids'
p11
(lp12
sS'name'
p13
S'android.printservice.PrinterDiscoverySession'
p14
sS'descs'
p15
(lp16
sS'labels'
p17
(lp18
sS'titles'
p19
(lp20
sS'change'
p21
I0
sbasS'classes'
p22
(lp23
g14
asg21
I0
sS'label'
p24
S'1146'
p25
sba(iArchitecture
Cluster
p26
(dp27
g7
(lp28
(iArchitecture
Entity
p29
(dp30
g11
(lp31
sg13
S'android.printservice.PrintDocument'
p32
sg15
(lp33
sg17
(lp34
sg19
(lp35
sg21
I0
sbasg22
(lp36
g32
asg21
I0
sg24
S'1223'
p37
sba(iArchitecture
Cluster
p38
(dp39
g7
(lp40
(iArchitecture
Entity
p41
(dp42
g11
(lp43
sg13
S'android.printservice.PrintService'
p44
sg15
(lp45
sg17
(lp46
sg19
(lp47
sg21
I0
sba(iArchitecture
Entity
p48
(dp49
g11
(lp50
sg13
S'android.printservice.PrintService$1'
p51
sg15
(lp52
sg17
(lp53
sg19
(lp54
sg21
I0
sba(iArchitecture
Entity
p55
(dp56
g11
(lp57
sg13
S'android.printservice.PrintService$ServiceHandler'
p58
sg15
(lp59
sg17
(lp60
sg19
(lp61
sg21
I0
sbasg22
(lp62
g44
ag51
ag58
asg21
I0
sg24
S'1232'
p63
sba(iArchitecture
Cluster
p64
(dp65
g7
(lp66
(iArchitecture
Entity
p67
(dp68
g11
(lp69
sg13
S'android.printservice.PrintServiceInfo'
p70
sg15
(lp71
sg17
(lp72
sg19
(lp73
sg21
I0
sba(iArchitecture
Entity
p74
(dp75
g11
(lp76
sg13
S'android.printservice.PrintServiceInfo$1'
p77
sg15
(lp78
sg17
(lp79
sg19
(lp80
sg21
I0
sbasg22
(lp81
g70
ag77
asg21
I0
sg24
S'539'
p82
sba(iArchitecture
Cluster
p83
(dp84
g7
(lp85
(iArchitecture
Entity
p86
(dp87
g11
(lp88
sg13
S'android.printservice.PrintJob'
p89
sg15
(lp90
sg17
(lp91
sg19
(lp92
sg21
I0
sbasg22
(lp93
g89
asg21
I0
sg24
S'66'
p94
sbasS'target_sub'
p95
S'android.printservice'
p96
sg22
(lp97
sS'is_component_arch'
p98
I00
sg24
S'6.0.0_r1'
p99
sba(iArchitecture
Architecture
p100
(dp101
g3
(lp102
(iArchitecture
Cluster
p103
(dp104
g7
(lp105
(iArchitecture
Entity
p106
(dp107
g11
(lp108
sg13
S'android.printservice.PrinterDiscoverySession'
p109
sg15
(lp110
sg17
(lp111
sg19
(lp112
sg21
I0
sbasg22
(lp113
g109
asg21
I0
sg24
S'1287'
p114
sba(iArchitecture
Cluster
p115
(dp116
g7
(lp117
(iArchitecture
Entity
p118
(dp119
g11
(lp120
sg13
S'android.printservice.CustomPrinterIconCallback'
p121
sg15
(lp122
sg17
(lp123
sg19
(lp124
sg21
I0
sba(iArchitecture
Entity
p125
(dp126
g11
(lp127
sg13
S'android.printservice.PrintDocument'
p128
sg15
(lp129
sg17
(lp130
sg19
(lp131
sg21
I0
sba(iArchitecture
Entity
p132
(dp133
g11
(lp134
sg13
S'android.printservice.recommendation.RecommendationService'
p135
sg15
(lp136
sg17
(lp137
sg19
(lp138
sg21
I0
sba(iArchitecture
Entity
p139
(dp140
g11
(lp141
sg13
S'android.printservice.recommendation.RecommendationService$1'
p142
sg15
(lp143
sg17
(lp144
sg19
(lp145
sg21
I0
sba(iArchitecture
Entity
p146
(dp147
g11
(lp148
sg13
S'android.printservice.recommendation.RecommendationService$MyHandler'
p149
sg15
(lp150
sg17
(lp151
sg19
(lp152
sg21
I0
sbasg22
(lp153
g121
ag128
ag135
ag142
ag149
asg21
I0
sg24
S'1330'
p154
sba(iArchitecture
Cluster
p155
(dp156
g7
(lp157
(iArchitecture
Entity
p158
(dp159
g11
(lp160
sg13
S'android.printservice.PrintService'
p161
sg15
(lp162
sg17
(lp163
sg19
(lp164
sg21
I0
sba(iArchitecture
Entity
p165
(dp166
g11
(lp167
sg13
S'android.printservice.PrintService$1'
p168
sg15
(lp169
sg17
(lp170
sg19
(lp171
sg21
I0
sba(iArchitecture
Entity
p172
(dp173
g11
(lp174
sg13
S'android.printservice.PrintService$ServiceHandler'
p175
sg15
(lp176
sg17
(lp177
sg19
(lp178
sg21
I0
sbasg22
(lp179
g161
ag168
ag175
asg21
I0
sg24
S'1401'
p180
sba(iArchitecture
Cluster
p181
(dp182
g7
(lp183
(iArchitecture
Entity
p184
(dp185
g11
(lp186
sg13
S'android.printservice.PrintServiceInfo'
p187
sg15
(lp188
sg17
(lp189
sg19
(lp190
sg21
I0
sba(iArchitecture
Entity
p191
(dp192
g11
(lp193
sg13
S'android.printservice.PrintServiceInfo$1'
p194
sg15
(lp195
sg17
(lp196
sg19
(lp197
sg21
I0
sbasg22
(lp198
g187
ag194
asg21
I0
sg24
S'603'
p199
sba(iArchitecture
Cluster
p200
(dp201
g7
(lp202
(iArchitecture
Entity
p203
(dp204
g11
(lp205
sg13
S'android.printservice.recommendation.RecommendationInfo'
p206
sg15
(lp207
sg17
(lp208
sg19
(lp209
sg21
I0
sba(iArchitecture
Entity
p210
(dp211
g11
(lp212
sg13
S'android.printservice.recommendation.RecommendationInfo$1'
p213
sg15
(lp214
sg17
(lp215
sg19
(lp216
sg21
I0
sbasg22
(lp217
g206
ag213
asg21
I0
sg24
S'664'
p218
sba(iArchitecture
Cluster
p219
(dp220
g7
(lp221
(iArchitecture
Entity
p222
(dp223
g11
(lp224
sg13
S'android.printservice.PrintJob'
p225
sg15
(lp226
sg17
(lp227
sg19
(lp228
sg21
I0
sbasg22
(lp229
g225
asg21
I0
sg24
S'73'
p230
sbasg95
g96
sg22
(lp231
sg98
I00
sg24
S'7.0.0_r1'
p232
sba.