(lp0
(iArchitecture
Architecture
p1
(dp2
S'clusters'
p3
(lp4
(iArchitecture
Cluster
p5
(dp6
S'entities'
p7
(lp8
(iArchitecture
Entity
p9
(dp10
S'issue_ids'
p11
(lp12
sS'name'
p13
S'com.android.server.notification.NotificationUsageStats'
p14
sS'descs'
p15
(lp16
sS'labels'
p17
(lp18
sS'titles'
p19
(lp20
sS'change'
p21
I0
sba(iArchitecture
Entity
p22
(dp23
g11
(lp24
sg13
S'com.android.server.notification.NotificationUsageStats$1'
p25
sg15
(lp26
sg17
(lp27
sg19
(lp28
sg21
I0
sba(iArchitecture
Entity
p29
(dp30
g11
(lp31
sg13
S'com.android.server.notification.NotificationUsageStats$Aggregate'
p32
sg15
(lp33
sg17
(lp34
sg19
(lp35
sg21
I0
sba(iArchitecture
Entity
p36
(dp37
g11
(lp38
sg13
S'com.android.server.notification.NotificationUsageStats$AggregatedStats'
p39
sg15
(lp40
sg17
(lp41
sg19
(lp42
sg21
I0
sba(iArchitecture
Entity
p43
(dp44
g11
(lp45
sg13
S'com.android.server.notification.NotificationUsageStats$SQLiteLog'
p46
sg15
(lp47
sg17
(lp48
sg19
(lp49
sg21
I0
sba(iArchitecture
Entity
p50
(dp51
g11
(lp52
sg13
S'com.android.server.notification.NotificationUsageStats$SQLiteLog$1'
p53
sg15
(lp54
sg17
(lp55
sg19
(lp56
sg21
I0
sba(iArchitecture
Entity
p57
(dp58
g11
(lp59
sg13
S'com.android.server.notification.NotificationUsageStats$SQLiteLog$2'
p60
sg15
(lp61
sg17
(lp62
sg19
(lp63
sg21
I0
sba(iArchitecture
Entity
p64
(dp65
g11
(lp66
sg13
S'com.android.server.notification.NotificationUsageStats$SingleNotificationStats'
p67
sg15
(lp68
sg17
(lp69
sg19
(lp70
sg21
I0
sbasS'classes'
p71
(lp72
g14
ag25
ag32
ag39
ag46
ag53
ag60
ag67
asg21
I0
sS'label'
p73
S'1046'
p74
sba(iArchitecture
Cluster
p75
(dp76
g7
(lp77
(iArchitecture
Entity
p78
(dp79
g11
(lp80
sg13
S'com.android.server.notification.CountdownConditionProvider'
p81
sg15
(lp82
sg17
(lp83
sg19
(lp84
sg21
I0
sba(iArchitecture
Entity
p85
(dp86
g11
(lp87
sg13
S'com.android.server.notification.CountdownConditionProvider$Receiver'
p88
sg15
(lp89
sg17
(lp90
sg19
(lp91
sg21
I0
sba(iArchitecture
Entity
p92
(dp93
g11
(lp94
sg13
S'com.android.server.notification.EventConditionProvider'
p95
sg15
(lp96
sg17
(lp97
sg19
(lp98
sg21
I0
sba(iArchitecture
Entity
p99
(dp100
g11
(lp101
sg13
S'com.android.server.notification.EventConditionProvider$1'
p102
sg15
(lp103
sg17
(lp104
sg19
(lp105
sg21
I0
sba(iArchitecture
Entity
p106
(dp107
g11
(lp108
sg13
S'com.android.server.notification.EventConditionProvider$2'
p109
sg15
(lp110
sg17
(lp111
sg19
(lp112
sg21
I0
sba(iArchitecture
Entity
p113
(dp114
g11
(lp115
sg13
S'com.android.server.notification.EventConditionProvider$3'
p116
sg15
(lp117
sg17
(lp118
sg19
(lp119
sg21
I0
sba(iArchitecture
Entity
p120
(dp121
g11
(lp122
sg13
S'com.android.server.notification.EventConditionProvider$4'
p123
sg15
(lp124
sg17
(lp125
sg19
(lp126
sg21
I0
sba(iArchitecture
Entity
p127
(dp128
g11
(lp129
sg13
S'com.android.server.notification.ScheduleConditionProvider'
p130
sg15
(lp131
sg17
(lp132
sg19
(lp133
sg21
I0
sba(iArchitecture
Entity
p134
(dp135
g11
(lp136
sg13
S'com.android.server.notification.ScheduleConditionProvider$1'
p137
sg15
(lp138
sg17
(lp139
sg19
(lp140
sg21
I0
sbasg71
(lp141
g81
ag88
ag95
ag102
ag109
ag116
ag123
ag130
ag137
asg21
I0
sg73
S'1162'
p142
sba(iArchitecture
Cluster
p143
(dp144
g7
(lp145
(iArchitecture
Entity
p146
(dp147
g11
(lp148
sg13
S'com.android.server.notification.NotificationManagerInternal'
p149
sg15
(lp150
sg17
(lp151
sg19
(lp152
sg21
I0
sba(iArchitecture
Entity
p153
(dp154
g11
(lp155
sg13
S'com.android.server.notification.PropConfig'
p156
sg15
(lp157
sg17
(lp158
sg19
(lp159
sg21
I0
sbasg71
(lp160
g149
ag156
asg21
I0
sg73
S'1223'
p161
sba(iArchitecture
Cluster
p162
(dp163
g7
(lp164
(iArchitecture
Entity
p165
(dp166
g11
(lp167
sg13
S'com.android.server.notification.ManagedServices'
p168
sg15
(lp169
sg17
(lp170
sg19
(lp171
sg21
I0
sba(iArchitecture
Entity
p172
(dp173
g11
(lp174
sg13
S'com.android.server.notification.ManagedServices$1'
p175
sg15
(lp176
sg17
(lp177
sg19
(lp178
sg21
I0
sba(iArchitecture
Entity
p179
(dp180
g11
(lp181
sg13
S'com.android.server.notification.ManagedServices$Config'
p182
sg15
(lp183
sg17
(lp184
sg19
(lp185
sg21
I0
sba(iArchitecture
Entity
p186
(dp187
g11
(lp188
sg13
S'com.android.server.notification.ManagedServices$ManagedServiceInfo'
p189
sg15
(lp190
sg17
(lp191
sg19
(lp192
sg21
I0
sba(iArchitecture
Entity
p193
(dp194
g11
(lp195
sg13
S'com.android.server.notification.ManagedServices$SettingRestoredReceiver'
p196
sg15
(lp197
sg17
(lp198
sg19
(lp199
sg21
I0
sba(iArchitecture
Entity
p200
(dp201
g11
(lp202
sg13
S'com.android.server.notification.ManagedServices$SettingsObserver'
p203
sg15
(lp204
sg17
(lp205
sg19
(lp206
sg21
I0
sba(iArchitecture
Entity
p207
(dp208
g11
(lp209
sg13
S'com.android.server.notification.ManagedServices$UserProfiles'
p210
sg15
(lp211
sg17
(lp212
sg19
(lp213
sg21
I0
sba(iArchitecture
Entity
p214
(dp215
g11
(lp216
sg13
S'com.android.server.notification.NotificationRecord'
p217
sg15
(lp218
sg17
(lp219
sg19
(lp220
sg21
I0
sbasg71
(lp221
g168
ag175
ag182
ag189
ag196
ag203
ag210
ag217
asg21
I0
sg73
S'1232'
p222
sba(iArchitecture
Cluster
p223
(dp224
g7
(lp225
(iArchitecture
Entity
p226
(dp227
g11
(lp228
sg13
S'com.android.server.notification.ConditionProviders'
p229
sg15
(lp230
sg17
(lp231
sg19
(lp232
sg21
I0
sba(iArchitecture
Entity
p233
(dp234
g11
(lp235
sg13
S'com.android.server.notification.ConditionProviders$Callback'
p236
sg15
(lp237
sg17
(lp238
sg19
(lp239
sg21
I0
sba(iArchitecture
Entity
p240
(dp241
g11
(lp242
sg13
S'com.android.server.notification.ConditionProviders$ConditionRecord'
p243
sg15
(lp244
sg17
(lp245
sg19
(lp246
sg21
I0
sbasg71
(lp247
g229
ag236
ag243
asg21
I0
sg73
S'1233'
p248
sba(iArchitecture
Cluster
p249
(dp250
g7
(lp251
(iArchitecture
Entity
p252
(dp253
g11
(lp254
sg13
S'com.android.server.notification.GlobalSortKeyComparator'
p255
sg15
(lp256
sg17
(lp257
sg19
(lp258
sg21
I0
sba(iArchitecture
Entity
p259
(dp260
g11
(lp261
sg13
S'com.android.server.notification.NotificationDelegate'
p262
sg15
(lp263
sg17
(lp264
sg19
(lp265
sg21
I0
sba(iArchitecture
Entity
p266
(dp267
g11
(lp268
sg13
S'com.android.server.notification.NotificationSignalExtractor'
p269
sg15
(lp270
sg17
(lp271
sg19
(lp272
sg21
I0
sba(iArchitecture
Entity
p273
(dp274
g11
(lp275
sg13
S'com.android.server.notification.RankingReconsideration'
p276
sg15
(lp277
sg17
(lp278
sg19
(lp279
sg21
I0
sbasg71
(lp280
g255
ag262
ag269
ag276
asg21
I0
sg73
S'1237'
p281
sba(iArchitecture
Cluster
p282
(dp283
g7
(lp284
(iArchitecture
Entity
p285
(dp286
g11
(lp287
sg13
S'com.android.server.notification.SystemConditionProviderService'
p288
sg15
(lp289
sg17
(lp290
sg19
(lp291
sg21
I0
sbasg71
(lp292
g288
asg21
I0
sg73
S'1246'
p293
sba(iArchitecture
Cluster
p294
(dp295
g7
(lp296
(iArchitecture
Entity
p297
(dp298
g11
(lp299
sg13
S'com.android.server.notification.RankingConfig'
p300
sg15
(lp301
sg17
(lp302
sg19
(lp303
sg21
I0
sbasg71
(lp304
g300
asg21
I0
sg73
S'1247'
p305
sba(iArchitecture
Cluster
p306
(dp307
g7
(lp308
(iArchitecture
Entity
p309
(dp310
g11
(lp311
sg13
S'com.android.server.notification.ZenModeConditions'
p312
sg15
(lp313
sg17
(lp314
sg19
(lp315
sg21
I0
sbasg71
(lp316
g312
asg21
I0
sg73
S'143'
p317
sba(iArchitecture
Cluster
p318
(dp319
g7
(lp320
(iArchitecture
Entity
p321
(dp322
g11
(lp323
sg13
S'com.android.server.notification.ZenLog'
p324
sg15
(lp325
sg17
(lp326
sg19
(lp327
sg21
I0
sbasg71
(lp328
g324
asg21
I0
sg73
S'171'
p329
sba(iArchitecture
Cluster
p330
(dp331
g7
(lp332
(iArchitecture
Entity
p333
(dp334
g11
(lp335
sg13
S'com.android.server.notification.NotificationComparator'
p336
sg15
(lp337
sg17
(lp338
sg19
(lp339
sg21
I0
sbasg71
(lp340
g336
asg21
I0
sg73
S'181'
p341
sba(iArchitecture
Cluster
p342
(dp343
g7
(lp344
(iArchitecture
Entity
p345
(dp346
g11
(lp347
sg13
S'com.android.server.notification.NotificationIntrusivenessExtractor'
p348
sg15
(lp349
sg17
(lp350
sg19
(lp351
sg21
I0
sba(iArchitecture
Entity
p352
(dp353
g11
(lp354
sg13
S'com.android.server.notification.NotificationIntrusivenessExtractor$1'
p355
sg15
(lp356
sg17
(lp357
sg19
(lp358
sg21
I0
sbasg71
(lp359
g348
ag355
asg21
I0
sg73
S'556'
p360
sba(iArchitecture
Cluster
p361
(dp362
g7
(lp363
(iArchitecture
Entity
p364
(dp365
g11
(lp366
sg13
S'com.android.server.notification.ZenModeFiltering'
p367
sg15
(lp368
sg17
(lp369
sg19
(lp370
sg21
I0
sba(iArchitecture
Entity
p371
(dp372
g11
(lp373
sg13
S'com.android.server.notification.ZenModeFiltering$RepeatCallers'
p374
sg15
(lp375
sg17
(lp376
sg19
(lp377
sg21
I0
sbasg71
(lp378
g367
ag374
asg21
I0
sg73
S'572'
p379
sba(iArchitecture
Cluster
p380
(dp381
g7
(lp382
(iArchitecture
Entity
p383
(dp384
g11
(lp385
sg13
S'com.android.server.notification.ScheduleCalendar'
p386
sg15
(lp387
sg17
(lp388
sg19
(lp389
sg21
I0
sbasg71
(lp390
g386
asg21
I0
sg73
S'6'
p391
sba(iArchitecture
Cluster
p392
(dp393
g7
(lp394
(iArchitecture
Entity
p395
(dp396
g11
(lp397
sg13
S'com.android.server.notification.CalendarTracker'
p398
sg15
(lp399
sg17
(lp400
sg19
(lp401
sg21
I0
sba(iArchitecture
Entity
p402
(dp403
g11
(lp404
sg13
S'com.android.server.notification.CalendarTracker$1'
p405
sg15
(lp406
sg17
(lp407
sg19
(lp408
sg21
I0
sba(iArchitecture
Entity
p409
(dp410
g11
(lp411
sg13
S'com.android.server.notification.CalendarTracker$Callback'
p412
sg15
(lp413
sg17
(lp414
sg19
(lp415
sg21
I0
sba(iArchitecture
Entity
p416
(dp417
g11
(lp418
sg13
S'com.android.server.notification.CalendarTracker$CheckEventResult'
p419
sg15
(lp420
sg17
(lp421
sg19
(lp422
sg21
I0
sbasg71
(lp423
g398
ag405
ag412
ag419
asg21
I0
sg73
S'808'
p424
sba(iArchitecture
Cluster
p425
(dp426
g7
(lp427
(iArchitecture
Entity
p428
(dp429
g11
(lp430
sg13
S'com.android.server.notification.ZenModeHelper'
p431
sg15
(lp432
sg17
(lp433
sg19
(lp434
sg21
I0
sba(iArchitecture
Entity
p435
(dp436
g11
(lp437
sg13
S'com.android.server.notification.ZenModeHelper$1'
p438
sg15
(lp439
sg17
(lp440
sg19
(lp441
sg21
I0
sba(iArchitecture
Entity
p442
(dp443
g11
(lp444
sg13
S'com.android.server.notification.ZenModeHelper$Callback'
p445
sg15
(lp446
sg17
(lp447
sg19
(lp448
sg21
I0
sba(iArchitecture
Entity
p449
(dp450
g11
(lp451
sg13
S'com.android.server.notification.ZenModeHelper$H'
p452
sg15
(lp453
sg17
(lp454
sg19
(lp455
sg21
I0
sba(iArchitecture
Entity
p456
(dp457
g11
(lp458
sg13
S'com.android.server.notification.ZenModeHelper$Metrics'
p459
sg15
(lp460
sg17
(lp461
sg19
(lp462
sg21
I0
sba(iArchitecture
Entity
p463
(dp464
g11
(lp465
sg13
S'com.android.server.notification.ZenModeHelper$RingerModeDelegate'
p466
sg15
(lp467
sg17
(lp468
sg19
(lp469
sg21
I0
sba(iArchitecture
Entity
p470
(dp471
g11
(lp472
sg13
S'com.android.server.notification.ZenModeHelper$SettingsObserver'
p473
sg15
(lp474
sg17
(lp475
sg19
(lp476
sg21
I0
sbasg71
(lp477
g431
ag438
ag445
ag452
ag459
ag466
ag473
asg21
I0
sg73
S'998'
p478
sbasS'target_sub'
p479
S'com.android.server.notification'
p480
sg71
(lp481
sS'is_component_arch'
p482
I00
sg73
S'6.0.0_r1'
p483
sba(iArchitecture
Architecture
p484
(dp485
g3
(lp486
(iArchitecture
Cluster
p487
(dp488
g7
(lp489
(iArchitecture
Entity
p490
(dp491
g11
(lp492
sg13
S'com.android.server.notification.ZenModeHelper'
p493
sg15
(lp494
sg17
(lp495
sg19
(lp496
sg21
I0
sba(iArchitecture
Entity
p497
(dp498
g11
(lp499
sg13
S'com.android.server.notification.ZenModeHelper$1'
p500
sg15
(lp501
sg17
(lp502
sg19
(lp503
sg21
I0
sba(iArchitecture
Entity
p504
(dp505
g11
(lp506
sg13
S'com.android.server.notification.ZenModeHelper$Callback'
p507
sg15
(lp508
sg17
(lp509
sg19
(lp510
sg21
I0
sba(iArchitecture
Entity
p511
(dp512
g11
(lp513
sg13
S'com.android.server.notification.ZenModeHelper$H'
p514
sg15
(lp515
sg17
(lp516
sg19
(lp517
sg21
I0
sba(iArchitecture
Entity
p518
(dp519
g11
(lp520
sg13
S'com.android.server.notification.ZenModeHelper$H$ConfigMessageData'
p521
sg15
(lp522
sg17
(lp523
sg19
(lp524
sg21
I0
sba(iArchitecture
Entity
p525
(dp526
g11
(lp527
sg13
S'com.android.server.notification.ZenModeHelper$Metrics'
p528
sg15
(lp529
sg17
(lp530
sg19
(lp531
sg21
I0
sba(iArchitecture
Entity
p532
(dp533
g11
(lp534
sg13
S'com.android.server.notification.ZenModeHelper$RingerModeDelegate'
p535
sg15
(lp536
sg17
(lp537
sg19
(lp538
sg21
I0
sba(iArchitecture
Entity
p539
(dp540
g11
(lp541
sg13
S'com.android.server.notification.ZenModeHelper$SettingsObserver'
p542
sg15
(lp543
sg17
(lp544
sg19
(lp545
sg21
I0
sbasg71
(lp546
g493
ag500
ag507
ag514
ag521
ag528
ag535
ag542
asg21
I0
sg73
S'1167'
p547
sba(iArchitecture
Cluster
p548
(dp549
g7
(lp550
(iArchitecture
Entity
p551
(dp552
g11
(lp553
sg13
S'com.android.server.notification.NotificationUsageStats'
p554
sg15
(lp555
sg17
(lp556
sg19
(lp557
sg21
I0
sba(iArchitecture
Entity
p558
(dp559
g11
(lp560
sg13
S'com.android.server.notification.NotificationUsageStats$1'
p561
sg15
(lp562
sg17
(lp563
sg19
(lp564
sg21
I0
sba(iArchitecture
Entity
p565
(dp566
g11
(lp567
sg13
S'com.android.server.notification.NotificationUsageStats$Aggregate'
p568
sg15
(lp569
sg17
(lp570
sg19
(lp571
sg21
I0
sba(iArchitecture
Entity
p572
(dp573
g11
(lp574
sg13
S'com.android.server.notification.NotificationUsageStats$AggregatedStats'
p575
sg15
(lp576
sg17
(lp577
sg19
(lp578
sg21
I0
sba(iArchitecture
Entity
p579
(dp580
g11
(lp581
sg13
S'com.android.server.notification.NotificationUsageStats$ImportanceHistogram'
p582
sg15
(lp583
sg17
(lp584
sg19
(lp585
sg21
I0
sba(iArchitecture
Entity
p586
(dp587
g11
(lp588
sg13
S'com.android.server.notification.NotificationUsageStats$SQLiteLog'
p589
sg15
(lp590
sg17
(lp591
sg19
(lp592
sg21
I0
sba(iArchitecture
Entity
p593
(dp594
g11
(lp595
sg13
S'com.android.server.notification.NotificationUsageStats$SQLiteLog$1'
p596
sg15
(lp597
sg17
(lp598
sg19
(lp599
sg21
I0
sba(iArchitecture
Entity
p600
(dp601
g11
(lp602
sg13
S'com.android.server.notification.NotificationUsageStats$SQLiteLog$2'
p603
sg15
(lp604
sg17
(lp605
sg19
(lp606
sg21
I0
sba(iArchitecture
Entity
p607
(dp608
g11
(lp609
sg13
S'com.android.server.notification.NotificationUsageStats$SingleNotificationStats'
p610
sg15
(lp611
sg17
(lp612
sg19
(lp613
sg21
I0
sbasg71
(lp614
g554
ag561
ag568
ag575
ag582
ag589
ag596
ag603
ag610
asg21
I0
sg73
S'1179'
p615
sba(iArchitecture
Cluster
p616
(dp617
g7
(lp618
(iArchitecture
Entity
p619
(dp620
g11
(lp621
sg13
S'com.android.server.notification.ImportanceExtractor'
p622
sg15
(lp623
sg17
(lp624
sg19
(lp625
sg21
I0
sba(iArchitecture
Entity
p626
(dp627
g11
(lp628
sg13
S'com.android.server.notification.PriorityExtractor'
p629
sg15
(lp630
sg17
(lp631
sg19
(lp632
sg21
I0
sba(iArchitecture
Entity
p633
(dp634
g11
(lp635
sg13
S'com.android.server.notification.VisibilityExtractor'
p636
sg15
(lp637
sg17
(lp638
sg19
(lp639
sg21
I0
sbasg71
(lp640
g622
ag629
ag636
asg21
I0
sg73
S'1236'
p641
sba(iArchitecture
Cluster
p642
(dp643
g7
(lp644
(iArchitecture
Entity
p645
(dp646
g11
(lp647
sg13
S'com.android.server.notification.RateEstimator'
p648
sg15
(lp649
sg17
(lp650
sg19
(lp651
sg21
I0
sbasg71
(lp652
g648
asg21
I0
sg73
S'124'
p653
sba(iArchitecture
Cluster
p654
(dp655
g7
(lp656
(iArchitecture
Entity
p657
(dp658
g11
(lp659
sg13
S'com.android.server.notification.CountdownConditionProvider'
p660
sg15
(lp661
sg17
(lp662
sg19
(lp663
sg21
I0
sba(iArchitecture
Entity
p664
(dp665
g11
(lp666
sg13
S'com.android.server.notification.CountdownConditionProvider$Receiver'
p667
sg15
(lp668
sg17
(lp669
sg19
(lp670
sg21
I0
sba(iArchitecture
Entity
p671
(dp672
g11
(lp673
sg13
S'com.android.server.notification.EventConditionProvider'
p674
sg15
(lp675
sg17
(lp676
sg19
(lp677
sg21
I0
sba(iArchitecture
Entity
p678
(dp679
g11
(lp680
sg13
S'com.android.server.notification.EventConditionProvider$1'
p681
sg15
(lp682
sg17
(lp683
sg19
(lp684
sg21
I0
sba(iArchitecture
Entity
p685
(dp686
g11
(lp687
sg13
S'com.android.server.notification.EventConditionProvider$2'
p688
sg15
(lp689
sg17
(lp690
sg19
(lp691
sg21
I0
sba(iArchitecture
Entity
p692
(dp693
g11
(lp694
sg13
S'com.android.server.notification.EventConditionProvider$3'
p695
sg15
(lp696
sg17
(lp697
sg19
(lp698
sg21
I0
sba(iArchitecture
Entity
p699
(dp700
g11
(lp701
sg13
S'com.android.server.notification.EventConditionProvider$4'
p702
sg15
(lp703
sg17
(lp704
sg19
(lp705
sg21
I0
sba(iArchitecture
Entity
p706
(dp707
g11
(lp708
sg13
S'com.android.server.notification.ScheduleConditionProvider'
p709
sg15
(lp710
sg17
(lp711
sg19
(lp712
sg21
I0
sba(iArchitecture
Entity
p713
(dp714
g11
(lp715
sg13
S'com.android.server.notification.ScheduleConditionProvider$1'
p716
sg15
(lp717
sg17
(lp718
sg19
(lp719
sg21
I0
sbasg71
(lp720
g660
ag667
ag674
ag681
ag688
ag695
ag702
ag709
ag716
asg21
I0
sg73
S'1307'
p721
sba(iArchitecture
Cluster
p722
(dp723
g7
(lp724
(iArchitecture
Entity
p725
(dp726
g11
(lp727
sg13
S'com.android.server.notification.NotificationManagerInternal'
p728
sg15
(lp729
sg17
(lp730
sg19
(lp731
sg21
I0
sba(iArchitecture
Entity
p732
(dp733
g11
(lp734
sg13
S'com.android.server.notification.PropConfig'
p735
sg15
(lp736
sg17
(lp737
sg19
(lp738
sg21
I0
sba(iArchitecture
Entity
p739
(dp740
g11
(lp741
sg13
S'com.android.server.notification.RankingHandler'
p742
sg15
(lp743
sg17
(lp744
sg19
(lp745
sg21
I0
sba(iArchitecture
Entity
p746
(dp747
g11
(lp748
sg13
S'com.android.server.notification.SystemConditionProviderService'
p749
sg15
(lp750
sg17
(lp751
sg19
(lp752
sg21
I0
sbasg71
(lp753
g728
ag735
ag742
ag749
asg21
I0
sg73
S'1330'
p754
sba(iArchitecture
Cluster
p755
(dp756
g7
(lp757
(iArchitecture
Entity
p758
(dp759
g11
(lp760
sg13
S'com.android.server.notification.NotificationDelegate'
p761
sg15
(lp762
sg17
(lp763
sg19
(lp764
sg21
I0
sba(iArchitecture
Entity
p765
(dp766
g11
(lp767
sg13
S'com.android.server.notification.NotificationIntrusivenessExtractor'
p768
sg15
(lp769
sg17
(lp770
sg19
(lp771
sg21
I0
sba(iArchitecture
Entity
p772
(dp773
g11
(lp774
sg13
S'com.android.server.notification.NotificationIntrusivenessExtractor$1'
p775
sg15
(lp776
sg17
(lp777
sg19
(lp778
sg21
I0
sba(iArchitecture
Entity
p779
(dp780
g11
(lp781
sg13
S'com.android.server.notification.NotificationSignalExtractor'
p782
sg15
(lp783
sg17
(lp784
sg19
(lp785
sg21
I0
sba(iArchitecture
Entity
p786
(dp787
g11
(lp788
sg13
S'com.android.server.notification.RankingReconsideration'
p789
sg15
(lp790
sg17
(lp791
sg19
(lp792
sg21
I0
sbasg71
(lp793
g761
ag768
ag775
ag782
ag789
asg21
I0
sg73
S'1331'
p794
sba(iArchitecture
Cluster
p795
(dp796
g7
(lp797
(iArchitecture
Entity
p798
(dp799
g11
(lp800
sg13
S'com.android.server.notification.ManagedServices'
p801
sg15
(lp802
sg17
(lp803
sg19
(lp804
sg21
I0
sba(iArchitecture
Entity
p805
(dp806
g11
(lp807
sg13
S'com.android.server.notification.ManagedServices$1'
p808
sg15
(lp809
sg17
(lp810
sg19
(lp811
sg21
I0
sba(iArchitecture
Entity
p812
(dp813
g11
(lp814
sg13
S'com.android.server.notification.ManagedServices$Config'
p815
sg15
(lp816
sg17
(lp817
sg19
(lp818
sg21
I0
sba(iArchitecture
Entity
p819
(dp820
g11
(lp821
sg13
S'com.android.server.notification.ManagedServices$ManagedServiceInfo'
p822
sg15
(lp823
sg17
(lp824
sg19
(lp825
sg21
I0
sba(iArchitecture
Entity
p826
(dp827
g11
(lp828
sg13
S'com.android.server.notification.ManagedServices$SettingRestoredReceiver'
p829
sg15
(lp830
sg17
(lp831
sg19
(lp832
sg21
I0
sba(iArchitecture
Entity
p833
(dp834
g11
(lp835
sg13
S'com.android.server.notification.ManagedServices$SettingsObserver'
p836
sg15
(lp837
sg17
(lp838
sg19
(lp839
sg21
I0
sba(iArchitecture
Entity
p840
(dp841
g11
(lp842
sg13
S'com.android.server.notification.ManagedServices$UserProfiles'
p843
sg15
(lp844
sg17
(lp845
sg19
(lp846
sg21
I0
sbasg71
(lp847
g801
ag808
ag815
ag822
ag829
ag836
ag843
asg21
I0
sg73
S'1373'
p848
sba(iArchitecture
Cluster
p849
(dp850
g7
(lp851
(iArchitecture
Entity
p852
(dp853
g11
(lp854
sg13
S'com.android.server.notification.ConditionProviders'
p855
sg15
(lp856
sg17
(lp857
sg19
(lp858
sg21
I0
sba(iArchitecture
Entity
p859
(dp860
g11
(lp861
sg13
S'com.android.server.notification.ConditionProviders$Callback'
p862
sg15
(lp863
sg17
(lp864
sg19
(lp865
sg21
I0
sba(iArchitecture
Entity
p866
(dp867
g11
(lp868
sg13
S'com.android.server.notification.ConditionProviders$ConditionRecord'
p869
sg15
(lp870
sg17
(lp871
sg19
(lp872
sg21
I0
sbasg71
(lp873
g855
ag862
ag869
asg21
I0
sg73
S'1386'
p874
sba(iArchitecture
Cluster
p875
(dp876
g7
(lp877
(iArchitecture
Entity
p878
(dp879
g11
(lp880
sg13
S'com.android.server.notification.RankingConfig'
p881
sg15
(lp882
sg17
(lp883
sg19
(lp884
sg21
I0
sbasg71
(lp885
g881
asg21
I0
sg73
S'1400'
p886
sba(iArchitecture
Cluster
p887
(dp888
g7
(lp889
(iArchitecture
Entity
p890
(dp891
g11
(lp892
sg13
S'com.android.server.notification.NotificationRecord'
p893
sg15
(lp894
sg17
(lp895
sg19
(lp896
sg21
I0
sbasg71
(lp897
g893
asg21
I0
sg73
S'1401'
p898
sba(iArchitecture
Cluster
p899
(dp900
g7
(lp901
(iArchitecture
Entity
p902
(dp903
g11
(lp904
sg13
S'com.android.server.notification.ZenModeConditions'
p905
sg15
(lp906
sg17
(lp907
sg19
(lp908
sg21
I0
sbasg71
(lp909
g905
asg21
I0
sg73
S'158'
p910
sba(iArchitecture
Cluster
p911
(dp912
g7
(lp913
(iArchitecture
Entity
p914
(dp915
g11
(lp916
sg13
S'com.android.server.notification.ZenLog'
p917
sg15
(lp918
sg17
(lp919
sg19
(lp920
sg21
I0
sbasg71
(lp921
g917
asg21
I0
sg73
S'189'
p922
sba(iArchitecture
Cluster
p923
(dp924
g7
(lp925
(iArchitecture
Entity
p926
(dp927
g11
(lp928
sg13
S'com.android.server.notification.NotificationComparator'
p929
sg15
(lp930
sg17
(lp931
sg19
(lp932
sg21
I0
sbasg71
(lp933
g929
asg21
I0
sg73
S'205'
p934
sba(iArchitecture
Cluster
p935
(dp936
g7
(lp937
(iArchitecture
Entity
p938
(dp939
g11
(lp940
sg13
S'com.android.server.notification.GlobalSortKeyComparator'
p941
sg15
(lp942
sg17
(lp943
sg19
(lp944
sg21
I0
sbasg71
(lp945
g941
asg21
I0
sg73
S'341'
p946
sba(iArchitecture
Cluster
p947
(dp948
g7
(lp949
(iArchitecture
Entity
p950
(dp951
g11
(lp952
sg13
S'com.android.server.notification.ZenModeFiltering'
p953
sg15
(lp954
sg17
(lp955
sg19
(lp956
sg21
I0
sba(iArchitecture
Entity
p957
(dp958
g11
(lp959
sg13
S'com.android.server.notification.ZenModeFiltering$RepeatCallers'
p960
sg15
(lp961
sg17
(lp962
sg19
(lp963
sg21
I0
sbasg71
(lp964
g953
ag960
asg21
I0
sg73
S'650'
p965
sba(iArchitecture
Cluster
p966
(dp967
g7
(lp968
(iArchitecture
Entity
p969
(dp970
g11
(lp971
sg13
S'com.android.server.notification.ScheduleCalendar'
p972
sg15
(lp973
sg17
(lp974
sg19
(lp975
sg21
I0
sbasg71
(lp976
g972
asg21
I0
sg73
S'7'
p977
sba(iArchitecture
Cluster
p978
(dp979
g7
(lp980
(iArchitecture
Entity
p981
(dp982
g11
(lp983
sg13
S'com.android.server.notification.CalendarTracker'
p984
sg15
(lp985
sg17
(lp986
sg19
(lp987
sg21
I0
sba(iArchitecture
Entity
p988
(dp989
g11
(lp990
sg13
S'com.android.server.notification.CalendarTracker$1'
p991
sg15
(lp992
sg17
(lp993
sg19
(lp994
sg21
I0
sba(iArchitecture
Entity
p995
(dp996
g11
(lp997
sg13
S'com.android.server.notification.CalendarTracker$Callback'
p998
sg15
(lp999
sg17
(lp1000
sg19
(lp1001
sg21
I0
sba(iArchitecture
Entity
p1002
(dp1003
g11
(lp1004
sg13
S'com.android.server.notification.CalendarTracker$CheckEventResult'
p1005
sg15
(lp1006
sg17
(lp1007
sg19
(lp1008
sg21
I0
sbasg71
(lp1009
g984
ag991
ag998
ag1005
asg21
I0
sg73
S'908'
p1010
sbasg479
g480
sg71
(lp1011
sg482
I00
sg73
S'7.0.0_r1'
p1012
sba.