(lp0
(iArchitecture
Architecture
p1
(dp2
S'clusters'
p3
(lp4
(iArchitecture
Cluster
p5
(dp6
S'entities'
p7
(lp8
(iArchitecture
Entity
p9
(dp10
S'issue_ids'
p11
(lp12
sS'name'
p13
S'android.telephony.CellSignalStrengthGsm'
p14
sS'descs'
p15
(lp16
sS'labels'
p17
(lp18
sS'titles'
p19
(lp20
sS'change'
p21
I0
sba(iArchitecture
Entity
p22
(dp23
g11
(lp24
sg13
S'android.telephony.CellSignalStrengthGsm$1'
p25
sg15
(lp26
sg17
(lp27
sg19
(lp28
sg21
I0
sba(iArchitecture
Entity
p29
(dp30
g11
(lp31
sg13
S'android.telephony.CellSignalStrengthWcdma'
p32
sg15
(lp33
sg17
(lp34
sg19
(lp35
sg21
I0
sba(iArchitecture
Entity
p36
(dp37
g11
(lp38
sg13
S'android.telephony.CellSignalStrengthWcdma$1'
p39
sg15
(lp40
sg17
(lp41
sg19
(lp42
sg21
I0
sbasS'classes'
p43
(lp44
g14
ag25
ag32
ag39
asg21
I0
sS'label'
p45
S'1116'
p46
sba(iArchitecture
Cluster
p47
(dp48
g7
(lp49
(iArchitecture
Entity
p50
(dp51
g11
(lp52
sg13
S'android.telephony.DataConnectionRealTimeInfo'
p53
sg15
(lp54
sg17
(lp55
sg19
(lp56
sg21
I0
sba(iArchitecture
Entity
p57
(dp58
g11
(lp59
sg13
S'android.telephony.DataConnectionRealTimeInfo$1'
p60
sg15
(lp61
sg17
(lp62
sg19
(lp63
sg21
I0
sbasg43
(lp64
g53
ag60
asg21
I0
sg45
S'1177'
p65
sba(iArchitecture
Cluster
p66
(dp67
g7
(lp68
(iArchitecture
Entity
p69
(dp70
g11
(lp71
sg13
S'android.telephony.CellIdentityGsm'
p72
sg15
(lp73
sg17
(lp74
sg19
(lp75
sg21
I0
sba(iArchitecture
Entity
p76
(dp77
g11
(lp78
sg13
S'android.telephony.CellIdentityGsm$1'
p79
sg15
(lp80
sg17
(lp81
sg19
(lp82
sg21
I0
sba(iArchitecture
Entity
p83
(dp84
g11
(lp85
sg13
S'android.telephony.CellIdentityWcdma'
p86
sg15
(lp87
sg17
(lp88
sg19
(lp89
sg21
I0
sba(iArchitecture
Entity
p90
(dp91
g11
(lp92
sg13
S'android.telephony.CellIdentityWcdma$1'
p93
sg15
(lp94
sg17
(lp95
sg19
(lp96
sg21
I0
sbasg43
(lp97
g72
ag79
ag86
ag93
asg21
I0
sg45
S'1195'
p98
sba(iArchitecture
Cluster
p99
(dp100
g7
(lp101
(iArchitecture
Entity
p102
(dp103
g11
(lp104
sg13
S'android.telephony.CellIdentityCdma'
p105
sg15
(lp106
sg17
(lp107
sg19
(lp108
sg21
I0
sba(iArchitecture
Entity
p109
(dp110
g11
(lp111
sg13
S'android.telephony.CellIdentityCdma$1'
p112
sg15
(lp113
sg17
(lp114
sg19
(lp115
sg21
I0
sba(iArchitecture
Entity
p116
(dp117
g11
(lp118
sg13
S'android.telephony.cdma.CdmaCellLocation'
p119
sg15
(lp120
sg17
(lp121
sg19
(lp122
sg21
I0
sbasg43
(lp123
g105
ag112
ag119
asg21
I0
sg45
S'1211'
p124
sba(iArchitecture
Cluster
p125
(dp126
g7
(lp127
(iArchitecture
Entity
p128
(dp129
g11
(lp130
sg13
S'android.telephony.PreciseDisconnectCause'
p131
sg15
(lp132
sg17
(lp133
sg19
(lp134
sg21
I0
sba(iArchitecture
Entity
p135
(dp136
g11
(lp137
sg13
S'android.telephony.TelephonyManager'
p138
sg15
(lp139
sg17
(lp140
sg19
(lp141
sg21
I0
sba(iArchitecture
Entity
p142
(dp143
g11
(lp144
sg13
S'android.telephony.TelephonyManager$MultiSimVariants'
p145
sg15
(lp146
sg17
(lp147
sg19
(lp148
sg21
I0
sba(iArchitecture
Entity
p149
(dp150
g11
(lp151
sg13
S'android.telephony.TelephonyManager$WifiCallingChoices'
p152
sg15
(lp153
sg17
(lp154
sg19
(lp155
sg21
I0
sbasg43
(lp156
g131
ag138
ag145
ag152
asg21
I0
sg45
S'1232'
p157
sba(iArchitecture
Cluster
p158
(dp159
g7
(lp160
(iArchitecture
Entity
p161
(dp162
g11
(lp163
sg13
S'android.telephony.JapanesePhoneNumberFormatter'
p164
sg15
(lp165
sg17
(lp166
sg19
(lp167
sg21
I0
sbasg43
(lp168
g164
asg21
I0
sg45
S'1246'
p169
sba(iArchitecture
Cluster
p170
(dp171
g7
(lp172
(iArchitecture
Entity
p173
(dp174
g11
(lp175
sg13
S'android.telephony.CellSignalStrengthCdma'
p176
sg15
(lp177
sg17
(lp178
sg19
(lp179
sg21
I0
sba(iArchitecture
Entity
p180
(dp181
g11
(lp182
sg13
S'android.telephony.CellSignalStrengthCdma$1'
p183
sg15
(lp184
sg17
(lp185
sg19
(lp186
sg21
I0
sba(iArchitecture
Entity
p187
(dp188
g11
(lp189
sg13
S'android.telephony.CellSignalStrengthLte'
p190
sg15
(lp191
sg17
(lp192
sg19
(lp193
sg21
I0
sba(iArchitecture
Entity
p194
(dp195
g11
(lp196
sg13
S'android.telephony.CellSignalStrengthLte$1'
p197
sg15
(lp198
sg17
(lp199
sg19
(lp200
sg21
I0
sba(iArchitecture
Entity
p201
(dp202
g11
(lp203
sg13
S'android.telephony.SignalStrength'
p204
sg15
(lp205
sg17
(lp206
sg19
(lp207
sg21
I0
sba(iArchitecture
Entity
p208
(dp209
g11
(lp210
sg13
S'android.telephony.SignalStrength$1'
p211
sg15
(lp212
sg17
(lp213
sg19
(lp214
sg21
I0
sbasg43
(lp215
g176
ag183
ag190
ag197
ag204
ag211
asg21
I0
sg45
S'1260'
p216
sba(iArchitecture
Cluster
p217
(dp218
g7
(lp219
(iArchitecture
Entity
p220
(dp221
g11
(lp222
sg13
S'android.telephony.CellLocation'
p223
sg15
(lp224
sg17
(lp225
sg19
(lp226
sg21
I0
sbasg43
(lp227
g223
asg21
I0
sg45
S'232'
p228
sba(iArchitecture
Cluster
p229
(dp230
g7
(lp231
(iArchitecture
Entity
p232
(dp233
g11
(lp234
sg13
S'android.telephony.gsm.GsmCellLocation'
p235
sg15
(lp236
sg17
(lp237
sg19
(lp238
sg21
I0
sbasg43
(lp239
g235
asg21
I0
sg45
S'272'
p240
sba(iArchitecture
Cluster
p241
(dp242
g7
(lp243
(iArchitecture
Entity
p244
(dp245
g11
(lp246
sg13
S'android.telephony.Rlog'
p247
sg15
(lp248
sg17
(lp249
sg19
(lp250
sg21
I0
sbasg43
(lp251
g247
asg21
I0
sg45
S'293'
p252
sba(iArchitecture
Cluster
p253
(dp254
g7
(lp255
(iArchitecture
Entity
p256
(dp257
g11
(lp258
sg13
S'android.telephony.DisconnectCause'
p259
sg15
(lp260
sg17
(lp261
sg19
(lp262
sg21
I0
sbasg43
(lp263
g259
asg21
I0
sg45
S'383'
p264
sba(iArchitecture
Cluster
p265
(dp266
g7
(lp267
(iArchitecture
Entity
p268
(dp269
g11
(lp270
sg13
S'android.telephony.SmsMessage'
p271
sg15
(lp272
sg17
(lp273
sg19
(lp274
sg21
I0
sbasg43
(lp275
g271
asg21
I0
sg45
S'414'
p276
sba(iArchitecture
Cluster
p277
(dp278
g7
(lp279
(iArchitecture
Entity
p280
(dp281
g11
(lp282
sg13
S'android.telephony.CellSignalStrength'
p283
sg15
(lp284
sg17
(lp285
sg19
(lp286
sg21
I0
sbasg43
(lp287
g283
asg21
I0
sg45
S'418'
p288
sba(iArchitecture
Cluster
p289
(dp290
g7
(lp291
(iArchitecture
Entity
p292
(dp293
g11
(lp294
sg13
S'android.telephony.PhoneNumberFormattingTextWatcher'
p295
sg15
(lp296
sg17
(lp297
sg19
(lp298
sg21
I0
sbasg43
(lp299
g295
asg21
I0
sg45
S'441'
p300
sba(iArchitecture
Cluster
p301
(dp302
g7
(lp303
(iArchitecture
Entity
p304
(dp305
g11
(lp306
sg13
S'android.telephony.CellInfoGsm'
p307
sg15
(lp308
sg17
(lp309
sg19
(lp310
sg21
I0
sba(iArchitecture
Entity
p311
(dp312
g11
(lp313
sg13
S'android.telephony.CellInfoGsm$1'
p314
sg15
(lp315
sg17
(lp316
sg19
(lp317
sg21
I0
sbasg43
(lp318
g307
ag314
asg21
I0
sg45
S'452'
p319
sba(iArchitecture
Cluster
p320
(dp321
g7
(lp322
(iArchitecture
Entity
p323
(dp324
g11
(lp325
sg13
S'android.telephony.cdma.CdmaSmsCbProgramData'
p326
sg15
(lp327
sg17
(lp328
sg19
(lp329
sg21
I0
sba(iArchitecture
Entity
p330
(dp331
g11
(lp332
sg13
S'android.telephony.cdma.CdmaSmsCbProgramData$1'
p333
sg15
(lp334
sg17
(lp335
sg19
(lp336
sg21
I0
sbasg43
(lp337
g326
ag333
asg21
I0
sg45
S'466'
p338
sba(iArchitecture
Cluster
p339
(dp340
g7
(lp341
(iArchitecture
Entity
p342
(dp343
g11
(lp344
sg13
S'android.telephony.CellInfoLte'
p345
sg15
(lp346
sg17
(lp347
sg19
(lp348
sg21
I0
sba(iArchitecture
Entity
p349
(dp350
g11
(lp351
sg13
S'android.telephony.CellInfoLte$1'
p352
sg15
(lp353
sg17
(lp354
sg19
(lp355
sg21
I0
sbasg43
(lp356
g345
ag352
asg21
I0
sg45
S'494'
p357
sba(iArchitecture
Cluster
p358
(dp359
g7
(lp360
(iArchitecture
Entity
p361
(dp362
g11
(lp363
sg13
S'android.telephony.ModemActivityInfo'
p364
sg15
(lp365
sg17
(lp366
sg19
(lp367
sg21
I0
sba(iArchitecture
Entity
p368
(dp369
g11
(lp370
sg13
S'android.telephony.ModemActivityInfo$1'
p371
sg15
(lp372
sg17
(lp373
sg19
(lp374
sg21
I0
sbasg43
(lp375
g364
ag371
asg21
I0
sg45
S'509'
p376
sba(iArchitecture
Cluster
p377
(dp378
g7
(lp379
(iArchitecture
Entity
p380
(dp381
g11
(lp382
sg13
S'android.telephony.SubscriptionInfo'
p383
sg15
(lp384
sg17
(lp385
sg19
(lp386
sg21
I0
sba(iArchitecture
Entity
p387
(dp388
g11
(lp389
sg13
S'android.telephony.SubscriptionInfo$1'
p390
sg15
(lp391
sg17
(lp392
sg19
(lp393
sg21
I0
sbasg43
(lp394
g383
ag390
asg21
I0
sg45
S'522'
p395
sba(iArchitecture
Cluster
p396
(dp397
g7
(lp398
(iArchitecture
Entity
p399
(dp400
g11
(lp401
sg13
S'android.telephony.CellInfoCdma'
p402
sg15
(lp403
sg17
(lp404
sg19
(lp405
sg21
I0
sba(iArchitecture
Entity
p406
(dp407
g11
(lp408
sg13
S'android.telephony.CellInfoCdma$1'
p409
sg15
(lp410
sg17
(lp411
sg19
(lp412
sg21
I0
sbasg43
(lp413
g402
ag409
asg21
I0
sg45
S'529'
p414
sba(iArchitecture
Cluster
p415
(dp416
g7
(lp417
(iArchitecture
Entity
p418
(dp419
g11
(lp420
sg13
S'android.telephony.cdma.CdmaSmsCbProgramResults'
p421
sg15
(lp422
sg17
(lp423
sg19
(lp424
sg21
I0
sba(iArchitecture
Entity
p425
(dp426
g11
(lp427
sg13
S'android.telephony.cdma.CdmaSmsCbProgramResults$1'
p428
sg15
(lp429
sg17
(lp430
sg19
(lp431
sg21
I0
sbasg43
(lp432
g421
ag428
asg21
I0
sg45
S'542'
p433
sba(iArchitecture
Cluster
p434
(dp435
g7
(lp436
(iArchitecture
Entity
p437
(dp438
g11
(lp439
sg13
S'android.telephony.CellInfo'
p440
sg15
(lp441
sg17
(lp442
sg19
(lp443
sg21
I0
sba(iArchitecture
Entity
p444
(dp445
g11
(lp446
sg13
S'android.telephony.CellInfo$1'
p447
sg15
(lp448
sg17
(lp449
sg19
(lp450
sg21
I0
sbasg43
(lp451
g440
ag447
asg21
I0
sg45
S'566'
p452
sba(iArchitecture
Cluster
p453
(dp454
g7
(lp455
(iArchitecture
Entity
p456
(dp457
g11
(lp458
sg13
S'android.telephony.PreciseCallState'
p459
sg15
(lp460
sg17
(lp461
sg19
(lp462
sg21
I0
sba(iArchitecture
Entity
p463
(dp464
g11
(lp465
sg13
S'android.telephony.PreciseCallState$1'
p466
sg15
(lp467
sg17
(lp468
sg19
(lp469
sg21
I0
sbasg43
(lp470
g459
ag466
asg21
I0
sg45
S'570'
p471
sba(iArchitecture
Cluster
p472
(dp473
g7
(lp474
(iArchitecture
Entity
p475
(dp476
g11
(lp477
sg13
S'android.telephony.NeighboringCellInfo'
p478
sg15
(lp479
sg17
(lp480
sg19
(lp481
sg21
I0
sba(iArchitecture
Entity
p482
(dp483
g11
(lp484
sg13
S'android.telephony.NeighboringCellInfo$1'
p485
sg15
(lp486
sg17
(lp487
sg19
(lp488
sg21
I0
sbasg43
(lp489
g478
ag485
asg21
I0
sg45
S'576'
p490
sba(iArchitecture
Cluster
p491
(dp492
g7
(lp493
(iArchitecture
Entity
p494
(dp495
g11
(lp496
sg13
S'android.telephony.PhoneNumberUtils'
p497
sg15
(lp498
sg17
(lp499
sg19
(lp500
sg21
I0
sba(iArchitecture
Entity
p501
(dp502
g11
(lp503
sg13
S'android.telephony.PhoneNumberUtils$CountryCallingCodeAndNewIndex'
p504
sg15
(lp505
sg17
(lp506
sg19
(lp507
sg21
I0
sbasg43
(lp508
g497
ag504
asg21
I0
sg45
S'588'
p509
sba(iArchitecture
Cluster
p510
(dp511
g7
(lp512
(iArchitecture
Entity
p513
(dp514
g11
(lp515
sg13
S'android.telephony.CellInfoWcdma'
p516
sg15
(lp517
sg17
(lp518
sg19
(lp519
sg21
I0
sba(iArchitecture
Entity
p520
(dp521
g11
(lp522
sg13
S'android.telephony.CellInfoWcdma$1'
p523
sg15
(lp524
sg17
(lp525
sg19
(lp526
sg21
I0
sbasg43
(lp527
g516
ag523
asg21
I0
sg45
S'600'
p528
sba(iArchitecture
Cluster
p529
(dp530
g7
(lp531
(iArchitecture
Entity
p532
(dp533
g11
(lp534
sg13
S'android.telephony.ServiceState'
p535
sg15
(lp536
sg17
(lp537
sg19
(lp538
sg21
I0
sba(iArchitecture
Entity
p539
(dp540
g11
(lp541
sg13
S'android.telephony.ServiceState$1'
p542
sg15
(lp543
sg17
(lp544
sg19
(lp545
sg21
I0
sbasg43
(lp546
g535
ag542
asg21
I0
sg45
S'603'
p547
sba(iArchitecture
Cluster
p548
(dp549
g7
(lp550
(iArchitecture
Entity
p551
(dp552
g11
(lp553
sg13
S'android.telephony.IccOpenLogicalChannelResponse'
p554
sg15
(lp555
sg17
(lp556
sg19
(lp557
sg21
I0
sba(iArchitecture
Entity
p558
(dp559
g11
(lp560
sg13
S'android.telephony.IccOpenLogicalChannelResponse$1'
p561
sg15
(lp562
sg17
(lp563
sg19
(lp564
sg21
I0
sbasg43
(lp565
g554
ag561
asg21
I0
sg45
S'610'
p566
sba(iArchitecture
Cluster
p567
(dp568
g7
(lp569
(iArchitecture
Entity
p570
(dp571
g11
(lp572
sg13
S'android.telephony.RadioAccessFamily'
p573
sg15
(lp574
sg17
(lp575
sg19
(lp576
sg21
I0
sba(iArchitecture
Entity
p577
(dp578
g11
(lp579
sg13
S'android.telephony.RadioAccessFamily$1'
p580
sg15
(lp581
sg17
(lp582
sg19
(lp583
sg21
I0
sbasg43
(lp584
g573
ag580
asg21
I0
sg45
S'628'
p585
sba(iArchitecture
Cluster
p586
(dp587
g7
(lp588
(iArchitecture
Entity
p589
(dp590
g11
(lp591
sg13
S'android.telephony.PreciseDataConnectionState'
p592
sg15
(lp593
sg17
(lp594
sg19
(lp595
sg21
I0
sba(iArchitecture
Entity
p596
(dp597
g11
(lp598
sg13
S'android.telephony.PreciseDataConnectionState$1'
p599
sg15
(lp600
sg17
(lp601
sg19
(lp602
sg21
I0
sbasg43
(lp603
g592
ag599
asg21
I0
sg45
S'658'
p604
sba(iArchitecture
Cluster
p605
(dp606
g7
(lp607
(iArchitecture
Entity
p608
(dp609
g11
(lp610
sg13
S'android.telephony.CellIdentityLte'
p611
sg15
(lp612
sg17
(lp613
sg19
(lp614
sg21
I0
sba(iArchitecture
Entity
p615
(dp616
g11
(lp617
sg13
S'android.telephony.CellIdentityLte$1'
p618
sg15
(lp619
sg17
(lp620
sg19
(lp621
sg21
I0
sbasg43
(lp622
g611
ag618
asg21
I0
sg45
S'674'
p623
sba(iArchitecture
Cluster
p624
(dp625
g7
(lp626
(iArchitecture
Entity
p627
(dp628
g11
(lp629
sg13
S'android.telephony.VoLteServiceState'
p630
sg15
(lp631
sg17
(lp632
sg19
(lp633
sg21
I0
sba(iArchitecture
Entity
p634
(dp635
g11
(lp636
sg13
S'android.telephony.VoLteServiceState$1'
p637
sg15
(lp638
sg17
(lp639
sg19
(lp640
sg21
I0
sbasg43
(lp641
g630
ag637
asg21
I0
sg45
S'689'
p642
sba(iArchitecture
Cluster
p643
(dp644
g7
(lp645
(iArchitecture
Entity
p646
(dp647
g11
(lp648
sg13
S'android.telephony.CarrierConfigManager'
p649
sg15
(lp650
sg17
(lp651
sg19
(lp652
sg21
I0
sbasg43
(lp653
g649
asg21
I0
sg45
S'85'
p654
sba(iArchitecture
Cluster
p655
(dp656
g7
(lp657
(iArchitecture
Entity
p658
(dp659
g11
(lp660
sg13
S'android.telephony.PhoneStateListener'
p661
sg15
(lp662
sg17
(lp663
sg19
(lp664
sg21
I0
sba(iArchitecture
Entity
p665
(dp666
g11
(lp667
sg13
S'android.telephony.PhoneStateListener$1'
p668
sg15
(lp669
sg17
(lp670
sg19
(lp671
sg21
I0
sba(iArchitecture
Entity
p672
(dp673
g11
(lp674
sg13
S'android.telephony.PhoneStateListener$2'
p675
sg15
(lp676
sg17
(lp677
sg19
(lp678
sg21
I0
sbasg43
(lp679
g661
ag668
ag675
asg21
I0
sg45
S'886'
p680
sba(iArchitecture
Cluster
p681
(dp682
g7
(lp683
(iArchitecture
Entity
p684
(dp685
g11
(lp686
sg13
S'android.telephony.SubscriptionManager'
p687
sg15
(lp688
sg17
(lp689
sg19
(lp690
sg21
I0
sba(iArchitecture
Entity
p691
(dp692
g11
(lp693
sg13
S'android.telephony.SubscriptionManager$OnSubscriptionsChangedListener'
p694
sg15
(lp695
sg17
(lp696
sg19
(lp697
sg21
I0
sba(iArchitecture
Entity
p698
(dp699
g11
(lp700
sg13
S'android.telephony.SubscriptionManager$OnSubscriptionsChangedListener$1'
p701
sg15
(lp702
sg17
(lp703
sg19
(lp704
sg21
I0
sba(iArchitecture
Entity
p705
(dp706
g11
(lp707
sg13
S'android.telephony.SubscriptionManager$OnSubscriptionsChangedListener$2'
p708
sg15
(lp709
sg17
(lp710
sg19
(lp711
sg21
I0
sbasg43
(lp712
g687
ag694
ag701
ag708
asg21
I0
sg45
S'910'
p713
sbasS'target_sub'
p714
S'android.telephony'
p715
sg43
(lp716
sS'is_component_arch'
p717
I00
sg45
S'6.0.0_r1'
p718
sba(iArchitecture
Architecture
p719
(dp720
g3
(lp721
(iArchitecture
Cluster
p722
(dp723
g7
(lp724
(iArchitecture
Entity
p725
(dp726
g11
(lp727
sg13
S'android.telephony.PhoneStateListener'
p728
sg15
(lp729
sg17
(lp730
sg19
(lp731
sg21
I0
sba(iArchitecture
Entity
p732
(dp733
g11
(lp734
sg13
S'android.telephony.PhoneStateListener$1'
p735
sg15
(lp736
sg17
(lp737
sg19
(lp738
sg21
I0
sba(iArchitecture
Entity
p739
(dp740
g11
(lp741
sg13
S'android.telephony.PhoneStateListener$IPhoneStateListenerStub'
p742
sg15
(lp743
sg17
(lp744
sg19
(lp745
sg21
I0
sbasg43
(lp746
g728
ag735
ag742
asg21
I0
sg45
S'1000'
p747
sba(iArchitecture
Cluster
p748
(dp749
g7
(lp750
(iArchitecture
Entity
p751
(dp752
g11
(lp753
sg13
S'android.telephony.SubscriptionManager'
p754
sg15
(lp755
sg17
(lp756
sg19
(lp757
sg21
I0
sba(iArchitecture
Entity
p758
(dp759
g11
(lp760
sg13
S'android.telephony.SubscriptionManager$OnSubscriptionsChangedListener'
p761
sg15
(lp762
sg17
(lp763
sg19
(lp764
sg21
I0
sba(iArchitecture
Entity
p765
(dp766
g11
(lp767
sg13
S'android.telephony.SubscriptionManager$OnSubscriptionsChangedListener$1'
p768
sg15
(lp769
sg17
(lp770
sg19
(lp771
sg21
I0
sba(iArchitecture
Entity
p772
(dp773
g11
(lp774
sg13
S'android.telephony.SubscriptionManager$OnSubscriptionsChangedListener$2'
p775
sg15
(lp776
sg17
(lp777
sg19
(lp778
sg21
I0
sbasg43
(lp779
g754
ag761
ag768
ag775
asg21
I0
sg45
S'1026'
p780
sba(iArchitecture
Cluster
p781
(dp782
g7
(lp783
(iArchitecture
Entity
p784
(dp785
g11
(lp786
sg13
S'android.telephony.CellSignalStrengthGsm'
p787
sg15
(lp788
sg17
(lp789
sg19
(lp790
sg21
I0
sba(iArchitecture
Entity
p791
(dp792
g11
(lp793
sg13
S'android.telephony.CellSignalStrengthGsm$1'
p794
sg15
(lp795
sg17
(lp796
sg19
(lp797
sg21
I0
sba(iArchitecture
Entity
p798
(dp799
g11
(lp800
sg13
S'android.telephony.CellSignalStrengthWcdma'
p801
sg15
(lp802
sg17
(lp803
sg19
(lp804
sg21
I0
sba(iArchitecture
Entity
p805
(dp806
g11
(lp807
sg13
S'android.telephony.CellSignalStrengthWcdma$1'
p808
sg15
(lp809
sg17
(lp810
sg19
(lp811
sg21
I0
sbasg43
(lp812
g787
ag794
ag801
ag808
asg21
I0
sg45
S'1253'
p813
sba(iArchitecture
Cluster
p814
(dp815
g7
(lp816
(iArchitecture
Entity
p817
(dp818
g11
(lp819
sg13
S'android.telephony.SmsMessage'
p820
sg15
(lp821
sg17
(lp822
sg19
(lp823
sg21
I0
sbasg43
(lp824
g820
asg21
I0
sg45
S'1255'
p825
sba(iArchitecture
Cluster
p826
(dp827
g7
(lp828
(iArchitecture
Entity
p829
(dp830
g11
(lp831
sg13
S'android.telephony.JapanesePhoneNumberFormatter'
p832
sg15
(lp833
sg17
(lp834
sg19
(lp835
sg21
I0
sbasg43
(lp836
g832
asg21
I0
sg45
S'1331'
p837
sba(iArchitecture
Cluster
p838
(dp839
g7
(lp840
(iArchitecture
Entity
p841
(dp842
g11
(lp843
sg13
S'android.telephony.CellIdentityGsm'
p844
sg15
(lp845
sg17
(lp846
sg19
(lp847
sg21
I0
sba(iArchitecture
Entity
p848
(dp849
g11
(lp850
sg13
S'android.telephony.CellIdentityGsm$1'
p851
sg15
(lp852
sg17
(lp853
sg19
(lp854
sg21
I0
sba(iArchitecture
Entity
p855
(dp856
g11
(lp857
sg13
S'android.telephony.CellIdentityWcdma'
p858
sg15
(lp859
sg17
(lp860
sg19
(lp861
sg21
I0
sba(iArchitecture
Entity
p862
(dp863
g11
(lp864
sg13
S'android.telephony.CellIdentityWcdma$1'
p865
sg15
(lp866
sg17
(lp867
sg19
(lp868
sg21
I0
sbasg43
(lp869
g844
ag851
ag858
ag865
asg21
I0
sg45
S'1347'
p870
sba(iArchitecture
Cluster
p871
(dp872
g7
(lp873
(iArchitecture
Entity
p874
(dp875
g11
(lp876
sg13
S'android.telephony.CellIdentityCdma'
p877
sg15
(lp878
sg17
(lp879
sg19
(lp880
sg21
I0
sba(iArchitecture
Entity
p881
(dp882
g11
(lp883
sg13
S'android.telephony.CellIdentityCdma$1'
p884
sg15
(lp885
sg17
(lp886
sg19
(lp887
sg21
I0
sba(iArchitecture
Entity
p888
(dp889
g11
(lp890
sg13
S'android.telephony.cdma.CdmaCellLocation'
p891
sg15
(lp892
sg17
(lp893
sg19
(lp894
sg21
I0
sbasg43
(lp895
g877
ag884
ag891
asg21
I0
sg45
S'1359'
p896
sba(iArchitecture
Cluster
p897
(dp898
g7
(lp899
(iArchitecture
Entity
p900
(dp901
g11
(lp902
sg13
S'android.telephony.CellLocation'
p903
sg15
(lp904
sg17
(lp905
sg19
(lp906
sg21
I0
sbasg43
(lp907
g903
asg21
I0
sg45
S'1384'
p908
sba(iArchitecture
Cluster
p909
(dp910
g7
(lp911
(iArchitecture
Entity
p912
(dp913
g11
(lp914
sg13
S'android.telephony.PreciseDisconnectCause'
p915
sg15
(lp916
sg17
(lp917
sg19
(lp918
sg21
I0
sba(iArchitecture
Entity
p919
(dp920
g11
(lp921
sg13
S'android.telephony.TelephonyManager'
p922
sg15
(lp923
sg17
(lp924
sg19
(lp925
sg21
I0
sba(iArchitecture
Entity
p926
(dp927
g11
(lp928
sg13
S'android.telephony.TelephonyManager$MultiSimVariants'
p929
sg15
(lp930
sg17
(lp931
sg19
(lp932
sg21
I0
sba(iArchitecture
Entity
p933
(dp934
g11
(lp935
sg13
S'android.telephony.TelephonyManager$WifiCallingChoices'
p936
sg15
(lp937
sg17
(lp938
sg19
(lp939
sg21
I0
sbasg43
(lp940
g915
ag922
ag929
ag936
asg21
I0
sg45
S'1401'
p941
sba(iArchitecture
Cluster
p942
(dp943
g7
(lp944
(iArchitecture
Entity
p945
(dp946
g11
(lp947
sg13
S'android.telephony.CellSignalStrengthCdma'
p948
sg15
(lp949
sg17
(lp950
sg19
(lp951
sg21
I0
sba(iArchitecture
Entity
p952
(dp953
g11
(lp954
sg13
S'android.telephony.CellSignalStrengthCdma$1'
p955
sg15
(lp956
sg17
(lp957
sg19
(lp958
sg21
I0
sba(iArchitecture
Entity
p959
(dp960
g11
(lp961
sg13
S'android.telephony.CellSignalStrengthLte'
p962
sg15
(lp963
sg17
(lp964
sg19
(lp965
sg21
I0
sba(iArchitecture
Entity
p966
(dp967
g11
(lp968
sg13
S'android.telephony.CellSignalStrengthLte$1'
p969
sg15
(lp970
sg17
(lp971
sg19
(lp972
sg21
I0
sba(iArchitecture
Entity
p973
(dp974
g11
(lp975
sg13
S'android.telephony.SignalStrength'
p976
sg15
(lp977
sg17
(lp978
sg19
(lp979
sg21
I0
sba(iArchitecture
Entity
p980
(dp981
g11
(lp982
sg13
S'android.telephony.SignalStrength$1'
p983
sg15
(lp984
sg17
(lp985
sg19
(lp986
sg21
I0
sbasg43
(lp987
g948
ag955
ag962
ag969
ag976
ag983
asg21
I0
sg45
S'1417'
p988
sba(iArchitecture
Cluster
p989
(dp990
g7
(lp991
(iArchitecture
Entity
p992
(dp993
g11
(lp994
sg13
S'android.telephony.gsm.GsmCellLocation'
p995
sg15
(lp996
sg17
(lp997
sg19
(lp998
sg21
I0
sbasg43
(lp999
g995
asg21
I0
sg45
S'301'
p1000
sba(iArchitecture
Cluster
p1001
(dp1002
g7
(lp1003
(iArchitecture
Entity
p1004
(dp1005
g11
(lp1006
sg13
S'android.telephony.Rlog'
p1007
sg15
(lp1008
sg17
(lp1009
sg19
(lp1010
sg21
I0
sbasg43
(lp1011
g1007
asg21
I0
sg45
S'323'
p1012
sba(iArchitecture
Cluster
p1013
(dp1014
g7
(lp1015
(iArchitecture
Entity
p1016
(dp1017
g11
(lp1018
sg13
S'android.telephony.DisconnectCause'
p1019
sg15
(lp1020
sg17
(lp1021
sg19
(lp1022
sg21
I0
sbasg43
(lp1023
g1019
asg21
I0
sg45
S'420'
p1024
sba(iArchitecture
Cluster
p1025
(dp1026
g7
(lp1027
(iArchitecture
Entity
p1028
(dp1029
g11
(lp1030
sg13
S'android.telephony.CellSignalStrength'
p1031
sg15
(lp1032
sg17
(lp1033
sg19
(lp1034
sg21
I0
sbasg43
(lp1035
g1031
asg21
I0
sg45
S'461'
p1036
sba(iArchitecture
Cluster
p1037
(dp1038
g7
(lp1039
(iArchitecture
Entity
p1040
(dp1041
g11
(lp1042
sg13
S'android.telephony.PhoneNumberFormattingTextWatcher'
p1043
sg15
(lp1044
sg17
(lp1045
sg19
(lp1046
sg21
I0
sbasg43
(lp1047
g1043
asg21
I0
sg45
S'486'
p1048
sba(iArchitecture
Cluster
p1049
(dp1050
g7
(lp1051
(iArchitecture
Entity
p1052
(dp1053
g11
(lp1054
sg13
S'android.telephony.CellInfoGsm'
p1055
sg15
(lp1056
sg17
(lp1057
sg19
(lp1058
sg21
I0
sba(iArchitecture
Entity
p1059
(dp1060
g11
(lp1061
sg13
S'android.telephony.CellInfoGsm$1'
p1062
sg15
(lp1063
sg17
(lp1064
sg19
(lp1065
sg21
I0
sbasg43
(lp1066
g1055
ag1062
asg21
I0
sg45
S'503'
p1067
sba(iArchitecture
Cluster
p1068
(dp1069
g7
(lp1070
(iArchitecture
Entity
p1071
(dp1072
g11
(lp1073
sg13
S'android.telephony.cdma.CdmaSmsCbProgramData'
p1074
sg15
(lp1075
sg17
(lp1076
sg19
(lp1077
sg21
I0
sba(iArchitecture
Entity
p1078
(dp1079
g11
(lp1080
sg13
S'android.telephony.cdma.CdmaSmsCbProgramData$1'
p1081
sg15
(lp1082
sg17
(lp1083
sg19
(lp1084
sg21
I0
sbasg43
(lp1085
g1074
ag1081
asg21
I0
sg45
S'520'
p1086
sba(iArchitecture
Cluster
p1087
(dp1088
g7
(lp1089
(iArchitecture
Entity
p1090
(dp1091
g11
(lp1092
sg13
S'android.telephony.CellInfoLte'
p1093
sg15
(lp1094
sg17
(lp1095
sg19
(lp1096
sg21
I0
sba(iArchitecture
Entity
p1097
(dp1098
g11
(lp1099
sg13
S'android.telephony.CellInfoLte$1'
p1100
sg15
(lp1101
sg17
(lp1102
sg19
(lp1103
sg21
I0
sbasg43
(lp1104
g1093
ag1100
asg21
I0
sg45
S'553'
p1105
sba(iArchitecture
Cluster
p1106
(dp1107
g7
(lp1108
(iArchitecture
Entity
p1109
(dp1110
g11
(lp1111
sg13
S'android.telephony.DataConnectionRealTimeInfo'
p1112
sg15
(lp1113
sg17
(lp1114
sg19
(lp1115
sg21
I0
sba(iArchitecture
Entity
p1116
(dp1117
g11
(lp1118
sg13
S'android.telephony.DataConnectionRealTimeInfo$1'
p1119
sg15
(lp1120
sg17
(lp1121
sg19
(lp1122
sg21
I0
sbasg43
(lp1123
g1112
ag1119
asg21
I0
sg45
S'554'
p1124
sba(iArchitecture
Cluster
p1125
(dp1126
g7
(lp1127
(iArchitecture
Entity
p1128
(dp1129
g11
(lp1130
sg13
S'android.telephony.ModemActivityInfo'
p1131
sg15
(lp1132
sg17
(lp1133
sg19
(lp1134
sg21
I0
sba(iArchitecture
Entity
p1135
(dp1136
g11
(lp1137
sg13
S'android.telephony.ModemActivityInfo$1'
p1138
sg15
(lp1139
sg17
(lp1140
sg19
(lp1141
sg21
I0
sbasg43
(lp1142
g1131
ag1138
asg21
I0
sg45
S'568'
p1143
sba(iArchitecture
Cluster
p1144
(dp1145
g7
(lp1146
(iArchitecture
Entity
p1147
(dp1148
g11
(lp1149
sg13
S'android.telephony.SubscriptionInfo'
p1150
sg15
(lp1151
sg17
(lp1152
sg19
(lp1153
sg21
I0
sba(iArchitecture
Entity
p1154
(dp1155
g11
(lp1156
sg13
S'android.telephony.SubscriptionInfo$1'
p1157
sg15
(lp1158
sg17
(lp1159
sg19
(lp1160
sg21
I0
sbasg43
(lp1161
g1150
ag1157
asg21
I0
sg45
S'584'
p1162
sba(iArchitecture
Cluster
p1163
(dp1164
g7
(lp1165
(iArchitecture
Entity
p1166
(dp1167
g11
(lp1168
sg13
S'android.telephony.CellInfoCdma'
p1169
sg15
(lp1170
sg17
(lp1171
sg19
(lp1172
sg21
I0
sba(iArchitecture
Entity
p1173
(dp1174
g11
(lp1175
sg13
S'android.telephony.CellInfoCdma$1'
p1176
sg15
(lp1177
sg17
(lp1178
sg19
(lp1179
sg21
I0
sbasg43
(lp1180
g1169
ag1176
asg21
I0
sg45
S'589'
p1181
sba(iArchitecture
Cluster
p1182
(dp1183
g7
(lp1184
(iArchitecture
Entity
p1185
(dp1186
g11
(lp1187
sg13
S'android.telephony.cdma.CdmaSmsCbProgramResults'
p1188
sg15
(lp1189
sg17
(lp1190
sg19
(lp1191
sg21
I0
sba(iArchitecture
Entity
p1192
(dp1193
g11
(lp1194
sg13
S'android.telephony.cdma.CdmaSmsCbProgramResults$1'
p1195
sg15
(lp1196
sg17
(lp1197
sg19
(lp1198
sg21
I0
sbasg43
(lp1199
g1188
ag1195
asg21
I0
sg45
S'606'
p1200
sba(iArchitecture
Cluster
p1201
(dp1202
g7
(lp1203
(iArchitecture
Entity
p1204
(dp1205
g11
(lp1206
sg13
S'android.telephony.CellInfo'
p1207
sg15
(lp1208
sg17
(lp1209
sg19
(lp1210
sg21
I0
sba(iArchitecture
Entity
p1211
(dp1212
g11
(lp1213
sg13
S'android.telephony.CellInfo$1'
p1214
sg15
(lp1215
sg17
(lp1216
sg19
(lp1217
sg21
I0
sbasg43
(lp1218
g1207
ag1214
asg21
I0
sg45
S'643'
p1219
sba(iArchitecture
Cluster
p1220
(dp1221
g7
(lp1222
(iArchitecture
Entity
p1223
(dp1224
g11
(lp1225
sg13
S'android.telephony.PreciseCallState'
p1226
sg15
(lp1227
sg17
(lp1228
sg19
(lp1229
sg21
I0
sba(iArchitecture
Entity
p1230
(dp1231
g11
(lp1232
sg13
S'android.telephony.PreciseCallState$1'
p1233
sg15
(lp1234
sg17
(lp1235
sg19
(lp1236
sg21
I0
sbasg43
(lp1237
g1226
ag1233
asg21
I0
sg45
S'647'
p1238
sba(iArchitecture
Cluster
p1239
(dp1240
g7
(lp1241
(iArchitecture
Entity
p1242
(dp1243
g11
(lp1244
sg13
S'android.telephony.NeighboringCellInfo'
p1245
sg15
(lp1246
sg17
(lp1247
sg19
(lp1248
sg21
I0
sba(iArchitecture
Entity
p1249
(dp1250
g11
(lp1251
sg13
S'android.telephony.NeighboringCellInfo$1'
p1252
sg15
(lp1253
sg17
(lp1254
sg19
(lp1255
sg21
I0
sbasg43
(lp1256
g1245
ag1252
asg21
I0
sg45
S'657'
p1257
sba(iArchitecture
Cluster
p1258
(dp1259
g7
(lp1260
(iArchitecture
Entity
p1261
(dp1262
g11
(lp1263
sg13
S'android.telephony.PhoneNumberUtils'
p1264
sg15
(lp1265
sg17
(lp1266
sg19
(lp1267
sg21
I0
sba(iArchitecture
Entity
p1268
(dp1269
g11
(lp1270
sg13
S'android.telephony.PhoneNumberUtils$CountryCallingCodeAndNewIndex'
p1271
sg15
(lp1272
sg17
(lp1273
sg19
(lp1274
sg21
I0
sbasg43
(lp1275
g1264
ag1271
asg21
I0
sg45
S'671'
p1276
sba(iArchitecture
Cluster
p1277
(dp1278
g7
(lp1279
(iArchitecture
Entity
p1280
(dp1281
g11
(lp1282
sg13
S'android.telephony.CellInfoWcdma'
p1283
sg15
(lp1284
sg17
(lp1285
sg19
(lp1286
sg21
I0
sba(iArchitecture
Entity
p1287
(dp1288
g11
(lp1289
sg13
S'android.telephony.CellInfoWcdma$1'
p1290
sg15
(lp1291
sg17
(lp1292
sg19
(lp1293
sg21
I0
sbasg43
(lp1294
g1283
ag1290
asg21
I0
sg45
S'684'
p1295
sba(iArchitecture
Cluster
p1296
(dp1297
g7
(lp1298
(iArchitecture
Entity
p1299
(dp1300
g11
(lp1301
sg13
S'android.telephony.ServiceState'
p1302
sg15
(lp1303
sg17
(lp1304
sg19
(lp1305
sg21
I0
sba(iArchitecture
Entity
p1306
(dp1307
g11
(lp1308
sg13
S'android.telephony.ServiceState$1'
p1309
sg15
(lp1310
sg17
(lp1311
sg19
(lp1312
sg21
I0
sbasg43
(lp1313
g1302
ag1309
asg21
I0
sg45
S'686'
p1314
sba(iArchitecture
Cluster
p1315
(dp1316
g7
(lp1317
(iArchitecture
Entity
p1318
(dp1319
g11
(lp1320
sg13
S'android.telephony.IccOpenLogicalChannelResponse'
p1321
sg15
(lp1322
sg17
(lp1323
sg19
(lp1324
sg21
I0
sba(iArchitecture
Entity
p1325
(dp1326
g11
(lp1327
sg13
S'android.telephony.IccOpenLogicalChannelResponse$1'
p1328
sg15
(lp1329
sg17
(lp1330
sg19
(lp1331
sg21
I0
sbasg43
(lp1332
g1321
ag1328
asg21
I0
sg45
S'694'
p1333
sba(iArchitecture
Cluster
p1334
(dp1335
g7
(lp1336
(iArchitecture
Entity
p1337
(dp1338
g11
(lp1339
sg13
S'android.telephony.RadioAccessFamily'
p1340
sg15
(lp1341
sg17
(lp1342
sg19
(lp1343
sg21
I0
sba(iArchitecture
Entity
p1344
(dp1345
g11
(lp1346
sg13
S'android.telephony.RadioAccessFamily$1'
p1347
sg15
(lp1348
sg17
(lp1349
sg19
(lp1350
sg21
I0
sbasg43
(lp1351
g1340
ag1347
asg21
I0
sg45
S'713'
p1352
sba(iArchitecture
Cluster
p1353
(dp1354
g7
(lp1355
(iArchitecture
Entity
p1356
(dp1357
g11
(lp1358
sg13
S'android.telephony.PreciseDataConnectionState'
p1359
sg15
(lp1360
sg17
(lp1361
sg19
(lp1362
sg21
I0
sba(iArchitecture
Entity
p1363
(dp1364
g11
(lp1365
sg13
S'android.telephony.PreciseDataConnectionState$1'
p1366
sg15
(lp1367
sg17
(lp1368
sg19
(lp1369
sg21
I0
sbasg43
(lp1370
g1359
ag1366
asg21
I0
sg45
S'747'
p1371
sba(iArchitecture
Cluster
p1372
(dp1373
g7
(lp1374
(iArchitecture
Entity
p1375
(dp1376
g11
(lp1377
sg13
S'android.telephony.CellIdentityLte'
p1378
sg15
(lp1379
sg17
(lp1380
sg19
(lp1381
sg21
I0
sba(iArchitecture
Entity
p1382
(dp1383
g11
(lp1384
sg13
S'android.telephony.CellIdentityLte$1'
p1385
sg15
(lp1386
sg17
(lp1387
sg19
(lp1388
sg21
I0
sbasg43
(lp1389
g1378
ag1385
asg21
I0
sg45
S'765'
p1390
sba(iArchitecture
Cluster
p1391
(dp1392
g7
(lp1393
(iArchitecture
Entity
p1394
(dp1395
g11
(lp1396
sg13
S'android.telephony.VoLteServiceState'
p1397
sg15
(lp1398
sg17
(lp1399
sg19
(lp1400
sg21
I0
sba(iArchitecture
Entity
p1401
(dp1402
g11
(lp1403
sg13
S'android.telephony.VoLteServiceState$1'
p1404
sg15
(lp1405
sg17
(lp1406
sg19
(lp1407
sg21
I0
sbasg43
(lp1408
g1397
ag1404
asg21
I0
sg45
S'781'
p1409
sba(iArchitecture
Cluster
p1410
(dp1411
g7
(lp1412
(iArchitecture
Entity
p1413
(dp1414
g11
(lp1415
sg13
S'android.telephony.CarrierConfigManager'
p1416
sg15
(lp1417
sg17
(lp1418
sg19
(lp1419
sg21
I0
sbasg43
(lp1420
g1416
asg21
I0
sg45
S'96'
p1421
sbasg714
g715
sg43
(lp1422
sg717
I00
sg45
S'7.0.0_r1'
p1423
sba.