(lp0
(iArchitecture
Architecture
p1
(dp2
S'clusters'
p3
(lp4
(iArchitecture
Cluster
p5
(dp6
S'entities'
p7
(lp8
(iArchitecture
Entity
p9
(dp10
S'issue_ids'
p11
(lp12
sS'name'
p13
S'android.mtp.MtpPropertyList'
p14
sS'descs'
p15
(lp16
sS'labels'
p17
(lp18
sS'titles'
p19
(lp20
sS'change'
p21
I0
sbasS'classes'
p22
(lp23
g14
asg21
I0
sS'label'
p24
S'1246'
p25
sba(iArchitecture
Cluster
p26
(dp27
g7
(lp28
(iArchitecture
Entity
p29
(dp30
g11
(lp31
sg13
S'android.mtp.MtpDatabase'
p32
sg15
(lp33
sg17
(lp34
sg19
(lp35
sg21
I0
sba(iArchitecture
Entity
p36
(dp37
g11
(lp38
sg13
S'android.mtp.MtpDatabase$1'
p39
sg15
(lp40
sg17
(lp41
sg19
(lp42
sg21
I0
sba(iArchitecture
Entity
p43
(dp44
g11
(lp45
sg13
S'android.mtp.MtpPropertyGroup'
p46
sg15
(lp47
sg17
(lp48
sg19
(lp49
sg21
I0
sba(iArchitecture
Entity
p50
(dp51
g11
(lp52
sg13
S'android.mtp.MtpPropertyGroup$Property'
p53
sg15
(lp54
sg17
(lp55
sg19
(lp56
sg21
I0
sba(iArchitecture
Entity
p57
(dp58
g11
(lp59
sg13
S'android.mtp.MtpServer'
p60
sg15
(lp61
sg17
(lp62
sg19
(lp63
sg21
I0
sba(iArchitecture
Entity
p64
(dp65
g11
(lp66
sg13
S'android.mtp.MtpStorage'
p67
sg15
(lp68
sg17
(lp69
sg19
(lp70
sg21
I0
sba(iArchitecture
Entity
p71
(dp72
g11
(lp73
sg13
S'android.mtp.MtpStorageInfo'
p74
sg15
(lp75
sg17
(lp76
sg19
(lp77
sg21
I0
sbasg22
(lp78
g32
ag39
ag46
ag53
ag60
ag67
ag74
asg21
I0
sg24
S'1261'
p79
sba(iArchitecture
Cluster
p80
(dp81
g7
(lp82
(iArchitecture
Entity
p83
(dp84
g11
(lp85
sg13
S'android.mtp.MtpDeviceInfo'
p86
sg15
(lp87
sg17
(lp88
sg19
(lp89
sg21
I0
sbasg22
(lp90
g86
asg21
I0
sg24
S'175'
p91
sba(iArchitecture
Cluster
p92
(dp93
g7
(lp94
(iArchitecture
Entity
p95
(dp96
g11
(lp97
sg13
S'android.mtp.MtpDevice'
p98
sg15
(lp99
sg17
(lp100
sg19
(lp101
sg21
I0
sbasg22
(lp102
g98
asg21
I0
sg24
S'377'
p103
sba(iArchitecture
Cluster
p104
(dp105
g7
(lp106
(iArchitecture
Entity
p107
(dp108
g11
(lp109
sg13
S'android.mtp.MtpConstants'
p110
sg15
(lp111
sg17
(lp112
sg19
(lp113
sg21
I0
sbasg22
(lp114
g110
asg21
I0
sg24
S'54'
p115
sba(iArchitecture
Cluster
p116
(dp117
g7
(lp118
(iArchitecture
Entity
p119
(dp120
g11
(lp121
sg13
S'android.mtp.MtpObjectInfo'
p122
sg15
(lp123
sg17
(lp124
sg19
(lp125
sg21
I0
sbasg22
(lp126
g122
asg21
I0
sg24
S'99'
p127
sbasS'target_sub'
p128
S'android.mtp'
p129
sg22
(lp130
sS'is_component_arch'
p131
I00
sg24
S'6.0.0_r1'
p132
sba(iArchitecture
Architecture
p133
(dp134
g3
(lp135
(iArchitecture
Cluster
p136
(dp137
g7
(lp138
(iArchitecture
Entity
p139
(dp140
g11
(lp141
sg13
S'android.mtp.MtpServer'
p142
sg15
(lp143
sg17
(lp144
sg19
(lp145
sg21
I0
sba(iArchitecture
Entity
p146
(dp147
g11
(lp148
sg13
S'android.mtp.MtpStorage'
p149
sg15
(lp150
sg17
(lp151
sg19
(lp152
sg21
I0
sba(iArchitecture
Entity
p153
(dp154
g11
(lp155
sg13
S'android.mtp.MtpStorageInfo'
p156
sg15
(lp157
sg17
(lp158
sg19
(lp159
sg21
I0
sbasg22
(lp160
g142
ag149
ag156
asg21
I0
sg24
S'1299'
p161
sba(iArchitecture
Cluster
p162
(dp163
g7
(lp164
(iArchitecture
Entity
p165
(dp166
g11
(lp167
sg13
S'android.mtp.MtpPropertyList'
p168
sg15
(lp169
sg17
(lp170
sg19
(lp171
sg21
I0
sbasg22
(lp172
g168
asg21
I0
sg24
S'1330'
p173
sba(iArchitecture
Cluster
p174
(dp175
g7
(lp176
(iArchitecture
Entity
p177
(dp178
g11
(lp179
sg13
S'android.mtp.MtpDatabase'
p180
sg15
(lp181
sg17
(lp182
sg19
(lp183
sg21
I0
sba(iArchitecture
Entity
p184
(dp185
g11
(lp186
sg13
S'android.mtp.MtpDatabase$1'
p187
sg15
(lp188
sg17
(lp189
sg19
(lp190
sg21
I0
sba(iArchitecture
Entity
p191
(dp192
g11
(lp193
sg13
S'android.mtp.MtpPropertyGroup'
p194
sg15
(lp195
sg17
(lp196
sg19
(lp197
sg21
I0
sba(iArchitecture
Entity
p198
(dp199
g11
(lp200
sg13
S'android.mtp.MtpPropertyGroup$Property'
p201
sg15
(lp202
sg17
(lp203
sg19
(lp204
sg21
I0
sbasg22
(lp205
g180
ag187
ag194
ag201
asg21
I0
sg24
S'1401'
p206
sba(iArchitecture
Cluster
p207
(dp208
g7
(lp209
(iArchitecture
Entity
p210
(dp211
g11
(lp212
sg13
S'android.mtp.MtpDeviceInfo'
p213
sg15
(lp214
sg17
(lp215
sg19
(lp216
sg21
I0
sbasg22
(lp217
g213
asg21
I0
sg24
S'196'
p218
sba(iArchitecture
Cluster
p219
(dp220
g7
(lp221
(iArchitecture
Entity
p222
(dp223
g11
(lp224
sg13
S'android.mtp.MtpConstants'
p225
sg15
(lp226
sg17
(lp227
sg19
(lp228
sg21
I0
sbasg22
(lp229
g225
asg21
I0
sg24
S'60'
p230
sba(iArchitecture
Cluster
p231
(dp232
g7
(lp233
(iArchitecture
Entity
p234
(dp235
g11
(lp236
sg13
S'android.mtp.MtpDevice'
p237
sg15
(lp238
sg17
(lp239
sg19
(lp240
sg21
I0
sba(iArchitecture
Entity
p241
(dp242
g11
(lp243
sg13
S'android.mtp.MtpDevice$1'
p244
sg15
(lp245
sg17
(lp246
sg19
(lp247
sg21
I0
sbasg22
(lp248
g237
ag244
asg21
I0
sg24
S'626'
p249
sba(iArchitecture
Cluster
p250
(dp251
g7
(lp252
(iArchitecture
Entity
p253
(dp254
g11
(lp255
sg13
S'android.mtp.MtpEvent'
p256
sg15
(lp257
sg17
(lp258
sg19
(lp259
sg21
I0
sba(iArchitecture
Entity
p260
(dp261
g11
(lp262
sg13
S'android.mtp.MtpEvent$IllegalParameterAccess'
p263
sg15
(lp264
sg17
(lp265
sg19
(lp266
sg21
I0
sbasg22
(lp267
g256
ag263
asg21
I0
sg24
S'688'
p268
sba(iArchitecture
Cluster
p269
(dp270
g7
(lp271
(iArchitecture
Entity
p272
(dp273
g11
(lp274
sg13
S'android.mtp.MtpObjectInfo'
p275
sg15
(lp276
sg17
(lp277
sg19
(lp278
sg21
I0
sba(iArchitecture
Entity
p279
(dp280
g11
(lp281
sg13
S'android.mtp.MtpObjectInfo$Builder'
p282
sg15
(lp283
sg17
(lp284
sg19
(lp285
sg21
I0
sbasg22
(lp286
g275
ag282
asg21
I0
sg24
S'772'
p287
sbasg128
g129
sg22
(lp288
sg131
I00
sg24
S'7.0.0_r1'
p289
sba.