(lp0
(iArchitecture
Architecture
p1
(dp2
S'clusters'
p3
(lp4
(iArchitecture
Cluster
p5
(dp6
S'entities'
p7
(lp8
(iArchitecture
Entity
p9
(dp10
S'issue_ids'
p11
(lp12
sS'name'
p13
S'com.android.server.statusbar.StatusBarManagerInternal'
p14
sS'descs'
p15
(lp16
sS'labels'
p17
(lp18
sS'titles'
p19
(lp20
sS'change'
p21
I0
sbasS'classes'
p22
(lp23
g14
asg21
I0
sS'label'
p24
S'1175'
p25
sba(iArchitecture
Cluster
p26
(dp27
g7
(lp28
(iArchitecture
Entity
p29
(dp30
g11
(lp31
sg13
S'com.android.server.statusbar.StatusBarManagerService'
p32
sg15
(lp33
sg17
(lp34
sg19
(lp35
sg21
I0
sba(iArchitecture
Entity
p36
(dp37
g11
(lp38
sg13
S'com.android.server.statusbar.StatusBarManagerService$1'
p39
sg15
(lp40
sg17
(lp41
sg19
(lp42
sg21
I0
sba(iArchitecture
Entity
p43
(dp44
g11
(lp45
sg13
S'com.android.server.statusbar.StatusBarManagerService$2'
p46
sg15
(lp47
sg17
(lp48
sg19
(lp49
sg21
I0
sba(iArchitecture
Entity
p50
(dp51
g11
(lp52
sg13
S'com.android.server.statusbar.StatusBarManagerService$3'
p53
sg15
(lp54
sg17
(lp55
sg19
(lp56
sg21
I0
sba(iArchitecture
Entity
p57
(dp58
g11
(lp59
sg13
S'com.android.server.statusbar.StatusBarManagerService$4'
p60
sg15
(lp61
sg17
(lp62
sg19
(lp63
sg21
I0
sba(iArchitecture
Entity
p64
(dp65
g11
(lp66
sg13
S'com.android.server.statusbar.StatusBarManagerService$5'
p67
sg15
(lp68
sg17
(lp69
sg19
(lp70
sg21
I0
sba(iArchitecture
Entity
p71
(dp72
g11
(lp73
sg13
S'com.android.server.statusbar.StatusBarManagerService$DisableRecord'
p74
sg15
(lp75
sg17
(lp76
sg19
(lp77
sg21
I0
sbasg22
(lp78
g32
ag39
ag46
ag53
ag60
ag67
ag74
asg21
I0
sg24
S'1240'
p79
sbasS'target_sub'
p80
S'com.android.server.statusbar'
p81
sg22
(lp82
sS'is_component_arch'
p83
I00
sg24
S'6.0.0_r1'
p84
sba(iArchitecture
Architecture
p85
(dp86
g3
(lp87
(iArchitecture
Cluster
p88
(dp89
g7
(lp90
(iArchitecture
Entity
p91
(dp92
g11
(lp93
sg13
S'com.android.server.statusbar.StatusBarShellCommand'
p94
sg15
(lp95
sg17
(lp96
sg19
(lp97
sg21
I0
sbasg22
(lp98
g94
asg21
I0
sg24
S'1369'
p99
sba(iArchitecture
Cluster
p100
(dp101
g7
(lp102
(iArchitecture
Entity
p103
(dp104
g11
(lp105
sg13
S'com.android.server.statusbar.StatusBarManagerInternal'
p106
sg15
(lp107
sg17
(lp108
sg19
(lp109
sg21
I0
sbasg22
(lp110
g106
asg21
I0
sg24
S'1384'
p111
sba(iArchitecture
Cluster
p112
(dp113
g7
(lp114
(iArchitecture
Entity
p115
(dp116
g11
(lp117
sg13
S'com.android.server.statusbar.StatusBarManagerService'
p118
sg15
(lp119
sg17
(lp120
sg19
(lp121
sg21
I0
sba(iArchitecture
Entity
p122
(dp123
g11
(lp124
sg13
S'com.android.server.statusbar.StatusBarManagerService$1'
p125
sg15
(lp126
sg17
(lp127
sg19
(lp128
sg21
I0
sba(iArchitecture
Entity
p129
(dp130
g11
(lp131
sg13
S'com.android.server.statusbar.StatusBarManagerService$2'
p132
sg15
(lp133
sg17
(lp134
sg19
(lp135
sg21
I0
sba(iArchitecture
Entity
p136
(dp137
g11
(lp138
sg13
S'com.android.server.statusbar.StatusBarManagerService$3'
p139
sg15
(lp140
sg17
(lp141
sg19
(lp142
sg21
I0
sba(iArchitecture
Entity
p143
(dp144
g11
(lp145
sg13
S'com.android.server.statusbar.StatusBarManagerService$4'
p146
sg15
(lp147
sg17
(lp148
sg19
(lp149
sg21
I0
sba(iArchitecture
Entity
p150
(dp151
g11
(lp152
sg13
S'com.android.server.statusbar.StatusBarManagerService$5'
p153
sg15
(lp154
sg17
(lp155
sg19
(lp156
sg21
I0
sba(iArchitecture
Entity
p157
(dp158
g11
(lp159
sg13
S'com.android.server.statusbar.StatusBarManagerService$DisableRecord'
p160
sg15
(lp161
sg17
(lp162
sg19
(lp163
sg21
I0
sbasg22
(lp164
g118
ag125
ag132
ag139
ag146
ag153
ag160
asg21
I0
sg24
S'1406'
p165
sbasg80
g81
sg22
(lp166
sg83
I00
sg24
S'7.0.0_r1'
p167
sba.