(lp0
(iArchitecture
Architecture
p1
(dp2
S'clusters'
p3
(lp4
(iArchitecture
Cluster
p5
(dp6
S'entities'
p7
(lp8
(iArchitecture
Entity
p9
(dp10
S'issue_ids'
p11
(lp12
sS'name'
p13
S'android.webkit.WebSyncManager'
p14
sS'descs'
p15
(lp16
sS'labels'
p17
(lp18
sS'titles'
p19
(lp20
sS'change'
p21
I0
sbasS'classes'
p22
(lp23
g14
asg21
I0
sS'label'
p24
S'1123'
p25
sba(iArchitecture
Cluster
p26
(dp27
g7
(lp28
(iArchitecture
Entity
p29
(dp30
g11
(lp31
sg13
S'android.webkit.WebViewFragment'
p32
sg15
(lp33
sg17
(lp34
sg19
(lp35
sg21
I0
sbasg22
(lp36
g32
asg21
I0
sg24
S'1184'
p37
sba(iArchitecture
Cluster
p38
(dp39
g7
(lp40
(iArchitecture
Entity
p41
(dp42
g11
(lp43
sg13
S'android.webkit.FindActionModeCallback'
p44
sg15
(lp45
sg17
(lp46
sg19
(lp47
sg21
I0
sba(iArchitecture
Entity
p48
(dp49
g11
(lp50
sg13
S'android.webkit.FindActionModeCallback$NoAction'
p51
sg15
(lp52
sg17
(lp53
sg19
(lp54
sg21
I0
sbasg22
(lp55
g44
ag51
asg21
I0
sg24
S'1197'
p56
sba(iArchitecture
Cluster
p57
(dp58
g7
(lp59
(iArchitecture
Entity
p60
(dp61
g11
(lp62
sg13
S'android.webkit.WebViewDelegate'
p63
sg15
(lp64
sg17
(lp65
sg19
(lp66
sg21
I0
sba(iArchitecture
Entity
p67
(dp68
g11
(lp69
sg13
S'android.webkit.WebViewDelegate$1'
p70
sg15
(lp71
sg17
(lp72
sg19
(lp73
sg21
I0
sba(iArchitecture
Entity
p74
(dp75
g11
(lp76
sg13
S'android.webkit.WebViewDelegate$OnTraceEnabledChangeListener'
p77
sg15
(lp78
sg17
(lp79
sg19
(lp80
sg21
I0
sbasg22
(lp81
g63
ag70
ag77
asg21
I0
sg24
S'1198'
p82
sba(iArchitecture
Cluster
p83
(dp84
g7
(lp85
(iArchitecture
Entity
p86
(dp87
g11
(lp88
sg13
S'android.webkit.PluginStub'
p89
sg15
(lp90
sg17
(lp91
sg19
(lp92
sg21
I0
sbasg22
(lp93
g89
asg21
I0
sg24
S'1222'
p94
sba(iArchitecture
Cluster
p95
(dp96
g7
(lp97
(iArchitecture
Entity
p98
(dp99
g11
(lp100
sg13
S'android.webkit.DownloadListener'
p101
sg15
(lp102
sg17
(lp103
sg19
(lp104
sg21
I0
sba(iArchitecture
Entity
p105
(dp106
g11
(lp107
sg13
S'android.webkit.JavascriptInterface'
p108
sg15
(lp109
sg17
(lp110
sg19
(lp111
sg21
I0
sba(iArchitecture
Entity
p112
(dp113
g11
(lp114
sg13
S'android.webkit.JsPromptResult'
p115
sg15
(lp116
sg17
(lp117
sg19
(lp118
sg21
I0
sba(iArchitecture
Entity
p119
(dp120
g11
(lp121
sg13
S'android.webkit.JsResult'
p122
sg15
(lp123
sg17
(lp124
sg19
(lp125
sg21
I0
sba(iArchitecture
Entity
p126
(dp127
g11
(lp128
sg13
S'android.webkit.JsResult$ResultReceiver'
p129
sg15
(lp130
sg17
(lp131
sg19
(lp132
sg21
I0
sba(iArchitecture
Entity
p133
(dp134
g11
(lp135
sg13
S'android.webkit.SslErrorHandler'
p136
sg15
(lp137
sg17
(lp138
sg19
(lp139
sg21
I0
sba(iArchitecture
Entity
p140
(dp141
g11
(lp142
sg13
S'android.webkit.ValueCallback'
p143
sg15
(lp144
sg17
(lp145
sg19
(lp146
sg21
I0
sbasg22
(lp147
g101
ag108
ag115
ag122
ag129
ag136
ag143
asg21
I0
sg24
S'1223'
p148
sba(iArchitecture
Cluster
p149
(dp150
g7
(lp151
(iArchitecture
Entity
p152
(dp153
g11
(lp154
sg13
S'android.webkit.GeolocationPermissions'
p155
sg15
(lp156
sg17
(lp157
sg19
(lp158
sg21
I0
sba(iArchitecture
Entity
p159
(dp160
g11
(lp161
sg13
S'android.webkit.GeolocationPermissions$Callback'
p162
sg15
(lp163
sg17
(lp164
sg19
(lp165
sg21
I0
sba(iArchitecture
Entity
p166
(dp167
g11
(lp168
sg13
S'android.webkit.WebStorage'
p169
sg15
(lp170
sg17
(lp171
sg19
(lp172
sg21
I0
sba(iArchitecture
Entity
p173
(dp174
g11
(lp175
sg13
S'android.webkit.WebStorage$Origin'
p176
sg15
(lp177
sg17
(lp178
sg19
(lp179
sg21
I0
sba(iArchitecture
Entity
p180
(dp181
g11
(lp182
sg13
S'android.webkit.WebStorage$QuotaUpdater'
p183
sg15
(lp184
sg17
(lp185
sg19
(lp186
sg21
I0
sba(iArchitecture
Entity
p187
(dp188
g11
(lp189
sg13
S'android.webkit.WebViewFactoryProvider'
p190
sg15
(lp191
sg17
(lp192
sg19
(lp193
sg21
I0
sba(iArchitecture
Entity
p194
(dp195
g11
(lp196
sg13
S'android.webkit.WebViewFactoryProvider$Statics'
p197
sg15
(lp198
sg17
(lp199
sg19
(lp200
sg21
I0
sbasg22
(lp201
g155
ag162
ag169
ag176
ag183
ag190
ag197
asg21
I0
sg24
S'1225'
p202
sba(iArchitecture
Cluster
p203
(dp204
g7
(lp205
(iArchitecture
Entity
p206
(dp207
g11
(lp208
sg13
S'android.webkit.WebChromeClient'
p209
sg15
(lp210
sg17
(lp211
sg19
(lp212
sg21
I0
sba(iArchitecture
Entity
p213
(dp214
g11
(lp215
sg13
S'android.webkit.WebChromeClient$CustomViewCallback'
p216
sg15
(lp217
sg17
(lp218
sg19
(lp219
sg21
I0
sba(iArchitecture
Entity
p220
(dp221
g11
(lp222
sg13
S'android.webkit.WebChromeClient$FileChooserParams'
p223
sg15
(lp224
sg17
(lp225
sg19
(lp226
sg21
I0
sba(iArchitecture
Entity
p227
(dp228
g11
(lp229
sg13
S'android.webkit.WebView'
p230
sg15
(lp231
sg17
(lp232
sg19
(lp233
sg21
I0
sba(iArchitecture
Entity
p234
(dp235
g11
(lp236
sg13
S'android.webkit.WebView$FindListener'
p237
sg15
(lp238
sg17
(lp239
sg19
(lp240
sg21
I0
sba(iArchitecture
Entity
p241
(dp242
g11
(lp243
sg13
S'android.webkit.WebView$FindListenerDistributor'
p244
sg15
(lp245
sg17
(lp246
sg19
(lp247
sg21
I0
sba(iArchitecture
Entity
p248
(dp249
g11
(lp250
sg13
S'android.webkit.WebView$HitTestResult'
p251
sg15
(lp252
sg17
(lp253
sg19
(lp254
sg21
I0
sba(iArchitecture
Entity
p255
(dp256
g11
(lp257
sg13
S'android.webkit.WebView$PictureListener'
p258
sg15
(lp259
sg17
(lp260
sg19
(lp261
sg21
I0
sba(iArchitecture
Entity
p262
(dp263
g11
(lp264
sg13
S'android.webkit.WebView$PrivateAccess'
p265
sg15
(lp266
sg17
(lp267
sg19
(lp268
sg21
I0
sba(iArchitecture
Entity
p269
(dp270
g11
(lp271
sg13
S'android.webkit.WebView$VisualStateCallback'
p272
sg15
(lp273
sg17
(lp274
sg19
(lp275
sg21
I0
sba(iArchitecture
Entity
p276
(dp277
g11
(lp278
sg13
S'android.webkit.WebView$WebViewTransport'
p279
sg15
(lp280
sg17
(lp281
sg19
(lp282
sg21
I0
sbasg22
(lp283
g209
ag216
ag223
ag230
ag237
ag244
ag251
ag258
ag265
ag272
ag279
asg21
I0
sg24
S'1232'
p284
sba(iArchitecture
Cluster
p285
(dp286
g7
(lp287
(iArchitecture
Entity
p288
(dp289
g11
(lp290
sg13
S'android.webkit.WebResourceRequest'
p291
sg15
(lp292
sg17
(lp293
sg19
(lp294
sg21
I0
sbasg22
(lp295
g291
asg21
I0
sg24
S'1237'
p296
sba(iArchitecture
Cluster
p297
(dp298
g7
(lp299
(iArchitecture
Entity
p300
(dp301
g11
(lp302
sg13
S'android.webkit.ClientCertRequest'
p303
sg15
(lp304
sg17
(lp305
sg19
(lp306
sg21
I0
sba(iArchitecture
Entity
p307
(dp308
g11
(lp309
sg13
S'android.webkit.HttpAuthHandler'
p310
sg15
(lp311
sg17
(lp312
sg19
(lp313
sg21
I0
sba(iArchitecture
Entity
p314
(dp315
g11
(lp316
sg13
S'android.webkit.PermissionRequest'
p317
sg15
(lp318
sg17
(lp319
sg19
(lp320
sg21
I0
sba(iArchitecture
Entity
p321
(dp322
g11
(lp323
sg13
S'android.webkit.WebBackForwardList'
p324
sg15
(lp325
sg17
(lp326
sg19
(lp327
sg21
I0
sba(iArchitecture
Entity
p328
(dp329
g11
(lp330
sg13
S'android.webkit.WebResourceError'
p331
sg15
(lp332
sg17
(lp333
sg19
(lp334
sg21
I0
sbasg22
(lp335
g303
ag310
ag317
ag324
ag331
asg21
I0
sg24
S'1246'
p336
sba(iArchitecture
Cluster
p337
(dp338
g7
(lp339
(iArchitecture
Entity
p340
(dp341
g11
(lp342
sg13
S'android.webkit.ConsoleMessage'
p343
sg15
(lp344
sg17
(lp345
sg19
(lp346
sg21
I0
sba(iArchitecture
Entity
p347
(dp348
g11
(lp349
sg13
S'android.webkit.ConsoleMessage$MessageLevel'
p350
sg15
(lp351
sg17
(lp352
sg19
(lp353
sg21
I0
sba(iArchitecture
Entity
p354
(dp355
g11
(lp356
sg13
S'android.webkit.WebMessage'
p357
sg15
(lp358
sg17
(lp359
sg19
(lp360
sg21
I0
sba(iArchitecture
Entity
p361
(dp362
g11
(lp363
sg13
S'android.webkit.WebMessagePort'
p364
sg15
(lp365
sg17
(lp366
sg19
(lp367
sg21
I0
sba(iArchitecture
Entity
p368
(dp369
g11
(lp370
sg13
S'android.webkit.WebMessagePort$WebMessageCallback'
p371
sg15
(lp372
sg17
(lp373
sg19
(lp374
sg21
I0
sbasg22
(lp375
g343
ag350
ag357
ag364
ag371
asg21
I0
sg24
S'1249'
p376
sba(iArchitecture
Cluster
p377
(dp378
g7
(lp379
(iArchitecture
Entity
p380
(dp381
g11
(lp382
sg13
S'android.webkit.UrlInterceptHandler'
p383
sg15
(lp384
sg17
(lp385
sg19
(lp386
sg21
I0
sbasg22
(lp387
g383
asg21
I0
sg24
S'150'
p388
sba(iArchitecture
Cluster
p389
(dp390
g7
(lp391
(iArchitecture
Entity
p392
(dp393
g11
(lp394
sg13
S'android.webkit.URLUtil'
p395
sg15
(lp396
sg17
(lp397
sg19
(lp398
sg21
I0
sbasg22
(lp399
g395
asg21
I0
sg24
S'195'
p400
sba(iArchitecture
Cluster
p401
(dp402
g7
(lp403
(iArchitecture
Entity
p404
(dp405
g11
(lp406
sg13
S'android.webkit.WebResourceResponse'
p407
sg15
(lp408
sg17
(lp409
sg19
(lp410
sg21
I0
sbasg22
(lp411
g407
asg21
I0
sg24
S'291'
p412
sba(iArchitecture
Cluster
p413
(dp414
g7
(lp415
(iArchitecture
Entity
p416
(dp417
g11
(lp418
sg13
S'android.webkit.CookieManager'
p419
sg15
(lp420
sg17
(lp421
sg19
(lp422
sg21
I0
sbasg22
(lp423
g419
asg21
I0
sg24
S'301'
p424
sba(iArchitecture
Cluster
p425
(dp426
g7
(lp427
(iArchitecture
Entity
p428
(dp429
g11
(lp430
sg13
S'android.webkit.UrlInterceptRegistry'
p431
sg15
(lp432
sg17
(lp433
sg19
(lp434
sg21
I0
sbasg22
(lp435
g431
asg21
I0
sg24
S'315'
p436
sba(iArchitecture
Cluster
p437
(dp438
g7
(lp439
(iArchitecture
Entity
p440
(dp441
g11
(lp442
sg13
S'android.webkit.MimeTypeMap'
p443
sg15
(lp444
sg17
(lp445
sg19
(lp446
sg21
I0
sbasg22
(lp447
g443
asg21
I0
sg24
S'353'
p448
sba(iArchitecture
Cluster
p449
(dp450
g7
(lp451
(iArchitecture
Entity
p452
(dp453
g11
(lp454
sg13
S'android.webkit.LegacyErrorStrings'
p455
sg15
(lp456
sg17
(lp457
sg19
(lp458
sg21
I0
sbasg22
(lp459
g455
asg21
I0
sg24
S'354'
p460
sba(iArchitecture
Cluster
p461
(dp462
g7
(lp463
(iArchitecture
Entity
p464
(dp465
g11
(lp466
sg13
S'android.webkit.WebHistoryItem'
p467
sg15
(lp468
sg17
(lp469
sg19
(lp470
sg21
I0
sbasg22
(lp471
g467
asg21
I0
sg24
S'385'
p472
sba(iArchitecture
Cluster
p473
(dp474
g7
(lp475
(iArchitecture
Entity
p476
(dp477
g11
(lp478
sg13
S'android.webkit.CookieSyncManager'
p479
sg15
(lp480
sg17
(lp481
sg19
(lp482
sg21
I0
sbasg22
(lp483
g479
asg21
I0
sg24
S'39'
p484
sba(iArchitecture
Cluster
p485
(dp486
g7
(lp487
(iArchitecture
Entity
p488
(dp489
g11
(lp490
sg13
S'android.webkit.WebViewClient'
p491
sg15
(lp492
sg17
(lp493
sg19
(lp494
sg21
I0
sbasg22
(lp495
g491
asg21
I0
sg24
S'396'
p496
sba(iArchitecture
Cluster
p497
(dp498
g7
(lp499
(iArchitecture
Entity
p500
(dp501
g11
(lp502
sg13
S'android.webkit.PluginList'
p503
sg15
(lp504
sg17
(lp505
sg19
(lp506
sg21
I0
sbasg22
(lp507
g503
asg21
I0
sg24
S'404'
p508
sba(iArchitecture
Cluster
p509
(dp510
g7
(lp511
(iArchitecture
Entity
p512
(dp513
g11
(lp514
sg13
S'android.webkit.PluginData'
p515
sg15
(lp516
sg17
(lp517
sg19
(lp518
sg21
I0
sbasg22
(lp519
g515
asg21
I0
sg24
S'427'
p520
sba(iArchitecture
Cluster
p521
(dp522
g7
(lp523
(iArchitecture
Entity
p524
(dp525
g11
(lp526
sg13
S'android.webkit.WebViewDatabase'
p527
sg15
(lp528
sg17
(lp529
sg19
(lp530
sg21
I0
sbasg22
(lp531
g527
asg21
I0
sg24
S'52'
p532
sba(iArchitecture
Cluster
p533
(dp534
g7
(lp535
(iArchitecture
Entity
p536
(dp537
g11
(lp538
sg13
S'android.webkit.CacheManager'
p539
sg15
(lp540
sg17
(lp541
sg19
(lp542
sg21
I0
sba(iArchitecture
Entity
p543
(dp544
g11
(lp545
sg13
S'android.webkit.CacheManager$CacheResult'
p546
sg15
(lp547
sg17
(lp548
sg19
(lp549
sg21
I0
sbasg22
(lp550
g539
ag546
asg21
I0
sg24
S'557'
p551
sba(iArchitecture
Cluster
p552
(dp553
g7
(lp554
(iArchitecture
Entity
p555
(dp556
g11
(lp557
sg13
S'android.webkit.WebIconDatabase'
p558
sg15
(lp559
sg17
(lp560
sg19
(lp561
sg21
I0
sba(iArchitecture
Entity
p562
(dp563
g11
(lp564
sg13
S'android.webkit.WebIconDatabase$IconListener'
p565
sg15
(lp566
sg17
(lp567
sg19
(lp568
sg21
I0
sbasg22
(lp569
g558
ag565
asg21
I0
sg24
S'700'
p570
sba(iArchitecture
Cluster
p571
(dp572
g7
(lp573
(iArchitecture
Entity
p574
(dp575
g11
(lp576
sg13
S'android.webkit.DateSorter'
p577
sg15
(lp578
sg17
(lp579
sg19
(lp580
sg21
I0
sbasg22
(lp581
g577
asg21
I0
sg24
S'80'
p582
sba(iArchitecture
Cluster
p583
(dp584
g7
(lp585
(iArchitecture
Entity
p586
(dp587
g11
(lp588
sg13
S'android.webkit.Plugin'
p589
sg15
(lp590
sg17
(lp591
sg19
(lp592
sg21
I0
sba(iArchitecture
Entity
p593
(dp594
g11
(lp595
sg13
S'android.webkit.Plugin$DefaultClickHandler'
p596
sg15
(lp597
sg17
(lp598
sg19
(lp599
sg21
I0
sba(iArchitecture
Entity
p600
(dp601
g11
(lp602
sg13
S'android.webkit.Plugin$PreferencesClickHandler'
p603
sg15
(lp604
sg17
(lp605
sg19
(lp606
sg21
I0
sbasg22
(lp607
g589
ag596
ag603
asg21
I0
sg24
S'842'
p608
sba(iArchitecture
Cluster
p609
(dp610
g7
(lp611
(iArchitecture
Entity
p612
(dp613
g11
(lp614
sg13
S'android.webkit.JsDialogHelper'
p615
sg15
(lp616
sg17
(lp617
sg19
(lp618
sg21
I0
sba(iArchitecture
Entity
p619
(dp620
g11
(lp621
sg13
S'android.webkit.JsDialogHelper$CancelListener'
p622
sg15
(lp623
sg17
(lp624
sg19
(lp625
sg21
I0
sba(iArchitecture
Entity
p626
(dp627
g11
(lp628
sg13
S'android.webkit.JsDialogHelper$PositiveListener'
p629
sg15
(lp630
sg17
(lp631
sg19
(lp632
sg21
I0
sbasg22
(lp633
g615
ag622
ag629
asg21
I0
sg24
S'850'
p634
sba(iArchitecture
Cluster
p635
(dp636
g7
(lp637
(iArchitecture
Entity
p638
(dp639
g11
(lp640
sg13
S'android.webkit.WebSettings'
p641
sg15
(lp642
sg17
(lp643
sg19
(lp644
sg21
I0
sba(iArchitecture
Entity
p645
(dp646
g11
(lp647
sg13
S'android.webkit.WebSettings$LayoutAlgorithm'
p648
sg15
(lp649
sg17
(lp650
sg19
(lp651
sg21
I0
sba(iArchitecture
Entity
p652
(dp653
g11
(lp654
sg13
S'android.webkit.WebSettings$PluginState'
p655
sg15
(lp656
sg17
(lp657
sg19
(lp658
sg21
I0
sba(iArchitecture
Entity
p659
(dp660
g11
(lp661
sg13
S'android.webkit.WebSettings$RenderPriority'
p662
sg15
(lp663
sg17
(lp664
sg19
(lp665
sg21
I0
sba(iArchitecture
Entity
p666
(dp667
g11
(lp668
sg13
S'android.webkit.WebSettings$TextSize'
p669
sg15
(lp670
sg17
(lp671
sg19
(lp672
sg21
I0
sba(iArchitecture
Entity
p673
(dp674
g11
(lp675
sg13
S'android.webkit.WebSettings$ZoomDensity'
p676
sg15
(lp677
sg17
(lp678
sg19
(lp679
sg21
I0
sbasg22
(lp680
g641
ag648
ag655
ag662
ag669
ag676
asg21
I0
sg24
S'987'
p681
sbasS'target_sub'
p682
S'android.webkit'
p683
sg22
(lp684
sS'is_component_arch'
p685
I00
sg24
S'6.0.0_r1'
p686
sba(iArchitecture
Architecture
p687
(dp688
g3
(lp689
(iArchitecture
Cluster
p690
(dp691
g7
(lp692
(iArchitecture
Entity
p693
(dp694
g11
(lp695
sg13
S'android.webkit.DownloadListener'
p696
sg15
(lp697
sg17
(lp698
sg19
(lp699
sg21
I0
sba(iArchitecture
Entity
p700
(dp701
g11
(lp702
sg13
S'android.webkit.HttpAuthHandler'
p703
sg15
(lp704
sg17
(lp705
sg19
(lp706
sg21
I0
sba(iArchitecture
Entity
p707
(dp708
g11
(lp709
sg13
S'android.webkit.JavascriptInterface'
p710
sg15
(lp711
sg17
(lp712
sg19
(lp713
sg21
I0
sba(iArchitecture
Entity
p714
(dp715
g11
(lp716
sg13
S'android.webkit.JsPromptResult'
p717
sg15
(lp718
sg17
(lp719
sg19
(lp720
sg21
I0
sba(iArchitecture
Entity
p721
(dp722
g11
(lp723
sg13
S'android.webkit.JsResult'
p724
sg15
(lp725
sg17
(lp726
sg19
(lp727
sg21
I0
sba(iArchitecture
Entity
p728
(dp729
g11
(lp730
sg13
S'android.webkit.JsResult$ResultReceiver'
p731
sg15
(lp732
sg17
(lp733
sg19
(lp734
sg21
I0
sba(iArchitecture
Entity
p735
(dp736
g11
(lp737
sg13
S'android.webkit.ServiceWorkerClient'
p738
sg15
(lp739
sg17
(lp740
sg19
(lp741
sg21
I0
sba(iArchitecture
Entity
p742
(dp743
g11
(lp744
sg13
S'android.webkit.SslErrorHandler'
p745
sg15
(lp746
sg17
(lp747
sg19
(lp748
sg21
I0
sba(iArchitecture
Entity
p749
(dp750
g11
(lp751
sg13
S'android.webkit.ValueCallback'
p752
sg15
(lp753
sg17
(lp754
sg19
(lp755
sg21
I0
sba(iArchitecture
Entity
p756
(dp757
g11
(lp758
sg13
S'android.webkit.WebBackForwardList'
p759
sg15
(lp760
sg17
(lp761
sg19
(lp762
sg21
I0
sba(iArchitecture
Entity
p763
(dp764
g11
(lp765
sg13
S'android.webkit.WebResourceError'
p766
sg15
(lp767
sg17
(lp768
sg19
(lp769
sg21
I0
sba(iArchitecture
Entity
p770
(dp771
g11
(lp772
sg13
S'android.webkit.WebViewUpdateService'
p773
sg15
(lp774
sg17
(lp775
sg19
(lp776
sg21
I0
sbasg22
(lp777
g696
ag703
ag710
ag717
ag724
ag731
ag738
ag745
ag752
ag759
ag766
ag773
asg21
I0
sg24
S'1330'
p778
sba(iArchitecture
Cluster
p779
(dp780
g7
(lp781
(iArchitecture
Entity
p782
(dp783
g11
(lp784
sg13
S'android.webkit.ClientCertRequest'
p785
sg15
(lp786
sg17
(lp787
sg19
(lp788
sg21
I0
sba(iArchitecture
Entity
p789
(dp790
g11
(lp791
sg13
S'android.webkit.ConsoleMessage'
p792
sg15
(lp793
sg17
(lp794
sg19
(lp795
sg21
I0
sba(iArchitecture
Entity
p796
(dp797
g11
(lp798
sg13
S'android.webkit.ConsoleMessage$MessageLevel'
p799
sg15
(lp800
sg17
(lp801
sg19
(lp802
sg21
I0
sba(iArchitecture
Entity
p803
(dp804
g11
(lp805
sg13
S'android.webkit.PluginStub'
p806
sg15
(lp807
sg17
(lp808
sg19
(lp809
sg21
I0
sba(iArchitecture
Entity
p810
(dp811
g11
(lp812
sg13
S'android.webkit.WebMessage'
p813
sg15
(lp814
sg17
(lp815
sg19
(lp816
sg21
I0
sba(iArchitecture
Entity
p817
(dp818
g11
(lp819
sg13
S'android.webkit.WebResourceRequest'
p820
sg15
(lp821
sg17
(lp822
sg19
(lp823
sg21
I0
sba(iArchitecture
Entity
p824
(dp825
g11
(lp826
sg13
S'android.webkit.WebSyncManager'
p827
sg15
(lp828
sg17
(lp829
sg19
(lp830
sg21
I0
sbasg22
(lp831
g785
ag792
ag799
ag806
ag813
ag820
ag827
asg21
I0
sg24
S'1331'
p832
sba(iArchitecture
Cluster
p833
(dp834
g7
(lp835
(iArchitecture
Entity
p836
(dp837
g11
(lp838
sg13
S'android.webkit.ServiceWorkerController'
p839
sg15
(lp840
sg17
(lp841
sg19
(lp842
sg21
I0
sbasg22
(lp843
g839
asg21
I0
sg24
S'1340'
p844
sba(iArchitecture
Cluster
p845
(dp846
g7
(lp847
(iArchitecture
Entity
p848
(dp849
g11
(lp850
sg13
S'android.webkit.WebViewProviderInfo'
p851
sg15
(lp852
sg17
(lp853
sg19
(lp854
sg21
I0
sba(iArchitecture
Entity
p855
(dp856
g11
(lp857
sg13
S'android.webkit.WebViewProviderInfo$1'
p858
sg15
(lp859
sg17
(lp860
sg19
(lp861
sg21
I0
sbasg22
(lp862
g851
ag858
asg21
I0
sg24
S'1384'
p863
sba(iArchitecture
Cluster
p864
(dp865
g7
(lp866
(iArchitecture
Entity
p867
(dp868
g11
(lp869
sg13
S'android.webkit.ServiceWorkerWebSettings'
p870
sg15
(lp871
sg17
(lp872
sg19
(lp873
sg21
I0
sbasg22
(lp874
g870
asg21
I0
sg24
S'1394'
p875
sba(iArchitecture
Cluster
p876
(dp877
g7
(lp878
(iArchitecture
Entity
p879
(dp880
g11
(lp881
sg13
S'android.webkit.FindActionModeCallback'
p882
sg15
(lp883
sg17
(lp884
sg19
(lp885
sg21
I0
sba(iArchitecture
Entity
p886
(dp887
g11
(lp888
sg13
S'android.webkit.FindActionModeCallback$NoAction'
p889
sg15
(lp890
sg17
(lp891
sg19
(lp892
sg21
I0
sba(iArchitecture
Entity
p893
(dp894
g11
(lp895
sg13
S'android.webkit.GeolocationPermissions'
p896
sg15
(lp897
sg17
(lp898
sg19
(lp899
sg21
I0
sba(iArchitecture
Entity
p900
(dp901
g11
(lp902
sg13
S'android.webkit.GeolocationPermissions$Callback'
p903
sg15
(lp904
sg17
(lp905
sg19
(lp906
sg21
I0
sba(iArchitecture
Entity
p907
(dp908
g11
(lp909
sg13
S'android.webkit.TokenBindingService'
p910
sg15
(lp911
sg17
(lp912
sg19
(lp913
sg21
I0
sba(iArchitecture
Entity
p914
(dp915
g11
(lp916
sg13
S'android.webkit.TokenBindingService$TokenBindingKey'
p917
sg15
(lp918
sg17
(lp919
sg19
(lp920
sg21
I0
sba(iArchitecture
Entity
p921
(dp922
g11
(lp923
sg13
S'android.webkit.WebStorage'
p924
sg15
(lp925
sg17
(lp926
sg19
(lp927
sg21
I0
sba(iArchitecture
Entity
p928
(dp929
g11
(lp930
sg13
S'android.webkit.WebStorage$Origin'
p931
sg15
(lp932
sg17
(lp933
sg19
(lp934
sg21
I0
sba(iArchitecture
Entity
p935
(dp936
g11
(lp937
sg13
S'android.webkit.WebStorage$QuotaUpdater'
p938
sg15
(lp939
sg17
(lp940
sg19
(lp941
sg21
I0
sba(iArchitecture
Entity
p942
(dp943
g11
(lp944
sg13
S'android.webkit.WebView'
p945
sg15
(lp946
sg17
(lp947
sg19
(lp948
sg21
I0
sba(iArchitecture
Entity
p949
(dp950
g11
(lp951
sg13
S'android.webkit.WebView$FindListener'
p952
sg15
(lp953
sg17
(lp954
sg19
(lp955
sg21
I0
sba(iArchitecture
Entity
p956
(dp957
g11
(lp958
sg13
S'android.webkit.WebView$FindListenerDistributor'
p959
sg15
(lp960
sg17
(lp961
sg19
(lp962
sg21
I0
sba(iArchitecture
Entity
p963
(dp964
g11
(lp965
sg13
S'android.webkit.WebView$HitTestResult'
p966
sg15
(lp967
sg17
(lp968
sg19
(lp969
sg21
I0
sba(iArchitecture
Entity
p970
(dp971
g11
(lp972
sg13
S'android.webkit.WebView$PictureListener'
p973
sg15
(lp974
sg17
(lp975
sg19
(lp976
sg21
I0
sba(iArchitecture
Entity
p977
(dp978
g11
(lp979
sg13
S'android.webkit.WebView$PrivateAccess'
p980
sg15
(lp981
sg17
(lp982
sg19
(lp983
sg21
I0
sba(iArchitecture
Entity
p984
(dp985
g11
(lp986
sg13
S'android.webkit.WebView$VisualStateCallback'
p987
sg15
(lp988
sg17
(lp989
sg19
(lp990
sg21
I0
sba(iArchitecture
Entity
p991
(dp992
g11
(lp993
sg13
S'android.webkit.WebView$WebViewTransport'
p994
sg15
(lp995
sg17
(lp996
sg19
(lp997
sg21
I0
sba(iArchitecture
Entity
p998
(dp999
g11
(lp1000
sg13
S'android.webkit.WebViewFactoryProvider'
p1001
sg15
(lp1002
sg17
(lp1003
sg19
(lp1004
sg21
I0
sba(iArchitecture
Entity
p1005
(dp1006
g11
(lp1007
sg13
S'android.webkit.WebViewFactoryProvider$Statics'
p1008
sg15
(lp1009
sg17
(lp1010
sg19
(lp1011
sg21
I0
sbasg22
(lp1012
g882
ag889
ag896
ag903
ag910
ag917
ag924
ag931
ag938
ag945
ag952
ag959
ag966
ag973
ag980
ag987
ag994
ag1001
ag1008
asg21
I0
sg24
S'1401'
p1013
sba(iArchitecture
Cluster
p1014
(dp1015
g7
(lp1016
(iArchitecture
Entity
p1017
(dp1018
g11
(lp1019
sg13
S'android.webkit.WebChromeClient'
p1020
sg15
(lp1021
sg17
(lp1022
sg19
(lp1023
sg21
I0
sba(iArchitecture
Entity
p1024
(dp1025
g11
(lp1026
sg13
S'android.webkit.WebChromeClient$CustomViewCallback'
p1027
sg15
(lp1028
sg17
(lp1029
sg19
(lp1030
sg21
I0
sba(iArchitecture
Entity
p1031
(dp1032
g11
(lp1033
sg13
S'android.webkit.WebChromeClient$FileChooserParams'
p1034
sg15
(lp1035
sg17
(lp1036
sg19
(lp1037
sg21
I0
sba(iArchitecture
Entity
p1038
(dp1039
g11
(lp1040
sg13
S'android.webkit.WebSettings'
p1041
sg15
(lp1042
sg17
(lp1043
sg19
(lp1044
sg21
I0
sba(iArchitecture
Entity
p1045
(dp1046
g11
(lp1047
sg13
S'android.webkit.WebSettings$LayoutAlgorithm'
p1048
sg15
(lp1049
sg17
(lp1050
sg19
(lp1051
sg21
I0
sba(iArchitecture
Entity
p1052
(dp1053
g11
(lp1054
sg13
S'android.webkit.WebSettings$PluginState'
p1055
sg15
(lp1056
sg17
(lp1057
sg19
(lp1058
sg21
I0
sba(iArchitecture
Entity
p1059
(dp1060
g11
(lp1061
sg13
S'android.webkit.WebSettings$RenderPriority'
p1062
sg15
(lp1063
sg17
(lp1064
sg19
(lp1065
sg21
I0
sba(iArchitecture
Entity
p1066
(dp1067
g11
(lp1068
sg13
S'android.webkit.WebSettings$TextSize'
p1069
sg15
(lp1070
sg17
(lp1071
sg19
(lp1072
sg21
I0
sba(iArchitecture
Entity
p1073
(dp1074
g11
(lp1075
sg13
S'android.webkit.WebSettings$ZoomDensity'
p1076
sg15
(lp1077
sg17
(lp1078
sg19
(lp1079
sg21
I0
sba(iArchitecture
Entity
p1080
(dp1081
g11
(lp1082
sg13
S'android.webkit.WebViewDelegate'
p1083
sg15
(lp1084
sg17
(lp1085
sg19
(lp1086
sg21
I0
sba(iArchitecture
Entity
p1087
(dp1088
g11
(lp1089
sg13
S'android.webkit.WebViewDelegate$1'
p1090
sg15
(lp1091
sg17
(lp1092
sg19
(lp1093
sg21
I0
sba(iArchitecture
Entity
p1094
(dp1095
g11
(lp1096
sg13
S'android.webkit.WebViewDelegate$OnTraceEnabledChangeListener'
p1097
sg15
(lp1098
sg17
(lp1099
sg19
(lp1100
sg21
I0
sbasg22
(lp1101
g1020
ag1027
ag1034
ag1041
ag1048
ag1055
ag1062
ag1069
ag1076
ag1083
ag1090
ag1097
asg21
I0
sg24
S'1406'
p1102
sba(iArchitecture
Cluster
p1103
(dp1104
g7
(lp1105
(iArchitecture
Entity
p1106
(dp1107
g11
(lp1108
sg13
S'android.webkit.WebViewFragment'
p1109
sg15
(lp1110
sg17
(lp1111
sg19
(lp1112
sg21
I0
sba(iArchitecture
Entity
p1113
(dp1114
g11
(lp1115
sg13
S'android.webkit.WebViewProviderResponse'
p1116
sg15
(lp1117
sg17
(lp1118
sg19
(lp1119
sg21
I0
sba(iArchitecture
Entity
p1120
(dp1121
g11
(lp1122
sg13
S'android.webkit.WebViewProviderResponse$1'
p1123
sg15
(lp1124
sg17
(lp1125
sg19
(lp1126
sg21
I0
sbasg22
(lp1127
g1109
ag1116
ag1123
asg21
I0
sg24
S'1411'
p1128
sba(iArchitecture
Cluster
p1129
(dp1130
g7
(lp1131
(iArchitecture
Entity
p1132
(dp1133
g11
(lp1134
sg13
S'android.webkit.CacheManager'
p1135
sg15
(lp1136
sg17
(lp1137
sg19
(lp1138
sg21
I0
sba(iArchitecture
Entity
p1139
(dp1140
g11
(lp1141
sg13
S'android.webkit.CacheManager$CacheResult'
p1142
sg15
(lp1143
sg17
(lp1144
sg19
(lp1145
sg21
I0
sbasg22
(lp1146
g1135
ag1142
asg21
I0
sg24
S'1416'
p1147
sba(iArchitecture
Cluster
p1148
(dp1149
g7
(lp1150
(iArchitecture
Entity
p1151
(dp1152
g11
(lp1153
sg13
S'android.webkit.UrlInterceptHandler'
p1154
sg15
(lp1155
sg17
(lp1156
sg19
(lp1157
sg21
I0
sbasg22
(lp1158
g1154
asg21
I0
sg24
S'165'
p1159
sba(iArchitecture
Cluster
p1160
(dp1161
g7
(lp1162
(iArchitecture
Entity
p1163
(dp1164
g11
(lp1165
sg13
S'android.webkit.PermissionRequest'
p1166
sg15
(lp1167
sg17
(lp1168
sg19
(lp1169
sg21
I0
sbasg22
(lp1170
g1166
asg21
I0
sg24
S'167'
p1171
sba(iArchitecture
Cluster
p1172
(dp1173
g7
(lp1174
(iArchitecture
Entity
p1175
(dp1176
g11
(lp1177
sg13
S'android.webkit.URLUtil'
p1178
sg15
(lp1179
sg17
(lp1180
sg19
(lp1181
sg21
I0
sbasg22
(lp1182
g1178
asg21
I0
sg24
S'218'
p1183
sba(iArchitecture
Cluster
p1184
(dp1185
g7
(lp1186
(iArchitecture
Entity
p1187
(dp1188
g11
(lp1189
sg13
S'android.webkit.WebResourceResponse'
p1190
sg15
(lp1191
sg17
(lp1192
sg19
(lp1193
sg21
I0
sbasg22
(lp1194
g1190
asg21
I0
sg24
S'319'
p1195
sba(iArchitecture
Cluster
p1196
(dp1197
g7
(lp1198
(iArchitecture
Entity
p1199
(dp1200
g11
(lp1201
sg13
S'android.webkit.CookieManager'
p1202
sg15
(lp1203
sg17
(lp1204
sg19
(lp1205
sg21
I0
sbasg22
(lp1206
g1202
asg21
I0
sg24
S'332'
p1207
sba(iArchitecture
Cluster
p1208
(dp1209
g7
(lp1210
(iArchitecture
Entity
p1211
(dp1212
g11
(lp1213
sg13
S'android.webkit.UrlInterceptRegistry'
p1214
sg15
(lp1215
sg17
(lp1216
sg19
(lp1217
sg21
I0
sbasg22
(lp1218
g1214
asg21
I0
sg24
S'346'
p1219
sba(iArchitecture
Cluster
p1220
(dp1221
g7
(lp1222
(iArchitecture
Entity
p1223
(dp1224
g11
(lp1225
sg13
S'android.webkit.MimeTypeMap'
p1226
sg15
(lp1227
sg17
(lp1228
sg19
(lp1229
sg21
I0
sbasg22
(lp1230
g1226
asg21
I0
sg24
S'385'
p1231
sba(iArchitecture
Cluster
p1232
(dp1233
g7
(lp1234
(iArchitecture
Entity
p1235
(dp1236
g11
(lp1237
sg13
S'android.webkit.LegacyErrorStrings'
p1238
sg15
(lp1239
sg17
(lp1240
sg19
(lp1241
sg21
I0
sbasg22
(lp1242
g1238
asg21
I0
sg24
S'386'
p1243
sba(iArchitecture
Cluster
p1244
(dp1245
g7
(lp1246
(iArchitecture
Entity
p1247
(dp1248
g11
(lp1249
sg13
S'android.webkit.WebHistoryItem'
p1250
sg15
(lp1251
sg17
(lp1252
sg19
(lp1253
sg21
I0
sbasg22
(lp1254
g1250
asg21
I0
sg24
S'422'
p1255
sba(iArchitecture
Cluster
p1256
(dp1257
g7
(lp1258
(iArchitecture
Entity
p1259
(dp1260
g11
(lp1261
sg13
S'android.webkit.WebViewClient'
p1262
sg15
(lp1263
sg17
(lp1264
sg19
(lp1265
sg21
I0
sbasg22
(lp1266
g1262
asg21
I0
sg24
S'435'
p1267
sba(iArchitecture
Cluster
p1268
(dp1269
g7
(lp1270
(iArchitecture
Entity
p1271
(dp1272
g11
(lp1273
sg13
S'android.webkit.PluginList'
p1274
sg15
(lp1275
sg17
(lp1276
sg19
(lp1277
sg21
I0
sbasg22
(lp1278
g1274
asg21
I0
sg24
S'443'
p1279
sba(iArchitecture
Cluster
p1280
(dp1281
g7
(lp1282
(iArchitecture
Entity
p1283
(dp1284
g11
(lp1285
sg13
S'android.webkit.CookieSyncManager'
p1286
sg15
(lp1287
sg17
(lp1288
sg19
(lp1289
sg21
I0
sbasg22
(lp1290
g1286
asg21
I0
sg24
S'47'
p1291
sba(iArchitecture
Cluster
p1292
(dp1293
g7
(lp1294
(iArchitecture
Entity
p1295
(dp1296
g11
(lp1297
sg13
S'android.webkit.PluginData'
p1298
sg15
(lp1299
sg17
(lp1300
sg19
(lp1301
sg21
I0
sbasg22
(lp1302
g1298
asg21
I0
sg24
S'471'
p1303
sba(iArchitecture
Cluster
p1304
(dp1305
g7
(lp1306
(iArchitecture
Entity
p1307
(dp1308
g11
(lp1309
sg13
S'android.webkit.WebMessagePort'
p1310
sg15
(lp1311
sg17
(lp1312
sg19
(lp1313
sg21
I0
sba(iArchitecture
Entity
p1314
(dp1315
g11
(lp1316
sg13
S'android.webkit.WebMessagePort$WebMessageCallback'
p1317
sg15
(lp1318
sg17
(lp1319
sg19
(lp1320
sg21
I0
sbasg22
(lp1321
g1310
ag1317
asg21
I0
sg24
S'533'
p1322
sba(iArchitecture
Cluster
p1323
(dp1324
g7
(lp1325
(iArchitecture
Entity
p1326
(dp1327
g11
(lp1328
sg13
S'android.webkit.WebViewDatabase'
p1329
sg15
(lp1330
sg17
(lp1331
sg19
(lp1332
sg21
I0
sbasg22
(lp1333
g1329
asg21
I0
sg24
S'58'
p1334
sba(iArchitecture
Cluster
p1335
(dp1336
g7
(lp1337
(iArchitecture
Entity
p1338
(dp1339
g11
(lp1340
sg13
S'android.webkit.WebIconDatabase'
p1341
sg15
(lp1342
sg17
(lp1343
sg19
(lp1344
sg21
I0
sba(iArchitecture
Entity
p1345
(dp1346
g11
(lp1347
sg13
S'android.webkit.WebIconDatabase$IconListener'
p1348
sg15
(lp1349
sg17
(lp1350
sg19
(lp1351
sg21
I0
sbasg22
(lp1352
g1341
ag1348
asg21
I0
sg24
S'794'
p1353
sba(iArchitecture
Cluster
p1354
(dp1355
g7
(lp1356
(iArchitecture
Entity
p1357
(dp1358
g11
(lp1359
sg13
S'android.webkit.DateSorter'
p1360
sg15
(lp1361
sg17
(lp1362
sg19
(lp1363
sg21
I0
sbasg22
(lp1364
g1360
asg21
I0
sg24
S'89'
p1365
sba(iArchitecture
Cluster
p1366
(dp1367
g7
(lp1368
(iArchitecture
Entity
p1369
(dp1370
g11
(lp1371
sg13
S'android.webkit.Plugin'
p1372
sg15
(lp1373
sg17
(lp1374
sg19
(lp1375
sg21
I0
sba(iArchitecture
Entity
p1376
(dp1377
g11
(lp1378
sg13
S'android.webkit.Plugin$DefaultClickHandler'
p1379
sg15
(lp1380
sg17
(lp1381
sg19
(lp1382
sg21
I0
sba(iArchitecture
Entity
p1383
(dp1384
g11
(lp1385
sg13
S'android.webkit.Plugin$PreferencesClickHandler'
p1386
sg15
(lp1387
sg17
(lp1388
sg19
(lp1389
sg21
I0
sbasg22
(lp1390
g1372
ag1379
ag1386
asg21
I0
sg24
S'944'
p1391
sba(iArchitecture
Cluster
p1392
(dp1393
g7
(lp1394
(iArchitecture
Entity
p1395
(dp1396
g11
(lp1397
sg13
S'android.webkit.JsDialogHelper'
p1398
sg15
(lp1399
sg17
(lp1400
sg19
(lp1401
sg21
I0
sba(iArchitecture
Entity
p1402
(dp1403
g11
(lp1404
sg13
S'android.webkit.JsDialogHelper$CancelListener'
p1405
sg15
(lp1406
sg17
(lp1407
sg19
(lp1408
sg21
I0
sba(iArchitecture
Entity
p1409
(dp1410
g11
(lp1411
sg13
S'android.webkit.JsDialogHelper$PositiveListener'
p1412
sg15
(lp1413
sg17
(lp1414
sg19
(lp1415
sg21
I0
sbasg22
(lp1416
g1398
ag1405
ag1412
asg21
I0
sg24
S'954'
p1417
sbasg682
g683
sg22
(lp1418
sg685
I00
sg24
S'7.0.0_r1'
p1419
sba.