(lp0
(iArchitecture
Architecture
p1
(dp2
S'clusters'
p3
(lp4
(iArchitecture
Cluster
p5
(dp6
S'entities'
p7
(lp8
(iArchitecture
Entity
p9
(dp10
S'issue_ids'
p11
(lp12
sS'name'
p13
S'com.android.server.updates.CarrierProvisioningUrlsInstallReceiver'
p14
sS'descs'
p15
(lp16
sS'labels'
p17
(lp18
sS'titles'
p19
(lp20
sS'change'
p21
I0
sba(iArchitecture
Entity
p22
(dp23
g11
(lp24
sg13
S'com.android.server.updates.CertPinInstallReceiver'
p25
sg15
(lp26
sg17
(lp27
sg19
(lp28
sg21
I0
sba(iArchitecture
Entity
p29
(dp30
g11
(lp31
sg13
S'com.android.server.updates.IntentFirewallInstallReceiver'
p32
sg15
(lp33
sg17
(lp34
sg19
(lp35
sg21
I0
sba(iArchitecture
Entity
p36
(dp37
g11
(lp38
sg13
S'com.android.server.updates.SmsShortCodesInstallReceiver'
p39
sg15
(lp40
sg17
(lp41
sg19
(lp42
sg21
I0
sbasS'classes'
p43
(lp44
g14
ag25
ag32
ag39
asg21
I0
sS'label'
p45
S'1223'
p46
sba(iArchitecture
Cluster
p47
(dp48
g7
(lp49
(iArchitecture
Entity
p50
(dp51
g11
(lp52
sg13
S'com.android.server.updates.ConfigUpdateInstallReceiver'
p53
sg15
(lp54
sg17
(lp55
sg19
(lp56
sg21
I0
sba(iArchitecture
Entity
p57
(dp58
g11
(lp59
sg13
S'com.android.server.updates.ConfigUpdateInstallReceiver$1'
p60
sg15
(lp61
sg17
(lp62
sg19
(lp63
sg21
I0
sbasg43
(lp64
g53
ag60
asg21
I0
sg45
S'1246'
p65
sba(iArchitecture
Cluster
p66
(dp67
g7
(lp68
(iArchitecture
Entity
p69
(dp70
g11
(lp71
sg13
S'com.android.server.updates.TzDataInstallReceiver'
p72
sg15
(lp73
sg17
(lp74
sg19
(lp75
sg21
I0
sbasg43
(lp76
g72
asg21
I0
sg45
S'344'
p77
sbasS'target_sub'
p78
S'com.android.server.updates'
p79
sg43
(lp80
sS'is_component_arch'
p81
I00
sg45
S'6.0.0_r1'
p82
sba(iArchitecture
Architecture
p83
(dp84
g3
(lp85
(iArchitecture
Cluster
p86
(dp87
g7
(lp88
(iArchitecture
Entity
p89
(dp90
g11
(lp91
sg13
S'com.android.server.updates.ApnDbInstallReceiver'
p92
sg15
(lp93
sg17
(lp94
sg19
(lp95
sg21
I0
sba(iArchitecture
Entity
p96
(dp97
g11
(lp98
sg13
S'com.android.server.updates.CarrierProvisioningUrlsInstallReceiver'
p99
sg15
(lp100
sg17
(lp101
sg19
(lp102
sg21
I0
sba(iArchitecture
Entity
p103
(dp104
g11
(lp105
sg13
S'com.android.server.updates.CertPinInstallReceiver'
p106
sg15
(lp107
sg17
(lp108
sg19
(lp109
sg21
I0
sba(iArchitecture
Entity
p110
(dp111
g11
(lp112
sg13
S'com.android.server.updates.IntentFirewallInstallReceiver'
p113
sg15
(lp114
sg17
(lp115
sg19
(lp116
sg21
I0
sba(iArchitecture
Entity
p117
(dp118
g11
(lp119
sg13
S'com.android.server.updates.SmsShortCodesInstallReceiver'
p120
sg15
(lp121
sg17
(lp122
sg19
(lp123
sg21
I0
sbasg43
(lp124
g92
ag99
ag106
ag113
ag120
asg21
I0
sg45
S'1330'
p125
sba(iArchitecture
Cluster
p126
(dp127
g7
(lp128
(iArchitecture
Entity
p129
(dp130
g11
(lp131
sg13
S'com.android.server.updates.ConfigUpdateInstallReceiver'
p132
sg15
(lp133
sg17
(lp134
sg19
(lp135
sg21
I0
sba(iArchitecture
Entity
p136
(dp137
g11
(lp138
sg13
S'com.android.server.updates.ConfigUpdateInstallReceiver$1'
p139
sg15
(lp140
sg17
(lp141
sg19
(lp142
sg21
I0
sbasg43
(lp143
g132
ag139
asg21
I0
sg45
S'1401'
p144
sba(iArchitecture
Cluster
p145
(dp146
g7
(lp147
(iArchitecture
Entity
p148
(dp149
g11
(lp150
sg13
S'com.android.server.updates.TzDataInstallReceiver'
p151
sg15
(lp152
sg17
(lp153
sg19
(lp154
sg21
I0
sbasg43
(lp155
g151
asg21
I0
sg45
S'376'
p156
sbasg78
g79
sg43
(lp157
sg81
I00
sg45
S'7.0.0_r1'
p158
sba.