(lp0
(iArchitecture
Architecture
p1
(dp2
S'clusters'
p3
(lp4
(iArchitecture
Cluster
p5
(dp6
S'entities'
p7
(lp8
(iArchitecture
Entity
p9
(dp10
S'issue_ids'
p11
(lp12
sS'name'
p13
S'android.database.sqlite.SQLiteDatabaseConfiguration'
p14
sS'descs'
p15
(lp16
sS'labels'
p17
(lp18
sS'titles'
p19
(lp20
sS'change'
p21
I0
sbasS'classes'
p22
(lp23
g14
asg21
I0
sS'label'
p24
S'1164'
p25
sba(iArchitecture
Cluster
p26
(dp27
g7
(lp28
(iArchitecture
Entity
p29
(dp30
g11
(lp31
sg13
S'android.database.DataSetObservable'
p32
sg15
(lp33
sg17
(lp34
sg19
(lp35
sg21
I0
sbasg22
(lp36
g32
asg21
I0
sg24
S'1176'
p37
sba(iArchitecture
Cluster
p38
(dp39
g7
(lp40
(iArchitecture
Entity
p41
(dp42
g11
(lp43
sg13
S'android.database.sqlite.SqliteWrapper'
p44
sg15
(lp45
sg17
(lp46
sg19
(lp47
sg21
I0
sbasg22
(lp48
g44
asg21
I0
sg24
S'1189'
p49
sba(iArchitecture
Cluster
p50
(dp51
g7
(lp52
(iArchitecture
Entity
p53
(dp54
g11
(lp55
sg13
S'android.database.MergeCursor'
p56
sg15
(lp57
sg17
(lp58
sg19
(lp59
sg21
I0
sba(iArchitecture
Entity
p60
(dp61
g11
(lp62
sg13
S'android.database.MergeCursor$1'
p63
sg15
(lp64
sg17
(lp65
sg19
(lp66
sg21
I0
sbasg22
(lp67
g56
ag63
asg21
I0
sg24
S'1216'
p68
sba(iArchitecture
Cluster
p69
(dp70
g7
(lp71
(iArchitecture
Entity
p72
(dp73
g11
(lp74
sg13
S'android.database.BulkCursorDescriptor'
p75
sg15
(lp76
sg17
(lp77
sg19
(lp78
sg21
I0
sba(iArchitecture
Entity
p79
(dp80
g11
(lp81
sg13
S'android.database.BulkCursorDescriptor$1'
p82
sg15
(lp83
sg17
(lp84
sg19
(lp85
sg21
I0
sba(iArchitecture
Entity
p86
(dp87
g11
(lp88
sg13
S'android.database.CharArrayBuffer'
p89
sg15
(lp90
sg17
(lp91
sg19
(lp92
sg21
I0
sba(iArchitecture
Entity
p93
(dp94
g11
(lp95
sg13
S'android.database.CursorIndexOutOfBoundsException'
p96
sg15
(lp97
sg17
(lp98
sg19
(lp99
sg21
I0
sba(iArchitecture
Entity
p100
(dp101
g11
(lp102
sg13
S'android.database.CursorWindowAllocationException'
p103
sg15
(lp104
sg17
(lp105
sg19
(lp106
sg21
I0
sba(iArchitecture
Entity
p107
(dp108
g11
(lp109
sg13
S'android.database.DataSetObserver'
p110
sg15
(lp111
sg17
(lp112
sg19
(lp113
sg21
I0
sba(iArchitecture
Entity
p114
(dp115
g11
(lp116
sg13
S'android.database.DatabaseErrorHandler'
p117
sg15
(lp118
sg17
(lp119
sg19
(lp120
sg21
I0
sba(iArchitecture
Entity
p121
(dp122
g11
(lp123
sg13
S'android.database.SQLException'
p124
sg15
(lp125
sg17
(lp126
sg19
(lp127
sg21
I0
sba(iArchitecture
Entity
p128
(dp129
g11
(lp130
sg13
S'android.database.StaleDataException'
p131
sg15
(lp132
sg17
(lp133
sg19
(lp134
sg21
I0
sba(iArchitecture
Entity
p135
(dp136
g11
(lp137
sg13
S'android.database.sqlite.DatabaseObjectNotClosedException'
p138
sg15
(lp139
sg17
(lp140
sg19
(lp141
sg21
I0
sba(iArchitecture
Entity
p142
(dp143
g11
(lp144
sg13
S'android.database.sqlite.SQLiteAbortException'
p145
sg15
(lp146
sg17
(lp147
sg19
(lp148
sg21
I0
sba(iArchitecture
Entity
p149
(dp150
g11
(lp151
sg13
S'android.database.sqlite.SQLiteAccessPermException'
p152
sg15
(lp153
sg17
(lp154
sg19
(lp155
sg21
I0
sba(iArchitecture
Entity
p156
(dp157
g11
(lp158
sg13
S'android.database.sqlite.SQLiteBindOrColumnIndexOutOfRangeException'
p159
sg15
(lp160
sg17
(lp161
sg19
(lp162
sg21
I0
sba(iArchitecture
Entity
p163
(dp164
g11
(lp165
sg13
S'android.database.sqlite.SQLiteBlobTooBigException'
p166
sg15
(lp167
sg17
(lp168
sg19
(lp169
sg21
I0
sba(iArchitecture
Entity
p170
(dp171
g11
(lp172
sg13
S'android.database.sqlite.SQLiteCantOpenDatabaseException'
p173
sg15
(lp174
sg17
(lp175
sg19
(lp176
sg21
I0
sba(iArchitecture
Entity
p177
(dp178
g11
(lp179
sg13
S'android.database.sqlite.SQLiteConstraintException'
p180
sg15
(lp181
sg17
(lp182
sg19
(lp183
sg21
I0
sba(iArchitecture
Entity
p184
(dp185
g11
(lp186
sg13
S'android.database.sqlite.SQLiteCustomFunction'
p187
sg15
(lp188
sg17
(lp189
sg19
(lp190
sg21
I0
sba(iArchitecture
Entity
p191
(dp192
g11
(lp193
sg13
S'android.database.sqlite.SQLiteDatabaseCorruptException'
p194
sg15
(lp195
sg17
(lp196
sg19
(lp197
sg21
I0
sba(iArchitecture
Entity
p198
(dp199
g11
(lp200
sg13
S'android.database.sqlite.SQLiteDatabaseLockedException'
p201
sg15
(lp202
sg17
(lp203
sg19
(lp204
sg21
I0
sba(iArchitecture
Entity
p205
(dp206
g11
(lp207
sg13
S'android.database.sqlite.SQLiteDatatypeMismatchException'
p208
sg15
(lp209
sg17
(lp210
sg19
(lp211
sg21
I0
sba(iArchitecture
Entity
p212
(dp213
g11
(lp214
sg13
S'android.database.sqlite.SQLiteDiskIOException'
p215
sg15
(lp216
sg17
(lp217
sg19
(lp218
sg21
I0
sba(iArchitecture
Entity
p219
(dp220
g11
(lp221
sg13
S'android.database.sqlite.SQLiteDoneException'
p222
sg15
(lp223
sg17
(lp224
sg19
(lp225
sg21
I0
sba(iArchitecture
Entity
p226
(dp227
g11
(lp228
sg13
S'android.database.sqlite.SQLiteException'
p229
sg15
(lp230
sg17
(lp231
sg19
(lp232
sg21
I0
sba(iArchitecture
Entity
p233
(dp234
g11
(lp235
sg13
S'android.database.sqlite.SQLiteFullException'
p236
sg15
(lp237
sg17
(lp238
sg19
(lp239
sg21
I0
sba(iArchitecture
Entity
p240
(dp241
g11
(lp242
sg13
S'android.database.sqlite.SQLiteMisuseException'
p243
sg15
(lp244
sg17
(lp245
sg19
(lp246
sg21
I0
sba(iArchitecture
Entity
p247
(dp248
g11
(lp249
sg13
S'android.database.sqlite.SQLiteOutOfMemoryException'
p250
sg15
(lp251
sg17
(lp252
sg19
(lp253
sg21
I0
sba(iArchitecture
Entity
p254
(dp255
g11
(lp256
sg13
S'android.database.sqlite.SQLiteReadOnlyDatabaseException'
p257
sg15
(lp258
sg17
(lp259
sg19
(lp260
sg21
I0
sba(iArchitecture
Entity
p261
(dp262
g11
(lp263
sg13
S'android.database.sqlite.SQLiteStatementInfo'
p264
sg15
(lp265
sg17
(lp266
sg19
(lp267
sg21
I0
sba(iArchitecture
Entity
p268
(dp269
g11
(lp270
sg13
S'android.database.sqlite.SQLiteTableLockedException'
p271
sg15
(lp272
sg17
(lp273
sg19
(lp274
sg21
I0
sba(iArchitecture
Entity
p275
(dp276
g11
(lp277
sg13
S'android.database.sqlite.SQLiteTransactionListener'
p278
sg15
(lp279
sg17
(lp280
sg19
(lp281
sg21
I0
sbasg22
(lp282
g75
ag82
ag89
ag96
ag103
ag110
ag117
ag124
ag131
ag138
ag145
ag152
ag159
ag166
ag173
ag180
ag187
ag194
ag201
ag208
ag215
ag222
ag229
ag236
ag243
ag250
ag257
ag264
ag271
ag278
asg21
I0
sg24
S'1223'
p283
sba(iArchitecture
Cluster
p284
(dp285
g7
(lp286
(iArchitecture
Entity
p287
(dp288
g11
(lp289
sg13
S'android.database.sqlite.SQLiteConnection'
p290
sg15
(lp291
sg17
(lp292
sg19
(lp293
sg21
I0
sba(iArchitecture
Entity
p294
(dp295
g11
(lp296
sg13
S'android.database.sqlite.SQLiteConnection$Operation'
p297
sg15
(lp298
sg17
(lp299
sg19
(lp300
sg21
I0
sba(iArchitecture
Entity
p301
(dp302
g11
(lp303
sg13
S'android.database.sqlite.SQLiteConnection$OperationLog'
p304
sg15
(lp305
sg17
(lp306
sg19
(lp307
sg21
I0
sba(iArchitecture
Entity
p308
(dp309
g11
(lp310
sg13
S'android.database.sqlite.SQLiteConnection$PreparedStatement'
p311
sg15
(lp312
sg17
(lp313
sg19
(lp314
sg21
I0
sba(iArchitecture
Entity
p315
(dp316
g11
(lp317
sg13
S'android.database.sqlite.SQLiteConnection$PreparedStatementCache'
p318
sg15
(lp319
sg17
(lp320
sg19
(lp321
sg21
I0
sba(iArchitecture
Entity
p322
(dp323
g11
(lp324
sg13
S'android.database.sqlite.SQLiteSession'
p325
sg15
(lp326
sg17
(lp327
sg19
(lp328
sg21
I0
sba(iArchitecture
Entity
p329
(dp330
g11
(lp331
sg13
S'android.database.sqlite.SQLiteSession$Transaction'
p332
sg15
(lp333
sg17
(lp334
sg19
(lp335
sg21
I0
sbasg22
(lp336
g290
ag297
ag304
ag311
ag318
ag325
ag332
asg21
I0
sg24
S'1230'
p337
sba(iArchitecture
Cluster
p338
(dp339
g7
(lp340
(iArchitecture
Entity
p341
(dp342
g11
(lp343
sg13
S'android.database.IBulkCursor'
p344
sg15
(lp345
sg17
(lp346
sg19
(lp347
sg21
I0
sba(iArchitecture
Entity
p348
(dp349
g11
(lp350
sg13
S'android.database.sqlite.SQLiteCursorDriver'
p351
sg15
(lp352
sg17
(lp353
sg19
(lp354
sg21
I0
sba(iArchitecture
Entity
p355
(dp356
g11
(lp357
sg13
S'android.database.sqlite.SQLiteDirectCursorDriver'
p358
sg15
(lp359
sg17
(lp360
sg19
(lp361
sg21
I0
sbasg22
(lp362
g344
ag351
ag358
asg21
I0
sg24
S'1237'
p363
sba(iArchitecture
Cluster
p364
(dp365
g7
(lp366
(iArchitecture
Entity
p367
(dp368
g11
(lp369
sg13
S'android.database.AbstractCursor'
p370
sg15
(lp371
sg17
(lp372
sg19
(lp373
sg21
I0
sba(iArchitecture
Entity
p374
(dp375
g11
(lp376
sg13
S'android.database.AbstractCursor$SelfContentObserver'
p377
sg15
(lp378
sg17
(lp379
sg19
(lp380
sg21
I0
sba(iArchitecture
Entity
p381
(dp382
g11
(lp383
sg13
S'android.database.BulkCursorToCursorAdaptor'
p384
sg15
(lp385
sg17
(lp386
sg19
(lp387
sg21
I0
sba(iArchitecture
Entity
p388
(dp389
g11
(lp390
sg13
S'android.database.Cursor'
p391
sg15
(lp392
sg17
(lp393
sg19
(lp394
sg21
I0
sba(iArchitecture
Entity
p395
(dp396
g11
(lp397
sg13
S'android.database.CursorWrapper'
p398
sg15
(lp399
sg17
(lp400
sg19
(lp401
sg21
I0
sba(iArchitecture
Entity
p402
(dp403
g11
(lp404
sg13
S'android.database.sqlite.SQLiteGlobal'
p405
sg15
(lp406
sg17
(lp407
sg19
(lp408
sg21
I0
sba(iArchitecture
Entity
p409
(dp410
g11
(lp411
sg13
S'android.database.sqlite.SQLiteProgram'
p412
sg15
(lp413
sg17
(lp414
sg19
(lp415
sg21
I0
sba(iArchitecture
Entity
p416
(dp417
g11
(lp418
sg13
S'android.database.sqlite.SQLiteStatement'
p419
sg15
(lp420
sg17
(lp421
sg19
(lp422
sg21
I0
sbasg22
(lp423
g370
ag377
ag384
ag391
ag398
ag405
ag412
ag419
asg21
I0
sg24
S'1246'
p424
sba(iArchitecture
Cluster
p425
(dp426
g7
(lp427
(iArchitecture
Entity
p428
(dp429
g11
(lp430
sg13
S'android.database.DatabaseUtils'
p431
sg15
(lp432
sg17
(lp433
sg19
(lp434
sg21
I0
sba(iArchitecture
Entity
p435
(dp436
g11
(lp437
sg13
S'android.database.DatabaseUtils$InsertHelper'
p438
sg15
(lp439
sg17
(lp440
sg19
(lp441
sg21
I0
sba(iArchitecture
Entity
p442
(dp443
g11
(lp444
sg13
S'android.database.sqlite.SQLiteCursor'
p445
sg15
(lp446
sg17
(lp447
sg19
(lp448
sg21
I0
sba(iArchitecture
Entity
p449
(dp450
g11
(lp451
sg13
S'android.database.sqlite.SQLiteDatabase'
p452
sg15
(lp453
sg17
(lp454
sg19
(lp455
sg21
I0
sba(iArchitecture
Entity
p456
(dp457
g11
(lp458
sg13
S'android.database.sqlite.SQLiteDatabase$1'
p459
sg15
(lp460
sg17
(lp461
sg19
(lp462
sg21
I0
sba(iArchitecture
Entity
p463
(dp464
g11
(lp465
sg13
S'android.database.sqlite.SQLiteDatabase$2'
p466
sg15
(lp467
sg17
(lp468
sg19
(lp469
sg21
I0
sba(iArchitecture
Entity
p470
(dp471
g11
(lp472
sg13
S'android.database.sqlite.SQLiteDatabase$CursorFactory'
p473
sg15
(lp474
sg17
(lp475
sg19
(lp476
sg21
I0
sba(iArchitecture
Entity
p477
(dp478
g11
(lp479
sg13
S'android.database.sqlite.SQLiteDatabase$CustomFunction'
p480
sg15
(lp481
sg17
(lp482
sg19
(lp483
sg21
I0
sba(iArchitecture
Entity
p484
(dp485
g11
(lp486
sg13
S'android.database.sqlite.SQLiteDebug'
p487
sg15
(lp488
sg17
(lp489
sg19
(lp490
sg21
I0
sba(iArchitecture
Entity
p491
(dp492
g11
(lp493
sg13
S'android.database.sqlite.SQLiteDebug$DbStats'
p494
sg15
(lp495
sg17
(lp496
sg19
(lp497
sg21
I0
sba(iArchitecture
Entity
p498
(dp499
g11
(lp500
sg13
S'android.database.sqlite.SQLiteDebug$PagerStats'
p501
sg15
(lp502
sg17
(lp503
sg19
(lp504
sg21
I0
sba(iArchitecture
Entity
p505
(dp506
g11
(lp507
sg13
S'android.database.sqlite.SQLiteQueryBuilder'
p508
sg15
(lp509
sg17
(lp510
sg19
(lp511
sg21
I0
sbasg22
(lp512
g431
ag438
ag445
ag452
ag459
ag466
ag473
ag480
ag487
ag494
ag501
ag508
asg21
I0
sg24
S'1261'
p513
sba(iArchitecture
Cluster
p514
(dp515
g7
(lp516
(iArchitecture
Entity
p517
(dp518
g11
(lp519
sg13
S'android.database.sqlite.SQLiteQuery'
p520
sg15
(lp521
sg17
(lp522
sg19
(lp523
sg21
I0
sbasg22
(lp524
g520
asg21
I0
sg24
S'153'
p525
sba(iArchitecture
Cluster
p526
(dp527
g7
(lp528
(iArchitecture
Entity
p529
(dp530
g11
(lp531
sg13
S'android.database.sqlite.SQLiteClosable'
p532
sg15
(lp533
sg17
(lp534
sg19
(lp535
sg21
I0
sbasg22
(lp536
g532
asg21
I0
sg24
S'157'
p537
sba(iArchitecture
Cluster
p538
(dp539
g7
(lp540
(iArchitecture
Entity
p541
(dp542
g11
(lp543
sg13
S'android.database.ContentObservable'
p544
sg15
(lp545
sg17
(lp546
sg19
(lp547
sg21
I0
sbasg22
(lp548
g544
asg21
I0
sg24
S'16'
p549
sba(iArchitecture
Cluster
p550
(dp551
g7
(lp552
(iArchitecture
Entity
p553
(dp554
g11
(lp555
sg13
S'android.database.AbstractWindowedCursor'
p556
sg15
(lp557
sg17
(lp558
sg19
(lp559
sg21
I0
sbasg22
(lp560
g556
asg21
I0
sg24
S'254'
p561
sba(iArchitecture
Cluster
p562
(dp563
g7
(lp564
(iArchitecture
Entity
p565
(dp566
g11
(lp567
sg13
S'android.database.CrossProcessCursor'
p568
sg15
(lp569
sg17
(lp570
sg19
(lp571
sg21
I0
sbasg22
(lp572
g568
asg21
I0
sg24
S'267'
p573
sba(iArchitecture
Cluster
p574
(dp575
g7
(lp576
(iArchitecture
Entity
p577
(dp578
g11
(lp579
sg13
S'android.database.Observable'
p580
sg15
(lp581
sg17
(lp582
sg19
(lp583
sg21
I0
sbasg22
(lp584
g580
asg21
I0
sg24
S'280'
p585
sba(iArchitecture
Cluster
p586
(dp587
g7
(lp588
(iArchitecture
Entity
p589
(dp590
g11
(lp591
sg13
S'android.database.BulkCursorNative'
p592
sg15
(lp593
sg17
(lp594
sg19
(lp595
sg21
I0
sbasg22
(lp596
g592
asg21
I0
sg24
S'305'
p597
sba(iArchitecture
Cluster
p598
(dp599
g7
(lp600
(iArchitecture
Entity
p601
(dp602
g11
(lp603
sg13
S'android.database.CrossProcessCursorWrapper'
p604
sg15
(lp605
sg17
(lp606
sg19
(lp607
sg21
I0
sbasg22
(lp608
g604
asg21
I0
sg24
S'326'
p609
sba(iArchitecture
Cluster
p610
(dp611
g7
(lp612
(iArchitecture
Entity
p613
(dp614
g11
(lp615
sg13
S'android.database.sqlite.SQLiteOpenHelper'
p616
sg15
(lp617
sg17
(lp618
sg19
(lp619
sg21
I0
sbasg22
(lp620
g616
asg21
I0
sg24
S'411'
p621
sba(iArchitecture
Cluster
p622
(dp623
g7
(lp624
(iArchitecture
Entity
p625
(dp626
g11
(lp627
sg13
S'android.database.CursorToBulkCursorAdaptor'
p628
sg15
(lp629
sg17
(lp630
sg19
(lp631
sg21
I0
sba(iArchitecture
Entity
p632
(dp633
g11
(lp634
sg13
S'android.database.CursorToBulkCursorAdaptor$ContentObserverProxy'
p635
sg15
(lp636
sg17
(lp637
sg19
(lp638
sg21
I0
sbasg22
(lp639
g628
ag635
asg21
I0
sg24
S'489'
p640
sba(iArchitecture
Cluster
p641
(dp642
g7
(lp643
(iArchitecture
Entity
p644
(dp645
g11
(lp646
sg13
S'android.database.CursorJoiner'
p647
sg15
(lp648
sg17
(lp649
sg19
(lp650
sg21
I0
sba(iArchitecture
Entity
p651
(dp652
g11
(lp653
sg13
S'android.database.CursorJoiner$Result'
p654
sg15
(lp655
sg17
(lp656
sg19
(lp657
sg21
I0
sbasg22
(lp658
g647
ag654
asg21
I0
sg24
S'605'
p659
sba(iArchitecture
Cluster
p660
(dp661
g7
(lp662
(iArchitecture
Entity
p663
(dp664
g11
(lp665
sg13
S'android.database.MatrixCursor'
p666
sg15
(lp667
sg17
(lp668
sg19
(lp669
sg21
I0
sba(iArchitecture
Entity
p670
(dp671
g11
(lp672
sg13
S'android.database.MatrixCursor$RowBuilder'
p673
sg15
(lp674
sg17
(lp675
sg19
(lp676
sg21
I0
sbasg22
(lp677
g666
ag673
asg21
I0
sg24
S'637'
p678
sba(iArchitecture
Cluster
p679
(dp680
g7
(lp681
(iArchitecture
Entity
p682
(dp683
g11
(lp684
sg13
S'android.database.CursorWindow'
p685
sg15
(lp686
sg17
(lp687
sg19
(lp688
sg21
I0
sba(iArchitecture
Entity
p689
(dp690
g11
(lp691
sg13
S'android.database.CursorWindow$1'
p692
sg15
(lp693
sg17
(lp694
sg19
(lp695
sg21
I0
sbasg22
(lp696
g685
ag692
asg21
I0
sg24
S'730'
p697
sba(iArchitecture
Cluster
p698
(dp699
g7
(lp700
(iArchitecture
Entity
p701
(dp702
g11
(lp703
sg13
S'android.database.ContentObserver'
p704
sg15
(lp705
sg17
(lp706
sg19
(lp707
sg21
I0
sba(iArchitecture
Entity
p708
(dp709
g11
(lp710
sg13
S'android.database.ContentObserver$NotificationRunnable'
p711
sg15
(lp712
sg17
(lp713
sg19
(lp714
sg21
I0
sba(iArchitecture
Entity
p715
(dp716
g11
(lp717
sg13
S'android.database.ContentObserver$Transport'
p718
sg15
(lp719
sg17
(lp720
sg19
(lp721
sg21
I0
sbasg22
(lp722
g704
ag711
ag718
asg21
I0
sg24
S'773'
p723
sba(iArchitecture
Cluster
p724
(dp725
g7
(lp726
(iArchitecture
Entity
p727
(dp728
g11
(lp729
sg13
S'android.database.DefaultDatabaseErrorHandler'
p730
sg15
(lp731
sg17
(lp732
sg19
(lp733
sg21
I0
sbasg22
(lp734
g730
asg21
I0
sg24
S'84'
p735
sba(iArchitecture
Cluster
p736
(dp737
g7
(lp738
(iArchitecture
Entity
p739
(dp740
g11
(lp741
sg13
S'android.database.sqlite.SQLiteConnectionPool'
p742
sg15
(lp743
sg17
(lp744
sg19
(lp745
sg21
I0
sba(iArchitecture
Entity
p746
(dp747
g11
(lp748
sg13
S'android.database.sqlite.SQLiteConnectionPool$1'
p749
sg15
(lp750
sg17
(lp751
sg19
(lp752
sg21
I0
sba(iArchitecture
Entity
p753
(dp754
g11
(lp755
sg13
S'android.database.sqlite.SQLiteConnectionPool$AcquiredConnectionStatus'
p756
sg15
(lp757
sg17
(lp758
sg19
(lp759
sg21
I0
sba(iArchitecture
Entity
p760
(dp761
g11
(lp762
sg13
S'android.database.sqlite.SQLiteConnectionPool$ConnectionWaiter'
p763
sg15
(lp764
sg17
(lp765
sg19
(lp766
sg21
I0
sbasg22
(lp767
g742
ag749
ag756
ag763
asg21
I0
sg24
S'892'
p768
sbasS'target_sub'
p769
S'android.database'
p770
sg22
(lp771
sS'is_component_arch'
p772
I00
sg24
S'6.0.0_r1'
p773
sba(iArchitecture
Architecture
p774
(dp775
g3
(lp776
(iArchitecture
Cluster
p777
(dp778
g7
(lp779
(iArchitecture
Entity
p780
(dp781
g11
(lp782
sg13
S'android.database.sqlite.SQLiteConnectionPool'
p783
sg15
(lp784
sg17
(lp785
sg19
(lp786
sg21
I0
sba(iArchitecture
Entity
p787
(dp788
g11
(lp789
sg13
S'android.database.sqlite.SQLiteConnectionPool$1'
p790
sg15
(lp791
sg17
(lp792
sg19
(lp793
sg21
I0
sba(iArchitecture
Entity
p794
(dp795
g11
(lp796
sg13
S'android.database.sqlite.SQLiteConnectionPool$AcquiredConnectionStatus'
p797
sg15
(lp798
sg17
(lp799
sg19
(lp800
sg21
I0
sba(iArchitecture
Entity
p801
(dp802
g11
(lp803
sg13
S'android.database.sqlite.SQLiteConnectionPool$ConnectionWaiter'
p804
sg15
(lp805
sg17
(lp806
sg19
(lp807
sg21
I0
sbasg22
(lp808
g783
ag790
ag797
ag804
asg21
I0
sg24
S'1008'
p809
sba(iArchitecture
Cluster
p810
(dp811
g7
(lp812
(iArchitecture
Entity
p813
(dp814
g11
(lp815
sg13
S'android.database.sqlite.SQLiteDatabaseConfiguration'
p816
sg15
(lp817
sg17
(lp818
sg19
(lp819
sg21
I0
sbasg22
(lp820
g816
asg21
I0
sg24
S'1311'
p821
sba(iArchitecture
Cluster
p822
(dp823
g7
(lp824
(iArchitecture
Entity
p825
(dp826
g11
(lp827
sg13
S'android.database.BulkCursorDescriptor'
p828
sg15
(lp829
sg17
(lp830
sg19
(lp831
sg21
I0
sba(iArchitecture
Entity
p832
(dp833
g11
(lp834
sg13
S'android.database.BulkCursorDescriptor$1'
p835
sg15
(lp836
sg17
(lp837
sg19
(lp838
sg21
I0
sba(iArchitecture
Entity
p839
(dp840
g11
(lp841
sg13
S'android.database.CharArrayBuffer'
p842
sg15
(lp843
sg17
(lp844
sg19
(lp845
sg21
I0
sba(iArchitecture
Entity
p846
(dp847
g11
(lp848
sg13
S'android.database.CursorIndexOutOfBoundsException'
p849
sg15
(lp850
sg17
(lp851
sg19
(lp852
sg21
I0
sba(iArchitecture
Entity
p853
(dp854
g11
(lp855
sg13
S'android.database.CursorWindowAllocationException'
p856
sg15
(lp857
sg17
(lp858
sg19
(lp859
sg21
I0
sba(iArchitecture
Entity
p860
(dp861
g11
(lp862
sg13
S'android.database.DataSetObserver'
p863
sg15
(lp864
sg17
(lp865
sg19
(lp866
sg21
I0
sba(iArchitecture
Entity
p867
(dp868
g11
(lp869
sg13
S'android.database.DatabaseErrorHandler'
p870
sg15
(lp871
sg17
(lp872
sg19
(lp873
sg21
I0
sba(iArchitecture
Entity
p874
(dp875
g11
(lp876
sg13
S'android.database.IBulkCursor'
p877
sg15
(lp878
sg17
(lp879
sg19
(lp880
sg21
I0
sba(iArchitecture
Entity
p881
(dp882
g11
(lp883
sg13
S'android.database.SQLException'
p884
sg15
(lp885
sg17
(lp886
sg19
(lp887
sg21
I0
sba(iArchitecture
Entity
p888
(dp889
g11
(lp890
sg13
S'android.database.StaleDataException'
p891
sg15
(lp892
sg17
(lp893
sg19
(lp894
sg21
I0
sba(iArchitecture
Entity
p895
(dp896
g11
(lp897
sg13
S'android.database.sqlite.DatabaseObjectNotClosedException'
p898
sg15
(lp899
sg17
(lp900
sg19
(lp901
sg21
I0
sba(iArchitecture
Entity
p902
(dp903
g11
(lp904
sg13
S'android.database.sqlite.SQLiteAbortException'
p905
sg15
(lp906
sg17
(lp907
sg19
(lp908
sg21
I0
sba(iArchitecture
Entity
p909
(dp910
g11
(lp911
sg13
S'android.database.sqlite.SQLiteAccessPermException'
p912
sg15
(lp913
sg17
(lp914
sg19
(lp915
sg21
I0
sba(iArchitecture
Entity
p916
(dp917
g11
(lp918
sg13
S'android.database.sqlite.SQLiteBindOrColumnIndexOutOfRangeException'
p919
sg15
(lp920
sg17
(lp921
sg19
(lp922
sg21
I0
sba(iArchitecture
Entity
p923
(dp924
g11
(lp925
sg13
S'android.database.sqlite.SQLiteBlobTooBigException'
p926
sg15
(lp927
sg17
(lp928
sg19
(lp929
sg21
I0
sba(iArchitecture
Entity
p930
(dp931
g11
(lp932
sg13
S'android.database.sqlite.SQLiteCantOpenDatabaseException'
p933
sg15
(lp934
sg17
(lp935
sg19
(lp936
sg21
I0
sba(iArchitecture
Entity
p937
(dp938
g11
(lp939
sg13
S'android.database.sqlite.SQLiteConstraintException'
p940
sg15
(lp941
sg17
(lp942
sg19
(lp943
sg21
I0
sba(iArchitecture
Entity
p944
(dp945
g11
(lp946
sg13
S'android.database.sqlite.SQLiteCursorDriver'
p947
sg15
(lp948
sg17
(lp949
sg19
(lp950
sg21
I0
sba(iArchitecture
Entity
p951
(dp952
g11
(lp953
sg13
S'android.database.sqlite.SQLiteCustomFunction'
p954
sg15
(lp955
sg17
(lp956
sg19
(lp957
sg21
I0
sba(iArchitecture
Entity
p958
(dp959
g11
(lp960
sg13
S'android.database.sqlite.SQLiteDatabaseCorruptException'
p961
sg15
(lp962
sg17
(lp963
sg19
(lp964
sg21
I0
sba(iArchitecture
Entity
p965
(dp966
g11
(lp967
sg13
S'android.database.sqlite.SQLiteDatabaseLockedException'
p968
sg15
(lp969
sg17
(lp970
sg19
(lp971
sg21
I0
sba(iArchitecture
Entity
p972
(dp973
g11
(lp974
sg13
S'android.database.sqlite.SQLiteDatatypeMismatchException'
p975
sg15
(lp976
sg17
(lp977
sg19
(lp978
sg21
I0
sba(iArchitecture
Entity
p979
(dp980
g11
(lp981
sg13
S'android.database.sqlite.SQLiteDirectCursorDriver'
p982
sg15
(lp983
sg17
(lp984
sg19
(lp985
sg21
I0
sba(iArchitecture
Entity
p986
(dp987
g11
(lp988
sg13
S'android.database.sqlite.SQLiteDiskIOException'
p989
sg15
(lp990
sg17
(lp991
sg19
(lp992
sg21
I0
sba(iArchitecture
Entity
p993
(dp994
g11
(lp995
sg13
S'android.database.sqlite.SQLiteDoneException'
p996
sg15
(lp997
sg17
(lp998
sg19
(lp999
sg21
I0
sba(iArchitecture
Entity
p1000
(dp1001
g11
(lp1002
sg13
S'android.database.sqlite.SQLiteException'
p1003
sg15
(lp1004
sg17
(lp1005
sg19
(lp1006
sg21
I0
sba(iArchitecture
Entity
p1007
(dp1008
g11
(lp1009
sg13
S'android.database.sqlite.SQLiteFullException'
p1010
sg15
(lp1011
sg17
(lp1012
sg19
(lp1013
sg21
I0
sba(iArchitecture
Entity
p1014
(dp1015
g11
(lp1016
sg13
S'android.database.sqlite.SQLiteMisuseException'
p1017
sg15
(lp1018
sg17
(lp1019
sg19
(lp1020
sg21
I0
sba(iArchitecture
Entity
p1021
(dp1022
g11
(lp1023
sg13
S'android.database.sqlite.SQLiteOutOfMemoryException'
p1024
sg15
(lp1025
sg17
(lp1026
sg19
(lp1027
sg21
I0
sba(iArchitecture
Entity
p1028
(dp1029
g11
(lp1030
sg13
S'android.database.sqlite.SQLiteReadOnlyDatabaseException'
p1031
sg15
(lp1032
sg17
(lp1033
sg19
(lp1034
sg21
I0
sba(iArchitecture
Entity
p1035
(dp1036
g11
(lp1037
sg13
S'android.database.sqlite.SQLiteStatementInfo'
p1038
sg15
(lp1039
sg17
(lp1040
sg19
(lp1041
sg21
I0
sba(iArchitecture
Entity
p1042
(dp1043
g11
(lp1044
sg13
S'android.database.sqlite.SQLiteTableLockedException'
p1045
sg15
(lp1046
sg17
(lp1047
sg19
(lp1048
sg21
I0
sba(iArchitecture
Entity
p1049
(dp1050
g11
(lp1051
sg13
S'android.database.sqlite.SQLiteTransactionListener'
p1052
sg15
(lp1053
sg17
(lp1054
sg19
(lp1055
sg21
I0
sbasg22
(lp1056
g828
ag835
ag842
ag849
ag856
ag863
ag870
ag877
ag884
ag891
ag898
ag905
ag912
ag919
ag926
ag933
ag940
ag947
ag954
ag961
ag968
ag975
ag982
ag989
ag996
ag1003
ag1010
ag1017
ag1024
ag1031
ag1038
ag1045
ag1052
asg21
I0
sg24
S'1330'
p1057
sba(iArchitecture
Cluster
p1058
(dp1059
g7
(lp1060
(iArchitecture
Entity
p1061
(dp1062
g11
(lp1063
sg13
S'android.database.DataSetObservable'
p1064
sg15
(lp1065
sg17
(lp1066
sg19
(lp1067
sg21
I0
sbasg22
(lp1068
g1064
asg21
I0
sg24
S'1331'
p1069
sba(iArchitecture
Cluster
p1070
(dp1071
g7
(lp1072
(iArchitecture
Entity
p1073
(dp1074
g11
(lp1075
sg13
S'android.database.MergeCursor'
p1076
sg15
(lp1077
sg17
(lp1078
sg19
(lp1079
sg21
I0
sba(iArchitecture
Entity
p1080
(dp1081
g11
(lp1082
sg13
S'android.database.MergeCursor$1'
p1083
sg15
(lp1084
sg17
(lp1085
sg19
(lp1086
sg21
I0
sbasg22
(lp1087
g1076
ag1083
asg21
I0
sg24
S'1363'
p1088
sba(iArchitecture
Cluster
p1089
(dp1090
g7
(lp1091
(iArchitecture
Entity
p1092
(dp1093
g11
(lp1094
sg13
S'android.database.sqlite.SQLiteConnection'
p1095
sg15
(lp1096
sg17
(lp1097
sg19
(lp1098
sg21
I0
sba(iArchitecture
Entity
p1099
(dp1100
g11
(lp1101
sg13
S'android.database.sqlite.SQLiteConnection$Operation'
p1102
sg15
(lp1103
sg17
(lp1104
sg19
(lp1105
sg21
I0
sba(iArchitecture
Entity
p1106
(dp1107
g11
(lp1108
sg13
S'android.database.sqlite.SQLiteConnection$OperationLog'
p1109
sg15
(lp1110
sg17
(lp1111
sg19
(lp1112
sg21
I0
sba(iArchitecture
Entity
p1113
(dp1114
g11
(lp1115
sg13
S'android.database.sqlite.SQLiteConnection$PreparedStatement'
p1116
sg15
(lp1117
sg17
(lp1118
sg19
(lp1119
sg21
I0
sba(iArchitecture
Entity
p1120
(dp1121
g11
(lp1122
sg13
S'android.database.sqlite.SQLiteConnection$PreparedStatementCache'
p1123
sg15
(lp1124
sg17
(lp1125
sg19
(lp1126
sg21
I0
sba(iArchitecture
Entity
p1127
(dp1128
g11
(lp1129
sg13
S'android.database.sqlite.SQLiteSession'
p1130
sg15
(lp1131
sg17
(lp1132
sg19
(lp1133
sg21
I0
sba(iArchitecture
Entity
p1134
(dp1135
g11
(lp1136
sg13
S'android.database.sqlite.SQLiteSession$Transaction'
p1137
sg15
(lp1138
sg17
(lp1139
sg19
(lp1140
sg21
I0
sbasg22
(lp1141
g1095
ag1102
ag1109
ag1116
ag1123
ag1130
ag1137
asg21
I0
sg24
S'1378'
p1142
sba(iArchitecture
Cluster
p1143
(dp1144
g7
(lp1145
(iArchitecture
Entity
p1146
(dp1147
g11
(lp1148
sg13
S'android.database.AbstractCursor'
p1149
sg15
(lp1150
sg17
(lp1151
sg19
(lp1152
sg21
I0
sba(iArchitecture
Entity
p1153
(dp1154
g11
(lp1155
sg13
S'android.database.AbstractCursor$SelfContentObserver'
p1156
sg15
(lp1157
sg17
(lp1158
sg19
(lp1159
sg21
I0
sba(iArchitecture
Entity
p1160
(dp1161
g11
(lp1162
sg13
S'android.database.Cursor'
p1163
sg15
(lp1164
sg17
(lp1165
sg19
(lp1166
sg21
I0
sba(iArchitecture
Entity
p1167
(dp1168
g11
(lp1169
sg13
S'android.database.CursorWrapper'
p1170
sg15
(lp1171
sg17
(lp1172
sg19
(lp1173
sg21
I0
sba(iArchitecture
Entity
p1174
(dp1175
g11
(lp1176
sg13
S'android.database.sqlite.SQLiteGlobal'
p1177
sg15
(lp1178
sg17
(lp1179
sg19
(lp1180
sg21
I0
sbasg22
(lp1181
g1149
ag1156
ag1163
ag1170
ag1177
asg21
I0
sg24
S'1384'
p1182
sba(iArchitecture
Cluster
p1183
(dp1184
g7
(lp1185
(iArchitecture
Entity
p1186
(dp1187
g11
(lp1188
sg13
S'android.database.sqlite.SQLiteDatabase'
p1189
sg15
(lp1190
sg17
(lp1191
sg19
(lp1192
sg21
I0
sba(iArchitecture
Entity
p1193
(dp1194
g11
(lp1195
sg13
S'android.database.sqlite.SQLiteDatabase$1'
p1196
sg15
(lp1197
sg17
(lp1198
sg19
(lp1199
sg21
I0
sba(iArchitecture
Entity
p1200
(dp1201
g11
(lp1202
sg13
S'android.database.sqlite.SQLiteDatabase$2'
p1203
sg15
(lp1204
sg17
(lp1205
sg19
(lp1206
sg21
I0
sba(iArchitecture
Entity
p1207
(dp1208
g11
(lp1209
sg13
S'android.database.sqlite.SQLiteDatabase$CursorFactory'
p1210
sg15
(lp1211
sg17
(lp1212
sg19
(lp1213
sg21
I0
sba(iArchitecture
Entity
p1214
(dp1215
g11
(lp1216
sg13
S'android.database.sqlite.SQLiteDatabase$CustomFunction'
p1217
sg15
(lp1218
sg17
(lp1219
sg19
(lp1220
sg21
I0
sba(iArchitecture
Entity
p1221
(dp1222
g11
(lp1223
sg13
S'android.database.sqlite.SQLiteProgram'
p1224
sg15
(lp1225
sg17
(lp1226
sg19
(lp1227
sg21
I0
sba(iArchitecture
Entity
p1228
(dp1229
g11
(lp1230
sg13
S'android.database.sqlite.SQLiteQueryBuilder'
p1231
sg15
(lp1232
sg17
(lp1233
sg19
(lp1234
sg21
I0
sba(iArchitecture
Entity
p1235
(dp1236
g11
(lp1237
sg13
S'android.database.sqlite.SQLiteStatement'
p1238
sg15
(lp1239
sg17
(lp1240
sg19
(lp1241
sg21
I0
sbasg22
(lp1242
g1189
ag1196
ag1203
ag1210
ag1217
ag1224
ag1231
ag1238
asg21
I0
sg24
S'1401'
p1243
sba(iArchitecture
Cluster
p1244
(dp1245
g7
(lp1246
(iArchitecture
Entity
p1247
(dp1248
g11
(lp1249
sg13
S'android.database.DatabaseUtils'
p1250
sg15
(lp1251
sg17
(lp1252
sg19
(lp1253
sg21
I0
sba(iArchitecture
Entity
p1254
(dp1255
g11
(lp1256
sg13
S'android.database.DatabaseUtils$InsertHelper'
p1257
sg15
(lp1258
sg17
(lp1259
sg19
(lp1260
sg21
I0
sba(iArchitecture
Entity
p1261
(dp1262
g11
(lp1263
sg13
S'android.database.sqlite.SQLiteCursor'
p1264
sg15
(lp1265
sg17
(lp1266
sg19
(lp1267
sg21
I0
sbasg22
(lp1268
g1250
ag1257
ag1264
asg21
I0
sg24
S'1408'
p1269
sba(iArchitecture
Cluster
p1270
(dp1271
g7
(lp1272
(iArchitecture
Entity
p1273
(dp1274
g11
(lp1275
sg13
S'android.database.sqlite.SQLiteDebug'
p1276
sg15
(lp1277
sg17
(lp1278
sg19
(lp1279
sg21
I0
sba(iArchitecture
Entity
p1280
(dp1281
g11
(lp1282
sg13
S'android.database.sqlite.SQLiteDebug$DbStats'
p1283
sg15
(lp1284
sg17
(lp1285
sg19
(lp1286
sg21
I0
sba(iArchitecture
Entity
p1287
(dp1288
g11
(lp1289
sg13
S'android.database.sqlite.SQLiteDebug$PagerStats'
p1290
sg15
(lp1291
sg17
(lp1292
sg19
(lp1293
sg21
I0
sbasg22
(lp1294
g1276
ag1283
ag1290
asg21
I0
sg24
S'1416'
p1295
sba(iArchitecture
Cluster
p1296
(dp1297
g7
(lp1298
(iArchitecture
Entity
p1299
(dp1300
g11
(lp1301
sg13
S'android.database.sqlite.SQLiteQuery'
p1302
sg15
(lp1303
sg17
(lp1304
sg19
(lp1305
sg21
I0
sbasg22
(lp1306
g1302
asg21
I0
sg24
S'169'
p1307
sba(iArchitecture
Cluster
p1308
(dp1309
g7
(lp1310
(iArchitecture
Entity
p1311
(dp1312
g11
(lp1313
sg13
S'android.database.sqlite.SQLiteClosable'
p1314
sg15
(lp1315
sg17
(lp1316
sg19
(lp1317
sg21
I0
sbasg22
(lp1318
g1314
asg21
I0
sg24
S'173'
p1319
sba(iArchitecture
Cluster
p1320
(dp1321
g7
(lp1322
(iArchitecture
Entity
p1323
(dp1324
g11
(lp1325
sg13
S'android.database.ContentObservable'
p1326
sg15
(lp1327
sg17
(lp1328
sg19
(lp1329
sg21
I0
sbasg22
(lp1330
g1326
asg21
I0
sg24
S'23'
p1331
sba(iArchitecture
Cluster
p1332
(dp1333
g7
(lp1334
(iArchitecture
Entity
p1335
(dp1336
g11
(lp1337
sg13
S'android.database.BulkCursorToCursorAdaptor'
p1338
sg15
(lp1339
sg17
(lp1340
sg19
(lp1341
sg21
I0
sbasg22
(lp1342
g1338
asg21
I0
sg24
S'270'
p1343
sba(iArchitecture
Cluster
p1344
(dp1345
g7
(lp1346
(iArchitecture
Entity
p1347
(dp1348
g11
(lp1349
sg13
S'android.database.sqlite.SqliteWrapper'
p1350
sg15
(lp1351
sg17
(lp1352
sg19
(lp1353
sg21
I0
sbasg22
(lp1354
g1350
asg21
I0
sg24
S'273'
p1355
sba(iArchitecture
Cluster
p1356
(dp1357
g7
(lp1358
(iArchitecture
Entity
p1359
(dp1360
g11
(lp1361
sg13
S'android.database.AbstractWindowedCursor'
p1362
sg15
(lp1363
sg17
(lp1364
sg19
(lp1365
sg21
I0
sbasg22
(lp1366
g1362
asg21
I0
sg24
S'283'
p1367
sba(iArchitecture
Cluster
p1368
(dp1369
g7
(lp1370
(iArchitecture
Entity
p1371
(dp1372
g11
(lp1373
sg13
S'android.database.CrossProcessCursor'
p1374
sg15
(lp1375
sg17
(lp1376
sg19
(lp1377
sg21
I0
sbasg22
(lp1378
g1374
asg21
I0
sg24
S'297'
p1379
sba(iArchitecture
Cluster
p1380
(dp1381
g7
(lp1382
(iArchitecture
Entity
p1383
(dp1384
g11
(lp1385
sg13
S'android.database.Observable'
p1386
sg15
(lp1387
sg17
(lp1388
sg19
(lp1389
sg21
I0
sbasg22
(lp1390
g1386
asg21
I0
sg24
S'308'
p1391
sba(iArchitecture
Cluster
p1392
(dp1393
g7
(lp1394
(iArchitecture
Entity
p1395
(dp1396
g11
(lp1397
sg13
S'android.database.BulkCursorNative'
p1398
sg15
(lp1399
sg17
(lp1400
sg19
(lp1401
sg21
I0
sbasg22
(lp1402
g1398
asg21
I0
sg24
S'336'
p1403
sba(iArchitecture
Cluster
p1404
(dp1405
g7
(lp1406
(iArchitecture
Entity
p1407
(dp1408
g11
(lp1409
sg13
S'android.database.CrossProcessCursorWrapper'
p1410
sg15
(lp1411
sg17
(lp1412
sg19
(lp1413
sg21
I0
sbasg22
(lp1414
g1410
asg21
I0
sg24
S'357'
p1415
sba(iArchitecture
Cluster
p1416
(dp1417
g7
(lp1418
(iArchitecture
Entity
p1419
(dp1420
g11
(lp1421
sg13
S'android.database.sqlite.SQLiteOpenHelper'
p1422
sg15
(lp1423
sg17
(lp1424
sg19
(lp1425
sg21
I0
sbasg22
(lp1426
g1422
asg21
I0
sg24
S'455'
p1427
sba(iArchitecture
Cluster
p1428
(dp1429
g7
(lp1430
(iArchitecture
Entity
p1431
(dp1432
g11
(lp1433
sg13
S'android.database.CursorToBulkCursorAdaptor'
p1434
sg15
(lp1435
sg17
(lp1436
sg19
(lp1437
sg21
I0
sba(iArchitecture
Entity
p1438
(dp1439
g11
(lp1440
sg13
S'android.database.CursorToBulkCursorAdaptor$ContentObserverProxy'
p1441
sg15
(lp1442
sg17
(lp1443
sg19
(lp1444
sg21
I0
sbasg22
(lp1445
g1434
ag1441
asg21
I0
sg24
S'546'
p1446
sba(iArchitecture
Cluster
p1447
(dp1448
g7
(lp1449
(iArchitecture
Entity
p1450
(dp1451
g11
(lp1452
sg13
S'android.database.CursorJoiner'
p1453
sg15
(lp1454
sg17
(lp1455
sg19
(lp1456
sg21
I0
sba(iArchitecture
Entity
p1457
(dp1458
g11
(lp1459
sg13
S'android.database.CursorJoiner$Result'
p1460
sg15
(lp1461
sg17
(lp1462
sg19
(lp1463
sg21
I0
sbasg22
(lp1464
g1453
ag1460
asg21
I0
sg24
S'690'
p1465
sba(iArchitecture
Cluster
p1466
(dp1467
g7
(lp1468
(iArchitecture
Entity
p1469
(dp1470
g11
(lp1471
sg13
S'android.database.MatrixCursor'
p1472
sg15
(lp1473
sg17
(lp1474
sg19
(lp1475
sg21
I0
sba(iArchitecture
Entity
p1476
(dp1477
g11
(lp1478
sg13
S'android.database.MatrixCursor$RowBuilder'
p1479
sg15
(lp1480
sg17
(lp1481
sg19
(lp1482
sg21
I0
sbasg22
(lp1483
g1472
ag1479
asg21
I0
sg24
S'722'
p1484
sba(iArchitecture
Cluster
p1485
(dp1486
g7
(lp1487
(iArchitecture
Entity
p1488
(dp1489
g11
(lp1490
sg13
S'android.database.CursorWindow'
p1491
sg15
(lp1492
sg17
(lp1493
sg19
(lp1494
sg21
I0
sba(iArchitecture
Entity
p1495
(dp1496
g11
(lp1497
sg13
S'android.database.CursorWindow$1'
p1498
sg15
(lp1499
sg17
(lp1500
sg19
(lp1501
sg21
I0
sbasg22
(lp1502
g1491
ag1498
asg21
I0
sg24
S'830'
p1503
sba(iArchitecture
Cluster
p1504
(dp1505
g7
(lp1506
(iArchitecture
Entity
p1507
(dp1508
g11
(lp1509
sg13
S'android.database.ContentObserver'
p1510
sg15
(lp1511
sg17
(lp1512
sg19
(lp1513
sg21
I0
sba(iArchitecture
Entity
p1514
(dp1515
g11
(lp1516
sg13
S'android.database.ContentObserver$NotificationRunnable'
p1517
sg15
(lp1518
sg17
(lp1519
sg19
(lp1520
sg21
I0
sba(iArchitecture
Entity
p1521
(dp1522
g11
(lp1523
sg13
S'android.database.ContentObserver$Transport'
p1524
sg15
(lp1525
sg17
(lp1526
sg19
(lp1527
sg21
I0
sbasg22
(lp1528
g1510
ag1517
ag1524
asg21
I0
sg24
S'872'
p1529
sba(iArchitecture
Cluster
p1530
(dp1531
g7
(lp1532
(iArchitecture
Entity
p1533
(dp1534
g11
(lp1535
sg13
S'android.database.DefaultDatabaseErrorHandler'
p1536
sg15
(lp1537
sg17
(lp1538
sg19
(lp1539
sg21
I0
sbasg22
(lp1540
g1536
asg21
I0
sg24
S'94'
p1541
sbasg769
g770
sg22
(lp1542
sg772
I00
sg24
S'7.0.0_r1'
p1543
sba.