(lp0
(iArchitecture
Architecture
p1
(dp2
S'clusters'
p3
(lp4
(iArchitecture
Cluster
p5
(dp6
S'entities'
p7
(lp8
(iArchitecture
Entity
p9
(dp10
S'issue_ids'
p11
(lp12
sS'name'
p13
S'com.android.server.search.Searchables'
p14
sS'descs'
p15
(lp16
sS'labels'
p17
(lp18
sS'titles'
p19
(lp20
sS'change'
p21
I0
sba(iArchitecture
Entity
p22
(dp23
g11
(lp24
sg13
S'com.android.server.search.Searchables$1'
p25
sg15
(lp26
sg17
(lp27
sg19
(lp28
sg21
I0
sbasS'classes'
p29
(lp30
g14
ag25
asg21
I0
sS'label'
p31
S'678'
p32
sba(iArchitecture
Cluster
p33
(dp34
g7
(lp35
(iArchitecture
Entity
p36
(dp37
g11
(lp38
sg13
S'com.android.server.search.SearchManagerService'
p39
sg15
(lp40
sg17
(lp41
sg19
(lp42
sg21
I0
sba(iArchitecture
Entity
p43
(dp44
g11
(lp45
sg13
S'com.android.server.search.SearchManagerService$BootCompletedReceiver'
p46
sg15
(lp47
sg17
(lp48
sg19
(lp49
sg21
I0
sba(iArchitecture
Entity
p50
(dp51
g11
(lp52
sg13
S'com.android.server.search.SearchManagerService$BootCompletedReceiver$1'
p53
sg15
(lp54
sg17
(lp55
sg19
(lp56
sg21
I0
sba(iArchitecture
Entity
p57
(dp58
g11
(lp59
sg13
S'com.android.server.search.SearchManagerService$GlobalSearchProviderObserver'
p60
sg15
(lp61
sg17
(lp62
sg19
(lp63
sg21
I0
sba(iArchitecture
Entity
p64
(dp65
g11
(lp66
sg13
S'com.android.server.search.SearchManagerService$MyPackageMonitor'
p67
sg15
(lp68
sg17
(lp69
sg19
(lp70
sg21
I0
sba(iArchitecture
Entity
p71
(dp72
g11
(lp73
sg13
S'com.android.server.search.SearchManagerService$UserReceiver'
p74
sg15
(lp75
sg17
(lp76
sg19
(lp77
sg21
I0
sbasg29
(lp78
g39
ag46
ag53
ag60
ag67
ag74
asg21
I0
sg31
S'969'
p79
sbasS'target_sub'
p80
S'com.android.server.search'
p81
sg29
(lp82
sS'is_component_arch'
p83
I00
sg31
S'6.0.0_r1'
p84
sba(iArchitecture
Architecture
p85
(dp86
g3
(lp87
(iArchitecture
Cluster
p88
(dp89
g7
(lp90
(iArchitecture
Entity
p91
(dp92
g11
(lp93
sg13
S'com.android.server.search.Searchables'
p94
sg15
(lp95
sg17
(lp96
sg19
(lp97
sg21
I0
sba(iArchitecture
Entity
p98
(dp99
g11
(lp100
sg13
S'com.android.server.search.Searchables$1'
p101
sg15
(lp102
sg17
(lp103
sg19
(lp104
sg21
I0
sbasg29
(lp105
g94
ag101
asg21
I0
sg31
S'768'
p106
sba(iArchitecture
Cluster
p107
(dp108
g7
(lp109
(iArchitecture
Entity
p110
(dp111
g11
(lp112
sg13
S'com.android.server.search.SearchManagerService'
p113
sg15
(lp114
sg17
(lp115
sg19
(lp116
sg21
I0
sba(iArchitecture
Entity
p117
(dp118
g11
(lp119
sg13
S'com.android.server.search.SearchManagerService$GlobalSearchProviderObserver'
p120
sg15
(lp121
sg17
(lp122
sg19
(lp123
sg21
I0
sba(iArchitecture
Entity
p124
(dp125
g11
(lp126
sg13
S'com.android.server.search.SearchManagerService$Lifecycle'
p127
sg15
(lp128
sg17
(lp129
sg19
(lp130
sg21
I0
sba(iArchitecture
Entity
p131
(dp132
g11
(lp133
sg13
S'com.android.server.search.SearchManagerService$MyPackageMonitor'
p134
sg15
(lp135
sg17
(lp136
sg19
(lp137
sg21
I0
sbasg29
(lp138
g113
ag120
ag127
ag134
asg21
I0
sg31
S'999'
p139
sbasg80
g81
sg29
(lp140
sg83
I00
sg31
S'7.0.0_r1'
p141
sba.