(lp0
(iArchitecture
Architecture
p1
(dp2
S'clusters'
p3
(lp4
(iArchitecture
Cluster
p5
(dp6
S'entities'
p7
(lp8
(iArchitecture
Entity
p9
(dp10
S'issue_ids'
p11
(lp12
sS'name'
p13
S'com.android.server.accounts.IAccountAuthenticatorCache'
p14
sS'descs'
p15
(lp16
sS'labels'
p17
(lp18
sS'titles'
p19
(lp20
sS'change'
p21
I0
sbasS'classes'
p22
(lp23
g14
asg21
I0
sS'label'
p24
S'1237'
p25
sba(iArchitecture
Cluster
p26
(dp27
g7
(lp28
(iArchitecture
Entity
p29
(dp30
g11
(lp31
sg13
S'com.android.server.accounts.AccountAuthenticatorCache'
p32
sg15
(lp33
sg17
(lp34
sg19
(lp35
sg21
I0
sba(iArchitecture
Entity
p36
(dp37
g11
(lp38
sg13
S'com.android.server.accounts.AccountAuthenticatorCache$MySerializer'
p39
sg15
(lp40
sg17
(lp41
sg19
(lp42
sg21
I0
sbasg22
(lp43
g32
ag39
asg21
I0
sg24
S'1246'
p44
sba(iArchitecture
Cluster
p45
(dp46
g7
(lp47
(iArchitecture
Entity
p48
(dp49
g11
(lp50
sg13
S'com.android.server.accounts.TokenCache'
p51
sg15
(lp52
sg17
(lp53
sg19
(lp54
sg21
I0
sba(iArchitecture
Entity
p55
(dp56
g11
(lp57
sg13
S'com.android.server.accounts.TokenCache$Key'
p58
sg15
(lp59
sg17
(lp60
sg19
(lp61
sg21
I0
sba(iArchitecture
Entity
p62
(dp63
g11
(lp64
sg13
S'com.android.server.accounts.TokenCache$TokenLruCache'
p65
sg15
(lp66
sg17
(lp67
sg19
(lp68
sg21
I0
sba(iArchitecture
Entity
p69
(dp70
g11
(lp71
sg13
S'com.android.server.accounts.TokenCache$TokenLruCache$Evictor'
p72
sg15
(lp73
sg17
(lp74
sg19
(lp75
sg21
I0
sba(iArchitecture
Entity
p76
(dp77
g11
(lp78
sg13
S'com.android.server.accounts.TokenCache$Value'
p79
sg15
(lp80
sg17
(lp81
sg19
(lp82
sg21
I0
sbasg22
(lp83
g51
ag58
ag65
ag72
ag79
asg21
I0
sg24
S'943'
p84
sbasS'target_sub'
p85
S'com.android.server.accounts'
p86
sg22
(lp87
sS'is_component_arch'
p88
I00
sg24
S'6.0.0_r1'
p89
sba(iArchitecture
Architecture
p90
(dp91
g3
(lp92
(iArchitecture
Cluster
p93
(dp94
g7
(lp95
(iArchitecture
Entity
p96
(dp97
g11
(lp98
sg13
S'com.android.server.accounts.TokenCache'
p99
sg15
(lp100
sg17
(lp101
sg19
(lp102
sg21
I0
sba(iArchitecture
Entity
p103
(dp104
g11
(lp105
sg13
S'com.android.server.accounts.TokenCache$Key'
p106
sg15
(lp107
sg17
(lp108
sg19
(lp109
sg21
I0
sba(iArchitecture
Entity
p110
(dp111
g11
(lp112
sg13
S'com.android.server.accounts.TokenCache$TokenLruCache'
p113
sg15
(lp114
sg17
(lp115
sg19
(lp116
sg21
I0
sba(iArchitecture
Entity
p117
(dp118
g11
(lp119
sg13
S'com.android.server.accounts.TokenCache$TokenLruCache$Evictor'
p120
sg15
(lp121
sg17
(lp122
sg19
(lp123
sg21
I0
sba(iArchitecture
Entity
p124
(dp125
g11
(lp126
sg13
S'com.android.server.accounts.TokenCache$Value'
p127
sg15
(lp128
sg17
(lp129
sg19
(lp130
sg21
I0
sbasg22
(lp131
g99
ag106
ag113
ag120
ag127
asg21
I0
sg24
S'1064'
p132
sba(iArchitecture
Cluster
p133
(dp134
g7
(lp135
(iArchitecture
Entity
p136
(dp137
g11
(lp138
sg13
S'com.android.server.accounts.AccountAuthenticatorCache'
p139
sg15
(lp140
sg17
(lp141
sg19
(lp142
sg21
I0
sba(iArchitecture
Entity
p143
(dp144
g11
(lp145
sg13
S'com.android.server.accounts.AccountAuthenticatorCache$MySerializer'
p146
sg15
(lp147
sg17
(lp148
sg19
(lp149
sg21
I0
sba(iArchitecture
Entity
p150
(dp151
g11
(lp152
sg13
S'com.android.server.accounts.IAccountAuthenticatorCache'
p153
sg15
(lp154
sg17
(lp155
sg19
(lp156
sg21
I0
sbasg22
(lp157
g139
ag146
ag153
asg21
I0
sg24
S'1330'
p158
sba(iArchitecture
Cluster
p159
(dp160
g7
(lp161
(iArchitecture
Entity
p162
(dp163
g11
(lp164
sg13
S'com.android.server.accounts.CryptoHelper'
p165
sg15
(lp166
sg17
(lp167
sg19
(lp168
sg21
I0
sbasg22
(lp169
g165
asg21
I0
sg24
S'203'
p170
sbasg85
g86
sg22
(lp171
sg88
I00
sg24
S'7.0.0_r1'
p172
sba.