(lp0
(iArchitecture
Architecture
p1
(dp2
S'clusters'
p3
(lp4
(iArchitecture
Cluster
p5
(dp6
S'entities'
p7
(lp8
(iArchitecture
Entity
p9
(dp10
S'issue_ids'
p11
(lp12
sS'name'
p13
S'com.android.server.audio.FocusRequester'
p14
sS'descs'
p15
(lp16
sS'labels'
p17
(lp18
sS'titles'
p19
(lp20
sS'change'
p21
I0
sba(iArchitecture
Entity
p22
(dp23
g11
(lp24
sg13
S'com.android.server.audio.MediaFocusControl'
p25
sg15
(lp26
sg17
(lp27
sg19
(lp28
sg21
I0
sba(iArchitecture
Entity
p29
(dp30
g11
(lp31
sg13
S'com.android.server.audio.MediaFocusControl$1'
p32
sg15
(lp33
sg17
(lp34
sg19
(lp35
sg21
I0
sba(iArchitecture
Entity
p36
(dp37
g11
(lp38
sg13
S'com.android.server.audio.MediaFocusControl$2'
p39
sg15
(lp40
sg17
(lp41
sg19
(lp42
sg21
I0
sba(iArchitecture
Entity
p43
(dp44
g11
(lp45
sg13
S'com.android.server.audio.MediaFocusControl$3'
p46
sg15
(lp47
sg17
(lp48
sg19
(lp49
sg21
I0
sba(iArchitecture
Entity
p50
(dp51
g11
(lp52
sg13
S'com.android.server.audio.MediaFocusControl$AudioFocusDeathHandler'
p53
sg15
(lp54
sg17
(lp55
sg19
(lp56
sg21
I0
sba(iArchitecture
Entity
p57
(dp58
g11
(lp59
sg13
S'com.android.server.audio.MediaFocusControl$DisplayInfoForServer'
p60
sg15
(lp61
sg17
(lp62
sg19
(lp63
sg21
I0
sba(iArchitecture
Entity
p64
(dp65
g11
(lp66
sg13
S'com.android.server.audio.MediaFocusControl$MediaEventHandler'
p67
sg15
(lp68
sg17
(lp69
sg19
(lp70
sg21
I0
sba(iArchitecture
Entity
p71
(dp72
g11
(lp73
sg13
S'com.android.server.audio.MediaFocusControl$NotificationListenerObserver'
p74
sg15
(lp75
sg17
(lp76
sg19
(lp77
sg21
I0
sbasS'classes'
p78
(lp79
g14
ag25
ag32
ag39
ag46
ag53
ag60
ag67
ag74
asg21
I0
sS'label'
p80
S'1188'
p81
sbasS'target_sub'
p82
S'com.android.server.audio'
p83
sg78
(lp84
sS'is_component_arch'
p85
I00
sg80
S'6.0.0_r1'
p86
sba(iArchitecture
Architecture
p87
(dp88
g3
(lp89
(iArchitecture
Cluster
p90
(dp91
g7
(lp92
(iArchitecture
Entity
p93
(dp94
g11
(lp95
sg13
S'com.android.server.audio.RotationHelper'
p96
sg15
(lp97
sg17
(lp98
sg19
(lp99
sg21
I0
sba(iArchitecture
Entity
p100
(dp101
g11
(lp102
sg13
S'com.android.server.audio.RotationHelper$AudioOrientationListener'
p103
sg15
(lp104
sg17
(lp105
sg19
(lp106
sg21
I0
sba(iArchitecture
Entity
p107
(dp108
g11
(lp109
sg13
S'com.android.server.audio.RotationHelper$AudioWindowOrientationListener'
p110
sg15
(lp111
sg17
(lp112
sg19
(lp113
sg21
I0
sba(iArchitecture
Entity
p114
(dp115
g11
(lp116
sg13
S'com.android.server.audio.RotationHelper$RotationCheckThread'
p117
sg15
(lp118
sg17
(lp119
sg19
(lp120
sg21
I0
sbasg78
(lp121
g96
ag103
ag110
ag117
asg21
I0
sg80
S'1027'
p122
sba(iArchitecture
Cluster
p123
(dp124
g7
(lp125
(iArchitecture
Entity
p126
(dp127
g11
(lp128
sg13
S'com.android.server.audio.FocusRequester'
p129
sg15
(lp130
sg17
(lp131
sg19
(lp132
sg21
I0
sba(iArchitecture
Entity
p133
(dp134
g11
(lp135
sg13
S'com.android.server.audio.MediaFocusControl'
p136
sg15
(lp137
sg17
(lp138
sg19
(lp139
sg21
I0
sba(iArchitecture
Entity
p140
(dp141
g11
(lp142
sg13
S'com.android.server.audio.MediaFocusControl$1'
p143
sg15
(lp144
sg17
(lp145
sg19
(lp146
sg21
I0
sba(iArchitecture
Entity
p147
(dp148
g11
(lp149
sg13
S'com.android.server.audio.MediaFocusControl$AudioFocusDeathHandler'
p150
sg15
(lp151
sg17
(lp152
sg19
(lp153
sg21
I0
sbasg78
(lp154
g129
ag136
ag143
ag150
asg21
I0
sg80
S'1343'
p155
sba(iArchitecture
Cluster
p156
(dp157
g7
(lp158
(iArchitecture
Entity
p159
(dp160
g11
(lp161
sg13
S'com.android.server.audio.RecordingActivityMonitor'
p162
sg15
(lp163
sg17
(lp164
sg19
(lp165
sg21
I0
sba(iArchitecture
Entity
p166
(dp167
g11
(lp168
sg13
S'com.android.server.audio.RecordingActivityMonitor$RecMonitorClient'
p169
sg15
(lp170
sg17
(lp171
sg19
(lp172
sg21
I0
sbasg78
(lp173
g162
ag169
asg21
I0
sg80
S'612'
p174
sbasg82
g83
sg78
(lp175
sg85
I00
sg80
S'7.0.0_r1'
p176
sba.