(lp0
(iArchitecture
Architecture
p1
(dp2
S'clusters'
p3
(lp4
(iArchitecture
Cluster
p5
(dp6
S'entities'
p7
(lp8
(iArchitecture
Entity
p9
(dp10
S'issue_ids'
p11
(lp12
sS'name'
p13
S'android.content.DialogInterface'
p14
sS'descs'
p15
(lp16
sS'labels'
p17
(lp18
sS'titles'
p19
(lp20
sS'change'
p21
I0
sba(iArchitecture
Entity
p22
(dp23
g11
(lp24
sg13
S'android.content.DialogInterface$OnCancelListener'
p25
sg15
(lp26
sg17
(lp27
sg19
(lp28
sg21
I0
sba(iArchitecture
Entity
p29
(dp30
g11
(lp31
sg13
S'android.content.DialogInterface$OnClickListener'
p32
sg15
(lp33
sg17
(lp34
sg19
(lp35
sg21
I0
sba(iArchitecture
Entity
p36
(dp37
g11
(lp38
sg13
S'android.content.DialogInterface$OnDismissListener'
p39
sg15
(lp40
sg17
(lp41
sg19
(lp42
sg21
I0
sba(iArchitecture
Entity
p43
(dp44
g11
(lp45
sg13
S'android.content.DialogInterface$OnKeyListener'
p46
sg15
(lp47
sg17
(lp48
sg19
(lp49
sg21
I0
sba(iArchitecture
Entity
p50
(dp51
g11
(lp52
sg13
S'android.content.DialogInterface$OnMultiChoiceClickListener'
p53
sg15
(lp54
sg17
(lp55
sg19
(lp56
sg21
I0
sba(iArchitecture
Entity
p57
(dp58
g11
(lp59
sg13
S'android.content.DialogInterface$OnShowListener'
p60
sg15
(lp61
sg17
(lp62
sg19
(lp63
sg21
I0
sbasS'classes'
p64
(lp65
g14
ag25
ag32
ag39
ag46
ag53
ag60
asg21
I0
sS'label'
p66
S'1001'
p67
sba(iArchitecture
Cluster
p68
(dp69
g7
(lp70
(iArchitecture
Entity
p71
(dp72
g11
(lp73
sg13
S'android.content.res.ObbScanner'
p74
sg15
(lp75
sg17
(lp76
sg19
(lp77
sg21
I0
sbasg64
(lp78
g74
asg21
I0
sg66
S'1125'
p79
sba(iArchitecture
Cluster
p80
(dp81
g7
(lp82
(iArchitecture
Entity
p83
(dp84
g11
(lp85
sg13
S'android.content.UndoManager'
p86
sg15
(lp87
sg17
(lp88
sg19
(lp89
sg21
I0
sba(iArchitecture
Entity
p90
(dp91
g11
(lp92
sg13
S'android.content.UndoManager$UndoState'
p93
sg15
(lp94
sg17
(lp95
sg19
(lp96
sg21
I0
sbasg64
(lp97
g86
ag93
asg21
I0
sg66
S'1183'
p98
sba(iArchitecture
Cluster
p99
(dp100
g7
(lp101
(iArchitecture
Entity
p102
(dp103
g11
(lp104
sg13
S'android.content.SyncAdapterType'
p105
sg15
(lp106
sg17
(lp107
sg19
(lp108
sg21
I0
sba(iArchitecture
Entity
p109
(dp110
g11
(lp111
sg13
S'android.content.SyncAdapterType$1'
p112
sg15
(lp113
sg17
(lp114
sg19
(lp115
sg21
I0
sba(iArchitecture
Entity
p116
(dp117
g11
(lp118
sg13
S'android.content.SyncAdaptersCache'
p119
sg15
(lp120
sg17
(lp121
sg19
(lp122
sg21
I0
sba(iArchitecture
Entity
p123
(dp124
g11
(lp125
sg13
S'android.content.SyncAdaptersCache$MySerializer'
p126
sg15
(lp127
sg17
(lp128
sg19
(lp129
sg21
I0
sbasg64
(lp130
g105
ag112
ag119
ag126
asg21
I0
sg66
S'1186'
p131
sba(iArchitecture
Cluster
p132
(dp133
g7
(lp134
(iArchitecture
Entity
p135
(dp136
g11
(lp137
sg13
S'android.content.pm.PackageInstaller'
p138
sg15
(lp139
sg17
(lp140
sg19
(lp141
sg21
I0
sba(iArchitecture
Entity
p142
(dp143
g11
(lp144
sg13
S'android.content.pm.PackageInstaller$Session'
p145
sg15
(lp146
sg17
(lp147
sg19
(lp148
sg21
I0
sba(iArchitecture
Entity
p149
(dp150
g11
(lp151
sg13
S'android.content.pm.PackageInstaller$SessionCallback'
p152
sg15
(lp153
sg17
(lp154
sg19
(lp155
sg21
I0
sba(iArchitecture
Entity
p156
(dp157
g11
(lp158
sg13
S'android.content.pm.PackageInstaller$SessionCallbackDelegate'
p159
sg15
(lp160
sg17
(lp161
sg19
(lp162
sg21
I0
sba(iArchitecture
Entity
p163
(dp164
g11
(lp165
sg13
S'android.content.pm.PackageInstaller$SessionInfo'
p166
sg15
(lp167
sg17
(lp168
sg19
(lp169
sg21
I0
sba(iArchitecture
Entity
p170
(dp171
g11
(lp172
sg13
S'android.content.pm.PackageInstaller$SessionInfo$1'
p173
sg15
(lp174
sg17
(lp175
sg19
(lp176
sg21
I0
sba(iArchitecture
Entity
p177
(dp178
g11
(lp179
sg13
S'android.content.pm.PackageInstaller$SessionParams'
p180
sg15
(lp181
sg17
(lp182
sg19
(lp183
sg21
I0
sba(iArchitecture
Entity
p184
(dp185
g11
(lp186
sg13
S'android.content.pm.PackageInstaller$SessionParams$1'
p187
sg15
(lp188
sg17
(lp189
sg19
(lp190
sg21
I0
sba(iArchitecture
Entity
p191
(dp192
g11
(lp193
sg13
S'android.content.pm.RegisteredServicesCache'
p194
sg15
(lp195
sg17
(lp196
sg19
(lp197
sg21
I0
sba(iArchitecture
Entity
p198
(dp199
g11
(lp200
sg13
S'android.content.pm.RegisteredServicesCache$1'
p201
sg15
(lp202
sg17
(lp203
sg19
(lp204
sg21
I0
sba(iArchitecture
Entity
p205
(dp206
g11
(lp207
sg13
S'android.content.pm.RegisteredServicesCache$2'
p208
sg15
(lp209
sg17
(lp210
sg19
(lp211
sg21
I0
sba(iArchitecture
Entity
p212
(dp213
g11
(lp214
sg13
S'android.content.pm.RegisteredServicesCache$3'
p215
sg15
(lp216
sg17
(lp217
sg19
(lp218
sg21
I0
sba(iArchitecture
Entity
p219
(dp220
g11
(lp221
sg13
S'android.content.pm.RegisteredServicesCache$4'
p222
sg15
(lp223
sg17
(lp224
sg19
(lp225
sg21
I0
sba(iArchitecture
Entity
p226
(dp227
g11
(lp228
sg13
S'android.content.pm.RegisteredServicesCache$ServiceInfo'
p229
sg15
(lp230
sg17
(lp231
sg19
(lp232
sg21
I0
sba(iArchitecture
Entity
p233
(dp234
g11
(lp235
sg13
S'android.content.pm.RegisteredServicesCache$UserServices'
p236
sg15
(lp237
sg17
(lp238
sg19
(lp239
sg21
I0
sbasg64
(lp240
g138
ag145
ag152
ag159
ag166
ag173
ag180
ag187
ag194
ag201
ag208
ag215
ag222
ag229
ag236
asg21
I0
sg66
S'1190'
p241
sba(iArchitecture
Cluster
p242
(dp243
g7
(lp244
(iArchitecture
Entity
p245
(dp246
g11
(lp247
sg13
S'android.content.res.ResourcesKey'
p248
sg15
(lp249
sg17
(lp250
sg19
(lp251
sg21
I0
sbasg64
(lp252
g248
asg21
I0
sg66
S'1197'
p253
sba(iArchitecture
Cluster
p254
(dp255
g7
(lp256
(iArchitecture
Entity
p257
(dp258
g11
(lp259
sg13
S'android.content.IntentSender'
p260
sg15
(lp261
sg17
(lp262
sg19
(lp263
sg21
I0
sba(iArchitecture
Entity
p264
(dp265
g11
(lp266
sg13
S'android.content.IntentSender$1'
p267
sg15
(lp268
sg17
(lp269
sg19
(lp270
sg21
I0
sba(iArchitecture
Entity
p271
(dp272
g11
(lp273
sg13
S'android.content.IntentSender$FinishedDispatcher'
p274
sg15
(lp275
sg17
(lp276
sg19
(lp277
sg21
I0
sba(iArchitecture
Entity
p278
(dp279
g11
(lp280
sg13
S'android.content.IntentSender$OnFinished'
p281
sg15
(lp282
sg17
(lp283
sg19
(lp284
sg21
I0
sba(iArchitecture
Entity
p285
(dp286
g11
(lp287
sg13
S'android.content.IntentSender$SendIntentException'
p288
sg15
(lp289
sg17
(lp290
sg19
(lp291
sg21
I0
sbasg64
(lp292
g260
ag267
ag274
ag281
ag288
asg21
I0
sg66
S'1202'
p293
sba(iArchitecture
Cluster
p294
(dp295
g7
(lp296
(iArchitecture
Entity
p297
(dp298
g11
(lp299
sg13
S'android.content.res.XmlBlock'
p300
sg15
(lp301
sg17
(lp302
sg19
(lp303
sg21
I0
sba(iArchitecture
Entity
p304
(dp305
g11
(lp306
sg13
S'android.content.res.XmlBlock$Parser'
p307
sg15
(lp308
sg17
(lp309
sg19
(lp310
sg21
I0
sbasg64
(lp311
g300
ag307
asg21
I0
sg66
S'1212'
p312
sba(iArchitecture
Cluster
p313
(dp314
g7
(lp315
(iArchitecture
Entity
p316
(dp317
g11
(lp318
sg13
S'android.content.pm.MacAuthenticatedInputStream'
p319
sg15
(lp320
sg17
(lp321
sg19
(lp322
sg21
I0
sbasg64
(lp323
g319
asg21
I0
sg66
S'1213'
p324
sba(iArchitecture
Cluster
p325
(dp326
g7
(lp327
(iArchitecture
Entity
p328
(dp329
g11
(lp330
sg13
S'android.content.ActivityNotFoundException'
p331
sg15
(lp332
sg17
(lp333
sg19
(lp334
sg21
I0
sba(iArchitecture
Entity
p335
(dp336
g11
(lp337
sg13
S'android.content.EntityIterator'
p338
sg15
(lp339
sg17
(lp340
sg19
(lp341
sg21
I0
sba(iArchitecture
Entity
p342
(dp343
g11
(lp344
sg13
S'android.content.ReceiverCallNotAllowedException'
p345
sg15
(lp346
sg17
(lp347
sg19
(lp348
sg21
I0
sba(iArchitecture
Entity
p349
(dp350
g11
(lp351
sg13
S'android.content.SyncStatusObserver'
p352
sg15
(lp353
sg17
(lp354
sg19
(lp355
sg21
I0
sba(iArchitecture
Entity
p356
(dp357
g11
(lp358
sg13
S'android.content.pm.PackageCleanItem'
p359
sg15
(lp360
sg17
(lp361
sg19
(lp362
sg21
I0
sba(iArchitecture
Entity
p363
(dp364
g11
(lp365
sg13
S'android.content.pm.PackageCleanItem$1'
p366
sg15
(lp367
sg17
(lp368
sg19
(lp369
sg21
I0
sba(iArchitecture
Entity
p370
(dp371
g11
(lp372
sg13
S'android.content.pm.ParceledListSlice'
p373
sg15
(lp374
sg17
(lp375
sg19
(lp376
sg21
I0
sba(iArchitecture
Entity
p377
(dp378
g11
(lp379
sg13
S'android.content.pm.ParceledListSlice$1'
p380
sg15
(lp381
sg17
(lp382
sg19
(lp383
sg21
I0
sba(iArchitecture
Entity
p384
(dp385
g11
(lp386
sg13
S'android.content.pm.ParceledListSlice$2'
p387
sg15
(lp388
sg17
(lp389
sg19
(lp390
sg21
I0
sba(iArchitecture
Entity
p391
(dp392
g11
(lp393
sg13
S'android.content.pm.PathPermission'
p394
sg15
(lp395
sg17
(lp396
sg19
(lp397
sg21
I0
sba(iArchitecture
Entity
p398
(dp399
g11
(lp400
sg13
S'android.content.pm.PathPermission$1'
p401
sg15
(lp402
sg17
(lp403
sg19
(lp404
sg21
I0
sba(iArchitecture
Entity
p405
(dp406
g11
(lp407
sg13
S'android.content.pm.RegisteredServicesCacheListener'
p408
sg15
(lp409
sg17
(lp410
sg19
(lp411
sg21
I0
sba(iArchitecture
Entity
p412
(dp413
g11
(lp414
sg13
S'android.content.pm.XmlSerializerAndParser'
p415
sg15
(lp416
sg17
(lp417
sg19
(lp418
sg21
I0
sba(iArchitecture
Entity
p419
(dp420
g11
(lp421
sg13
S'android.content.res.ObbInfo'
p422
sg15
(lp423
sg17
(lp424
sg19
(lp425
sg21
I0
sba(iArchitecture
Entity
p426
(dp427
g11
(lp428
sg13
S'android.content.res.ObbInfo$1'
p429
sg15
(lp430
sg17
(lp431
sg19
(lp432
sg21
I0
sba(iArchitecture
Entity
p433
(dp434
g11
(lp435
sg13
S'android.content.res.XmlResourceParser'
p436
sg15
(lp437
sg17
(lp438
sg19
(lp439
sg21
I0
sbasg64
(lp440
g331
ag338
ag345
ag352
ag359
ag366
ag373
ag380
ag387
ag394
ag401
ag408
ag415
ag422
ag429
ag436
asg21
I0
sg66
S'1223'
p441
sba(iArchitecture
Cluster
p442
(dp443
g7
(lp444
(iArchitecture
Entity
p445
(dp446
g11
(lp447
sg13
S'android.content.pm.PackageItemInfo'
p448
sg15
(lp449
sg17
(lp450
sg19
(lp451
sg21
I0
sba(iArchitecture
Entity
p452
(dp453
g11
(lp454
sg13
S'android.content.pm.PackageItemInfo$DisplayNameComparator'
p455
sg15
(lp456
sg17
(lp457
sg19
(lp458
sg21
I0
sba(iArchitecture
Entity
p459
(dp460
g11
(lp461
sg13
S'android.content.pm.ResolveInfo'
p462
sg15
(lp463
sg17
(lp464
sg19
(lp465
sg21
I0
sba(iArchitecture
Entity
p466
(dp467
g11
(lp468
sg13
S'android.content.pm.ResolveInfo$1'
p469
sg15
(lp470
sg17
(lp471
sg19
(lp472
sg21
I0
sba(iArchitecture
Entity
p473
(dp474
g11
(lp475
sg13
S'android.content.pm.ResolveInfo$DisplayNameComparator'
p476
sg15
(lp477
sg17
(lp478
sg19
(lp479
sg21
I0
sba(iArchitecture
Entity
p480
(dp481
g11
(lp482
sg13
S'android.content.res.Resources'
p483
sg15
(lp484
sg17
(lp485
sg19
(lp486
sg21
I0
sba(iArchitecture
Entity
p487
(dp488
g11
(lp489
sg13
S'android.content.res.Resources$NotFoundException'
p490
sg15
(lp491
sg17
(lp492
sg19
(lp493
sg21
I0
sba(iArchitecture
Entity
p494
(dp495
g11
(lp496
sg13
S'android.content.res.Resources$Theme'
p497
sg15
(lp498
sg17
(lp499
sg19
(lp500
sg21
I0
sba(iArchitecture
Entity
p501
(dp502
g11
(lp503
sg13
S'android.content.res.Resources$ThemeKey'
p504
sg15
(lp505
sg17
(lp506
sg19
(lp507
sg21
I0
sbasg64
(lp508
g448
ag455
ag462
ag469
ag476
ag483
ag490
ag497
ag504
asg21
I0
sg66
S'1232'
p509
sba(iArchitecture
Cluster
p510
(dp511
g7
(lp512
(iArchitecture
Entity
p513
(dp514
g11
(lp515
sg13
S'android.content.ContentProviderResult'
p516
sg15
(lp517
sg17
(lp518
sg19
(lp519
sg21
I0
sba(iArchitecture
Entity
p520
(dp521
g11
(lp522
sg13
S'android.content.ContentProviderResult$1'
p523
sg15
(lp524
sg17
(lp525
sg19
(lp526
sg21
I0
sba(iArchitecture
Entity
p527
(dp528
g11
(lp529
sg13
S'android.content.ContentUris'
p530
sg15
(lp531
sg17
(lp532
sg19
(lp533
sg21
I0
sba(iArchitecture
Entity
p534
(dp535
g11
(lp536
sg13
S'android.content.Entity'
p537
sg15
(lp538
sg17
(lp539
sg19
(lp540
sg21
I0
sba(iArchitecture
Entity
p541
(dp542
g11
(lp543
sg13
S'android.content.Entity$NamedContentValues'
p544
sg15
(lp545
sg17
(lp546
sg19
(lp547
sg21
I0
sba(iArchitecture
Entity
p548
(dp549
g11
(lp550
sg13
S'android.content.OperationApplicationException'
p551
sg15
(lp552
sg17
(lp553
sg19
(lp554
sg21
I0
sba(iArchitecture
Entity
p555
(dp556
g11
(lp557
sg13
S'android.content.UndoOwner'
p558
sg15
(lp559
sg17
(lp560
sg19
(lp561
sg21
I0
sba(iArchitecture
Entity
p562
(dp563
g11
(lp564
sg13
S'android.content.pm.FeatureInfo'
p565
sg15
(lp566
sg17
(lp567
sg19
(lp568
sg21
I0
sba(iArchitecture
Entity
p569
(dp570
g11
(lp571
sg13
S'android.content.pm.FeatureInfo$1'
p572
sg15
(lp573
sg17
(lp574
sg19
(lp575
sg21
I0
sba(iArchitecture
Entity
p576
(dp577
g11
(lp578
sg13
S'android.content.pm.KeySet'
p579
sg15
(lp580
sg17
(lp581
sg19
(lp582
sg21
I0
sba(iArchitecture
Entity
p583
(dp584
g11
(lp585
sg13
S'android.content.pm.KeySet$1'
p586
sg15
(lp587
sg17
(lp588
sg19
(lp589
sg21
I0
sba(iArchitecture
Entity
p590
(dp591
g11
(lp592
sg13
S'android.content.pm.VerifierInfo'
p593
sg15
(lp594
sg17
(lp595
sg19
(lp596
sg21
I0
sba(iArchitecture
Entity
p597
(dp598
g11
(lp599
sg13
S'android.content.pm.VerifierInfo$1'
p600
sg15
(lp601
sg17
(lp602
sg19
(lp603
sg21
I0
sbasg64
(lp604
g516
ag523
ag530
ag537
ag544
ag551
ag558
ag565
ag572
ag579
ag586
ag593
ag600
asg21
I0
sg66
S'1237'
p605
sba(iArchitecture
Cluster
p606
(dp607
g7
(lp608
(iArchitecture
Entity
p609
(dp610
g11
(lp611
sg13
S'android.content.BroadcastReceiver'
p612
sg15
(lp613
sg17
(lp614
sg19
(lp615
sg21
I0
sba(iArchitecture
Entity
p616
(dp617
g11
(lp618
sg13
S'android.content.BroadcastReceiver$PendingResult'
p619
sg15
(lp620
sg17
(lp621
sg19
(lp622
sg21
I0
sba(iArchitecture
Entity
p623
(dp624
g11
(lp625
sg13
S'android.content.BroadcastReceiver$PendingResult$1'
p626
sg15
(lp627
sg17
(lp628
sg19
(lp629
sg21
I0
sba(iArchitecture
Entity
p630
(dp631
g11
(lp632
sg13
S'android.content.ComponentCallbacks'
p633
sg15
(lp634
sg17
(lp635
sg19
(lp636
sg21
I0
sba(iArchitecture
Entity
p637
(dp638
g11
(lp639
sg13
S'android.content.ContentProvider'
p640
sg15
(lp641
sg17
(lp642
sg19
(lp643
sg21
I0
sba(iArchitecture
Entity
p644
(dp645
g11
(lp646
sg13
S'android.content.ContentProvider$1'
p647
sg15
(lp648
sg17
(lp649
sg19
(lp650
sg21
I0
sba(iArchitecture
Entity
p651
(dp652
g11
(lp653
sg13
S'android.content.ContentProvider$PipeDataWriter'
p654
sg15
(lp655
sg17
(lp656
sg19
(lp657
sg21
I0
sba(iArchitecture
Entity
p658
(dp659
g11
(lp660
sg13
S'android.content.ContentProvider$Transport'
p661
sg15
(lp662
sg17
(lp663
sg19
(lp664
sg21
I0
sba(iArchitecture
Entity
p665
(dp666
g11
(lp667
sg13
S'android.content.ContentQueryMap'
p668
sg15
(lp669
sg17
(lp670
sg19
(lp671
sg21
I0
sba(iArchitecture
Entity
p672
(dp673
g11
(lp674
sg13
S'android.content.ContentQueryMap$1'
p675
sg15
(lp676
sg17
(lp677
sg19
(lp678
sg21
I0
sba(iArchitecture
Entity
p679
(dp680
g11
(lp681
sg13
S'android.content.Context'
p682
sg15
(lp683
sg17
(lp684
sg19
(lp685
sg21
I0
sba(iArchitecture
Entity
p686
(dp687
g11
(lp688
sg13
S'android.content.MutableContextWrapper'
p689
sg15
(lp690
sg17
(lp691
sg19
(lp692
sg21
I0
sba(iArchitecture
Entity
p693
(dp694
g11
(lp695
sg13
S'android.content.ServiceConnection'
p696
sg15
(lp697
sg17
(lp698
sg19
(lp699
sg21
I0
sba(iArchitecture
Entity
p700
(dp701
g11
(lp702
sg13
S'android.content.SyncInfo'
p703
sg15
(lp704
sg17
(lp705
sg19
(lp706
sg21
I0
sba(iArchitecture
Entity
p707
(dp708
g11
(lp709
sg13
S'android.content.SyncInfo$1'
p710
sg15
(lp711
sg17
(lp712
sg19
(lp713
sg21
I0
sba(iArchitecture
Entity
p714
(dp715
g11
(lp716
sg13
S'android.content.pm.ApplicationInfo'
p717
sg15
(lp718
sg17
(lp719
sg19
(lp720
sg21
I0
sba(iArchitecture
Entity
p721
(dp722
g11
(lp723
sg13
S'android.content.pm.ApplicationInfo$1'
p724
sg15
(lp725
sg17
(lp726
sg19
(lp727
sg21
I0
sba(iArchitecture
Entity
p728
(dp729
g11
(lp730
sg13
S'android.content.pm.ApplicationInfo$DisplayNameComparator'
p731
sg15
(lp732
sg17
(lp733
sg19
(lp734
sg21
I0
sba(iArchitecture
Entity
p735
(dp736
g11
(lp737
sg13
S'android.content.pm.FeatureGroupInfo'
p738
sg15
(lp739
sg17
(lp740
sg19
(lp741
sg21
I0
sba(iArchitecture
Entity
p742
(dp743
g11
(lp744
sg13
S'android.content.pm.FeatureGroupInfo$1'
p745
sg15
(lp746
sg17
(lp747
sg19
(lp748
sg21
I0
sba(iArchitecture
Entity
p749
(dp750
g11
(lp751
sg13
S'android.content.pm.PackageInfoLite'
p752
sg15
(lp753
sg17
(lp754
sg19
(lp755
sg21
I0
sba(iArchitecture
Entity
p756
(dp757
g11
(lp758
sg13
S'android.content.pm.PackageInfoLite$1'
p759
sg15
(lp760
sg17
(lp761
sg19
(lp762
sg21
I0
sba(iArchitecture
Entity
p763
(dp764
g11
(lp765
sg13
S'android.content.pm.PermissionGroupInfo'
p766
sg15
(lp767
sg17
(lp768
sg19
(lp769
sg21
I0
sba(iArchitecture
Entity
p770
(dp771
g11
(lp772
sg13
S'android.content.pm.PermissionGroupInfo$1'
p773
sg15
(lp774
sg17
(lp775
sg19
(lp776
sg21
I0
sba(iArchitecture
Entity
p777
(dp778
g11
(lp779
sg13
S'android.content.pm.ProviderInfo'
p780
sg15
(lp781
sg17
(lp782
sg19
(lp783
sg21
I0
sba(iArchitecture
Entity
p784
(dp785
g11
(lp786
sg13
S'android.content.pm.ProviderInfo$1'
p787
sg15
(lp788
sg17
(lp789
sg19
(lp790
sg21
I0
sba(iArchitecture
Entity
p791
(dp792
g11
(lp793
sg13
S'android.content.pm.ServiceInfo'
p794
sg15
(lp795
sg17
(lp796
sg19
(lp797
sg21
I0
sba(iArchitecture
Entity
p798
(dp799
g11
(lp800
sg13
S'android.content.pm.ServiceInfo$1'
p801
sg15
(lp802
sg17
(lp803
sg19
(lp804
sg21
I0
sba(iArchitecture
Entity
p805
(dp806
g11
(lp807
sg13
S'android.content.pm.VerifierDeviceIdentity'
p808
sg15
(lp809
sg17
(lp810
sg19
(lp811
sg21
I0
sba(iArchitecture
Entity
p812
(dp813
g11
(lp814
sg13
S'android.content.pm.VerifierDeviceIdentity$1'
p815
sg15
(lp816
sg17
(lp817
sg19
(lp818
sg21
I0
sba(iArchitecture
Entity
p819
(dp820
g11
(lp821
sg13
S'android.content.res.ConfigurationBoundResourceCache'
p822
sg15
(lp823
sg17
(lp824
sg19
(lp825
sg21
I0
sba(iArchitecture
Entity
p826
(dp827
g11
(lp828
sg13
S'android.content.res.ConstantState'
p829
sg15
(lp830
sg17
(lp831
sg19
(lp832
sg21
I0
sba(iArchitecture
Entity
p833
(dp834
g11
(lp835
sg13
S'android.content.res.DrawableCache'
p836
sg15
(lp837
sg17
(lp838
sg19
(lp839
sg21
I0
sbasg64
(lp840
g612
ag619
ag626
ag633
ag640
ag647
ag654
ag661
ag668
ag675
ag682
ag689
ag696
ag703
ag710
ag717
ag724
ag731
ag738
ag745
ag752
ag759
ag766
ag773
ag780
ag787
ag794
ag801
ag808
ag815
ag822
ag829
ag836
asg21
I0
sg66
S'1246'
p841
sba(iArchitecture
Cluster
p842
(dp843
g7
(lp844
(iArchitecture
Entity
p845
(dp846
g11
(lp847
sg13
S'android.content.ContentValues'
p848
sg15
(lp849
sg17
(lp850
sg19
(lp851
sg21
I0
sba(iArchitecture
Entity
p852
(dp853
g11
(lp854
sg13
S'android.content.ContentValues$1'
p855
sg15
(lp856
sg17
(lp857
sg19
(lp858
sg21
I0
sba(iArchitecture
Entity
p859
(dp860
g11
(lp861
sg13
S'android.content.SearchRecentSuggestionsProvider'
p862
sg15
(lp863
sg17
(lp864
sg19
(lp865
sg21
I0
sba(iArchitecture
Entity
p866
(dp867
g11
(lp868
sg13
S'android.content.SearchRecentSuggestionsProvider$DatabaseHelper'
p869
sg15
(lp870
sg17
(lp871
sg19
(lp872
sg21
I0
sba(iArchitecture
Entity
p873
(dp874
g11
(lp875
sg13
S'android.content.UndoOperation'
p876
sg15
(lp877
sg17
(lp878
sg19
(lp879
sg21
I0
sba(iArchitecture
Entity
p880
(dp881
g11
(lp882
sg13
S'android.content.pm.PackageInfo'
p883
sg15
(lp884
sg17
(lp885
sg19
(lp886
sg21
I0
sba(iArchitecture
Entity
p887
(dp888
g11
(lp889
sg13
S'android.content.pm.PackageInfo$1'
p890
sg15
(lp891
sg17
(lp892
sg19
(lp893
sg21
I0
sbasg64
(lp894
g848
ag855
ag862
ag869
ag876
ag883
ag890
asg21
I0
sg66
S'1261'
p895
sba(iArchitecture
Cluster
p896
(dp897
g7
(lp898
(iArchitecture
Entity
p899
(dp900
g11
(lp901
sg13
S'android.content.CursorEntityIterator'
p902
sg15
(lp903
sg17
(lp904
sg19
(lp905
sg21
I0
sbasg64
(lp906
g902
asg21
I0
sg66
S'142'
p907
sba(iArchitecture
Cluster
p908
(dp909
g7
(lp910
(iArchitecture
Entity
p911
(dp912
g11
(lp913
sg13
S'android.content.pm.LimitedLengthInputStream'
p914
sg15
(lp915
sg17
(lp916
sg19
(lp917
sg21
I0
sbasg64
(lp918
g914
asg21
I0
sg66
S'180'
p919
sba(iArchitecture
Cluster
p920
(dp921
g7
(lp922
(iArchitecture
Entity
p923
(dp924
g11
(lp925
sg13
S'android.content.res.TypedArray'
p926
sg15
(lp927
sg17
(lp928
sg19
(lp929
sg21
I0
sbasg64
(lp930
g926
asg21
I0
sg66
S'227'
p931
sba(iArchitecture
Cluster
p932
(dp933
g7
(lp934
(iArchitecture
Entity
p935
(dp936
g11
(lp937
sg13
S'android.content.DefaultDataHandler'
p938
sg15
(lp939
sg17
(lp940
sg19
(lp941
sg21
I0
sbasg64
(lp942
g938
asg21
I0
sg66
S'228'
p943
sba(iArchitecture
Cluster
p944
(dp945
g7
(lp946
(iArchitecture
Entity
p947
(dp948
g11
(lp949
sg13
S'android.content.pm.ComponentInfo'
p950
sg15
(lp951
sg17
(lp952
sg19
(lp953
sg21
I0
sbasg64
(lp954
g950
asg21
I0
sg66
S'258'
p955
sba(iArchitecture
Cluster
p956
(dp957
g7
(lp958
(iArchitecture
Entity
p959
(dp960
g11
(lp961
sg13
S'android.content.pm.LauncherActivityInfo'
p962
sg15
(lp963
sg17
(lp964
sg19
(lp965
sg21
I0
sbasg64
(lp966
g962
asg21
I0
sg66
S'308'
p967
sba(iArchitecture
Cluster
p968
(dp969
g7
(lp970
(iArchitecture
Entity
p971
(dp972
g11
(lp973
sg13
S'android.content.IContentProvider'
p974
sg15
(lp975
sg17
(lp976
sg19
(lp977
sg21
I0
sbasg64
(lp978
g974
asg21
I0
sg66
S'333'
p979
sba(iArchitecture
Cluster
p980
(dp981
g7
(lp982
(iArchitecture
Entity
p983
(dp984
g11
(lp985
sg13
S'android.content.UriMatcher'
p986
sg15
(lp987
sg17
(lp988
sg19
(lp989
sg21
I0
sbasg64
(lp990
g986
asg21
I0
sg66
S'345'
p991
sba(iArchitecture
Cluster
p992
(dp993
g7
(lp994
(iArchitecture
Entity
p995
(dp996
g11
(lp997
sg13
S'android.content.SyncActivityTooManyDeletes'
p998
sg15
(lp999
sg17
(lp1000
sg19
(lp1001
sg21
I0
sbasg64
(lp1002
g998
asg21
I0
sg66
S'363'
p1003
sba(iArchitecture
Cluster
p1004
(dp1005
g7
(lp1006
(iArchitecture
Entity
p1007
(dp1008
g11
(lp1009
sg13
S'android.content.ContentInsertHandler'
p1010
sg15
(lp1011
sg17
(lp1012
sg19
(lp1013
sg21
I0
sbasg64
(lp1014
g1010
asg21
I0
sg66
S'374'
p1015
sba(iArchitecture
Cluster
p1016
(dp1017
g7
(lp1018
(iArchitecture
Entity
p1019
(dp1020
g11
(lp1021
sg13
S'android.content.SyncContext'
p1022
sg15
(lp1023
sg17
(lp1024
sg19
(lp1025
sg21
I0
sbasg64
(lp1026
g1022
asg21
I0
sg66
S'381'
p1027
sba(iArchitecture
Cluster
p1028
(dp1029
g7
(lp1030
(iArchitecture
Entity
p1031
(dp1032
g11
(lp1033
sg13
S'android.content.ContentProviderNative'
p1034
sg15
(lp1035
sg17
(lp1036
sg19
(lp1037
sg21
I0
sbasg64
(lp1038
g1034
asg21
I0
sg66
S'382'
p1039
sba(iArchitecture
Cluster
p1040
(dp1041
g7
(lp1042
(iArchitecture
Entity
p1043
(dp1044
g11
(lp1045
sg13
S'android.content.CursorLoader'
p1046
sg15
(lp1047
sg17
(lp1048
sg19
(lp1049
sg21
I0
sbasg64
(lp1050
g1046
asg21
I0
sg66
S'402'
p1051
sba(iArchitecture
Cluster
p1052
(dp1053
g7
(lp1054
(iArchitecture
Entity
p1055
(dp1056
g11
(lp1057
sg13
S'android.content.ComponentCallbacks2'
p1058
sg15
(lp1059
sg17
(lp1060
sg19
(lp1061
sg21
I0
sbasg64
(lp1062
g1058
asg21
I0
sg66
S'442'
p1063
sba(iArchitecture
Cluster
p1064
(dp1065
g7
(lp1066
(iArchitecture
Entity
p1067
(dp1068
g11
(lp1069
sg13
S'android.content.ContentProviderClient'
p1070
sg15
(lp1071
sg17
(lp1072
sg19
(lp1073
sg21
I0
sba(iArchitecture
Entity
p1074
(dp1075
g11
(lp1076
sg13
S'android.content.ContentProviderClient$NotRespondingRunnable'
p1077
sg15
(lp1078
sg17
(lp1079
sg19
(lp1080
sg21
I0
sbasg64
(lp1081
g1070
ag1077
asg21
I0
sg66
S'445'
p1082
sba(iArchitecture
Cluster
p1083
(dp1084
g7
(lp1085
(iArchitecture
Entity
p1086
(dp1087
g11
(lp1088
sg13
S'android.content.pm.UserInfo'
p1089
sg15
(lp1090
sg17
(lp1091
sg19
(lp1092
sg21
I0
sba(iArchitecture
Entity
p1093
(dp1094
g11
(lp1095
sg13
S'android.content.pm.UserInfo$1'
p1096
sg15
(lp1097
sg17
(lp1098
sg19
(lp1099
sg21
I0
sbasg64
(lp1100
g1089
ag1096
asg21
I0
sg66
S'449'
p1101
sba(iArchitecture
Cluster
p1102
(dp1103
g7
(lp1104
(iArchitecture
Entity
p1105
(dp1106
g11
(lp1107
sg13
S'android.content.UriPermission'
p1108
sg15
(lp1109
sg17
(lp1110
sg19
(lp1111
sg21
I0
sba(iArchitecture
Entity
p1112
(dp1113
g11
(lp1114
sg13
S'android.content.UriPermission$1'
p1115
sg15
(lp1116
sg17
(lp1117
sg19
(lp1118
sg21
I0
sbasg64
(lp1119
g1108
ag1115
asg21
I0
sg66
S'450'
p1120
sba(iArchitecture
Cluster
p1121
(dp1122
g7
(lp1123
(iArchitecture
Entity
p1124
(dp1125
g11
(lp1126
sg13
S'android.content.res.Configuration'
p1127
sg15
(lp1128
sg17
(lp1129
sg19
(lp1130
sg21
I0
sba(iArchitecture
Entity
p1131
(dp1132
g11
(lp1133
sg13
S'android.content.res.Configuration$1'
p1134
sg15
(lp1135
sg17
(lp1136
sg19
(lp1137
sg21
I0
sbasg64
(lp1138
g1127
ag1134
asg21
I0
sg66
S'472'
p1139
sba(iArchitecture
Cluster
p1140
(dp1141
g7
(lp1142
(iArchitecture
Entity
p1143
(dp1144
g11
(lp1145
sg13
S'android.content.pm.ConfigurationInfo'
p1146
sg15
(lp1147
sg17
(lp1148
sg19
(lp1149
sg21
I0
sba(iArchitecture
Entity
p1150
(dp1151
g11
(lp1152
sg13
S'android.content.pm.ConfigurationInfo$1'
p1153
sg15
(lp1154
sg17
(lp1155
sg19
(lp1156
sg21
I0
sbasg64
(lp1157
g1146
ag1153
asg21
I0
sg66
S'480'
p1158
sba(iArchitecture
Cluster
p1159
(dp1160
g7
(lp1161
(iArchitecture
Entity
p1162
(dp1163
g11
(lp1164
sg13
S'android.content.ClipDescription'
p1165
sg15
(lp1166
sg17
(lp1167
sg19
(lp1168
sg21
I0
sba(iArchitecture
Entity
p1169
(dp1170
g11
(lp1171
sg13
S'android.content.ClipDescription$1'
p1172
sg15
(lp1173
sg17
(lp1174
sg19
(lp1175
sg21
I0
sbasg64
(lp1176
g1165
ag1172
asg21
I0
sg66
S'487'
p1177
sba(iArchitecture
Cluster
p1178
(dp1179
g7
(lp1180
(iArchitecture
Entity
p1181
(dp1182
g11
(lp1183
sg13
S'android.content.RestrictionEntry'
p1184
sg15
(lp1185
sg17
(lp1186
sg19
(lp1187
sg21
I0
sba(iArchitecture
Entity
p1188
(dp1189
g11
(lp1190
sg13
S'android.content.RestrictionEntry$1'
p1191
sg15
(lp1192
sg17
(lp1193
sg19
(lp1194
sg21
I0
sbasg64
(lp1195
g1184
ag1191
asg21
I0
sg66
S'488'
p1196
sba(iArchitecture
Cluster
p1197
(dp1198
g7
(lp1199
(iArchitecture
Entity
p1200
(dp1201
g11
(lp1202
sg13
S'android.content.res.ThemedResourceCache'
p1203
sg15
(lp1204
sg17
(lp1205
sg19
(lp1206
sg21
I0
sbasg64
(lp1207
g1203
asg21
I0
sg66
S'51'
p1208
sba(iArchitecture
Cluster
p1209
(dp1210
g7
(lp1211
(iArchitecture
Entity
p1212
(dp1213
g11
(lp1214
sg13
S'android.content.res.AssetManager'
p1215
sg15
(lp1216
sg17
(lp1217
sg19
(lp1218
sg21
I0
sba(iArchitecture
Entity
p1219
(dp1220
g11
(lp1221
sg13
S'android.content.res.AssetManager$AssetInputStream'
p1222
sg15
(lp1223
sg17
(lp1224
sg19
(lp1225
sg21
I0
sbasg64
(lp1226
g1215
ag1222
asg21
I0
sg66
S'519'
p1227
sba(iArchitecture
Cluster
p1228
(dp1229
g7
(lp1230
(iArchitecture
Entity
p1231
(dp1232
g11
(lp1233
sg13
S'android.content.PeriodicSync'
p1234
sg15
(lp1235
sg17
(lp1236
sg19
(lp1237
sg21
I0
sba(iArchitecture
Entity
p1238
(dp1239
g11
(lp1240
sg13
S'android.content.PeriodicSync$1'
p1241
sg15
(lp1242
sg17
(lp1243
sg19
(lp1244
sg21
I0
sbasg64
(lp1245
g1234
ag1241
asg21
I0
sg66
S'520'
p1246
sba(iArchitecture
Cluster
p1247
(dp1248
g7
(lp1249
(iArchitecture
Entity
p1250
(dp1251
g11
(lp1252
sg13
S'android.content.AsyncTaskLoader'
p1253
sg15
(lp1254
sg17
(lp1255
sg19
(lp1256
sg21
I0
sba(iArchitecture
Entity
p1257
(dp1258
g11
(lp1259
sg13
S'android.content.AsyncTaskLoader$LoadTask'
p1260
sg15
(lp1261
sg17
(lp1262
sg19
(lp1263
sg21
I0
sbasg64
(lp1264
g1253
ag1260
asg21
I0
sg66
S'524'
p1265
sba(iArchitecture
Cluster
p1266
(dp1267
g7
(lp1268
(iArchitecture
Entity
p1269
(dp1270
g11
(lp1271
sg13
S'android.content.pm.ActivityInfo'
p1272
sg15
(lp1273
sg17
(lp1274
sg19
(lp1275
sg21
I0
sba(iArchitecture
Entity
p1276
(dp1277
g11
(lp1278
sg13
S'android.content.pm.ActivityInfo$1'
p1279
sg15
(lp1280
sg17
(lp1281
sg19
(lp1282
sg21
I0
sbasg64
(lp1283
g1272
ag1279
asg21
I0
sg66
S'534'
p1284
sba(iArchitecture
Cluster
p1285
(dp1286
g7
(lp1287
(iArchitecture
Entity
p1288
(dp1289
g11
(lp1290
sg13
S'android.content.pm.LabeledIntent'
p1291
sg15
(lp1292
sg17
(lp1293
sg19
(lp1294
sg21
I0
sba(iArchitecture
Entity
p1295
(dp1296
g11
(lp1297
sg13
S'android.content.pm.LabeledIntent$1'
p1298
sg15
(lp1299
sg17
(lp1300
sg19
(lp1301
sg21
I0
sbasg64
(lp1302
g1291
ag1298
asg21
I0
sg66
S'544'
p1303
sba(iArchitecture
Cluster
p1304
(dp1305
g7
(lp1306
(iArchitecture
Entity
p1307
(dp1308
g11
(lp1309
sg13
S'android.content.pm.PermissionInfo'
p1310
sg15
(lp1311
sg17
(lp1312
sg19
(lp1313
sg21
I0
sba(iArchitecture
Entity
p1314
(dp1315
g11
(lp1316
sg13
S'android.content.pm.PermissionInfo$1'
p1317
sg15
(lp1318
sg17
(lp1319
sg19
(lp1320
sg21
I0
sbasg64
(lp1321
g1310
ag1317
asg21
I0
sg66
S'599'
p1322
sba(iArchitecture
Cluster
p1323
(dp1324
g7
(lp1325
(iArchitecture
Entity
p1326
(dp1327
g11
(lp1328
sg13
S'android.content.pm.IntentFilterVerificationInfo'
p1329
sg15
(lp1330
sg17
(lp1331
sg19
(lp1332
sg21
I0
sba(iArchitecture
Entity
p1333
(dp1334
g11
(lp1335
sg13
S'android.content.pm.IntentFilterVerificationInfo$1'
p1336
sg15
(lp1337
sg17
(lp1338
sg19
(lp1339
sg21
I0
sbasg64
(lp1340
g1329
ag1336
asg21
I0
sg66
S'619'
p1341
sba(iArchitecture
Cluster
p1342
(dp1343
g7
(lp1344
(iArchitecture
Entity
p1345
(dp1346
g11
(lp1347
sg13
S'android.content.SyncStatusInfo'
p1348
sg15
(lp1349
sg17
(lp1350
sg19
(lp1351
sg21
I0
sba(iArchitecture
Entity
p1352
(dp1353
g11
(lp1354
sg13
S'android.content.SyncStatusInfo$1'
p1355
sg15
(lp1356
sg17
(lp1357
sg19
(lp1358
sg21
I0
sbasg64
(lp1359
g1348
ag1355
asg21
I0
sg66
S'630'
p1360
sba(iArchitecture
Cluster
p1361
(dp1362
g7
(lp1363
(iArchitecture
Entity
p1364
(dp1365
g11
(lp1366
sg13
S'android.content.pm.PackageStats'
p1367
sg15
(lp1368
sg17
(lp1369
sg19
(lp1370
sg21
I0
sba(iArchitecture
Entity
p1371
(dp1372
g11
(lp1373
sg13
S'android.content.pm.PackageStats$1'
p1374
sg15
(lp1375
sg17
(lp1376
sg19
(lp1377
sg21
I0
sbasg64
(lp1378
g1367
ag1374
asg21
I0
sg66
S'671'
p1379
sba(iArchitecture
Cluster
p1380
(dp1381
g7
(lp1382
(iArchitecture
Entity
p1383
(dp1384
g11
(lp1385
sg13
S'android.content.pm.InstrumentationInfo'
p1386
sg15
(lp1387
sg17
(lp1388
sg19
(lp1389
sg21
I0
sba(iArchitecture
Entity
p1390
(dp1391
g11
(lp1392
sg13
S'android.content.pm.InstrumentationInfo$1'
p1393
sg15
(lp1394
sg17
(lp1395
sg19
(lp1396
sg21
I0
sbasg64
(lp1397
g1386
ag1393
asg21
I0
sg66
S'679'
p1398
sba(iArchitecture
Cluster
p1399
(dp1400
g7
(lp1401
(iArchitecture
Entity
p1402
(dp1403
g11
(lp1404
sg13
S'android.content.SyncStats'
p1405
sg15
(lp1406
sg17
(lp1407
sg19
(lp1408
sg21
I0
sba(iArchitecture
Entity
p1409
(dp1410
g11
(lp1411
sg13
S'android.content.SyncStats$1'
p1412
sg15
(lp1413
sg17
(lp1414
sg19
(lp1415
sg21
I0
sbasg64
(lp1416
g1405
ag1412
asg21
I0
sg66
S'681'
p1417
sba(iArchitecture
Cluster
p1418
(dp1419
g7
(lp1420
(iArchitecture
Entity
p1421
(dp1422
g11
(lp1423
sg13
S'android.content.pm.Signature'
p1424
sg15
(lp1425
sg17
(lp1426
sg19
(lp1427
sg21
I0
sba(iArchitecture
Entity
p1428
(dp1429
g11
(lp1430
sg13
S'android.content.pm.Signature$1'
p1431
sg15
(lp1432
sg17
(lp1433
sg19
(lp1434
sg21
I0
sbasg64
(lp1435
g1424
ag1431
asg21
I0
sg66
S'705'
p1436
sba(iArchitecture
Cluster
p1437
(dp1438
g7
(lp1439
(iArchitecture
Entity
p1440
(dp1441
g11
(lp1442
sg13
S'android.content.SyncResult'
p1443
sg15
(lp1444
sg17
(lp1445
sg19
(lp1446
sg21
I0
sba(iArchitecture
Entity
p1447
(dp1448
g11
(lp1449
sg13
S'android.content.SyncResult$1'
p1450
sg15
(lp1451
sg17
(lp1452
sg19
(lp1453
sg21
I0
sbasg64
(lp1454
g1443
ag1450
asg21
I0
sg66
S'733'
p1455
sba(iArchitecture
Cluster
p1456
(dp1457
g7
(lp1458
(iArchitecture
Entity
p1459
(dp1460
g11
(lp1461
sg13
S'android.content.pm.VerificationParams'
p1462
sg15
(lp1463
sg17
(lp1464
sg19
(lp1465
sg21
I0
sba(iArchitecture
Entity
p1466
(dp1467
g11
(lp1468
sg13
S'android.content.pm.VerificationParams$1'
p1469
sg15
(lp1470
sg17
(lp1471
sg19
(lp1472
sg21
I0
sbasg64
(lp1473
g1462
ag1469
asg21
I0
sg66
S'736'
p1474
sba(iArchitecture
Cluster
p1475
(dp1476
g7
(lp1477
(iArchitecture
Entity
p1478
(dp1479
g11
(lp1480
sg13
S'android.content.SharedPreferences'
p1481
sg15
(lp1482
sg17
(lp1483
sg19
(lp1484
sg21
I0
sba(iArchitecture
Entity
p1485
(dp1486
g11
(lp1487
sg13
S'android.content.SharedPreferences$Editor'
p1488
sg15
(lp1489
sg17
(lp1490
sg19
(lp1491
sg21
I0
sba(iArchitecture
Entity
p1492
(dp1493
g11
(lp1494
sg13
S'android.content.SharedPreferences$OnSharedPreferenceChangeListener'
p1495
sg15
(lp1496
sg17
(lp1497
sg19
(lp1498
sg21
I0
sbasg64
(lp1499
g1481
ag1488
ag1495
asg21
I0
sg66
S'744'
p1500
sba(iArchitecture
Cluster
p1501
(dp1502
g7
(lp1503
(iArchitecture
Entity
p1504
(dp1505
g11
(lp1506
sg13
S'android.content.AbstractThreadedSyncAdapter'
p1507
sg15
(lp1508
sg17
(lp1509
sg19
(lp1510
sg21
I0
sba(iArchitecture
Entity
p1511
(dp1512
g11
(lp1513
sg13
S'android.content.AbstractThreadedSyncAdapter$ISyncAdapterImpl'
p1514
sg15
(lp1515
sg17
(lp1516
sg19
(lp1517
sg21
I0
sba(iArchitecture
Entity
p1518
(dp1519
g11
(lp1520
sg13
S'android.content.AbstractThreadedSyncAdapter$SyncThread'
p1521
sg15
(lp1522
sg17
(lp1523
sg19
(lp1524
sg21
I0
sbasg64
(lp1525
g1507
ag1514
ag1521
asg21
I0
sg66
S'758'
p1526
sba(iArchitecture
Cluster
p1527
(dp1528
g7
(lp1529
(iArchitecture
Entity
p1530
(dp1531
g11
(lp1532
sg13
S'android.content.res.ColorStateList'
p1533
sg15
(lp1534
sg17
(lp1535
sg19
(lp1536
sg21
I0
sba(iArchitecture
Entity
p1537
(dp1538
g11
(lp1539
sg13
S'android.content.res.ColorStateList$1'
p1540
sg15
(lp1541
sg17
(lp1542
sg19
(lp1543
sg21
I0
sba(iArchitecture
Entity
p1544
(dp1545
g11
(lp1546
sg13
S'android.content.res.ColorStateList$ColorStateListFactory'
p1547
sg15
(lp1548
sg17
(lp1549
sg19
(lp1550
sg21
I0
sbasg64
(lp1551
g1533
ag1540
ag1547
asg21
I0
sg66
S'774'
p1552
sba(iArchitecture
Cluster
p1553
(dp1554
g7
(lp1555
(iArchitecture
Entity
p1556
(dp1557
g11
(lp1558
sg13
S'android.content.res.StringBlock'
p1559
sg15
(lp1560
sg17
(lp1561
sg19
(lp1562
sg21
I0
sba(iArchitecture
Entity
p1563
(dp1564
g11
(lp1565
sg13
S'android.content.res.StringBlock$Height'
p1566
sg15
(lp1567
sg17
(lp1568
sg19
(lp1569
sg21
I0
sba(iArchitecture
Entity
p1570
(dp1571
g11
(lp1572
sg13
S'android.content.res.StringBlock$StyleIDs'
p1573
sg15
(lp1574
sg17
(lp1575
sg19
(lp1576
sg21
I0
sbasg64
(lp1577
g1559
ag1566
ag1573
asg21
I0
sg66
S'803'
p1578
sba(iArchitecture
Cluster
p1579
(dp1580
g7
(lp1581
(iArchitecture
Entity
p1582
(dp1583
g11
(lp1584
sg13
S'android.content.ContextWrapper'
p1585
sg15
(lp1586
sg17
(lp1587
sg19
(lp1588
sg21
I0
sbasg64
(lp1589
g1585
asg21
I0
sg66
S'81'
p1590
sba(iArchitecture
Cluster
p1591
(dp1592
g7
(lp1593
(iArchitecture
Entity
p1594
(dp1595
g11
(lp1596
sg13
S'android.content.ClipData'
p1597
sg15
(lp1598
sg17
(lp1599
sg19
(lp1600
sg21
I0
sba(iArchitecture
Entity
p1601
(dp1602
g11
(lp1603
sg13
S'android.content.ClipData$1'
p1604
sg15
(lp1605
sg17
(lp1606
sg19
(lp1607
sg21
I0
sba(iArchitecture
Entity
p1608
(dp1609
g11
(lp1610
sg13
S'android.content.ClipData$Item'
p1611
sg15
(lp1612
sg17
(lp1613
sg19
(lp1614
sg21
I0
sbasg64
(lp1615
g1597
ag1604
ag1611
asg21
I0
sg66
S'815'
p1616
sba(iArchitecture
Cluster
p1617
(dp1618
g7
(lp1619
(iArchitecture
Entity
p1620
(dp1621
g11
(lp1622
sg13
S'android.content.ContentProviderOperation'
p1623
sg15
(lp1624
sg17
(lp1625
sg19
(lp1626
sg21
I0
sba(iArchitecture
Entity
p1627
(dp1628
g11
(lp1629
sg13
S'android.content.ContentProviderOperation$1'
p1630
sg15
(lp1631
sg17
(lp1632
sg19
(lp1633
sg21
I0
sba(iArchitecture
Entity
p1634
(dp1635
g11
(lp1636
sg13
S'android.content.ContentProviderOperation$Builder'
p1637
sg15
(lp1638
sg17
(lp1639
sg19
(lp1640
sg21
I0
sbasg64
(lp1641
g1623
ag1630
ag1637
asg21
I0
sg66
S'832'
p1642
sba(iArchitecture
Cluster
p1643
(dp1644
g7
(lp1645
(iArchitecture
Entity
p1646
(dp1647
g11
(lp1648
sg13
S'android.content.SyncRequest'
p1649
sg15
(lp1650
sg17
(lp1651
sg19
(lp1652
sg21
I0
sba(iArchitecture
Entity
p1653
(dp1654
g11
(lp1655
sg13
S'android.content.SyncRequest$1'
p1656
sg15
(lp1657
sg17
(lp1658
sg19
(lp1659
sg21
I0
sba(iArchitecture
Entity
p1660
(dp1661
g11
(lp1662
sg13
S'android.content.SyncRequest$Builder'
p1663
sg15
(lp1664
sg17
(lp1665
sg19
(lp1666
sg21
I0
sbasg64
(lp1667
g1649
ag1656
ag1663
asg21
I0
sg66
S'847'
p1668
sba(iArchitecture
Cluster
p1669
(dp1670
g7
(lp1671
(iArchitecture
Entity
p1672
(dp1673
g11
(lp1674
sg13
S'android.content.Loader'
p1675
sg15
(lp1676
sg17
(lp1677
sg19
(lp1678
sg21
I0
sba(iArchitecture
Entity
p1679
(dp1680
g11
(lp1681
sg13
S'android.content.Loader$ForceLoadContentObserver'
p1682
sg15
(lp1683
sg17
(lp1684
sg19
(lp1685
sg21
I0
sba(iArchitecture
Entity
p1686
(dp1687
g11
(lp1688
sg13
S'android.content.Loader$OnLoadCanceledListener'
p1689
sg15
(lp1690
sg17
(lp1691
sg19
(lp1692
sg21
I0
sba(iArchitecture
Entity
p1693
(dp1694
g11
(lp1695
sg13
S'android.content.Loader$OnLoadCompleteListener'
p1696
sg15
(lp1697
sg17
(lp1698
sg19
(lp1699
sg21
I0
sbasg64
(lp1700
g1675
ag1682
ag1689
ag1696
asg21
I0
sg66
S'857'
p1701
sba(iArchitecture
Cluster
p1702
(dp1703
g7
(lp1704
(iArchitecture
Entity
p1705
(dp1706
g11
(lp1707
sg13
S'android.content.res.AssetFileDescriptor'
p1708
sg15
(lp1709
sg17
(lp1710
sg19
(lp1711
sg21
I0
sba(iArchitecture
Entity
p1712
(dp1713
g11
(lp1714
sg13
S'android.content.res.AssetFileDescriptor$1'
p1715
sg15
(lp1716
sg17
(lp1717
sg19
(lp1718
sg21
I0
sba(iArchitecture
Entity
p1719
(dp1720
g11
(lp1721
sg13
S'android.content.res.AssetFileDescriptor$AutoCloseInputStream'
p1722
sg15
(lp1723
sg17
(lp1724
sg19
(lp1725
sg21
I0
sba(iArchitecture
Entity
p1726
(dp1727
g11
(lp1728
sg13
S'android.content.res.AssetFileDescriptor$AutoCloseOutputStream'
p1729
sg15
(lp1730
sg17
(lp1731
sg19
(lp1732
sg21
I0
sbasg64
(lp1733
g1708
ag1715
ag1722
ag1729
asg21
I0
sg66
S'871'
p1734
sba(iArchitecture
Cluster
p1735
(dp1736
g7
(lp1737
(iArchitecture
Entity
p1738
(dp1739
g11
(lp1740
sg13
S'android.content.IntentFilter'
p1741
sg15
(lp1742
sg17
(lp1743
sg19
(lp1744
sg21
I0
sba(iArchitecture
Entity
p1745
(dp1746
g11
(lp1747
sg13
S'android.content.IntentFilter$1'
p1748
sg15
(lp1749
sg17
(lp1750
sg19
(lp1751
sg21
I0
sba(iArchitecture
Entity
p1752
(dp1753
g11
(lp1754
sg13
S'android.content.IntentFilter$AuthorityEntry'
p1755
sg15
(lp1756
sg17
(lp1757
sg19
(lp1758
sg21
I0
sba(iArchitecture
Entity
p1759
(dp1760
g11
(lp1761
sg13
S'android.content.IntentFilter$MalformedMimeTypeException'
p1762
sg15
(lp1763
sg17
(lp1764
sg19
(lp1765
sg21
I0
sbasg64
(lp1766
g1741
ag1748
ag1755
ag1762
asg21
I0
sg66
S'875'
p1767
sba(iArchitecture
Cluster
p1768
(dp1769
g7
(lp1770
(iArchitecture
Entity
p1771
(dp1772
g11
(lp1773
sg13
S'android.content.ClipboardManager'
p1774
sg15
(lp1775
sg17
(lp1776
sg19
(lp1777
sg21
I0
sba(iArchitecture
Entity
p1778
(dp1779
g11
(lp1780
sg13
S'android.content.ClipboardManager$1'
p1781
sg15
(lp1782
sg17
(lp1783
sg19
(lp1784
sg21
I0
sba(iArchitecture
Entity
p1785
(dp1786
g11
(lp1787
sg13
S'android.content.ClipboardManager$2'
p1788
sg15
(lp1789
sg17
(lp1790
sg19
(lp1791
sg21
I0
sba(iArchitecture
Entity
p1792
(dp1793
g11
(lp1794
sg13
S'android.content.ClipboardManager$OnPrimaryClipChangedListener'
p1795
sg15
(lp1796
sg17
(lp1797
sg19
(lp1798
sg21
I0
sbasg64
(lp1799
g1774
ag1781
ag1788
ag1795
asg21
I0
sg66
S'881'
p1800
sba(iArchitecture
Cluster
p1801
(dp1802
g7
(lp1803
(iArchitecture
Entity
p1804
(dp1805
g11
(lp1806
sg13
S'android.content.res.CompatibilityInfo'
p1807
sg15
(lp1808
sg17
(lp1809
sg19
(lp1810
sg21
I0
sba(iArchitecture
Entity
p1811
(dp1812
g11
(lp1813
sg13
S'android.content.res.CompatibilityInfo$1'
p1814
sg15
(lp1815
sg17
(lp1816
sg19
(lp1817
sg21
I0
sba(iArchitecture
Entity
p1818
(dp1819
g11
(lp1820
sg13
S'android.content.res.CompatibilityInfo$2'
p1821
sg15
(lp1822
sg17
(lp1823
sg19
(lp1824
sg21
I0
sba(iArchitecture
Entity
p1825
(dp1826
g11
(lp1827
sg13
S'android.content.res.CompatibilityInfo$Translator'
p1828
sg15
(lp1829
sg17
(lp1830
sg19
(lp1831
sg21
I0
sbasg64
(lp1832
g1807
ag1814
ag1821
ag1828
asg21
I0
sg66
S'904'
p1833
sba(iArchitecture
Cluster
p1834
(dp1835
g7
(lp1836
(iArchitecture
Entity
p1837
(dp1838
g11
(lp1839
sg13
S'android.content.pm.PackageManagerInternal'
p1840
sg15
(lp1841
sg17
(lp1842
sg19
(lp1843
sg21
I0
sba(iArchitecture
Entity
p1844
(dp1845
g11
(lp1846
sg13
S'android.content.pm.PackageManagerInternal$PackagesProvider'
p1847
sg15
(lp1848
sg17
(lp1849
sg19
(lp1850
sg21
I0
sba(iArchitecture
Entity
p1851
(dp1852
g11
(lp1853
sg13
S'android.content.pm.PackageManagerInternal$SyncAdapterPackagesProvider'
p1854
sg15
(lp1855
sg17
(lp1856
sg19
(lp1857
sg21
I0
sbasg64
(lp1858
g1840
ag1847
ag1854
asg21
I0
sg66
S'919'
p1859
sba(iArchitecture
Cluster
p1860
(dp1861
g7
(lp1862
(iArchitecture
Entity
p1863
(dp1864
g11
(lp1865
sg13
S'android.content.pm.LauncherApps'
p1866
sg15
(lp1867
sg17
(lp1868
sg19
(lp1869
sg21
I0
sba(iArchitecture
Entity
p1870
(dp1871
g11
(lp1872
sg13
S'android.content.pm.LauncherApps$1'
p1873
sg15
(lp1874
sg17
(lp1875
sg19
(lp1876
sg21
I0
sba(iArchitecture
Entity
p1877
(dp1878
g11
(lp1879
sg13
S'android.content.pm.LauncherApps$Callback'
p1880
sg15
(lp1881
sg17
(lp1882
sg19
(lp1883
sg21
I0
sba(iArchitecture
Entity
p1884
(dp1885
g11
(lp1886
sg13
S'android.content.pm.LauncherApps$CallbackMessageHandler'
p1887
sg15
(lp1888
sg17
(lp1889
sg19
(lp1890
sg21
I0
sba(iArchitecture
Entity
p1891
(dp1892
g11
(lp1893
sg13
S'android.content.pm.LauncherApps$CallbackMessageHandler$CallbackInfo'
p1894
sg15
(lp1895
sg17
(lp1896
sg19
(lp1897
sg21
I0
sbasg64
(lp1898
g1866
ag1873
ag1880
ag1887
ag1894
asg21
I0
sg66
S'933'
p1899
sbasS'target_sub'
p1900
S'android.content'
p1901
sg64
(lp1902
sS'is_component_arch'
p1903
I00
sg66
S'6.0.0_r1'
p1904
sba(iArchitecture
Architecture
p1905
(dp1906
g3
(lp1907
(iArchitecture
Cluster
p1908
(dp1909
g7
(lp1910
(iArchitecture
Entity
p1911
(dp1912
g11
(lp1913
sg13
S'android.content.res.CompatibilityInfo'
p1914
sg15
(lp1915
sg17
(lp1916
sg19
(lp1917
sg21
I0
sba(iArchitecture
Entity
p1918
(dp1919
g11
(lp1920
sg13
S'android.content.res.CompatibilityInfo$1'
p1921
sg15
(lp1922
sg17
(lp1923
sg19
(lp1924
sg21
I0
sba(iArchitecture
Entity
p1925
(dp1926
g11
(lp1927
sg13
S'android.content.res.CompatibilityInfo$2'
p1928
sg15
(lp1929
sg17
(lp1930
sg19
(lp1931
sg21
I0
sba(iArchitecture
Entity
p1932
(dp1933
g11
(lp1934
sg13
S'android.content.res.CompatibilityInfo$Translator'
p1935
sg15
(lp1936
sg17
(lp1937
sg19
(lp1938
sg21
I0
sbasg64
(lp1939
g1914
ag1921
ag1928
ag1935
asg21
I0
sg66
S'1019'
p1940
sba(iArchitecture
Cluster
p1941
(dp1942
g7
(lp1943
(iArchitecture
Entity
p1944
(dp1945
g11
(lp1946
sg13
S'android.content.pm.PackageManagerInternal'
p1947
sg15
(lp1948
sg17
(lp1949
sg19
(lp1950
sg21
I0
sba(iArchitecture
Entity
p1951
(dp1952
g11
(lp1953
sg13
S'android.content.pm.PackageManagerInternal$PackagesProvider'
p1954
sg15
(lp1955
sg17
(lp1956
sg19
(lp1957
sg21
I0
sba(iArchitecture
Entity
p1958
(dp1959
g11
(lp1960
sg13
S'android.content.pm.PackageManagerInternal$SyncAdapterPackagesProvider'
p1961
sg15
(lp1962
sg17
(lp1963
sg19
(lp1964
sg21
I0
sbasg64
(lp1965
g1947
ag1954
ag1961
asg21
I0
sg66
S'1035'
p1966
sba(iArchitecture
Cluster
p1967
(dp1968
g7
(lp1969
(iArchitecture
Entity
p1970
(dp1971
g11
(lp1972
sg13
S'android.content.pm.LauncherApps'
p1973
sg15
(lp1974
sg17
(lp1975
sg19
(lp1976
sg21
I0
sba(iArchitecture
Entity
p1977
(dp1978
g11
(lp1979
sg13
S'android.content.pm.LauncherApps$1'
p1980
sg15
(lp1981
sg17
(lp1982
sg19
(lp1983
sg21
I0
sba(iArchitecture
Entity
p1984
(dp1985
g11
(lp1986
sg13
S'android.content.pm.LauncherApps$Callback'
p1987
sg15
(lp1988
sg17
(lp1989
sg19
(lp1990
sg21
I0
sba(iArchitecture
Entity
p1991
(dp1992
g11
(lp1993
sg13
S'android.content.pm.LauncherApps$CallbackMessageHandler'
p1994
sg15
(lp1995
sg17
(lp1996
sg19
(lp1997
sg21
I0
sba(iArchitecture
Entity
p1998
(dp1999
g11
(lp2000
sg13
S'android.content.pm.LauncherApps$CallbackMessageHandler$CallbackInfo'
p2001
sg15
(lp2002
sg17
(lp2003
sg19
(lp2004
sg21
I0
sba(iArchitecture
Entity
p2005
(dp2006
g11
(lp2007
sg13
S'android.content.pm.LauncherApps$ShortcutQuery'
p2008
sg15
(lp2009
sg17
(lp2010
sg19
(lp2011
sg21
I0
sbasg64
(lp2012
g1973
ag1980
ag1987
ag1994
ag2001
ag2008
asg21
I0
sg66
S'1136'
p2013
sba(iArchitecture
Cluster
p2014
(dp2015
g7
(lp2016
(iArchitecture
Entity
p2017
(dp2018
g11
(lp2019
sg13
S'android.content.res.ColorStateList'
p2020
sg15
(lp2021
sg17
(lp2022
sg19
(lp2023
sg21
I0
sba(iArchitecture
Entity
p2024
(dp2025
g11
(lp2026
sg13
S'android.content.res.ColorStateList$1'
p2027
sg15
(lp2028
sg17
(lp2029
sg19
(lp2030
sg21
I0
sba(iArchitecture
Entity
p2031
(dp2032
g11
(lp2033
sg13
S'android.content.res.ColorStateList$ColorStateListFactory'
p2034
sg15
(lp2035
sg17
(lp2036
sg19
(lp2037
sg21
I0
sba(iArchitecture
Entity
p2038
(dp2039
g11
(lp2040
sg13
S'android.content.res.GradientColor'
p2041
sg15
(lp2042
sg17
(lp2043
sg19
(lp2044
sg21
I0
sba(iArchitecture
Entity
p2045
(dp2046
g11
(lp2047
sg13
S'android.content.res.GradientColor$GradientColorFactory'
p2048
sg15
(lp2049
sg17
(lp2050
sg19
(lp2051
sg21
I0
sbasg64
(lp2052
g2020
ag2027
ag2034
ag2041
ag2048
asg21
I0
sg66
S'1284'
p2053
sba(iArchitecture
Cluster
p2054
(dp2055
g7
(lp2056
(iArchitecture
Entity
p2057
(dp2058
g11
(lp2059
sg13
S'android.content.ActivityNotFoundException'
p2060
sg15
(lp2061
sg17
(lp2062
sg19
(lp2063
sg21
I0
sba(iArchitecture
Entity
p2064
(dp2065
g11
(lp2066
sg13
S'android.content.EntityIterator'
p2067
sg15
(lp2068
sg17
(lp2069
sg19
(lp2070
sg21
I0
sba(iArchitecture
Entity
p2071
(dp2072
g11
(lp2073
sg13
S'android.content.ReceiverCallNotAllowedException'
p2074
sg15
(lp2075
sg17
(lp2076
sg19
(lp2077
sg21
I0
sba(iArchitecture
Entity
p2078
(dp2079
g11
(lp2080
sg13
S'android.content.SyncInfo'
p2081
sg15
(lp2082
sg17
(lp2083
sg19
(lp2084
sg21
I0
sba(iArchitecture
Entity
p2085
(dp2086
g11
(lp2087
sg13
S'android.content.SyncInfo$1'
p2088
sg15
(lp2089
sg17
(lp2090
sg19
(lp2091
sg21
I0
sba(iArchitecture
Entity
p2092
(dp2093
g11
(lp2094
sg13
S'android.content.SyncStatusObserver'
p2095
sg15
(lp2096
sg17
(lp2097
sg19
(lp2098
sg21
I0
sba(iArchitecture
Entity
p2099
(dp2100
g11
(lp2101
sg13
S'android.content.pm.FeatureGroupInfo'
p2102
sg15
(lp2103
sg17
(lp2104
sg19
(lp2105
sg21
I0
sba(iArchitecture
Entity
p2106
(dp2107
g11
(lp2108
sg13
S'android.content.pm.FeatureGroupInfo$1'
p2109
sg15
(lp2110
sg17
(lp2111
sg19
(lp2112
sg21
I0
sba(iArchitecture
Entity
p2113
(dp2114
g11
(lp2115
sg13
S'android.content.pm.PackageInfoLite'
p2116
sg15
(lp2117
sg17
(lp2118
sg19
(lp2119
sg21
I0
sba(iArchitecture
Entity
p2120
(dp2121
g11
(lp2122
sg13
S'android.content.pm.PackageInfoLite$1'
p2123
sg15
(lp2124
sg17
(lp2125
sg19
(lp2126
sg21
I0
sba(iArchitecture
Entity
p2127
(dp2128
g11
(lp2129
sg13
S'android.content.pm.ParceledListSlice'
p2130
sg15
(lp2131
sg17
(lp2132
sg19
(lp2133
sg21
I0
sba(iArchitecture
Entity
p2134
(dp2135
g11
(lp2136
sg13
S'android.content.pm.ParceledListSlice$1'
p2137
sg15
(lp2138
sg17
(lp2139
sg19
(lp2140
sg21
I0
sba(iArchitecture
Entity
p2141
(dp2142
g11
(lp2143
sg13
S'android.content.pm.ParceledListSlice$2'
p2144
sg15
(lp2145
sg17
(lp2146
sg19
(lp2147
sg21
I0
sba(iArchitecture
Entity
p2148
(dp2149
g11
(lp2150
sg13
S'android.content.pm.PathPermission'
p2151
sg15
(lp2152
sg17
(lp2153
sg19
(lp2154
sg21
I0
sba(iArchitecture
Entity
p2155
(dp2156
g11
(lp2157
sg13
S'android.content.pm.PathPermission$1'
p2158
sg15
(lp2159
sg17
(lp2160
sg19
(lp2161
sg21
I0
sba(iArchitecture
Entity
p2162
(dp2163
g11
(lp2164
sg13
S'android.content.pm.PermissionGroupInfo'
p2165
sg15
(lp2166
sg17
(lp2167
sg19
(lp2168
sg21
I0
sba(iArchitecture
Entity
p2169
(dp2170
g11
(lp2171
sg13
S'android.content.pm.PermissionGroupInfo$1'
p2172
sg15
(lp2173
sg17
(lp2174
sg19
(lp2175
sg21
I0
sba(iArchitecture
Entity
p2176
(dp2177
g11
(lp2178
sg13
S'android.content.pm.ProviderInfo'
p2179
sg15
(lp2180
sg17
(lp2181
sg19
(lp2182
sg21
I0
sba(iArchitecture
Entity
p2183
(dp2184
g11
(lp2185
sg13
S'android.content.pm.ProviderInfo$1'
p2186
sg15
(lp2187
sg17
(lp2188
sg19
(lp2189
sg21
I0
sba(iArchitecture
Entity
p2190
(dp2191
g11
(lp2192
sg13
S'android.content.pm.RegisteredServicesCacheListener'
p2193
sg15
(lp2194
sg17
(lp2195
sg19
(lp2196
sg21
I0
sba(iArchitecture
Entity
p2197
(dp2198
g11
(lp2199
sg13
S'android.content.pm.ServiceInfo'
p2200
sg15
(lp2201
sg17
(lp2202
sg19
(lp2203
sg21
I0
sba(iArchitecture
Entity
p2204
(dp2205
g11
(lp2206
sg13
S'android.content.pm.ServiceInfo$1'
p2207
sg15
(lp2208
sg17
(lp2209
sg19
(lp2210
sg21
I0
sba(iArchitecture
Entity
p2211
(dp2212
g11
(lp2213
sg13
S'android.content.pm.ShortcutServiceInternal'
p2214
sg15
(lp2215
sg17
(lp2216
sg19
(lp2217
sg21
I0
sba(iArchitecture
Entity
p2218
(dp2219
g11
(lp2220
sg13
S'android.content.pm.ShortcutServiceInternal$ShortcutChangeListener'
p2221
sg15
(lp2222
sg17
(lp2223
sg19
(lp2224
sg21
I0
sba(iArchitecture
Entity
p2225
(dp2226
g11
(lp2227
sg13
S'android.content.pm.VerifierDeviceIdentity'
p2228
sg15
(lp2229
sg17
(lp2230
sg19
(lp2231
sg21
I0
sba(iArchitecture
Entity
p2232
(dp2233
g11
(lp2234
sg13
S'android.content.pm.VerifierDeviceIdentity$1'
p2235
sg15
(lp2236
sg17
(lp2237
sg19
(lp2238
sg21
I0
sba(iArchitecture
Entity
p2239
(dp2240
g11
(lp2241
sg13
S'android.content.res.ConfigurationBoundResourceCache'
p2242
sg15
(lp2243
sg17
(lp2244
sg19
(lp2245
sg21
I0
sba(iArchitecture
Entity
p2246
(dp2247
g11
(lp2248
sg13
S'android.content.res.ConstantState'
p2249
sg15
(lp2250
sg17
(lp2251
sg19
(lp2252
sg21
I0
sba(iArchitecture
Entity
p2253
(dp2254
g11
(lp2255
sg13
S'android.content.res.DrawableCache'
p2256
sg15
(lp2257
sg17
(lp2258
sg19
(lp2259
sg21
I0
sba(iArchitecture
Entity
p2260
(dp2261
g11
(lp2262
sg13
S'android.content.res.XmlResourceParser'
p2263
sg15
(lp2264
sg17
(lp2265
sg19
(lp2266
sg21
I0
sbasg64
(lp2267
g2060
ag2067
ag2074
ag2081
ag2088
ag2095
ag2102
ag2109
ag2116
ag2123
ag2130
ag2137
ag2144
ag2151
ag2158
ag2165
ag2172
ag2179
ag2186
ag2193
ag2200
ag2207
ag2214
ag2221
ag2228
ag2235
ag2242
ag2249
ag2256
ag2263
asg21
I0
sg66
S'1330'
p2268
sba(iArchitecture
Cluster
p2269
(dp2270
g7
(lp2271
(iArchitecture
Entity
p2272
(dp2273
g11
(lp2274
sg13
S'android.content.MutableContextWrapper'
p2275
sg15
(lp2276
sg17
(lp2277
sg19
(lp2278
sg21
I0
sba(iArchitecture
Entity
p2279
(dp2280
g11
(lp2281
sg13
S'android.content.SyncContext'
p2282
sg15
(lp2283
sg17
(lp2284
sg19
(lp2285
sg21
I0
sba(iArchitecture
Entity
p2286
(dp2287
g11
(lp2288
sg13
S'android.content.pm.XmlSerializerAndParser'
p2289
sg15
(lp2290
sg17
(lp2291
sg19
(lp2292
sg21
I0
sbasg64
(lp2293
g2275
ag2282
ag2289
asg21
I0
sg66
S'1331'
p2294
sba(iArchitecture
Cluster
p2295
(dp2296
g7
(lp2297
(iArchitecture
Entity
p2298
(dp2299
g11
(lp2300
sg13
S'android.content.UndoManager'
p2301
sg15
(lp2302
sg17
(lp2303
sg19
(lp2304
sg21
I0
sba(iArchitecture
Entity
p2305
(dp2306
g11
(lp2307
sg13
S'android.content.UndoManager$UndoState'
p2308
sg15
(lp2309
sg17
(lp2310
sg19
(lp2311
sg21
I0
sbasg64
(lp2312
g2301
ag2308
asg21
I0
sg66
S'1338'
p2313
sba(iArchitecture
Cluster
p2314
(dp2315
g7
(lp2316
(iArchitecture
Entity
p2317
(dp2318
g11
(lp2319
sg13
S'android.content.SyncAdapterType'
p2320
sg15
(lp2321
sg17
(lp2322
sg19
(lp2323
sg21
I0
sba(iArchitecture
Entity
p2324
(dp2325
g11
(lp2326
sg13
S'android.content.SyncAdapterType$1'
p2327
sg15
(lp2328
sg17
(lp2329
sg19
(lp2330
sg21
I0
sba(iArchitecture
Entity
p2331
(dp2332
g11
(lp2333
sg13
S'android.content.SyncAdaptersCache'
p2334
sg15
(lp2335
sg17
(lp2336
sg19
(lp2337
sg21
I0
sba(iArchitecture
Entity
p2338
(dp2339
g11
(lp2340
sg13
S'android.content.SyncAdaptersCache$MySerializer'
p2341
sg15
(lp2342
sg17
(lp2343
sg19
(lp2344
sg21
I0
sbasg64
(lp2345
g2320
ag2327
ag2334
ag2341
asg21
I0
sg66
S'1341'
p2346
sba(iArchitecture
Cluster
p2347
(dp2348
g7
(lp2349
(iArchitecture
Entity
p2350
(dp2351
g11
(lp2352
sg13
S'android.content.IntentSender'
p2353
sg15
(lp2354
sg17
(lp2355
sg19
(lp2356
sg21
I0
sba(iArchitecture
Entity
p2357
(dp2358
g11
(lp2359
sg13
S'android.content.IntentSender$1'
p2360
sg15
(lp2361
sg17
(lp2362
sg19
(lp2363
sg21
I0
sba(iArchitecture
Entity
p2364
(dp2365
g11
(lp2366
sg13
S'android.content.IntentSender$FinishedDispatcher'
p2367
sg15
(lp2368
sg17
(lp2369
sg19
(lp2370
sg21
I0
sba(iArchitecture
Entity
p2371
(dp2372
g11
(lp2373
sg13
S'android.content.IntentSender$OnFinished'
p2374
sg15
(lp2375
sg17
(lp2376
sg19
(lp2377
sg21
I0
sba(iArchitecture
Entity
p2378
(dp2379
g11
(lp2380
sg13
S'android.content.IntentSender$SendIntentException'
p2381
sg15
(lp2382
sg17
(lp2383
sg19
(lp2384
sg21
I0
sbasg64
(lp2385
g2353
ag2360
ag2367
ag2374
ag2381
asg21
I0
sg66
S'1353'
p2386
sba(iArchitecture
Cluster
p2387
(dp2388
g7
(lp2389
(iArchitecture
Entity
p2390
(dp2391
g11
(lp2392
sg13
S'android.content.UndoOwner'
p2393
sg15
(lp2394
sg17
(lp2395
sg19
(lp2396
sg21
I0
sba(iArchitecture
Entity
p2397
(dp2398
g11
(lp2399
sg13
S'android.content.pm.MacAuthenticatedInputStream'
p2400
sg15
(lp2401
sg17
(lp2402
sg19
(lp2403
sg21
I0
sbasg64
(lp2404
g2393
ag2400
asg21
I0
sg66
S'1383'
p2405
sba(iArchitecture
Cluster
p2406
(dp2407
g7
(lp2408
(iArchitecture
Entity
p2409
(dp2410
g11
(lp2411
sg13
S'android.content.ComponentCallbacks'
p2412
sg15
(lp2413
sg17
(lp2414
sg19
(lp2415
sg21
I0
sba(iArchitecture
Entity
p2416
(dp2417
g11
(lp2418
sg13
S'android.content.ContentProviderResult'
p2419
sg15
(lp2420
sg17
(lp2421
sg19
(lp2422
sg21
I0
sba(iArchitecture
Entity
p2423
(dp2424
g11
(lp2425
sg13
S'android.content.ContentProviderResult$1'
p2426
sg15
(lp2427
sg17
(lp2428
sg19
(lp2429
sg21
I0
sba(iArchitecture
Entity
p2430
(dp2431
g11
(lp2432
sg13
S'android.content.ContentQueryMap'
p2433
sg15
(lp2434
sg17
(lp2435
sg19
(lp2436
sg21
I0
sba(iArchitecture
Entity
p2437
(dp2438
g11
(lp2439
sg13
S'android.content.ContentQueryMap$1'
p2440
sg15
(lp2441
sg17
(lp2442
sg19
(lp2443
sg21
I0
sba(iArchitecture
Entity
p2444
(dp2445
g11
(lp2446
sg13
S'android.content.ContentUris'
p2447
sg15
(lp2448
sg17
(lp2449
sg19
(lp2450
sg21
I0
sba(iArchitecture
Entity
p2451
(dp2452
g11
(lp2453
sg13
S'android.content.Entity'
p2454
sg15
(lp2455
sg17
(lp2456
sg19
(lp2457
sg21
I0
sba(iArchitecture
Entity
p2458
(dp2459
g11
(lp2460
sg13
S'android.content.Entity$NamedContentValues'
p2461
sg15
(lp2462
sg17
(lp2463
sg19
(lp2464
sg21
I0
sba(iArchitecture
Entity
p2465
(dp2466
g11
(lp2467
sg13
S'android.content.OperationApplicationException'
p2468
sg15
(lp2469
sg17
(lp2470
sg19
(lp2471
sg21
I0
sba(iArchitecture
Entity
p2472
(dp2473
g11
(lp2474
sg13
S'android.content.UndoOperation'
p2475
sg15
(lp2476
sg17
(lp2477
sg19
(lp2478
sg21
I0
sba(iArchitecture
Entity
p2479
(dp2480
g11
(lp2481
sg13
S'android.content.pm.FeatureInfo'
p2482
sg15
(lp2483
sg17
(lp2484
sg19
(lp2485
sg21
I0
sba(iArchitecture
Entity
p2486
(dp2487
g11
(lp2488
sg13
S'android.content.pm.FeatureInfo$1'
p2489
sg15
(lp2490
sg17
(lp2491
sg19
(lp2492
sg21
I0
sba(iArchitecture
Entity
p2493
(dp2494
g11
(lp2495
sg13
S'android.content.pm.KeySet'
p2496
sg15
(lp2497
sg17
(lp2498
sg19
(lp2499
sg21
I0
sba(iArchitecture
Entity
p2500
(dp2501
g11
(lp2502
sg13
S'android.content.pm.KeySet$1'
p2503
sg15
(lp2504
sg17
(lp2505
sg19
(lp2506
sg21
I0
sba(iArchitecture
Entity
p2507
(dp2508
g11
(lp2509
sg13
S'android.content.pm.PackageCleanItem'
p2510
sg15
(lp2511
sg17
(lp2512
sg19
(lp2513
sg21
I0
sba(iArchitecture
Entity
p2514
(dp2515
g11
(lp2516
sg13
S'android.content.pm.PackageCleanItem$1'
p2517
sg15
(lp2518
sg17
(lp2519
sg19
(lp2520
sg21
I0
sba(iArchitecture
Entity
p2521
(dp2522
g11
(lp2523
sg13
S'android.content.pm.VerifierInfo'
p2524
sg15
(lp2525
sg17
(lp2526
sg19
(lp2527
sg21
I0
sba(iArchitecture
Entity
p2528
(dp2529
g11
(lp2530
sg13
S'android.content.pm.VerifierInfo$1'
p2531
sg15
(lp2532
sg17
(lp2533
sg19
(lp2534
sg21
I0
sba(iArchitecture
Entity
p2535
(dp2536
g11
(lp2537
sg13
S'android.content.pm.permission.RuntimePermissionPresenter'
p2538
sg15
(lp2539
sg17
(lp2540
sg19
(lp2541
sg21
I0
sba(iArchitecture
Entity
p2542
(dp2543
g11
(lp2544
sg13
S'android.content.pm.permission.RuntimePermissionPresenter$OnResultCallback'
p2545
sg15
(lp2546
sg17
(lp2547
sg19
(lp2548
sg21
I0
sba(iArchitecture
Entity
p2549
(dp2550
g11
(lp2551
sg13
S'android.content.pm.permission.RuntimePermissionPresenter$RemoteService'
p2552
sg15
(lp2553
sg17
(lp2554
sg19
(lp2555
sg21
I0
sba(iArchitecture
Entity
p2556
(dp2557
g11
(lp2558
sg13
S'android.content.pm.permission.RuntimePermissionPresenter$RemoteService$1'
p2559
sg15
(lp2560
sg17
(lp2561
sg19
(lp2562
sg21
I0
sba(iArchitecture
Entity
p2563
(dp2564
g11
(lp2565
sg13
S'android.content.pm.permission.RuntimePermissionPresenter$RemoteService$1$1'
p2566
sg15
(lp2567
sg17
(lp2568
sg19
(lp2569
sg21
I0
sba(iArchitecture
Entity
p2570
(dp2571
g11
(lp2572
sg13
S'android.content.pm.permission.RuntimePermissionPresenter$RemoteService$2'
p2573
sg15
(lp2574
sg17
(lp2575
sg19
(lp2576
sg21
I0
sba(iArchitecture
Entity
p2577
(dp2578
g11
(lp2579
sg13
S'android.content.pm.permission.RuntimePermissionPresenter$RemoteService$2$1'
p2580
sg15
(lp2581
sg17
(lp2582
sg19
(lp2583
sg21
I0
sba(iArchitecture
Entity
p2584
(dp2585
g11
(lp2586
sg13
S'android.content.res.ComplexColor'
p2587
sg15
(lp2588
sg17
(lp2589
sg19
(lp2590
sg21
I0
sba(iArchitecture
Entity
p2591
(dp2592
g11
(lp2593
sg13
S'android.content.res.ObbInfo'
p2594
sg15
(lp2595
sg17
(lp2596
sg19
(lp2597
sg21
I0
sba(iArchitecture
Entity
p2598
(dp2599
g11
(lp2600
sg13
S'android.content.res.ObbInfo$1'
p2601
sg15
(lp2602
sg17
(lp2603
sg19
(lp2604
sg21
I0
sba(iArchitecture
Entity
p2605
(dp2606
g11
(lp2607
sg13
S'android.content.res.ObbScanner'
p2608
sg15
(lp2609
sg17
(lp2610
sg19
(lp2611
sg21
I0
sbasg64
(lp2612
g2412
ag2419
ag2426
ag2433
ag2440
ag2447
ag2454
ag2461
ag2468
ag2475
ag2482
ag2489
ag2496
ag2503
ag2510
ag2517
ag2524
ag2531
ag2538
ag2545
ag2552
ag2559
ag2566
ag2573
ag2580
ag2587
ag2594
ag2601
ag2608
asg21
I0
sg66
S'1384'
p2613
sba(iArchitecture
Cluster
p2614
(dp2615
g7
(lp2616
(iArchitecture
Entity
p2617
(dp2618
g11
(lp2619
sg13
S'android.content.DialogInterface'
p2620
sg15
(lp2621
sg17
(lp2622
sg19
(lp2623
sg21
I0
sba(iArchitecture
Entity
p2624
(dp2625
g11
(lp2626
sg13
S'android.content.DialogInterface$OnCancelListener'
p2627
sg15
(lp2628
sg17
(lp2629
sg19
(lp2630
sg21
I0
sba(iArchitecture
Entity
p2631
(dp2632
g11
(lp2633
sg13
S'android.content.DialogInterface$OnClickListener'
p2634
sg15
(lp2635
sg17
(lp2636
sg19
(lp2637
sg21
I0
sba(iArchitecture
Entity
p2638
(dp2639
g11
(lp2640
sg13
S'android.content.DialogInterface$OnDismissListener'
p2641
sg15
(lp2642
sg17
(lp2643
sg19
(lp2644
sg21
I0
sba(iArchitecture
Entity
p2645
(dp2646
g11
(lp2647
sg13
S'android.content.DialogInterface$OnKeyListener'
p2648
sg15
(lp2649
sg17
(lp2650
sg19
(lp2651
sg21
I0
sba(iArchitecture
Entity
p2652
(dp2653
g11
(lp2654
sg13
S'android.content.DialogInterface$OnMultiChoiceClickListener'
p2655
sg15
(lp2656
sg17
(lp2657
sg19
(lp2658
sg21
I0
sba(iArchitecture
Entity
p2659
(dp2660
g11
(lp2661
sg13
S'android.content.DialogInterface$OnShowListener'
p2662
sg15
(lp2663
sg17
(lp2664
sg19
(lp2665
sg21
I0
sbasg64
(lp2666
g2620
ag2627
ag2634
ag2641
ag2648
ag2655
ag2662
asg21
I0
sg66
S'1394'
p2667
sba(iArchitecture
Cluster
p2668
(dp2669
g7
(lp2670
(iArchitecture
Entity
p2671
(dp2672
g11
(lp2673
sg13
S'android.content.pm.permission.RuntimePermissionPresentationInfo'
p2674
sg15
(lp2675
sg17
(lp2676
sg19
(lp2677
sg21
I0
sba(iArchitecture
Entity
p2678
(dp2679
g11
(lp2680
sg13
S'android.content.pm.permission.RuntimePermissionPresentationInfo$1'
p2681
sg15
(lp2682
sg17
(lp2683
sg19
(lp2684
sg21
I0
sbasg64
(lp2685
g2674
ag2681
asg21
I0
sg66
S'1399'
p2686
sba(iArchitecture
Cluster
p2687
(dp2688
g7
(lp2689
(iArchitecture
Entity
p2690
(dp2691
g11
(lp2692
sg13
S'android.content.BroadcastReceiver'
p2693
sg15
(lp2694
sg17
(lp2695
sg19
(lp2696
sg21
I0
sba(iArchitecture
Entity
p2697
(dp2698
g11
(lp2699
sg13
S'android.content.BroadcastReceiver$PendingResult'
p2700
sg15
(lp2701
sg17
(lp2702
sg19
(lp2703
sg21
I0
sba(iArchitecture
Entity
p2704
(dp2705
g11
(lp2706
sg13
S'android.content.BroadcastReceiver$PendingResult$1'
p2707
sg15
(lp2708
sg17
(lp2709
sg19
(lp2710
sg21
I0
sba(iArchitecture
Entity
p2711
(dp2712
g11
(lp2713
sg13
S'android.content.ContentProvider'
p2714
sg15
(lp2715
sg17
(lp2716
sg19
(lp2717
sg21
I0
sba(iArchitecture
Entity
p2718
(dp2719
g11
(lp2720
sg13
S'android.content.ContentProvider$1'
p2721
sg15
(lp2722
sg17
(lp2723
sg19
(lp2724
sg21
I0
sba(iArchitecture
Entity
p2725
(dp2726
g11
(lp2727
sg13
S'android.content.ContentProvider$PipeDataWriter'
p2728
sg15
(lp2729
sg17
(lp2730
sg19
(lp2731
sg21
I0
sba(iArchitecture
Entity
p2732
(dp2733
g11
(lp2734
sg13
S'android.content.ContentProvider$Transport'
p2735
sg15
(lp2736
sg17
(lp2737
sg19
(lp2738
sg21
I0
sba(iArchitecture
Entity
p2739
(dp2740
g11
(lp2741
sg13
S'android.content.ContentValues'
p2742
sg15
(lp2743
sg17
(lp2744
sg19
(lp2745
sg21
I0
sba(iArchitecture
Entity
p2746
(dp2747
g11
(lp2748
sg13
S'android.content.ContentValues$1'
p2749
sg15
(lp2750
sg17
(lp2751
sg19
(lp2752
sg21
I0
sba(iArchitecture
Entity
p2753
(dp2754
g11
(lp2755
sg13
S'android.content.Context'
p2756
sg15
(lp2757
sg17
(lp2758
sg19
(lp2759
sg21
I0
sba(iArchitecture
Entity
p2760
(dp2761
g11
(lp2762
sg13
S'android.content.SearchRecentSuggestionsProvider'
p2763
sg15
(lp2764
sg17
(lp2765
sg19
(lp2766
sg21
I0
sba(iArchitecture
Entity
p2767
(dp2768
g11
(lp2769
sg13
S'android.content.SearchRecentSuggestionsProvider$DatabaseHelper'
p2770
sg15
(lp2771
sg17
(lp2772
sg19
(lp2773
sg21
I0
sba(iArchitecture
Entity
p2774
(dp2775
g11
(lp2776
sg13
S'android.content.ServiceConnection'
p2777
sg15
(lp2778
sg17
(lp2779
sg19
(lp2780
sg21
I0
sba(iArchitecture
Entity
p2781
(dp2782
g11
(lp2783
sg13
S'android.content.pm.ApplicationInfo'
p2784
sg15
(lp2785
sg17
(lp2786
sg19
(lp2787
sg21
I0
sba(iArchitecture
Entity
p2788
(dp2789
g11
(lp2790
sg13
S'android.content.pm.ApplicationInfo$1'
p2791
sg15
(lp2792
sg17
(lp2793
sg19
(lp2794
sg21
I0
sba(iArchitecture
Entity
p2795
(dp2796
g11
(lp2797
sg13
S'android.content.pm.ApplicationInfo$DisplayNameComparator'
p2798
sg15
(lp2799
sg17
(lp2800
sg19
(lp2801
sg21
I0
sba(iArchitecture
Entity
p2802
(dp2803
g11
(lp2804
sg13
S'android.content.pm.PackageInfo'
p2805
sg15
(lp2806
sg17
(lp2807
sg19
(lp2808
sg21
I0
sba(iArchitecture
Entity
p2809
(dp2810
g11
(lp2811
sg13
S'android.content.pm.PackageInfo$1'
p2812
sg15
(lp2813
sg17
(lp2814
sg19
(lp2815
sg21
I0
sba(iArchitecture
Entity
p2816
(dp2817
g11
(lp2818
sg13
S'android.content.pm.PackageInstaller'
p2819
sg15
(lp2820
sg17
(lp2821
sg19
(lp2822
sg21
I0
sba(iArchitecture
Entity
p2823
(dp2824
g11
(lp2825
sg13
S'android.content.pm.PackageInstaller$Session'
p2826
sg15
(lp2827
sg17
(lp2828
sg19
(lp2829
sg21
I0
sba(iArchitecture
Entity
p2830
(dp2831
g11
(lp2832
sg13
S'android.content.pm.PackageInstaller$SessionCallback'
p2833
sg15
(lp2834
sg17
(lp2835
sg19
(lp2836
sg21
I0
sba(iArchitecture
Entity
p2837
(dp2838
g11
(lp2839
sg13
S'android.content.pm.PackageInstaller$SessionCallbackDelegate'
p2840
sg15
(lp2841
sg17
(lp2842
sg19
(lp2843
sg21
I0
sba(iArchitecture
Entity
p2844
(dp2845
g11
(lp2846
sg13
S'android.content.pm.PackageInstaller$SessionInfo'
p2847
sg15
(lp2848
sg17
(lp2849
sg19
(lp2850
sg21
I0
sba(iArchitecture
Entity
p2851
(dp2852
g11
(lp2853
sg13
S'android.content.pm.PackageInstaller$SessionInfo$1'
p2854
sg15
(lp2855
sg17
(lp2856
sg19
(lp2857
sg21
I0
sba(iArchitecture
Entity
p2858
(dp2859
g11
(lp2860
sg13
S'android.content.pm.PackageInstaller$SessionParams'
p2861
sg15
(lp2862
sg17
(lp2863
sg19
(lp2864
sg21
I0
sba(iArchitecture
Entity
p2865
(dp2866
g11
(lp2867
sg13
S'android.content.pm.PackageInstaller$SessionParams$1'
p2868
sg15
(lp2869
sg17
(lp2870
sg19
(lp2871
sg21
I0
sba(iArchitecture
Entity
p2872
(dp2873
g11
(lp2874
sg13
S'android.content.pm.PackageItemInfo'
p2875
sg15
(lp2876
sg17
(lp2877
sg19
(lp2878
sg21
I0
sba(iArchitecture
Entity
p2879
(dp2880
g11
(lp2881
sg13
S'android.content.pm.PackageItemInfo$DisplayNameComparator'
p2882
sg15
(lp2883
sg17
(lp2884
sg19
(lp2885
sg21
I0
sba(iArchitecture
Entity
p2886
(dp2887
g11
(lp2888
sg13
S'android.content.pm.RegisteredServicesCache'
p2889
sg15
(lp2890
sg17
(lp2891
sg19
(lp2892
sg21
I0
sba(iArchitecture
Entity
p2893
(dp2894
g11
(lp2895
sg13
S'android.content.pm.RegisteredServicesCache$1'
p2896
sg15
(lp2897
sg17
(lp2898
sg19
(lp2899
sg21
I0
sba(iArchitecture
Entity
p2900
(dp2901
g11
(lp2902
sg13
S'android.content.pm.RegisteredServicesCache$2'
p2903
sg15
(lp2904
sg17
(lp2905
sg19
(lp2906
sg21
I0
sba(iArchitecture
Entity
p2907
(dp2908
g11
(lp2909
sg13
S'android.content.pm.RegisteredServicesCache$3'
p2910
sg15
(lp2911
sg17
(lp2912
sg19
(lp2913
sg21
I0
sba(iArchitecture
Entity
p2914
(dp2915
g11
(lp2916
sg13
S'android.content.pm.RegisteredServicesCache$4'
p2917
sg15
(lp2918
sg17
(lp2919
sg19
(lp2920
sg21
I0
sba(iArchitecture
Entity
p2921
(dp2922
g11
(lp2923
sg13
S'android.content.pm.RegisteredServicesCache$ServiceInfo'
p2924
sg15
(lp2925
sg17
(lp2926
sg19
(lp2927
sg21
I0
sba(iArchitecture
Entity
p2928
(dp2929
g11
(lp2930
sg13
S'android.content.pm.RegisteredServicesCache$UserServices'
p2931
sg15
(lp2932
sg17
(lp2933
sg19
(lp2934
sg21
I0
sba(iArchitecture
Entity
p2935
(dp2936
g11
(lp2937
sg13
S'android.content.pm.ResolveInfo'
p2938
sg15
(lp2939
sg17
(lp2940
sg19
(lp2941
sg21
I0
sba(iArchitecture
Entity
p2942
(dp2943
g11
(lp2944
sg13
S'android.content.pm.ResolveInfo$1'
p2945
sg15
(lp2946
sg17
(lp2947
sg19
(lp2948
sg21
I0
sba(iArchitecture
Entity
p2949
(dp2950
g11
(lp2951
sg13
S'android.content.pm.ResolveInfo$DisplayNameComparator'
p2952
sg15
(lp2953
sg17
(lp2954
sg19
(lp2955
sg21
I0
sba(iArchitecture
Entity
p2956
(dp2957
g11
(lp2958
sg13
S'android.content.pm.ShortcutManager'
p2959
sg15
(lp2960
sg17
(lp2961
sg19
(lp2962
sg21
I0
sba(iArchitecture
Entity
p2963
(dp2964
g11
(lp2965
sg13
S'android.content.res.Resources'
p2966
sg15
(lp2967
sg17
(lp2968
sg19
(lp2969
sg21
I0
sba(iArchitecture
Entity
p2970
(dp2971
g11
(lp2972
sg13
S'android.content.res.Resources$NotFoundException'
p2973
sg15
(lp2974
sg17
(lp2975
sg19
(lp2976
sg21
I0
sba(iArchitecture
Entity
p2977
(dp2978
g11
(lp2979
sg13
S'android.content.res.Resources$Theme'
p2980
sg15
(lp2981
sg17
(lp2982
sg19
(lp2983
sg21
I0
sba(iArchitecture
Entity
p2984
(dp2985
g11
(lp2986
sg13
S'android.content.res.Resources$ThemeKey'
p2987
sg15
(lp2988
sg17
(lp2989
sg19
(lp2990
sg21
I0
sba(iArchitecture
Entity
p2991
(dp2992
g11
(lp2993
sg13
S'android.content.res.ResourcesKey'
p2994
sg15
(lp2995
sg17
(lp2996
sg19
(lp2997
sg21
I0
sba(iArchitecture
Entity
p2998
(dp2999
g11
(lp3000
sg13
S'android.content.res.XmlBlock'
p3001
sg15
(lp3002
sg17
(lp3003
sg19
(lp3004
sg21
I0
sba(iArchitecture
Entity
p3005
(dp3006
g11
(lp3007
sg13
S'android.content.res.XmlBlock$Parser'
p3008
sg15
(lp3009
sg17
(lp3010
sg19
(lp3011
sg21
I0
sbasg64
(lp3012
g2693
ag2700
ag2707
ag2714
ag2721
ag2728
ag2735
ag2742
ag2749
ag2756
ag2763
ag2770
ag2777
ag2784
ag2791
ag2798
ag2805
ag2812
ag2819
ag2826
ag2833
ag2840
ag2847
ag2854
ag2861
ag2868
ag2875
ag2882
ag2889
ag2896
ag2903
ag2910
ag2917
ag2924
ag2931
ag2938
ag2945
ag2952
ag2959
ag2966
ag2973
ag2980
ag2987
ag2994
ag3001
ag3008
asg21
I0
sg66
S'1401'
p3013
sba(iArchitecture
Cluster
p3014
(dp3015
g7
(lp3016
(iArchitecture
Entity
p3017
(dp3018
g11
(lp3019
sg13
S'android.content.CursorEntityIterator'
p3020
sg15
(lp3021
sg17
(lp3022
sg19
(lp3023
sg21
I0
sbasg64
(lp3024
g3020
asg21
I0
sg66
S'157'
p3025
sba(iArchitecture
Cluster
p3026
(dp3027
g7
(lp3028
(iArchitecture
Entity
p3029
(dp3030
g11
(lp3031
sg13
S'android.content.pm.AppsQueryHelper'
p3032
sg15
(lp3033
sg17
(lp3034
sg19
(lp3035
sg21
I0
sbasg64
(lp3036
g3032
asg21
I0
sg66
S'20'
p3037
sba(iArchitecture
Cluster
p3038
(dp3039
g7
(lp3040
(iArchitecture
Entity
p3041
(dp3042
g11
(lp3043
sg13
S'android.content.pm.LimitedLengthInputStream'
p3044
sg15
(lp3045
sg17
(lp3046
sg19
(lp3047
sg21
I0
sbasg64
(lp3048
g3044
asg21
I0
sg66
S'202'
p3049
sba(iArchitecture
Cluster
p3050
(dp3051
g7
(lp3052
(iArchitecture
Entity
p3053
(dp3054
g11
(lp3055
sg13
S'android.content.res.TypedArray'
p3056
sg15
(lp3057
sg17
(lp3058
sg19
(lp3059
sg21
I0
sbasg64
(lp3060
g3056
asg21
I0
sg66
S'250'
p3061
sba(iArchitecture
Cluster
p3062
(dp3063
g7
(lp3064
(iArchitecture
Entity
p3065
(dp3066
g11
(lp3067
sg13
S'android.content.DefaultDataHandler'
p3068
sg15
(lp3069
sg17
(lp3070
sg19
(lp3071
sg21
I0
sbasg64
(lp3072
g3068
asg21
I0
sg66
S'251'
p3073
sba(iArchitecture
Cluster
p3074
(dp3075
g7
(lp3076
(iArchitecture
Entity
p3077
(dp3078
g11
(lp3079
sg13
S'android.content.pm.ComponentInfo'
p3080
sg15
(lp3081
sg17
(lp3082
sg19
(lp3083
sg21
I0
sbasg64
(lp3084
g3080
asg21
I0
sg66
S'287'
p3085
sba(iArchitecture
Cluster
p3086
(dp3087
g7
(lp3088
(iArchitecture
Entity
p3089
(dp3090
g11
(lp3091
sg13
S'android.content.pm.LauncherActivityInfo'
p3092
sg15
(lp3093
sg17
(lp3094
sg19
(lp3095
sg21
I0
sbasg64
(lp3096
g3092
asg21
I0
sg66
S'339'
p3097
sba(iArchitecture
Cluster
p3098
(dp3099
g7
(lp3100
(iArchitecture
Entity
p3101
(dp3102
g11
(lp3103
sg13
S'android.content.IContentProvider'
p3104
sg15
(lp3105
sg17
(lp3106
sg19
(lp3107
sg21
I0
sbasg64
(lp3108
g3104
asg21
I0
sg66
S'364'
p3109
sba(iArchitecture
Cluster
p3110
(dp3111
g7
(lp3112
(iArchitecture
Entity
p3113
(dp3114
g11
(lp3115
sg13
S'android.content.UriMatcher'
p3116
sg15
(lp3117
sg17
(lp3118
sg19
(lp3119
sg21
I0
sbasg64
(lp3120
g3116
asg21
I0
sg66
S'377'
p3121
sba(iArchitecture
Cluster
p3122
(dp3123
g7
(lp3124
(iArchitecture
Entity
p3125
(dp3126
g11
(lp3127
sg13
S'android.content.SyncActivityTooManyDeletes'
p3128
sg15
(lp3129
sg17
(lp3130
sg19
(lp3131
sg21
I0
sbasg64
(lp3132
g3128
asg21
I0
sg66
S'399'
p3133
sba(iArchitecture
Cluster
p3134
(dp3135
g7
(lp3136
(iArchitecture
Entity
p3137
(dp3138
g11
(lp3139
sg13
S'android.content.ContentInsertHandler'
p3140
sg15
(lp3141
sg17
(lp3142
sg19
(lp3143
sg21
I0
sbasg64
(lp3144
g3140
asg21
I0
sg66
S'410'
p3145
sba(iArchitecture
Cluster
p3146
(dp3147
g7
(lp3148
(iArchitecture
Entity
p3149
(dp3150
g11
(lp3151
sg13
S'android.content.ContentProviderNative'
p3152
sg15
(lp3153
sg17
(lp3154
sg19
(lp3155
sg21
I0
sbasg64
(lp3156
g3152
asg21
I0
sg66
S'418'
p3157
sba(iArchitecture
Cluster
p3158
(dp3159
g7
(lp3160
(iArchitecture
Entity
p3161
(dp3162
g11
(lp3163
sg13
S'android.content.CursorLoader'
p3164
sg15
(lp3165
sg17
(lp3166
sg19
(lp3167
sg21
I0
sbasg64
(lp3168
g3164
asg21
I0
sg66
S'441'
p3169
sba(iArchitecture
Cluster
p3170
(dp3171
g7
(lp3172
(iArchitecture
Entity
p3173
(dp3174
g11
(lp3175
sg13
S'android.content.ComponentCallbacks2'
p3176
sg15
(lp3177
sg17
(lp3178
sg19
(lp3179
sg21
I0
sbasg64
(lp3180
g3176
asg21
I0
sg66
S'488'
p3181
sba(iArchitecture
Cluster
p3182
(dp3183
g7
(lp3184
(iArchitecture
Entity
p3185
(dp3186
g11
(lp3187
sg13
S'android.content.pm.UserInfo'
p3188
sg15
(lp3189
sg17
(lp3190
sg19
(lp3191
sg21
I0
sba(iArchitecture
Entity
p3192
(dp3193
g11
(lp3194
sg13
S'android.content.pm.UserInfo$1'
p3195
sg15
(lp3196
sg17
(lp3197
sg19
(lp3198
sg21
I0
sbasg64
(lp3199
g3188
ag3195
asg21
I0
sg66
S'497'
p3200
sba(iArchitecture
Cluster
p3201
(dp3202
g7
(lp3203
(iArchitecture
Entity
p3204
(dp3205
g11
(lp3206
sg13
S'android.content.UriPermission'
p3207
sg15
(lp3208
sg17
(lp3209
sg19
(lp3210
sg21
I0
sba(iArchitecture
Entity
p3211
(dp3212
g11
(lp3213
sg13
S'android.content.UriPermission$1'
p3214
sg15
(lp3215
sg17
(lp3216
sg19
(lp3217
sg21
I0
sbasg64
(lp3218
g3207
ag3214
asg21
I0
sg66
S'498'
p3219
sba(iArchitecture
Cluster
p3220
(dp3221
g7
(lp3222
(iArchitecture
Entity
p3223
(dp3224
g11
(lp3225
sg13
S'android.content.res.Configuration'
p3226
sg15
(lp3227
sg17
(lp3228
sg19
(lp3229
sg21
I0
sba(iArchitecture
Entity
p3230
(dp3231
g11
(lp3232
sg13
S'android.content.res.Configuration$1'
p3233
sg15
(lp3234
sg17
(lp3235
sg19
(lp3236
sg21
I0
sbasg64
(lp3237
g3226
ag3233
asg21
I0
sg66
S'527'
p3238
sba(iArchitecture
Cluster
p3239
(dp3240
g7
(lp3241
(iArchitecture
Entity
p3242
(dp3243
g11
(lp3244
sg13
S'android.content.pm.ConfigurationInfo'
p3245
sg15
(lp3246
sg17
(lp3247
sg19
(lp3248
sg21
I0
sba(iArchitecture
Entity
p3249
(dp3250
g11
(lp3251
sg13
S'android.content.pm.ConfigurationInfo$1'
p3252
sg15
(lp3253
sg17
(lp3254
sg19
(lp3255
sg21
I0
sbasg64
(lp3256
g3245
ag3252
asg21
I0
sg66
S'538'
p3257
sba(iArchitecture
Cluster
p3258
(dp3259
g7
(lp3260
(iArchitecture
Entity
p3261
(dp3262
g11
(lp3263
sg13
S'android.content.ClipDescription'
p3264
sg15
(lp3265
sg17
(lp3266
sg19
(lp3267
sg21
I0
sba(iArchitecture
Entity
p3268
(dp3269
g11
(lp3270
sg13
S'android.content.ClipDescription$1'
p3271
sg15
(lp3272
sg17
(lp3273
sg19
(lp3274
sg21
I0
sbasg64
(lp3275
g3264
ag3271
asg21
I0
sg66
S'542'
p3276
sba(iArchitecture
Cluster
p3277
(dp3278
g7
(lp3279
(iArchitecture
Entity
p3280
(dp3281
g11
(lp3282
sg13
S'android.content.RestrictionEntry'
p3283
sg15
(lp3284
sg17
(lp3285
sg19
(lp3286
sg21
I0
sba(iArchitecture
Entity
p3287
(dp3288
g11
(lp3289
sg13
S'android.content.RestrictionEntry$1'
p3290
sg15
(lp3291
sg17
(lp3292
sg19
(lp3293
sg21
I0
sbasg64
(lp3294
g3283
ag3290
asg21
I0
sg66
S'544'
p3295
sba(iArchitecture
Cluster
p3296
(dp3297
g7
(lp3298
(iArchitecture
Entity
p3299
(dp3300
g11
(lp3301
sg13
S'android.content.res.ThemedResourceCache'
p3302
sg15
(lp3303
sg17
(lp3304
sg19
(lp3305
sg21
I0
sbasg64
(lp3306
g3302
asg21
I0
sg66
S'57'
p3307
sba(iArchitecture
Cluster
p3308
(dp3309
g7
(lp3310
(iArchitecture
Entity
p3311
(dp3312
g11
(lp3313
sg13
S'android.content.res.AssetManager'
p3314
sg15
(lp3315
sg17
(lp3316
sg19
(lp3317
sg21
I0
sba(iArchitecture
Entity
p3318
(dp3319
g11
(lp3320
sg13
S'android.content.res.AssetManager$AssetInputStream'
p3321
sg15
(lp3322
sg17
(lp3323
sg19
(lp3324
sg21
I0
sbasg64
(lp3325
g3314
ag3321
asg21
I0
sg66
S'581'
p3326
sba(iArchitecture
Cluster
p3327
(dp3328
g7
(lp3329
(iArchitecture
Entity
p3330
(dp3331
g11
(lp3332
sg13
S'android.content.PeriodicSync'
p3333
sg15
(lp3334
sg17
(lp3335
sg19
(lp3336
sg21
I0
sba(iArchitecture
Entity
p3337
(dp3338
g11
(lp3339
sg13
S'android.content.PeriodicSync$1'
p3340
sg15
(lp3341
sg17
(lp3342
sg19
(lp3343
sg21
I0
sbasg64
(lp3344
g3333
ag3340
asg21
I0
sg66
S'582'
p3345
sba(iArchitecture
Cluster
p3346
(dp3347
g7
(lp3348
(iArchitecture
Entity
p3349
(dp3350
g11
(lp3351
sg13
S'android.content.AsyncTaskLoader'
p3352
sg15
(lp3353
sg17
(lp3354
sg19
(lp3355
sg21
I0
sba(iArchitecture
Entity
p3356
(dp3357
g11
(lp3358
sg13
S'android.content.AsyncTaskLoader$LoadTask'
p3359
sg15
(lp3360
sg17
(lp3361
sg19
(lp3362
sg21
I0
sbasg64
(lp3363
g3352
ag3359
asg21
I0
sg66
S'585'
p3364
sba(iArchitecture
Cluster
p3365
(dp3366
g7
(lp3367
(iArchitecture
Entity
p3368
(dp3369
g11
(lp3370
sg13
S'android.content.pm.LabeledIntent'
p3371
sg15
(lp3372
sg17
(lp3373
sg19
(lp3374
sg21
I0
sba(iArchitecture
Entity
p3375
(dp3376
g11
(lp3377
sg13
S'android.content.pm.LabeledIntent$1'
p3378
sg15
(lp3379
sg17
(lp3380
sg19
(lp3381
sg21
I0
sbasg64
(lp3382
g3371
ag3378
asg21
I0
sg66
S'615'
p3383
sba(iArchitecture
Cluster
p3384
(dp3385
g7
(lp3386
(iArchitecture
Entity
p3387
(dp3388
g11
(lp3389
sg13
S'android.content.pm.PermissionInfo'
p3390
sg15
(lp3391
sg17
(lp3392
sg19
(lp3393
sg21
I0
sba(iArchitecture
Entity
p3394
(dp3395
g11
(lp3396
sg13
S'android.content.pm.PermissionInfo$1'
p3397
sg15
(lp3398
sg17
(lp3399
sg19
(lp3400
sg21
I0
sbasg64
(lp3401
g3390
ag3397
asg21
I0
sg66
S'683'
p3402
sba(iArchitecture
Cluster
p3403
(dp3404
g7
(lp3405
(iArchitecture
Entity
p3406
(dp3407
g11
(lp3408
sg13
S'android.content.pm.IntentFilterVerificationInfo'
p3409
sg15
(lp3410
sg17
(lp3411
sg19
(lp3412
sg21
I0
sba(iArchitecture
Entity
p3413
(dp3414
g11
(lp3415
sg13
S'android.content.pm.IntentFilterVerificationInfo$1'
p3416
sg15
(lp3417
sg17
(lp3418
sg19
(lp3419
sg21
I0
sbasg64
(lp3420
g3409
ag3416
asg21
I0
sg66
S'702'
p3421
sba(iArchitecture
Cluster
p3422
(dp3423
g7
(lp3424
(iArchitecture
Entity
p3425
(dp3426
g11
(lp3427
sg13
S'android.content.SyncStatusInfo'
p3428
sg15
(lp3429
sg17
(lp3430
sg19
(lp3431
sg21
I0
sba(iArchitecture
Entity
p3432
(dp3433
g11
(lp3434
sg13
S'android.content.SyncStatusInfo$1'
p3435
sg15
(lp3436
sg17
(lp3437
sg19
(lp3438
sg21
I0
sbasg64
(lp3439
g3428
ag3435
asg21
I0
sg66
S'714'
p3440
sba(iArchitecture
Cluster
p3441
(dp3442
g7
(lp3443
(iArchitecture
Entity
p3444
(dp3445
g11
(lp3446
sg13
S'android.content.pm.PackageStats'
p3447
sg15
(lp3448
sg17
(lp3449
sg19
(lp3450
sg21
I0
sba(iArchitecture
Entity
p3451
(dp3452
g11
(lp3453
sg13
S'android.content.pm.PackageStats$1'
p3454
sg15
(lp3455
sg17
(lp3456
sg19
(lp3457
sg21
I0
sbasg64
(lp3458
g3447
ag3454
asg21
I0
sg66
S'761'
p3459
sba(iArchitecture
Cluster
p3460
(dp3461
g7
(lp3462
(iArchitecture
Entity
p3463
(dp3464
g11
(lp3465
sg13
S'android.content.pm.InstrumentationInfo'
p3466
sg15
(lp3467
sg17
(lp3468
sg19
(lp3469
sg21
I0
sba(iArchitecture
Entity
p3470
(dp3471
g11
(lp3472
sg13
S'android.content.pm.InstrumentationInfo$1'
p3473
sg15
(lp3474
sg17
(lp3475
sg19
(lp3476
sg21
I0
sbasg64
(lp3477
g3466
ag3473
asg21
I0
sg66
S'770'
p3478
sba(iArchitecture
Cluster
p3479
(dp3480
g7
(lp3481
(iArchitecture
Entity
p3482
(dp3483
g11
(lp3484
sg13
S'android.content.SyncStats'
p3485
sg15
(lp3486
sg17
(lp3487
sg19
(lp3488
sg21
I0
sba(iArchitecture
Entity
p3489
(dp3490
g11
(lp3491
sg13
S'android.content.SyncStats$1'
p3492
sg15
(lp3493
sg17
(lp3494
sg19
(lp3495
sg21
I0
sbasg64
(lp3496
g3485
ag3492
asg21
I0
sg66
S'773'
p3497
sba(iArchitecture
Cluster
p3498
(dp3499
g7
(lp3500
(iArchitecture
Entity
p3501
(dp3502
g11
(lp3503
sg13
S'android.content.pm.Signature'
p3504
sg15
(lp3505
sg17
(lp3506
sg19
(lp3507
sg21
I0
sba(iArchitecture
Entity
p3508
(dp3509
g11
(lp3510
sg13
S'android.content.pm.Signature$1'
p3511
sg15
(lp3512
sg17
(lp3513
sg19
(lp3514
sg21
I0
sbasg64
(lp3515
g3504
ag3511
asg21
I0
sg66
S'800'
p3516
sba(iArchitecture
Cluster
p3517
(dp3518
g7
(lp3519
(iArchitecture
Entity
p3520
(dp3521
g11
(lp3522
sg13
S'android.content.res.ResourcesImpl'
p3523
sg15
(lp3524
sg17
(lp3525
sg19
(lp3526
sg21
I0
sba(iArchitecture
Entity
p3527
(dp3528
g11
(lp3529
sg13
S'android.content.res.ResourcesImpl$ThemeImpl'
p3530
sg15
(lp3531
sg17
(lp3532
sg19
(lp3533
sg21
I0
sbasg64
(lp3534
g3523
ag3530
asg21
I0
sg66
S'829'
p3535
sba(iArchitecture
Cluster
p3536
(dp3537
g7
(lp3538
(iArchitecture
Entity
p3539
(dp3540
g11
(lp3541
sg13
S'android.content.SyncResult'
p3542
sg15
(lp3543
sg17
(lp3544
sg19
(lp3545
sg21
I0
sba(iArchitecture
Entity
p3546
(dp3547
g11
(lp3548
sg13
S'android.content.SyncResult$1'
p3549
sg15
(lp3550
sg17
(lp3551
sg19
(lp3552
sg21
I0
sbasg64
(lp3553
g3542
ag3549
asg21
I0
sg66
S'831'
p3554
sba(iArchitecture
Cluster
p3555
(dp3556
g7
(lp3557
(iArchitecture
Entity
p3558
(dp3559
g11
(lp3560
sg13
S'android.content.pm.VerificationParams'
p3561
sg15
(lp3562
sg17
(lp3563
sg19
(lp3564
sg21
I0
sba(iArchitecture
Entity
p3565
(dp3566
g11
(lp3567
sg13
S'android.content.pm.VerificationParams$1'
p3568
sg15
(lp3569
sg17
(lp3570
sg19
(lp3571
sg21
I0
sbasg64
(lp3572
g3561
ag3568
asg21
I0
sg66
S'835'
p3573
sba(iArchitecture
Cluster
p3574
(dp3575
g7
(lp3576
(iArchitecture
Entity
p3577
(dp3578
g11
(lp3579
sg13
S'android.content.SharedPreferences'
p3580
sg15
(lp3581
sg17
(lp3582
sg19
(lp3583
sg21
I0
sba(iArchitecture
Entity
p3584
(dp3585
g11
(lp3586
sg13
S'android.content.SharedPreferences$Editor'
p3587
sg15
(lp3588
sg17
(lp3589
sg19
(lp3590
sg21
I0
sba(iArchitecture
Entity
p3591
(dp3592
g11
(lp3593
sg13
S'android.content.SharedPreferences$OnSharedPreferenceChangeListener'
p3594
sg15
(lp3595
sg17
(lp3596
sg19
(lp3597
sg21
I0
sbasg64
(lp3598
g3580
ag3587
ag3594
asg21
I0
sg66
S'843'
p3599
sba(iArchitecture
Cluster
p3600
(dp3601
g7
(lp3602
(iArchitecture
Entity
p3603
(dp3604
g11
(lp3605
sg13
S'android.content.ContentProviderClient'
p3606
sg15
(lp3607
sg17
(lp3608
sg19
(lp3609
sg21
I0
sba(iArchitecture
Entity
p3610
(dp3611
g11
(lp3612
sg13
S'android.content.ContentProviderClient$CursorWrapperInner'
p3613
sg15
(lp3614
sg17
(lp3615
sg19
(lp3616
sg21
I0
sba(iArchitecture
Entity
p3617
(dp3618
g11
(lp3619
sg13
S'android.content.ContentProviderClient$NotRespondingRunnable'
p3620
sg15
(lp3621
sg17
(lp3622
sg19
(lp3623
sg21
I0
sbasg64
(lp3624
g3606
ag3613
ag3620
asg21
I0
sg66
S'844'
p3625
sba(iArchitecture
Cluster
p3626
(dp3627
g7
(lp3628
(iArchitecture
Entity
p3629
(dp3630
g11
(lp3631
sg13
S'android.content.AbstractThreadedSyncAdapter'
p3632
sg15
(lp3633
sg17
(lp3634
sg19
(lp3635
sg21
I0
sba(iArchitecture
Entity
p3636
(dp3637
g11
(lp3638
sg13
S'android.content.AbstractThreadedSyncAdapter$ISyncAdapterImpl'
p3639
sg15
(lp3640
sg17
(lp3641
sg19
(lp3642
sg21
I0
sba(iArchitecture
Entity
p3643
(dp3644
g11
(lp3645
sg13
S'android.content.AbstractThreadedSyncAdapter$SyncThread'
p3646
sg15
(lp3647
sg17
(lp3648
sg19
(lp3649
sg21
I0
sbasg64
(lp3650
g3632
ag3639
ag3646
asg21
I0
sg66
S'860'
p3651
sba(iArchitecture
Cluster
p3652
(dp3653
g7
(lp3654
(iArchitecture
Entity
p3655
(dp3656
g11
(lp3657
sg13
S'android.content.res.StringBlock'
p3658
sg15
(lp3659
sg17
(lp3660
sg19
(lp3661
sg21
I0
sba(iArchitecture
Entity
p3662
(dp3663
g11
(lp3664
sg13
S'android.content.res.StringBlock$Height'
p3665
sg15
(lp3666
sg17
(lp3667
sg19
(lp3668
sg21
I0
sba(iArchitecture
Entity
p3669
(dp3670
g11
(lp3671
sg13
S'android.content.res.StringBlock$StyleIDs'
p3672
sg15
(lp3673
sg17
(lp3674
sg19
(lp3675
sg21
I0
sbasg64
(lp3676
g3658
ag3665
ag3672
asg21
I0
sg66
S'899'
p3677
sba(iArchitecture
Cluster
p3678
(dp3679
g7
(lp3680
(iArchitecture
Entity
p3681
(dp3682
g11
(lp3683
sg13
S'android.content.ContextWrapper'
p3684
sg15
(lp3685
sg17
(lp3686
sg19
(lp3687
sg21
I0
sbasg64
(lp3688
g3684
asg21
I0
sg66
S'90'
p3689
sba(iArchitecture
Cluster
p3690
(dp3691
g7
(lp3692
(iArchitecture
Entity
p3693
(dp3694
g11
(lp3695
sg13
S'android.content.pm.ActivityInfo'
p3696
sg15
(lp3697
sg17
(lp3698
sg19
(lp3699
sg21
I0
sba(iArchitecture
Entity
p3700
(dp3701
g11
(lp3702
sg13
S'android.content.pm.ActivityInfo$1'
p3703
sg15
(lp3704
sg17
(lp3705
sg19
(lp3706
sg21
I0
sba(iArchitecture
Entity
p3707
(dp3708
g11
(lp3709
sg13
S'android.content.pm.ActivityInfo$WindowLayout'
p3710
sg15
(lp3711
sg17
(lp3712
sg19
(lp3713
sg21
I0
sbasg64
(lp3714
g3696
ag3703
ag3710
asg21
I0
sg66
S'911'
p3715
sba(iArchitecture
Cluster
p3716
(dp3717
g7
(lp3718
(iArchitecture
Entity
p3719
(dp3720
g11
(lp3721
sg13
S'android.content.ClipData'
p3722
sg15
(lp3723
sg17
(lp3724
sg19
(lp3725
sg21
I0
sba(iArchitecture
Entity
p3726
(dp3727
g11
(lp3728
sg13
S'android.content.ClipData$1'
p3729
sg15
(lp3730
sg17
(lp3731
sg19
(lp3732
sg21
I0
sba(iArchitecture
Entity
p3733
(dp3734
g11
(lp3735
sg13
S'android.content.ClipData$Item'
p3736
sg15
(lp3737
sg17
(lp3738
sg19
(lp3739
sg21
I0
sbasg64
(lp3740
g3722
ag3729
ag3736
asg21
I0
sg66
S'916'
p3741
sba(iArchitecture
Cluster
p3742
(dp3743
g7
(lp3744
(iArchitecture
Entity
p3745
(dp3746
g11
(lp3747
sg13
S'android.content.ContentProviderOperation'
p3748
sg15
(lp3749
sg17
(lp3750
sg19
(lp3751
sg21
I0
sba(iArchitecture
Entity
p3752
(dp3753
g11
(lp3754
sg13
S'android.content.ContentProviderOperation$1'
p3755
sg15
(lp3756
sg17
(lp3757
sg19
(lp3758
sg21
I0
sba(iArchitecture
Entity
p3759
(dp3760
g11
(lp3761
sg13
S'android.content.ContentProviderOperation$Builder'
p3762
sg15
(lp3763
sg17
(lp3764
sg19
(lp3765
sg21
I0
sbasg64
(lp3766
g3748
ag3755
ag3762
asg21
I0
sg66
S'933'
p3767
sba(iArchitecture
Cluster
p3768
(dp3769
g7
(lp3770
(iArchitecture
Entity
p3771
(dp3772
g11
(lp3773
sg13
S'android.content.pm.EphemeralResolveInfo'
p3774
sg15
(lp3775
sg17
(lp3776
sg19
(lp3777
sg21
I0
sba(iArchitecture
Entity
p3778
(dp3779
g11
(lp3780
sg13
S'android.content.pm.EphemeralResolveInfo$1'
p3781
sg15
(lp3782
sg17
(lp3783
sg19
(lp3784
sg21
I0
sba(iArchitecture
Entity
p3785
(dp3786
g11
(lp3787
sg13
S'android.content.pm.EphemeralResolveInfo$EphemeralResolveIntentInfo'
p3788
sg15
(lp3789
sg17
(lp3790
sg19
(lp3791
sg21
I0
sbasg64
(lp3792
g3774
ag3781
ag3788
asg21
I0
sg66
S'937'
p3793
sba(iArchitecture
Cluster
p3794
(dp3795
g7
(lp3796
(iArchitecture
Entity
p3797
(dp3798
g11
(lp3799
sg13
S'android.content.SyncRequest'
p3800
sg15
(lp3801
sg17
(lp3802
sg19
(lp3803
sg21
I0
sba(iArchitecture
Entity
p3804
(dp3805
g11
(lp3806
sg13
S'android.content.SyncRequest$1'
p3807
sg15
(lp3808
sg17
(lp3809
sg19
(lp3810
sg21
I0
sba(iArchitecture
Entity
p3811
(dp3812
g11
(lp3813
sg13
S'android.content.SyncRequest$Builder'
p3814
sg15
(lp3815
sg17
(lp3816
sg19
(lp3817
sg21
I0
sbasg64
(lp3818
g3800
ag3807
ag3814
asg21
I0
sg66
S'951'
p3819
sba(iArchitecture
Cluster
p3820
(dp3821
g7
(lp3822
(iArchitecture
Entity
p3823
(dp3824
g11
(lp3825
sg13
S'android.content.Loader'
p3826
sg15
(lp3827
sg17
(lp3828
sg19
(lp3829
sg21
I0
sba(iArchitecture
Entity
p3830
(dp3831
g11
(lp3832
sg13
S'android.content.Loader$ForceLoadContentObserver'
p3833
sg15
(lp3834
sg17
(lp3835
sg19
(lp3836
sg21
I0
sba(iArchitecture
Entity
p3837
(dp3838
g11
(lp3839
sg13
S'android.content.Loader$OnLoadCanceledListener'
p3840
sg15
(lp3841
sg17
(lp3842
sg19
(lp3843
sg21
I0
sba(iArchitecture
Entity
p3844
(dp3845
g11
(lp3846
sg13
S'android.content.Loader$OnLoadCompleteListener'
p3847
sg15
(lp3848
sg17
(lp3849
sg19
(lp3850
sg21
I0
sbasg64
(lp3851
g3826
ag3833
ag3840
ag3847
asg21
I0
sg66
S'962'
p3852
sba(iArchitecture
Cluster
p3853
(dp3854
g7
(lp3855
(iArchitecture
Entity
p3856
(dp3857
g11
(lp3858
sg13
S'android.content.res.AssetFileDescriptor'
p3859
sg15
(lp3860
sg17
(lp3861
sg19
(lp3862
sg21
I0
sba(iArchitecture
Entity
p3863
(dp3864
g11
(lp3865
sg13
S'android.content.res.AssetFileDescriptor$1'
p3866
sg15
(lp3867
sg17
(lp3868
sg19
(lp3869
sg21
I0
sba(iArchitecture
Entity
p3870
(dp3871
g11
(lp3872
sg13
S'android.content.res.AssetFileDescriptor$AutoCloseInputStream'
p3873
sg15
(lp3874
sg17
(lp3875
sg19
(lp3876
sg21
I0
sba(iArchitecture
Entity
p3877
(dp3878
g11
(lp3879
sg13
S'android.content.res.AssetFileDescriptor$AutoCloseOutputStream'
p3880
sg15
(lp3881
sg17
(lp3882
sg19
(lp3883
sg21
I0
sbasg64
(lp3884
g3859
ag3866
ag3873
ag3880
asg21
I0
sg66
S'978'
p3885
sba(iArchitecture
Cluster
p3886
(dp3887
g7
(lp3888
(iArchitecture
Entity
p3889
(dp3890
g11
(lp3891
sg13
S'android.content.IntentFilter'
p3892
sg15
(lp3893
sg17
(lp3894
sg19
(lp3895
sg21
I0
sba(iArchitecture
Entity
p3896
(dp3897
g11
(lp3898
sg13
S'android.content.IntentFilter$1'
p3899
sg15
(lp3900
sg17
(lp3901
sg19
(lp3902
sg21
I0
sba(iArchitecture
Entity
p3903
(dp3904
g11
(lp3905
sg13
S'android.content.IntentFilter$AuthorityEntry'
p3906
sg15
(lp3907
sg17
(lp3908
sg19
(lp3909
sg21
I0
sba(iArchitecture
Entity
p3910
(dp3911
g11
(lp3912
sg13
S'android.content.IntentFilter$MalformedMimeTypeException'
p3913
sg15
(lp3914
sg17
(lp3915
sg19
(lp3916
sg21
I0
sbasg64
(lp3917
g3892
ag3899
ag3906
ag3913
asg21
I0
sg66
S'988'
p3918
sba(iArchitecture
Cluster
p3919
(dp3920
g7
(lp3921
(iArchitecture
Entity
p3922
(dp3923
g11
(lp3924
sg13
S'android.content.ClipboardManager'
p3925
sg15
(lp3926
sg17
(lp3927
sg19
(lp3928
sg21
I0
sba(iArchitecture
Entity
p3929
(dp3930
g11
(lp3931
sg13
S'android.content.ClipboardManager$1'
p3932
sg15
(lp3933
sg17
(lp3934
sg19
(lp3935
sg21
I0
sba(iArchitecture
Entity
p3936
(dp3937
g11
(lp3938
sg13
S'android.content.ClipboardManager$2'
p3939
sg15
(lp3940
sg17
(lp3941
sg19
(lp3942
sg21
I0
sba(iArchitecture
Entity
p3943
(dp3944
g11
(lp3945
sg13
S'android.content.ClipboardManager$OnPrimaryClipChangedListener'
p3946
sg15
(lp3947
sg17
(lp3948
sg19
(lp3949
sg21
I0
sbasg64
(lp3950
g3925
ag3932
ag3939
ag3946
asg21
I0
sg66
S'995'
p3951
sbasg1900
g1901
sg64
(lp3952
sg1903
I00
sg66
S'7.0.0_r1'
p3953
sba.