(lp0
(iArchitecture
Architecture
p1
(dp2
S'clusters'
p3
(lp4
(iArchitecture
Cluster
p5
(dp6
S'entities'
p7
(lp8
(iArchitecture
Entity
p9
(dp10
S'issue_ids'
p11
(lp12
sS'name'
p13
S'android.renderscript.RenderScript'
p14
sS'descs'
p15
(lp16
sS'labels'
p17
(lp18
sS'titles'
p19
(lp20
sS'change'
p21
I0
sba(iArchitecture
Entity
p22
(dp23
g11
(lp24
sg13
S'android.renderscript.RenderScript$ContextType'
p25
sg15
(lp26
sg17
(lp27
sg19
(lp28
sg21
I0
sba(iArchitecture
Entity
p29
(dp30
g11
(lp31
sg13
S'android.renderscript.RenderScript$MessageThread'
p32
sg15
(lp33
sg17
(lp34
sg19
(lp35
sg21
I0
sba(iArchitecture
Entity
p36
(dp37
g11
(lp38
sg13
S'android.renderscript.RenderScript$Priority'
p39
sg15
(lp40
sg17
(lp41
sg19
(lp42
sg21
I0
sba(iArchitecture
Entity
p43
(dp44
g11
(lp45
sg13
S'android.renderscript.RenderScript$RSErrorHandler'
p46
sg15
(lp47
sg17
(lp48
sg19
(lp49
sg21
I0
sba(iArchitecture
Entity
p50
(dp51
g11
(lp52
sg13
S'android.renderscript.RenderScript$RSMessageHandler'
p53
sg15
(lp54
sg17
(lp55
sg19
(lp56
sg21
I0
sbasS'classes'
p57
(lp58
g14
ag25
ag32
ag39
ag46
ag53
asg21
I0
sS'label'
p59
S'1006'
p60
sba(iArchitecture
Cluster
p61
(dp62
g7
(lp63
(iArchitecture
Entity
p64
(dp65
g11
(lp66
sg13
S'android.renderscript.Mesh'
p67
sg15
(lp68
sg17
(lp69
sg19
(lp70
sg21
I0
sba(iArchitecture
Entity
p71
(dp72
g11
(lp73
sg13
S'android.renderscript.Mesh$AllocationBuilder'
p74
sg15
(lp75
sg17
(lp76
sg19
(lp77
sg21
I0
sba(iArchitecture
Entity
p78
(dp79
g11
(lp80
sg13
S'android.renderscript.Mesh$AllocationBuilder$Entry'
p81
sg15
(lp82
sg17
(lp83
sg19
(lp84
sg21
I0
sba(iArchitecture
Entity
p85
(dp86
g11
(lp87
sg13
S'android.renderscript.Mesh$Builder'
p88
sg15
(lp89
sg17
(lp90
sg19
(lp91
sg21
I0
sba(iArchitecture
Entity
p92
(dp93
g11
(lp94
sg13
S'android.renderscript.Mesh$Builder$Entry'
p95
sg15
(lp96
sg17
(lp97
sg19
(lp98
sg21
I0
sba(iArchitecture
Entity
p99
(dp100
g11
(lp101
sg13
S'android.renderscript.Mesh$Primitive'
p102
sg15
(lp103
sg17
(lp104
sg19
(lp105
sg21
I0
sba(iArchitecture
Entity
p106
(dp107
g11
(lp108
sg13
S'android.renderscript.Mesh$TriangleMeshBuilder'
p109
sg15
(lp110
sg17
(lp111
sg19
(lp112
sg21
I0
sbasg57
(lp113
g67
ag74
ag81
ag88
ag95
ag102
ag109
asg21
I0
sg59
S'1013'
p114
sba(iArchitecture
Cluster
p115
(dp116
g7
(lp117
(iArchitecture
Entity
p118
(dp119
g11
(lp120
sg13
S'android.renderscript.Script'
p121
sg15
(lp122
sg17
(lp123
sg19
(lp124
sg21
I0
sba(iArchitecture
Entity
p125
(dp126
g11
(lp127
sg13
S'android.renderscript.Script$Builder'
p128
sg15
(lp129
sg17
(lp130
sg19
(lp131
sg21
I0
sba(iArchitecture
Entity
p132
(dp133
g11
(lp134
sg13
S'android.renderscript.Script$FieldBase'
p135
sg15
(lp136
sg17
(lp137
sg19
(lp138
sg21
I0
sba(iArchitecture
Entity
p139
(dp140
g11
(lp141
sg13
S'android.renderscript.Script$FieldID'
p142
sg15
(lp143
sg17
(lp144
sg19
(lp145
sg21
I0
sba(iArchitecture
Entity
p146
(dp147
g11
(lp148
sg13
S'android.renderscript.Script$InvokeID'
p149
sg15
(lp150
sg17
(lp151
sg19
(lp152
sg21
I0
sba(iArchitecture
Entity
p153
(dp154
g11
(lp155
sg13
S'android.renderscript.Script$KernelID'
p156
sg15
(lp157
sg17
(lp158
sg19
(lp159
sg21
I0
sba(iArchitecture
Entity
p160
(dp161
g11
(lp162
sg13
S'android.renderscript.Script$LaunchOptions'
p163
sg15
(lp164
sg17
(lp165
sg19
(lp166
sg21
I0
sbasg57
(lp167
g121
ag128
ag135
ag142
ag149
ag156
ag163
asg21
I0
sg59
S'1038'
p168
sba(iArchitecture
Cluster
p169
(dp170
g7
(lp171
(iArchitecture
Entity
p172
(dp173
g11
(lp174
sg13
S'android.renderscript.ScriptGroup'
p175
sg15
(lp176
sg17
(lp177
sg19
(lp178
sg21
I0
sba(iArchitecture
Entity
p179
(dp180
g11
(lp181
sg13
S'android.renderscript.ScriptGroup$Binding'
p182
sg15
(lp183
sg17
(lp184
sg19
(lp185
sg21
I0
sba(iArchitecture
Entity
p186
(dp187
g11
(lp188
sg13
S'android.renderscript.ScriptGroup$Builder'
p189
sg15
(lp190
sg17
(lp191
sg19
(lp192
sg21
I0
sba(iArchitecture
Entity
p193
(dp194
g11
(lp195
sg13
S'android.renderscript.ScriptGroup$Builder2'
p196
sg15
(lp197
sg17
(lp198
sg19
(lp199
sg21
I0
sba(iArchitecture
Entity
p200
(dp201
g11
(lp202
sg13
S'android.renderscript.ScriptGroup$Closure'
p203
sg15
(lp204
sg17
(lp205
sg19
(lp206
sg21
I0
sba(iArchitecture
Entity
p207
(dp208
g11
(lp209
sg13
S'android.renderscript.ScriptGroup$Closure$ValueAndSize'
p210
sg15
(lp211
sg17
(lp212
sg19
(lp213
sg21
I0
sba(iArchitecture
Entity
p214
(dp215
g11
(lp216
sg13
S'android.renderscript.ScriptGroup$ConnectLine'
p217
sg15
(lp218
sg17
(lp219
sg19
(lp220
sg21
I0
sba(iArchitecture
Entity
p221
(dp222
g11
(lp223
sg13
S'android.renderscript.ScriptGroup$Future'
p224
sg15
(lp225
sg17
(lp226
sg19
(lp227
sg21
I0
sba(iArchitecture
Entity
p228
(dp229
g11
(lp230
sg13
S'android.renderscript.ScriptGroup$IO'
p231
sg15
(lp232
sg17
(lp233
sg19
(lp234
sg21
I0
sba(iArchitecture
Entity
p235
(dp236
g11
(lp237
sg13
S'android.renderscript.ScriptGroup$Input'
p238
sg15
(lp239
sg17
(lp240
sg19
(lp241
sg21
I0
sba(iArchitecture
Entity
p242
(dp243
g11
(lp244
sg13
S'android.renderscript.ScriptGroup$Node'
p245
sg15
(lp246
sg17
(lp247
sg19
(lp248
sg21
I0
sbasg57
(lp249
g175
ag182
ag189
ag196
ag203
ag210
ag217
ag224
ag231
ag238
ag245
asg21
I0
sg59
S'1069'
p250
sba(iArchitecture
Cluster
p251
(dp252
g7
(lp253
(iArchitecture
Entity
p254
(dp255
g11
(lp256
sg13
S'android.renderscript.Byte2'
p257
sg15
(lp258
sg17
(lp259
sg19
(lp260
sg21
I0
sba(iArchitecture
Entity
p261
(dp262
g11
(lp263
sg13
S'android.renderscript.Byte3'
p264
sg15
(lp265
sg17
(lp266
sg19
(lp267
sg21
I0
sba(iArchitecture
Entity
p268
(dp269
g11
(lp270
sg13
S'android.renderscript.Byte4'
p271
sg15
(lp272
sg17
(lp273
sg19
(lp274
sg21
I0
sba(iArchitecture
Entity
p275
(dp276
g11
(lp277
sg13
S'android.renderscript.Double2'
p278
sg15
(lp279
sg17
(lp280
sg19
(lp281
sg21
I0
sba(iArchitecture
Entity
p282
(dp283
g11
(lp284
sg13
S'android.renderscript.Double3'
p285
sg15
(lp286
sg17
(lp287
sg19
(lp288
sg21
I0
sba(iArchitecture
Entity
p289
(dp290
g11
(lp291
sg13
S'android.renderscript.Double4'
p292
sg15
(lp293
sg17
(lp294
sg19
(lp295
sg21
I0
sba(iArchitecture
Entity
p296
(dp297
g11
(lp298
sg13
S'android.renderscript.Float2'
p299
sg15
(lp300
sg17
(lp301
sg19
(lp302
sg21
I0
sba(iArchitecture
Entity
p303
(dp304
g11
(lp305
sg13
S'android.renderscript.Float3'
p306
sg15
(lp307
sg17
(lp308
sg19
(lp309
sg21
I0
sba(iArchitecture
Entity
p310
(dp311
g11
(lp312
sg13
S'android.renderscript.Float4'
p313
sg15
(lp314
sg17
(lp315
sg19
(lp316
sg21
I0
sba(iArchitecture
Entity
p317
(dp318
g11
(lp319
sg13
S'android.renderscript.Int2'
p320
sg15
(lp321
sg17
(lp322
sg19
(lp323
sg21
I0
sba(iArchitecture
Entity
p324
(dp325
g11
(lp326
sg13
S'android.renderscript.Int3'
p327
sg15
(lp328
sg17
(lp329
sg19
(lp330
sg21
I0
sba(iArchitecture
Entity
p331
(dp332
g11
(lp333
sg13
S'android.renderscript.Int4'
p334
sg15
(lp335
sg17
(lp336
sg19
(lp337
sg21
I0
sba(iArchitecture
Entity
p338
(dp339
g11
(lp340
sg13
S'android.renderscript.Long2'
p341
sg15
(lp342
sg17
(lp343
sg19
(lp344
sg21
I0
sba(iArchitecture
Entity
p345
(dp346
g11
(lp347
sg13
S'android.renderscript.Long3'
p348
sg15
(lp349
sg17
(lp350
sg19
(lp351
sg21
I0
sba(iArchitecture
Entity
p352
(dp353
g11
(lp354
sg13
S'android.renderscript.Long4'
p355
sg15
(lp356
sg17
(lp357
sg19
(lp358
sg21
I0
sba(iArchitecture
Entity
p359
(dp360
g11
(lp361
sg13
S'android.renderscript.Short2'
p362
sg15
(lp363
sg17
(lp364
sg19
(lp365
sg21
I0
sba(iArchitecture
Entity
p366
(dp367
g11
(lp368
sg13
S'android.renderscript.Short3'
p369
sg15
(lp370
sg17
(lp371
sg19
(lp372
sg21
I0
sba(iArchitecture
Entity
p373
(dp374
g11
(lp375
sg13
S'android.renderscript.Short4'
p376
sg15
(lp377
sg17
(lp378
sg19
(lp379
sg21
I0
sbasg57
(lp380
g257
ag264
ag271
ag278
ag285
ag292
ag299
ag306
ag313
ag320
ag327
ag334
ag341
ag348
ag355
ag362
ag369
ag376
asg21
I0
sg59
S'1110'
p381
sba(iArchitecture
Cluster
p382
(dp383
g7
(lp384
(iArchitecture
Entity
p385
(dp386
g11
(lp387
sg13
S'android.renderscript.ScriptIntrinsic3DLUT'
p388
sg15
(lp389
sg17
(lp390
sg19
(lp391
sg21
I0
sba(iArchitecture
Entity
p392
(dp393
g11
(lp394
sg13
S'android.renderscript.ScriptIntrinsicBlur'
p395
sg15
(lp396
sg17
(lp397
sg19
(lp398
sg21
I0
sba(iArchitecture
Entity
p399
(dp400
g11
(lp401
sg13
S'android.renderscript.ScriptIntrinsicConvolve3x3'
p402
sg15
(lp403
sg17
(lp404
sg19
(lp405
sg21
I0
sba(iArchitecture
Entity
p406
(dp407
g11
(lp408
sg13
S'android.renderscript.ScriptIntrinsicConvolve5x5'
p409
sg15
(lp410
sg17
(lp411
sg19
(lp412
sg21
I0
sba(iArchitecture
Entity
p413
(dp414
g11
(lp415
sg13
S'android.renderscript.ScriptIntrinsicHistogram'
p416
sg15
(lp417
sg17
(lp418
sg19
(lp419
sg21
I0
sba(iArchitecture
Entity
p420
(dp421
g11
(lp422
sg13
S'android.renderscript.ScriptIntrinsicLUT'
p423
sg15
(lp424
sg17
(lp425
sg19
(lp426
sg21
I0
sba(iArchitecture
Entity
p427
(dp428
g11
(lp429
sg13
S'android.renderscript.ScriptIntrinsicResize'
p430
sg15
(lp431
sg17
(lp432
sg19
(lp433
sg21
I0
sba(iArchitecture
Entity
p434
(dp435
g11
(lp436
sg13
S'android.renderscript.ScriptIntrinsicYuvToRGB'
p437
sg15
(lp438
sg17
(lp439
sg19
(lp440
sg21
I0
sbasg57
(lp441
g388
ag395
ag402
ag409
ag416
ag423
ag430
ag437
asg21
I0
sg59
S'1119'
p442
sba(iArchitecture
Cluster
p443
(dp444
g7
(lp445
(iArchitecture
Entity
p446
(dp447
g11
(lp448
sg13
S'android.renderscript.ProgramFragment'
p449
sg15
(lp450
sg17
(lp451
sg19
(lp452
sg21
I0
sba(iArchitecture
Entity
p453
(dp454
g11
(lp455
sg13
S'android.renderscript.ProgramFragment$Builder'
p456
sg15
(lp457
sg17
(lp458
sg19
(lp459
sg21
I0
sba(iArchitecture
Entity
p460
(dp461
g11
(lp462
sg13
S'android.renderscript.ProgramFragmentFixedFunction'
p463
sg15
(lp464
sg17
(lp465
sg19
(lp466
sg21
I0
sba(iArchitecture
Entity
p467
(dp468
g11
(lp469
sg13
S'android.renderscript.ProgramFragmentFixedFunction$Builder'
p470
sg15
(lp471
sg17
(lp472
sg19
(lp473
sg21
I0
sba(iArchitecture
Entity
p474
(dp475
g11
(lp476
sg13
S'android.renderscript.ProgramFragmentFixedFunction$Builder$EnvMode'
p477
sg15
(lp478
sg17
(lp479
sg19
(lp480
sg21
I0
sba(iArchitecture
Entity
p481
(dp482
g11
(lp483
sg13
S'android.renderscript.ProgramFragmentFixedFunction$Builder$Format'
p484
sg15
(lp485
sg17
(lp486
sg19
(lp487
sg21
I0
sba(iArchitecture
Entity
p488
(dp489
g11
(lp490
sg13
S'android.renderscript.ProgramFragmentFixedFunction$Builder$Slot'
p491
sg15
(lp492
sg17
(lp493
sg19
(lp494
sg21
I0
sba(iArchitecture
Entity
p495
(dp496
g11
(lp497
sg13
S'android.renderscript.ProgramFragmentFixedFunction$InternalBuilder'
p498
sg15
(lp499
sg17
(lp500
sg19
(lp501
sg21
I0
sba(iArchitecture
Entity
p502
(dp503
g11
(lp504
sg13
S'android.renderscript.ProgramVertex'
p505
sg15
(lp506
sg17
(lp507
sg19
(lp508
sg21
I0
sba(iArchitecture
Entity
p509
(dp510
g11
(lp511
sg13
S'android.renderscript.ProgramVertex$Builder'
p512
sg15
(lp513
sg17
(lp514
sg19
(lp515
sg21
I0
sba(iArchitecture
Entity
p516
(dp517
g11
(lp518
sg13
S'android.renderscript.ProgramVertexFixedFunction'
p519
sg15
(lp520
sg17
(lp521
sg19
(lp522
sg21
I0
sba(iArchitecture
Entity
p523
(dp524
g11
(lp525
sg13
S'android.renderscript.ProgramVertexFixedFunction$Builder'
p526
sg15
(lp527
sg17
(lp528
sg19
(lp529
sg21
I0
sba(iArchitecture
Entity
p530
(dp531
g11
(lp532
sg13
S'android.renderscript.ProgramVertexFixedFunction$Constants'
p533
sg15
(lp534
sg17
(lp535
sg19
(lp536
sg21
I0
sba(iArchitecture
Entity
p537
(dp538
g11
(lp539
sg13
S'android.renderscript.ProgramVertexFixedFunction$InternalBuilder'
p540
sg15
(lp541
sg17
(lp542
sg19
(lp543
sg21
I0
sbasg57
(lp544
g449
ag456
ag463
ag470
ag477
ag484
ag491
ag498
ag505
ag512
ag519
ag526
ag533
ag540
asg21
I0
sg59
S'1140'
p545
sba(iArchitecture
Cluster
p546
(dp547
g7
(lp548
(iArchitecture
Entity
p549
(dp550
g11
(lp551
sg13
S'android.renderscript.Matrix2f'
p552
sg15
(lp553
sg17
(lp554
sg19
(lp555
sg21
I0
sba(iArchitecture
Entity
p556
(dp557
g11
(lp558
sg13
S'android.renderscript.Matrix3f'
p559
sg15
(lp560
sg17
(lp561
sg19
(lp562
sg21
I0
sba(iArchitecture
Entity
p563
(dp564
g11
(lp565
sg13
S'android.renderscript.Matrix4f'
p566
sg15
(lp567
sg17
(lp568
sg19
(lp569
sg21
I0
sbasg57
(lp570
g552
ag559
ag566
asg21
I0
sg59
S'1149'
p571
sba(iArchitecture
Cluster
p572
(dp573
g7
(lp574
(iArchitecture
Entity
p575
(dp576
g11
(lp577
sg13
S'android.renderscript.RSSurfaceView'
p578
sg15
(lp579
sg17
(lp580
sg19
(lp581
sg21
I0
sba(iArchitecture
Entity
p582
(dp583
g11
(lp584
sg13
S'android.renderscript.RSTextureView'
p585
sg15
(lp586
sg17
(lp587
sg19
(lp588
sg21
I0
sbasg57
(lp589
g578
ag585
asg21
I0
sg59
S'1160'
p590
sba(iArchitecture
Cluster
p591
(dp592
g7
(lp593
(iArchitecture
Entity
p594
(dp595
g11
(lp596
sg13
S'android.renderscript.RSDriverException'
p597
sg15
(lp598
sg17
(lp599
sg19
(lp600
sg21
I0
sba(iArchitecture
Entity
p601
(dp602
g11
(lp603
sg13
S'android.renderscript.RSIllegalArgumentException'
p604
sg15
(lp605
sg17
(lp606
sg19
(lp607
sg21
I0
sba(iArchitecture
Entity
p608
(dp609
g11
(lp610
sg13
S'android.renderscript.RSInvalidStateException'
p611
sg15
(lp612
sg17
(lp613
sg19
(lp614
sg21
I0
sba(iArchitecture
Entity
p615
(dp616
g11
(lp617
sg13
S'android.renderscript.RSRuntimeException'
p618
sg15
(lp619
sg17
(lp620
sg19
(lp621
sg21
I0
sba(iArchitecture
Entity
p622
(dp623
g11
(lp624
sg13
S'android.renderscript.RenderScriptCacheDir'
p625
sg15
(lp626
sg17
(lp627
sg19
(lp628
sg21
I0
sba(iArchitecture
Entity
p629
(dp630
g11
(lp631
sg13
S'android.renderscript.ScriptIntrinsic'
p632
sg15
(lp633
sg17
(lp634
sg19
(lp635
sg21
I0
sbasg57
(lp636
g597
ag604
ag611
ag618
ag625
ag632
asg21
I0
sg59
S'1223'
p637
sba(iArchitecture
Cluster
p638
(dp639
g7
(lp640
(iArchitecture
Entity
p641
(dp642
g11
(lp643
sg13
S'android.renderscript.BaseObj'
p644
sg15
(lp645
sg17
(lp646
sg19
(lp647
sg21
I0
sbasg57
(lp648
g644
asg21
I0
sg59
S'1246'
p649
sba(iArchitecture
Cluster
p650
(dp651
g7
(lp652
(iArchitecture
Entity
p653
(dp654
g11
(lp655
sg13
S'android.renderscript.ScriptC'
p656
sg15
(lp657
sg17
(lp658
sg19
(lp659
sg21
I0
sbasg57
(lp660
g656
asg21
I0
sg59
S'15'
p661
sba(iArchitecture
Cluster
p662
(dp663
g7
(lp664
(iArchitecture
Entity
p665
(dp666
g11
(lp667
sg13
S'android.renderscript.ScriptIntrinsicBLAS'
p668
sg15
(lp669
sg17
(lp670
sg19
(lp671
sg21
I0
sbasg57
(lp672
g668
asg21
I0
sg59
S'221'
p673
sba(iArchitecture
Cluster
p674
(dp675
g7
(lp676
(iArchitecture
Entity
p677
(dp678
g11
(lp679
sg13
S'android.renderscript.FieldPacker'
p680
sg15
(lp681
sg17
(lp682
sg19
(lp683
sg21
I0
sbasg57
(lp684
g680
asg21
I0
sg59
S'282'
p685
sba(iArchitecture
Cluster
p686
(dp687
g7
(lp688
(iArchitecture
Entity
p689
(dp690
g11
(lp691
sg13
S'android.renderscript.AllocationAdapter'
p692
sg15
(lp693
sg17
(lp694
sg19
(lp695
sg21
I0
sbasg57
(lp696
g692
asg21
I0
sg59
S'290'
p697
sba(iArchitecture
Cluster
p698
(dp699
g7
(lp700
(iArchitecture
Entity
p701
(dp702
g11
(lp703
sg13
S'android.renderscript.ScriptIntrinsicColorMatrix'
p704
sg15
(lp705
sg17
(lp706
sg19
(lp707
sg21
I0
sbasg57
(lp708
g704
asg21
I0
sg59
S'325'
p709
sba(iArchitecture
Cluster
p710
(dp711
g7
(lp712
(iArchitecture
Entity
p713
(dp714
g11
(lp715
sg13
S'android.renderscript.ScriptIntrinsicBlend'
p716
sg15
(lp717
sg17
(lp718
sg19
(lp719
sg21
I0
sbasg57
(lp720
g716
asg21
I0
sg59
S'419'
p721
sba(iArchitecture
Cluster
p722
(dp723
g7
(lp724
(iArchitecture
Entity
p725
(dp726
g11
(lp727
sg13
S'android.renderscript.RenderScriptGL'
p728
sg15
(lp729
sg17
(lp730
sg19
(lp731
sg21
I0
sba(iArchitecture
Entity
p732
(dp733
g11
(lp734
sg13
S'android.renderscript.RenderScriptGL$SurfaceConfig'
p735
sg15
(lp736
sg17
(lp737
sg19
(lp738
sg21
I0
sbasg57
(lp739
g728
ag735
asg21
I0
sg59
S'532'
p740
sba(iArchitecture
Cluster
p741
(dp742
g7
(lp743
(iArchitecture
Entity
p744
(dp745
g11
(lp746
sg13
S'android.renderscript.FileA3D'
p747
sg15
(lp748
sg17
(lp749
sg19
(lp750
sg21
I0
sba(iArchitecture
Entity
p751
(dp752
g11
(lp753
sg13
S'android.renderscript.FileA3D$EntryType'
p754
sg15
(lp755
sg17
(lp756
sg19
(lp757
sg21
I0
sba(iArchitecture
Entity
p758
(dp759
g11
(lp760
sg13
S'android.renderscript.FileA3D$IndexEntry'
p761
sg15
(lp762
sg17
(lp763
sg19
(lp764
sg21
I0
sbasg57
(lp765
g747
ag754
ag761
asg21
I0
sg59
S'804'
p766
sba(iArchitecture
Cluster
p767
(dp768
g7
(lp769
(iArchitecture
Entity
p770
(dp771
g11
(lp772
sg13
S'android.renderscript.Sampler'
p773
sg15
(lp774
sg17
(lp775
sg19
(lp776
sg21
I0
sba(iArchitecture
Entity
p777
(dp778
g11
(lp779
sg13
S'android.renderscript.Sampler$Builder'
p780
sg15
(lp781
sg17
(lp782
sg19
(lp783
sg21
I0
sba(iArchitecture
Entity
p784
(dp785
g11
(lp786
sg13
S'android.renderscript.Sampler$Value'
p787
sg15
(lp788
sg17
(lp789
sg19
(lp790
sg21
I0
sbasg57
(lp791
g773
ag780
ag787
asg21
I0
sg59
S'805'
p792
sba(iArchitecture
Cluster
p793
(dp794
g7
(lp795
(iArchitecture
Entity
p796
(dp797
g11
(lp798
sg13
S'android.renderscript.ProgramRaster'
p799
sg15
(lp800
sg17
(lp801
sg19
(lp802
sg21
I0
sba(iArchitecture
Entity
p803
(dp804
g11
(lp805
sg13
S'android.renderscript.ProgramRaster$Builder'
p806
sg15
(lp807
sg17
(lp808
sg19
(lp809
sg21
I0
sba(iArchitecture
Entity
p810
(dp811
g11
(lp812
sg13
S'android.renderscript.ProgramRaster$CullMode'
p813
sg15
(lp814
sg17
(lp815
sg19
(lp816
sg21
I0
sbasg57
(lp817
g799
ag806
ag813
asg21
I0
sg59
S'806'
p818
sba(iArchitecture
Cluster
p819
(dp820
g7
(lp821
(iArchitecture
Entity
p822
(dp823
g11
(lp824
sg13
S'android.renderscript.Allocation'
p825
sg15
(lp826
sg17
(lp827
sg19
(lp828
sg21
I0
sba(iArchitecture
Entity
p829
(dp830
g11
(lp831
sg13
S'android.renderscript.Allocation$MipmapControl'
p832
sg15
(lp833
sg17
(lp834
sg19
(lp835
sg21
I0
sba(iArchitecture
Entity
p836
(dp837
g11
(lp838
sg13
S'android.renderscript.Allocation$OnBufferAvailableListener'
p839
sg15
(lp840
sg17
(lp841
sg19
(lp842
sg21
I0
sbasg57
(lp843
g825
ag832
ag839
asg21
I0
sg59
S'824'
p844
sba(iArchitecture
Cluster
p845
(dp846
g7
(lp847
(iArchitecture
Entity
p848
(dp849
g11
(lp850
sg13
S'android.renderscript.Program'
p851
sg15
(lp852
sg17
(lp853
sg19
(lp854
sg21
I0
sba(iArchitecture
Entity
p855
(dp856
g11
(lp857
sg13
S'android.renderscript.Program$BaseProgramBuilder'
p858
sg15
(lp859
sg17
(lp860
sg19
(lp861
sg21
I0
sba(iArchitecture
Entity
p862
(dp863
g11
(lp864
sg13
S'android.renderscript.Program$ProgramParam'
p865
sg15
(lp866
sg17
(lp867
sg19
(lp868
sg21
I0
sba(iArchitecture
Entity
p869
(dp870
g11
(lp871
sg13
S'android.renderscript.Program$TextureType'
p872
sg15
(lp873
sg17
(lp874
sg19
(lp875
sg21
I0
sbasg57
(lp876
g851
ag858
ag865
ag872
asg21
I0
sg59
S'827'
p877
sba(iArchitecture
Cluster
p878
(dp879
g7
(lp880
(iArchitecture
Entity
p881
(dp882
g11
(lp883
sg13
S'android.renderscript.Type'
p884
sg15
(lp885
sg17
(lp886
sg19
(lp887
sg21
I0
sba(iArchitecture
Entity
p888
(dp889
g11
(lp890
sg13
S'android.renderscript.Type$Builder'
p891
sg15
(lp892
sg17
(lp893
sg19
(lp894
sg21
I0
sba(iArchitecture
Entity
p895
(dp896
g11
(lp897
sg13
S'android.renderscript.Type$CubemapFace'
p898
sg15
(lp899
sg17
(lp900
sg19
(lp901
sg21
I0
sbasg57
(lp902
g884
ag891
ag898
asg21
I0
sg59
S'830'
p903
sba(iArchitecture
Cluster
p904
(dp905
g7
(lp906
(iArchitecture
Entity
p907
(dp908
g11
(lp909
sg13
S'android.renderscript.Font'
p910
sg15
(lp911
sg17
(lp912
sg19
(lp913
sg21
I0
sba(iArchitecture
Entity
p914
(dp915
g11
(lp916
sg13
S'android.renderscript.Font$FontFamily'
p917
sg15
(lp918
sg17
(lp919
sg19
(lp920
sg21
I0
sba(iArchitecture
Entity
p921
(dp922
g11
(lp923
sg13
S'android.renderscript.Font$Style'
p924
sg15
(lp925
sg17
(lp926
sg19
(lp927
sg21
I0
sbasg57
(lp928
g910
ag917
ag924
asg21
I0
sg59
S'844'
p929
sba(iArchitecture
Cluster
p930
(dp931
g7
(lp932
(iArchitecture
Entity
p933
(dp934
g11
(lp935
sg13
S'android.renderscript.Element'
p936
sg15
(lp937
sg17
(lp938
sg19
(lp939
sg21
I0
sba(iArchitecture
Entity
p940
(dp941
g11
(lp942
sg13
S'android.renderscript.Element$Builder'
p943
sg15
(lp944
sg17
(lp945
sg19
(lp946
sg21
I0
sba(iArchitecture
Entity
p947
(dp948
g11
(lp949
sg13
S'android.renderscript.Element$DataKind'
p950
sg15
(lp951
sg17
(lp952
sg19
(lp953
sg21
I0
sba(iArchitecture
Entity
p954
(dp955
g11
(lp956
sg13
S'android.renderscript.Element$DataType'
p957
sg15
(lp958
sg17
(lp959
sg19
(lp960
sg21
I0
sbasg57
(lp961
g936
ag943
ag950
ag957
asg21
I0
sg59
S'872'
p962
sba(iArchitecture
Cluster
p963
(dp964
g7
(lp965
(iArchitecture
Entity
p966
(dp967
g11
(lp968
sg13
S'android.renderscript.ProgramStore'
p969
sg15
(lp970
sg17
(lp971
sg19
(lp972
sg21
I0
sba(iArchitecture
Entity
p973
(dp974
g11
(lp975
sg13
S'android.renderscript.ProgramStore$BlendDstFunc'
p976
sg15
(lp977
sg17
(lp978
sg19
(lp979
sg21
I0
sba(iArchitecture
Entity
p980
(dp981
g11
(lp982
sg13
S'android.renderscript.ProgramStore$BlendSrcFunc'
p983
sg15
(lp984
sg17
(lp985
sg19
(lp986
sg21
I0
sba(iArchitecture
Entity
p987
(dp988
g11
(lp989
sg13
S'android.renderscript.ProgramStore$Builder'
p990
sg15
(lp991
sg17
(lp992
sg19
(lp993
sg21
I0
sba(iArchitecture
Entity
p994
(dp995
g11
(lp996
sg13
S'android.renderscript.ProgramStore$DepthFunc'
p997
sg15
(lp998
sg17
(lp999
sg19
(lp1000
sg21
I0
sbasg57
(lp1001
g969
ag976
ag983
ag990
ag997
asg21
I0
sg59
S'937'
p1002
sbasS'target_sub'
p1003
S'android.renderscript'
p1004
sg57
(lp1005
sS'is_component_arch'
p1006
I00
sg59
S'6.0.0_r1'
p1007
sba(iArchitecture
Architecture
p1008
(dp1009
g3
(lp1010
(iArchitecture
Cluster
p1011
(dp1012
g7
(lp1013
(iArchitecture
Entity
p1014
(dp1015
g11
(lp1016
sg13
S'android.renderscript.ProgramStore'
p1017
sg15
(lp1018
sg17
(lp1019
sg19
(lp1020
sg21
I0
sba(iArchitecture
Entity
p1021
(dp1022
g11
(lp1023
sg13
S'android.renderscript.ProgramStore$BlendDstFunc'
p1024
sg15
(lp1025
sg17
(lp1026
sg19
(lp1027
sg21
I0
sba(iArchitecture
Entity
p1028
(dp1029
g11
(lp1030
sg13
S'android.renderscript.ProgramStore$BlendSrcFunc'
p1031
sg15
(lp1032
sg17
(lp1033
sg19
(lp1034
sg21
I0
sba(iArchitecture
Entity
p1035
(dp1036
g11
(lp1037
sg13
S'android.renderscript.ProgramStore$Builder'
p1038
sg15
(lp1039
sg17
(lp1040
sg19
(lp1041
sg21
I0
sba(iArchitecture
Entity
p1042
(dp1043
g11
(lp1044
sg13
S'android.renderscript.ProgramStore$DepthFunc'
p1045
sg15
(lp1046
sg17
(lp1047
sg19
(lp1048
sg21
I0
sbasg57
(lp1049
g1017
ag1024
ag1031
ag1038
ag1045
asg21
I0
sg59
S'1055'
p1050
sba(iArchitecture
Cluster
p1051
(dp1052
g7
(lp1053
(iArchitecture
Entity
p1054
(dp1055
g11
(lp1056
sg13
S'android.renderscript.RenderScript'
p1057
sg15
(lp1058
sg17
(lp1059
sg19
(lp1060
sg21
I0
sba(iArchitecture
Entity
p1061
(dp1062
g11
(lp1063
sg13
S'android.renderscript.RenderScript$ContextType'
p1064
sg15
(lp1065
sg17
(lp1066
sg19
(lp1067
sg21
I0
sba(iArchitecture
Entity
p1068
(dp1069
g11
(lp1070
sg13
S'android.renderscript.RenderScript$MessageThread'
p1071
sg15
(lp1072
sg17
(lp1073
sg19
(lp1074
sg21
I0
sba(iArchitecture
Entity
p1075
(dp1076
g11
(lp1077
sg13
S'android.renderscript.RenderScript$Priority'
p1078
sg15
(lp1079
sg17
(lp1080
sg19
(lp1081
sg21
I0
sba(iArchitecture
Entity
p1082
(dp1083
g11
(lp1084
sg13
S'android.renderscript.RenderScript$RSErrorHandler'
p1085
sg15
(lp1086
sg17
(lp1087
sg19
(lp1088
sg21
I0
sba(iArchitecture
Entity
p1089
(dp1090
g11
(lp1091
sg13
S'android.renderscript.RenderScript$RSMessageHandler'
p1092
sg15
(lp1093
sg17
(lp1094
sg19
(lp1095
sg21
I0
sbasg57
(lp1096
g1057
ag1064
ag1071
ag1078
ag1085
ag1092
asg21
I0
sg59
S'1132'
p1097
sba(iArchitecture
Cluster
p1098
(dp1099
g7
(lp1100
(iArchitecture
Entity
p1101
(dp1102
g11
(lp1103
sg13
S'android.renderscript.Mesh'
p1104
sg15
(lp1105
sg17
(lp1106
sg19
(lp1107
sg21
I0
sba(iArchitecture
Entity
p1108
(dp1109
g11
(lp1110
sg13
S'android.renderscript.Mesh$AllocationBuilder'
p1111
sg15
(lp1112
sg17
(lp1113
sg19
(lp1114
sg21
I0
sba(iArchitecture
Entity
p1115
(dp1116
g11
(lp1117
sg13
S'android.renderscript.Mesh$AllocationBuilder$Entry'
p1118
sg15
(lp1119
sg17
(lp1120
sg19
(lp1121
sg21
I0
sba(iArchitecture
Entity
p1122
(dp1123
g11
(lp1124
sg13
S'android.renderscript.Mesh$Builder'
p1125
sg15
(lp1126
sg17
(lp1127
sg19
(lp1128
sg21
I0
sba(iArchitecture
Entity
p1129
(dp1130
g11
(lp1131
sg13
S'android.renderscript.Mesh$Builder$Entry'
p1132
sg15
(lp1133
sg17
(lp1134
sg19
(lp1135
sg21
I0
sba(iArchitecture
Entity
p1136
(dp1137
g11
(lp1138
sg13
S'android.renderscript.Mesh$Primitive'
p1139
sg15
(lp1140
sg17
(lp1141
sg19
(lp1142
sg21
I0
sba(iArchitecture
Entity
p1143
(dp1144
g11
(lp1145
sg13
S'android.renderscript.Mesh$TriangleMeshBuilder'
p1146
sg15
(lp1147
sg17
(lp1148
sg19
(lp1149
sg21
I0
sbasg57
(lp1150
g1104
ag1111
ag1118
ag1125
ag1132
ag1139
ag1146
asg21
I0
sg59
S'1141'
p1151
sba(iArchitecture
Cluster
p1152
(dp1153
g7
(lp1154
(iArchitecture
Entity
p1155
(dp1156
g11
(lp1157
sg13
S'android.renderscript.Script'
p1158
sg15
(lp1159
sg17
(lp1160
sg19
(lp1161
sg21
I0
sba(iArchitecture
Entity
p1162
(dp1163
g11
(lp1164
sg13
S'android.renderscript.Script$Builder'
p1165
sg15
(lp1166
sg17
(lp1167
sg19
(lp1168
sg21
I0
sba(iArchitecture
Entity
p1169
(dp1170
g11
(lp1171
sg13
S'android.renderscript.Script$FieldBase'
p1172
sg15
(lp1173
sg17
(lp1174
sg19
(lp1175
sg21
I0
sba(iArchitecture
Entity
p1176
(dp1177
g11
(lp1178
sg13
S'android.renderscript.Script$FieldID'
p1179
sg15
(lp1180
sg17
(lp1181
sg19
(lp1182
sg21
I0
sba(iArchitecture
Entity
p1183
(dp1184
g11
(lp1185
sg13
S'android.renderscript.Script$InvokeID'
p1186
sg15
(lp1187
sg17
(lp1188
sg19
(lp1189
sg21
I0
sba(iArchitecture
Entity
p1190
(dp1191
g11
(lp1192
sg13
S'android.renderscript.Script$KernelID'
p1193
sg15
(lp1194
sg17
(lp1195
sg19
(lp1196
sg21
I0
sba(iArchitecture
Entity
p1197
(dp1198
g11
(lp1199
sg13
S'android.renderscript.Script$LaunchOptions'
p1200
sg15
(lp1201
sg17
(lp1202
sg19
(lp1203
sg21
I0
sbasg57
(lp1204
g1158
ag1165
ag1172
ag1179
ag1186
ag1193
ag1200
asg21
I0
sg59
S'1164'
p1205
sba(iArchitecture
Cluster
p1206
(dp1207
g7
(lp1208
(iArchitecture
Entity
p1209
(dp1210
g11
(lp1211
sg13
S'android.renderscript.ScriptGroup'
p1212
sg15
(lp1213
sg17
(lp1214
sg19
(lp1215
sg21
I0
sba(iArchitecture
Entity
p1216
(dp1217
g11
(lp1218
sg13
S'android.renderscript.ScriptGroup$Binding'
p1219
sg15
(lp1220
sg17
(lp1221
sg19
(lp1222
sg21
I0
sba(iArchitecture
Entity
p1223
(dp1224
g11
(lp1225
sg13
S'android.renderscript.ScriptGroup$Builder'
p1226
sg15
(lp1227
sg17
(lp1228
sg19
(lp1229
sg21
I0
sba(iArchitecture
Entity
p1230
(dp1231
g11
(lp1232
sg13
S'android.renderscript.ScriptGroup$Builder2'
p1233
sg15
(lp1234
sg17
(lp1235
sg19
(lp1236
sg21
I0
sba(iArchitecture
Entity
p1237
(dp1238
g11
(lp1239
sg13
S'android.renderscript.ScriptGroup$Closure'
p1240
sg15
(lp1241
sg17
(lp1242
sg19
(lp1243
sg21
I0
sba(iArchitecture
Entity
p1244
(dp1245
g11
(lp1246
sg13
S'android.renderscript.ScriptGroup$Closure$ValueAndSize'
p1247
sg15
(lp1248
sg17
(lp1249
sg19
(lp1250
sg21
I0
sba(iArchitecture
Entity
p1251
(dp1252
g11
(lp1253
sg13
S'android.renderscript.ScriptGroup$ConnectLine'
p1254
sg15
(lp1255
sg17
(lp1256
sg19
(lp1257
sg21
I0
sba(iArchitecture
Entity
p1258
(dp1259
g11
(lp1260
sg13
S'android.renderscript.ScriptGroup$Future'
p1261
sg15
(lp1262
sg17
(lp1263
sg19
(lp1264
sg21
I0
sba(iArchitecture
Entity
p1265
(dp1266
g11
(lp1267
sg13
S'android.renderscript.ScriptGroup$IO'
p1268
sg15
(lp1269
sg17
(lp1270
sg19
(lp1271
sg21
I0
sba(iArchitecture
Entity
p1272
(dp1273
g11
(lp1274
sg13
S'android.renderscript.ScriptGroup$Input'
p1275
sg15
(lp1276
sg17
(lp1277
sg19
(lp1278
sg21
I0
sba(iArchitecture
Entity
p1279
(dp1280
g11
(lp1281
sg13
S'android.renderscript.ScriptGroup$Node'
p1282
sg15
(lp1283
sg17
(lp1284
sg19
(lp1285
sg21
I0
sbasg57
(lp1286
g1212
ag1219
ag1226
ag1233
ag1240
ag1247
ag1254
ag1261
ag1268
ag1275
ag1282
asg21
I0
sg59
S'1197'
p1287
sba(iArchitecture
Cluster
p1288
(dp1289
g7
(lp1290
(iArchitecture
Entity
p1291
(dp1292
g11
(lp1293
sg13
S'android.renderscript.Byte2'
p1294
sg15
(lp1295
sg17
(lp1296
sg19
(lp1297
sg21
I0
sba(iArchitecture
Entity
p1298
(dp1299
g11
(lp1300
sg13
S'android.renderscript.Byte3'
p1301
sg15
(lp1302
sg17
(lp1303
sg19
(lp1304
sg21
I0
sba(iArchitecture
Entity
p1305
(dp1306
g11
(lp1307
sg13
S'android.renderscript.Byte4'
p1308
sg15
(lp1309
sg17
(lp1310
sg19
(lp1311
sg21
I0
sba(iArchitecture
Entity
p1312
(dp1313
g11
(lp1314
sg13
S'android.renderscript.Double2'
p1315
sg15
(lp1316
sg17
(lp1317
sg19
(lp1318
sg21
I0
sba(iArchitecture
Entity
p1319
(dp1320
g11
(lp1321
sg13
S'android.renderscript.Double3'
p1322
sg15
(lp1323
sg17
(lp1324
sg19
(lp1325
sg21
I0
sba(iArchitecture
Entity
p1326
(dp1327
g11
(lp1328
sg13
S'android.renderscript.Double4'
p1329
sg15
(lp1330
sg17
(lp1331
sg19
(lp1332
sg21
I0
sba(iArchitecture
Entity
p1333
(dp1334
g11
(lp1335
sg13
S'android.renderscript.Float2'
p1336
sg15
(lp1337
sg17
(lp1338
sg19
(lp1339
sg21
I0
sba(iArchitecture
Entity
p1340
(dp1341
g11
(lp1342
sg13
S'android.renderscript.Float3'
p1343
sg15
(lp1344
sg17
(lp1345
sg19
(lp1346
sg21
I0
sba(iArchitecture
Entity
p1347
(dp1348
g11
(lp1349
sg13
S'android.renderscript.Float4'
p1350
sg15
(lp1351
sg17
(lp1352
sg19
(lp1353
sg21
I0
sba(iArchitecture
Entity
p1354
(dp1355
g11
(lp1356
sg13
S'android.renderscript.Int2'
p1357
sg15
(lp1358
sg17
(lp1359
sg19
(lp1360
sg21
I0
sba(iArchitecture
Entity
p1361
(dp1362
g11
(lp1363
sg13
S'android.renderscript.Int3'
p1364
sg15
(lp1365
sg17
(lp1366
sg19
(lp1367
sg21
I0
sba(iArchitecture
Entity
p1368
(dp1369
g11
(lp1370
sg13
S'android.renderscript.Int4'
p1371
sg15
(lp1372
sg17
(lp1373
sg19
(lp1374
sg21
I0
sba(iArchitecture
Entity
p1375
(dp1376
g11
(lp1377
sg13
S'android.renderscript.Long2'
p1378
sg15
(lp1379
sg17
(lp1380
sg19
(lp1381
sg21
I0
sba(iArchitecture
Entity
p1382
(dp1383
g11
(lp1384
sg13
S'android.renderscript.Long3'
p1385
sg15
(lp1386
sg17
(lp1387
sg19
(lp1388
sg21
I0
sba(iArchitecture
Entity
p1389
(dp1390
g11
(lp1391
sg13
S'android.renderscript.Long4'
p1392
sg15
(lp1393
sg17
(lp1394
sg19
(lp1395
sg21
I0
sba(iArchitecture
Entity
p1396
(dp1397
g11
(lp1398
sg13
S'android.renderscript.Short2'
p1399
sg15
(lp1400
sg17
(lp1401
sg19
(lp1402
sg21
I0
sba(iArchitecture
Entity
p1403
(dp1404
g11
(lp1405
sg13
S'android.renderscript.Short3'
p1406
sg15
(lp1407
sg17
(lp1408
sg19
(lp1409
sg21
I0
sba(iArchitecture
Entity
p1410
(dp1411
g11
(lp1412
sg13
S'android.renderscript.Short4'
p1413
sg15
(lp1414
sg17
(lp1415
sg19
(lp1416
sg21
I0
sbasg57
(lp1417
g1294
ag1301
ag1308
ag1315
ag1322
ag1329
ag1336
ag1343
ag1350
ag1357
ag1364
ag1371
ag1378
ag1385
ag1392
ag1399
ag1406
ag1413
asg21
I0
sg59
S'1248'
p1418
sba(iArchitecture
Cluster
p1419
(dp1420
g7
(lp1421
(iArchitecture
Entity
p1422
(dp1423
g11
(lp1424
sg13
S'android.renderscript.ScriptIntrinsic3DLUT'
p1425
sg15
(lp1426
sg17
(lp1427
sg19
(lp1428
sg21
I0
sba(iArchitecture
Entity
p1429
(dp1430
g11
(lp1431
sg13
S'android.renderscript.ScriptIntrinsicBlur'
p1432
sg15
(lp1433
sg17
(lp1434
sg19
(lp1435
sg21
I0
sba(iArchitecture
Entity
p1436
(dp1437
g11
(lp1438
sg13
S'android.renderscript.ScriptIntrinsicConvolve3x3'
p1439
sg15
(lp1440
sg17
(lp1441
sg19
(lp1442
sg21
I0
sba(iArchitecture
Entity
p1443
(dp1444
g11
(lp1445
sg13
S'android.renderscript.ScriptIntrinsicConvolve5x5'
p1446
sg15
(lp1447
sg17
(lp1448
sg19
(lp1449
sg21
I0
sba(iArchitecture
Entity
p1450
(dp1451
g11
(lp1452
sg13
S'android.renderscript.ScriptIntrinsicHistogram'
p1453
sg15
(lp1454
sg17
(lp1455
sg19
(lp1456
sg21
I0
sba(iArchitecture
Entity
p1457
(dp1458
g11
(lp1459
sg13
S'android.renderscript.ScriptIntrinsicLUT'
p1460
sg15
(lp1461
sg17
(lp1462
sg19
(lp1463
sg21
I0
sba(iArchitecture
Entity
p1464
(dp1465
g11
(lp1466
sg13
S'android.renderscript.ScriptIntrinsicResize'
p1467
sg15
(lp1468
sg17
(lp1469
sg19
(lp1470
sg21
I0
sba(iArchitecture
Entity
p1471
(dp1472
g11
(lp1473
sg13
S'android.renderscript.ScriptIntrinsicYuvToRGB'
p1474
sg15
(lp1475
sg17
(lp1476
sg19
(lp1477
sg21
I0
sbasg57
(lp1478
g1425
ag1432
ag1439
ag1446
ag1453
ag1460
ag1467
ag1474
asg21
I0
sg59
S'1258'
p1479
sba(iArchitecture
Cluster
p1480
(dp1481
g7
(lp1482
(iArchitecture
Entity
p1483
(dp1484
g11
(lp1485
sg13
S'android.renderscript.ProgramFragment'
p1486
sg15
(lp1487
sg17
(lp1488
sg19
(lp1489
sg21
I0
sba(iArchitecture
Entity
p1490
(dp1491
g11
(lp1492
sg13
S'android.renderscript.ProgramFragment$Builder'
p1493
sg15
(lp1494
sg17
(lp1495
sg19
(lp1496
sg21
I0
sba(iArchitecture
Entity
p1497
(dp1498
g11
(lp1499
sg13
S'android.renderscript.ProgramFragmentFixedFunction'
p1500
sg15
(lp1501
sg17
(lp1502
sg19
(lp1503
sg21
I0
sba(iArchitecture
Entity
p1504
(dp1505
g11
(lp1506
sg13
S'android.renderscript.ProgramFragmentFixedFunction$Builder'
p1507
sg15
(lp1508
sg17
(lp1509
sg19
(lp1510
sg21
I0
sba(iArchitecture
Entity
p1511
(dp1512
g11
(lp1513
sg13
S'android.renderscript.ProgramFragmentFixedFunction$Builder$EnvMode'
p1514
sg15
(lp1515
sg17
(lp1516
sg19
(lp1517
sg21
I0
sba(iArchitecture
Entity
p1518
(dp1519
g11
(lp1520
sg13
S'android.renderscript.ProgramFragmentFixedFunction$Builder$Format'
p1521
sg15
(lp1522
sg17
(lp1523
sg19
(lp1524
sg21
I0
sba(iArchitecture
Entity
p1525
(dp1526
g11
(lp1527
sg13
S'android.renderscript.ProgramFragmentFixedFunction$Builder$Slot'
p1528
sg15
(lp1529
sg17
(lp1530
sg19
(lp1531
sg21
I0
sba(iArchitecture
Entity
p1532
(dp1533
g11
(lp1534
sg13
S'android.renderscript.ProgramFragmentFixedFunction$InternalBuilder'
p1535
sg15
(lp1536
sg17
(lp1537
sg19
(lp1538
sg21
I0
sba(iArchitecture
Entity
p1539
(dp1540
g11
(lp1541
sg13
S'android.renderscript.ProgramVertex'
p1542
sg15
(lp1543
sg17
(lp1544
sg19
(lp1545
sg21
I0
sba(iArchitecture
Entity
p1546
(dp1547
g11
(lp1548
sg13
S'android.renderscript.ProgramVertex$Builder'
p1549
sg15
(lp1550
sg17
(lp1551
sg19
(lp1552
sg21
I0
sba(iArchitecture
Entity
p1553
(dp1554
g11
(lp1555
sg13
S'android.renderscript.ProgramVertexFixedFunction'
p1556
sg15
(lp1557
sg17
(lp1558
sg19
(lp1559
sg21
I0
sba(iArchitecture
Entity
p1560
(dp1561
g11
(lp1562
sg13
S'android.renderscript.ProgramVertexFixedFunction$Builder'
p1563
sg15
(lp1564
sg17
(lp1565
sg19
(lp1566
sg21
I0
sba(iArchitecture
Entity
p1567
(dp1568
g11
(lp1569
sg13
S'android.renderscript.ProgramVertexFixedFunction$Constants'
p1570
sg15
(lp1571
sg17
(lp1572
sg19
(lp1573
sg21
I0
sba(iArchitecture
Entity
p1574
(dp1575
g11
(lp1576
sg13
S'android.renderscript.ProgramVertexFixedFunction$InternalBuilder'
p1577
sg15
(lp1578
sg17
(lp1579
sg19
(lp1580
sg21
I0
sbasg57
(lp1581
g1486
ag1493
ag1500
ag1507
ag1514
ag1521
ag1528
ag1535
ag1542
ag1549
ag1556
ag1563
ag1570
ag1577
asg21
I0
sg59
S'1281'
p1582
sba(iArchitecture
Cluster
p1583
(dp1584
g7
(lp1585
(iArchitecture
Entity
p1586
(dp1587
g11
(lp1588
sg13
S'android.renderscript.Matrix2f'
p1589
sg15
(lp1590
sg17
(lp1591
sg19
(lp1592
sg21
I0
sba(iArchitecture
Entity
p1593
(dp1594
g11
(lp1595
sg13
S'android.renderscript.Matrix3f'
p1596
sg15
(lp1597
sg17
(lp1598
sg19
(lp1599
sg21
I0
sba(iArchitecture
Entity
p1600
(dp1601
g11
(lp1602
sg13
S'android.renderscript.Matrix4f'
p1603
sg15
(lp1604
sg17
(lp1605
sg19
(lp1606
sg21
I0
sbasg57
(lp1607
g1589
ag1596
ag1603
asg21
I0
sg59
S'1290'
p1608
sba(iArchitecture
Cluster
p1609
(dp1610
g7
(lp1611
(iArchitecture
Entity
p1612
(dp1613
g11
(lp1614
sg13
S'android.renderscript.RSSurfaceView'
p1615
sg15
(lp1616
sg17
(lp1617
sg19
(lp1618
sg21
I0
sba(iArchitecture
Entity
p1619
(dp1620
g11
(lp1621
sg13
S'android.renderscript.RSTextureView'
p1622
sg15
(lp1623
sg17
(lp1624
sg19
(lp1625
sg21
I0
sbasg57
(lp1626
g1615
ag1622
asg21
I0
sg59
S'1303'
p1627
sba(iArchitecture
Cluster
p1628
(dp1629
g7
(lp1630
(iArchitecture
Entity
p1631
(dp1632
g11
(lp1633
sg13
S'android.renderscript.BaseObj'
p1634
sg15
(lp1635
sg17
(lp1636
sg19
(lp1637
sg21
I0
sba(iArchitecture
Entity
p1638
(dp1639
g11
(lp1640
sg13
S'android.renderscript.RSDriverException'
p1641
sg15
(lp1642
sg17
(lp1643
sg19
(lp1644
sg21
I0
sba(iArchitecture
Entity
p1645
(dp1646
g11
(lp1647
sg13
S'android.renderscript.RSIllegalArgumentException'
p1648
sg15
(lp1649
sg17
(lp1650
sg19
(lp1651
sg21
I0
sba(iArchitecture
Entity
p1652
(dp1653
g11
(lp1654
sg13
S'android.renderscript.RSInvalidStateException'
p1655
sg15
(lp1656
sg17
(lp1657
sg19
(lp1658
sg21
I0
sba(iArchitecture
Entity
p1659
(dp1660
g11
(lp1661
sg13
S'android.renderscript.RSRuntimeException'
p1662
sg15
(lp1663
sg17
(lp1664
sg19
(lp1665
sg21
I0
sba(iArchitecture
Entity
p1666
(dp1667
g11
(lp1668
sg13
S'android.renderscript.RenderScriptCacheDir'
p1669
sg15
(lp1670
sg17
(lp1671
sg19
(lp1672
sg21
I0
sba(iArchitecture
Entity
p1673
(dp1674
g11
(lp1675
sg13
S'android.renderscript.ScriptIntrinsic'
p1676
sg15
(lp1677
sg17
(lp1678
sg19
(lp1679
sg21
I0
sbasg57
(lp1680
g1634
ag1641
ag1648
ag1655
ag1662
ag1669
ag1676
asg21
I0
sg59
S'1330'
p1681
sba(iArchitecture
Cluster
p1682
(dp1683
g7
(lp1684
(iArchitecture
Entity
p1685
(dp1686
g11
(lp1687
sg13
S'android.renderscript.ScriptC'
p1688
sg15
(lp1689
sg17
(lp1690
sg19
(lp1691
sg21
I0
sbasg57
(lp1692
g1688
asg21
I0
sg59
S'21'
p1693
sba(iArchitecture
Cluster
p1694
(dp1695
g7
(lp1696
(iArchitecture
Entity
p1697
(dp1698
g11
(lp1699
sg13
S'android.renderscript.ScriptIntrinsicBLAS'
p1700
sg15
(lp1701
sg17
(lp1702
sg19
(lp1703
sg21
I0
sbasg57
(lp1704
g1700
asg21
I0
sg59
S'243'
p1705
sba(iArchitecture
Cluster
p1706
(dp1707
g7
(lp1708
(iArchitecture
Entity
p1709
(dp1710
g11
(lp1711
sg13
S'android.renderscript.FieldPacker'
p1712
sg15
(lp1713
sg17
(lp1714
sg19
(lp1715
sg21
I0
sbasg57
(lp1716
g1712
asg21
I0
sg59
S'310'
p1717
sba(iArchitecture
Cluster
p1718
(dp1719
g7
(lp1720
(iArchitecture
Entity
p1721
(dp1722
g11
(lp1723
sg13
S'android.renderscript.AllocationAdapter'
p1724
sg15
(lp1725
sg17
(lp1726
sg19
(lp1727
sg21
I0
sbasg57
(lp1728
g1724
asg21
I0
sg59
S'318'
p1729
sba(iArchitecture
Cluster
p1730
(dp1731
g7
(lp1732
(iArchitecture
Entity
p1733
(dp1734
g11
(lp1735
sg13
S'android.renderscript.ScriptIntrinsicColorMatrix'
p1736
sg15
(lp1737
sg17
(lp1738
sg19
(lp1739
sg21
I0
sbasg57
(lp1740
g1736
asg21
I0
sg59
S'356'
p1741
sba(iArchitecture
Cluster
p1742
(dp1743
g7
(lp1744
(iArchitecture
Entity
p1745
(dp1746
g11
(lp1747
sg13
S'android.renderscript.ScriptIntrinsicBlend'
p1748
sg15
(lp1749
sg17
(lp1750
sg19
(lp1751
sg21
I0
sbasg57
(lp1752
g1748
asg21
I0
sg59
S'462'
p1753
sba(iArchitecture
Cluster
p1754
(dp1755
g7
(lp1756
(iArchitecture
Entity
p1757
(dp1758
g11
(lp1759
sg13
S'android.renderscript.RenderScriptGL'
p1760
sg15
(lp1761
sg17
(lp1762
sg19
(lp1763
sg21
I0
sba(iArchitecture
Entity
p1764
(dp1765
g11
(lp1766
sg13
S'android.renderscript.RenderScriptGL$SurfaceConfig'
p1767
sg15
(lp1768
sg17
(lp1769
sg19
(lp1770
sg21
I0
sbasg57
(lp1771
g1760
ag1767
asg21
I0
sg59
S'595'
p1772
sba(iArchitecture
Cluster
p1773
(dp1774
g7
(lp1775
(iArchitecture
Entity
p1776
(dp1777
g11
(lp1778
sg13
S'android.renderscript.FileA3D'
p1779
sg15
(lp1780
sg17
(lp1781
sg19
(lp1782
sg21
I0
sba(iArchitecture
Entity
p1783
(dp1784
g11
(lp1785
sg13
S'android.renderscript.FileA3D$EntryType'
p1786
sg15
(lp1787
sg17
(lp1788
sg19
(lp1789
sg21
I0
sba(iArchitecture
Entity
p1790
(dp1791
g11
(lp1792
sg13
S'android.renderscript.FileA3D$IndexEntry'
p1793
sg15
(lp1794
sg17
(lp1795
sg19
(lp1796
sg21
I0
sbasg57
(lp1797
g1779
ag1786
ag1793
asg21
I0
sg59
S'900'
p1798
sba(iArchitecture
Cluster
p1799
(dp1800
g7
(lp1801
(iArchitecture
Entity
p1802
(dp1803
g11
(lp1804
sg13
S'android.renderscript.Sampler'
p1805
sg15
(lp1806
sg17
(lp1807
sg19
(lp1808
sg21
I0
sba(iArchitecture
Entity
p1809
(dp1810
g11
(lp1811
sg13
S'android.renderscript.Sampler$Builder'
p1812
sg15
(lp1813
sg17
(lp1814
sg19
(lp1815
sg21
I0
sba(iArchitecture
Entity
p1816
(dp1817
g11
(lp1818
sg13
S'android.renderscript.Sampler$Value'
p1819
sg15
(lp1820
sg17
(lp1821
sg19
(lp1822
sg21
I0
sbasg57
(lp1823
g1805
ag1812
ag1819
asg21
I0
sg59
S'901'
p1824
sba(iArchitecture
Cluster
p1825
(dp1826
g7
(lp1827
(iArchitecture
Entity
p1828
(dp1829
g11
(lp1830
sg13
S'android.renderscript.ProgramRaster'
p1831
sg15
(lp1832
sg17
(lp1833
sg19
(lp1834
sg21
I0
sba(iArchitecture
Entity
p1835
(dp1836
g11
(lp1837
sg13
S'android.renderscript.ProgramRaster$Builder'
p1838
sg15
(lp1839
sg17
(lp1840
sg19
(lp1841
sg21
I0
sba(iArchitecture
Entity
p1842
(dp1843
g11
(lp1844
sg13
S'android.renderscript.ProgramRaster$CullMode'
p1845
sg15
(lp1846
sg17
(lp1847
sg19
(lp1848
sg21
I0
sbasg57
(lp1849
g1831
ag1838
ag1845
asg21
I0
sg59
S'902'
p1850
sba(iArchitecture
Cluster
p1851
(dp1852
g7
(lp1853
(iArchitecture
Entity
p1854
(dp1855
g11
(lp1856
sg13
S'android.renderscript.Allocation'
p1857
sg15
(lp1858
sg17
(lp1859
sg19
(lp1860
sg21
I0
sba(iArchitecture
Entity
p1861
(dp1862
g11
(lp1863
sg13
S'android.renderscript.Allocation$MipmapControl'
p1864
sg15
(lp1865
sg17
(lp1866
sg19
(lp1867
sg21
I0
sba(iArchitecture
Entity
p1868
(dp1869
g11
(lp1870
sg13
S'android.renderscript.Allocation$OnBufferAvailableListener'
p1871
sg15
(lp1872
sg17
(lp1873
sg19
(lp1874
sg21
I0
sbasg57
(lp1875
g1857
ag1864
ag1871
asg21
I0
sg59
S'924'
p1876
sba(iArchitecture
Cluster
p1877
(dp1878
g7
(lp1879
(iArchitecture
Entity
p1880
(dp1881
g11
(lp1882
sg13
S'android.renderscript.Program'
p1883
sg15
(lp1884
sg17
(lp1885
sg19
(lp1886
sg21
I0
sba(iArchitecture
Entity
p1887
(dp1888
g11
(lp1889
sg13
S'android.renderscript.Program$BaseProgramBuilder'
p1890
sg15
(lp1891
sg17
(lp1892
sg19
(lp1893
sg21
I0
sba(iArchitecture
Entity
p1894
(dp1895
g11
(lp1896
sg13
S'android.renderscript.Program$ProgramParam'
p1897
sg15
(lp1898
sg17
(lp1899
sg19
(lp1900
sg21
I0
sba(iArchitecture
Entity
p1901
(dp1902
g11
(lp1903
sg13
S'android.renderscript.Program$TextureType'
p1904
sg15
(lp1905
sg17
(lp1906
sg19
(lp1907
sg21
I0
sbasg57
(lp1908
g1883
ag1890
ag1897
ag1904
asg21
I0
sg59
S'926'
p1909
sba(iArchitecture
Cluster
p1910
(dp1911
g7
(lp1912
(iArchitecture
Entity
p1913
(dp1914
g11
(lp1915
sg13
S'android.renderscript.Type'
p1916
sg15
(lp1917
sg17
(lp1918
sg19
(lp1919
sg21
I0
sba(iArchitecture
Entity
p1920
(dp1921
g11
(lp1922
sg13
S'android.renderscript.Type$Builder'
p1923
sg15
(lp1924
sg17
(lp1925
sg19
(lp1926
sg21
I0
sba(iArchitecture
Entity
p1927
(dp1928
g11
(lp1929
sg13
S'android.renderscript.Type$CubemapFace'
p1930
sg15
(lp1931
sg17
(lp1932
sg19
(lp1933
sg21
I0
sbasg57
(lp1934
g1916
ag1923
ag1930
asg21
I0
sg59
S'930'
p1935
sba(iArchitecture
Cluster
p1936
(dp1937
g7
(lp1938
(iArchitecture
Entity
p1939
(dp1940
g11
(lp1941
sg13
S'android.renderscript.Font'
p1942
sg15
(lp1943
sg17
(lp1944
sg19
(lp1945
sg21
I0
sba(iArchitecture
Entity
p1946
(dp1947
g11
(lp1948
sg13
S'android.renderscript.Font$FontFamily'
p1949
sg15
(lp1950
sg17
(lp1951
sg19
(lp1952
sg21
I0
sba(iArchitecture
Entity
p1953
(dp1954
g11
(lp1955
sg13
S'android.renderscript.Font$Style'
p1956
sg15
(lp1957
sg17
(lp1958
sg19
(lp1959
sg21
I0
sbasg57
(lp1960
g1942
ag1949
ag1956
asg21
I0
sg59
S'948'
p1961
sba(iArchitecture
Cluster
p1962
(dp1963
g7
(lp1964
(iArchitecture
Entity
p1965
(dp1966
g11
(lp1967
sg13
S'android.renderscript.Element'
p1968
sg15
(lp1969
sg17
(lp1970
sg19
(lp1971
sg21
I0
sba(iArchitecture
Entity
p1972
(dp1973
g11
(lp1974
sg13
S'android.renderscript.Element$Builder'
p1975
sg15
(lp1976
sg17
(lp1977
sg19
(lp1978
sg21
I0
sba(iArchitecture
Entity
p1979
(dp1980
g11
(lp1981
sg13
S'android.renderscript.Element$DataKind'
p1982
sg15
(lp1983
sg17
(lp1984
sg19
(lp1985
sg21
I0
sba(iArchitecture
Entity
p1986
(dp1987
g11
(lp1988
sg13
S'android.renderscript.Element$DataType'
p1989
sg15
(lp1990
sg17
(lp1991
sg19
(lp1992
sg21
I0
sbasg57
(lp1993
g1968
ag1975
ag1982
ag1989
asg21
I0
sg59
S'979'
p1994
sbasg1003
g1004
sg57
(lp1995
sg1006
I00
sg59
S'7.0.0_r1'
p1996
sba.