(lp0
(iArchitecture
Architecture
p1
(dp2
S'clusters'
p3
(lp4
(iArchitecture
Cluster
p5
(dp6
S'entities'
p7
(lp8
(iArchitecture
Entity
p9
(dp10
S'issue_ids'
p11
(lp12
sS'name'
p13
S'android.drm.DrmManagerClient'
p14
sS'descs'
p15
(lp16
sS'labels'
p17
(lp18
sS'titles'
p19
(lp20
sS'change'
p21
I0
sba(iArchitecture
Entity
p22
(dp23
g11
(lp24
sg13
S'android.drm.DrmManagerClient$EventHandler'
p25
sg15
(lp26
sg17
(lp27
sg19
(lp28
sg21
I0
sba(iArchitecture
Entity
p29
(dp30
g11
(lp31
sg13
S'android.drm.DrmManagerClient$InfoHandler'
p32
sg15
(lp33
sg17
(lp34
sg19
(lp35
sg21
I0
sba(iArchitecture
Entity
p36
(dp37
g11
(lp38
sg13
S'android.drm.DrmManagerClient$OnErrorListener'
p39
sg15
(lp40
sg17
(lp41
sg19
(lp42
sg21
I0
sba(iArchitecture
Entity
p43
(dp44
g11
(lp45
sg13
S'android.drm.DrmManagerClient$OnEventListener'
p46
sg15
(lp47
sg17
(lp48
sg19
(lp49
sg21
I0
sba(iArchitecture
Entity
p50
(dp51
g11
(lp52
sg13
S'android.drm.DrmManagerClient$OnInfoListener'
p53
sg15
(lp54
sg17
(lp55
sg19
(lp56
sg21
I0
sbasS'classes'
p57
(lp58
g14
ag25
ag32
ag39
ag46
ag53
asg21
I0
sS'label'
p59
S'1005'
p60
sba(iArchitecture
Cluster
p61
(dp62
g7
(lp63
(iArchitecture
Entity
p64
(dp65
g11
(lp66
sg13
S'android.drm.DrmConvertedStatus'
p67
sg15
(lp68
sg17
(lp69
sg19
(lp70
sg21
I0
sba(iArchitecture
Entity
p71
(dp72
g11
(lp73
sg13
S'android.drm.DrmInfoStatus'
p74
sg15
(lp75
sg17
(lp76
sg19
(lp77
sg21
I0
sbasg57
(lp78
g67
ag74
asg21
I0
sg59
S'1203'
p79
sba(iArchitecture
Cluster
p80
(dp81
g7
(lp82
(iArchitecture
Entity
p83
(dp84
g11
(lp85
sg13
S'android.drm.DrmSupportInfo'
p86
sg15
(lp87
sg17
(lp88
sg19
(lp89
sg21
I0
sbasg57
(lp90
g86
asg21
I0
sg59
S'1215'
p91
sba(iArchitecture
Cluster
p92
(dp93
g7
(lp94
(iArchitecture
Entity
p95
(dp96
g11
(lp97
sg13
S'android.drm.DrmOutputStream'
p98
sg15
(lp99
sg17
(lp100
sg19
(lp101
sg21
I0
sbasg57
(lp102
g98
asg21
I0
sg59
S'1237'
p103
sba(iArchitecture
Cluster
p104
(dp105
g7
(lp106
(iArchitecture
Entity
p107
(dp108
g11
(lp109
sg13
S'android.drm.DrmErrorEvent'
p110
sg15
(lp111
sg17
(lp112
sg19
(lp113
sg21
I0
sba(iArchitecture
Entity
p114
(dp115
g11
(lp116
sg13
S'android.drm.DrmEvent'
p117
sg15
(lp118
sg17
(lp119
sg19
(lp120
sg21
I0
sba(iArchitecture
Entity
p121
(dp122
g11
(lp123
sg13
S'android.drm.DrmInfo'
p124
sg15
(lp125
sg17
(lp126
sg19
(lp127
sg21
I0
sba(iArchitecture
Entity
p128
(dp129
g11
(lp130
sg13
S'android.drm.DrmInfoEvent'
p131
sg15
(lp132
sg17
(lp133
sg19
(lp134
sg21
I0
sba(iArchitecture
Entity
p135
(dp136
g11
(lp137
sg13
S'android.drm.DrmInfoRequest'
p138
sg15
(lp139
sg17
(lp140
sg19
(lp141
sg21
I0
sba(iArchitecture
Entity
p142
(dp143
g11
(lp144
sg13
S'android.drm.DrmStore'
p145
sg15
(lp146
sg17
(lp147
sg19
(lp148
sg21
I0
sba(iArchitecture
Entity
p149
(dp150
g11
(lp151
sg13
S'android.drm.DrmStore$Action'
p152
sg15
(lp153
sg17
(lp154
sg19
(lp155
sg21
I0
sba(iArchitecture
Entity
p156
(dp157
g11
(lp158
sg13
S'android.drm.DrmStore$ConstraintsColumns'
p159
sg15
(lp160
sg17
(lp161
sg19
(lp162
sg21
I0
sba(iArchitecture
Entity
p163
(dp164
g11
(lp165
sg13
S'android.drm.DrmStore$DrmObjectType'
p166
sg15
(lp167
sg17
(lp168
sg19
(lp169
sg21
I0
sba(iArchitecture
Entity
p170
(dp171
g11
(lp172
sg13
S'android.drm.DrmStore$Playback'
p173
sg15
(lp174
sg17
(lp175
sg19
(lp176
sg21
I0
sba(iArchitecture
Entity
p177
(dp178
g11
(lp179
sg13
S'android.drm.DrmStore$RightsStatus'
p180
sg15
(lp181
sg17
(lp182
sg19
(lp183
sg21
I0
sba(iArchitecture
Entity
p184
(dp185
g11
(lp186
sg13
S'android.drm.ProcessedData'
p187
sg15
(lp188
sg17
(lp189
sg19
(lp190
sg21
I0
sbasg57
(lp191
g110
ag117
ag124
ag131
ag138
ag145
ag152
ag159
ag166
ag173
ag180
ag187
asg21
I0
sg59
S'1246'
p192
sba(iArchitecture
Cluster
p193
(dp194
g7
(lp195
(iArchitecture
Entity
p196
(dp197
g11
(lp198
sg13
S'android.drm.DrmRights'
p199
sg15
(lp200
sg17
(lp201
sg19
(lp202
sg21
I0
sbasg57
(lp203
g199
asg21
I0
sg59
S'358'
p204
sba(iArchitecture
Cluster
p205
(dp206
g7
(lp207
(iArchitecture
Entity
p208
(dp209
g11
(lp210
sg13
S'android.drm.DrmUtils'
p211
sg15
(lp212
sg17
(lp213
sg19
(lp214
sg21
I0
sba(iArchitecture
Entity
p215
(dp216
g11
(lp217
sg13
S'android.drm.DrmUtils$ExtendedMetadataParser'
p218
sg15
(lp219
sg17
(lp220
sg19
(lp221
sg21
I0
sbasg57
(lp222
g211
ag218
asg21
I0
sg59
S'504'
p223
sbasS'target_sub'
p224
S'android.drm'
p225
sg57
(lp226
sS'is_component_arch'
p227
I00
sg59
S'6.0.0_r1'
p228
sba(iArchitecture
Architecture
p229
(dp230
g3
(lp231
(iArchitecture
Cluster
p232
(dp233
g7
(lp234
(iArchitecture
Entity
p235
(dp236
g11
(lp237
sg13
S'android.drm.DrmStore'
p238
sg15
(lp239
sg17
(lp240
sg19
(lp241
sg21
I0
sba(iArchitecture
Entity
p242
(dp243
g11
(lp244
sg13
S'android.drm.DrmStore$Action'
p245
sg15
(lp246
sg17
(lp247
sg19
(lp248
sg21
I0
sba(iArchitecture
Entity
p249
(dp250
g11
(lp251
sg13
S'android.drm.DrmStore$ConstraintsColumns'
p252
sg15
(lp253
sg17
(lp254
sg19
(lp255
sg21
I0
sba(iArchitecture
Entity
p256
(dp257
g11
(lp258
sg13
S'android.drm.DrmStore$DrmObjectType'
p259
sg15
(lp260
sg17
(lp261
sg19
(lp262
sg21
I0
sba(iArchitecture
Entity
p263
(dp264
g11
(lp265
sg13
S'android.drm.DrmStore$Playback'
p266
sg15
(lp267
sg17
(lp268
sg19
(lp269
sg21
I0
sba(iArchitecture
Entity
p270
(dp271
g11
(lp272
sg13
S'android.drm.DrmStore$RightsStatus'
p273
sg15
(lp274
sg17
(lp275
sg19
(lp276
sg21
I0
sbasg57
(lp277
g238
ag245
ag252
ag259
ag266
ag273
asg21
I0
sg59
S'1078'
p278
sba(iArchitecture
Cluster
p279
(dp280
g7
(lp281
(iArchitecture
Entity
p282
(dp283
g11
(lp284
sg13
S'android.drm.DrmManagerClient'
p285
sg15
(lp286
sg17
(lp287
sg19
(lp288
sg21
I0
sba(iArchitecture
Entity
p289
(dp290
g11
(lp291
sg13
S'android.drm.DrmManagerClient$EventHandler'
p292
sg15
(lp293
sg17
(lp294
sg19
(lp295
sg21
I0
sba(iArchitecture
Entity
p296
(dp297
g11
(lp298
sg13
S'android.drm.DrmManagerClient$InfoHandler'
p299
sg15
(lp300
sg17
(lp301
sg19
(lp302
sg21
I0
sba(iArchitecture
Entity
p303
(dp304
g11
(lp305
sg13
S'android.drm.DrmManagerClient$OnErrorListener'
p306
sg15
(lp307
sg17
(lp308
sg19
(lp309
sg21
I0
sba(iArchitecture
Entity
p310
(dp311
g11
(lp312
sg13
S'android.drm.DrmManagerClient$OnEventListener'
p313
sg15
(lp314
sg17
(lp315
sg19
(lp316
sg21
I0
sba(iArchitecture
Entity
p317
(dp318
g11
(lp319
sg13
S'android.drm.DrmManagerClient$OnInfoListener'
p320
sg15
(lp321
sg17
(lp322
sg19
(lp323
sg21
I0
sbasg57
(lp324
g285
ag292
ag299
ag306
ag313
ag320
asg21
I0
sg59
S'1131'
p325
sba(iArchitecture
Cluster
p326
(dp327
g7
(lp328
(iArchitecture
Entity
p329
(dp330
g11
(lp331
sg13
S'android.drm.DrmInfo'
p332
sg15
(lp333
sg17
(lp334
sg19
(lp335
sg21
I0
sba(iArchitecture
Entity
p336
(dp337
g11
(lp338
sg13
S'android.drm.DrmInfoRequest'
p339
sg15
(lp340
sg17
(lp341
sg19
(lp342
sg21
I0
sba(iArchitecture
Entity
p343
(dp344
g11
(lp345
sg13
S'android.drm.ProcessedData'
p346
sg15
(lp347
sg17
(lp348
sg19
(lp349
sg21
I0
sbasg57
(lp350
g332
ag339
ag346
asg21
I0
sg59
S'1330'
p351
sba(iArchitecture
Cluster
p352
(dp353
g7
(lp354
(iArchitecture
Entity
p355
(dp356
g11
(lp357
sg13
S'android.drm.DrmConvertedStatus'
p358
sg15
(lp359
sg17
(lp360
sg19
(lp361
sg21
I0
sba(iArchitecture
Entity
p362
(dp363
g11
(lp364
sg13
S'android.drm.DrmInfoStatus'
p365
sg15
(lp366
sg17
(lp367
sg19
(lp368
sg21
I0
sba(iArchitecture
Entity
p369
(dp370
g11
(lp371
sg13
S'android.drm.DrmOutputStream'
p372
sg15
(lp373
sg17
(lp374
sg19
(lp375
sg21
I0
sbasg57
(lp376
g358
ag365
ag372
asg21
I0
sg59
S'1383'
p377
sba(iArchitecture
Cluster
p378
(dp379
g7
(lp380
(iArchitecture
Entity
p381
(dp382
g11
(lp383
sg13
S'android.drm.DrmErrorEvent'
p384
sg15
(lp385
sg17
(lp386
sg19
(lp387
sg21
I0
sba(iArchitecture
Entity
p388
(dp389
g11
(lp390
sg13
S'android.drm.DrmEvent'
p391
sg15
(lp392
sg17
(lp393
sg19
(lp394
sg21
I0
sba(iArchitecture
Entity
p395
(dp396
g11
(lp397
sg13
S'android.drm.DrmInfoEvent'
p398
sg15
(lp399
sg17
(lp400
sg19
(lp401
sg21
I0
sbasg57
(lp402
g384
ag391
ag398
asg21
I0
sg59
S'1384'
p403
sba(iArchitecture
Cluster
p404
(dp405
g7
(lp406
(iArchitecture
Entity
p407
(dp408
g11
(lp409
sg13
S'android.drm.DrmUtils'
p410
sg15
(lp411
sg17
(lp412
sg19
(lp413
sg21
I0
sba(iArchitecture
Entity
p414
(dp415
g11
(lp416
sg13
S'android.drm.DrmUtils$ExtendedMetadataParser'
p417
sg15
(lp418
sg17
(lp419
sg19
(lp420
sg21
I0
sbasg57
(lp421
g410
ag417
asg21
I0
sg59
S'1416'
p422
sba(iArchitecture
Cluster
p423
(dp424
g7
(lp425
(iArchitecture
Entity
p426
(dp427
g11
(lp428
sg13
S'android.drm.DrmSupportInfo'
p429
sg15
(lp430
sg17
(lp431
sg19
(lp432
sg21
I0
sbasg57
(lp433
g429
asg21
I0
sg59
S'204'
p434
sba(iArchitecture
Cluster
p435
(dp436
g7
(lp437
(iArchitecture
Entity
p438
(dp439
g11
(lp440
sg13
S'android.drm.DrmRights'
p441
sg15
(lp442
sg17
(lp443
sg19
(lp444
sg21
I0
sbasg57
(lp445
g441
asg21
I0
sg59
S'393'
p446
sbasg224
g225
sg57
(lp447
sg227
I00
sg59
S'7.0.0_r1'
p448
sba.