(lp0
(iArchitecture
Architecture
p1
(dp2
S'clusters'
p3
(lp4
(iArchitecture
Cluster
p5
(dp6
S'entities'
p7
(lp8
(iArchitecture
Entity
p9
(dp10
S'issue_ids'
p11
(lp12
sS'name'
p13
S'com.android.server.usage.AppIdleHistory'
p14
sS'descs'
p15
(lp16
sS'labels'
p17
(lp18
sS'titles'
p19
(lp20
sS'change'
p21
I0
sbasS'classes'
p22
(lp23
g14
asg21
I0
sS'label'
p24
S'103'
p25
sba(iArchitecture
Cluster
p26
(dp27
g7
(lp28
(iArchitecture
Entity
p29
(dp30
g11
(lp31
sg13
S'com.android.server.usage.UsageStatsXmlV1'
p32
sg15
(lp33
sg17
(lp34
sg19
(lp35
sg21
I0
sbasg22
(lp36
g32
asg21
I0
sg24
S'1212'
p37
sba(iArchitecture
Cluster
p38
(dp39
g7
(lp40
(iArchitecture
Entity
p41
(dp42
g11
(lp43
sg13
S'com.android.server.usage.UsageStatsDatabase'
p44
sg15
(lp45
sg17
(lp46
sg19
(lp47
sg21
I0
sba(iArchitecture
Entity
p48
(dp49
g11
(lp50
sg13
S'com.android.server.usage.UsageStatsDatabase$1'
p51
sg15
(lp52
sg17
(lp53
sg19
(lp54
sg21
I0
sba(iArchitecture
Entity
p55
(dp56
g11
(lp57
sg13
S'com.android.server.usage.UsageStatsDatabase$CheckinAction'
p58
sg15
(lp59
sg17
(lp60
sg19
(lp61
sg21
I0
sba(iArchitecture
Entity
p62
(dp63
g11
(lp64
sg13
S'com.android.server.usage.UsageStatsDatabase$StatCombiner'
p65
sg15
(lp66
sg17
(lp67
sg19
(lp68
sg21
I0
sba(iArchitecture
Entity
p69
(dp70
g11
(lp71
sg13
S'com.android.server.usage.UsageStatsXml'
p72
sg15
(lp73
sg17
(lp74
sg19
(lp75
sg21
I0
sbasg22
(lp76
g44
ag51
ag58
ag65
ag72
asg21
I0
sg24
S'1246'
p77
sba(iArchitecture
Cluster
p78
(dp79
g7
(lp80
(iArchitecture
Entity
p81
(dp82
g11
(lp83
sg13
S'com.android.server.usage.UnixCalendar'
p84
sg15
(lp85
sg17
(lp86
sg19
(lp87
sg21
I0
sbasg22
(lp88
g84
asg21
I0
sg24
S'316'
p89
sba(iArchitecture
Cluster
p90
(dp91
g7
(lp92
(iArchitecture
Entity
p93
(dp94
g11
(lp95
sg13
S'com.android.server.usage.IntervalStats'
p96
sg15
(lp97
sg17
(lp98
sg19
(lp99
sg21
I0
sbasg22
(lp100
g96
asg21
I0
sg24
S'361'
p101
sba(iArchitecture
Cluster
p102
(dp103
g7
(lp104
(iArchitecture
Entity
p105
(dp106
g11
(lp107
sg13
S'com.android.server.usage.UserUsageStatsService'
p108
sg15
(lp109
sg17
(lp110
sg19
(lp111
sg21
I0
sba(iArchitecture
Entity
p112
(dp113
g11
(lp114
sg13
S'com.android.server.usage.UserUsageStatsService$1'
p115
sg15
(lp116
sg17
(lp117
sg19
(lp118
sg21
I0
sba(iArchitecture
Entity
p119
(dp120
g11
(lp121
sg13
S'com.android.server.usage.UserUsageStatsService$2'
p122
sg15
(lp123
sg17
(lp124
sg19
(lp125
sg21
I0
sba(iArchitecture
Entity
p126
(dp127
g11
(lp128
sg13
S'com.android.server.usage.UserUsageStatsService$3'
p129
sg15
(lp130
sg17
(lp131
sg19
(lp132
sg21
I0
sba(iArchitecture
Entity
p133
(dp134
g11
(lp135
sg13
S'com.android.server.usage.UserUsageStatsService$4'
p136
sg15
(lp137
sg17
(lp138
sg19
(lp139
sg21
I0
sba(iArchitecture
Entity
p140
(dp141
g11
(lp142
sg13
S'com.android.server.usage.UserUsageStatsService$StatsUpdatedListener'
p143
sg15
(lp144
sg17
(lp145
sg19
(lp146
sg21
I0
sbasg22
(lp147
g108
ag115
ag122
ag129
ag136
ag143
asg21
I0
sg24
S'952'
p148
sbasS'target_sub'
p149
S'com.android.server.usage'
p150
sg22
(lp151
sS'is_component_arch'
p152
I00
sg24
S'6.0.0_r1'
p153
sba(iArchitecture
Architecture
p154
(dp155
g3
(lp156
(iArchitecture
Cluster
p157
(dp158
g7
(lp159
(iArchitecture
Entity
p160
(dp161
g11
(lp162
sg13
S'com.android.server.usage.UsageStatsXml'
p163
sg15
(lp164
sg17
(lp165
sg19
(lp166
sg21
I0
sbasg22
(lp167
g163
asg21
I0
sg24
S'1383'
p168
sba(iArchitecture
Cluster
p169
(dp170
g7
(lp171
(iArchitecture
Entity
p172
(dp173
g11
(lp174
sg13
S'com.android.server.usage.UsageStatsXmlV1'
p175
sg15
(lp176
sg17
(lp177
sg19
(lp178
sg21
I0
sbasg22
(lp179
g175
asg21
I0
sg24
S'1401'
p180
sba(iArchitecture
Cluster
p181
(dp182
g7
(lp183
(iArchitecture
Entity
p184
(dp185
g11
(lp186
sg13
S'com.android.server.usage.UsageStatsDatabase'
p187
sg15
(lp188
sg17
(lp189
sg19
(lp190
sg21
I0
sba(iArchitecture
Entity
p191
(dp192
g11
(lp193
sg13
S'com.android.server.usage.UsageStatsDatabase$1'
p194
sg15
(lp195
sg17
(lp196
sg19
(lp197
sg21
I0
sba(iArchitecture
Entity
p198
(dp199
g11
(lp200
sg13
S'com.android.server.usage.UsageStatsDatabase$CheckinAction'
p201
sg15
(lp202
sg17
(lp203
sg19
(lp204
sg21
I0
sba(iArchitecture
Entity
p205
(dp206
g11
(lp207
sg13
S'com.android.server.usage.UsageStatsDatabase$StatCombiner'
p208
sg15
(lp209
sg17
(lp210
sg19
(lp211
sg21
I0
sba(iArchitecture
Entity
p212
(dp213
g11
(lp214
sg13
S'com.android.server.usage.UserUsageStatsService'
p215
sg15
(lp216
sg17
(lp217
sg19
(lp218
sg21
I0
sba(iArchitecture
Entity
p219
(dp220
g11
(lp221
sg13
S'com.android.server.usage.UserUsageStatsService$1'
p222
sg15
(lp223
sg17
(lp224
sg19
(lp225
sg21
I0
sba(iArchitecture
Entity
p226
(dp227
g11
(lp228
sg13
S'com.android.server.usage.UserUsageStatsService$2'
p229
sg15
(lp230
sg17
(lp231
sg19
(lp232
sg21
I0
sba(iArchitecture
Entity
p233
(dp234
g11
(lp235
sg13
S'com.android.server.usage.UserUsageStatsService$3'
p236
sg15
(lp237
sg17
(lp238
sg19
(lp239
sg21
I0
sba(iArchitecture
Entity
p240
(dp241
g11
(lp242
sg13
S'com.android.server.usage.UserUsageStatsService$4'
p243
sg15
(lp244
sg17
(lp245
sg19
(lp246
sg21
I0
sba(iArchitecture
Entity
p247
(dp248
g11
(lp249
sg13
S'com.android.server.usage.UserUsageStatsService$StatsUpdatedListener'
p250
sg15
(lp251
sg17
(lp252
sg19
(lp253
sg21
I0
sbasg22
(lp254
g187
ag194
ag201
ag208
ag215
ag222
ag229
ag236
ag243
ag250
asg21
I0
sg24
S'1409'
p255
sba(iArchitecture
Cluster
p256
(dp257
g7
(lp258
(iArchitecture
Entity
p259
(dp260
g11
(lp261
sg13
S'com.android.server.usage.UnixCalendar'
p262
sg15
(lp263
sg17
(lp264
sg19
(lp265
sg21
I0
sbasg22
(lp266
g262
asg21
I0
sg24
S'347'
p267
sba(iArchitecture
Cluster
p268
(dp269
g7
(lp270
(iArchitecture
Entity
p271
(dp272
g11
(lp273
sg13
S'com.android.server.usage.IntervalStats'
p274
sg15
(lp275
sg17
(lp276
sg19
(lp277
sg21
I0
sbasg22
(lp278
g274
asg21
I0
sg24
S'396'
p279
sba(iArchitecture
Cluster
p280
(dp281
g7
(lp282
(iArchitecture
Entity
p283
(dp284
g11
(lp285
sg13
S'com.android.server.usage.AppIdleHistory'
p286
sg15
(lp287
sg17
(lp288
sg19
(lp289
sg21
I0
sba(iArchitecture
Entity
p290
(dp291
g11
(lp292
sg13
S'com.android.server.usage.AppIdleHistory$PackageHistory'
p293
sg15
(lp294
sg17
(lp295
sg19
(lp296
sg21
I0
sbasg22
(lp297
g286
ag293
asg21
I0
sg24
S'578'
p298
sbasg149
g150
sg22
(lp299
sg152
I00
sg24
S'7.0.0_r1'
p300
sba.