(lp0
(iArchitecture
Architecture
p1
(dp2
S'clusters'
p3
(lp4
(iArchitecture
Cluster
p5
(dp6
S'entities'
p7
(lp8
(iArchitecture
Entity
p9
(dp10
S'issue_ids'
p11
(lp12
sS'name'
p13
S'android.text.TextDirectionHeuristics'
p14
sS'descs'
p15
(lp16
sS'labels'
p17
(lp18
sS'titles'
p19
(lp20
sS'change'
p21
I0
sba(iArchitecture
Entity
p22
(dp23
g11
(lp24
sg13
S'android.text.TextDirectionHeuristics$AnyStrong'
p25
sg15
(lp26
sg17
(lp27
sg19
(lp28
sg21
I0
sba(iArchitecture
Entity
p29
(dp30
g11
(lp31
sg13
S'android.text.TextDirectionHeuristics$FirstStrong'
p32
sg15
(lp33
sg17
(lp34
sg19
(lp35
sg21
I0
sba(iArchitecture
Entity
p36
(dp37
g11
(lp38
sg13
S'android.text.TextDirectionHeuristics$TextDirectionAlgorithm'
p39
sg15
(lp40
sg17
(lp41
sg19
(lp42
sg21
I0
sba(iArchitecture
Entity
p43
(dp44
g11
(lp45
sg13
S'android.text.TextDirectionHeuristics$TextDirectionHeuristicImpl'
p46
sg15
(lp47
sg17
(lp48
sg19
(lp49
sg21
I0
sba(iArchitecture
Entity
p50
(dp51
g11
(lp52
sg13
S'android.text.TextDirectionHeuristics$TextDirectionHeuristicInternal'
p53
sg15
(lp54
sg17
(lp55
sg19
(lp56
sg21
I0
sba(iArchitecture
Entity
p57
(dp58
g11
(lp59
sg13
S'android.text.TextDirectionHeuristics$TextDirectionHeuristicLocale'
p60
sg15
(lp61
sg17
(lp62
sg19
(lp63
sg21
I0
sbasS'classes'
p64
(lp65
g14
ag25
ag32
ag39
ag46
ag53
ag60
asg21
I0
sS'label'
p66
S'1004'
p67
sba(iArchitecture
Cluster
p68
(dp69
g7
(lp70
(iArchitecture
Entity
p71
(dp72
g11
(lp73
sg13
S'android.text.style.TtsSpan'
p74
sg15
(lp75
sg17
(lp76
sg19
(lp77
sg21
I0
sba(iArchitecture
Entity
p78
(dp79
g11
(lp80
sg13
S'android.text.style.TtsSpan$Builder'
p81
sg15
(lp82
sg17
(lp83
sg19
(lp84
sg21
I0
sba(iArchitecture
Entity
p85
(dp86
g11
(lp87
sg13
S'android.text.style.TtsSpan$CardinalBuilder'
p88
sg15
(lp89
sg17
(lp90
sg19
(lp91
sg21
I0
sba(iArchitecture
Entity
p92
(dp93
g11
(lp94
sg13
S'android.text.style.TtsSpan$DateBuilder'
p95
sg15
(lp96
sg17
(lp97
sg19
(lp98
sg21
I0
sba(iArchitecture
Entity
p99
(dp100
g11
(lp101
sg13
S'android.text.style.TtsSpan$DecimalBuilder'
p102
sg15
(lp103
sg17
(lp104
sg19
(lp105
sg21
I0
sba(iArchitecture
Entity
p106
(dp107
g11
(lp108
sg13
S'android.text.style.TtsSpan$DigitsBuilder'
p109
sg15
(lp110
sg17
(lp111
sg19
(lp112
sg21
I0
sba(iArchitecture
Entity
p113
(dp114
g11
(lp115
sg13
S'android.text.style.TtsSpan$ElectronicBuilder'
p116
sg15
(lp117
sg17
(lp118
sg19
(lp119
sg21
I0
sba(iArchitecture
Entity
p120
(dp121
g11
(lp122
sg13
S'android.text.style.TtsSpan$FractionBuilder'
p123
sg15
(lp124
sg17
(lp125
sg19
(lp126
sg21
I0
sba(iArchitecture
Entity
p127
(dp128
g11
(lp129
sg13
S'android.text.style.TtsSpan$MeasureBuilder'
p130
sg15
(lp131
sg17
(lp132
sg19
(lp133
sg21
I0
sba(iArchitecture
Entity
p134
(dp135
g11
(lp136
sg13
S'android.text.style.TtsSpan$MoneyBuilder'
p137
sg15
(lp138
sg17
(lp139
sg19
(lp140
sg21
I0
sba(iArchitecture
Entity
p141
(dp142
g11
(lp143
sg13
S'android.text.style.TtsSpan$OrdinalBuilder'
p144
sg15
(lp145
sg17
(lp146
sg19
(lp147
sg21
I0
sba(iArchitecture
Entity
p148
(dp149
g11
(lp150
sg13
S'android.text.style.TtsSpan$SemioticClassBuilder'
p151
sg15
(lp152
sg17
(lp153
sg19
(lp154
sg21
I0
sba(iArchitecture
Entity
p155
(dp156
g11
(lp157
sg13
S'android.text.style.TtsSpan$TelephoneBuilder'
p158
sg15
(lp159
sg17
(lp160
sg19
(lp161
sg21
I0
sba(iArchitecture
Entity
p162
(dp163
g11
(lp164
sg13
S'android.text.style.TtsSpan$TextBuilder'
p165
sg15
(lp166
sg17
(lp167
sg19
(lp168
sg21
I0
sba(iArchitecture
Entity
p169
(dp170
g11
(lp171
sg13
S'android.text.style.TtsSpan$TimeBuilder'
p172
sg15
(lp173
sg17
(lp174
sg19
(lp175
sg21
I0
sba(iArchitecture
Entity
p176
(dp177
g11
(lp178
sg13
S'android.text.style.TtsSpan$VerbatimBuilder'
p179
sg15
(lp180
sg17
(lp181
sg19
(lp182
sg21
I0
sbasg64
(lp183
g74
ag81
ag88
ag95
ag102
ag109
ag116
ag123
ag130
ag137
ag144
ag151
ag158
ag165
ag172
ag179
asg21
I0
sg66
S'1081'
p184
sba(iArchitecture
Cluster
p185
(dp186
g7
(lp187
(iArchitecture
Entity
p188
(dp189
g11
(lp190
sg13
S'android.text.PackedIntVector'
p191
sg15
(lp192
sg17
(lp193
sg19
(lp194
sg21
I0
sba(iArchitecture
Entity
p195
(dp196
g11
(lp197
sg13
S'android.text.PackedObjectVector'
p198
sg15
(lp199
sg17
(lp200
sg19
(lp201
sg21
I0
sbasg64
(lp202
g191
ag198
asg21
I0
sg66
S'1126'
p203
sba(iArchitecture
Cluster
p204
(dp205
g7
(lp206
(iArchitecture
Entity
p207
(dp208
g11
(lp209
sg13
S'android.text.InputType'
p210
sg15
(lp211
sg17
(lp212
sg19
(lp213
sg21
I0
sbasg64
(lp214
g210
asg21
I0
sg66
S'1135'
p215
sba(iArchitecture
Cluster
p216
(dp217
g7
(lp218
(iArchitecture
Entity
p219
(dp220
g11
(lp221
sg13
S'android.text.method.MultiTapKeyListener'
p222
sg15
(lp223
sg17
(lp224
sg19
(lp225
sg21
I0
sba(iArchitecture
Entity
p226
(dp227
g11
(lp228
sg13
S'android.text.method.MultiTapKeyListener$Timeout'
p229
sg15
(lp230
sg17
(lp231
sg19
(lp232
sg21
I0
sba(iArchitecture
Entity
p233
(dp234
g11
(lp235
sg13
S'android.text.method.QwertyKeyListener'
p236
sg15
(lp237
sg17
(lp238
sg19
(lp239
sg21
I0
sba(iArchitecture
Entity
p240
(dp241
g11
(lp242
sg13
S'android.text.method.QwertyKeyListener$Replaced'
p243
sg15
(lp244
sg17
(lp245
sg19
(lp246
sg21
I0
sbasg64
(lp247
g222
ag229
ag236
ag243
asg21
I0
sg66
S'1144'
p248
sba(iArchitecture
Cluster
p249
(dp250
g7
(lp251
(iArchitecture
Entity
p252
(dp253
g11
(lp254
sg13
S'android.text.style.TextAppearanceSpan'
p255
sg15
(lp256
sg17
(lp257
sg19
(lp258
sg21
I0
sbasg64
(lp259
g255
asg21
I0
sg66
S'1207'
p260
sba(iArchitecture
Cluster
p261
(dp262
g7
(lp263
(iArchitecture
Entity
p264
(dp265
g11
(lp266
sg13
S'android.text.Annotation'
p267
sg15
(lp268
sg17
(lp269
sg19
(lp270
sg21
I0
sba(iArchitecture
Entity
p271
(dp272
g11
(lp273
sg13
S'android.text.ClipboardManager'
p274
sg15
(lp275
sg17
(lp276
sg19
(lp277
sg21
I0
sba(iArchitecture
Entity
p278
(dp279
g11
(lp280
sg13
S'android.text.GetChars'
p281
sg15
(lp282
sg17
(lp283
sg19
(lp284
sg21
I0
sba(iArchitecture
Entity
p285
(dp286
g11
(lp287
sg13
S'android.text.NoCopySpan'
p288
sg15
(lp289
sg17
(lp290
sg19
(lp291
sg21
I0
sba(iArchitecture
Entity
p292
(dp293
g11
(lp294
sg13
S'android.text.NoCopySpan$Concrete'
p295
sg15
(lp296
sg17
(lp297
sg19
(lp298
sg21
I0
sba(iArchitecture
Entity
p299
(dp300
g11
(lp301
sg13
S'android.text.ParcelableSpan'
p302
sg15
(lp303
sg17
(lp304
sg19
(lp305
sg21
I0
sba(iArchitecture
Entity
p306
(dp307
g11
(lp308
sg13
S'android.text.Spannable'
p309
sg15
(lp310
sg17
(lp311
sg19
(lp312
sg21
I0
sba(iArchitecture
Entity
p313
(dp314
g11
(lp315
sg13
S'android.text.Spannable$Factory'
p316
sg15
(lp317
sg17
(lp318
sg19
(lp319
sg21
I0
sba(iArchitecture
Entity
p320
(dp321
g11
(lp322
sg13
S'android.text.SpannableString'
p323
sg15
(lp324
sg17
(lp325
sg19
(lp326
sg21
I0
sba(iArchitecture
Entity
p327
(dp328
g11
(lp329
sg13
S'android.text.TextDirectionHeuristic'
p330
sg15
(lp331
sg17
(lp332
sg19
(lp333
sg21
I0
sba(iArchitecture
Entity
p334
(dp335
g11
(lp336
sg13
S'android.text.method.CharacterPickerDialog'
p337
sg15
(lp338
sg17
(lp339
sg19
(lp340
sg21
I0
sba(iArchitecture
Entity
p341
(dp342
g11
(lp343
sg13
S'android.text.method.CharacterPickerDialog$OptionsAdapter'
p344
sg15
(lp345
sg17
(lp346
sg19
(lp347
sg21
I0
sba(iArchitecture
Entity
p348
(dp349
g11
(lp350
sg13
S'android.text.method.HideReturnsTransformationMethod'
p351
sg15
(lp352
sg17
(lp353
sg19
(lp354
sg21
I0
sba(iArchitecture
Entity
p355
(dp356
g11
(lp357
sg13
S'android.text.method.SingleLineTransformationMethod'
p358
sg15
(lp359
sg17
(lp360
sg19
(lp361
sg21
I0
sba(iArchitecture
Entity
p362
(dp363
g11
(lp364
sg13
S'android.text.method.TransformationMethod'
p365
sg15
(lp366
sg17
(lp367
sg19
(lp368
sg21
I0
sba(iArchitecture
Entity
p369
(dp370
g11
(lp371
sg13
S'android.text.method.TransformationMethod2'
p372
sg15
(lp373
sg17
(lp374
sg19
(lp375
sg21
I0
sba(iArchitecture
Entity
p376
(dp377
g11
(lp378
sg13
S'android.text.style.AbsoluteSizeSpan'
p379
sg15
(lp380
sg17
(lp381
sg19
(lp382
sg21
I0
sba(iArchitecture
Entity
p383
(dp384
g11
(lp385
sg13
S'android.text.style.AlignmentSpan'
p386
sg15
(lp387
sg17
(lp388
sg19
(lp389
sg21
I0
sba(iArchitecture
Entity
p390
(dp391
g11
(lp392
sg13
S'android.text.style.AlignmentSpan$Standard'
p393
sg15
(lp394
sg17
(lp395
sg19
(lp396
sg21
I0
sba(iArchitecture
Entity
p397
(dp398
g11
(lp399
sg13
S'android.text.style.BackgroundColorSpan'
p400
sg15
(lp401
sg17
(lp402
sg19
(lp403
sg21
I0
sba(iArchitecture
Entity
p404
(dp405
g11
(lp406
sg13
S'android.text.style.ClickableSpan'
p407
sg15
(lp408
sg17
(lp409
sg19
(lp410
sg21
I0
sba(iArchitecture
Entity
p411
(dp412
g11
(lp413
sg13
S'android.text.style.ForegroundColorSpan'
p414
sg15
(lp415
sg17
(lp416
sg19
(lp417
sg21
I0
sba(iArchitecture
Entity
p418
(dp419
g11
(lp420
sg13
S'android.text.style.LineBackgroundSpan'
p421
sg15
(lp422
sg17
(lp423
sg19
(lp424
sg21
I0
sba(iArchitecture
Entity
p425
(dp426
g11
(lp427
sg13
S'android.text.style.LineHeightSpan'
p428
sg15
(lp429
sg17
(lp430
sg19
(lp431
sg21
I0
sba(iArchitecture
Entity
p432
(dp433
g11
(lp434
sg13
S'android.text.style.LineHeightSpan$WithDensity'
p435
sg15
(lp436
sg17
(lp437
sg19
(lp438
sg21
I0
sba(iArchitecture
Entity
p439
(dp440
g11
(lp441
sg13
S'android.text.style.MaskFilterSpan'
p442
sg15
(lp443
sg17
(lp444
sg19
(lp445
sg21
I0
sba(iArchitecture
Entity
p446
(dp447
g11
(lp448
sg13
S'android.text.style.ParagraphStyle'
p449
sg15
(lp450
sg17
(lp451
sg19
(lp452
sg21
I0
sba(iArchitecture
Entity
p453
(dp454
g11
(lp455
sg13
S'android.text.style.QuoteSpan'
p456
sg15
(lp457
sg17
(lp458
sg19
(lp459
sg21
I0
sba(iArchitecture
Entity
p460
(dp461
g11
(lp462
sg13
S'android.text.style.RelativeSizeSpan'
p463
sg15
(lp464
sg17
(lp465
sg19
(lp466
sg21
I0
sba(iArchitecture
Entity
p467
(dp468
g11
(lp469
sg13
S'android.text.style.ReplacementSpan'
p470
sg15
(lp471
sg17
(lp472
sg19
(lp473
sg21
I0
sba(iArchitecture
Entity
p474
(dp475
g11
(lp476
sg13
S'android.text.style.ScaleXSpan'
p477
sg15
(lp478
sg17
(lp479
sg19
(lp480
sg21
I0
sba(iArchitecture
Entity
p481
(dp482
g11
(lp483
sg13
S'android.text.style.SpellCheckSpan'
p484
sg15
(lp485
sg17
(lp486
sg19
(lp487
sg21
I0
sba(iArchitecture
Entity
p488
(dp489
g11
(lp490
sg13
S'android.text.style.StrikethroughSpan'
p491
sg15
(lp492
sg17
(lp493
sg19
(lp494
sg21
I0
sba(iArchitecture
Entity
p495
(dp496
g11
(lp497
sg13
S'android.text.style.StyleSpan'
p498
sg15
(lp499
sg17
(lp500
sg19
(lp501
sg21
I0
sba(iArchitecture
Entity
p502
(dp503
g11
(lp504
sg13
S'android.text.style.SubscriptSpan'
p505
sg15
(lp506
sg17
(lp507
sg19
(lp508
sg21
I0
sba(iArchitecture
Entity
p509
(dp510
g11
(lp511
sg13
S'android.text.style.SuggestionRangeSpan'
p512
sg15
(lp513
sg17
(lp514
sg19
(lp515
sg21
I0
sba(iArchitecture
Entity
p516
(dp517
g11
(lp518
sg13
S'android.text.style.SuperscriptSpan'
p519
sg15
(lp520
sg17
(lp521
sg19
(lp522
sg21
I0
sba(iArchitecture
Entity
p523
(dp524
g11
(lp525
sg13
S'android.text.style.TypefaceSpan'
p526
sg15
(lp527
sg17
(lp528
sg19
(lp529
sg21
I0
sba(iArchitecture
Entity
p530
(dp531
g11
(lp532
sg13
S'android.text.style.UnderlineSpan'
p533
sg15
(lp534
sg17
(lp535
sg19
(lp536
sg21
I0
sba(iArchitecture
Entity
p537
(dp538
g11
(lp539
sg13
S'android.text.style.UpdateAppearance'
p540
sg15
(lp541
sg17
(lp542
sg19
(lp543
sg21
I0
sba(iArchitecture
Entity
p544
(dp545
g11
(lp546
sg13
S'android.text.style.UpdateLayout'
p547
sg15
(lp548
sg17
(lp549
sg19
(lp550
sg21
I0
sba(iArchitecture
Entity
p551
(dp552
g11
(lp553
sg13
S'android.text.style.WrapTogetherSpan'
p554
sg15
(lp555
sg17
(lp556
sg19
(lp557
sg21
I0
sbasg64
(lp558
g267
ag274
ag281
ag288
ag295
ag302
ag309
ag316
ag323
ag330
ag337
ag344
ag351
ag358
ag365
ag372
ag379
ag386
ag393
ag400
ag407
ag414
ag421
ag428
ag435
ag442
ag449
ag456
ag463
ag470
ag477
ag484
ag491
ag498
ag505
ag512
ag519
ag526
ag533
ag540
ag547
ag554
asg21
I0
sg66
S'1223'
p559
sba(iArchitecture
Cluster
p560
(dp561
g7
(lp562
(iArchitecture
Entity
p563
(dp564
g11
(lp565
sg13
S'android.text.GraphicsOperations'
p566
sg15
(lp567
sg17
(lp568
sg19
(lp569
sg21
I0
sba(iArchitecture
Entity
p570
(dp571
g11
(lp572
sg13
S'android.text.InputFilter'
p573
sg15
(lp574
sg17
(lp575
sg19
(lp576
sg21
I0
sba(iArchitecture
Entity
p577
(dp578
g11
(lp579
sg13
S'android.text.InputFilter$AllCaps'
p580
sg15
(lp581
sg17
(lp582
sg19
(lp583
sg21
I0
sba(iArchitecture
Entity
p584
(dp585
g11
(lp586
sg13
S'android.text.InputFilter$LengthFilter'
p587
sg15
(lp588
sg17
(lp589
sg19
(lp590
sg21
I0
sba(iArchitecture
Entity
p591
(dp592
g11
(lp593
sg13
S'android.text.LoginFilter'
p594
sg15
(lp595
sg17
(lp596
sg19
(lp597
sg21
I0
sba(iArchitecture
Entity
p598
(dp599
g11
(lp600
sg13
S'android.text.LoginFilter$PasswordFilterGMail'
p601
sg15
(lp602
sg17
(lp603
sg19
(lp604
sg21
I0
sba(iArchitecture
Entity
p605
(dp606
g11
(lp607
sg13
S'android.text.LoginFilter$UsernameFilterGMail'
p608
sg15
(lp609
sg17
(lp610
sg19
(lp611
sg21
I0
sba(iArchitecture
Entity
p612
(dp613
g11
(lp614
sg13
S'android.text.LoginFilter$UsernameFilterGeneric'
p615
sg15
(lp616
sg17
(lp617
sg19
(lp618
sg21
I0
sba(iArchitecture
Entity
p619
(dp620
g11
(lp621
sg13
S'android.text.SpanWatcher'
p622
sg15
(lp623
sg17
(lp624
sg19
(lp625
sg21
I0
sba(iArchitecture
Entity
p626
(dp627
g11
(lp628
sg13
S'android.text.SpannedString'
p629
sg15
(lp630
sg17
(lp631
sg19
(lp632
sg21
I0
sba(iArchitecture
Entity
p633
(dp634
g11
(lp635
sg13
S'android.text.TextWatcher'
p636
sg15
(lp637
sg17
(lp638
sg19
(lp639
sg21
I0
sba(iArchitecture
Entity
p640
(dp641
g11
(lp642
sg13
S'android.text.style.CharacterStyle'
p643
sg15
(lp644
sg17
(lp645
sg19
(lp646
sg21
I0
sba(iArchitecture
Entity
p647
(dp648
g11
(lp649
sg13
S'android.text.style.CharacterStyle$Passthrough'
p650
sg15
(lp651
sg17
(lp652
sg19
(lp653
sg21
I0
sba(iArchitecture
Entity
p654
(dp655
g11
(lp656
sg13
S'android.text.style.DrawableMarginSpan'
p657
sg15
(lp658
sg17
(lp659
sg19
(lp660
sg21
I0
sba(iArchitecture
Entity
p661
(dp662
g11
(lp663
sg13
S'android.text.style.DynamicDrawableSpan'
p664
sg15
(lp665
sg17
(lp666
sg19
(lp667
sg21
I0
sba(iArchitecture
Entity
p668
(dp669
g11
(lp670
sg13
S'android.text.style.IconMarginSpan'
p671
sg15
(lp672
sg17
(lp673
sg19
(lp674
sg21
I0
sba(iArchitecture
Entity
p675
(dp676
g11
(lp677
sg13
S'android.text.style.MetricAffectingSpan'
p678
sg15
(lp679
sg17
(lp680
sg19
(lp681
sg21
I0
sba(iArchitecture
Entity
p682
(dp683
g11
(lp684
sg13
S'android.text.style.MetricAffectingSpan$Passthrough'
p685
sg15
(lp686
sg17
(lp687
sg19
(lp688
sg21
I0
sba(iArchitecture
Entity
p689
(dp690
g11
(lp691
sg13
S'android.text.style.RasterizerSpan'
p692
sg15
(lp693
sg17
(lp694
sg19
(lp695
sg21
I0
sbasg64
(lp696
g566
ag573
ag580
ag587
ag594
ag601
ag608
ag615
ag622
ag629
ag636
ag643
ag650
ag657
ag664
ag671
ag678
ag685
ag692
asg21
I0
sg66
S'1237'
p697
sba(iArchitecture
Cluster
p698
(dp699
g7
(lp700
(iArchitecture
Entity
p701
(dp702
g11
(lp703
sg13
S'android.text.Editable'
p704
sg15
(lp705
sg17
(lp706
sg19
(lp707
sg21
I0
sba(iArchitecture
Entity
p708
(dp709
g11
(lp710
sg13
S'android.text.Editable$Factory'
p711
sg15
(lp712
sg17
(lp713
sg19
(lp714
sg21
I0
sba(iArchitecture
Entity
p715
(dp716
g11
(lp717
sg13
S'android.text.Spanned'
p718
sg15
(lp719
sg17
(lp720
sg19
(lp721
sg21
I0
sba(iArchitecture
Entity
p722
(dp723
g11
(lp724
sg13
S'android.text.method.AllCapsTransformationMethod'
p725
sg15
(lp726
sg17
(lp727
sg19
(lp728
sg21
I0
sba(iArchitecture
Entity
p729
(dp730
g11
(lp731
sg13
S'android.text.method.DateKeyListener'
p732
sg15
(lp733
sg17
(lp734
sg19
(lp735
sg21
I0
sba(iArchitecture
Entity
p736
(dp737
g11
(lp738
sg13
S'android.text.method.DateTimeKeyListener'
p739
sg15
(lp740
sg17
(lp741
sg19
(lp742
sg21
I0
sba(iArchitecture
Entity
p743
(dp744
g11
(lp745
sg13
S'android.text.method.DialerKeyListener'
p746
sg15
(lp747
sg17
(lp748
sg19
(lp749
sg21
I0
sba(iArchitecture
Entity
p750
(dp751
g11
(lp752
sg13
S'android.text.method.KeyListener'
p753
sg15
(lp754
sg17
(lp755
sg19
(lp756
sg21
I0
sba(iArchitecture
Entity
p757
(dp758
g11
(lp759
sg13
S'android.text.method.LinkMovementMethod'
p760
sg15
(lp761
sg17
(lp762
sg19
(lp763
sg21
I0
sba(iArchitecture
Entity
p764
(dp765
g11
(lp766
sg13
S'android.text.method.MovementMethod'
p767
sg15
(lp768
sg17
(lp769
sg19
(lp770
sg21
I0
sba(iArchitecture
Entity
p771
(dp772
g11
(lp773
sg13
S'android.text.method.NumberKeyListener'
p774
sg15
(lp775
sg17
(lp776
sg19
(lp777
sg21
I0
sba(iArchitecture
Entity
p778
(dp779
g11
(lp780
sg13
S'android.text.method.PasswordTransformationMethod'
p781
sg15
(lp782
sg17
(lp783
sg19
(lp784
sg21
I0
sba(iArchitecture
Entity
p785
(dp786
g11
(lp787
sg13
S'android.text.method.PasswordTransformationMethod$PasswordCharSequence'
p788
sg15
(lp789
sg17
(lp790
sg19
(lp791
sg21
I0
sba(iArchitecture
Entity
p792
(dp793
g11
(lp794
sg13
S'android.text.method.PasswordTransformationMethod$ViewReference'
p795
sg15
(lp796
sg17
(lp797
sg19
(lp798
sg21
I0
sba(iArchitecture
Entity
p799
(dp800
g11
(lp801
sg13
S'android.text.method.PasswordTransformationMethod$Visible'
p802
sg15
(lp803
sg17
(lp804
sg19
(lp805
sg21
I0
sba(iArchitecture
Entity
p806
(dp807
g11
(lp808
sg13
S'android.text.method.ScrollingMovementMethod'
p809
sg15
(lp810
sg17
(lp811
sg19
(lp812
sg21
I0
sba(iArchitecture
Entity
p813
(dp814
g11
(lp815
sg13
S'android.text.method.TimeKeyListener'
p816
sg15
(lp817
sg17
(lp818
sg19
(lp819
sg21
I0
sba(iArchitecture
Entity
p820
(dp821
g11
(lp822
sg13
S'android.text.style.TabStopSpan'
p823
sg15
(lp824
sg17
(lp825
sg19
(lp826
sg21
I0
sba(iArchitecture
Entity
p827
(dp828
g11
(lp829
sg13
S'android.text.style.TabStopSpan$Standard'
p830
sg15
(lp831
sg17
(lp832
sg19
(lp833
sg21
I0
sba(iArchitecture
Entity
p834
(dp835
g11
(lp836
sg13
S'android.text.style.URLSpan'
p837
sg15
(lp838
sg17
(lp839
sg19
(lp840
sg21
I0
sba(iArchitecture
Entity
p841
(dp842
g11
(lp843
sg13
S'android.text.util.Rfc822Tokenizer'
p844
sg15
(lp845
sg17
(lp846
sg19
(lp847
sg21
I0
sbasg64
(lp848
g704
ag711
ag718
ag725
ag732
ag739
ag746
ag753
ag760
ag767
ag774
ag781
ag788
ag795
ag802
ag809
ag816
ag823
ag830
ag837
ag844
asg21
I0
sg66
S'1246'
p849
sba(iArchitecture
Cluster
p850
(dp851
g7
(lp852
(iArchitecture
Entity
p853
(dp854
g11
(lp855
sg13
S'android.text.AlteredCharSequence'
p856
sg15
(lp857
sg17
(lp858
sg19
(lp859
sg21
I0
sba(iArchitecture
Entity
p860
(dp861
g11
(lp862
sg13
S'android.text.AlteredCharSequence$AlteredSpanned'
p863
sg15
(lp864
sg17
(lp865
sg19
(lp866
sg21
I0
sbasg64
(lp867
g856
ag863
asg21
I0
sg66
S'1252'
p868
sba(iArchitecture
Cluster
p869
(dp870
g7
(lp871
(iArchitecture
Entity
p872
(dp873
g11
(lp874
sg13
S'android.text.Selection'
p875
sg15
(lp876
sg17
(lp877
sg19
(lp878
sg21
I0
sba(iArchitecture
Entity
p879
(dp880
g11
(lp881
sg13
S'android.text.Selection$END'
p882
sg15
(lp883
sg17
(lp884
sg19
(lp885
sg21
I0
sba(iArchitecture
Entity
p886
(dp887
g11
(lp888
sg13
S'android.text.Selection$PositionIterator'
p889
sg15
(lp890
sg17
(lp891
sg19
(lp892
sg21
I0
sba(iArchitecture
Entity
p893
(dp894
g11
(lp895
sg13
S'android.text.Selection$START'
p896
sg15
(lp897
sg17
(lp898
sg19
(lp899
sg21
I0
sba(iArchitecture
Entity
p900
(dp901
g11
(lp902
sg13
S'android.text.method.ArrowKeyMovementMethod'
p903
sg15
(lp904
sg17
(lp905
sg19
(lp906
sg21
I0
sba(iArchitecture
Entity
p907
(dp908
g11
(lp909
sg13
S'android.text.method.BaseMovementMethod'
p910
sg15
(lp911
sg17
(lp912
sg19
(lp913
sg21
I0
sba(iArchitecture
Entity
p914
(dp915
g11
(lp916
sg13
S'android.text.method.MetaKeyKeyListener'
p917
sg15
(lp918
sg17
(lp919
sg19
(lp920
sg21
I0
sba(iArchitecture
Entity
p921
(dp922
g11
(lp923
sg13
S'android.text.method.Touch'
p924
sg15
(lp925
sg17
(lp926
sg19
(lp927
sg21
I0
sba(iArchitecture
Entity
p928
(dp929
g11
(lp930
sg13
S'android.text.method.Touch$DragState'
p931
sg15
(lp932
sg17
(lp933
sg19
(lp934
sg21
I0
sbasg64
(lp935
g875
ag882
ag889
ag896
ag903
ag910
ag917
ag924
ag931
asg21
I0
sg66
S'1261'
p936
sba(iArchitecture
Cluster
p937
(dp938
g7
(lp939
(iArchitecture
Entity
p940
(dp941
g11
(lp942
sg13
S'android.text.format.DateUtils'
p943
sg15
(lp944
sg17
(lp945
sg19
(lp946
sg21
I0
sbasg64
(lp947
g943
asg21
I0
sg66
S'148'
p948
sba(iArchitecture
Cluster
p949
(dp950
g7
(lp951
(iArchitecture
Entity
p952
(dp953
g11
(lp954
sg13
S'android.text.style.BulletSpan'
p955
sg15
(lp956
sg17
(lp957
sg19
(lp958
sg21
I0
sbasg64
(lp959
g955
asg21
I0
sg66
S'154'
p960
sba(iArchitecture
Cluster
p961
(dp962
g7
(lp963
(iArchitecture
Entity
p964
(dp965
g11
(lp966
sg13
S'android.text.TextPaint'
p967
sg15
(lp968
sg17
(lp969
sg19
(lp970
sg21
I0
sbasg64
(lp971
g967
asg21
I0
sg66
S'184'
p972
sba(iArchitecture
Cluster
p973
(dp974
g7
(lp975
(iArchitecture
Entity
p976
(dp977
g11
(lp978
sg13
S'android.text.Hyphenator'
p979
sg15
(lp980
sg17
(lp981
sg19
(lp982
sg21
I0
sbasg64
(lp983
g979
asg21
I0
sg66
S'186'
p984
sba(iArchitecture
Cluster
p985
(dp986
g7
(lp987
(iArchitecture
Entity
p988
(dp989
g11
(lp990
sg13
S'android.text.SpanSet'
p991
sg15
(lp992
sg17
(lp993
sg19
(lp994
sg21
I0
sbasg64
(lp995
g991
asg21
I0
sg66
S'243'
p996
sba(iArchitecture
Cluster
p997
(dp998
g7
(lp999
(iArchitecture
Entity
p1000
(dp1001
g11
(lp1002
sg13
S'android.text.AutoText'
p1003
sg15
(lp1004
sg17
(lp1005
sg19
(lp1006
sg21
I0
sbasg64
(lp1007
g1003
asg21
I0
sg66
S'251'
p1008
sba(iArchitecture
Cluster
p1009
(dp1010
g7
(lp1011
(iArchitecture
Entity
p1012
(dp1013
g11
(lp1014
sg13
S'android.text.AndroidCharacter'
p1015
sg15
(lp1016
sg17
(lp1017
sg19
(lp1018
sg21
I0
sbasg64
(lp1019
g1015
asg21
I0
sg66
S'257'
p1020
sba(iArchitecture
Cluster
p1021
(dp1022
g7
(lp1023
(iArchitecture
Entity
p1024
(dp1025
g11
(lp1026
sg13
S'android.text.style.ImageSpan'
p1027
sg15
(lp1028
sg17
(lp1029
sg19
(lp1030
sg21
I0
sbasg64
(lp1031
g1027
asg21
I0
sg66
S'264'
p1032
sba(iArchitecture
Cluster
p1033
(dp1034
g7
(lp1035
(iArchitecture
Entity
p1036
(dp1037
g11
(lp1038
sg13
S'android.text.method.DigitsKeyListener'
p1039
sg15
(lp1040
sg17
(lp1041
sg19
(lp1042
sg21
I0
sbasg64
(lp1043
g1039
asg21
I0
sg66
S'303'
p1044
sba(iArchitecture
Cluster
p1045
(dp1046
g7
(lp1047
(iArchitecture
Entity
p1048
(dp1049
g11
(lp1050
sg13
S'android.text.MeasuredText'
p1051
sg15
(lp1052
sg17
(lp1053
sg19
(lp1054
sg21
I0
sbasg64
(lp1055
g1051
asg21
I0
sg66
S'31'
p1056
sba(iArchitecture
Cluster
p1057
(dp1058
g7
(lp1059
(iArchitecture
Entity
p1060
(dp1061
g11
(lp1062
sg13
S'android.text.AndroidBidi'
p1063
sg15
(lp1064
sg17
(lp1065
sg19
(lp1066
sg21
I0
sbasg64
(lp1067
g1063
asg21
I0
sg66
S'323'
p1068
sba(iArchitecture
Cluster
p1069
(dp1070
g7
(lp1071
(iArchitecture
Entity
p1072
(dp1073
g11
(lp1074
sg13
S'android.text.format.TimeFormatter'
p1075
sg15
(lp1076
sg17
(lp1077
sg19
(lp1078
sg21
I0
sbasg64
(lp1079
g1075
asg21
I0
sg66
S'355'
p1080
sba(iArchitecture
Cluster
p1081
(dp1082
g7
(lp1083
(iArchitecture
Entity
p1084
(dp1085
g11
(lp1086
sg13
S'android.text.method.WordIterator'
p1087
sg15
(lp1088
sg17
(lp1089
sg19
(lp1090
sg21
I0
sbasg64
(lp1091
g1087
asg21
I0
sg66
S'372'
p1092
sba(iArchitecture
Cluster
p1093
(dp1094
g7
(lp1095
(iArchitecture
Entity
p1096
(dp1097
g11
(lp1098
sg13
S'android.text.util.Rfc822Token'
p1099
sg15
(lp1100
sg17
(lp1101
sg19
(lp1102
sg21
I0
sbasg64
(lp1103
g1099
asg21
I0
sg66
S'376'
p1104
sba(iArchitecture
Cluster
p1105
(dp1106
g7
(lp1107
(iArchitecture
Entity
p1108
(dp1109
g11
(lp1110
sg13
S'android.text.TextLine'
p1111
sg15
(lp1112
sg17
(lp1113
sg19
(lp1114
sg21
I0
sbasg64
(lp1115
g1111
asg21
I0
sg66
S'412'
p1116
sba(iArchitecture
Cluster
p1117
(dp1118
g7
(lp1119
(iArchitecture
Entity
p1120
(dp1121
g11
(lp1122
sg13
S'android.text.format.DateFormat'
p1123
sg15
(lp1124
sg17
(lp1125
sg19
(lp1126
sg21
I0
sbasg64
(lp1127
g1123
asg21
I0
sg66
S'413'
p1128
sba(iArchitecture
Cluster
p1129
(dp1130
g7
(lp1131
(iArchitecture
Entity
p1132
(dp1133
g11
(lp1134
sg13
S'android.text.style.EasyEditSpan'
p1135
sg15
(lp1136
sg17
(lp1137
sg19
(lp1138
sg21
I0
sbasg64
(lp1139
g1135
asg21
I0
sg66
S'426'
p1140
sba(iArchitecture
Cluster
p1141
(dp1142
g7
(lp1143
(iArchitecture
Entity
p1144
(dp1145
g11
(lp1146
sg13
S'android.text.format.Formatter'
p1147
sg15
(lp1148
sg17
(lp1149
sg19
(lp1150
sg21
I0
sba(iArchitecture
Entity
p1151
(dp1152
g11
(lp1153
sg13
S'android.text.format.Formatter$BytesResult'
p1154
sg15
(lp1155
sg17
(lp1156
sg19
(lp1157
sg21
I0
sbasg64
(lp1158
g1147
ag1154
asg21
I0
sg66
S'456'
p1159
sba(iArchitecture
Cluster
p1160
(dp1161
g7
(lp1162
(iArchitecture
Entity
p1163
(dp1164
g11
(lp1165
sg13
S'android.text.style.SuggestionSpan'
p1166
sg15
(lp1167
sg17
(lp1168
sg19
(lp1169
sg21
I0
sba(iArchitecture
Entity
p1170
(dp1171
g11
(lp1172
sg13
S'android.text.style.SuggestionSpan$1'
p1173
sg15
(lp1174
sg17
(lp1175
sg19
(lp1176
sg21
I0
sbasg64
(lp1177
g1166
ag1173
asg21
I0
sg66
S'666'
p1178
sba(iArchitecture
Cluster
p1179
(dp1180
g7
(lp1181
(iArchitecture
Entity
p1182
(dp1183
g11
(lp1184
sg13
S'android.text.SpannableStringBuilder'
p1185
sg15
(lp1186
sg17
(lp1187
sg19
(lp1188
sg21
I0
sbasg64
(lp1189
g1185
asg21
I0
sg66
S'67'
p1190
sba(iArchitecture
Cluster
p1191
(dp1192
g7
(lp1193
(iArchitecture
Entity
p1194
(dp1195
g11
(lp1196
sg13
S'android.text.DynamicLayout'
p1197
sg15
(lp1198
sg17
(lp1199
sg19
(lp1200
sg21
I0
sba(iArchitecture
Entity
p1201
(dp1202
g11
(lp1203
sg13
S'android.text.DynamicLayout$ChangeWatcher'
p1204
sg15
(lp1205
sg17
(lp1206
sg19
(lp1207
sg21
I0
sbasg64
(lp1208
g1197
ag1204
asg21
I0
sg66
S'684'
p1209
sba(iArchitecture
Cluster
p1210
(dp1211
g7
(lp1212
(iArchitecture
Entity
p1213
(dp1214
g11
(lp1215
sg13
S'android.text.format.Time'
p1216
sg15
(lp1217
sg17
(lp1218
sg19
(lp1219
sg21
I0
sba(iArchitecture
Entity
p1220
(dp1221
g11
(lp1222
sg13
S'android.text.format.Time$TimeCalculator'
p1223
sg15
(lp1224
sg17
(lp1225
sg19
(lp1226
sg21
I0
sbasg64
(lp1227
g1216
ag1223
asg21
I0
sg66
S'692'
p1228
sba(iArchitecture
Cluster
p1229
(dp1230
g7
(lp1231
(iArchitecture
Entity
p1232
(dp1233
g11
(lp1234
sg13
S'android.text.BidiFormatter'
p1235
sg15
(lp1236
sg17
(lp1237
sg19
(lp1238
sg21
I0
sba(iArchitecture
Entity
p1239
(dp1240
g11
(lp1241
sg13
S'android.text.BidiFormatter$Builder'
p1242
sg15
(lp1243
sg17
(lp1244
sg19
(lp1245
sg21
I0
sba(iArchitecture
Entity
p1246
(dp1247
g11
(lp1248
sg13
S'android.text.BidiFormatter$DirectionalityEstimator'
p1249
sg15
(lp1250
sg17
(lp1251
sg19
(lp1252
sg21
I0
sbasg64
(lp1253
g1235
ag1242
ag1249
asg21
I0
sg66
S'793'
p1254
sba(iArchitecture
Cluster
p1255
(dp1256
g7
(lp1257
(iArchitecture
Entity
p1258
(dp1259
g11
(lp1260
sg13
S'android.text.style.LeadingMarginSpan'
p1261
sg15
(lp1262
sg17
(lp1263
sg19
(lp1264
sg21
I0
sba(iArchitecture
Entity
p1265
(dp1266
g11
(lp1267
sg13
S'android.text.style.LeadingMarginSpan$LeadingMarginSpan2'
p1268
sg15
(lp1269
sg17
(lp1270
sg19
(lp1271
sg21
I0
sba(iArchitecture
Entity
p1272
(dp1273
g11
(lp1274
sg13
S'android.text.style.LeadingMarginSpan$Standard'
p1275
sg15
(lp1276
sg17
(lp1277
sg19
(lp1278
sg21
I0
sbasg64
(lp1279
g1261
ag1268
ag1275
asg21
I0
sg66
S'839'
p1280
sba(iArchitecture
Cluster
p1281
(dp1282
g7
(lp1283
(iArchitecture
Entity
p1284
(dp1285
g11
(lp1286
sg13
S'android.text.Html'
p1287
sg15
(lp1288
sg17
(lp1289
sg19
(lp1290
sg21
I0
sba(iArchitecture
Entity
p1291
(dp1292
g11
(lp1293
sg13
S'android.text.Html$HtmlParser'
p1294
sg15
(lp1295
sg17
(lp1296
sg19
(lp1297
sg21
I0
sba(iArchitecture
Entity
p1298
(dp1299
g11
(lp1300
sg13
S'android.text.Html$ImageGetter'
p1301
sg15
(lp1302
sg17
(lp1303
sg19
(lp1304
sg21
I0
sba(iArchitecture
Entity
p1305
(dp1306
g11
(lp1307
sg13
S'android.text.Html$TagHandler'
p1308
sg15
(lp1309
sg17
(lp1310
sg19
(lp1311
sg21
I0
sbasg64
(lp1312
g1287
ag1294
ag1301
ag1308
asg21
I0
sg66
S'851'
p1313
sba(iArchitecture
Cluster
p1314
(dp1315
g7
(lp1316
(iArchitecture
Entity
p1317
(dp1318
g11
(lp1319
sg13
S'android.text.style.LocaleSpan'
p1320
sg15
(lp1321
sg17
(lp1322
sg19
(lp1323
sg21
I0
sbasg64
(lp1324
g1320
asg21
I0
sg66
S'89'
p1325
sba(iArchitecture
Cluster
p1326
(dp1327
g7
(lp1328
(iArchitecture
Entity
p1329
(dp1330
g11
(lp1331
sg13
S'android.text.method.ReplacementTransformationMethod'
p1332
sg15
(lp1333
sg17
(lp1334
sg19
(lp1335
sg21
I0
sba(iArchitecture
Entity
p1336
(dp1337
g11
(lp1338
sg13
S'android.text.method.ReplacementTransformationMethod$ReplacementCharSequence'
p1339
sg15
(lp1340
sg17
(lp1341
sg19
(lp1342
sg21
I0
sba(iArchitecture
Entity
p1343
(dp1344
g11
(lp1345
sg13
S'android.text.method.ReplacementTransformationMethod$SpannedReplacementCharSequence'
p1346
sg15
(lp1347
sg17
(lp1348
sg19
(lp1349
sg21
I0
sbasg64
(lp1350
g1332
ag1339
ag1346
asg21
I0
sg66
S'911'
p1351
sba(iArchitecture
Cluster
p1352
(dp1353
g7
(lp1354
(iArchitecture
Entity
p1355
(dp1356
g11
(lp1357
sg13
S'android.text.util.Linkify'
p1358
sg15
(lp1359
sg17
(lp1360
sg19
(lp1361
sg21
I0
sba(iArchitecture
Entity
p1362
(dp1363
g11
(lp1364
sg13
S'android.text.util.Linkify$1'
p1365
sg15
(lp1366
sg17
(lp1367
sg19
(lp1368
sg21
I0
sba(iArchitecture
Entity
p1369
(dp1370
g11
(lp1371
sg13
S'android.text.util.Linkify$2'
p1372
sg15
(lp1373
sg17
(lp1374
sg19
(lp1375
sg21
I0
sba(iArchitecture
Entity
p1376
(dp1377
g11
(lp1378
sg13
S'android.text.util.Linkify$3'
p1379
sg15
(lp1380
sg17
(lp1381
sg19
(lp1382
sg21
I0
sba(iArchitecture
Entity
p1383
(dp1384
g11
(lp1385
sg13
S'android.text.util.Linkify$4'
p1386
sg15
(lp1387
sg17
(lp1388
sg19
(lp1389
sg21
I0
sba(iArchitecture
Entity
p1390
(dp1391
g11
(lp1392
sg13
S'android.text.util.Linkify$MatchFilter'
p1393
sg15
(lp1394
sg17
(lp1395
sg19
(lp1396
sg21
I0
sba(iArchitecture
Entity
p1397
(dp1398
g11
(lp1399
sg13
S'android.text.util.Linkify$TransformFilter'
p1400
sg15
(lp1401
sg17
(lp1402
sg19
(lp1403
sg21
I0
sbasg64
(lp1404
g1358
ag1365
ag1372
ag1379
ag1386
ag1393
ag1400
asg21
I0
sg66
S'974'
p1405
sbasS'target_sub'
p1406
S'android.text'
p1407
sg64
(lp1408
sS'is_component_arch'
p1409
I00
sg66
S'6.0.0_r1'
p1410
sba(iArchitecture
Architecture
p1411
(dp1412
g3
(lp1413
(iArchitecture
Cluster
p1414
(dp1415
g7
(lp1416
(iArchitecture
Entity
p1417
(dp1418
g11
(lp1419
sg13
S'android.text.style.LocaleSpan'
p1420
sg15
(lp1421
sg17
(lp1422
sg19
(lp1423
sg21
I0
sbasg64
(lp1424
g1420
asg21
I0
sg66
S'101'
p1425
sba(iArchitecture
Cluster
p1426
(dp1427
g7
(lp1428
(iArchitecture
Entity
p1429
(dp1430
g11
(lp1431
sg13
S'android.text.method.ReplacementTransformationMethod'
p1432
sg15
(lp1433
sg17
(lp1434
sg19
(lp1435
sg21
I0
sba(iArchitecture
Entity
p1436
(dp1437
g11
(lp1438
sg13
S'android.text.method.ReplacementTransformationMethod$ReplacementCharSequence'
p1439
sg15
(lp1440
sg17
(lp1441
sg19
(lp1442
sg21
I0
sba(iArchitecture
Entity
p1443
(dp1444
g11
(lp1445
sg13
S'android.text.method.ReplacementTransformationMethod$SpannedReplacementCharSequence'
p1446
sg15
(lp1447
sg17
(lp1448
sg19
(lp1449
sg21
I0
sbasg64
(lp1450
g1432
ag1439
ag1446
asg21
I0
sg66
S'1028'
p1451
sba(iArchitecture
Cluster
p1452
(dp1453
g7
(lp1454
(iArchitecture
Entity
p1455
(dp1456
g11
(lp1457
sg13
S'android.text.util.Linkify'
p1458
sg15
(lp1459
sg17
(lp1460
sg19
(lp1461
sg21
I0
sba(iArchitecture
Entity
p1462
(dp1463
g11
(lp1464
sg13
S'android.text.util.Linkify$1'
p1465
sg15
(lp1466
sg17
(lp1467
sg19
(lp1468
sg21
I0
sba(iArchitecture
Entity
p1469
(dp1470
g11
(lp1471
sg13
S'android.text.util.Linkify$2'
p1472
sg15
(lp1473
sg17
(lp1474
sg19
(lp1475
sg21
I0
sba(iArchitecture
Entity
p1476
(dp1477
g11
(lp1478
sg13
S'android.text.util.Linkify$3'
p1479
sg15
(lp1480
sg17
(lp1481
sg19
(lp1482
sg21
I0
sba(iArchitecture
Entity
p1483
(dp1484
g11
(lp1485
sg13
S'android.text.util.Linkify$4'
p1486
sg15
(lp1487
sg17
(lp1488
sg19
(lp1489
sg21
I0
sba(iArchitecture
Entity
p1490
(dp1491
g11
(lp1492
sg13
S'android.text.util.Linkify$MatchFilter'
p1493
sg15
(lp1494
sg17
(lp1495
sg19
(lp1496
sg21
I0
sba(iArchitecture
Entity
p1497
(dp1498
g11
(lp1499
sg13
S'android.text.util.Linkify$TransformFilter'
p1500
sg15
(lp1501
sg17
(lp1502
sg19
(lp1503
sg21
I0
sbasg64
(lp1504
g1458
ag1465
ag1472
ag1479
ag1486
ag1493
ag1500
asg21
I0
sg66
S'1100'
p1505
sba(iArchitecture
Cluster
p1506
(dp1507
g7
(lp1508
(iArchitecture
Entity
p1509
(dp1510
g11
(lp1511
sg13
S'android.text.TextDirectionHeuristics'
p1512
sg15
(lp1513
sg17
(lp1514
sg19
(lp1515
sg21
I0
sba(iArchitecture
Entity
p1516
(dp1517
g11
(lp1518
sg13
S'android.text.TextDirectionHeuristics$AnyStrong'
p1519
sg15
(lp1520
sg17
(lp1521
sg19
(lp1522
sg21
I0
sba(iArchitecture
Entity
p1523
(dp1524
g11
(lp1525
sg13
S'android.text.TextDirectionHeuristics$FirstStrong'
p1526
sg15
(lp1527
sg17
(lp1528
sg19
(lp1529
sg21
I0
sba(iArchitecture
Entity
p1530
(dp1531
g11
(lp1532
sg13
S'android.text.TextDirectionHeuristics$TextDirectionAlgorithm'
p1533
sg15
(lp1534
sg17
(lp1535
sg19
(lp1536
sg21
I0
sba(iArchitecture
Entity
p1537
(dp1538
g11
(lp1539
sg13
S'android.text.TextDirectionHeuristics$TextDirectionHeuristicImpl'
p1540
sg15
(lp1541
sg17
(lp1542
sg19
(lp1543
sg21
I0
sba(iArchitecture
Entity
p1544
(dp1545
g11
(lp1546
sg13
S'android.text.TextDirectionHeuristics$TextDirectionHeuristicInternal'
p1547
sg15
(lp1548
sg17
(lp1549
sg19
(lp1550
sg21
I0
sba(iArchitecture
Entity
p1551
(dp1552
g11
(lp1553
sg13
S'android.text.TextDirectionHeuristics$TextDirectionHeuristicLocale'
p1554
sg15
(lp1555
sg17
(lp1556
sg19
(lp1557
sg21
I0
sbasg64
(lp1558
g1512
ag1519
ag1526
ag1533
ag1540
ag1547
ag1554
asg21
I0
sg66
S'1130'
p1559
sba(iArchitecture
Cluster
p1560
(dp1561
g7
(lp1562
(iArchitecture
Entity
p1563
(dp1564
g11
(lp1565
sg13
S'android.text.style.TtsSpan'
p1566
sg15
(lp1567
sg17
(lp1568
sg19
(lp1569
sg21
I0
sba(iArchitecture
Entity
p1570
(dp1571
g11
(lp1572
sg13
S'android.text.style.TtsSpan$Builder'
p1573
sg15
(lp1574
sg17
(lp1575
sg19
(lp1576
sg21
I0
sba(iArchitecture
Entity
p1577
(dp1578
g11
(lp1579
sg13
S'android.text.style.TtsSpan$CardinalBuilder'
p1580
sg15
(lp1581
sg17
(lp1582
sg19
(lp1583
sg21
I0
sba(iArchitecture
Entity
p1584
(dp1585
g11
(lp1586
sg13
S'android.text.style.TtsSpan$DateBuilder'
p1587
sg15
(lp1588
sg17
(lp1589
sg19
(lp1590
sg21
I0
sba(iArchitecture
Entity
p1591
(dp1592
g11
(lp1593
sg13
S'android.text.style.TtsSpan$DecimalBuilder'
p1594
sg15
(lp1595
sg17
(lp1596
sg19
(lp1597
sg21
I0
sba(iArchitecture
Entity
p1598
(dp1599
g11
(lp1600
sg13
S'android.text.style.TtsSpan$DigitsBuilder'
p1601
sg15
(lp1602
sg17
(lp1603
sg19
(lp1604
sg21
I0
sba(iArchitecture
Entity
p1605
(dp1606
g11
(lp1607
sg13
S'android.text.style.TtsSpan$ElectronicBuilder'
p1608
sg15
(lp1609
sg17
(lp1610
sg19
(lp1611
sg21
I0
sba(iArchitecture
Entity
p1612
(dp1613
g11
(lp1614
sg13
S'android.text.style.TtsSpan$FractionBuilder'
p1615
sg15
(lp1616
sg17
(lp1617
sg19
(lp1618
sg21
I0
sba(iArchitecture
Entity
p1619
(dp1620
g11
(lp1621
sg13
S'android.text.style.TtsSpan$MeasureBuilder'
p1622
sg15
(lp1623
sg17
(lp1624
sg19
(lp1625
sg21
I0
sba(iArchitecture
Entity
p1626
(dp1627
g11
(lp1628
sg13
S'android.text.style.TtsSpan$MoneyBuilder'
p1629
sg15
(lp1630
sg17
(lp1631
sg19
(lp1632
sg21
I0
sba(iArchitecture
Entity
p1633
(dp1634
g11
(lp1635
sg13
S'android.text.style.TtsSpan$OrdinalBuilder'
p1636
sg15
(lp1637
sg17
(lp1638
sg19
(lp1639
sg21
I0
sba(iArchitecture
Entity
p1640
(dp1641
g11
(lp1642
sg13
S'android.text.style.TtsSpan$SemioticClassBuilder'
p1643
sg15
(lp1644
sg17
(lp1645
sg19
(lp1646
sg21
I0
sba(iArchitecture
Entity
p1647
(dp1648
g11
(lp1649
sg13
S'android.text.style.TtsSpan$TelephoneBuilder'
p1650
sg15
(lp1651
sg17
(lp1652
sg19
(lp1653
sg21
I0
sba(iArchitecture
Entity
p1654
(dp1655
g11
(lp1656
sg13
S'android.text.style.TtsSpan$TextBuilder'
p1657
sg15
(lp1658
sg17
(lp1659
sg19
(lp1660
sg21
I0
sba(iArchitecture
Entity
p1661
(dp1662
g11
(lp1663
sg13
S'android.text.style.TtsSpan$TimeBuilder'
p1664
sg15
(lp1665
sg17
(lp1666
sg19
(lp1667
sg21
I0
sba(iArchitecture
Entity
p1668
(dp1669
g11
(lp1670
sg13
S'android.text.style.TtsSpan$VerbatimBuilder'
p1671
sg15
(lp1672
sg17
(lp1673
sg19
(lp1674
sg21
I0
sbasg64
(lp1675
g1566
ag1573
ag1580
ag1587
ag1594
ag1601
ag1608
ag1615
ag1622
ag1629
ag1636
ag1643
ag1650
ag1657
ag1664
ag1671
asg21
I0
sg66
S'1214'
p1676
sba(iArchitecture
Cluster
p1677
(dp1678
g7
(lp1679
(iArchitecture
Entity
p1680
(dp1681
g11
(lp1682
sg13
S'android.text.PackedIntVector'
p1683
sg15
(lp1684
sg17
(lp1685
sg19
(lp1686
sg21
I0
sba(iArchitecture
Entity
p1687
(dp1688
g11
(lp1689
sg13
S'android.text.PackedObjectVector'
p1690
sg15
(lp1691
sg17
(lp1692
sg19
(lp1693
sg21
I0
sbasg64
(lp1694
g1683
ag1690
asg21
I0
sg66
S'1264'
p1695
sba(iArchitecture
Cluster
p1696
(dp1697
g7
(lp1698
(iArchitecture
Entity
p1699
(dp1700
g11
(lp1701
sg13
S'android.text.style.TabStopSpan'
p1702
sg15
(lp1703
sg17
(lp1704
sg19
(lp1705
sg21
I0
sba(iArchitecture
Entity
p1706
(dp1707
g11
(lp1708
sg13
S'android.text.style.TabStopSpan$Standard'
p1709
sg15
(lp1710
sg17
(lp1711
sg19
(lp1712
sg21
I0
sbasg64
(lp1713
g1702
ag1709
asg21
I0
sg66
S'1269'
p1714
sba(iArchitecture
Cluster
p1715
(dp1716
g7
(lp1717
(iArchitecture
Entity
p1718
(dp1719
g11
(lp1720
sg13
S'android.text.method.MultiTapKeyListener'
p1721
sg15
(lp1722
sg17
(lp1723
sg19
(lp1724
sg21
I0
sba(iArchitecture
Entity
p1725
(dp1726
g11
(lp1727
sg13
S'android.text.method.MultiTapKeyListener$Timeout'
p1728
sg15
(lp1729
sg17
(lp1730
sg19
(lp1731
sg21
I0
sba(iArchitecture
Entity
p1732
(dp1733
g11
(lp1734
sg13
S'android.text.method.QwertyKeyListener'
p1735
sg15
(lp1736
sg17
(lp1737
sg19
(lp1738
sg21
I0
sba(iArchitecture
Entity
p1739
(dp1740
g11
(lp1741
sg13
S'android.text.method.QwertyKeyListener$Replaced'
p1742
sg15
(lp1743
sg17
(lp1744
sg19
(lp1745
sg21
I0
sbasg64
(lp1746
g1721
ag1728
ag1735
ag1742
asg21
I0
sg66
S'1285'
p1747
sba(iArchitecture
Cluster
p1748
(dp1749
g7
(lp1750
(iArchitecture
Entity
p1751
(dp1752
g11
(lp1753
sg13
S'android.text.Annotation'
p1754
sg15
(lp1755
sg17
(lp1756
sg19
(lp1757
sg21
I0
sba(iArchitecture
Entity
p1758
(dp1759
g11
(lp1760
sg13
S'android.text.ClipboardManager'
p1761
sg15
(lp1762
sg17
(lp1763
sg19
(lp1764
sg21
I0
sba(iArchitecture
Entity
p1765
(dp1766
g11
(lp1767
sg13
S'android.text.GetChars'
p1768
sg15
(lp1769
sg17
(lp1770
sg19
(lp1771
sg21
I0
sba(iArchitecture
Entity
p1772
(dp1773
g11
(lp1774
sg13
S'android.text.InputFilter'
p1775
sg15
(lp1776
sg17
(lp1777
sg19
(lp1778
sg21
I0
sba(iArchitecture
Entity
p1779
(dp1780
g11
(lp1781
sg13
S'android.text.InputFilter$AllCaps'
p1782
sg15
(lp1783
sg17
(lp1784
sg19
(lp1785
sg21
I0
sba(iArchitecture
Entity
p1786
(dp1787
g11
(lp1788
sg13
S'android.text.InputFilter$LengthFilter'
p1789
sg15
(lp1790
sg17
(lp1791
sg19
(lp1792
sg21
I0
sba(iArchitecture
Entity
p1793
(dp1794
g11
(lp1795
sg13
S'android.text.NoCopySpan'
p1796
sg15
(lp1797
sg17
(lp1798
sg19
(lp1799
sg21
I0
sba(iArchitecture
Entity
p1800
(dp1801
g11
(lp1802
sg13
S'android.text.NoCopySpan$Concrete'
p1803
sg15
(lp1804
sg17
(lp1805
sg19
(lp1806
sg21
I0
sba(iArchitecture
Entity
p1807
(dp1808
g11
(lp1809
sg13
S'android.text.SpanWatcher'
p1810
sg15
(lp1811
sg17
(lp1812
sg19
(lp1813
sg21
I0
sba(iArchitecture
Entity
p1814
(dp1815
g11
(lp1816
sg13
S'android.text.Spannable'
p1817
sg15
(lp1818
sg17
(lp1819
sg19
(lp1820
sg21
I0
sba(iArchitecture
Entity
p1821
(dp1822
g11
(lp1823
sg13
S'android.text.Spannable$Factory'
p1824
sg15
(lp1825
sg17
(lp1826
sg19
(lp1827
sg21
I0
sba(iArchitecture
Entity
p1828
(dp1829
g11
(lp1830
sg13
S'android.text.SpannableString'
p1831
sg15
(lp1832
sg17
(lp1833
sg19
(lp1834
sg21
I0
sba(iArchitecture
Entity
p1835
(dp1836
g11
(lp1837
sg13
S'android.text.Spanned'
p1838
sg15
(lp1839
sg17
(lp1840
sg19
(lp1841
sg21
I0
sba(iArchitecture
Entity
p1842
(dp1843
g11
(lp1844
sg13
S'android.text.SpannedString'
p1845
sg15
(lp1846
sg17
(lp1847
sg19
(lp1848
sg21
I0
sba(iArchitecture
Entity
p1849
(dp1850
g11
(lp1851
sg13
S'android.text.TextDirectionHeuristic'
p1852
sg15
(lp1853
sg17
(lp1854
sg19
(lp1855
sg21
I0
sba(iArchitecture
Entity
p1856
(dp1857
g11
(lp1858
sg13
S'android.text.TextWatcher'
p1859
sg15
(lp1860
sg17
(lp1861
sg19
(lp1862
sg21
I0
sba(iArchitecture
Entity
p1863
(dp1864
g11
(lp1865
sg13
S'android.text.method.AllCapsTransformationMethod'
p1866
sg15
(lp1867
sg17
(lp1868
sg19
(lp1869
sg21
I0
sba(iArchitecture
Entity
p1870
(dp1871
g11
(lp1872
sg13
S'android.text.method.CharacterPickerDialog'
p1873
sg15
(lp1874
sg17
(lp1875
sg19
(lp1876
sg21
I0
sba(iArchitecture
Entity
p1877
(dp1878
g11
(lp1879
sg13
S'android.text.method.CharacterPickerDialog$OptionsAdapter'
p1880
sg15
(lp1881
sg17
(lp1882
sg19
(lp1883
sg21
I0
sba(iArchitecture
Entity
p1884
(dp1885
g11
(lp1886
sg13
S'android.text.method.DateKeyListener'
p1887
sg15
(lp1888
sg17
(lp1889
sg19
(lp1890
sg21
I0
sba(iArchitecture
Entity
p1891
(dp1892
g11
(lp1893
sg13
S'android.text.method.DateTimeKeyListener'
p1894
sg15
(lp1895
sg17
(lp1896
sg19
(lp1897
sg21
I0
sba(iArchitecture
Entity
p1898
(dp1899
g11
(lp1900
sg13
S'android.text.method.DialerKeyListener'
p1901
sg15
(lp1902
sg17
(lp1903
sg19
(lp1904
sg21
I0
sba(iArchitecture
Entity
p1905
(dp1906
g11
(lp1907
sg13
S'android.text.method.HideReturnsTransformationMethod'
p1908
sg15
(lp1909
sg17
(lp1910
sg19
(lp1911
sg21
I0
sba(iArchitecture
Entity
p1912
(dp1913
g11
(lp1914
sg13
S'android.text.method.LinkMovementMethod'
p1915
sg15
(lp1916
sg17
(lp1917
sg19
(lp1918
sg21
I0
sba(iArchitecture
Entity
p1919
(dp1920
g11
(lp1921
sg13
S'android.text.method.MovementMethod'
p1922
sg15
(lp1923
sg17
(lp1924
sg19
(lp1925
sg21
I0
sba(iArchitecture
Entity
p1926
(dp1927
g11
(lp1928
sg13
S'android.text.method.NumberKeyListener'
p1929
sg15
(lp1930
sg17
(lp1931
sg19
(lp1932
sg21
I0
sba(iArchitecture
Entity
p1933
(dp1934
g11
(lp1935
sg13
S'android.text.method.PasswordTransformationMethod'
p1936
sg15
(lp1937
sg17
(lp1938
sg19
(lp1939
sg21
I0
sba(iArchitecture
Entity
p1940
(dp1941
g11
(lp1942
sg13
S'android.text.method.PasswordTransformationMethod$PasswordCharSequence'
p1943
sg15
(lp1944
sg17
(lp1945
sg19
(lp1946
sg21
I0
sba(iArchitecture
Entity
p1947
(dp1948
g11
(lp1949
sg13
S'android.text.method.PasswordTransformationMethod$ViewReference'
p1950
sg15
(lp1951
sg17
(lp1952
sg19
(lp1953
sg21
I0
sba(iArchitecture
Entity
p1954
(dp1955
g11
(lp1956
sg13
S'android.text.method.PasswordTransformationMethod$Visible'
p1957
sg15
(lp1958
sg17
(lp1959
sg19
(lp1960
sg21
I0
sba(iArchitecture
Entity
p1961
(dp1962
g11
(lp1963
sg13
S'android.text.method.ScrollingMovementMethod'
p1964
sg15
(lp1965
sg17
(lp1966
sg19
(lp1967
sg21
I0
sba(iArchitecture
Entity
p1968
(dp1969
g11
(lp1970
sg13
S'android.text.method.SingleLineTransformationMethod'
p1971
sg15
(lp1972
sg17
(lp1973
sg19
(lp1974
sg21
I0
sba(iArchitecture
Entity
p1975
(dp1976
g11
(lp1977
sg13
S'android.text.method.TimeKeyListener'
p1978
sg15
(lp1979
sg17
(lp1980
sg19
(lp1981
sg21
I0
sba(iArchitecture
Entity
p1982
(dp1983
g11
(lp1984
sg13
S'android.text.method.TransformationMethod'
p1985
sg15
(lp1986
sg17
(lp1987
sg19
(lp1988
sg21
I0
sba(iArchitecture
Entity
p1989
(dp1990
g11
(lp1991
sg13
S'android.text.method.TransformationMethod2'
p1992
sg15
(lp1993
sg17
(lp1994
sg19
(lp1995
sg21
I0
sba(iArchitecture
Entity
p1996
(dp1997
g11
(lp1998
sg13
S'android.text.style.AbsoluteSizeSpan'
p1999
sg15
(lp2000
sg17
(lp2001
sg19
(lp2002
sg21
I0
sba(iArchitecture
Entity
p2003
(dp2004
g11
(lp2005
sg13
S'android.text.style.AlignmentSpan'
p2006
sg15
(lp2007
sg17
(lp2008
sg19
(lp2009
sg21
I0
sba(iArchitecture
Entity
p2010
(dp2011
g11
(lp2012
sg13
S'android.text.style.AlignmentSpan$Standard'
p2013
sg15
(lp2014
sg17
(lp2015
sg19
(lp2016
sg21
I0
sba(iArchitecture
Entity
p2017
(dp2018
g11
(lp2019
sg13
S'android.text.style.BackgroundColorSpan'
p2020
sg15
(lp2021
sg17
(lp2022
sg19
(lp2023
sg21
I0
sba(iArchitecture
Entity
p2024
(dp2025
g11
(lp2026
sg13
S'android.text.style.ClickableSpan'
p2027
sg15
(lp2028
sg17
(lp2029
sg19
(lp2030
sg21
I0
sba(iArchitecture
Entity
p2031
(dp2032
g11
(lp2033
sg13
S'android.text.style.ForegroundColorSpan'
p2034
sg15
(lp2035
sg17
(lp2036
sg19
(lp2037
sg21
I0
sba(iArchitecture
Entity
p2038
(dp2039
g11
(lp2040
sg13
S'android.text.style.LineBackgroundSpan'
p2041
sg15
(lp2042
sg17
(lp2043
sg19
(lp2044
sg21
I0
sba(iArchitecture
Entity
p2045
(dp2046
g11
(lp2047
sg13
S'android.text.style.LineHeightSpan'
p2048
sg15
(lp2049
sg17
(lp2050
sg19
(lp2051
sg21
I0
sba(iArchitecture
Entity
p2052
(dp2053
g11
(lp2054
sg13
S'android.text.style.LineHeightSpan$WithDensity'
p2055
sg15
(lp2056
sg17
(lp2057
sg19
(lp2058
sg21
I0
sba(iArchitecture
Entity
p2059
(dp2060
g11
(lp2061
sg13
S'android.text.style.MaskFilterSpan'
p2062
sg15
(lp2063
sg17
(lp2064
sg19
(lp2065
sg21
I0
sba(iArchitecture
Entity
p2066
(dp2067
g11
(lp2068
sg13
S'android.text.style.ParagraphStyle'
p2069
sg15
(lp2070
sg17
(lp2071
sg19
(lp2072
sg21
I0
sba(iArchitecture
Entity
p2073
(dp2074
g11
(lp2075
sg13
S'android.text.style.QuoteSpan'
p2076
sg15
(lp2077
sg17
(lp2078
sg19
(lp2079
sg21
I0
sba(iArchitecture
Entity
p2080
(dp2081
g11
(lp2082
sg13
S'android.text.style.RelativeSizeSpan'
p2083
sg15
(lp2084
sg17
(lp2085
sg19
(lp2086
sg21
I0
sba(iArchitecture
Entity
p2087
(dp2088
g11
(lp2089
sg13
S'android.text.style.ReplacementSpan'
p2090
sg15
(lp2091
sg17
(lp2092
sg19
(lp2093
sg21
I0
sba(iArchitecture
Entity
p2094
(dp2095
g11
(lp2096
sg13
S'android.text.style.ScaleXSpan'
p2097
sg15
(lp2098
sg17
(lp2099
sg19
(lp2100
sg21
I0
sba(iArchitecture
Entity
p2101
(dp2102
g11
(lp2103
sg13
S'android.text.style.SpellCheckSpan'
p2104
sg15
(lp2105
sg17
(lp2106
sg19
(lp2107
sg21
I0
sba(iArchitecture
Entity
p2108
(dp2109
g11
(lp2110
sg13
S'android.text.style.StrikethroughSpan'
p2111
sg15
(lp2112
sg17
(lp2113
sg19
(lp2114
sg21
I0
sba(iArchitecture
Entity
p2115
(dp2116
g11
(lp2117
sg13
S'android.text.style.StyleSpan'
p2118
sg15
(lp2119
sg17
(lp2120
sg19
(lp2121
sg21
I0
sba(iArchitecture
Entity
p2122
(dp2123
g11
(lp2124
sg13
S'android.text.style.SubscriptSpan'
p2125
sg15
(lp2126
sg17
(lp2127
sg19
(lp2128
sg21
I0
sba(iArchitecture
Entity
p2129
(dp2130
g11
(lp2131
sg13
S'android.text.style.SuggestionRangeSpan'
p2132
sg15
(lp2133
sg17
(lp2134
sg19
(lp2135
sg21
I0
sba(iArchitecture
Entity
p2136
(dp2137
g11
(lp2138
sg13
S'android.text.style.SuperscriptSpan'
p2139
sg15
(lp2140
sg17
(lp2141
sg19
(lp2142
sg21
I0
sba(iArchitecture
Entity
p2143
(dp2144
g11
(lp2145
sg13
S'android.text.style.TypefaceSpan'
p2146
sg15
(lp2147
sg17
(lp2148
sg19
(lp2149
sg21
I0
sba(iArchitecture
Entity
p2150
(dp2151
g11
(lp2152
sg13
S'android.text.style.URLSpan'
p2153
sg15
(lp2154
sg17
(lp2155
sg19
(lp2156
sg21
I0
sba(iArchitecture
Entity
p2157
(dp2158
g11
(lp2159
sg13
S'android.text.style.UnderlineSpan'
p2160
sg15
(lp2161
sg17
(lp2162
sg19
(lp2163
sg21
I0
sba(iArchitecture
Entity
p2164
(dp2165
g11
(lp2166
sg13
S'android.text.style.UpdateAppearance'
p2167
sg15
(lp2168
sg17
(lp2169
sg19
(lp2170
sg21
I0
sba(iArchitecture
Entity
p2171
(dp2172
g11
(lp2173
sg13
S'android.text.style.UpdateLayout'
p2174
sg15
(lp2175
sg17
(lp2176
sg19
(lp2177
sg21
I0
sba(iArchitecture
Entity
p2178
(dp2179
g11
(lp2180
sg13
S'android.text.style.WrapTogetherSpan'
p2181
sg15
(lp2182
sg17
(lp2183
sg19
(lp2184
sg21
I0
sba(iArchitecture
Entity
p2185
(dp2186
g11
(lp2187
sg13
S'android.text.util.Rfc822Tokenizer'
p2188
sg15
(lp2189
sg17
(lp2190
sg19
(lp2191
sg21
I0
sbasg64
(lp2192
g1754
ag1761
ag1768
ag1775
ag1782
ag1789
ag1796
ag1803
ag1810
ag1817
ag1824
ag1831
ag1838
ag1845
ag1852
ag1859
ag1866
ag1873
ag1880
ag1887
ag1894
ag1901
ag1908
ag1915
ag1922
ag1929
ag1936
ag1943
ag1950
ag1957
ag1964
ag1971
ag1978
ag1985
ag1992
ag1999
ag2006
ag2013
ag2020
ag2027
ag2034
ag2041
ag2048
ag2055
ag2062
ag2069
ag2076
ag2083
ag2090
ag2097
ag2104
ag2111
ag2118
ag2125
ag2132
ag2139
ag2146
ag2153
ag2160
ag2167
ag2174
ag2181
ag2188
asg21
I0
sg66
S'1330'
p2193
sba(iArchitecture
Cluster
p2194
(dp2195
g7
(lp2196
(iArchitecture
Entity
p2197
(dp2198
g11
(lp2199
sg13
S'android.text.method.KeyListener'
p2200
sg15
(lp2201
sg17
(lp2202
sg19
(lp2203
sg21
I0
sbasg64
(lp2204
g2200
asg21
I0
sg66
S'1331'
p2205
sba(iArchitecture
Cluster
p2206
(dp2207
g7
(lp2208
(iArchitecture
Entity
p2209
(dp2210
g11
(lp2211
sg13
S'android.text.style.TextAppearanceSpan'
p2212
sg15
(lp2213
sg17
(lp2214
sg19
(lp2215
sg21
I0
sbasg64
(lp2216
g2212
asg21
I0
sg66
S'1357'
p2217
sba(iArchitecture
Cluster
p2218
(dp2219
g7
(lp2220
(iArchitecture
Entity
p2221
(dp2222
g11
(lp2223
sg13
S'android.text.method.MetaKeyKeyListener'
p2224
sg15
(lp2225
sg17
(lp2226
sg19
(lp2227
sg21
I0
sbasg64
(lp2228
g2224
asg21
I0
sg66
S'1364'
p2229
sba(iArchitecture
Cluster
p2230
(dp2231
g7
(lp2232
(iArchitecture
Entity
p2233
(dp2234
g11
(lp2235
sg13
S'android.text.Emoji'
p2236
sg15
(lp2237
sg17
(lp2238
sg19
(lp2239
sg21
I0
sba(iArchitecture
Entity
p2240
(dp2241
g11
(lp2242
sg13
S'android.text.GraphicsOperations'
p2243
sg15
(lp2244
sg17
(lp2245
sg19
(lp2246
sg21
I0
sba(iArchitecture
Entity
p2247
(dp2248
g11
(lp2249
sg13
S'android.text.LoginFilter'
p2250
sg15
(lp2251
sg17
(lp2252
sg19
(lp2253
sg21
I0
sba(iArchitecture
Entity
p2254
(dp2255
g11
(lp2256
sg13
S'android.text.LoginFilter$PasswordFilterGMail'
p2257
sg15
(lp2258
sg17
(lp2259
sg19
(lp2260
sg21
I0
sba(iArchitecture
Entity
p2261
(dp2262
g11
(lp2263
sg13
S'android.text.LoginFilter$UsernameFilterGMail'
p2264
sg15
(lp2265
sg17
(lp2266
sg19
(lp2267
sg21
I0
sba(iArchitecture
Entity
p2268
(dp2269
g11
(lp2270
sg13
S'android.text.LoginFilter$UsernameFilterGeneric'
p2271
sg15
(lp2272
sg17
(lp2273
sg19
(lp2274
sg21
I0
sba(iArchitecture
Entity
p2275
(dp2276
g11
(lp2277
sg13
S'android.text.ParcelableSpan'
p2278
sg15
(lp2279
sg17
(lp2280
sg19
(lp2281
sg21
I0
sba(iArchitecture
Entity
p2282
(dp2283
g11
(lp2284
sg13
S'android.text.style.CharacterStyle'
p2285
sg15
(lp2286
sg17
(lp2287
sg19
(lp2288
sg21
I0
sba(iArchitecture
Entity
p2289
(dp2290
g11
(lp2291
sg13
S'android.text.style.CharacterStyle$Passthrough'
p2292
sg15
(lp2293
sg17
(lp2294
sg19
(lp2295
sg21
I0
sba(iArchitecture
Entity
p2296
(dp2297
g11
(lp2298
sg13
S'android.text.style.DrawableMarginSpan'
p2299
sg15
(lp2300
sg17
(lp2301
sg19
(lp2302
sg21
I0
sba(iArchitecture
Entity
p2303
(dp2304
g11
(lp2305
sg13
S'android.text.style.DynamicDrawableSpan'
p2306
sg15
(lp2307
sg17
(lp2308
sg19
(lp2309
sg21
I0
sba(iArchitecture
Entity
p2310
(dp2311
g11
(lp2312
sg13
S'android.text.style.IconMarginSpan'
p2313
sg15
(lp2314
sg17
(lp2315
sg19
(lp2316
sg21
I0
sba(iArchitecture
Entity
p2317
(dp2318
g11
(lp2319
sg13
S'android.text.style.MetricAffectingSpan'
p2320
sg15
(lp2321
sg17
(lp2322
sg19
(lp2323
sg21
I0
sba(iArchitecture
Entity
p2324
(dp2325
g11
(lp2326
sg13
S'android.text.style.MetricAffectingSpan$Passthrough'
p2327
sg15
(lp2328
sg17
(lp2329
sg19
(lp2330
sg21
I0
sba(iArchitecture
Entity
p2331
(dp2332
g11
(lp2333
sg13
S'android.text.style.RasterizerSpan'
p2334
sg15
(lp2335
sg17
(lp2336
sg19
(lp2337
sg21
I0
sbasg64
(lp2338
g2236
ag2243
ag2250
ag2257
ag2264
ag2271
ag2278
ag2285
ag2292
ag2299
ag2306
ag2313
ag2320
ag2327
ag2334
asg21
I0
sg66
S'1384'
p2339
sba(iArchitecture
Cluster
p2340
(dp2341
g7
(lp2342
(iArchitecture
Entity
p2343
(dp2344
g11
(lp2345
sg13
S'android.text.InputType'
p2346
sg15
(lp2347
sg17
(lp2348
sg19
(lp2349
sg21
I0
sba(iArchitecture
Entity
p2350
(dp2351
g11
(lp2352
sg13
S'android.text.Selection'
p2353
sg15
(lp2354
sg17
(lp2355
sg19
(lp2356
sg21
I0
sba(iArchitecture
Entity
p2357
(dp2358
g11
(lp2359
sg13
S'android.text.Selection$END'
p2360
sg15
(lp2361
sg17
(lp2362
sg19
(lp2363
sg21
I0
sba(iArchitecture
Entity
p2364
(dp2365
g11
(lp2366
sg13
S'android.text.Selection$PositionIterator'
p2367
sg15
(lp2368
sg17
(lp2369
sg19
(lp2370
sg21
I0
sba(iArchitecture
Entity
p2371
(dp2372
g11
(lp2373
sg13
S'android.text.Selection$START'
p2374
sg15
(lp2375
sg17
(lp2376
sg19
(lp2377
sg21
I0
sba(iArchitecture
Entity
p2378
(dp2379
g11
(lp2380
sg13
S'android.text.method.ArrowKeyMovementMethod'
p2381
sg15
(lp2382
sg17
(lp2383
sg19
(lp2384
sg21
I0
sba(iArchitecture
Entity
p2385
(dp2386
g11
(lp2387
sg13
S'android.text.method.BaseMovementMethod'
p2388
sg15
(lp2389
sg17
(lp2390
sg19
(lp2391
sg21
I0
sba(iArchitecture
Entity
p2392
(dp2393
g11
(lp2394
sg13
S'android.text.method.Touch'
p2395
sg15
(lp2396
sg17
(lp2397
sg19
(lp2398
sg21
I0
sba(iArchitecture
Entity
p2399
(dp2400
g11
(lp2401
sg13
S'android.text.method.Touch$DragState'
p2402
sg15
(lp2403
sg17
(lp2404
sg19
(lp2405
sg21
I0
sba(iArchitecture
Entity
p2406
(dp2407
g11
(lp2408
sg13
S'android.text.style.SuggestionSpan'
p2409
sg15
(lp2410
sg17
(lp2411
sg19
(lp2412
sg21
I0
sba(iArchitecture
Entity
p2413
(dp2414
g11
(lp2415
sg13
S'android.text.style.SuggestionSpan$1'
p2416
sg15
(lp2417
sg17
(lp2418
sg19
(lp2419
sg21
I0
sbasg64
(lp2420
g2346
ag2353
ag2360
ag2367
ag2374
ag2381
ag2388
ag2395
ag2402
ag2409
ag2416
asg21
I0
sg66
S'1401'
p2421
sba(iArchitecture
Cluster
p2422
(dp2423
g7
(lp2424
(iArchitecture
Entity
p2425
(dp2426
g11
(lp2427
sg13
S'android.text.AlteredCharSequence'
p2428
sg15
(lp2429
sg17
(lp2430
sg19
(lp2431
sg21
I0
sba(iArchitecture
Entity
p2432
(dp2433
g11
(lp2434
sg13
S'android.text.AlteredCharSequence$AlteredSpanned'
p2435
sg15
(lp2436
sg17
(lp2437
sg19
(lp2438
sg21
I0
sbasg64
(lp2439
g2428
ag2435
asg21
I0
sg66
S'1407'
p2440
sba(iArchitecture
Cluster
p2441
(dp2442
g7
(lp2443
(iArchitecture
Entity
p2444
(dp2445
g11
(lp2446
sg13
S'android.text.Editable'
p2447
sg15
(lp2448
sg17
(lp2449
sg19
(lp2450
sg21
I0
sba(iArchitecture
Entity
p2451
(dp2452
g11
(lp2453
sg13
S'android.text.Editable$Factory'
p2454
sg15
(lp2455
sg17
(lp2456
sg19
(lp2457
sg21
I0
sbasg64
(lp2458
g2447
ag2454
asg21
I0
sg66
S'1411'
p2459
sba(iArchitecture
Cluster
p2460
(dp2461
g7
(lp2462
(iArchitecture
Entity
p2463
(dp2464
g11
(lp2465
sg13
S'android.text.format.DateUtils'
p2466
sg15
(lp2467
sg17
(lp2468
sg19
(lp2469
sg21
I0
sbasg64
(lp2470
g2466
asg21
I0
sg66
S'163'
p2471
sba(iArchitecture
Cluster
p2472
(dp2473
g7
(lp2474
(iArchitecture
Entity
p2475
(dp2476
g11
(lp2477
sg13
S'android.text.style.BulletSpan'
p2478
sg15
(lp2479
sg17
(lp2480
sg19
(lp2481
sg21
I0
sbasg64
(lp2482
g2478
asg21
I0
sg66
S'170'
p2483
sba(iArchitecture
Cluster
p2484
(dp2485
g7
(lp2486
(iArchitecture
Entity
p2487
(dp2488
g11
(lp2489
sg13
S'android.text.TextPaint'
p2490
sg15
(lp2491
sg17
(lp2492
sg19
(lp2493
sg21
I0
sbasg64
(lp2494
g2490
asg21
I0
sg66
S'208'
p2495
sba(iArchitecture
Cluster
p2496
(dp2497
g7
(lp2498
(iArchitecture
Entity
p2499
(dp2500
g11
(lp2501
sg13
S'android.text.Hyphenator'
p2502
sg15
(lp2503
sg17
(lp2504
sg19
(lp2505
sg21
I0
sbasg64
(lp2506
g2502
asg21
I0
sg66
S'210'
p2507
sba(iArchitecture
Cluster
p2508
(dp2509
g7
(lp2510
(iArchitecture
Entity
p2511
(dp2512
g11
(lp2513
sg13
S'android.text.SpanSet'
p2514
sg15
(lp2515
sg17
(lp2516
sg19
(lp2517
sg21
I0
sbasg64
(lp2518
g2514
asg21
I0
sg66
S'271'
p2519
sba(iArchitecture
Cluster
p2520
(dp2521
g7
(lp2522
(iArchitecture
Entity
p2523
(dp2524
g11
(lp2525
sg13
S'android.text.AutoText'
p2526
sg15
(lp2527
sg17
(lp2528
sg19
(lp2529
sg21
I0
sbasg64
(lp2530
g2526
asg21
I0
sg66
S'278'
p2531
sba(iArchitecture
Cluster
p2532
(dp2533
g7
(lp2534
(iArchitecture
Entity
p2535
(dp2536
g11
(lp2537
sg13
S'android.text.AndroidCharacter'
p2538
sg15
(lp2539
sg17
(lp2540
sg19
(lp2541
sg21
I0
sbasg64
(lp2542
g2538
asg21
I0
sg66
S'286'
p2543
sba(iArchitecture
Cluster
p2544
(dp2545
g7
(lp2546
(iArchitecture
Entity
p2547
(dp2548
g11
(lp2549
sg13
S'android.text.style.ImageSpan'
p2550
sg15
(lp2551
sg17
(lp2552
sg19
(lp2553
sg21
I0
sbasg64
(lp2554
g2550
asg21
I0
sg66
S'292'
p2555
sba(iArchitecture
Cluster
p2556
(dp2557
g7
(lp2558
(iArchitecture
Entity
p2559
(dp2560
g11
(lp2561
sg13
S'android.text.method.DigitsKeyListener'
p2562
sg15
(lp2563
sg17
(lp2564
sg19
(lp2565
sg21
I0
sbasg64
(lp2566
g2562
asg21
I0
sg66
S'334'
p2567
sba(iArchitecture
Cluster
p2568
(dp2569
g7
(lp2570
(iArchitecture
Entity
p2571
(dp2572
g11
(lp2573
sg13
S'android.text.AndroidBidi'
p2574
sg15
(lp2575
sg17
(lp2576
sg19
(lp2577
sg21
I0
sbasg64
(lp2578
g2574
asg21
I0
sg66
S'354'
p2579
sba(iArchitecture
Cluster
p2580
(dp2581
g7
(lp2582
(iArchitecture
Entity
p2583
(dp2584
g11
(lp2585
sg13
S'android.text.MeasuredText'
p2586
sg15
(lp2587
sg17
(lp2588
sg19
(lp2589
sg21
I0
sbasg64
(lp2590
g2586
asg21
I0
sg66
S'38'
p2591
sba(iArchitecture
Cluster
p2592
(dp2593
g7
(lp2594
(iArchitecture
Entity
p2595
(dp2596
g11
(lp2597
sg13
S'android.text.format.TimeFormatter'
p2598
sg15
(lp2599
sg17
(lp2600
sg19
(lp2601
sg21
I0
sbasg64
(lp2602
g2598
asg21
I0
sg66
S'387'
p2603
sba(iArchitecture
Cluster
p2604
(dp2605
g7
(lp2606
(iArchitecture
Entity
p2607
(dp2608
g11
(lp2609
sg13
S'android.text.method.WordIterator'
p2610
sg15
(lp2611
sg17
(lp2612
sg19
(lp2613
sg21
I0
sbasg64
(lp2614
g2610
asg21
I0
sg66
S'408'
p2615
sba(iArchitecture
Cluster
p2616
(dp2617
g7
(lp2618
(iArchitecture
Entity
p2619
(dp2620
g11
(lp2621
sg13
S'android.text.util.Rfc822Token'
p2622
sg15
(lp2623
sg17
(lp2624
sg19
(lp2625
sg21
I0
sbasg64
(lp2626
g2622
asg21
I0
sg66
S'412'
p2627
sba(iArchitecture
Cluster
p2628
(dp2629
g7
(lp2630
(iArchitecture
Entity
p2631
(dp2632
g11
(lp2633
sg13
S'android.text.TextLine'
p2634
sg15
(lp2635
sg17
(lp2636
sg19
(lp2637
sg21
I0
sbasg64
(lp2638
g2634
asg21
I0
sg66
S'456'
p2639
sba(iArchitecture
Cluster
p2640
(dp2641
g7
(lp2642
(iArchitecture
Entity
p2643
(dp2644
g11
(lp2645
sg13
S'android.text.format.DateFormat'
p2646
sg15
(lp2647
sg17
(lp2648
sg19
(lp2649
sg21
I0
sbasg64
(lp2650
g2646
asg21
I0
sg66
S'457'
p2651
sba(iArchitecture
Cluster
p2652
(dp2653
g7
(lp2654
(iArchitecture
Entity
p2655
(dp2656
g11
(lp2657
sg13
S'android.text.style.EasyEditSpan'
p2658
sg15
(lp2659
sg17
(lp2660
sg19
(lp2661
sg21
I0
sbasg64
(lp2662
g2658
asg21
I0
sg66
S'470'
p2663
sba(iArchitecture
Cluster
p2664
(dp2665
g7
(lp2666
(iArchitecture
Entity
p2667
(dp2668
g11
(lp2669
sg13
S'android.text.format.Formatter'
p2670
sg15
(lp2671
sg17
(lp2672
sg19
(lp2673
sg21
I0
sba(iArchitecture
Entity
p2674
(dp2675
g11
(lp2676
sg13
S'android.text.format.Formatter$BytesResult'
p2677
sg15
(lp2678
sg17
(lp2679
sg19
(lp2680
sg21
I0
sbasg64
(lp2681
g2670
ag2677
asg21
I0
sg66
S'509'
p2682
sba(iArchitecture
Cluster
p2683
(dp2684
g7
(lp2685
(iArchitecture
Entity
p2686
(dp2687
g11
(lp2688
sg13
S'android.text.SpannableStringBuilder'
p2689
sg15
(lp2690
sg17
(lp2691
sg19
(lp2692
sg21
I0
sbasg64
(lp2693
g2689
asg21
I0
sg66
S'74'
p2694
sba(iArchitecture
Cluster
p2695
(dp2696
g7
(lp2697
(iArchitecture
Entity
p2698
(dp2699
g11
(lp2700
sg13
S'android.text.DynamicLayout'
p2701
sg15
(lp2702
sg17
(lp2703
sg19
(lp2704
sg21
I0
sba(iArchitecture
Entity
p2705
(dp2706
g11
(lp2707
sg13
S'android.text.DynamicLayout$ChangeWatcher'
p2708
sg15
(lp2709
sg17
(lp2710
sg19
(lp2711
sg21
I0
sbasg64
(lp2712
g2701
ag2708
asg21
I0
sg66
S'775'
p2713
sba(iArchitecture
Cluster
p2714
(dp2715
g7
(lp2716
(iArchitecture
Entity
p2717
(dp2718
g11
(lp2719
sg13
S'android.text.format.Time'
p2720
sg15
(lp2721
sg17
(lp2722
sg19
(lp2723
sg21
I0
sba(iArchitecture
Entity
p2724
(dp2725
g11
(lp2726
sg13
S'android.text.format.Time$TimeCalculator'
p2727
sg15
(lp2728
sg17
(lp2729
sg19
(lp2730
sg21
I0
sbasg64
(lp2731
g2720
ag2727
asg21
I0
sg66
S'784'
p2732
sba(iArchitecture
Cluster
p2733
(dp2734
g7
(lp2735
(iArchitecture
Entity
p2736
(dp2737
g11
(lp2738
sg13
S'android.text.BidiFormatter'
p2739
sg15
(lp2740
sg17
(lp2741
sg19
(lp2742
sg21
I0
sba(iArchitecture
Entity
p2743
(dp2744
g11
(lp2745
sg13
S'android.text.BidiFormatter$Builder'
p2746
sg15
(lp2747
sg17
(lp2748
sg19
(lp2749
sg21
I0
sba(iArchitecture
Entity
p2750
(dp2751
g11
(lp2752
sg13
S'android.text.BidiFormatter$DirectionalityEstimator'
p2753
sg15
(lp2754
sg17
(lp2755
sg19
(lp2756
sg21
I0
sbasg64
(lp2757
g2739
ag2746
ag2753
asg21
I0
sg66
S'890'
p2758
sba(iArchitecture
Cluster
p2759
(dp2760
g7
(lp2761
(iArchitecture
Entity
p2762
(dp2763
g11
(lp2764
sg13
S'android.text.style.LeadingMarginSpan'
p2765
sg15
(lp2766
sg17
(lp2767
sg19
(lp2768
sg21
I0
sba(iArchitecture
Entity
p2769
(dp2770
g11
(lp2771
sg13
S'android.text.style.LeadingMarginSpan$LeadingMarginSpan2'
p2772
sg15
(lp2773
sg17
(lp2774
sg19
(lp2775
sg21
I0
sba(iArchitecture
Entity
p2776
(dp2777
g11
(lp2778
sg13
S'android.text.style.LeadingMarginSpan$Standard'
p2779
sg15
(lp2780
sg17
(lp2781
sg19
(lp2782
sg21
I0
sbasg64
(lp2783
g2765
ag2772
ag2779
asg21
I0
sg66
S'941'
p2784
sba(iArchitecture
Cluster
p2785
(dp2786
g7
(lp2787
(iArchitecture
Entity
p2788
(dp2789
g11
(lp2790
sg13
S'android.text.Html'
p2791
sg15
(lp2792
sg17
(lp2793
sg19
(lp2794
sg21
I0
sba(iArchitecture
Entity
p2795
(dp2796
g11
(lp2797
sg13
S'android.text.Html$HtmlParser'
p2798
sg15
(lp2799
sg17
(lp2800
sg19
(lp2801
sg21
I0
sba(iArchitecture
Entity
p2802
(dp2803
g11
(lp2804
sg13
S'android.text.Html$ImageGetter'
p2805
sg15
(lp2806
sg17
(lp2807
sg19
(lp2808
sg21
I0
sba(iArchitecture
Entity
p2809
(dp2810
g11
(lp2811
sg13
S'android.text.Html$TagHandler'
p2812
sg15
(lp2813
sg17
(lp2814
sg19
(lp2815
sg21
I0
sbasg64
(lp2816
g2791
ag2798
ag2805
ag2812
asg21
I0
sg66
S'956'
p2817
sbasg1406
g1407
sg64
(lp2818
sg1409
I00
sg66
S'7.0.0_r1'
p2819
sba.