(lp0
(iArchitecture
Architecture
p1
(dp2
S'clusters'
p3
(lp4
(iArchitecture
Cluster
p5
(dp6
S'entities'
p7
(lp8
(iArchitecture
Entity
p9
(dp10
S'issue_ids'
p11
(lp12
sS'name'
p13
S'com.android.server.trust.TrustAgentWrapper'
p14
sS'descs'
p15
(lp16
sS'labels'
p17
(lp18
sS'titles'
p19
(lp20
sS'change'
p21
I0
sba(iArchitecture
Entity
p22
(dp23
g11
(lp24
sg13
S'com.android.server.trust.TrustAgentWrapper$1'
p25
sg15
(lp26
sg17
(lp27
sg19
(lp28
sg21
I0
sba(iArchitecture
Entity
p29
(dp30
g11
(lp31
sg13
S'com.android.server.trust.TrustAgentWrapper$2'
p32
sg15
(lp33
sg17
(lp34
sg19
(lp35
sg21
I0
sba(iArchitecture
Entity
p36
(dp37
g11
(lp38
sg13
S'com.android.server.trust.TrustAgentWrapper$3'
p39
sg15
(lp40
sg17
(lp41
sg19
(lp42
sg21
I0
sba(iArchitecture
Entity
p43
(dp44
g11
(lp45
sg13
S'com.android.server.trust.TrustAgentWrapper$4'
p46
sg15
(lp47
sg17
(lp48
sg19
(lp49
sg21
I0
sbasS'classes'
p50
(lp51
g14
ag25
ag32
ag39
ag46
asg21
I0
sS'label'
p52
S'1166'
p53
sba(iArchitecture
Cluster
p54
(dp55
g7
(lp56
(iArchitecture
Entity
p57
(dp58
g11
(lp59
sg13
S'com.android.server.trust.TrustArchive'
p60
sg15
(lp61
sg17
(lp62
sg19
(lp63
sg21
I0
sba(iArchitecture
Entity
p64
(dp65
g11
(lp66
sg13
S'com.android.server.trust.TrustArchive$Event'
p67
sg15
(lp68
sg17
(lp69
sg19
(lp70
sg21
I0
sbasg50
(lp71
g60
ag67
asg21
I0
sg52
S'510'
p72
sbasS'target_sub'
p73
S'com.android.server.trust'
p74
sg50
(lp75
sS'is_component_arch'
p76
I00
sg52
S'6.0.0_r1'
p77
sba(iArchitecture
Architecture
p78
(dp79
g3
(lp80
(iArchitecture
Cluster
p81
(dp82
g7
(lp83
(iArchitecture
Entity
p84
(dp85
g11
(lp86
sg13
S'com.android.server.trust.TrustAgentWrapper'
p87
sg15
(lp88
sg17
(lp89
sg19
(lp90
sg21
I0
sba(iArchitecture
Entity
p91
(dp92
g11
(lp93
sg13
S'com.android.server.trust.TrustAgentWrapper$1'
p94
sg15
(lp95
sg17
(lp96
sg19
(lp97
sg21
I0
sba(iArchitecture
Entity
p98
(dp99
g11
(lp100
sg13
S'com.android.server.trust.TrustAgentWrapper$2'
p101
sg15
(lp102
sg17
(lp103
sg19
(lp104
sg21
I0
sba(iArchitecture
Entity
p105
(dp106
g11
(lp107
sg13
S'com.android.server.trust.TrustAgentWrapper$3'
p108
sg15
(lp109
sg17
(lp110
sg19
(lp111
sg21
I0
sba(iArchitecture
Entity
p112
(dp113
g11
(lp114
sg13
S'com.android.server.trust.TrustAgentWrapper$4'
p115
sg15
(lp116
sg17
(lp117
sg19
(lp118
sg21
I0
sbasg50
(lp119
g87
ag94
ag101
ag108
ag115
asg21
I0
sg52
S'1314'
p120
sba(iArchitecture
Cluster
p121
(dp122
g7
(lp123
(iArchitecture
Entity
p124
(dp125
g11
(lp126
sg13
S'com.android.server.trust.TrustArchive'
p127
sg15
(lp128
sg17
(lp129
sg19
(lp130
sg21
I0
sba(iArchitecture
Entity
p131
(dp132
g11
(lp133
sg13
S'com.android.server.trust.TrustArchive$Event'
p134
sg15
(lp135
sg17
(lp136
sg19
(lp137
sg21
I0
sbasg50
(lp138
g127
ag134
asg21
I0
sg52
S'569'
p139
sbasg73
g74
sg50
(lp140
sg76
I00
sg52
S'7.0.0_r1'
p141
sba.