(lp0
(iArchitecture
Architecture
p1
(dp2
S'clusters'
p3
(lp4
(iArchitecture
Cluster
p5
(dp6
S'entities'
p7
(lp8
(iArchitecture
Entity
p9
(dp10
S'issue_ids'
p11
(lp12
sS'name'
p13
S'android.sax.ElementListener'
p14
sS'descs'
p15
(lp16
sS'labels'
p17
(lp18
sS'titles'
p19
(lp20
sS'change'
p21
I0
sba(iArchitecture
Entity
p22
(dp23
g11
(lp24
sg13
S'android.sax.EndElementListener'
p25
sg15
(lp26
sg17
(lp27
sg19
(lp28
sg21
I0
sba(iArchitecture
Entity
p29
(dp30
g11
(lp31
sg13
S'android.sax.EndTextElementListener'
p32
sg15
(lp33
sg17
(lp34
sg19
(lp35
sg21
I0
sba(iArchitecture
Entity
p36
(dp37
g11
(lp38
sg13
S'android.sax.StartElementListener'
p39
sg15
(lp40
sg17
(lp41
sg19
(lp42
sg21
I0
sba(iArchitecture
Entity
p43
(dp44
g11
(lp45
sg13
S'android.sax.TextElementListener'
p46
sg15
(lp47
sg17
(lp48
sg19
(lp49
sg21
I0
sbasS'classes'
p50
(lp51
g14
ag25
ag32
ag39
ag46
asg21
I0
sS'label'
p52
S'1223'
p53
sba(iArchitecture
Cluster
p54
(dp55
g7
(lp56
(iArchitecture
Entity
p57
(dp58
g11
(lp59
sg13
S'android.sax.Element'
p60
sg15
(lp61
sg17
(lp62
sg19
(lp63
sg21
I0
sbasg50
(lp64
g60
asg21
I0
sg52
S'1229'
p65
sba(iArchitecture
Cluster
p66
(dp67
g7
(lp68
(iArchitecture
Entity
p69
(dp70
g11
(lp71
sg13
S'android.sax.BadXmlException'
p72
sg15
(lp73
sg17
(lp74
sg19
(lp75
sg21
I0
sbasg50
(lp76
g72
asg21
I0
sg52
S'1246'
p77
sba(iArchitecture
Cluster
p78
(dp79
g7
(lp80
(iArchitecture
Entity
p81
(dp82
g11
(lp83
sg13
S'android.sax.RootElement'
p84
sg15
(lp85
sg17
(lp86
sg19
(lp87
sg21
I0
sba(iArchitecture
Entity
p88
(dp89
g11
(lp90
sg13
S'android.sax.RootElement$Handler'
p91
sg15
(lp92
sg17
(lp93
sg19
(lp94
sg21
I0
sbasg50
(lp95
g84
ag91
asg21
I0
sg52
S'453'
p96
sba(iArchitecture
Cluster
p97
(dp98
g7
(lp99
(iArchitecture
Entity
p100
(dp101
g11
(lp102
sg13
S'android.sax.Children'
p103
sg15
(lp104
sg17
(lp105
sg19
(lp106
sg21
I0
sba(iArchitecture
Entity
p107
(dp108
g11
(lp109
sg13
S'android.sax.Children$Child'
p110
sg15
(lp111
sg17
(lp112
sg19
(lp113
sg21
I0
sbasg50
(lp114
g103
ag110
asg21
I0
sg52
S'508'
p115
sbasS'target_sub'
p116
S'android.sax'
p117
sg50
(lp118
sS'is_component_arch'
p119
I00
sg52
S'6.0.0_r1'
p120
sba(iArchitecture
Architecture
p121
(dp122
g3
(lp123
(iArchitecture
Cluster
p124
(dp125
g7
(lp126
(iArchitecture
Entity
p127
(dp128
g11
(lp129
sg13
S'android.sax.ElementListener'
p130
sg15
(lp131
sg17
(lp132
sg19
(lp133
sg21
I0
sba(iArchitecture
Entity
p134
(dp135
g11
(lp136
sg13
S'android.sax.EndElementListener'
p137
sg15
(lp138
sg17
(lp139
sg19
(lp140
sg21
I0
sba(iArchitecture
Entity
p141
(dp142
g11
(lp143
sg13
S'android.sax.EndTextElementListener'
p144
sg15
(lp145
sg17
(lp146
sg19
(lp147
sg21
I0
sba(iArchitecture
Entity
p148
(dp149
g11
(lp150
sg13
S'android.sax.StartElementListener'
p151
sg15
(lp152
sg17
(lp153
sg19
(lp154
sg21
I0
sba(iArchitecture
Entity
p155
(dp156
g11
(lp157
sg13
S'android.sax.TextElementListener'
p158
sg15
(lp159
sg17
(lp160
sg19
(lp161
sg21
I0
sbasg50
(lp162
g130
ag137
ag144
ag151
ag158
asg21
I0
sg52
S'1330'
p163
sba(iArchitecture
Cluster
p164
(dp165
g7
(lp166
(iArchitecture
Entity
p167
(dp168
g11
(lp169
sg13
S'android.sax.BadXmlException'
p170
sg15
(lp171
sg17
(lp172
sg19
(lp173
sg21
I0
sbasg50
(lp174
g170
asg21
I0
sg52
S'1331'
p175
sba(iArchitecture
Cluster
p176
(dp177
g7
(lp178
(iArchitecture
Entity
p179
(dp180
g11
(lp181
sg13
S'android.sax.Element'
p182
sg15
(lp183
sg17
(lp184
sg19
(lp185
sg21
I0
sbasg50
(lp186
g182
asg21
I0
sg52
S'1377'
p187
sba(iArchitecture
Cluster
p188
(dp189
g7
(lp190
(iArchitecture
Entity
p191
(dp192
g11
(lp193
sg13
S'android.sax.Children'
p194
sg15
(lp195
sg17
(lp196
sg19
(lp197
sg21
I0
sba(iArchitecture
Entity
p198
(dp199
g11
(lp200
sg13
S'android.sax.Children$Child'
p201
sg15
(lp202
sg17
(lp203
sg19
(lp204
sg21
I0
sbasg50
(lp205
g194
ag201
asg21
I0
sg52
S'1384'
p206
sba(iArchitecture
Cluster
p207
(dp208
g7
(lp209
(iArchitecture
Entity
p210
(dp211
g11
(lp212
sg13
S'android.sax.RootElement'
p213
sg15
(lp214
sg17
(lp215
sg19
(lp216
sg21
I0
sba(iArchitecture
Entity
p217
(dp218
g11
(lp219
sg13
S'android.sax.RootElement$Handler'
p220
sg15
(lp221
sg17
(lp222
sg19
(lp223
sg21
I0
sbasg50
(lp224
g213
ag220
asg21
I0
sg52
S'504'
p225
sbasg116
g117
sg50
(lp226
sg119
I00
sg52
S'7.0.0_r1'
p227
sba.