(lp0
(iArchitecture
Architecture
p1
(dp2
S'clusters'
p3
(lp4
(iArchitecture
Cluster
p5
(dp6
S'entities'
p7
(lp8
(iArchitecture
Entity
p9
(dp10
S'issue_ids'
p11
(lp12
sS'name'
p13
S'com.android.server.accessibility.TouchExplorer'
p14
sS'descs'
p15
(lp16
sS'labels'
p17
(lp18
sS'titles'
p19
(lp20
sS'change'
p21
I0
sba(iArchitecture
Entity
p22
(dp23
g11
(lp24
sg13
S'com.android.server.accessibility.TouchExplorer$DoubleTapDetector'
p25
sg15
(lp26
sg17
(lp27
sg19
(lp28
sg21
I0
sba(iArchitecture
Entity
p29
(dp30
g11
(lp31
sg13
S'com.android.server.accessibility.TouchExplorer$ExitGestureDetectionModeDelayed'
p32
sg15
(lp33
sg17
(lp34
sg19
(lp35
sg21
I0
sba(iArchitecture
Entity
p36
(dp37
g11
(lp38
sg13
S'com.android.server.accessibility.TouchExplorer$InjectedPointerTracker'
p39
sg15
(lp40
sg17
(lp41
sg19
(lp42
sg21
I0
sba(iArchitecture
Entity
p43
(dp44
g11
(lp45
sg13
S'com.android.server.accessibility.TouchExplorer$PerformLongPressDelayed'
p46
sg15
(lp47
sg17
(lp48
sg19
(lp49
sg21
I0
sba(iArchitecture
Entity
p50
(dp51
g11
(lp52
sg13
S'com.android.server.accessibility.TouchExplorer$ReceivedPointerTracker'
p53
sg15
(lp54
sg17
(lp55
sg19
(lp56
sg21
I0
sba(iArchitecture
Entity
p57
(dp58
g11
(lp59
sg13
S'com.android.server.accessibility.TouchExplorer$SendAccessibilityEventDelayed'
p60
sg15
(lp61
sg17
(lp62
sg19
(lp63
sg21
I0
sba(iArchitecture
Entity
p64
(dp65
g11
(lp66
sg13
S'com.android.server.accessibility.TouchExplorer$SendHoverEnterAndMoveDelayed'
p67
sg15
(lp68
sg17
(lp69
sg19
(lp70
sg21
I0
sba(iArchitecture
Entity
p71
(dp72
g11
(lp73
sg13
S'com.android.server.accessibility.TouchExplorer$SendHoverExitDelayed'
p74
sg15
(lp75
sg17
(lp76
sg19
(lp77
sg21
I0
sbasS'classes'
p78
(lp79
g14
ag25
ag32
ag39
ag46
ag53
ag60
ag67
ag74
asg21
I0
sS'label'
p80
S'1049'
p81
sba(iArchitecture
Cluster
p82
(dp83
g7
(lp84
(iArchitecture
Entity
p85
(dp86
g11
(lp87
sg13
S'com.android.server.accessibility.AccessibilityManagerService'
p88
sg15
(lp89
sg17
(lp90
sg19
(lp91
sg21
I0
sba(iArchitecture
Entity
p92
(dp93
g11
(lp94
sg13
S'com.android.server.accessibility.AccessibilityManagerService$1'
p95
sg15
(lp96
sg17
(lp97
sg19
(lp98
sg21
I0
sba(iArchitecture
Entity
p99
(dp100
g11
(lp101
sg13
S'com.android.server.accessibility.AccessibilityManagerService$2'
p102
sg15
(lp103
sg17
(lp104
sg19
(lp105
sg21
I0
sba(iArchitecture
Entity
p106
(dp107
g11
(lp108
sg13
S'com.android.server.accessibility.AccessibilityManagerService$3'
p109
sg15
(lp110
sg17
(lp111
sg19
(lp112
sg21
I0
sba(iArchitecture
Entity
p113
(dp114
g11
(lp115
sg13
S'com.android.server.accessibility.AccessibilityManagerService$4'
p116
sg15
(lp117
sg17
(lp118
sg19
(lp119
sg21
I0
sba(iArchitecture
Entity
p120
(dp121
g11
(lp122
sg13
S'com.android.server.accessibility.AccessibilityManagerService$AccessibilityConnectionWrapper'
p123
sg15
(lp124
sg17
(lp125
sg19
(lp126
sg21
I0
sba(iArchitecture
Entity
p127
(dp128
g11
(lp129
sg13
S'com.android.server.accessibility.AccessibilityManagerService$AccessibilityContentObserver'
p130
sg15
(lp131
sg17
(lp132
sg19
(lp133
sg21
I0
sba(iArchitecture
Entity
p134
(dp135
g11
(lp136
sg13
S'com.android.server.accessibility.AccessibilityManagerService$InteractionBridge'
p137
sg15
(lp138
sg17
(lp139
sg19
(lp140
sg21
I0
sba(iArchitecture
Entity
p141
(dp142
g11
(lp143
sg13
S'com.android.server.accessibility.AccessibilityManagerService$MainHandler'
p144
sg15
(lp145
sg17
(lp146
sg19
(lp147
sg21
I0
sba(iArchitecture
Entity
p148
(dp149
g11
(lp150
sg13
S'com.android.server.accessibility.AccessibilityManagerService$PendingEvent'
p151
sg15
(lp152
sg17
(lp153
sg19
(lp154
sg21
I0
sba(iArchitecture
Entity
p155
(dp156
g11
(lp157
sg13
S'com.android.server.accessibility.AccessibilityManagerService$SecurityPolicy'
p158
sg15
(lp159
sg17
(lp160
sg19
(lp161
sg21
I0
sba(iArchitecture
Entity
p162
(dp163
g11
(lp164
sg13
S'com.android.server.accessibility.AccessibilityManagerService$Service'
p165
sg15
(lp166
sg17
(lp167
sg19
(lp168
sg21
I0
sba(iArchitecture
Entity
p169
(dp170
g11
(lp171
sg13
S'com.android.server.accessibility.AccessibilityManagerService$Service$1'
p172
sg15
(lp173
sg17
(lp174
sg19
(lp175
sg21
I0
sba(iArchitecture
Entity
p176
(dp177
g11
(lp178
sg13
S'com.android.server.accessibility.AccessibilityManagerService$Service$2'
p179
sg15
(lp180
sg17
(lp181
sg19
(lp182
sg21
I0
sba(iArchitecture
Entity
p183
(dp184
g11
(lp185
sg13
S'com.android.server.accessibility.AccessibilityManagerService$Service$InvocationHandler'
p186
sg15
(lp187
sg17
(lp188
sg19
(lp189
sg21
I0
sba(iArchitecture
Entity
p190
(dp191
g11
(lp192
sg13
S'com.android.server.accessibility.AccessibilityManagerService$Service$KeyEventDispatcher'
p193
sg15
(lp194
sg17
(lp195
sg19
(lp196
sg21
I0
sba(iArchitecture
Entity
p197
(dp198
g11
(lp199
sg13
S'com.android.server.accessibility.AccessibilityManagerService$UserState'
p200
sg15
(lp201
sg17
(lp202
sg19
(lp203
sg21
I0
sba(iArchitecture
Entity
p204
(dp205
g11
(lp206
sg13
S'com.android.server.accessibility.AccessibilityManagerService$UserState$1'
p207
sg15
(lp208
sg17
(lp209
sg19
(lp210
sg21
I0
sba(iArchitecture
Entity
p211
(dp212
g11
(lp213
sg13
S'com.android.server.accessibility.AccessibilityManagerService$WindowsForAccessibilityCallback'
p214
sg15
(lp215
sg17
(lp216
sg19
(lp217
sg21
I0
sbasg78
(lp218
g88
ag95
ag102
ag109
ag116
ag123
ag130
ag137
ag144
ag151
ag158
ag165
ag172
ag179
ag186
ag193
ag200
ag207
ag214
asg21
I0
sg80
S'1091'
p219
sba(iArchitecture
Cluster
p220
(dp221
g7
(lp222
(iArchitecture
Entity
p223
(dp224
g11
(lp225
sg13
S'com.android.server.accessibility.EventStreamTransformation'
p226
sg15
(lp227
sg17
(lp228
sg19
(lp229
sg21
I0
sbasg78
(lp230
g226
asg21
I0
sg80
S'1246'
p231
sba(iArchitecture
Cluster
p232
(dp233
g7
(lp234
(iArchitecture
Entity
p235
(dp236
g11
(lp237
sg13
S'com.android.server.accessibility.DisplayAdjustmentUtils'
p238
sg15
(lp239
sg17
(lp240
sg19
(lp241
sg21
I0
sbasg78
(lp242
g238
asg21
I0
sg80
S'375'
p243
sba(iArchitecture
Cluster
p244
(dp245
g7
(lp246
(iArchitecture
Entity
p247
(dp248
g11
(lp249
sg13
S'com.android.server.accessibility.GestureUtils'
p250
sg15
(lp251
sg17
(lp252
sg19
(lp253
sg21
I0
sbasg78
(lp254
g250
asg21
I0
sg80
S'415'
p255
sba(iArchitecture
Cluster
p256
(dp257
g7
(lp258
(iArchitecture
Entity
p259
(dp260
g11
(lp261
sg13
S'com.android.server.accessibility.AccessibilityInputFilter'
p262
sg15
(lp263
sg17
(lp264
sg19
(lp265
sg21
I0
sba(iArchitecture
Entity
p266
(dp267
g11
(lp268
sg13
S'com.android.server.accessibility.AccessibilityInputFilter$1'
p269
sg15
(lp270
sg17
(lp271
sg19
(lp272
sg21
I0
sba(iArchitecture
Entity
p273
(dp274
g11
(lp275
sg13
S'com.android.server.accessibility.AccessibilityInputFilter$MotionEventHolder'
p276
sg15
(lp277
sg17
(lp278
sg19
(lp279
sg21
I0
sbasg78
(lp280
g262
ag269
ag276
asg21
I0
sg80
S'834'
p281
sbasS'target_sub'
p282
S'com.android.server.accessibility'
p283
sg78
(lp284
sS'is_component_arch'
p285
I00
sg80
S'6.0.0_r1'
p286
sba(iArchitecture
Architecture
p287
(dp288
g3
(lp289
(iArchitecture
Cluster
p290
(dp291
g7
(lp292
(iArchitecture
Entity
p293
(dp294
g11
(lp295
sg13
S'com.android.server.accessibility.AccessibilityInputFilter'
p296
sg15
(lp297
sg17
(lp298
sg19
(lp299
sg21
I0
sba(iArchitecture
Entity
p300
(dp301
g11
(lp302
sg13
S'com.android.server.accessibility.AccessibilityInputFilter$1'
p303
sg15
(lp304
sg17
(lp305
sg19
(lp306
sg21
I0
sba(iArchitecture
Entity
p307
(dp308
g11
(lp309
sg13
S'com.android.server.accessibility.AccessibilityInputFilter$EventStreamState'
p310
sg15
(lp311
sg17
(lp312
sg19
(lp313
sg21
I0
sba(iArchitecture
Entity
p314
(dp315
g11
(lp316
sg13
S'com.android.server.accessibility.AccessibilityInputFilter$KeyboardEventStreamState'
p317
sg15
(lp318
sg17
(lp319
sg19
(lp320
sg21
I0
sba(iArchitecture
Entity
p321
(dp322
g11
(lp323
sg13
S'com.android.server.accessibility.AccessibilityInputFilter$MotionEventHolder'
p324
sg15
(lp325
sg17
(lp326
sg19
(lp327
sg21
I0
sba(iArchitecture
Entity
p328
(dp329
g11
(lp330
sg13
S'com.android.server.accessibility.AccessibilityInputFilter$MouseEventStreamState'
p331
sg15
(lp332
sg17
(lp333
sg19
(lp334
sg21
I0
sba(iArchitecture
Entity
p335
(dp336
g11
(lp337
sg13
S'com.android.server.accessibility.AccessibilityInputFilter$TouchScreenEventStreamState'
p338
sg15
(lp339
sg17
(lp340
sg19
(lp341
sg21
I0
sbasg78
(lp342
g296
ag303
ag310
ag317
ag324
ag331
ag338
asg21
I0
sg80
S'1165'
p343
sba(iArchitecture
Cluster
p344
(dp345
g7
(lp346
(iArchitecture
Entity
p347
(dp348
g11
(lp349
sg13
S'com.android.server.accessibility.MagnificationController'
p350
sg15
(lp351
sg17
(lp352
sg19
(lp353
sg21
I0
sba(iArchitecture
Entity
p354
(dp355
g11
(lp356
sg13
S'com.android.server.accessibility.MagnificationController$1'
p357
sg15
(lp358
sg17
(lp359
sg19
(lp360
sg21
I0
sba(iArchitecture
Entity
p361
(dp362
g11
(lp363
sg13
S'com.android.server.accessibility.MagnificationController$ScreenStateObserver'
p364
sg15
(lp365
sg17
(lp366
sg19
(lp367
sg21
I0
sba(iArchitecture
Entity
p368
(dp369
g11
(lp370
sg13
S'com.android.server.accessibility.MagnificationController$ScreenStateObserver$StateChangeHandler'
p371
sg15
(lp372
sg17
(lp373
sg19
(lp374
sg21
I0
sba(iArchitecture
Entity
p375
(dp376
g11
(lp377
sg13
S'com.android.server.accessibility.MagnificationController$SpecAnimationBridge'
p378
sg15
(lp379
sg17
(lp380
sg19
(lp381
sg21
I0
sba(iArchitecture
Entity
p382
(dp383
g11
(lp384
sg13
S'com.android.server.accessibility.MagnificationController$SpecAnimationBridge$MagnificationSpecEvaluator'
p385
sg15
(lp386
sg17
(lp387
sg19
(lp388
sg21
I0
sba(iArchitecture
Entity
p389
(dp390
g11
(lp391
sg13
S'com.android.server.accessibility.MagnificationController$SpecAnimationBridge$MagnificationSpecProperty'
p392
sg15
(lp393
sg17
(lp394
sg19
(lp395
sg21
I0
sba(iArchitecture
Entity
p396
(dp397
g11
(lp398
sg13
S'com.android.server.accessibility.MagnificationController$SpecAnimationBridge$UpdateHandler'
p399
sg15
(lp400
sg17
(lp401
sg19
(lp402
sg21
I0
sba(iArchitecture
Entity
p403
(dp404
g11
(lp405
sg13
S'com.android.server.accessibility.MagnificationController$WindowStateObserver'
p406
sg15
(lp407
sg17
(lp408
sg19
(lp409
sg21
I0
sba(iArchitecture
Entity
p410
(dp411
g11
(lp412
sg13
S'com.android.server.accessibility.MagnificationController$WindowStateObserver$CallbackHandler'
p413
sg15
(lp414
sg17
(lp415
sg19
(lp416
sg21
I0
sbasg78
(lp417
g350
ag357
ag364
ag371
ag378
ag385
ag392
ag399
ag406
ag413
asg21
I0
sg80
S'1191'
p418
sba(iArchitecture
Cluster
p419
(dp420
g7
(lp421
(iArchitecture
Entity
p422
(dp423
g11
(lp424
sg13
S'com.android.server.accessibility.MagnificationGestureHandler'
p425
sg15
(lp426
sg17
(lp427
sg19
(lp428
sg21
I0
sba(iArchitecture
Entity
p429
(dp430
g11
(lp431
sg13
S'com.android.server.accessibility.MagnificationGestureHandler$DetectingStateHandler'
p432
sg15
(lp433
sg17
(lp434
sg19
(lp435
sg21
I0
sba(iArchitecture
Entity
p436
(dp437
g11
(lp438
sg13
S'com.android.server.accessibility.MagnificationGestureHandler$DetectingStateHandler$1'
p439
sg15
(lp440
sg17
(lp441
sg19
(lp442
sg21
I0
sba(iArchitecture
Entity
p443
(dp444
g11
(lp445
sg13
S'com.android.server.accessibility.MagnificationGestureHandler$MagnifiedContentInteractionStateHandler'
p446
sg15
(lp447
sg17
(lp448
sg19
(lp449
sg21
I0
sba(iArchitecture
Entity
p450
(dp451
g11
(lp452
sg13
S'com.android.server.accessibility.MagnificationGestureHandler$MotionEventHandler'
p453
sg15
(lp454
sg17
(lp455
sg19
(lp456
sg21
I0
sba(iArchitecture
Entity
p457
(dp458
g11
(lp459
sg13
S'com.android.server.accessibility.MagnificationGestureHandler$MotionEventInfo'
p460
sg15
(lp461
sg17
(lp462
sg19
(lp463
sg21
I0
sba(iArchitecture
Entity
p464
(dp465
g11
(lp466
sg13
S'com.android.server.accessibility.MagnificationGestureHandler$StateViewportDraggingHandler'
p467
sg15
(lp468
sg17
(lp469
sg19
(lp470
sg21
I0
sba(iArchitecture
Entity
p471
(dp472
g11
(lp473
sg13
S'com.android.server.accessibility.TouchExplorer'
p474
sg15
(lp475
sg17
(lp476
sg19
(lp477
sg21
I0
sba(iArchitecture
Entity
p478
(dp479
g11
(lp480
sg13
S'com.android.server.accessibility.TouchExplorer$ExitGestureDetectionModeDelayed'
p481
sg15
(lp482
sg17
(lp483
sg19
(lp484
sg21
I0
sba(iArchitecture
Entity
p485
(dp486
g11
(lp487
sg13
S'com.android.server.accessibility.TouchExplorer$InjectedPointerTracker'
p488
sg15
(lp489
sg17
(lp490
sg19
(lp491
sg21
I0
sba(iArchitecture
Entity
p492
(dp493
g11
(lp494
sg13
S'com.android.server.accessibility.TouchExplorer$ReceivedPointerTracker'
p495
sg15
(lp496
sg17
(lp497
sg19
(lp498
sg21
I0
sba(iArchitecture
Entity
p499
(dp500
g11
(lp501
sg13
S'com.android.server.accessibility.TouchExplorer$SendAccessibilityEventDelayed'
p502
sg15
(lp503
sg17
(lp504
sg19
(lp505
sg21
I0
sba(iArchitecture
Entity
p506
(dp507
g11
(lp508
sg13
S'com.android.server.accessibility.TouchExplorer$SendHoverEnterAndMoveDelayed'
p509
sg15
(lp510
sg17
(lp511
sg19
(lp512
sg21
I0
sba(iArchitecture
Entity
p513
(dp514
g11
(lp515
sg13
S'com.android.server.accessibility.TouchExplorer$SendHoverExitDelayed'
p516
sg15
(lp517
sg17
(lp518
sg19
(lp519
sg21
I0
sbasg78
(lp520
g425
ag432
ag439
ag446
ag453
ag460
ag467
ag474
ag481
ag488
ag495
ag502
ag509
ag516
asg21
I0
sg80
S'1323'
p521
sba(iArchitecture
Cluster
p522
(dp523
g7
(lp524
(iArchitecture
Entity
p525
(dp526
g11
(lp527
sg13
S'com.android.server.accessibility.EventStreamTransformation'
p528
sg15
(lp529
sg17
(lp530
sg19
(lp531
sg21
I0
sba(iArchitecture
Entity
p532
(dp533
g11
(lp534
sg13
S'com.android.server.accessibility.KeyboardInterceptor'
p535
sg15
(lp536
sg17
(lp537
sg19
(lp538
sg21
I0
sbasg78
(lp539
g528
ag535
asg21
I0
sg80
S'1330'
p540
sba(iArchitecture
Cluster
p541
(dp542
g7
(lp543
(iArchitecture
Entity
p544
(dp545
g11
(lp546
sg13
S'com.android.server.accessibility.AccessibilityManagerService'
p547
sg15
(lp548
sg17
(lp549
sg19
(lp550
sg21
I0
sba(iArchitecture
Entity
p551
(dp552
g11
(lp553
sg13
S'com.android.server.accessibility.AccessibilityManagerService$1'
p554
sg15
(lp555
sg17
(lp556
sg19
(lp557
sg21
I0
sba(iArchitecture
Entity
p558
(dp559
g11
(lp560
sg13
S'com.android.server.accessibility.AccessibilityManagerService$2'
p561
sg15
(lp562
sg17
(lp563
sg19
(lp564
sg21
I0
sba(iArchitecture
Entity
p565
(dp566
g11
(lp567
sg13
S'com.android.server.accessibility.AccessibilityManagerService$3'
p568
sg15
(lp569
sg17
(lp570
sg19
(lp571
sg21
I0
sba(iArchitecture
Entity
p572
(dp573
g11
(lp574
sg13
S'com.android.server.accessibility.AccessibilityManagerService$4'
p575
sg15
(lp576
sg17
(lp577
sg19
(lp578
sg21
I0
sba(iArchitecture
Entity
p579
(dp580
g11
(lp581
sg13
S'com.android.server.accessibility.AccessibilityManagerService$AccessibilityConnectionWrapper'
p582
sg15
(lp583
sg17
(lp584
sg19
(lp585
sg21
I0
sba(iArchitecture
Entity
p586
(dp587
g11
(lp588
sg13
S'com.android.server.accessibility.AccessibilityManagerService$AccessibilityContentObserver'
p589
sg15
(lp590
sg17
(lp591
sg19
(lp592
sg21
I0
sba(iArchitecture
Entity
p593
(dp594
g11
(lp595
sg13
S'com.android.server.accessibility.AccessibilityManagerService$InteractionBridge'
p596
sg15
(lp597
sg17
(lp598
sg19
(lp599
sg21
I0
sba(iArchitecture
Entity
p600
(dp601
g11
(lp602
sg13
S'com.android.server.accessibility.AccessibilityManagerService$MainHandler'
p603
sg15
(lp604
sg17
(lp605
sg19
(lp606
sg21
I0
sba(iArchitecture
Entity
p607
(dp608
g11
(lp609
sg13
S'com.android.server.accessibility.AccessibilityManagerService$SecurityPolicy'
p610
sg15
(lp611
sg17
(lp612
sg19
(lp613
sg21
I0
sba(iArchitecture
Entity
p614
(dp615
g11
(lp616
sg13
S'com.android.server.accessibility.AccessibilityManagerService$Service'
p617
sg15
(lp618
sg17
(lp619
sg19
(lp620
sg21
I0
sba(iArchitecture
Entity
p621
(dp622
g11
(lp623
sg13
S'com.android.server.accessibility.AccessibilityManagerService$Service$1'
p624
sg15
(lp625
sg17
(lp626
sg19
(lp627
sg21
I0
sba(iArchitecture
Entity
p628
(dp629
g11
(lp630
sg13
S'com.android.server.accessibility.AccessibilityManagerService$Service$2'
p631
sg15
(lp632
sg17
(lp633
sg19
(lp634
sg21
I0
sba(iArchitecture
Entity
p635
(dp636
g11
(lp637
sg13
S'com.android.server.accessibility.AccessibilityManagerService$Service$InvocationHandler'
p638
sg15
(lp639
sg17
(lp640
sg19
(lp641
sg21
I0
sba(iArchitecture
Entity
p642
(dp643
g11
(lp644
sg13
S'com.android.server.accessibility.AccessibilityManagerService$SettingsStringHelper'
p645
sg15
(lp646
sg17
(lp647
sg19
(lp648
sg21
I0
sba(iArchitecture
Entity
p649
(dp650
g11
(lp651
sg13
S'com.android.server.accessibility.AccessibilityManagerService$UserState'
p652
sg15
(lp653
sg17
(lp654
sg19
(lp655
sg21
I0
sba(iArchitecture
Entity
p656
(dp657
g11
(lp658
sg13
S'com.android.server.accessibility.AccessibilityManagerService$UserState$1'
p659
sg15
(lp660
sg17
(lp661
sg19
(lp662
sg21
I0
sba(iArchitecture
Entity
p663
(dp664
g11
(lp665
sg13
S'com.android.server.accessibility.AccessibilityManagerService$WindowsForAccessibilityCallback'
p666
sg15
(lp667
sg17
(lp668
sg19
(lp669
sg21
I0
sbasg78
(lp670
g547
ag554
ag561
ag568
ag575
ag582
ag589
ag596
ag603
ag610
ag617
ag624
ag631
ag638
ag645
ag652
ag659
ag666
asg21
I0
sg80
S'1406'
p671
sba(iArchitecture
Cluster
p672
(dp673
g7
(lp674
(iArchitecture
Entity
p675
(dp676
g11
(lp677
sg13
S'com.android.server.accessibility.DisplayAdjustmentUtils'
p678
sg15
(lp679
sg17
(lp680
sg19
(lp681
sg21
I0
sbasg78
(lp682
g678
asg21
I0
sg80
S'411'
p683
sba(iArchitecture
Cluster
p684
(dp685
g7
(lp686
(iArchitecture
Entity
p687
(dp688
g11
(lp689
sg13
S'com.android.server.accessibility.GestureUtils'
p690
sg15
(lp691
sg17
(lp692
sg19
(lp693
sg21
I0
sbasg78
(lp694
g690
asg21
I0
sg80
S'458'
p695
sba(iArchitecture
Cluster
p696
(dp697
g7
(lp698
(iArchitecture
Entity
p699
(dp700
g11
(lp701
sg13
S'com.android.server.accessibility.AccessibilityGestureDetector'
p702
sg15
(lp703
sg17
(lp704
sg19
(lp705
sg21
I0
sba(iArchitecture
Entity
p706
(dp707
g11
(lp708
sg13
S'com.android.server.accessibility.AccessibilityGestureDetector$Listener'
p709
sg15
(lp710
sg17
(lp711
sg19
(lp712
sg21
I0
sbasg78
(lp713
g702
ag709
asg21
I0
sg80
S'577'
p714
sba(iArchitecture
Cluster
p715
(dp716
g7
(lp717
(iArchitecture
Entity
p718
(dp719
g11
(lp720
sg13
S'com.android.server.accessibility.MotionEventInjector'
p721
sg15
(lp722
sg17
(lp723
sg19
(lp724
sg21
I0
sba(iArchitecture
Entity
p725
(dp726
g11
(lp727
sg13
S'com.android.server.accessibility.MotionEventInjector$Callback'
p728
sg15
(lp729
sg17
(lp730
sg19
(lp731
sg21
I0
sbasg78
(lp732
g721
ag728
asg21
I0
sg80
S'724'
p733
sba(iArchitecture
Cluster
p734
(dp735
g7
(lp736
(iArchitecture
Entity
p737
(dp738
g11
(lp739
sg13
S'com.android.server.accessibility.AutoclickController'
p740
sg15
(lp741
sg17
(lp742
sg19
(lp743
sg21
I0
sba(iArchitecture
Entity
p744
(dp745
g11
(lp746
sg13
S'com.android.server.accessibility.AutoclickController$ClickDelayObserver'
p747
sg15
(lp748
sg17
(lp749
sg19
(lp750
sg21
I0
sba(iArchitecture
Entity
p751
(dp752
g11
(lp753
sg13
S'com.android.server.accessibility.AutoclickController$ClickScheduler'
p754
sg15
(lp755
sg17
(lp756
sg19
(lp757
sg21
I0
sbasg78
(lp758
g740
ag747
ag754
asg21
I0
sg80
S'852'
p759
sba(iArchitecture
Cluster
p760
(dp761
g7
(lp762
(iArchitecture
Entity
p763
(dp764
g11
(lp765
sg13
S'com.android.server.accessibility.KeyEventDispatcher'
p766
sg15
(lp767
sg17
(lp768
sg19
(lp769
sg21
I0
sba(iArchitecture
Entity
p770
(dp771
g11
(lp772
sg13
S'com.android.server.accessibility.KeyEventDispatcher$Callback'
p773
sg15
(lp774
sg17
(lp775
sg19
(lp776
sg21
I0
sba(iArchitecture
Entity
p777
(dp778
g11
(lp779
sg13
S'com.android.server.accessibility.KeyEventDispatcher$PendingKeyEvent'
p780
sg15
(lp781
sg17
(lp782
sg19
(lp783
sg21
I0
sbasg78
(lp784
g766
ag773
ag780
asg21
I0
sg80
S'989'
p785
sbasg282
g283
sg78
(lp786
sg285
I00
sg80
S'7.0.0_r1'
p787
sba.