(lp0
(iArchitecture
Architecture
p1
(dp2
S'clusters'
p3
(lp4
(iArchitecture
Cluster
p5
(dp6
S'entities'
p7
(lp8
(iArchitecture
Entity
p9
(dp10
S'issue_ids'
p11
(lp12
sS'name'
p13
S'com.android.server.fingerprint.FingerprintService'
p14
sS'descs'
p15
(lp16
sS'labels'
p17
(lp18
sS'titles'
p19
(lp20
sS'change'
p21
I0
sba(iArchitecture
Entity
p22
(dp23
g11
(lp24
sg13
S'com.android.server.fingerprint.FingerprintService$1'
p25
sg15
(lp26
sg17
(lp27
sg19
(lp28
sg21
I0
sba(iArchitecture
Entity
p29
(dp30
g11
(lp31
sg13
S'com.android.server.fingerprint.FingerprintService$2'
p32
sg15
(lp33
sg17
(lp34
sg19
(lp35
sg21
I0
sba(iArchitecture
Entity
p36
(dp37
g11
(lp38
sg13
S'com.android.server.fingerprint.FingerprintService$3'
p39
sg15
(lp40
sg17
(lp41
sg19
(lp42
sg21
I0
sba(iArchitecture
Entity
p43
(dp44
g11
(lp45
sg13
S'com.android.server.fingerprint.FingerprintService$4'
p46
sg15
(lp47
sg17
(lp48
sg19
(lp49
sg21
I0
sba(iArchitecture
Entity
p50
(dp51
g11
(lp52
sg13
S'com.android.server.fingerprint.FingerprintService$ClientMonitor'
p53
sg15
(lp54
sg17
(lp55
sg19
(lp56
sg21
I0
sba(iArchitecture
Entity
p57
(dp58
g11
(lp59
sg13
S'com.android.server.fingerprint.FingerprintService$FingerprintServiceWrapper'
p60
sg15
(lp61
sg17
(lp62
sg19
(lp63
sg21
I0
sba(iArchitecture
Entity
p64
(dp65
g11
(lp66
sg13
S'com.android.server.fingerprint.FingerprintService$FingerprintServiceWrapper$1'
p67
sg15
(lp68
sg17
(lp69
sg19
(lp70
sg21
I0
sba(iArchitecture
Entity
p71
(dp72
g11
(lp73
sg13
S'com.android.server.fingerprint.FingerprintService$FingerprintServiceWrapper$2'
p74
sg15
(lp75
sg17
(lp76
sg19
(lp77
sg21
I0
sba(iArchitecture
Entity
p78
(dp79
g11
(lp80
sg13
S'com.android.server.fingerprint.FingerprintService$FingerprintServiceWrapper$3'
p81
sg15
(lp82
sg17
(lp83
sg19
(lp84
sg21
I0
sba(iArchitecture
Entity
p85
(dp86
g11
(lp87
sg13
S'com.android.server.fingerprint.FingerprintService$FingerprintServiceWrapper$4'
p88
sg15
(lp89
sg17
(lp90
sg19
(lp91
sg21
I0
sba(iArchitecture
Entity
p92
(dp93
g11
(lp94
sg13
S'com.android.server.fingerprint.FingerprintService$FingerprintServiceWrapper$5'
p95
sg15
(lp96
sg17
(lp97
sg19
(lp98
sg21
I0
sba(iArchitecture
Entity
p99
(dp100
g11
(lp101
sg13
S'com.android.server.fingerprint.FingerprintService$FingerprintServiceWrapper$6'
p102
sg15
(lp103
sg17
(lp104
sg19
(lp105
sg21
I0
sbasS'classes'
p106
(lp107
g14
ag25
ag32
ag39
ag46
ag53
ag60
ag67
ag74
ag81
ag88
ag95
ag102
asg21
I0
sS'label'
p108
S'1077'
p109
sba(iArchitecture
Cluster
p110
(dp111
g7
(lp112
(iArchitecture
Entity
p113
(dp114
g11
(lp115
sg13
S'com.android.server.fingerprint.FingerprintsUserState'
p116
sg15
(lp117
sg17
(lp118
sg19
(lp119
sg21
I0
sba(iArchitecture
Entity
p120
(dp121
g11
(lp122
sg13
S'com.android.server.fingerprint.FingerprintsUserState$1'
p123
sg15
(lp124
sg17
(lp125
sg19
(lp126
sg21
I0
sbasg106
(lp127
g116
ag123
asg21
I0
sg108
S'1246'
p128
sba(iArchitecture
Cluster
p129
(dp130
g7
(lp131
(iArchitecture
Entity
p132
(dp133
g11
(lp134
sg13
S'com.android.server.fingerprint.FingerprintUtils'
p135
sg15
(lp136
sg17
(lp137
sg19
(lp138
sg21
I0
sbasg106
(lp139
g135
asg21
I0
sg108
S'386'
p140
sbasS'target_sub'
p141
S'com.android.server.fingerprint'
p142
sg106
(lp143
sS'is_component_arch'
p144
I00
sg108
S'6.0.0_r1'
p145
sba(iArchitecture
Architecture
p146
(dp147
g3
(lp148
(iArchitecture
Cluster
p149
(dp150
g7
(lp151
(iArchitecture
Entity
p152
(dp153
g11
(lp154
sg13
S'com.android.server.fingerprint.FingerprintService'
p155
sg15
(lp156
sg17
(lp157
sg19
(lp158
sg21
I0
sba(iArchitecture
Entity
p159
(dp160
g11
(lp161
sg13
S'com.android.server.fingerprint.FingerprintService$1'
p162
sg15
(lp163
sg17
(lp164
sg19
(lp165
sg21
I0
sba(iArchitecture
Entity
p166
(dp167
g11
(lp168
sg13
S'com.android.server.fingerprint.FingerprintService$2'
p169
sg15
(lp170
sg17
(lp171
sg19
(lp172
sg21
I0
sba(iArchitecture
Entity
p173
(dp174
g11
(lp175
sg13
S'com.android.server.fingerprint.FingerprintService$3'
p176
sg15
(lp177
sg17
(lp178
sg19
(lp179
sg21
I0
sba(iArchitecture
Entity
p180
(dp181
g11
(lp182
sg13
S'com.android.server.fingerprint.FingerprintService$4'
p183
sg15
(lp184
sg17
(lp185
sg19
(lp186
sg21
I0
sba(iArchitecture
Entity
p187
(dp188
g11
(lp189
sg13
S'com.android.server.fingerprint.FingerprintService$5'
p190
sg15
(lp191
sg17
(lp192
sg19
(lp193
sg21
I0
sba(iArchitecture
Entity
p194
(dp195
g11
(lp196
sg13
S'com.android.server.fingerprint.FingerprintService$5$1'
p197
sg15
(lp198
sg17
(lp199
sg19
(lp200
sg21
I0
sba(iArchitecture
Entity
p201
(dp202
g11
(lp203
sg13
S'com.android.server.fingerprint.FingerprintService$5$2'
p204
sg15
(lp205
sg17
(lp206
sg19
(lp207
sg21
I0
sba(iArchitecture
Entity
p208
(dp209
g11
(lp210
sg13
S'com.android.server.fingerprint.FingerprintService$5$3'
p211
sg15
(lp212
sg17
(lp213
sg19
(lp214
sg21
I0
sba(iArchitecture
Entity
p215
(dp216
g11
(lp217
sg13
S'com.android.server.fingerprint.FingerprintService$5$4'
p218
sg15
(lp219
sg17
(lp220
sg19
(lp221
sg21
I0
sba(iArchitecture
Entity
p222
(dp223
g11
(lp224
sg13
S'com.android.server.fingerprint.FingerprintService$5$5'
p225
sg15
(lp226
sg17
(lp227
sg19
(lp228
sg21
I0
sba(iArchitecture
Entity
p229
(dp230
g11
(lp231
sg13
S'com.android.server.fingerprint.FingerprintService$5$6'
p232
sg15
(lp233
sg17
(lp234
sg19
(lp235
sg21
I0
sba(iArchitecture
Entity
p236
(dp237
g11
(lp238
sg13
S'com.android.server.fingerprint.FingerprintService$6'
p239
sg15
(lp240
sg17
(lp241
sg19
(lp242
sg21
I0
sba(iArchitecture
Entity
p243
(dp244
g11
(lp245
sg13
S'com.android.server.fingerprint.FingerprintService$7'
p246
sg15
(lp247
sg17
(lp248
sg19
(lp249
sg21
I0
sba(iArchitecture
Entity
p250
(dp251
g11
(lp252
sg13
S'com.android.server.fingerprint.FingerprintService$8'
p253
sg15
(lp254
sg17
(lp255
sg19
(lp256
sg21
I0
sba(iArchitecture
Entity
p257
(dp258
g11
(lp259
sg13
S'com.android.server.fingerprint.FingerprintService$9'
p260
sg15
(lp261
sg17
(lp262
sg19
(lp263
sg21
I0
sba(iArchitecture
Entity
p264
(dp265
g11
(lp266
sg13
S'com.android.server.fingerprint.FingerprintService$FingerprintServiceLockoutResetMonitor'
p267
sg15
(lp268
sg17
(lp269
sg19
(lp270
sg21
I0
sba(iArchitecture
Entity
p271
(dp272
g11
(lp273
sg13
S'com.android.server.fingerprint.FingerprintService$FingerprintServiceLockoutResetMonitor$1'
p274
sg15
(lp275
sg17
(lp276
sg19
(lp277
sg21
I0
sba(iArchitecture
Entity
p278
(dp279
g11
(lp280
sg13
S'com.android.server.fingerprint.FingerprintService$FingerprintServiceWrapper'
p281
sg15
(lp282
sg17
(lp283
sg19
(lp284
sg21
I0
sba(iArchitecture
Entity
p285
(dp286
g11
(lp287
sg13
S'com.android.server.fingerprint.FingerprintService$FingerprintServiceWrapper$1'
p288
sg15
(lp289
sg17
(lp290
sg19
(lp291
sg21
I0
sba(iArchitecture
Entity
p292
(dp293
g11
(lp294
sg13
S'com.android.server.fingerprint.FingerprintService$FingerprintServiceWrapper$2'
p295
sg15
(lp296
sg17
(lp297
sg19
(lp298
sg21
I0
sba(iArchitecture
Entity
p299
(dp300
g11
(lp301
sg13
S'com.android.server.fingerprint.FingerprintService$FingerprintServiceWrapper$3'
p302
sg15
(lp303
sg17
(lp304
sg19
(lp305
sg21
I0
sba(iArchitecture
Entity
p306
(dp307
g11
(lp308
sg13
S'com.android.server.fingerprint.FingerprintService$FingerprintServiceWrapper$4'
p309
sg15
(lp310
sg17
(lp311
sg19
(lp312
sg21
I0
sba(iArchitecture
Entity
p313
(dp314
g11
(lp315
sg13
S'com.android.server.fingerprint.FingerprintService$FingerprintServiceWrapper$5'
p316
sg15
(lp317
sg17
(lp318
sg19
(lp319
sg21
I0
sba(iArchitecture
Entity
p320
(dp321
g11
(lp322
sg13
S'com.android.server.fingerprint.FingerprintService$FingerprintServiceWrapper$6'
p323
sg15
(lp324
sg17
(lp325
sg19
(lp326
sg21
I0
sba(iArchitecture
Entity
p327
(dp328
g11
(lp329
sg13
S'com.android.server.fingerprint.FingerprintService$FingerprintServiceWrapper$7'
p330
sg15
(lp331
sg17
(lp332
sg19
(lp333
sg21
I0
sba(iArchitecture
Entity
p334
(dp335
g11
(lp336
sg13
S'com.android.server.fingerprint.FingerprintService$FingerprintServiceWrapper$8'
p337
sg15
(lp338
sg17
(lp339
sg19
(lp340
sg21
I0
sbasg106
(lp341
g155
ag162
ag169
ag176
ag183
ag190
ag197
ag204
ag211
ag218
ag225
ag232
ag239
ag246
ag253
ag260
ag267
ag274
ag281
ag288
ag295
ag302
ag309
ag316
ag323
ag330
ag337
asg21
I0
sg108
S'1231'
p342
sba(iArchitecture
Cluster
p343
(dp344
g7
(lp345
(iArchitecture
Entity
p346
(dp347
g11
(lp348
sg13
S'com.android.server.fingerprint.AuthenticationClient'
p349
sg15
(lp350
sg17
(lp351
sg19
(lp352
sg21
I0
sba(iArchitecture
Entity
p353
(dp354
g11
(lp355
sg13
S'com.android.server.fingerprint.ClientMonitor'
p356
sg15
(lp357
sg17
(lp358
sg19
(lp359
sg21
I0
sba(iArchitecture
Entity
p360
(dp361
g11
(lp362
sg13
S'com.android.server.fingerprint.EnrollClient'
p363
sg15
(lp364
sg17
(lp365
sg19
(lp366
sg21
I0
sba(iArchitecture
Entity
p367
(dp368
g11
(lp369
sg13
S'com.android.server.fingerprint.EnumerateClient'
p370
sg15
(lp371
sg17
(lp372
sg19
(lp373
sg21
I0
sba(iArchitecture
Entity
p374
(dp375
g11
(lp376
sg13
S'com.android.server.fingerprint.RemovalClient'
p377
sg15
(lp378
sg17
(lp379
sg19
(lp380
sg21
I0
sbasg106
(lp381
g349
ag356
ag363
ag370
ag377
asg21
I0
sg108
S'1306'
p382
sba(iArchitecture
Cluster
p383
(dp384
g7
(lp385
(iArchitecture
Entity
p386
(dp387
g11
(lp388
sg13
S'com.android.server.fingerprint.FingerprintsUserState'
p389
sg15
(lp390
sg17
(lp391
sg19
(lp392
sg21
I0
sba(iArchitecture
Entity
p393
(dp394
g11
(lp395
sg13
S'com.android.server.fingerprint.FingerprintsUserState$1'
p396
sg15
(lp397
sg17
(lp398
sg19
(lp399
sg21
I0
sbasg106
(lp400
g389
ag396
asg21
I0
sg108
S'1330'
p401
sba(iArchitecture
Cluster
p402
(dp403
g7
(lp404
(iArchitecture
Entity
p405
(dp406
g11
(lp407
sg13
S'com.android.server.fingerprint.FingerprintUtils'
p408
sg15
(lp409
sg17
(lp410
sg19
(lp411
sg21
I0
sbasg106
(lp412
g408
asg21
I0
sg108
S'423'
p413
sbasg141
g142
sg106
(lp414
sg144
I00
sg108
S'7.0.0_r1'
p415
sba.