(lp0
(iArchitecture
Architecture
p1
(dp2
S'clusters'
p3
(lp4
(iArchitecture
Cluster
p5
(dp6
S'entities'
p7
(lp8
(iArchitecture
Entity
p9
(dp10
S'issue_ids'
p11
(lp12
sS'name'
p13
S'android.service.textservice.SpellCheckerService'
p14
sS'descs'
p15
(lp16
sS'labels'
p17
(lp18
sS'titles'
p19
(lp20
sS'change'
p21
I0
sba(iArchitecture
Entity
p22
(dp23
g11
(lp24
sg13
S'android.service.textservice.SpellCheckerService$InternalISpellCheckerSession'
p25
sg15
(lp26
sg17
(lp27
sg19
(lp28
sg21
I0
sba(iArchitecture
Entity
p29
(dp30
g11
(lp31
sg13
S'android.service.textservice.SpellCheckerService$SentenceLevelAdapter'
p32
sg15
(lp33
sg17
(lp34
sg19
(lp35
sg21
I0
sba(iArchitecture
Entity
p36
(dp37
g11
(lp38
sg13
S'android.service.textservice.SpellCheckerService$SentenceLevelAdapter$SentenceTextInfoParams'
p39
sg15
(lp40
sg17
(lp41
sg19
(lp42
sg21
I0
sba(iArchitecture
Entity
p43
(dp44
g11
(lp45
sg13
S'android.service.textservice.SpellCheckerService$SentenceLevelAdapter$SentenceWordItem'
p46
sg15
(lp47
sg17
(lp48
sg19
(lp49
sg21
I0
sba(iArchitecture
Entity
p50
(dp51
g11
(lp52
sg13
S'android.service.textservice.SpellCheckerService$Session'
p53
sg15
(lp54
sg17
(lp55
sg19
(lp56
sg21
I0
sba(iArchitecture
Entity
p57
(dp58
g11
(lp59
sg13
S'android.service.textservice.SpellCheckerService$SpellCheckerServiceBinder'
p60
sg15
(lp61
sg17
(lp62
sg19
(lp63
sg21
I0
sbasS'classes'
p64
(lp65
g14
ag25
ag32
ag39
ag46
ag53
ag60
asg21
I0
sS'label'
p66
S'1015'
p67
sba(iArchitecture
Cluster
p68
(dp69
g7
(lp70
(iArchitecture
Entity
p71
(dp72
g11
(lp73
sg13
S'android.service.dreams.DreamService'
p74
sg15
(lp75
sg17
(lp76
sg19
(lp77
sg21
I0
sba(iArchitecture
Entity
p78
(dp79
g11
(lp80
sg13
S'android.service.dreams.DreamService$1'
p81
sg15
(lp82
sg17
(lp83
sg19
(lp84
sg21
I0
sba(iArchitecture
Entity
p85
(dp86
g11
(lp87
sg13
S'android.service.dreams.DreamService$2'
p88
sg15
(lp89
sg17
(lp90
sg19
(lp91
sg21
I0
sba(iArchitecture
Entity
p92
(dp93
g11
(lp94
sg13
S'android.service.dreams.DreamService$DreamServiceWrapper'
p95
sg15
(lp96
sg17
(lp97
sg19
(lp98
sg21
I0
sba(iArchitecture
Entity
p99
(dp100
g11
(lp101
sg13
S'android.service.dreams.DreamService$DreamServiceWrapper$1'
p102
sg15
(lp103
sg17
(lp104
sg19
(lp105
sg21
I0
sba(iArchitecture
Entity
p106
(dp107
g11
(lp108
sg13
S'android.service.dreams.DreamService$DreamServiceWrapper$2'
p109
sg15
(lp110
sg17
(lp111
sg19
(lp112
sg21
I0
sba(iArchitecture
Entity
p113
(dp114
g11
(lp115
sg13
S'android.service.dreams.DreamService$DreamServiceWrapper$3'
p116
sg15
(lp117
sg17
(lp118
sg19
(lp119
sg21
I0
sbasg64
(lp120
g74
ag81
ag88
ag95
ag102
ag109
ag116
asg21
I0
sg66
S'1026'
p121
sba(iArchitecture
Cluster
p122
(dp123
g7
(lp124
(iArchitecture
Entity
p125
(dp126
g11
(lp127
sg13
S'android.service.notification.ZenModeConfig'
p128
sg15
(lp129
sg17
(lp130
sg19
(lp131
sg21
I0
sba(iArchitecture
Entity
p132
(dp133
g11
(lp134
sg13
S'android.service.notification.ZenModeConfig$1'
p135
sg15
(lp136
sg17
(lp137
sg19
(lp138
sg21
I0
sba(iArchitecture
Entity
p139
(dp140
g11
(lp141
sg13
S'android.service.notification.ZenModeConfig$Diff'
p142
sg15
(lp143
sg17
(lp144
sg19
(lp145
sg21
I0
sba(iArchitecture
Entity
p146
(dp147
g11
(lp148
sg13
S'android.service.notification.ZenModeConfig$EventInfo'
p149
sg15
(lp150
sg17
(lp151
sg19
(lp152
sg21
I0
sba(iArchitecture
Entity
p153
(dp154
g11
(lp155
sg13
S'android.service.notification.ZenModeConfig$Migration'
p156
sg15
(lp157
sg17
(lp158
sg19
(lp159
sg21
I0
sba(iArchitecture
Entity
p160
(dp161
g11
(lp162
sg13
S'android.service.notification.ZenModeConfig$ScheduleInfo'
p163
sg15
(lp164
sg17
(lp165
sg19
(lp166
sg21
I0
sba(iArchitecture
Entity
p167
(dp168
g11
(lp169
sg13
S'android.service.notification.ZenModeConfig$XmlV1'
p170
sg15
(lp171
sg17
(lp172
sg19
(lp173
sg21
I0
sba(iArchitecture
Entity
p174
(dp175
g11
(lp176
sg13
S'android.service.notification.ZenModeConfig$ZenRule'
p177
sg15
(lp178
sg17
(lp179
sg19
(lp180
sg21
I0
sba(iArchitecture
Entity
p181
(dp182
g11
(lp183
sg13
S'android.service.notification.ZenModeConfig$ZenRule$1'
p184
sg15
(lp185
sg17
(lp186
sg19
(lp187
sg21
I0
sbasg64
(lp188
g128
ag135
ag142
ag149
ag156
ag163
ag170
ag177
ag184
asg21
I0
sg66
S'1059'
p189
sba(iArchitecture
Cluster
p190
(dp191
g7
(lp192
(iArchitecture
Entity
p193
(dp194
g11
(lp195
sg13
S'android.service.carrier.CarrierMessagingService'
p196
sg15
(lp197
sg17
(lp198
sg19
(lp199
sg21
I0
sba(iArchitecture
Entity
p200
(dp201
g11
(lp202
sg13
S'android.service.carrier.CarrierMessagingService$ICarrierMessagingWrapper'
p203
sg15
(lp204
sg17
(lp205
sg19
(lp206
sg21
I0
sba(iArchitecture
Entity
p207
(dp208
g11
(lp209
sg13
S'android.service.carrier.CarrierMessagingService$ICarrierMessagingWrapper$1'
p210
sg15
(lp211
sg17
(lp212
sg19
(lp213
sg21
I0
sba(iArchitecture
Entity
p214
(dp215
g11
(lp216
sg13
S'android.service.carrier.CarrierMessagingService$ICarrierMessagingWrapper$2'
p217
sg15
(lp218
sg17
(lp219
sg19
(lp220
sg21
I0
sba(iArchitecture
Entity
p221
(dp222
g11
(lp223
sg13
S'android.service.carrier.CarrierMessagingService$ICarrierMessagingWrapper$3'
p224
sg15
(lp225
sg17
(lp226
sg19
(lp227
sg21
I0
sba(iArchitecture
Entity
p228
(dp229
g11
(lp230
sg13
S'android.service.carrier.CarrierMessagingService$ICarrierMessagingWrapper$4'
p231
sg15
(lp232
sg17
(lp233
sg19
(lp234
sg21
I0
sba(iArchitecture
Entity
p235
(dp236
g11
(lp237
sg13
S'android.service.carrier.CarrierMessagingService$ICarrierMessagingWrapper$5'
p238
sg15
(lp239
sg17
(lp240
sg19
(lp241
sg21
I0
sba(iArchitecture
Entity
p242
(dp243
g11
(lp244
sg13
S'android.service.carrier.CarrierMessagingService$ICarrierMessagingWrapper$6'
p245
sg15
(lp246
sg17
(lp247
sg19
(lp248
sg21
I0
sba(iArchitecture
Entity
p249
(dp250
g11
(lp251
sg13
S'android.service.carrier.CarrierMessagingService$ResultCallback'
p252
sg15
(lp253
sg17
(lp254
sg19
(lp255
sg21
I0
sba(iArchitecture
Entity
p256
(dp257
g11
(lp258
sg13
S'android.service.carrier.CarrierMessagingService$SendMmsResult'
p259
sg15
(lp260
sg17
(lp261
sg19
(lp262
sg21
I0
sba(iArchitecture
Entity
p263
(dp264
g11
(lp265
sg13
S'android.service.carrier.CarrierMessagingService$SendMultipartSmsResult'
p266
sg15
(lp267
sg17
(lp268
sg19
(lp269
sg21
I0
sba(iArchitecture
Entity
p270
(dp271
g11
(lp272
sg13
S'android.service.carrier.CarrierMessagingService$SendSmsResult'
p273
sg15
(lp274
sg17
(lp275
sg19
(lp276
sg21
I0
sbasg64
(lp277
g196
ag203
ag210
ag217
ag224
ag231
ag238
ag245
ag252
ag259
ag266
ag273
asg21
I0
sg66
S'1061'
p278
sba(iArchitecture
Cluster
p279
(dp280
g7
(lp281
(iArchitecture
Entity
p282
(dp283
g11
(lp284
sg13
S'android.service.media.MediaBrowserService'
p285
sg15
(lp286
sg17
(lp287
sg19
(lp288
sg21
I0
sba(iArchitecture
Entity
p289
(dp290
g11
(lp291
sg13
S'android.service.media.MediaBrowserService$1'
p292
sg15
(lp293
sg17
(lp294
sg19
(lp295
sg21
I0
sba(iArchitecture
Entity
p296
(dp297
g11
(lp298
sg13
S'android.service.media.MediaBrowserService$2'
p299
sg15
(lp300
sg17
(lp301
sg19
(lp302
sg21
I0
sba(iArchitecture
Entity
p303
(dp304
g11
(lp305
sg13
S'android.service.media.MediaBrowserService$3'
p306
sg15
(lp307
sg17
(lp308
sg19
(lp309
sg21
I0
sba(iArchitecture
Entity
p310
(dp311
g11
(lp312
sg13
S'android.service.media.MediaBrowserService$4'
p313
sg15
(lp314
sg17
(lp315
sg19
(lp316
sg21
I0
sba(iArchitecture
Entity
p317
(dp318
g11
(lp319
sg13
S'android.service.media.MediaBrowserService$BrowserRoot'
p320
sg15
(lp321
sg17
(lp322
sg19
(lp323
sg21
I0
sba(iArchitecture
Entity
p324
(dp325
g11
(lp326
sg13
S'android.service.media.MediaBrowserService$ConnectionRecord'
p327
sg15
(lp328
sg17
(lp329
sg19
(lp330
sg21
I0
sba(iArchitecture
Entity
p331
(dp332
g11
(lp333
sg13
S'android.service.media.MediaBrowserService$Result'
p334
sg15
(lp335
sg17
(lp336
sg19
(lp337
sg21
I0
sba(iArchitecture
Entity
p338
(dp339
g11
(lp340
sg13
S'android.service.media.MediaBrowserService$ServiceBinder'
p341
sg15
(lp342
sg17
(lp343
sg19
(lp344
sg21
I0
sba(iArchitecture
Entity
p345
(dp346
g11
(lp347
sg13
S'android.service.media.MediaBrowserService$ServiceBinder$1'
p348
sg15
(lp349
sg17
(lp350
sg19
(lp351
sg21
I0
sba(iArchitecture
Entity
p352
(dp353
g11
(lp354
sg13
S'android.service.media.MediaBrowserService$ServiceBinder$2'
p355
sg15
(lp356
sg17
(lp357
sg19
(lp358
sg21
I0
sba(iArchitecture
Entity
p359
(dp360
g11
(lp361
sg13
S'android.service.media.MediaBrowserService$ServiceBinder$3'
p362
sg15
(lp363
sg17
(lp364
sg19
(lp365
sg21
I0
sba(iArchitecture
Entity
p366
(dp367
g11
(lp368
sg13
S'android.service.media.MediaBrowserService$ServiceBinder$4'
p369
sg15
(lp370
sg17
(lp371
sg19
(lp372
sg21
I0
sba(iArchitecture
Entity
p373
(dp374
g11
(lp375
sg13
S'android.service.media.MediaBrowserService$ServiceBinder$5'
p376
sg15
(lp377
sg17
(lp378
sg19
(lp379
sg21
I0
sbasg64
(lp380
g285
ag292
ag299
ag306
ag313
ag320
ag327
ag334
ag341
ag348
ag355
ag362
ag369
ag376
asg21
I0
sg66
S'1121'
p381
sba(iArchitecture
Cluster
p382
(dp383
g7
(lp384
(iArchitecture
Entity
p385
(dp386
g11
(lp387
sg13
S'android.service.trust.TrustAgentService'
p388
sg15
(lp389
sg17
(lp390
sg19
(lp391
sg21
I0
sba(iArchitecture
Entity
p392
(dp393
g11
(lp394
sg13
S'android.service.trust.TrustAgentService$1'
p395
sg15
(lp396
sg17
(lp397
sg19
(lp398
sg21
I0
sba(iArchitecture
Entity
p399
(dp400
g11
(lp401
sg13
S'android.service.trust.TrustAgentService$2'
p402
sg15
(lp403
sg17
(lp404
sg19
(lp405
sg21
I0
sba(iArchitecture
Entity
p406
(dp407
g11
(lp408
sg13
S'android.service.trust.TrustAgentService$ConfigurationData'
p409
sg15
(lp410
sg17
(lp411
sg19
(lp412
sg21
I0
sba(iArchitecture
Entity
p413
(dp414
g11
(lp415
sg13
S'android.service.trust.TrustAgentService$TrustAgentServiceWrapper'
p416
sg15
(lp417
sg17
(lp418
sg19
(lp419
sg21
I0
sbasg64
(lp420
g388
ag395
ag402
ag409
ag416
asg21
I0
sg66
S'1166'
p421
sba(iArchitecture
Cluster
p422
(dp423
g7
(lp424
(iArchitecture
Entity
p425
(dp426
g11
(lp427
sg13
S'android.service.voice.VoiceInteractionService'
p428
sg15
(lp429
sg17
(lp430
sg19
(lp431
sg21
I0
sba(iArchitecture
Entity
p432
(dp433
g11
(lp434
sg13
S'android.service.voice.VoiceInteractionService$1'
p435
sg15
(lp436
sg17
(lp437
sg19
(lp438
sg21
I0
sba(iArchitecture
Entity
p439
(dp440
g11
(lp441
sg13
S'android.service.voice.VoiceInteractionService$MyHandler'
p442
sg15
(lp443
sg17
(lp444
sg19
(lp445
sg21
I0
sbasg64
(lp446
g428
ag435
ag442
asg21
I0
sg66
S'1228'
p447
sba(iArchitecture
Cluster
p448
(dp449
g7
(lp450
(iArchitecture
Entity
p451
(dp452
g11
(lp453
sg13
S'android.service.notification.NotificationListenerService'
p454
sg15
(lp455
sg17
(lp456
sg19
(lp457
sg21
I0
sba(iArchitecture
Entity
p458
(dp459
g11
(lp460
sg13
S'android.service.notification.NotificationListenerService$INotificationListenerWrapper'
p461
sg15
(lp462
sg17
(lp463
sg19
(lp464
sg21
I0
sba(iArchitecture
Entity
p465
(dp466
g11
(lp467
sg13
S'android.service.notification.NotificationListenerService$Ranking'
p468
sg15
(lp469
sg17
(lp470
sg19
(lp471
sg21
I0
sba(iArchitecture
Entity
p472
(dp473
g11
(lp474
sg13
S'android.service.notification.NotificationListenerService$RankingMap'
p475
sg15
(lp476
sg17
(lp477
sg19
(lp478
sg21
I0
sba(iArchitecture
Entity
p479
(dp480
g11
(lp481
sg13
S'android.service.notification.NotificationListenerService$RankingMap$1'
p482
sg15
(lp483
sg17
(lp484
sg19
(lp485
sg21
I0
sbasg64
(lp486
g454
ag461
ag468
ag475
ag482
asg21
I0
sg66
S'1232'
p487
sba(iArchitecture
Cluster
p488
(dp489
g7
(lp490
(iArchitecture
Entity
p491
(dp492
g11
(lp493
sg13
S'android.service.carrier.MessagePdu'
p494
sg15
(lp495
sg17
(lp496
sg19
(lp497
sg21
I0
sba(iArchitecture
Entity
p498
(dp499
g11
(lp500
sg13
S'android.service.carrier.MessagePdu$1'
p501
sg15
(lp502
sg17
(lp503
sg19
(lp504
sg21
I0
sba(iArchitecture
Entity
p505
(dp506
g11
(lp507
sg13
S'android.service.wallpaper.WallpaperSettingsActivity'
p508
sg15
(lp509
sg17
(lp510
sg19
(lp511
sg21
I0
sbasg64
(lp512
g494
ag501
ag508
asg21
I0
sg66
S'1237'
p513
sba(iArchitecture
Cluster
p514
(dp515
g7
(lp516
(iArchitecture
Entity
p517
(dp518
g11
(lp519
sg13
S'android.service.carrier.CarrierService'
p520
sg15
(lp521
sg17
(lp522
sg19
(lp523
sg21
I0
sba(iArchitecture
Entity
p524
(dp525
g11
(lp526
sg13
S'android.service.carrier.CarrierService$ICarrierServiceWrapper'
p527
sg15
(lp528
sg17
(lp529
sg19
(lp530
sg21
I0
sba(iArchitecture
Entity
p531
(dp532
g11
(lp533
sg13
S'android.service.dreams.DreamManagerInternal'
p534
sg15
(lp535
sg17
(lp536
sg19
(lp537
sg21
I0
sba(iArchitecture
Entity
p538
(dp539
g11
(lp540
sg13
S'android.service.notification.Condition'
p541
sg15
(lp542
sg17
(lp543
sg19
(lp544
sg21
I0
sba(iArchitecture
Entity
p545
(dp546
g11
(lp547
sg13
S'android.service.notification.Condition$1'
p548
sg15
(lp549
sg17
(lp550
sg19
(lp551
sg21
I0
sba(iArchitecture
Entity
p552
(dp553
g11
(lp554
sg13
S'android.service.notification.ConditionProviderService'
p555
sg15
(lp556
sg17
(lp557
sg19
(lp558
sg21
I0
sba(iArchitecture
Entity
p559
(dp560
g11
(lp561
sg13
S'android.service.notification.ConditionProviderService$H'
p562
sg15
(lp563
sg17
(lp564
sg19
(lp565
sg21
I0
sba(iArchitecture
Entity
p566
(dp567
g11
(lp568
sg13
S'android.service.notification.ConditionProviderService$Provider'
p569
sg15
(lp570
sg17
(lp571
sg19
(lp572
sg21
I0
sba(iArchitecture
Entity
p573
(dp574
g11
(lp575
sg13
S'android.service.persistentdata.PersistentDataBlockManager'
p576
sg15
(lp577
sg17
(lp578
sg19
(lp579
sg21
I0
sba(iArchitecture
Entity
p580
(dp581
g11
(lp582
sg13
S'android.service.restrictions.RestrictionsReceiver'
p583
sg15
(lp584
sg17
(lp585
sg19
(lp586
sg21
I0
sba(iArchitecture
Entity
p587
(dp588
g11
(lp589
sg13
S'android.service.wallpaper.WallpaperService'
p590
sg15
(lp591
sg17
(lp592
sg19
(lp593
sg21
I0
sba(iArchitecture
Entity
p594
(dp595
g11
(lp596
sg13
S'android.service.wallpaper.WallpaperService$Engine'
p597
sg15
(lp598
sg17
(lp599
sg19
(lp600
sg21
I0
sba(iArchitecture
Entity
p601
(dp602
g11
(lp603
sg13
S'android.service.wallpaper.WallpaperService$Engine$1'
p604
sg15
(lp605
sg17
(lp606
sg19
(lp607
sg21
I0
sba(iArchitecture
Entity
p608
(dp609
g11
(lp610
sg13
S'android.service.wallpaper.WallpaperService$Engine$2'
p611
sg15
(lp612
sg17
(lp613
sg19
(lp614
sg21
I0
sba(iArchitecture
Entity
p615
(dp616
g11
(lp617
sg13
S'android.service.wallpaper.WallpaperService$Engine$3'
p618
sg15
(lp619
sg17
(lp620
sg19
(lp621
sg21
I0
sba(iArchitecture
Entity
p622
(dp623
g11
(lp624
sg13
S'android.service.wallpaper.WallpaperService$Engine$WallpaperInputEventReceiver'
p625
sg15
(lp626
sg17
(lp627
sg19
(lp628
sg21
I0
sba(iArchitecture
Entity
p629
(dp630
g11
(lp631
sg13
S'android.service.wallpaper.WallpaperService$IWallpaperEngineWrapper'
p632
sg15
(lp633
sg17
(lp634
sg19
(lp635
sg21
I0
sba(iArchitecture
Entity
p636
(dp637
g11
(lp638
sg13
S'android.service.wallpaper.WallpaperService$IWallpaperServiceWrapper'
p639
sg15
(lp640
sg17
(lp641
sg19
(lp642
sg21
I0
sba(iArchitecture
Entity
p643
(dp644
g11
(lp645
sg13
S'android.service.wallpaper.WallpaperService$WallpaperCommand'
p646
sg15
(lp647
sg17
(lp648
sg19
(lp649
sg21
I0
sbasg64
(lp650
g520
ag527
ag534
ag541
ag548
ag555
ag562
ag569
ag576
ag583
ag590
ag597
ag604
ag611
ag618
ag625
ag632
ag639
ag646
asg21
I0
sg66
S'1246'
p651
sba(iArchitecture
Cluster
p652
(dp653
g7
(lp654
(iArchitecture
Entity
p655
(dp656
g11
(lp657
sg13
S'android.service.voice.VoiceInteractionSession'
p658
sg15
(lp659
sg17
(lp660
sg19
(lp661
sg21
I0
sba(iArchitecture
Entity
p662
(dp663
g11
(lp664
sg13
S'android.service.voice.VoiceInteractionSession$1'
p665
sg15
(lp666
sg17
(lp667
sg19
(lp668
sg21
I0
sba(iArchitecture
Entity
p669
(dp670
g11
(lp671
sg13
S'android.service.voice.VoiceInteractionSession$2'
p672
sg15
(lp673
sg17
(lp674
sg19
(lp675
sg21
I0
sba(iArchitecture
Entity
p676
(dp677
g11
(lp678
sg13
S'android.service.voice.VoiceInteractionSession$2$1'
p679
sg15
(lp680
sg17
(lp681
sg19
(lp682
sg21
I0
sba(iArchitecture
Entity
p683
(dp684
g11
(lp685
sg13
S'android.service.voice.VoiceInteractionSession$3'
p686
sg15
(lp687
sg17
(lp688
sg19
(lp689
sg21
I0
sba(iArchitecture
Entity
p690
(dp691
g11
(lp692
sg13
S'android.service.voice.VoiceInteractionSession$4'
p693
sg15
(lp694
sg17
(lp695
sg19
(lp696
sg21
I0
sba(iArchitecture
Entity
p697
(dp698
g11
(lp699
sg13
S'android.service.voice.VoiceInteractionSession$AbortVoiceRequest'
p700
sg15
(lp701
sg17
(lp702
sg19
(lp703
sg21
I0
sba(iArchitecture
Entity
p704
(dp705
g11
(lp706
sg13
S'android.service.voice.VoiceInteractionSession$CommandRequest'
p707
sg15
(lp708
sg17
(lp709
sg19
(lp710
sg21
I0
sba(iArchitecture
Entity
p711
(dp712
g11
(lp713
sg13
S'android.service.voice.VoiceInteractionSession$CompleteVoiceRequest'
p714
sg15
(lp715
sg17
(lp716
sg19
(lp717
sg21
I0
sba(iArchitecture
Entity
p718
(dp719
g11
(lp720
sg13
S'android.service.voice.VoiceInteractionSession$ConfirmationRequest'
p721
sg15
(lp722
sg17
(lp723
sg19
(lp724
sg21
I0
sba(iArchitecture
Entity
p725
(dp726
g11
(lp727
sg13
S'android.service.voice.VoiceInteractionSession$Insets'
p728
sg15
(lp729
sg17
(lp730
sg19
(lp731
sg21
I0
sba(iArchitecture
Entity
p732
(dp733
g11
(lp734
sg13
S'android.service.voice.VoiceInteractionSession$MyCallbacks'
p735
sg15
(lp736
sg17
(lp737
sg19
(lp738
sg21
I0
sba(iArchitecture
Entity
p739
(dp740
g11
(lp741
sg13
S'android.service.voice.VoiceInteractionSession$PickOptionRequest'
p742
sg15
(lp743
sg17
(lp744
sg19
(lp745
sg21
I0
sba(iArchitecture
Entity
p746
(dp747
g11
(lp748
sg13
S'android.service.voice.VoiceInteractionSession$Request'
p749
sg15
(lp750
sg17
(lp751
sg19
(lp752
sg21
I0
sba(iArchitecture
Entity
p753
(dp754
g11
(lp755
sg13
S'android.service.voice.VoiceInteractionSession$Request$1'
p756
sg15
(lp757
sg17
(lp758
sg19
(lp759
sg21
I0
sbasg64
(lp760
g658
ag665
ag672
ag679
ag686
ag693
ag700
ag707
ag714
ag721
ag728
ag735
ag742
ag749
ag756
asg21
I0
sg66
S'1261'
p761
sba(iArchitecture
Cluster
p762
(dp763
g7
(lp764
(iArchitecture
Entity
p765
(dp766
g11
(lp767
sg13
S'android.service.dreams.Sandman'
p768
sg15
(lp769
sg17
(lp770
sg19
(lp771
sg21
I0
sbasg64
(lp772
g768
asg21
I0
sg66
S'401'
p773
sba(iArchitecture
Cluster
p774
(dp775
g7
(lp776
(iArchitecture
Entity
p777
(dp778
g11
(lp779
sg13
S'android.service.chooser.ChooserTargetService'
p780
sg15
(lp781
sg17
(lp782
sg19
(lp783
sg21
I0
sba(iArchitecture
Entity
p784
(dp785
g11
(lp786
sg13
S'android.service.chooser.ChooserTargetService$IChooserTargetServiceWrapper'
p787
sg15
(lp788
sg17
(lp789
sg19
(lp790
sg21
I0
sbasg64
(lp791
g780
ag787
asg21
I0
sg66
S'468'
p792
sba(iArchitecture
Cluster
p793
(dp794
g7
(lp795
(iArchitecture
Entity
p796
(dp797
g11
(lp798
sg13
S'android.service.chooser.ChooserTarget'
p799
sg15
(lp800
sg17
(lp801
sg19
(lp802
sg21
I0
sba(iArchitecture
Entity
p803
(dp804
g11
(lp805
sg13
S'android.service.chooser.ChooserTarget$1'
p806
sg15
(lp807
sg17
(lp808
sg19
(lp809
sg21
I0
sbasg64
(lp810
g799
ag806
asg21
I0
sg66
S'499'
p811
sba(iArchitecture
Cluster
p812
(dp813
g7
(lp814
(iArchitecture
Entity
p815
(dp816
g11
(lp817
sg13
S'android.service.gatekeeper.GateKeeperResponse'
p818
sg15
(lp819
sg17
(lp820
sg19
(lp821
sg21
I0
sba(iArchitecture
Entity
p822
(dp823
g11
(lp824
sg13
S'android.service.gatekeeper.GateKeeperResponse$1'
p825
sg15
(lp826
sg17
(lp827
sg19
(lp828
sg21
I0
sbasg64
(lp829
g818
ag825
asg21
I0
sg66
S'579'
p830
sba(iArchitecture
Cluster
p831
(dp832
g7
(lp833
(iArchitecture
Entity
p834
(dp835
g11
(lp836
sg13
S'android.service.notification.NotificationRankingUpdate'
p837
sg15
(lp838
sg17
(lp839
sg19
(lp840
sg21
I0
sba(iArchitecture
Entity
p841
(dp842
g11
(lp843
sg13
S'android.service.notification.NotificationRankingUpdate$1'
p844
sg15
(lp845
sg17
(lp846
sg19
(lp847
sg21
I0
sbasg64
(lp848
g837
ag844
asg21
I0
sg66
S'601'
p849
sba(iArchitecture
Cluster
p850
(dp851
g7
(lp852
(iArchitecture
Entity
p853
(dp854
g11
(lp855
sg13
S'android.service.voice.VoiceInteractionServiceInfo'
p856
sg15
(lp857
sg17
(lp858
sg19
(lp859
sg21
I0
sbasg64
(lp860
g856
asg21
I0
sg66
S'63'
p861
sba(iArchitecture
Cluster
p862
(dp863
g7
(lp864
(iArchitecture
Entity
p865
(dp866
g11
(lp867
sg13
S'android.service.notification.StatusBarNotification'
p868
sg15
(lp869
sg17
(lp870
sg19
(lp871
sg21
I0
sba(iArchitecture
Entity
p872
(dp873
g11
(lp874
sg13
S'android.service.notification.StatusBarNotification$1'
p875
sg15
(lp876
sg17
(lp877
sg19
(lp878
sg21
I0
sbasg64
(lp879
g868
ag875
asg21
I0
sg66
S'650'
p880
sba(iArchitecture
Cluster
p881
(dp882
g7
(lp883
(iArchitecture
Entity
p884
(dp885
g11
(lp886
sg13
S'android.service.carrier.CarrierIdentifier'
p887
sg15
(lp888
sg17
(lp889
sg19
(lp890
sg21
I0
sba(iArchitecture
Entity
p891
(dp892
g11
(lp893
sg13
S'android.service.carrier.CarrierIdentifier$1'
p894
sg15
(lp895
sg17
(lp896
sg19
(lp897
sg21
I0
sbasg64
(lp898
g887
ag894
asg21
I0
sg66
S'713'
p899
sba(iArchitecture
Cluster
p900
(dp901
g7
(lp902
(iArchitecture
Entity
p903
(dp904
g11
(lp905
sg13
S'android.service.media.CameraPrewarmService'
p906
sg15
(lp907
sg17
(lp908
sg19
(lp909
sg21
I0
sba(iArchitecture
Entity
p910
(dp911
g11
(lp912
sg13
S'android.service.media.CameraPrewarmService$1'
p913
sg15
(lp914
sg17
(lp915
sg19
(lp916
sg21
I0
sbasg64
(lp917
g906
ag913
asg21
I0
sg66
S'720'
p918
sba(iArchitecture
Cluster
p919
(dp920
g7
(lp921
(iArchitecture
Entity
p922
(dp923
g11
(lp924
sg13
S'android.service.voice.VoiceInteractionSessionService'
p925
sg15
(lp926
sg17
(lp927
sg19
(lp928
sg21
I0
sba(iArchitecture
Entity
p929
(dp930
g11
(lp931
sg13
S'android.service.voice.VoiceInteractionSessionService$1'
p932
sg15
(lp933
sg17
(lp934
sg19
(lp935
sg21
I0
sba(iArchitecture
Entity
p936
(dp937
g11
(lp938
sg13
S'android.service.voice.VoiceInteractionSessionService$2'
p939
sg15
(lp940
sg17
(lp941
sg19
(lp942
sg21
I0
sbasg64
(lp943
g925
ag932
ag939
asg21
I0
sg66
S'754'
p944
sba(iArchitecture
Cluster
p945
(dp946
g7
(lp947
(iArchitecture
Entity
p948
(dp949
g11
(lp950
sg13
S'android.service.voice.AlwaysOnHotwordDetector'
p951
sg15
(lp952
sg17
(lp953
sg19
(lp954
sg21
I0
sba(iArchitecture
Entity
p955
(dp956
g11
(lp957
sg13
S'android.service.voice.AlwaysOnHotwordDetector$Callback'
p958
sg15
(lp959
sg17
(lp960
sg19
(lp961
sg21
I0
sba(iArchitecture
Entity
p962
(dp963
g11
(lp964
sg13
S'android.service.voice.AlwaysOnHotwordDetector$EventPayload'
p965
sg15
(lp966
sg17
(lp967
sg19
(lp968
sg21
I0
sba(iArchitecture
Entity
p969
(dp970
g11
(lp971
sg13
S'android.service.voice.AlwaysOnHotwordDetector$MyHandler'
p972
sg15
(lp973
sg17
(lp974
sg19
(lp975
sg21
I0
sba(iArchitecture
Entity
p976
(dp977
g11
(lp978
sg13
S'android.service.voice.AlwaysOnHotwordDetector$RefreshAvailabiltyTask'
p979
sg15
(lp980
sg17
(lp981
sg19
(lp982
sg21
I0
sba(iArchitecture
Entity
p983
(dp984
g11
(lp985
sg13
S'android.service.voice.AlwaysOnHotwordDetector$SoundTriggerListener'
p986
sg15
(lp987
sg17
(lp988
sg19
(lp989
sg21
I0
sbasg64
(lp990
g951
ag958
ag965
ag972
ag979
ag986
asg21
I0
sg66
S'956'
p991
sbasS'target_sub'
p992
S'android.service'
p993
sg64
(lp994
sS'is_component_arch'
p995
I00
sg66
S'6.0.0_r1'
p996
sba(iArchitecture
Architecture
p997
(dp998
g3
(lp999
(iArchitecture
Cluster
p1000
(dp1001
g7
(lp1002
(iArchitecture
Entity
p1003
(dp1004
g11
(lp1005
sg13
S'android.service.voice.AlwaysOnHotwordDetector'
p1006
sg15
(lp1007
sg17
(lp1008
sg19
(lp1009
sg21
I0
sba(iArchitecture
Entity
p1010
(dp1011
g11
(lp1012
sg13
S'android.service.voice.AlwaysOnHotwordDetector$Callback'
p1013
sg15
(lp1014
sg17
(lp1015
sg19
(lp1016
sg21
I0
sba(iArchitecture
Entity
p1017
(dp1018
g11
(lp1019
sg13
S'android.service.voice.AlwaysOnHotwordDetector$EventPayload'
p1020
sg15
(lp1021
sg17
(lp1022
sg19
(lp1023
sg21
I0
sba(iArchitecture
Entity
p1024
(dp1025
g11
(lp1026
sg13
S'android.service.voice.AlwaysOnHotwordDetector$MyHandler'
p1027
sg15
(lp1028
sg17
(lp1029
sg19
(lp1030
sg21
I0
sba(iArchitecture
Entity
p1031
(dp1032
g11
(lp1033
sg13
S'android.service.voice.AlwaysOnHotwordDetector$RefreshAvailabiltyTask'
p1034
sg15
(lp1035
sg17
(lp1036
sg19
(lp1037
sg21
I0
sba(iArchitecture
Entity
p1038
(dp1039
g11
(lp1040
sg13
S'android.service.voice.AlwaysOnHotwordDetector$SoundTriggerListener'
p1041
sg15
(lp1042
sg17
(lp1043
sg19
(lp1044
sg21
I0
sbasg64
(lp1045
g1006
ag1013
ag1020
ag1027
ag1034
ag1041
asg21
I0
sg66
S'1081'
p1046
sba(iArchitecture
Cluster
p1047
(dp1048
g7
(lp1049
(iArchitecture
Entity
p1050
(dp1051
g11
(lp1052
sg13
S'android.service.textservice.SpellCheckerService'
p1053
sg15
(lp1054
sg17
(lp1055
sg19
(lp1056
sg21
I0
sba(iArchitecture
Entity
p1057
(dp1058
g11
(lp1059
sg13
S'android.service.textservice.SpellCheckerService$InternalISpellCheckerSession'
p1060
sg15
(lp1061
sg17
(lp1062
sg19
(lp1063
sg21
I0
sba(iArchitecture
Entity
p1064
(dp1065
g11
(lp1066
sg13
S'android.service.textservice.SpellCheckerService$SentenceLevelAdapter'
p1067
sg15
(lp1068
sg17
(lp1069
sg19
(lp1070
sg21
I0
sba(iArchitecture
Entity
p1071
(dp1072
g11
(lp1073
sg13
S'android.service.textservice.SpellCheckerService$SentenceLevelAdapter$SentenceTextInfoParams'
p1074
sg15
(lp1075
sg17
(lp1076
sg19
(lp1077
sg21
I0
sba(iArchitecture
Entity
p1078
(dp1079
g11
(lp1080
sg13
S'android.service.textservice.SpellCheckerService$SentenceLevelAdapter$SentenceWordItem'
p1081
sg15
(lp1082
sg17
(lp1083
sg19
(lp1084
sg21
I0
sba(iArchitecture
Entity
p1085
(dp1086
g11
(lp1087
sg13
S'android.service.textservice.SpellCheckerService$Session'
p1088
sg15
(lp1089
sg17
(lp1090
sg19
(lp1091
sg21
I0
sba(iArchitecture
Entity
p1092
(dp1093
g11
(lp1094
sg13
S'android.service.textservice.SpellCheckerService$SpellCheckerServiceBinder'
p1095
sg15
(lp1096
sg17
(lp1097
sg19
(lp1098
sg21
I0
sbasg64
(lp1099
g1053
ag1060
ag1067
ag1074
ag1081
ag1088
ag1095
asg21
I0
sg66
S'1142'
p1100
sba(iArchitecture
Cluster
p1101
(dp1102
g7
(lp1103
(iArchitecture
Entity
p1104
(dp1105
g11
(lp1106
sg13
S'android.service.dreams.DreamService'
p1107
sg15
(lp1108
sg17
(lp1109
sg19
(lp1110
sg21
I0
sba(iArchitecture
Entity
p1111
(dp1112
g11
(lp1113
sg13
S'android.service.dreams.DreamService$1'
p1114
sg15
(lp1115
sg17
(lp1116
sg19
(lp1117
sg21
I0
sba(iArchitecture
Entity
p1118
(dp1119
g11
(lp1120
sg13
S'android.service.dreams.DreamService$2'
p1121
sg15
(lp1122
sg17
(lp1123
sg19
(lp1124
sg21
I0
sba(iArchitecture
Entity
p1125
(dp1126
g11
(lp1127
sg13
S'android.service.dreams.DreamService$DreamServiceWrapper'
p1128
sg15
(lp1129
sg17
(lp1130
sg19
(lp1131
sg21
I0
sba(iArchitecture
Entity
p1132
(dp1133
g11
(lp1134
sg13
S'android.service.dreams.DreamService$DreamServiceWrapper$1'
p1135
sg15
(lp1136
sg17
(lp1137
sg19
(lp1138
sg21
I0
sba(iArchitecture
Entity
p1139
(dp1140
g11
(lp1141
sg13
S'android.service.dreams.DreamService$DreamServiceWrapper$2'
p1142
sg15
(lp1143
sg17
(lp1144
sg19
(lp1145
sg21
I0
sba(iArchitecture
Entity
p1146
(dp1147
g11
(lp1148
sg13
S'android.service.dreams.DreamService$DreamServiceWrapper$3'
p1149
sg15
(lp1150
sg17
(lp1151
sg19
(lp1152
sg21
I0
sbasg64
(lp1153
g1107
ag1114
ag1121
ag1128
ag1135
ag1142
ag1149
asg21
I0
sg66
S'1152'
p1154
sba(iArchitecture
Cluster
p1155
(dp1156
g7
(lp1157
(iArchitecture
Entity
p1158
(dp1159
g11
(lp1160
sg13
S'android.service.notification.ZenModeConfig'
p1161
sg15
(lp1162
sg17
(lp1163
sg19
(lp1164
sg21
I0
sba(iArchitecture
Entity
p1165
(dp1166
g11
(lp1167
sg13
S'android.service.notification.ZenModeConfig$1'
p1168
sg15
(lp1169
sg17
(lp1170
sg19
(lp1171
sg21
I0
sba(iArchitecture
Entity
p1172
(dp1173
g11
(lp1174
sg13
S'android.service.notification.ZenModeConfig$Diff'
p1175
sg15
(lp1176
sg17
(lp1177
sg19
(lp1178
sg21
I0
sba(iArchitecture
Entity
p1179
(dp1180
g11
(lp1181
sg13
S'android.service.notification.ZenModeConfig$EventInfo'
p1182
sg15
(lp1183
sg17
(lp1184
sg19
(lp1185
sg21
I0
sba(iArchitecture
Entity
p1186
(dp1187
g11
(lp1188
sg13
S'android.service.notification.ZenModeConfig$Migration'
p1189
sg15
(lp1190
sg17
(lp1191
sg19
(lp1192
sg21
I0
sba(iArchitecture
Entity
p1193
(dp1194
g11
(lp1195
sg13
S'android.service.notification.ZenModeConfig$ScheduleInfo'
p1196
sg15
(lp1197
sg17
(lp1198
sg19
(lp1199
sg21
I0
sba(iArchitecture
Entity
p1200
(dp1201
g11
(lp1202
sg13
S'android.service.notification.ZenModeConfig$XmlV1'
p1203
sg15
(lp1204
sg17
(lp1205
sg19
(lp1206
sg21
I0
sba(iArchitecture
Entity
p1207
(dp1208
g11
(lp1209
sg13
S'android.service.notification.ZenModeConfig$ZenRule'
p1210
sg15
(lp1211
sg17
(lp1212
sg19
(lp1213
sg21
I0
sba(iArchitecture
Entity
p1214
(dp1215
g11
(lp1216
sg13
S'android.service.notification.ZenModeConfig$ZenRule$1'
p1217
sg15
(lp1218
sg17
(lp1219
sg19
(lp1220
sg21
I0
sbasg64
(lp1221
g1161
ag1168
ag1175
ag1182
ag1189
ag1196
ag1203
ag1210
ag1217
asg21
I0
sg66
S'1189'
p1222
sba(iArchitecture
Cluster
p1223
(dp1224
g7
(lp1225
(iArchitecture
Entity
p1226
(dp1227
g11
(lp1228
sg13
S'android.service.carrier.CarrierMessagingService'
p1229
sg15
(lp1230
sg17
(lp1231
sg19
(lp1232
sg21
I0
sba(iArchitecture
Entity
p1233
(dp1234
g11
(lp1235
sg13
S'android.service.carrier.CarrierMessagingService$1'
p1236
sg15
(lp1237
sg17
(lp1238
sg19
(lp1239
sg21
I0
sba(iArchitecture
Entity
p1240
(dp1241
g11
(lp1242
sg13
S'android.service.carrier.CarrierMessagingService$ICarrierMessagingWrapper'
p1243
sg15
(lp1244
sg17
(lp1245
sg19
(lp1246
sg21
I0
sba(iArchitecture
Entity
p1247
(dp1248
g11
(lp1249
sg13
S'android.service.carrier.CarrierMessagingService$ICarrierMessagingWrapper$1'
p1250
sg15
(lp1251
sg17
(lp1252
sg19
(lp1253
sg21
I0
sba(iArchitecture
Entity
p1254
(dp1255
g11
(lp1256
sg13
S'android.service.carrier.CarrierMessagingService$ICarrierMessagingWrapper$2'
p1257
sg15
(lp1258
sg17
(lp1259
sg19
(lp1260
sg21
I0
sba(iArchitecture
Entity
p1261
(dp1262
g11
(lp1263
sg13
S'android.service.carrier.CarrierMessagingService$ICarrierMessagingWrapper$3'
p1264
sg15
(lp1265
sg17
(lp1266
sg19
(lp1267
sg21
I0
sba(iArchitecture
Entity
p1268
(dp1269
g11
(lp1270
sg13
S'android.service.carrier.CarrierMessagingService$ICarrierMessagingWrapper$4'
p1271
sg15
(lp1272
sg17
(lp1273
sg19
(lp1274
sg21
I0
sba(iArchitecture
Entity
p1275
(dp1276
g11
(lp1277
sg13
S'android.service.carrier.CarrierMessagingService$ICarrierMessagingWrapper$5'
p1278
sg15
(lp1279
sg17
(lp1280
sg19
(lp1281
sg21
I0
sba(iArchitecture
Entity
p1282
(dp1283
g11
(lp1284
sg13
S'android.service.carrier.CarrierMessagingService$ICarrierMessagingWrapper$6'
p1285
sg15
(lp1286
sg17
(lp1287
sg19
(lp1288
sg21
I0
sba(iArchitecture
Entity
p1289
(dp1290
g11
(lp1291
sg13
S'android.service.carrier.CarrierMessagingService$ResultCallback'
p1292
sg15
(lp1293
sg17
(lp1294
sg19
(lp1295
sg21
I0
sba(iArchitecture
Entity
p1296
(dp1297
g11
(lp1298
sg13
S'android.service.carrier.CarrierMessagingService$SendMmsResult'
p1299
sg15
(lp1300
sg17
(lp1301
sg19
(lp1302
sg21
I0
sba(iArchitecture
Entity
p1303
(dp1304
g11
(lp1305
sg13
S'android.service.carrier.CarrierMessagingService$SendMultipartSmsResult'
p1306
sg15
(lp1307
sg17
(lp1308
sg19
(lp1309
sg21
I0
sba(iArchitecture
Entity
p1310
(dp1311
g11
(lp1312
sg13
S'android.service.carrier.CarrierMessagingService$SendSmsResult'
p1313
sg15
(lp1314
sg17
(lp1315
sg19
(lp1316
sg21
I0
sbasg64
(lp1317
g1229
ag1236
ag1243
ag1250
ag1257
ag1264
ag1271
ag1278
ag1285
ag1292
ag1299
ag1306
ag1313
asg21
I0
sg66
S'1206'
p1318
sba(iArchitecture
Cluster
p1319
(dp1320
g7
(lp1321
(iArchitecture
Entity
p1322
(dp1323
g11
(lp1324
sg13
S'android.service.media.MediaBrowserService'
p1325
sg15
(lp1326
sg17
(lp1327
sg19
(lp1328
sg21
I0
sba(iArchitecture
Entity
p1329
(dp1330
g11
(lp1331
sg13
S'android.service.media.MediaBrowserService$1'
p1332
sg15
(lp1333
sg17
(lp1334
sg19
(lp1335
sg21
I0
sba(iArchitecture
Entity
p1336
(dp1337
g11
(lp1338
sg13
S'android.service.media.MediaBrowserService$2'
p1339
sg15
(lp1340
sg17
(lp1341
sg19
(lp1342
sg21
I0
sba(iArchitecture
Entity
p1343
(dp1344
g11
(lp1345
sg13
S'android.service.media.MediaBrowserService$3'
p1346
sg15
(lp1347
sg17
(lp1348
sg19
(lp1349
sg21
I0
sba(iArchitecture
Entity
p1350
(dp1351
g11
(lp1352
sg13
S'android.service.media.MediaBrowserService$4'
p1353
sg15
(lp1354
sg17
(lp1355
sg19
(lp1356
sg21
I0
sba(iArchitecture
Entity
p1357
(dp1358
g11
(lp1359
sg13
S'android.service.media.MediaBrowserService$BrowserRoot'
p1360
sg15
(lp1361
sg17
(lp1362
sg19
(lp1363
sg21
I0
sba(iArchitecture
Entity
p1364
(dp1365
g11
(lp1366
sg13
S'android.service.media.MediaBrowserService$ConnectionRecord'
p1367
sg15
(lp1368
sg17
(lp1369
sg19
(lp1370
sg21
I0
sba(iArchitecture
Entity
p1371
(dp1372
g11
(lp1373
sg13
S'android.service.media.MediaBrowserService$Result'
p1374
sg15
(lp1375
sg17
(lp1376
sg19
(lp1377
sg21
I0
sba(iArchitecture
Entity
p1378
(dp1379
g11
(lp1380
sg13
S'android.service.media.MediaBrowserService$ServiceBinder'
p1381
sg15
(lp1382
sg17
(lp1383
sg19
(lp1384
sg21
I0
sba(iArchitecture
Entity
p1385
(dp1386
g11
(lp1387
sg13
S'android.service.media.MediaBrowserService$ServiceBinder$1'
p1388
sg15
(lp1389
sg17
(lp1390
sg19
(lp1391
sg21
I0
sba(iArchitecture
Entity
p1392
(dp1393
g11
(lp1394
sg13
S'android.service.media.MediaBrowserService$ServiceBinder$2'
p1395
sg15
(lp1396
sg17
(lp1397
sg19
(lp1398
sg21
I0
sba(iArchitecture
Entity
p1399
(dp1400
g11
(lp1401
sg13
S'android.service.media.MediaBrowserService$ServiceBinder$3'
p1402
sg15
(lp1403
sg17
(lp1404
sg19
(lp1405
sg21
I0
sba(iArchitecture
Entity
p1406
(dp1407
g11
(lp1408
sg13
S'android.service.media.MediaBrowserService$ServiceBinder$4'
p1409
sg15
(lp1410
sg17
(lp1411
sg19
(lp1412
sg21
I0
sba(iArchitecture
Entity
p1413
(dp1414
g11
(lp1415
sg13
S'android.service.media.MediaBrowserService$ServiceBinder$5'
p1416
sg15
(lp1417
sg17
(lp1418
sg19
(lp1419
sg21
I0
sbasg64
(lp1420
g1325
ag1332
ag1339
ag1346
ag1353
ag1360
ag1367
ag1374
ag1381
ag1388
ag1395
ag1402
ag1409
ag1416
asg21
I0
sg66
S'1259'
p1421
sba(iArchitecture
Cluster
p1422
(dp1423
g7
(lp1424
(iArchitecture
Entity
p1425
(dp1426
g11
(lp1427
sg13
S'android.service.trust.TrustAgentService'
p1428
sg15
(lp1429
sg17
(lp1430
sg19
(lp1431
sg21
I0
sba(iArchitecture
Entity
p1432
(dp1433
g11
(lp1434
sg13
S'android.service.trust.TrustAgentService$1'
p1435
sg15
(lp1436
sg17
(lp1437
sg19
(lp1438
sg21
I0
sba(iArchitecture
Entity
p1439
(dp1440
g11
(lp1441
sg13
S'android.service.trust.TrustAgentService$2'
p1442
sg15
(lp1443
sg17
(lp1444
sg19
(lp1445
sg21
I0
sba(iArchitecture
Entity
p1446
(dp1447
g11
(lp1448
sg13
S'android.service.trust.TrustAgentService$ConfigurationData'
p1449
sg15
(lp1450
sg17
(lp1451
sg19
(lp1452
sg21
I0
sba(iArchitecture
Entity
p1453
(dp1454
g11
(lp1455
sg13
S'android.service.trust.TrustAgentService$TrustAgentServiceWrapper'
p1456
sg15
(lp1457
sg17
(lp1458
sg19
(lp1459
sg21
I0
sbasg64
(lp1460
g1428
ag1435
ag1442
ag1449
ag1456
asg21
I0
sg66
S'1314'
p1461
sba(iArchitecture
Cluster
p1462
(dp1463
g7
(lp1464
(iArchitecture
Entity
p1465
(dp1466
g11
(lp1467
sg13
S'android.service.voice.VoiceInteractionManagerInternal'
p1468
sg15
(lp1469
sg17
(lp1470
sg19
(lp1471
sg21
I0
sbasg64
(lp1472
g1468
asg21
I0
sg66
S'1326'
p1473
sba(iArchitecture
Cluster
p1474
(dp1475
g7
(lp1476
(iArchitecture
Entity
p1477
(dp1478
g11
(lp1479
sg13
S'android.service.notification.Adjustment'
p1480
sg15
(lp1481
sg17
(lp1482
sg19
(lp1483
sg21
I0
sba(iArchitecture
Entity
p1484
(dp1485
g11
(lp1486
sg13
S'android.service.notification.Adjustment$1'
p1487
sg15
(lp1488
sg17
(lp1489
sg19
(lp1490
sg21
I0
sba(iArchitecture
Entity
p1491
(dp1492
g11
(lp1493
sg13
S'android.service.wallpaper.WallpaperSettingsActivity'
p1494
sg15
(lp1495
sg17
(lp1496
sg19
(lp1497
sg21
I0
sbasg64
(lp1498
g1480
ag1487
ag1494
asg21
I0
sg66
S'1330'
p1499
sba(iArchitecture
Cluster
p1500
(dp1501
g7
(lp1502
(iArchitecture
Entity
p1503
(dp1504
g11
(lp1505
sg13
S'android.service.carrier.MessagePdu'
p1506
sg15
(lp1507
sg17
(lp1508
sg19
(lp1509
sg21
I0
sba(iArchitecture
Entity
p1510
(dp1511
g11
(lp1512
sg13
S'android.service.carrier.MessagePdu$1'
p1513
sg15
(lp1514
sg17
(lp1515
sg19
(lp1516
sg21
I0
sba(iArchitecture
Entity
p1517
(dp1518
g11
(lp1519
sg13
S'android.service.dreams.DreamManagerInternal'
p1520
sg15
(lp1521
sg17
(lp1522
sg19
(lp1523
sg21
I0
sbasg64
(lp1524
g1506
ag1513
ag1520
asg21
I0
sg66
S'1331'
p1525
sba(iArchitecture
Cluster
p1526
(dp1527
g7
(lp1528
(iArchitecture
Entity
p1529
(dp1530
g11
(lp1531
sg13
S'android.service.restrictions.RestrictionsReceiver'
p1532
sg15
(lp1533
sg17
(lp1534
sg19
(lp1535
sg21
I0
sba(iArchitecture
Entity
p1536
(dp1537
g11
(lp1538
sg13
S'android.service.voice.VoiceInteractionSessionService'
p1539
sg15
(lp1540
sg17
(lp1541
sg19
(lp1542
sg21
I0
sba(iArchitecture
Entity
p1543
(dp1544
g11
(lp1545
sg13
S'android.service.voice.VoiceInteractionSessionService$1'
p1546
sg15
(lp1547
sg17
(lp1548
sg19
(lp1549
sg21
I0
sba(iArchitecture
Entity
p1550
(dp1551
g11
(lp1552
sg13
S'android.service.voice.VoiceInteractionSessionService$2'
p1553
sg15
(lp1554
sg17
(lp1555
sg19
(lp1556
sg21
I0
sbasg64
(lp1557
g1532
ag1539
ag1546
ag1553
asg21
I0
sg66
S'1384'
p1558
sba(iArchitecture
Cluster
p1559
(dp1560
g7
(lp1561
(iArchitecture
Entity
p1562
(dp1563
g11
(lp1564
sg13
S'android.service.carrier.CarrierService'
p1565
sg15
(lp1566
sg17
(lp1567
sg19
(lp1568
sg21
I0
sba(iArchitecture
Entity
p1569
(dp1570
g11
(lp1571
sg13
S'android.service.carrier.CarrierService$ICarrierServiceWrapper'
p1572
sg15
(lp1573
sg17
(lp1574
sg19
(lp1575
sg21
I0
sba(iArchitecture
Entity
p1576
(dp1577
g11
(lp1578
sg13
S'android.service.chooser.ChooserTargetService'
p1579
sg15
(lp1580
sg17
(lp1581
sg19
(lp1582
sg21
I0
sba(iArchitecture
Entity
p1583
(dp1584
g11
(lp1585
sg13
S'android.service.chooser.ChooserTargetService$IChooserTargetServiceWrapper'
p1586
sg15
(lp1587
sg17
(lp1588
sg19
(lp1589
sg21
I0
sba(iArchitecture
Entity
p1590
(dp1591
g11
(lp1592
sg13
S'android.service.notification.Condition'
p1593
sg15
(lp1594
sg17
(lp1595
sg19
(lp1596
sg21
I0
sba(iArchitecture
Entity
p1597
(dp1598
g11
(lp1599
sg13
S'android.service.notification.Condition$1'
p1600
sg15
(lp1601
sg17
(lp1602
sg19
(lp1603
sg21
I0
sba(iArchitecture
Entity
p1604
(dp1605
g11
(lp1606
sg13
S'android.service.notification.ConditionProviderService'
p1607
sg15
(lp1608
sg17
(lp1609
sg19
(lp1610
sg21
I0
sba(iArchitecture
Entity
p1611
(dp1612
g11
(lp1613
sg13
S'android.service.notification.ConditionProviderService$H'
p1614
sg15
(lp1615
sg17
(lp1616
sg19
(lp1617
sg21
I0
sba(iArchitecture
Entity
p1618
(dp1619
g11
(lp1620
sg13
S'android.service.notification.ConditionProviderService$Provider'
p1621
sg15
(lp1622
sg17
(lp1623
sg19
(lp1624
sg21
I0
sba(iArchitecture
Entity
p1625
(dp1626
g11
(lp1627
sg13
S'android.service.notification.NotificationListenerService'
p1628
sg15
(lp1629
sg17
(lp1630
sg19
(lp1631
sg21
I0
sba(iArchitecture
Entity
p1632
(dp1633
g11
(lp1634
sg13
S'android.service.notification.NotificationListenerService$MyHandler'
p1635
sg15
(lp1636
sg17
(lp1637
sg19
(lp1638
sg21
I0
sba(iArchitecture
Entity
p1639
(dp1640
g11
(lp1641
sg13
S'android.service.notification.NotificationListenerService$NotificationListenerWrapper'
p1642
sg15
(lp1643
sg17
(lp1644
sg19
(lp1645
sg21
I0
sba(iArchitecture
Entity
p1646
(dp1647
g11
(lp1648
sg13
S'android.service.notification.NotificationListenerService$Ranking'
p1649
sg15
(lp1650
sg17
(lp1651
sg19
(lp1652
sg21
I0
sba(iArchitecture
Entity
p1653
(dp1654
g11
(lp1655
sg13
S'android.service.notification.NotificationListenerService$RankingMap'
p1656
sg15
(lp1657
sg17
(lp1658
sg19
(lp1659
sg21
I0
sba(iArchitecture
Entity
p1660
(dp1661
g11
(lp1662
sg13
S'android.service.notification.NotificationListenerService$RankingMap$1'
p1663
sg15
(lp1664
sg17
(lp1665
sg19
(lp1666
sg21
I0
sba(iArchitecture
Entity
p1667
(dp1668
g11
(lp1669
sg13
S'android.service.quicksettings.Tile'
p1670
sg15
(lp1671
sg17
(lp1672
sg19
(lp1673
sg21
I0
sba(iArchitecture
Entity
p1674
(dp1675
g11
(lp1676
sg13
S'android.service.quicksettings.Tile$1'
p1677
sg15
(lp1678
sg17
(lp1679
sg19
(lp1680
sg21
I0
sba(iArchitecture
Entity
p1681
(dp1682
g11
(lp1683
sg13
S'android.service.quicksettings.TileService'
p1684
sg15
(lp1685
sg17
(lp1686
sg19
(lp1687
sg21
I0
sba(iArchitecture
Entity
p1688
(dp1689
g11
(lp1690
sg13
S'android.service.quicksettings.TileService$1'
p1691
sg15
(lp1692
sg17
(lp1693
sg19
(lp1694
sg21
I0
sba(iArchitecture
Entity
p1695
(dp1696
g11
(lp1697
sg13
S'android.service.quicksettings.TileService$2'
p1698
sg15
(lp1699
sg17
(lp1700
sg19
(lp1701
sg21
I0
sba(iArchitecture
Entity
p1702
(dp1703
g11
(lp1704
sg13
S'android.service.quicksettings.TileService$H'
p1705
sg15
(lp1706
sg17
(lp1707
sg19
(lp1708
sg21
I0
sba(iArchitecture
Entity
p1709
(dp1710
g11
(lp1711
sg13
S'android.service.voice.VoiceInteractionSession'
p1712
sg15
(lp1713
sg17
(lp1714
sg19
(lp1715
sg21
I0
sba(iArchitecture
Entity
p1716
(dp1717
g11
(lp1718
sg13
S'android.service.voice.VoiceInteractionSession$1'
p1719
sg15
(lp1720
sg17
(lp1721
sg19
(lp1722
sg21
I0
sba(iArchitecture
Entity
p1723
(dp1724
g11
(lp1725
sg13
S'android.service.voice.VoiceInteractionSession$2'
p1726
sg15
(lp1727
sg17
(lp1728
sg19
(lp1729
sg21
I0
sba(iArchitecture
Entity
p1730
(dp1731
g11
(lp1732
sg13
S'android.service.voice.VoiceInteractionSession$2$1'
p1733
sg15
(lp1734
sg17
(lp1735
sg19
(lp1736
sg21
I0
sba(iArchitecture
Entity
p1737
(dp1738
g11
(lp1739
sg13
S'android.service.voice.VoiceInteractionSession$3'
p1740
sg15
(lp1741
sg17
(lp1742
sg19
(lp1743
sg21
I0
sba(iArchitecture
Entity
p1744
(dp1745
g11
(lp1746
sg13
S'android.service.voice.VoiceInteractionSession$4'
p1747
sg15
(lp1748
sg17
(lp1749
sg19
(lp1750
sg21
I0
sba(iArchitecture
Entity
p1751
(dp1752
g11
(lp1753
sg13
S'android.service.voice.VoiceInteractionSession$AbortVoiceRequest'
p1754
sg15
(lp1755
sg17
(lp1756
sg19
(lp1757
sg21
I0
sba(iArchitecture
Entity
p1758
(dp1759
g11
(lp1760
sg13
S'android.service.voice.VoiceInteractionSession$CommandRequest'
p1761
sg15
(lp1762
sg17
(lp1763
sg19
(lp1764
sg21
I0
sba(iArchitecture
Entity
p1765
(dp1766
g11
(lp1767
sg13
S'android.service.voice.VoiceInteractionSession$CompleteVoiceRequest'
p1768
sg15
(lp1769
sg17
(lp1770
sg19
(lp1771
sg21
I0
sba(iArchitecture
Entity
p1772
(dp1773
g11
(lp1774
sg13
S'android.service.voice.VoiceInteractionSession$ConfirmationRequest'
p1775
sg15
(lp1776
sg17
(lp1777
sg19
(lp1778
sg21
I0
sba(iArchitecture
Entity
p1779
(dp1780
g11
(lp1781
sg13
S'android.service.voice.VoiceInteractionSession$Insets'
p1782
sg15
(lp1783
sg17
(lp1784
sg19
(lp1785
sg21
I0
sba(iArchitecture
Entity
p1786
(dp1787
g11
(lp1788
sg13
S'android.service.voice.VoiceInteractionSession$MyCallbacks'
p1789
sg15
(lp1790
sg17
(lp1791
sg19
(lp1792
sg21
I0
sba(iArchitecture
Entity
p1793
(dp1794
g11
(lp1795
sg13
S'android.service.voice.VoiceInteractionSession$PickOptionRequest'
p1796
sg15
(lp1797
sg17
(lp1798
sg19
(lp1799
sg21
I0
sba(iArchitecture
Entity
p1800
(dp1801
g11
(lp1802
sg13
S'android.service.voice.VoiceInteractionSession$Request'
p1803
sg15
(lp1804
sg17
(lp1805
sg19
(lp1806
sg21
I0
sba(iArchitecture
Entity
p1807
(dp1808
g11
(lp1809
sg13
S'android.service.voice.VoiceInteractionSession$Request$1'
p1810
sg15
(lp1811
sg17
(lp1812
sg19
(lp1813
sg21
I0
sba(iArchitecture
Entity
p1814
(dp1815
g11
(lp1816
sg13
S'android.service.wallpaper.WallpaperService'
p1817
sg15
(lp1818
sg17
(lp1819
sg19
(lp1820
sg21
I0
sba(iArchitecture
Entity
p1821
(dp1822
g11
(lp1823
sg13
S'android.service.wallpaper.WallpaperService$Engine'
p1824
sg15
(lp1825
sg17
(lp1826
sg19
(lp1827
sg21
I0
sba(iArchitecture
Entity
p1828
(dp1829
g11
(lp1830
sg13
S'android.service.wallpaper.WallpaperService$Engine$1'
p1831
sg15
(lp1832
sg17
(lp1833
sg19
(lp1834
sg21
I0
sba(iArchitecture
Entity
p1835
(dp1836
g11
(lp1837
sg13
S'android.service.wallpaper.WallpaperService$Engine$2'
p1838
sg15
(lp1839
sg17
(lp1840
sg19
(lp1841
sg21
I0
sba(iArchitecture
Entity
p1842
(dp1843
g11
(lp1844
sg13
S'android.service.wallpaper.WallpaperService$Engine$3'
p1845
sg15
(lp1846
sg17
(lp1847
sg19
(lp1848
sg21
I0
sba(iArchitecture
Entity
p1849
(dp1850
g11
(lp1851
sg13
S'android.service.wallpaper.WallpaperService$Engine$WallpaperInputEventReceiver'
p1852
sg15
(lp1853
sg17
(lp1854
sg19
(lp1855
sg21
I0
sba(iArchitecture
Entity
p1856
(dp1857
g11
(lp1858
sg13
S'android.service.wallpaper.WallpaperService$IWallpaperEngineWrapper'
p1859
sg15
(lp1860
sg17
(lp1861
sg19
(lp1862
sg21
I0
sba(iArchitecture
Entity
p1863
(dp1864
g11
(lp1865
sg13
S'android.service.wallpaper.WallpaperService$IWallpaperServiceWrapper'
p1866
sg15
(lp1867
sg17
(lp1868
sg19
(lp1869
sg21
I0
sba(iArchitecture
Entity
p1870
(dp1871
g11
(lp1872
sg13
S'android.service.wallpaper.WallpaperService$WallpaperCommand'
p1873
sg15
(lp1874
sg17
(lp1875
sg19
(lp1876
sg21
I0
sbasg64
(lp1877
g1565
ag1572
ag1579
ag1586
ag1593
ag1600
ag1607
ag1614
ag1621
ag1628
ag1635
ag1642
ag1649
ag1656
ag1663
ag1670
ag1677
ag1684
ag1691
ag1698
ag1705
ag1712
ag1719
ag1726
ag1733
ag1740
ag1747
ag1754
ag1761
ag1768
ag1775
ag1782
ag1789
ag1796
ag1803
ag1810
ag1817
ag1824
ag1831
ag1838
ag1845
ag1852
ag1859
ag1866
ag1873
asg21
I0
sg66
S'1401'
p1878
sba(iArchitecture
Cluster
p1879
(dp1880
g7
(lp1881
(iArchitecture
Entity
p1882
(dp1883
g11
(lp1884
sg13
S'android.service.persistentdata.PersistentDataBlockManager'
p1885
sg15
(lp1886
sg17
(lp1887
sg19
(lp1888
sg21
I0
sbasg64
(lp1889
g1885
asg21
I0
sg66
S'1406'
p1890
sba(iArchitecture
Cluster
p1891
(dp1892
g7
(lp1893
(iArchitecture
Entity
p1894
(dp1895
g11
(lp1896
sg13
S'android.service.dreams.Sandman'
p1897
sg15
(lp1898
sg17
(lp1899
sg19
(lp1900
sg21
I0
sbasg64
(lp1901
g1897
asg21
I0
sg66
S'440'
p1902
sba(iArchitecture
Cluster
p1903
(dp1904
g7
(lp1905
(iArchitecture
Entity
p1906
(dp1907
g11
(lp1908
sg13
S'android.service.chooser.ChooserTarget'
p1909
sg15
(lp1910
sg17
(lp1911
sg19
(lp1912
sg21
I0
sba(iArchitecture
Entity
p1913
(dp1914
g11
(lp1915
sg13
S'android.service.chooser.ChooserTarget$1'
p1916
sg15
(lp1917
sg17
(lp1918
sg19
(lp1919
sg21
I0
sbasg64
(lp1920
g1909
ag1916
asg21
I0
sg66
S'558'
p1921
sba(iArchitecture
Cluster
p1922
(dp1923
g7
(lp1924
(iArchitecture
Entity
p1925
(dp1926
g11
(lp1927
sg13
S'android.service.gatekeeper.GateKeeperResponse'
p1928
sg15
(lp1929
sg17
(lp1930
sg19
(lp1931
sg21
I0
sba(iArchitecture
Entity
p1932
(dp1933
g11
(lp1934
sg13
S'android.service.gatekeeper.GateKeeperResponse$1'
p1935
sg15
(lp1936
sg17
(lp1937
sg19
(lp1938
sg21
I0
sbasg64
(lp1939
g1928
ag1935
asg21
I0
sg66
S'661'
p1940
sba(iArchitecture
Cluster
p1941
(dp1942
g7
(lp1943
(iArchitecture
Entity
p1944
(dp1945
g11
(lp1946
sg13
S'android.service.notification.NotificationRankingUpdate'
p1947
sg15
(lp1948
sg17
(lp1949
sg19
(lp1950
sg21
I0
sba(iArchitecture
Entity
p1951
(dp1952
g11
(lp1953
sg13
S'android.service.notification.NotificationRankingUpdate$1'
p1954
sg15
(lp1955
sg17
(lp1956
sg19
(lp1957
sg21
I0
sbasg64
(lp1958
g1947
ag1954
asg21
I0
sg66
S'685'
p1959
sba(iArchitecture
Cluster
p1960
(dp1961
g7
(lp1962
(iArchitecture
Entity
p1963
(dp1964
g11
(lp1965
sg13
S'android.service.voice.VoiceInteractionServiceInfo'
p1966
sg15
(lp1967
sg17
(lp1968
sg19
(lp1969
sg21
I0
sbasg64
(lp1970
g1966
asg21
I0
sg66
S'70'
p1971
sba(iArchitecture
Cluster
p1972
(dp1973
g7
(lp1974
(iArchitecture
Entity
p1975
(dp1976
g11
(lp1977
sg13
S'android.service.notification.StatusBarNotification'
p1978
sg15
(lp1979
sg17
(lp1980
sg19
(lp1981
sg21
I0
sba(iArchitecture
Entity
p1982
(dp1983
g11
(lp1984
sg13
S'android.service.notification.StatusBarNotification$1'
p1985
sg15
(lp1986
sg17
(lp1987
sg19
(lp1988
sg21
I0
sbasg64
(lp1989
g1978
ag1985
asg21
I0
sg66
S'737'
p1990
sba(iArchitecture
Cluster
p1991
(dp1992
g7
(lp1993
(iArchitecture
Entity
p1994
(dp1995
g11
(lp1996
sg13
S'android.service.carrier.CarrierIdentifier'
p1997
sg15
(lp1998
sg17
(lp1999
sg19
(lp2000
sg21
I0
sba(iArchitecture
Entity
p2001
(dp2002
g11
(lp2003
sg13
S'android.service.carrier.CarrierIdentifier$1'
p2004
sg15
(lp2005
sg17
(lp2006
sg19
(lp2007
sg21
I0
sbasg64
(lp2008
g1997
ag2004
asg21
I0
sg66
S'807'
p2009
sba(iArchitecture
Cluster
p2010
(dp2011
g7
(lp2012
(iArchitecture
Entity
p2013
(dp2014
g11
(lp2015
sg13
S'android.service.media.CameraPrewarmService'
p2016
sg15
(lp2017
sg17
(lp2018
sg19
(lp2019
sg21
I0
sba(iArchitecture
Entity
p2020
(dp2021
g11
(lp2022
sg13
S'android.service.media.CameraPrewarmService$1'
p2023
sg15
(lp2024
sg17
(lp2025
sg19
(lp2026
sg21
I0
sbasg64
(lp2027
g2016
ag2023
asg21
I0
sg66
S'817'
p2028
sba(iArchitecture
Cluster
p2029
(dp2030
g7
(lp2031
(iArchitecture
Entity
p2032
(dp2033
g11
(lp2034
sg13
S'android.service.voice.VoiceInteractionService'
p2035
sg15
(lp2036
sg17
(lp2037
sg19
(lp2038
sg21
I0
sba(iArchitecture
Entity
p2039
(dp2040
g11
(lp2041
sg13
S'android.service.voice.VoiceInteractionService$1'
p2042
sg15
(lp2043
sg17
(lp2044
sg19
(lp2045
sg21
I0
sba(iArchitecture
Entity
p2046
(dp2047
g11
(lp2048
sg13
S'android.service.voice.VoiceInteractionService$MyHandler'
p2049
sg15
(lp2050
sg17
(lp2051
sg19
(lp2052
sg21
I0
sbasg64
(lp2053
g2035
ag2042
ag2049
asg21
I0
sg66
S'903'
p2054
sba(iArchitecture
Cluster
p2055
(dp2056
g7
(lp2057
(iArchitecture
Entity
p2058
(dp2059
g11
(lp2060
sg13
S'android.service.vr.VrListenerService'
p2061
sg15
(lp2062
sg17
(lp2063
sg19
(lp2064
sg21
I0
sba(iArchitecture
Entity
p2065
(dp2066
g11
(lp2067
sg13
S'android.service.vr.VrListenerService$1'
p2068
sg15
(lp2069
sg17
(lp2070
sg19
(lp2071
sg21
I0
sba(iArchitecture
Entity
p2072
(dp2073
g11
(lp2074
sg13
S'android.service.vr.VrListenerService$VrListenerHandler'
p2075
sg15
(lp2076
sg17
(lp2077
sg19
(lp2078
sg21
I0
sbasg64
(lp2079
g2061
ag2068
ag2075
asg21
I0
sg66
S'928'
p2080
sbasg992
g993
sg64
(lp2081
sg995
I00
sg66
S'7.0.0_r1'
p2082
sba.