(lp0
(iArchitecture
Architecture
p1
(dp2
S'clusters'
p3
(lp4
(iArchitecture
Cluster
p5
(dp6
S'entities'
p7
(lp8
(iArchitecture
Entity
p9
(dp10
S'issue_ids'
p11
(lp12
sS'name'
p13
S'com.android.server.twilight.TwilightListener'
p14
sS'descs'
p15
(lp16
sS'labels'
p17
(lp18
sS'titles'
p19
(lp20
sS'change'
p21
I0
sbasS'classes'
p22
(lp23
g14
asg21
I0
sS'label'
p24
S'1223'
p25
sba(iArchitecture
Cluster
p26
(dp27
g7
(lp28
(iArchitecture
Entity
p29
(dp30
g11
(lp31
sg13
S'com.android.server.twilight.TwilightManager'
p32
sg15
(lp33
sg17
(lp34
sg19
(lp35
sg21
I0
sbasg22
(lp36
g32
asg21
I0
sg24
S'1261'
p37
sba(iArchitecture
Cluster
p38
(dp39
g7
(lp40
(iArchitecture
Entity
p41
(dp42
g11
(lp43
sg13
S'com.android.server.twilight.TwilightState'
p44
sg15
(lp45
sg17
(lp46
sg19
(lp47
sg21
I0
sbasg22
(lp48
g44
asg21
I0
sg24
S'230'
p49
sba(iArchitecture
Cluster
p50
(dp51
g7
(lp52
(iArchitecture
Entity
p53
(dp54
g11
(lp55
sg13
S'com.android.server.twilight.TwilightService'
p56
sg15
(lp57
sg17
(lp58
sg19
(lp59
sg21
I0
sba(iArchitecture
Entity
p60
(dp61
g11
(lp62
sg13
S'com.android.server.twilight.TwilightService$1'
p63
sg15
(lp64
sg17
(lp65
sg19
(lp66
sg21
I0
sba(iArchitecture
Entity
p67
(dp68
g11
(lp69
sg13
S'com.android.server.twilight.TwilightService$2'
p70
sg15
(lp71
sg17
(lp72
sg19
(lp73
sg21
I0
sba(iArchitecture
Entity
p74
(dp75
g11
(lp76
sg13
S'com.android.server.twilight.TwilightService$3'
p77
sg15
(lp78
sg17
(lp79
sg19
(lp80
sg21
I0
sba(iArchitecture
Entity
p81
(dp82
g11
(lp83
sg13
S'com.android.server.twilight.TwilightService$4'
p84
sg15
(lp85
sg17
(lp86
sg19
(lp87
sg21
I0
sba(iArchitecture
Entity
p88
(dp89
g11
(lp90
sg13
S'com.android.server.twilight.TwilightService$LocationHandler'
p91
sg15
(lp92
sg17
(lp93
sg19
(lp94
sg21
I0
sba(iArchitecture
Entity
p95
(dp96
g11
(lp97
sg13
S'com.android.server.twilight.TwilightService$TwilightListenerRecord'
p98
sg15
(lp99
sg17
(lp100
sg19
(lp101
sg21
I0
sbasg22
(lp102
g56
ag63
ag70
ag77
ag84
ag91
ag98
asg21
I0
sg24
S'954'
p103
sbasS'target_sub'
p104
S'com.android.server.twilight'
p105
sg22
(lp106
sS'is_component_arch'
p107
I00
sg24
S'6.0.0_r1'
p108
sba(iArchitecture
Architecture
p109
(dp110
g3
(lp111
(iArchitecture
Cluster
p112
(dp113
g7
(lp114
(iArchitecture
Entity
p115
(dp116
g11
(lp117
sg13
S'com.android.server.twilight.TwilightService'
p118
sg15
(lp119
sg17
(lp120
sg19
(lp121
sg21
I0
sba(iArchitecture
Entity
p122
(dp123
g11
(lp124
sg13
S'com.android.server.twilight.TwilightService$1'
p125
sg15
(lp126
sg17
(lp127
sg19
(lp128
sg21
I0
sba(iArchitecture
Entity
p129
(dp130
g11
(lp131
sg13
S'com.android.server.twilight.TwilightService$2'
p132
sg15
(lp133
sg17
(lp134
sg19
(lp135
sg21
I0
sba(iArchitecture
Entity
p136
(dp137
g11
(lp138
sg13
S'com.android.server.twilight.TwilightService$3'
p139
sg15
(lp140
sg17
(lp141
sg19
(lp142
sg21
I0
sba(iArchitecture
Entity
p143
(dp144
g11
(lp145
sg13
S'com.android.server.twilight.TwilightService$4'
p146
sg15
(lp147
sg17
(lp148
sg19
(lp149
sg21
I0
sba(iArchitecture
Entity
p150
(dp151
g11
(lp152
sg13
S'com.android.server.twilight.TwilightService$5'
p153
sg15
(lp154
sg17
(lp155
sg19
(lp156
sg21
I0
sba(iArchitecture
Entity
p157
(dp158
g11
(lp159
sg13
S'com.android.server.twilight.TwilightService$LocationHandler'
p160
sg15
(lp161
sg17
(lp162
sg19
(lp163
sg21
I0
sba(iArchitecture
Entity
p164
(dp165
g11
(lp166
sg13
S'com.android.server.twilight.TwilightService$TwilightListenerRecord'
p167
sg15
(lp168
sg17
(lp169
sg19
(lp170
sg21
I0
sbasg22
(lp171
g118
ag125
ag132
ag139
ag146
ag153
ag160
ag167
asg21
I0
sg24
S'1177'
p172
sba(iArchitecture
Cluster
p173
(dp174
g7
(lp175
(iArchitecture
Entity
p176
(dp177
g11
(lp178
sg13
S'com.android.server.twilight.TwilightListener'
p179
sg15
(lp180
sg17
(lp181
sg19
(lp182
sg21
I0
sbasg22
(lp183
g179
asg21
I0
sg24
S'1330'
p184
sba(iArchitecture
Cluster
p185
(dp186
g7
(lp187
(iArchitecture
Entity
p188
(dp189
g11
(lp190
sg13
S'com.android.server.twilight.TwilightManager'
p191
sg15
(lp192
sg17
(lp193
sg19
(lp194
sg21
I0
sbasg22
(lp195
g191
asg21
I0
sg24
S'1384'
p196
sba(iArchitecture
Cluster
p197
(dp198
g7
(lp199
(iArchitecture
Entity
p200
(dp201
g11
(lp202
sg13
S'com.android.server.twilight.TwilightState'
p203
sg15
(lp204
sg17
(lp205
sg19
(lp206
sg21
I0
sbasg22
(lp207
g203
asg21
I0
sg24
S'253'
p208
sbasg104
g105
sg22
(lp209
sg107
I00
sg24
S'7.0.0_r1'
p210
sba.