(lp0
(iArchitecture
Architecture
p1
(dp2
S'clusters'
p3
(lp4
(iArchitecture
Cluster
p5
(dp6
S'entities'
p7
(lp8
(iArchitecture
Entity
p9
(dp10
S'issue_ids'
p11
(lp12
sS'name'
p13
S'com.android.server.am.ActivityStack'
p14
sS'descs'
p15
(lp16
sS'labels'
p17
(lp18
sS'titles'
p19
(lp20
sS'change'
p21
I0
sba(iArchitecture
Entity
p22
(dp23
g11
(lp24
sg13
S'com.android.server.am.ActivityStack$ActivityStackHandler'
p25
sg15
(lp26
sg17
(lp27
sg19
(lp28
sg21
I0
sba(iArchitecture
Entity
p29
(dp30
g11
(lp31
sg13
S'com.android.server.am.ActivityStack$ActivityState'
p32
sg15
(lp33
sg17
(lp34
sg19
(lp35
sg21
I0
sba(iArchitecture
Entity
p36
(dp37
g11
(lp38
sg13
S'com.android.server.am.ActivityStack$ScheduleDestroyArgs'
p39
sg15
(lp40
sg17
(lp41
sg19
(lp42
sg21
I0
sba(iArchitecture
Entity
p43
(dp44
g11
(lp45
sg13
S'com.android.server.am.TaskRecord'
p46
sg15
(lp47
sg17
(lp48
sg19
(lp49
sg21
I0
sbasS'classes'
p50
(lp51
g14
ag25
ag32
ag39
ag46
asg21
I0
sS'label'
p52
S'1154'
p53
sba(iArchitecture
Cluster
p54
(dp55
g7
(lp56
(iArchitecture
Entity
p57
(dp58
g11
(lp59
sg13
S'com.android.server.am.BackupRecord'
p60
sg15
(lp61
sg17
(lp62
sg19
(lp63
sg21
I0
sbasg50
(lp64
g60
asg21
I0
sg52
S'1177'
p65
sba(iArchitecture
Cluster
p66
(dp67
g7
(lp68
(iArchitecture
Entity
p69
(dp70
g11
(lp71
sg13
S'com.android.server.am.CompatModeDialog'
p72
sg15
(lp73
sg17
(lp74
sg19
(lp75
sg21
I0
sba(iArchitecture
Entity
p76
(dp77
g11
(lp78
sg13
S'com.android.server.am.CompatModeDialog$1'
p79
sg15
(lp80
sg17
(lp81
sg19
(lp82
sg21
I0
sba(iArchitecture
Entity
p83
(dp84
g11
(lp85
sg13
S'com.android.server.am.CompatModeDialog$2'
p86
sg15
(lp87
sg17
(lp88
sg19
(lp89
sg21
I0
sbasg50
(lp90
g72
ag79
ag86
asg21
I0
sg52
S'1198'
p91
sba(iArchitecture
Cluster
p92
(dp93
g7
(lp94
(iArchitecture
Entity
p95
(dp96
g11
(lp97
sg13
S'com.android.server.am.ActivityResult'
p98
sg15
(lp99
sg17
(lp100
sg19
(lp101
sg21
I0
sba(iArchitecture
Entity
p102
(dp103
g11
(lp104
sg13
S'com.android.server.am.AppErrorResult'
p105
sg15
(lp106
sg17
(lp107
sg19
(lp108
sg21
I0
sba(iArchitecture
Entity
p109
(dp110
g11
(lp111
sg13
S'com.android.server.am.LaunchWarningWindow'
p112
sg15
(lp113
sg17
(lp114
sg19
(lp115
sg21
I0
sbasg50
(lp116
g98
ag105
ag112
asg21
I0
sg52
S'1223'
p117
sba(iArchitecture
Cluster
p118
(dp119
g7
(lp120
(iArchitecture
Entity
p121
(dp122
g11
(lp123
sg13
S'com.android.server.am.ProcessRecord'
p124
sg15
(lp125
sg17
(lp126
sg19
(lp127
sg21
I0
sba(iArchitecture
Entity
p128
(dp129
g11
(lp130
sg13
S'com.android.server.am.ServiceRecord'
p131
sg15
(lp132
sg17
(lp133
sg19
(lp134
sg21
I0
sba(iArchitecture
Entity
p135
(dp136
g11
(lp137
sg13
S'com.android.server.am.ServiceRecord$1'
p138
sg15
(lp139
sg17
(lp140
sg19
(lp141
sg21
I0
sba(iArchitecture
Entity
p142
(dp143
g11
(lp144
sg13
S'com.android.server.am.ServiceRecord$2'
p145
sg15
(lp146
sg17
(lp147
sg19
(lp148
sg21
I0
sba(iArchitecture
Entity
p149
(dp150
g11
(lp151
sg13
S'com.android.server.am.ServiceRecord$3'
p152
sg15
(lp153
sg17
(lp154
sg19
(lp155
sg21
I0
sba(iArchitecture
Entity
p156
(dp157
g11
(lp158
sg13
S'com.android.server.am.ServiceRecord$StartItem'
p159
sg15
(lp160
sg17
(lp161
sg19
(lp162
sg21
I0
sbasg50
(lp163
g124
ag131
ag138
ag145
ag152
ag159
asg21
I0
sg52
S'1232'
p164
sba(iArchitecture
Cluster
p165
(dp166
g7
(lp167
(iArchitecture
Entity
p168
(dp169
g11
(lp170
sg13
S'com.android.server.am.PendingIntentRecord'
p171
sg15
(lp172
sg17
(lp173
sg19
(lp174
sg21
I0
sba(iArchitecture
Entity
p175
(dp176
g11
(lp177
sg13
S'com.android.server.am.PendingIntentRecord$Key'
p178
sg15
(lp179
sg17
(lp180
sg19
(lp181
sg21
I0
sba(iArchitecture
Entity
p182
(dp183
g11
(lp184
sg13
S'com.android.server.am.ProviderMap'
p185
sg15
(lp186
sg17
(lp187
sg19
(lp188
sg21
I0
sbasg50
(lp189
g171
ag178
ag185
asg21
I0
sg52
S'1233'
p190
sba(iArchitecture
Cluster
p191
(dp192
g7
(lp193
(iArchitecture
Entity
p194
(dp195
g11
(lp196
sg13
S'com.android.server.am.ActivityRecord'
p197
sg15
(lp198
sg17
(lp199
sg19
(lp200
sg21
I0
sba(iArchitecture
Entity
p201
(dp202
g11
(lp203
sg13
S'com.android.server.am.ActivityRecord$Token'
p204
sg15
(lp205
sg17
(lp206
sg19
(lp207
sg21
I0
sba(iArchitecture
Entity
p208
(dp209
g11
(lp210
sg13
S'com.android.server.am.AppBindRecord'
p211
sg15
(lp212
sg17
(lp213
sg19
(lp214
sg21
I0
sba(iArchitecture
Entity
p215
(dp216
g11
(lp217
sg13
S'com.android.server.am.AppErrorDialog'
p218
sg15
(lp219
sg17
(lp220
sg19
(lp221
sg21
I0
sba(iArchitecture
Entity
p222
(dp223
g11
(lp224
sg13
S'com.android.server.am.AppErrorDialog$1'
p225
sg15
(lp226
sg17
(lp227
sg19
(lp228
sg21
I0
sba(iArchitecture
Entity
p229
(dp230
g11
(lp231
sg13
S'com.android.server.am.AppNotRespondingDialog'
p232
sg15
(lp233
sg17
(lp234
sg19
(lp235
sg21
I0
sba(iArchitecture
Entity
p236
(dp237
g11
(lp238
sg13
S'com.android.server.am.AppNotRespondingDialog$1'
p239
sg15
(lp240
sg17
(lp241
sg19
(lp242
sg21
I0
sba(iArchitecture
Entity
p243
(dp244
g11
(lp245
sg13
S'com.android.server.am.AppWaitingForDebuggerDialog'
p246
sg15
(lp247
sg17
(lp248
sg19
(lp249
sg21
I0
sba(iArchitecture
Entity
p250
(dp251
g11
(lp252
sg13
S'com.android.server.am.AppWaitingForDebuggerDialog$1'
p253
sg15
(lp254
sg17
(lp255
sg19
(lp256
sg21
I0
sba(iArchitecture
Entity
p257
(dp258
g11
(lp259
sg13
S'com.android.server.am.BaseErrorDialog'
p260
sg15
(lp261
sg17
(lp262
sg19
(lp263
sg21
I0
sba(iArchitecture
Entity
p264
(dp265
g11
(lp266
sg13
S'com.android.server.am.BaseErrorDialog$1'
p267
sg15
(lp268
sg17
(lp269
sg19
(lp270
sg21
I0
sba(iArchitecture
Entity
p271
(dp272
g11
(lp273
sg13
S'com.android.server.am.BroadcastFilter'
p274
sg15
(lp275
sg17
(lp276
sg19
(lp277
sg21
I0
sba(iArchitecture
Entity
p278
(dp279
g11
(lp280
sg13
S'com.android.server.am.BroadcastRecord'
p281
sg15
(lp282
sg17
(lp283
sg19
(lp284
sg21
I0
sba(iArchitecture
Entity
p285
(dp286
g11
(lp287
sg13
S'com.android.server.am.DumpHeapProvider'
p288
sg15
(lp289
sg17
(lp290
sg19
(lp291
sg21
I0
sba(iArchitecture
Entity
p292
(dp293
g11
(lp294
sg13
S'com.android.server.am.FactoryErrorDialog'
p295
sg15
(lp296
sg17
(lp297
sg19
(lp298
sg21
I0
sba(iArchitecture
Entity
p299
(dp300
g11
(lp301
sg13
S'com.android.server.am.FactoryErrorDialog$1'
p302
sg15
(lp303
sg17
(lp304
sg19
(lp305
sg21
I0
sba(iArchitecture
Entity
p306
(dp307
g11
(lp308
sg13
S'com.android.server.am.IntentBindRecord'
p309
sg15
(lp310
sg17
(lp311
sg19
(lp312
sg21
I0
sba(iArchitecture
Entity
p313
(dp314
g11
(lp315
sg13
S'com.android.server.am.ProcessMemInfo'
p316
sg15
(lp317
sg17
(lp318
sg19
(lp319
sg21
I0
sba(iArchitecture
Entity
p320
(dp321
g11
(lp322
sg13
S'com.android.server.am.ReceiverList'
p323
sg15
(lp324
sg17
(lp325
sg19
(lp326
sg21
I0
sba(iArchitecture
Entity
p327
(dp328
g11
(lp329
sg13
S'com.android.server.am.StrictModeViolationDialog'
p330
sg15
(lp331
sg17
(lp332
sg19
(lp333
sg21
I0
sba(iArchitecture
Entity
p334
(dp335
g11
(lp336
sg13
S'com.android.server.am.StrictModeViolationDialog$1'
p337
sg15
(lp338
sg17
(lp339
sg19
(lp340
sg21
I0
sba(iArchitecture
Entity
p341
(dp342
g11
(lp343
sg13
S'com.android.server.am.UidRecord'
p344
sg15
(lp345
sg17
(lp346
sg19
(lp347
sg21
I0
sba(iArchitecture
Entity
p348
(dp349
g11
(lp350
sg13
S'com.android.server.am.UidRecord$ChangeItem'
p351
sg15
(lp352
sg17
(lp353
sg19
(lp354
sg21
I0
sba(iArchitecture
Entity
p355
(dp356
g11
(lp357
sg13
S'com.android.server.am.UriPermissionOwner'
p358
sg15
(lp359
sg17
(lp360
sg19
(lp361
sg21
I0
sba(iArchitecture
Entity
p362
(dp363
g11
(lp364
sg13
S'com.android.server.am.UriPermissionOwner$ExternalToken'
p365
sg15
(lp366
sg17
(lp367
sg19
(lp368
sg21
I0
sbasg50
(lp369
g197
ag204
ag211
ag218
ag225
ag232
ag239
ag246
ag253
ag260
ag267
ag274
ag281
ag288
ag295
ag302
ag309
ag316
ag323
ag330
ag337
ag344
ag351
ag358
ag365
asg21
I0
sg52
S'1246'
p370
sba(iArchitecture
Cluster
p371
(dp372
g7
(lp373
(iArchitecture
Entity
p374
(dp375
g11
(lp376
sg13
S'com.android.server.am.UserState'
p377
sg15
(lp378
sg17
(lp379
sg19
(lp380
sg21
I0
sbasg50
(lp381
g377
asg21
I0
sg52
S'1252'
p382
sba(iArchitecture
Cluster
p383
(dp384
g7
(lp385
(iArchitecture
Entity
p386
(dp387
g11
(lp388
sg13
S'com.android.server.am.NativeCrashListener'
p389
sg15
(lp390
sg17
(lp391
sg19
(lp392
sg21
I0
sba(iArchitecture
Entity
p393
(dp394
g11
(lp395
sg13
S'com.android.server.am.NativeCrashListener$NativeCrashReporter'
p396
sg15
(lp397
sg17
(lp398
sg19
(lp399
sg21
I0
sbasg50
(lp400
g389
ag396
asg21
I0
sg52
S'1263'
p401
sba(iArchitecture
Cluster
p402
(dp403
g7
(lp404
(iArchitecture
Entity
p405
(dp406
g11
(lp407
sg13
S'com.android.server.am.ProcessList'
p408
sg15
(lp409
sg17
(lp410
sg19
(lp411
sg21
I0
sbasg50
(lp412
g408
asg21
I0
sg52
S'206'
p413
sba(iArchitecture
Cluster
p414
(dp415
g7
(lp416
(iArchitecture
Entity
p417
(dp418
g11
(lp419
sg13
S'com.android.server.am.ActivityManagerDebugConfig'
p420
sg15
(lp421
sg17
(lp422
sg19
(lp423
sg21
I0
sbasg50
(lp424
g420
asg21
I0
sg52
S'242'
p425
sba(iArchitecture
Cluster
p426
(dp427
g7
(lp428
(iArchitecture
Entity
p429
(dp430
g11
(lp431
sg13
S'com.android.server.am.CoreSettingsObserver'
p432
sg15
(lp433
sg17
(lp434
sg19
(lp435
sg21
I0
sbasg50
(lp436
g432
asg21
I0
sg52
S'271'
p437
sba(iArchitecture
Cluster
p438
(dp439
g7
(lp440
(iArchitecture
Entity
p441
(dp442
g11
(lp443
sg13
S'com.android.server.am.AppTimeTracker'
p444
sg15
(lp445
sg17
(lp446
sg19
(lp447
sg21
I0
sbasg50
(lp448
g444
asg21
I0
sg52
S'296'
p449
sba(iArchitecture
Cluster
p450
(dp451
g7
(lp452
(iArchitecture
Entity
p453
(dp454
g11
(lp455
sg13
S'com.android.server.am.ConnectionRecord'
p456
sg15
(lp457
sg17
(lp458
sg19
(lp459
sg21
I0
sbasg50
(lp460
g456
asg21
I0
sg52
S'322'
p461
sba(iArchitecture
Cluster
p462
(dp463
g7
(lp464
(iArchitecture
Entity
p465
(dp466
g11
(lp467
sg13
S'com.android.server.am.LockTaskNotify'
p468
sg15
(lp469
sg17
(lp470
sg19
(lp471
sg21
I0
sba(iArchitecture
Entity
p472
(dp473
g11
(lp474
sg13
S'com.android.server.am.LockTaskNotify$H'
p475
sg15
(lp476
sg17
(lp477
sg19
(lp478
sg21
I0
sbasg50
(lp479
g468
ag475
asg21
I0
sg52
S'461'
p480
sba(iArchitecture
Cluster
p481
(dp482
g7
(lp483
(iArchitecture
Entity
p484
(dp485
g11
(lp486
sg13
S'com.android.server.am.UserSwitchingDialog'
p487
sg15
(lp488
sg17
(lp489
sg19
(lp490
sg21
I0
sba(iArchitecture
Entity
p491
(dp492
g11
(lp493
sg13
S'com.android.server.am.UserSwitchingDialog$1'
p494
sg15
(lp495
sg17
(lp496
sg19
(lp497
sg21
I0
sbasg50
(lp498
g487
ag494
asg21
I0
sg52
S'482'
p499
sba(iArchitecture
Cluster
p500
(dp501
g7
(lp502
(iArchitecture
Entity
p503
(dp504
g11
(lp505
sg13
S'com.android.server.am.ContentProviderConnection'
p506
sg15
(lp507
sg17
(lp508
sg19
(lp509
sg21
I0
sbasg50
(lp510
g506
asg21
I0
sg52
S'49'
p511
sba(iArchitecture
Cluster
p512
(dp513
g7
(lp514
(iArchitecture
Entity
p515
(dp516
g11
(lp517
sg13
S'com.android.server.am.ContentProviderRecord'
p518
sg15
(lp519
sg17
(lp520
sg19
(lp521
sg21
I0
sba(iArchitecture
Entity
p522
(dp523
g11
(lp524
sg13
S'com.android.server.am.ContentProviderRecord$ExternalProcessHandle'
p525
sg15
(lp526
sg17
(lp527
sg19
(lp528
sg21
I0
sbasg50
(lp529
g518
ag525
asg21
I0
sg52
S'697'
p530
sba(iArchitecture
Cluster
p531
(dp532
g7
(lp533
(iArchitecture
Entity
p534
(dp535
g11
(lp536
sg13
S'com.android.server.am.RecentTasks'
p537
sg15
(lp538
sg17
(lp539
sg19
(lp540
sg21
I0
sba(iArchitecture
Entity
p541
(dp542
g11
(lp543
sg13
S'com.android.server.am.RecentTasks$1'
p544
sg15
(lp545
sg17
(lp546
sg19
(lp547
sg21
I0
sbasg50
(lp548
g537
ag544
asg21
I0
sg52
S'722'
p549
sba(iArchitecture
Cluster
p550
(dp551
g7
(lp552
(iArchitecture
Entity
p553
(dp554
g11
(lp555
sg13
S'com.android.server.am.UriPermission'
p556
sg15
(lp557
sg17
(lp558
sg19
(lp559
sg21
I0
sba(iArchitecture
Entity
p560
(dp561
g11
(lp562
sg13
S'com.android.server.am.UriPermission$PersistedTimeComparator'
p563
sg15
(lp564
sg17
(lp565
sg19
(lp566
sg21
I0
sba(iArchitecture
Entity
p567
(dp568
g11
(lp569
sg13
S'com.android.server.am.UriPermission$Snapshot'
p570
sg15
(lp571
sg17
(lp572
sg19
(lp573
sg21
I0
sbasg50
(lp574
g556
ag563
ag570
asg21
I0
sg52
S'749'
p575
sba(iArchitecture
Cluster
p576
(dp577
g7
(lp578
(iArchitecture
Entity
p579
(dp580
g11
(lp581
sg13
S'com.android.server.am.TaskPersister'
p582
sg15
(lp583
sg17
(lp584
sg19
(lp585
sg21
I0
sba(iArchitecture
Entity
p586
(dp587
g11
(lp588
sg13
S'com.android.server.am.TaskPersister$1'
p589
sg15
(lp590
sg17
(lp591
sg19
(lp592
sg21
I0
sba(iArchitecture
Entity
p593
(dp594
g11
(lp595
sg13
S'com.android.server.am.TaskPersister$ImageWriteQueueItem'
p596
sg15
(lp597
sg17
(lp598
sg19
(lp599
sg21
I0
sba(iArchitecture
Entity
p600
(dp601
g11
(lp602
sg13
S'com.android.server.am.TaskPersister$LazyTaskWriterThread'
p603
sg15
(lp604
sg17
(lp605
sg19
(lp606
sg21
I0
sba(iArchitecture
Entity
p607
(dp608
g11
(lp609
sg13
S'com.android.server.am.TaskPersister$TaskWriteQueueItem'
p610
sg15
(lp611
sg17
(lp612
sg19
(lp613
sg21
I0
sba(iArchitecture
Entity
p614
(dp615
g11
(lp616
sg13
S'com.android.server.am.TaskPersister$WriteQueueItem'
p617
sg15
(lp618
sg17
(lp619
sg19
(lp620
sg21
I0
sbasg50
(lp621
g582
ag589
ag596
ag603
ag610
ag617
asg21
I0
sg52
S'996'
p622
sbasS'target_sub'
p623
S'com.android.server.am'
p624
sg50
(lp625
sS'is_component_arch'
p626
I00
sg52
S'6.0.0_r1'
p627
sba(iArchitecture
Architecture
p628
(dp629
g3
(lp630
(iArchitecture
Cluster
p631
(dp632
g7
(lp633
(iArchitecture
Entity
p634
(dp635
g11
(lp636
sg13
S'com.android.server.am.TaskPersister'
p637
sg15
(lp638
sg17
(lp639
sg19
(lp640
sg21
I0
sba(iArchitecture
Entity
p641
(dp642
g11
(lp643
sg13
S'com.android.server.am.TaskPersister$1'
p644
sg15
(lp645
sg17
(lp646
sg19
(lp647
sg21
I0
sba(iArchitecture
Entity
p648
(dp649
g11
(lp650
sg13
S'com.android.server.am.TaskPersister$ImageWriteQueueItem'
p651
sg15
(lp652
sg17
(lp653
sg19
(lp654
sg21
I0
sba(iArchitecture
Entity
p655
(dp656
g11
(lp657
sg13
S'com.android.server.am.TaskPersister$LazyTaskWriterThread'
p658
sg15
(lp659
sg17
(lp660
sg19
(lp661
sg21
I0
sba(iArchitecture
Entity
p662
(dp663
g11
(lp664
sg13
S'com.android.server.am.TaskPersister$TaskWriteQueueItem'
p665
sg15
(lp666
sg17
(lp667
sg19
(lp668
sg21
I0
sba(iArchitecture
Entity
p669
(dp670
g11
(lp671
sg13
S'com.android.server.am.TaskPersister$WriteQueueItem'
p672
sg15
(lp673
sg17
(lp674
sg19
(lp675
sg21
I0
sbasg50
(lp676
g637
ag644
ag651
ag658
ag665
ag672
asg21
I0
sg52
S'1123'
p677
sba(iArchitecture
Cluster
p678
(dp679
g7
(lp680
(iArchitecture
Entity
p681
(dp682
g11
(lp683
sg13
S'com.android.server.am.ActivityRecord'
p684
sg15
(lp685
sg17
(lp686
sg19
(lp687
sg21
I0
sba(iArchitecture
Entity
p688
(dp689
g11
(lp690
sg13
S'com.android.server.am.ActivityRecord$Token'
p691
sg15
(lp692
sg17
(lp693
sg19
(lp694
sg21
I0
sba(iArchitecture
Entity
p695
(dp696
g11
(lp697
sg13
S'com.android.server.am.ActivityStack'
p698
sg15
(lp699
sg17
(lp700
sg19
(lp701
sg21
I0
sba(iArchitecture
Entity
p702
(dp703
g11
(lp704
sg13
S'com.android.server.am.ActivityStack$ActivityStackHandler'
p705
sg15
(lp706
sg17
(lp707
sg19
(lp708
sg21
I0
sba(iArchitecture
Entity
p709
(dp710
g11
(lp711
sg13
S'com.android.server.am.ActivityStack$ActivityState'
p712
sg15
(lp713
sg17
(lp714
sg19
(lp715
sg21
I0
sba(iArchitecture
Entity
p716
(dp717
g11
(lp718
sg13
S'com.android.server.am.ActivityStack$ScheduleDestroyArgs'
p719
sg15
(lp720
sg17
(lp721
sg19
(lp722
sg21
I0
sba(iArchitecture
Entity
p723
(dp724
g11
(lp725
sg13
S'com.android.server.am.ActivityStarter'
p726
sg15
(lp727
sg17
(lp728
sg19
(lp729
sg21
I0
sba(iArchitecture
Entity
p730
(dp731
g11
(lp732
sg13
S'com.android.server.am.TaskRecord'
p733
sg15
(lp734
sg17
(lp735
sg19
(lp736
sg21
I0
sbasg50
(lp737
g684
ag691
ag698
ag705
ag712
ag719
ag726
ag733
asg21
I0
sg52
S'1263'
p738
sba(iArchitecture
Cluster
p739
(dp740
g7
(lp741
(iArchitecture
Entity
p742
(dp743
g11
(lp744
sg13
S'com.android.server.am.ProcessRecord'
p745
sg15
(lp746
sg17
(lp747
sg19
(lp748
sg21
I0
sbasg50
(lp749
g745
asg21
I0
sg52
S'13'
p750
sba(iArchitecture
Cluster
p751
(dp752
g7
(lp753
(iArchitecture
Entity
p754
(dp755
g11
(lp756
sg13
S'com.android.server.am.ActivityResult'
p757
sg15
(lp758
sg17
(lp759
sg19
(lp760
sg21
I0
sba(iArchitecture
Entity
p761
(dp762
g11
(lp763
sg13
S'com.android.server.am.AppBindRecord'
p764
sg15
(lp765
sg17
(lp766
sg19
(lp767
sg21
I0
sba(iArchitecture
Entity
p768
(dp769
g11
(lp770
sg13
S'com.android.server.am.AppErrorResult'
p771
sg15
(lp772
sg17
(lp773
sg19
(lp774
sg21
I0
sba(iArchitecture
Entity
p775
(dp776
g11
(lp777
sg13
S'com.android.server.am.BroadcastFilter'
p778
sg15
(lp779
sg17
(lp780
sg19
(lp781
sg21
I0
sba(iArchitecture
Entity
p782
(dp783
g11
(lp784
sg13
S'com.android.server.am.BroadcastRecord'
p785
sg15
(lp786
sg17
(lp787
sg19
(lp788
sg21
I0
sba(iArchitecture
Entity
p789
(dp790
g11
(lp791
sg13
S'com.android.server.am.DumpHeapProvider'
p792
sg15
(lp793
sg17
(lp794
sg19
(lp795
sg21
I0
sba(iArchitecture
Entity
p796
(dp797
g11
(lp798
sg13
S'com.android.server.am.IntentBindRecord'
p799
sg15
(lp800
sg17
(lp801
sg19
(lp802
sg21
I0
sba(iArchitecture
Entity
p803
(dp804
g11
(lp805
sg13
S'com.android.server.am.LaunchWarningWindow'
p806
sg15
(lp807
sg17
(lp808
sg19
(lp809
sg21
I0
sba(iArchitecture
Entity
p810
(dp811
g11
(lp812
sg13
S'com.android.server.am.ReceiverList'
p813
sg15
(lp814
sg17
(lp815
sg19
(lp816
sg21
I0
sba(iArchitecture
Entity
p817
(dp818
g11
(lp819
sg13
S'com.android.server.am.UnsupportedDisplaySizeDialog'
p820
sg15
(lp821
sg17
(lp822
sg19
(lp823
sg21
I0
sba(iArchitecture
Entity
p824
(dp825
g11
(lp826
sg13
S'com.android.server.am.UnsupportedDisplaySizeDialog$_void__init__com_android_server_am_ActivityManagerService_service_android_content_Context_context_android_content_pm_ApplicationInfo_appInfo_LambdaImpl0'
p827
sg15
(lp828
sg17
(lp829
sg19
(lp830
sg21
I0
sba(iArchitecture
Entity
p831
(dp832
g11
(lp833
sg13
S'com.android.server.am.UriPermissionOwner'
p834
sg15
(lp835
sg17
(lp836
sg19
(lp837
sg21
I0
sba(iArchitecture
Entity
p838
(dp839
g11
(lp840
sg13
S'com.android.server.am.UriPermissionOwner$ExternalToken'
p841
sg15
(lp842
sg17
(lp843
sg19
(lp844
sg21
I0
sbasg50
(lp845
g757
ag764
ag771
ag778
ag785
ag792
ag799
ag806
ag813
ag820
ag827
ag834
ag841
asg21
I0
sg52
S'1330'
p846
sba(iArchitecture
Cluster
p847
(dp848
g7
(lp849
(iArchitecture
Entity
p850
(dp851
g11
(lp852
sg13
S'com.android.server.am.AppErrorDialog'
p853
sg15
(lp854
sg17
(lp855
sg19
(lp856
sg21
I0
sba(iArchitecture
Entity
p857
(dp858
g11
(lp859
sg13
S'com.android.server.am.AppErrorDialog$1'
p860
sg15
(lp861
sg17
(lp862
sg19
(lp863
sg21
I0
sba(iArchitecture
Entity
p864
(dp865
g11
(lp866
sg13
S'com.android.server.am.AppErrorDialog$2'
p867
sg15
(lp868
sg17
(lp869
sg19
(lp870
sg21
I0
sba(iArchitecture
Entity
p871
(dp872
g11
(lp873
sg13
S'com.android.server.am.AppErrorDialog$Data'
p874
sg15
(lp875
sg17
(lp876
sg19
(lp877
sg21
I0
sba(iArchitecture
Entity
p878
(dp879
g11
(lp880
sg13
S'com.android.server.am.AppNotRespondingDialog'
p881
sg15
(lp882
sg17
(lp883
sg19
(lp884
sg21
I0
sba(iArchitecture
Entity
p885
(dp886
g11
(lp887
sg13
S'com.android.server.am.AppNotRespondingDialog$1'
p888
sg15
(lp889
sg17
(lp890
sg19
(lp891
sg21
I0
sba(iArchitecture
Entity
p892
(dp893
g11
(lp894
sg13
S'com.android.server.am.AppWaitingForDebuggerDialog'
p895
sg15
(lp896
sg17
(lp897
sg19
(lp898
sg21
I0
sba(iArchitecture
Entity
p899
(dp900
g11
(lp901
sg13
S'com.android.server.am.AppWaitingForDebuggerDialog$1'
p902
sg15
(lp903
sg17
(lp904
sg19
(lp905
sg21
I0
sba(iArchitecture
Entity
p906
(dp907
g11
(lp908
sg13
S'com.android.server.am.BaseErrorDialog'
p909
sg15
(lp910
sg17
(lp911
sg19
(lp912
sg21
I0
sba(iArchitecture
Entity
p913
(dp914
g11
(lp915
sg13
S'com.android.server.am.BaseErrorDialog$1'
p916
sg15
(lp917
sg17
(lp918
sg19
(lp919
sg21
I0
sba(iArchitecture
Entity
p920
(dp921
g11
(lp922
sg13
S'com.android.server.am.FactoryErrorDialog'
p923
sg15
(lp924
sg17
(lp925
sg19
(lp926
sg21
I0
sba(iArchitecture
Entity
p927
(dp928
g11
(lp929
sg13
S'com.android.server.am.FactoryErrorDialog$1'
p930
sg15
(lp931
sg17
(lp932
sg19
(lp933
sg21
I0
sba(iArchitecture
Entity
p934
(dp935
g11
(lp936
sg13
S'com.android.server.am.ProcessMemInfo'
p937
sg15
(lp938
sg17
(lp939
sg19
(lp940
sg21
I0
sba(iArchitecture
Entity
p941
(dp942
g11
(lp943
sg13
S'com.android.server.am.StrictModeViolationDialog'
p944
sg15
(lp945
sg17
(lp946
sg19
(lp947
sg21
I0
sba(iArchitecture
Entity
p948
(dp949
g11
(lp950
sg13
S'com.android.server.am.StrictModeViolationDialog$1'
p951
sg15
(lp952
sg17
(lp953
sg19
(lp954
sg21
I0
sbasg50
(lp955
g853
ag860
ag867
ag874
ag881
ag888
ag895
ag902
ag909
ag916
ag923
ag930
ag937
ag944
ag951
asg21
I0
sg52
S'1331'
p956
sba(iArchitecture
Cluster
p957
(dp958
g7
(lp959
(iArchitecture
Entity
p960
(dp961
g11
(lp962
sg13
S'com.android.server.am.PreBootBroadcaster'
p963
sg15
(lp964
sg17
(lp965
sg19
(lp966
sg21
I0
sbasg50
(lp967
g963
asg21
I0
sg52
S'1366'
p968
sba(iArchitecture
Cluster
p969
(dp970
g7
(lp971
(iArchitecture
Entity
p972
(dp973
g11
(lp974
sg13
S'com.android.server.am.ContentProviderConnection'
p975
sg15
(lp976
sg17
(lp977
sg19
(lp978
sg21
I0
sbasg50
(lp979
g975
asg21
I0
sg52
S'1384'
p980
sba(iArchitecture
Cluster
p981
(dp982
g7
(lp983
(iArchitecture
Entity
p984
(dp985
g11
(lp986
sg13
S'com.android.server.am.UserSwitchingDialog'
p987
sg15
(lp988
sg17
(lp989
sg19
(lp990
sg21
I0
sba(iArchitecture
Entity
p991
(dp992
g11
(lp993
sg13
S'com.android.server.am.UserSwitchingDialog$1'
p994
sg15
(lp995
sg17
(lp996
sg19
(lp997
sg21
I0
sbasg50
(lp998
g987
ag994
asg21
I0
sg52
S'1385'
p999
sba(iArchitecture
Cluster
p1000
(dp1001
g7
(lp1002
(iArchitecture
Entity
p1003
(dp1004
g11
(lp1005
sg13
S'com.android.server.am.PendingIntentRecord'
p1006
sg15
(lp1007
sg17
(lp1008
sg19
(lp1009
sg21
I0
sba(iArchitecture
Entity
p1010
(dp1011
g11
(lp1012
sg13
S'com.android.server.am.PendingIntentRecord$Key'
p1013
sg15
(lp1014
sg17
(lp1015
sg19
(lp1016
sg21
I0
sba(iArchitecture
Entity
p1017
(dp1018
g11
(lp1019
sg13
S'com.android.server.am.ProviderMap'
p1020
sg15
(lp1021
sg17
(lp1022
sg19
(lp1023
sg21
I0
sbasg50
(lp1024
g1006
ag1013
ag1020
asg21
I0
sg52
S'1386'
p1025
sba(iArchitecture
Cluster
p1026
(dp1027
g7
(lp1028
(iArchitecture
Entity
p1029
(dp1030
g11
(lp1031
sg13
S'com.android.server.am.UserController'
p1032
sg15
(lp1033
sg17
(lp1034
sg19
(lp1035
sg21
I0
sba(iArchitecture
Entity
p1036
(dp1037
g11
(lp1038
sg13
S'com.android.server.am.UserController$1'
p1039
sg15
(lp1040
sg17
(lp1041
sg19
(lp1042
sg21
I0
sba(iArchitecture
Entity
p1043
(dp1044
g11
(lp1045
sg13
S'com.android.server.am.UserController$2'
p1046
sg15
(lp1047
sg17
(lp1048
sg19
(lp1049
sg21
I0
sba(iArchitecture
Entity
p1050
(dp1051
g11
(lp1052
sg13
S'com.android.server.am.UserController$3'
p1053
sg15
(lp1054
sg17
(lp1055
sg19
(lp1056
sg21
I0
sba(iArchitecture
Entity
p1057
(dp1058
g11
(lp1059
sg13
S'com.android.server.am.UserController$4'
p1060
sg15
(lp1061
sg17
(lp1062
sg19
(lp1063
sg21
I0
sba(iArchitecture
Entity
p1064
(dp1065
g11
(lp1066
sg13
S'com.android.server.am.UserController$4$1'
p1067
sg15
(lp1068
sg17
(lp1069
sg19
(lp1070
sg21
I0
sba(iArchitecture
Entity
p1071
(dp1072
g11
(lp1073
sg13
S'com.android.server.am.UserController$5'
p1074
sg15
(lp1075
sg17
(lp1076
sg19
(lp1077
sg21
I0
sba(iArchitecture
Entity
p1078
(dp1079
g11
(lp1080
sg13
S'com.android.server.am.UserController$5$1'
p1081
sg15
(lp1082
sg17
(lp1083
sg19
(lp1084
sg21
I0
sba(iArchitecture
Entity
p1085
(dp1086
g11
(lp1087
sg13
S'com.android.server.am.UserController$6'
p1088
sg15
(lp1089
sg17
(lp1090
sg19
(lp1091
sg21
I0
sba(iArchitecture
Entity
p1092
(dp1093
g11
(lp1094
sg13
S'com.android.server.am.UserController$7'
p1095
sg15
(lp1096
sg17
(lp1097
sg19
(lp1098
sg21
I0
sbasg50
(lp1099
g1032
ag1039
ag1046
ag1053
ag1060
ag1067
ag1074
ag1081
ag1088
ag1095
asg21
I0
sg52
S'1392'
p1100
sba(iArchitecture
Cluster
p1101
(dp1102
g7
(lp1103
(iArchitecture
Entity
p1104
(dp1105
g11
(lp1106
sg13
S'com.android.server.am.ServiceRecord'
p1107
sg15
(lp1108
sg17
(lp1109
sg19
(lp1110
sg21
I0
sba(iArchitecture
Entity
p1111
(dp1112
g11
(lp1113
sg13
S'com.android.server.am.ServiceRecord$1'
p1114
sg15
(lp1115
sg17
(lp1116
sg19
(lp1117
sg21
I0
sba(iArchitecture
Entity
p1118
(dp1119
g11
(lp1120
sg13
S'com.android.server.am.ServiceRecord$2'
p1121
sg15
(lp1122
sg17
(lp1123
sg19
(lp1124
sg21
I0
sba(iArchitecture
Entity
p1125
(dp1126
g11
(lp1127
sg13
S'com.android.server.am.ServiceRecord$3'
p1128
sg15
(lp1129
sg17
(lp1130
sg19
(lp1131
sg21
I0
sba(iArchitecture
Entity
p1132
(dp1133
g11
(lp1134
sg13
S'com.android.server.am.ServiceRecord$StartItem'
p1135
sg15
(lp1136
sg17
(lp1137
sg19
(lp1138
sg21
I0
sbasg50
(lp1139
g1107
ag1114
ag1121
ag1128
ag1135
asg21
I0
sg52
S'1401'
p1140
sba(iArchitecture
Cluster
p1141
(dp1142
g7
(lp1143
(iArchitecture
Entity
p1144
(dp1145
g11
(lp1146
sg13
S'com.android.server.am.CompatModeDialog'
p1147
sg15
(lp1148
sg17
(lp1149
sg19
(lp1150
sg21
I0
sba(iArchitecture
Entity
p1151
(dp1152
g11
(lp1153
sg13
S'com.android.server.am.CompatModeDialog$1'
p1154
sg15
(lp1155
sg17
(lp1156
sg19
(lp1157
sg21
I0
sba(iArchitecture
Entity
p1158
(dp1159
g11
(lp1160
sg13
S'com.android.server.am.CompatModeDialog$2'
p1161
sg15
(lp1162
sg17
(lp1163
sg19
(lp1164
sg21
I0
sba(iArchitecture
Entity
p1165
(dp1166
g11
(lp1167
sg13
S'com.android.server.am.UidRecord'
p1168
sg15
(lp1169
sg17
(lp1170
sg19
(lp1171
sg21
I0
sba(iArchitecture
Entity
p1172
(dp1173
g11
(lp1174
sg13
S'com.android.server.am.UidRecord$ChangeItem'
p1175
sg15
(lp1176
sg17
(lp1177
sg19
(lp1178
sg21
I0
sbasg50
(lp1179
g1147
ag1154
ag1161
ag1168
ag1175
asg21
I0
sg52
S'1406'
p1180
sba(iArchitecture
Cluster
p1181
(dp1182
g7
(lp1183
(iArchitecture
Entity
p1184
(dp1185
g11
(lp1186
sg13
S'com.android.server.am.UserState'
p1187
sg15
(lp1188
sg17
(lp1189
sg19
(lp1190
sg21
I0
sbasg50
(lp1191
g1187
asg21
I0
sg52
S'1407'
p1192
sba(iArchitecture
Cluster
p1193
(dp1194
g7
(lp1195
(iArchitecture
Entity
p1196
(dp1197
g11
(lp1198
sg13
S'com.android.server.am.NativeCrashListener'
p1199
sg15
(lp1200
sg17
(lp1201
sg19
(lp1202
sg21
I0
sba(iArchitecture
Entity
p1203
(dp1204
g11
(lp1205
sg13
S'com.android.server.am.NativeCrashListener$NativeCrashReporter'
p1206
sg15
(lp1207
sg17
(lp1208
sg19
(lp1209
sg21
I0
sbasg50
(lp1210
g1199
ag1206
asg21
I0
sg52
S'1418'
p1211
sba(iArchitecture
Cluster
p1212
(dp1213
g7
(lp1214
(iArchitecture
Entity
p1215
(dp1216
g11
(lp1217
sg13
S'com.android.server.am.LaunchingTaskPositioner'
p1218
sg15
(lp1219
sg17
(lp1220
sg19
(lp1221
sg21
I0
sbasg50
(lp1222
g1218
asg21
I0
sg52
S'147'
p1223
sba(iArchitecture
Cluster
p1224
(dp1225
g7
(lp1226
(iArchitecture
Entity
p1227
(dp1228
g11
(lp1229
sg13
S'com.android.server.am.ProcessList'
p1230
sg15
(lp1231
sg17
(lp1232
sg19
(lp1233
sg21
I0
sbasg50
(lp1234
g1230
asg21
I0
sg52
S'229'
p1235
sba(iArchitecture
Cluster
p1236
(dp1237
g7
(lp1238
(iArchitecture
Entity
p1239
(dp1240
g11
(lp1241
sg13
S'com.android.server.am.HealthStatsBatteryStatsWriter'
p1242
sg15
(lp1243
sg17
(lp1244
sg19
(lp1245
sg21
I0
sbasg50
(lp1246
g1242
asg21
I0
sg52
S'257'
p1247
sba(iArchitecture
Cluster
p1248
(dp1249
g7
(lp1250
(iArchitecture
Entity
p1251
(dp1252
g11
(lp1253
sg13
S'com.android.server.am.ActivityManagerDebugConfig'
p1254
sg15
(lp1255
sg17
(lp1256
sg19
(lp1257
sg21
I0
sbasg50
(lp1258
g1254
asg21
I0
sg52
S'269'
p1259
sba(iArchitecture
Cluster
p1260
(dp1261
g7
(lp1262
(iArchitecture
Entity
p1263
(dp1264
g11
(lp1265
sg13
S'com.android.server.am.CoreSettingsObserver'
p1266
sg15
(lp1267
sg17
(lp1268
sg19
(lp1269
sg21
I0
sbasg50
(lp1270
g1266
asg21
I0
sg52
S'300'
p1271
sba(iArchitecture
Cluster
p1272
(dp1273
g7
(lp1274
(iArchitecture
Entity
p1275
(dp1276
g11
(lp1277
sg13
S'com.android.server.am.AppTimeTracker'
p1278
sg15
(lp1279
sg17
(lp1280
sg19
(lp1281
sg21
I0
sbasg50
(lp1282
g1278
asg21
I0
sg52
S'326'
p1283
sba(iArchitecture
Cluster
p1284
(dp1285
g7
(lp1286
(iArchitecture
Entity
p1287
(dp1288
g11
(lp1289
sg13
S'com.android.server.am.ConnectionRecord'
p1290
sg15
(lp1291
sg17
(lp1292
sg19
(lp1293
sg21
I0
sbasg50
(lp1294
g1290
asg21
I0
sg52
S'353'
p1295
sba(iArchitecture
Cluster
p1296
(dp1297
g7
(lp1298
(iArchitecture
Entity
p1299
(dp1300
g11
(lp1301
sg13
S'com.android.server.am.ActivityStartInterceptor'
p1302
sg15
(lp1303
sg17
(lp1304
sg19
(lp1305
sg21
I0
sbasg50
(lp1306
g1302
asg21
I0
sg52
S'463'
p1307
sba(iArchitecture
Cluster
p1308
(dp1309
g7
(lp1310
(iArchitecture
Entity
p1311
(dp1312
g11
(lp1313
sg13
S'com.android.server.am.LockTaskNotify'
p1314
sg15
(lp1315
sg17
(lp1316
sg19
(lp1317
sg21
I0
sba(iArchitecture
Entity
p1318
(dp1319
g11
(lp1320
sg13
S'com.android.server.am.LockTaskNotify$H'
p1321
sg15
(lp1322
sg17
(lp1323
sg19
(lp1324
sg21
I0
sbasg50
(lp1325
g1314
ag1321
asg21
I0
sg52
S'515'
p1326
sba(iArchitecture
Cluster
p1327
(dp1328
g7
(lp1329
(iArchitecture
Entity
p1330
(dp1331
g11
(lp1332
sg13
S'com.android.server.am.BackupRecord'
p1333
sg15
(lp1334
sg17
(lp1335
sg19
(lp1336
sg21
I0
sbasg50
(lp1337
g1333
asg21
I0
sg52
S'6'
p1338
sba(iArchitecture
Cluster
p1339
(dp1340
g7
(lp1341
(iArchitecture
Entity
p1342
(dp1343
g11
(lp1344
sg13
S'com.android.server.am.ActivityMetricsLogger'
p1345
sg15
(lp1346
sg17
(lp1347
sg19
(lp1348
sg21
I0
sbasg50
(lp1349
g1345
asg21
I0
sg52
S'65'
p1350
sba(iArchitecture
Cluster
p1351
(dp1352
g7
(lp1353
(iArchitecture
Entity
p1354
(dp1355
g11
(lp1356
sg13
S'com.android.server.am.ContentProviderRecord'
p1357
sg15
(lp1358
sg17
(lp1359
sg19
(lp1360
sg21
I0
sba(iArchitecture
Entity
p1361
(dp1362
g11
(lp1363
sg13
S'com.android.server.am.ContentProviderRecord$ExternalProcessHandle'
p1364
sg15
(lp1365
sg17
(lp1366
sg19
(lp1367
sg21
I0
sbasg50
(lp1368
g1357
ag1364
asg21
I0
sg52
S'791'
p1369
sba(iArchitecture
Cluster
p1370
(dp1371
g7
(lp1372
(iArchitecture
Entity
p1373
(dp1374
g11
(lp1375
sg13
S'com.android.server.am.RecentTasks'
p1376
sg15
(lp1377
sg17
(lp1378
sg19
(lp1379
sg21
I0
sba(iArchitecture
Entity
p1380
(dp1381
g11
(lp1382
sg13
S'com.android.server.am.RecentTasks$1'
p1383
sg15
(lp1384
sg17
(lp1385
sg19
(lp1386
sg21
I0
sbasg50
(lp1387
g1376
ag1383
asg21
I0
sg52
S'819'
p1388
sba(iArchitecture
Cluster
p1389
(dp1390
g7
(lp1391
(iArchitecture
Entity
p1392
(dp1393
g11
(lp1394
sg13
S'com.android.server.am.UriPermission'
p1395
sg15
(lp1396
sg17
(lp1397
sg19
(lp1398
sg21
I0
sba(iArchitecture
Entity
p1399
(dp1400
g11
(lp1401
sg13
S'com.android.server.am.UriPermission$PersistedTimeComparator'
p1402
sg15
(lp1403
sg17
(lp1404
sg19
(lp1405
sg21
I0
sba(iArchitecture
Entity
p1406
(dp1407
g11
(lp1408
sg13
S'com.android.server.am.UriPermission$Snapshot'
p1409
sg15
(lp1410
sg17
(lp1411
sg19
(lp1412
sg21
I0
sbasg50
(lp1413
g1395
ag1402
ag1409
asg21
I0
sg52
S'850'
p1414
sba(iArchitecture
Cluster
p1415
(dp1416
g7
(lp1417
(iArchitecture
Entity
p1418
(dp1419
g11
(lp1420
sg13
S'com.android.server.am.InstrumentationReporter'
p1421
sg15
(lp1422
sg17
(lp1423
sg19
(lp1424
sg21
I0
sba(iArchitecture
Entity
p1425
(dp1426
g11
(lp1427
sg13
S'com.android.server.am.InstrumentationReporter$MyThread'
p1428
sg15
(lp1429
sg17
(lp1430
sg19
(lp1431
sg21
I0
sba(iArchitecture
Entity
p1432
(dp1433
g11
(lp1434
sg13
S'com.android.server.am.InstrumentationReporter$Report'
p1435
sg15
(lp1436
sg17
(lp1437
sg19
(lp1438
sg21
I0
sbasg50
(lp1439
g1421
ag1428
ag1435
asg21
I0
sg52
S'851'
p1440
sba(iArchitecture
Cluster
p1441
(dp1442
g7
(lp1443
(iArchitecture
Entity
p1444
(dp1445
g11
(lp1446
sg13
S'com.android.server.am.BroadcastStats'
p1447
sg15
(lp1448
sg17
(lp1449
sg19
(lp1450
sg21
I0
sba(iArchitecture
Entity
p1451
(dp1452
g11
(lp1453
sg13
S'com.android.server.am.BroadcastStats$1'
p1454
sg15
(lp1455
sg17
(lp1456
sg19
(lp1457
sg21
I0
sba(iArchitecture
Entity
p1458
(dp1459
g11
(lp1460
sg13
S'com.android.server.am.BroadcastStats$ActionEntry'
p1461
sg15
(lp1462
sg17
(lp1463
sg19
(lp1464
sg21
I0
sba(iArchitecture
Entity
p1465
(dp1466
g11
(lp1467
sg13
S'com.android.server.am.BroadcastStats$PackageEntry'
p1468
sg15
(lp1469
sg17
(lp1470
sg19
(lp1471
sg21
I0
sbasg50
(lp1472
g1447
ag1454
ag1461
ag1468
asg21
I0
sg52
S'905'
p1473
sbasg623
g624
sg50
(lp1474
sg626
I00
sg52
S'7.0.0_r1'
p1475
sba.