(lp0
(iArchitecture
Architecture
p1
(dp2
S'clusters'
p3
(lp4
(iArchitecture
Cluster
p5
(dp6
S'entities'
p7
(lp8
(iArchitecture
Entity
p9
(dp10
S'issue_ids'
p11
(lp12
sS'name'
p13
S'com.android.server.location.GpsXtraDownloader'
p14
sS'descs'
p15
(lp16
sS'labels'
p17
(lp18
sS'titles'
p19
(lp20
sS'change'
p21
I0
sbasS'classes'
p22
(lp23
g14
asg21
I0
sS'label'
p24
S'104'
p25
sba(iArchitecture
Cluster
p26
(dp27
g7
(lp28
(iArchitecture
Entity
p29
(dp30
g11
(lp31
sg13
S'com.android.server.location.MockProvider'
p32
sg15
(lp33
sg17
(lp34
sg19
(lp35
sg21
I0
sba(iArchitecture
Entity
p36
(dp37
g11
(lp38
sg13
S'com.android.server.location.PassiveProvider'
p39
sg15
(lp40
sg17
(lp41
sg19
(lp42
sg21
I0
sbasg22
(lp43
g32
ag39
asg21
I0
sg24
S'1115'
p44
sba(iArchitecture
Cluster
p45
(dp46
g7
(lp47
(iArchitecture
Entity
p48
(dp49
g11
(lp50
sg13
S'com.android.server.location.RemoteListenerHelper'
p51
sg15
(lp52
sg17
(lp53
sg19
(lp54
sg21
I0
sba(iArchitecture
Entity
p55
(dp56
g11
(lp57
sg13
S'com.android.server.location.RemoteListenerHelper$HandlerRunnable'
p58
sg15
(lp59
sg17
(lp60
sg19
(lp61
sg21
I0
sba(iArchitecture
Entity
p62
(dp63
g11
(lp64
sg13
S'com.android.server.location.RemoteListenerHelper$LinkedListener'
p65
sg15
(lp66
sg17
(lp67
sg19
(lp68
sg21
I0
sba(iArchitecture
Entity
p69
(dp70
g11
(lp71
sg13
S'com.android.server.location.RemoteListenerHelper$ListenerOperation'
p72
sg15
(lp73
sg17
(lp74
sg19
(lp75
sg21
I0
sbasg22
(lp76
g51
ag58
ag65
ag72
asg21
I0
sg24
S'1179'
p77
sba(iArchitecture
Cluster
p78
(dp79
g7
(lp80
(iArchitecture
Entity
p81
(dp82
g11
(lp83
sg13
S'com.android.server.location.LocationProviderInterface'
p84
sg15
(lp85
sg17
(lp86
sg19
(lp87
sg21
I0
sbasg22
(lp88
g84
asg21
I0
sg24
S'1223'
p89
sba(iArchitecture
Cluster
p90
(dp91
g7
(lp92
(iArchitecture
Entity
p93
(dp94
g11
(lp95
sg13
S'com.android.server.location.CountryDetectorBase'
p96
sg15
(lp97
sg17
(lp98
sg19
(lp99
sg21
I0
sbasg22
(lp100
g96
asg21
I0
sg24
S'1237'
p101
sba(iArchitecture
Cluster
p102
(dp103
g7
(lp104
(iArchitecture
Entity
p105
(dp106
g11
(lp107
sg13
S'com.android.server.location.FlpHardwareProvider'
p108
sg15
(lp109
sg17
(lp110
sg19
(lp111
sg21
I0
sba(iArchitecture
Entity
p112
(dp113
g11
(lp114
sg13
S'com.android.server.location.FlpHardwareProvider$1'
p115
sg15
(lp116
sg17
(lp117
sg19
(lp118
sg21
I0
sba(iArchitecture
Entity
p119
(dp120
g11
(lp121
sg13
S'com.android.server.location.FlpHardwareProvider$2'
p122
sg15
(lp123
sg17
(lp124
sg19
(lp125
sg21
I0
sba(iArchitecture
Entity
p126
(dp127
g11
(lp128
sg13
S'com.android.server.location.FlpHardwareProvider$NetworkLocationListener'
p129
sg15
(lp130
sg17
(lp131
sg19
(lp132
sg21
I0
sbasg22
(lp133
g108
ag115
ag122
ag129
asg21
I0
sg24
S'1243'
p134
sba(iArchitecture
Cluster
p135
(dp136
g7
(lp137
(iArchitecture
Entity
p138
(dp139
g11
(lp140
sg13
S'com.android.server.location.LocationBlacklist'
p141
sg15
(lp142
sg17
(lp143
sg19
(lp144
sg21
I0
sbasg22
(lp145
g141
asg21
I0
sg24
S'2'
p146
sba(iArchitecture
Cluster
p147
(dp148
g7
(lp149
(iArchitecture
Entity
p150
(dp151
g11
(lp152
sg13
S'com.android.server.location.GeofenceState'
p153
sg15
(lp154
sg17
(lp155
sg19
(lp156
sg21
I0
sbasg22
(lp157
g153
asg21
I0
sg24
S'298'
p158
sba(iArchitecture
Cluster
p159
(dp160
g7
(lp161
(iArchitecture
Entity
p162
(dp163
g11
(lp164
sg13
S'com.android.server.location.GeocoderProxy'
p165
sg15
(lp166
sg17
(lp167
sg19
(lp168
sg21
I0
sbasg22
(lp169
g165
asg21
I0
sg24
S'430'
p170
sba(iArchitecture
Cluster
p171
(dp172
g7
(lp173
(iArchitecture
Entity
p174
(dp175
g11
(lp176
sg13
S'com.android.server.location.FusedLocationHardwareSecure'
p177
sg15
(lp178
sg17
(lp179
sg19
(lp180
sg21
I0
sbasg22
(lp181
g177
asg21
I0
sg24
S'45'
p182
sba(iArchitecture
Cluster
p183
(dp184
g7
(lp185
(iArchitecture
Entity
p186
(dp187
g11
(lp188
sg13
S'com.android.server.location.ActivityRecognitionProxy'
p189
sg15
(lp190
sg17
(lp191
sg19
(lp192
sg21
I0
sba(iArchitecture
Entity
p193
(dp194
g11
(lp195
sg13
S'com.android.server.location.ActivityRecognitionProxy$1'
p196
sg15
(lp197
sg17
(lp198
sg19
(lp199
sg21
I0
sbasg22
(lp200
g189
ag196
asg21
I0
sg24
S'474'
p201
sba(iArchitecture
Cluster
p202
(dp203
g7
(lp204
(iArchitecture
Entity
p205
(dp206
g11
(lp207
sg13
S'com.android.server.location.LocationFudger'
p208
sg15
(lp209
sg17
(lp210
sg19
(lp211
sg21
I0
sba(iArchitecture
Entity
p212
(dp213
g11
(lp214
sg13
S'com.android.server.location.LocationFudger$1'
p215
sg15
(lp216
sg17
(lp217
sg19
(lp218
sg21
I0
sbasg22
(lp219
g208
ag215
asg21
I0
sg24
S'540'
p220
sba(iArchitecture
Cluster
p221
(dp222
g7
(lp223
(iArchitecture
Entity
p224
(dp225
g11
(lp226
sg13
S'com.android.server.location.FusedProxy'
p227
sg15
(lp228
sg17
(lp229
sg19
(lp230
sg21
I0
sba(iArchitecture
Entity
p231
(dp232
g11
(lp233
sg13
S'com.android.server.location.FusedProxy$1'
p234
sg15
(lp235
sg17
(lp236
sg19
(lp237
sg21
I0
sbasg22
(lp238
g227
ag234
asg21
I0
sg24
S'587'
p239
sba(iArchitecture
Cluster
p240
(dp241
g7
(lp242
(iArchitecture
Entity
p243
(dp244
g11
(lp245
sg13
S'com.android.server.location.LocationProviderProxy'
p246
sg15
(lp247
sg17
(lp248
sg19
(lp249
sg21
I0
sba(iArchitecture
Entity
p250
(dp251
g11
(lp252
sg13
S'com.android.server.location.LocationProviderProxy$1'
p253
sg15
(lp254
sg17
(lp255
sg19
(lp256
sg21
I0
sbasg22
(lp257
g246
ag253
asg21
I0
sg24
S'626'
p258
sba(iArchitecture
Cluster
p259
(dp260
g7
(lp261
(iArchitecture
Entity
p262
(dp263
g11
(lp264
sg13
S'com.android.server.location.GeofenceManager'
p265
sg15
(lp266
sg17
(lp267
sg19
(lp268
sg21
I0
sba(iArchitecture
Entity
p269
(dp270
g11
(lp271
sg13
S'com.android.server.location.GeofenceManager$GeofenceHandler'
p272
sg15
(lp273
sg17
(lp274
sg19
(lp275
sg21
I0
sbasg22
(lp276
g265
ag272
asg21
I0
sg24
S'654'
p277
sba(iArchitecture
Cluster
p278
(dp279
g7
(lp280
(iArchitecture
Entity
p281
(dp282
g11
(lp283
sg13
S'com.android.server.location.LocationBasedCountryDetector'
p284
sg15
(lp285
sg17
(lp286
sg19
(lp287
sg21
I0
sba(iArchitecture
Entity
p288
(dp289
g11
(lp290
sg13
S'com.android.server.location.LocationBasedCountryDetector$1'
p291
sg15
(lp292
sg17
(lp293
sg19
(lp294
sg21
I0
sba(iArchitecture
Entity
p295
(dp296
g11
(lp297
sg13
S'com.android.server.location.LocationBasedCountryDetector$2'
p298
sg15
(lp299
sg17
(lp300
sg19
(lp301
sg21
I0
sba(iArchitecture
Entity
p302
(dp303
g11
(lp304
sg13
S'com.android.server.location.LocationBasedCountryDetector$3'
p305
sg15
(lp306
sg17
(lp307
sg19
(lp308
sg21
I0
sbasg22
(lp309
g284
ag291
ag298
ag305
asg21
I0
sg24
S'777'
p310
sba(iArchitecture
Cluster
p311
(dp312
g7
(lp313
(iArchitecture
Entity
p314
(dp315
g11
(lp316
sg13
S'com.android.server.location.GeofenceProxy'
p317
sg15
(lp318
sg17
(lp319
sg19
(lp320
sg21
I0
sba(iArchitecture
Entity
p321
(dp322
g11
(lp323
sg13
S'com.android.server.location.GeofenceProxy$1'
p324
sg15
(lp325
sg17
(lp326
sg19
(lp327
sg21
I0
sba(iArchitecture
Entity
p328
(dp329
g11
(lp330
sg13
S'com.android.server.location.GeofenceProxy$2'
p331
sg15
(lp332
sg17
(lp333
sg19
(lp334
sg21
I0
sba(iArchitecture
Entity
p335
(dp336
g11
(lp337
sg13
S'com.android.server.location.GeofenceProxy$3'
p338
sg15
(lp339
sg17
(lp340
sg19
(lp341
sg21
I0
sbasg22
(lp342
g317
ag324
ag331
ag338
asg21
I0
sg24
S'831'
p343
sbasS'target_sub'
p344
S'com.android.server.location'
p345
sg22
(lp346
sS'is_component_arch'
p347
I00
sg24
S'6.0.0_r1'
p348
sba(iArchitecture
Architecture
p349
(dp350
g3
(lp351
(iArchitecture
Cluster
p352
(dp353
g7
(lp354
(iArchitecture
Entity
p355
(dp356
g11
(lp357
sg13
S'com.android.server.location.LocationBlacklist'
p358
sg15
(lp359
sg17
(lp360
sg19
(lp361
sg21
I0
sbasg22
(lp362
g358
asg21
I0
sg24
S'1'
p363
sba(iArchitecture
Cluster
p364
(dp365
g7
(lp366
(iArchitecture
Entity
p367
(dp368
g11
(lp369
sg13
S'com.android.server.location.GpsXtraDownloader'
p370
sg15
(lp371
sg17
(lp372
sg19
(lp373
sg21
I0
sbasg22
(lp374
g370
asg21
I0
sg24
S'117'
p375
sba(iArchitecture
Cluster
p376
(dp377
g7
(lp378
(iArchitecture
Entity
p379
(dp380
g11
(lp381
sg13
S'com.android.server.location.GnssStatusListenerHelper'
p382
sg15
(lp383
sg17
(lp384
sg19
(lp385
sg21
I0
sba(iArchitecture
Entity
p386
(dp387
g11
(lp388
sg13
S'com.android.server.location.GnssStatusListenerHelper$1'
p389
sg15
(lp390
sg17
(lp391
sg19
(lp392
sg21
I0
sba(iArchitecture
Entity
p393
(dp394
g11
(lp395
sg13
S'com.android.server.location.GnssStatusListenerHelper$2'
p396
sg15
(lp397
sg17
(lp398
sg19
(lp399
sg21
I0
sba(iArchitecture
Entity
p400
(dp401
g11
(lp402
sg13
S'com.android.server.location.GnssStatusListenerHelper$3'
p403
sg15
(lp404
sg17
(lp405
sg19
(lp406
sg21
I0
sba(iArchitecture
Entity
p407
(dp408
g11
(lp409
sg13
S'com.android.server.location.GnssStatusListenerHelper$4'
p410
sg15
(lp411
sg17
(lp412
sg19
(lp413
sg21
I0
sba(iArchitecture
Entity
p414
(dp415
g11
(lp416
sg13
S'com.android.server.location.GnssStatusListenerHelper$5'
p417
sg15
(lp418
sg17
(lp419
sg19
(lp420
sg21
I0
sba(iArchitecture
Entity
p421
(dp422
g11
(lp423
sg13
S'com.android.server.location.GnssStatusListenerHelper$Operation'
p424
sg15
(lp425
sg17
(lp426
sg19
(lp427
sg21
I0
sbasg22
(lp428
g382
ag389
ag396
ag403
ag410
ag417
ag424
asg21
I0
sg24
S'1172'
p429
sba(iArchitecture
Cluster
p430
(dp431
g7
(lp432
(iArchitecture
Entity
p433
(dp434
g11
(lp435
sg13
S'com.android.server.location.MockProvider'
p436
sg15
(lp437
sg17
(lp438
sg19
(lp439
sg21
I0
sba(iArchitecture
Entity
p440
(dp441
g11
(lp442
sg13
S'com.android.server.location.PassiveProvider'
p443
sg15
(lp444
sg17
(lp445
sg19
(lp446
sg21
I0
sbasg22
(lp447
g436
ag443
asg21
I0
sg24
S'1252'
p448
sba(iArchitecture
Cluster
p449
(dp450
g7
(lp451
(iArchitecture
Entity
p452
(dp453
g11
(lp454
sg13
S'com.android.server.location.GnssMeasurementsProvider'
p455
sg15
(lp456
sg17
(lp457
sg19
(lp458
sg21
I0
sba(iArchitecture
Entity
p459
(dp460
g11
(lp461
sg13
S'com.android.server.location.GnssMeasurementsProvider$1'
p462
sg15
(lp463
sg17
(lp464
sg19
(lp465
sg21
I0
sba(iArchitecture
Entity
p466
(dp467
g11
(lp468
sg13
S'com.android.server.location.GnssMeasurementsProvider$StatusChangedOperation'
p469
sg15
(lp470
sg17
(lp471
sg19
(lp472
sg21
I0
sba(iArchitecture
Entity
p473
(dp474
g11
(lp475
sg13
S'com.android.server.location.GnssNavigationMessageProvider'
p476
sg15
(lp477
sg17
(lp478
sg19
(lp479
sg21
I0
sba(iArchitecture
Entity
p480
(dp481
g11
(lp482
sg13
S'com.android.server.location.GnssNavigationMessageProvider$1'
p483
sg15
(lp484
sg17
(lp485
sg19
(lp486
sg21
I0
sba(iArchitecture
Entity
p487
(dp488
g11
(lp489
sg13
S'com.android.server.location.GnssNavigationMessageProvider$StatusChangedOperation'
p490
sg15
(lp491
sg17
(lp492
sg19
(lp493
sg21
I0
sbasg22
(lp494
g455
ag462
ag469
ag476
ag483
ag490
asg21
I0
sg24
S'1254'
p495
sba(iArchitecture
Cluster
p496
(dp497
g7
(lp498
(iArchitecture
Entity
p499
(dp500
g11
(lp501
sg13
S'com.android.server.location.LocationProviderInterface'
p502
sg15
(lp503
sg17
(lp504
sg19
(lp505
sg21
I0
sbasg22
(lp506
g502
asg21
I0
sg24
S'1330'
p507
sba(iArchitecture
Cluster
p508
(dp509
g7
(lp510
(iArchitecture
Entity
p511
(dp512
g11
(lp513
sg13
S'com.android.server.location.FlpHardwareProvider'
p514
sg15
(lp515
sg17
(lp516
sg19
(lp517
sg21
I0
sba(iArchitecture
Entity
p518
(dp519
g11
(lp520
sg13
S'com.android.server.location.FlpHardwareProvider$1'
p521
sg15
(lp522
sg17
(lp523
sg19
(lp524
sg21
I0
sba(iArchitecture
Entity
p525
(dp526
g11
(lp527
sg13
S'com.android.server.location.FlpHardwareProvider$2'
p528
sg15
(lp529
sg17
(lp530
sg19
(lp531
sg21
I0
sba(iArchitecture
Entity
p532
(dp533
g11
(lp534
sg13
S'com.android.server.location.FlpHardwareProvider$NetworkLocationListener'
p535
sg15
(lp536
sg17
(lp537
sg19
(lp538
sg21
I0
sbasg22
(lp539
g514
ag521
ag528
ag535
asg21
I0
sg24
S'1331'
p540
sba(iArchitecture
Cluster
p541
(dp542
g7
(lp543
(iArchitecture
Entity
p544
(dp545
g11
(lp546
sg13
S'com.android.server.location.CountryDetectorBase'
p547
sg15
(lp548
sg17
(lp549
sg19
(lp550
sg21
I0
sba(iArchitecture
Entity
p551
(dp552
g11
(lp553
sg13
S'com.android.server.location.RemoteListenerHelper'
p554
sg15
(lp555
sg17
(lp556
sg19
(lp557
sg21
I0
sba(iArchitecture
Entity
p558
(dp559
g11
(lp560
sg13
S'com.android.server.location.RemoteListenerHelper$HandlerRunnable'
p561
sg15
(lp562
sg17
(lp563
sg19
(lp564
sg21
I0
sba(iArchitecture
Entity
p565
(dp566
g11
(lp567
sg13
S'com.android.server.location.RemoteListenerHelper$LinkedListener'
p568
sg15
(lp569
sg17
(lp570
sg19
(lp571
sg21
I0
sba(iArchitecture
Entity
p572
(dp573
g11
(lp574
sg13
S'com.android.server.location.RemoteListenerHelper$ListenerOperation'
p575
sg15
(lp576
sg17
(lp577
sg19
(lp578
sg21
I0
sbasg22
(lp579
g547
ag554
ag561
ag568
ag575
asg21
I0
sg24
S'1384'
p580
sba(iArchitecture
Cluster
p581
(dp582
g7
(lp583
(iArchitecture
Entity
p584
(dp585
g11
(lp586
sg13
S'com.android.server.location.GnssLocationProvider'
p587
sg15
(lp588
sg17
(lp589
sg19
(lp590
sg21
I0
sba(iArchitecture
Entity
p591
(dp592
g11
(lp593
sg13
S'com.android.server.location.GnssLocationProvider$1'
p594
sg15
(lp595
sg17
(lp596
sg19
(lp597
sg21
I0
sba(iArchitecture
Entity
p598
(dp599
g11
(lp600
sg13
S'com.android.server.location.GnssLocationProvider$10'
p601
sg15
(lp602
sg17
(lp603
sg19
(lp604
sg21
I0
sba(iArchitecture
Entity
p605
(dp606
g11
(lp607
sg13
S'com.android.server.location.GnssLocationProvider$11'
p608
sg15
(lp609
sg17
(lp610
sg19
(lp611
sg21
I0
sba(iArchitecture
Entity
p612
(dp613
g11
(lp614
sg13
S'com.android.server.location.GnssLocationProvider$12'
p615
sg15
(lp616
sg17
(lp617
sg19
(lp618
sg21
I0
sba(iArchitecture
Entity
p619
(dp620
g11
(lp621
sg13
S'com.android.server.location.GnssLocationProvider$13'
p622
sg15
(lp623
sg17
(lp624
sg19
(lp625
sg21
I0
sba(iArchitecture
Entity
p626
(dp627
g11
(lp628
sg13
S'com.android.server.location.GnssLocationProvider$2'
p629
sg15
(lp630
sg17
(lp631
sg19
(lp632
sg21
I0
sba(iArchitecture
Entity
p633
(dp634
g11
(lp635
sg13
S'com.android.server.location.GnssLocationProvider$3'
p636
sg15
(lp637
sg17
(lp638
sg19
(lp639
sg21
I0
sba(iArchitecture
Entity
p640
(dp641
g11
(lp642
sg13
S'com.android.server.location.GnssLocationProvider$4'
p643
sg15
(lp644
sg17
(lp645
sg19
(lp646
sg21
I0
sba(iArchitecture
Entity
p647
(dp648
g11
(lp649
sg13
S'com.android.server.location.GnssLocationProvider$5'
p650
sg15
(lp651
sg17
(lp652
sg19
(lp653
sg21
I0
sba(iArchitecture
Entity
p654
(dp655
g11
(lp656
sg13
S'com.android.server.location.GnssLocationProvider$6'
p657
sg15
(lp658
sg17
(lp659
sg19
(lp660
sg21
I0
sba(iArchitecture
Entity
p661
(dp662
g11
(lp663
sg13
S'com.android.server.location.GnssLocationProvider$7'
p664
sg15
(lp665
sg17
(lp666
sg19
(lp667
sg21
I0
sba(iArchitecture
Entity
p668
(dp669
g11
(lp670
sg13
S'com.android.server.location.GnssLocationProvider$8'
p671
sg15
(lp672
sg17
(lp673
sg19
(lp674
sg21
I0
sba(iArchitecture
Entity
p675
(dp676
g11
(lp677
sg13
S'com.android.server.location.GnssLocationProvider$9'
p678
sg15
(lp679
sg17
(lp680
sg19
(lp681
sg21
I0
sba(iArchitecture
Entity
p682
(dp683
g11
(lp684
sg13
S'com.android.server.location.GnssLocationProvider$BackOff'
p685
sg15
(lp686
sg17
(lp687
sg19
(lp688
sg21
I0
sba(iArchitecture
Entity
p689
(dp690
g11
(lp691
sg13
S'com.android.server.location.GnssLocationProvider$GnssSystemInfoProvider'
p692
sg15
(lp693
sg17
(lp694
sg19
(lp695
sg21
I0
sba(iArchitecture
Entity
p696
(dp697
g11
(lp698
sg13
S'com.android.server.location.GnssLocationProvider$GpsRequest'
p699
sg15
(lp700
sg17
(lp701
sg19
(lp702
sg21
I0
sba(iArchitecture
Entity
p703
(dp704
g11
(lp705
sg13
S'com.android.server.location.GnssLocationProvider$NetworkLocationListener'
p706
sg15
(lp707
sg17
(lp708
sg19
(lp709
sg21
I0
sba(iArchitecture
Entity
p710
(dp711
g11
(lp712
sg13
S'com.android.server.location.GnssLocationProvider$ProviderHandler'
p713
sg15
(lp714
sg17
(lp715
sg19
(lp716
sg21
I0
sbasg22
(lp717
g587
ag594
ag601
ag608
ag615
ag622
ag629
ag636
ag643
ag650
ag657
ag664
ag671
ag678
ag685
ag692
ag699
ag706
ag713
asg21
I0
sg24
S'1406'
p718
sba(iArchitecture
Cluster
p719
(dp720
g7
(lp721
(iArchitecture
Entity
p722
(dp723
g11
(lp724
sg13
S'com.android.server.location.GeofenceState'
p725
sg15
(lp726
sg17
(lp727
sg19
(lp728
sg21
I0
sbasg22
(lp729
g725
asg21
I0
sg24
S'329'
p730
sba(iArchitecture
Cluster
p731
(dp732
g7
(lp733
(iArchitecture
Entity
p734
(dp735
g11
(lp736
sg13
S'com.android.server.location.GeocoderProxy'
p737
sg15
(lp738
sg17
(lp739
sg19
(lp740
sg21
I0
sbasg22
(lp741
g737
asg21
I0
sg24
S'474'
p742
sba(iArchitecture
Cluster
p743
(dp744
g7
(lp745
(iArchitecture
Entity
p746
(dp747
g11
(lp748
sg13
S'com.android.server.location.FusedLocationHardwareSecure'
p749
sg15
(lp750
sg17
(lp751
sg19
(lp752
sg21
I0
sbasg22
(lp753
g749
asg21
I0
sg24
S'53'
p754
sba(iArchitecture
Cluster
p755
(dp756
g7
(lp757
(iArchitecture
Entity
p758
(dp759
g11
(lp760
sg13
S'com.android.server.location.ActivityRecognitionProxy'
p761
sg15
(lp762
sg17
(lp763
sg19
(lp764
sg21
I0
sba(iArchitecture
Entity
p765
(dp766
g11
(lp767
sg13
S'com.android.server.location.ActivityRecognitionProxy$1'
p768
sg15
(lp769
sg17
(lp770
sg19
(lp771
sg21
I0
sbasg22
(lp772
g761
ag768
asg21
I0
sg24
S'530'
p773
sba(iArchitecture
Cluster
p774
(dp775
g7
(lp776
(iArchitecture
Entity
p777
(dp778
g11
(lp779
sg13
S'com.android.server.location.LocationFudger'
p780
sg15
(lp781
sg17
(lp782
sg19
(lp783
sg21
I0
sba(iArchitecture
Entity
p784
(dp785
g11
(lp786
sg13
S'com.android.server.location.LocationFudger$1'
p787
sg15
(lp788
sg17
(lp789
sg19
(lp790
sg21
I0
sbasg22
(lp791
g780
ag787
asg21
I0
sg24
S'604'
p792
sba(iArchitecture
Cluster
p793
(dp794
g7
(lp795
(iArchitecture
Entity
p796
(dp797
g11
(lp798
sg13
S'com.android.server.location.FusedProxy'
p799
sg15
(lp800
sg17
(lp801
sg19
(lp802
sg21
I0
sba(iArchitecture
Entity
p803
(dp804
g11
(lp805
sg13
S'com.android.server.location.FusedProxy$1'
p806
sg15
(lp807
sg17
(lp808
sg19
(lp809
sg21
I0
sbasg22
(lp810
g799
ag806
asg21
I0
sg24
S'670'
p811
sba(iArchitecture
Cluster
p812
(dp813
g7
(lp814
(iArchitecture
Entity
p815
(dp816
g11
(lp817
sg13
S'com.android.server.location.LocationProviderProxy'
p818
sg15
(lp819
sg17
(lp820
sg19
(lp821
sg21
I0
sba(iArchitecture
Entity
p822
(dp823
g11
(lp824
sg13
S'com.android.server.location.LocationProviderProxy$1'
p825
sg15
(lp826
sg17
(lp827
sg19
(lp828
sg21
I0
sbasg22
(lp829
g818
ag825
asg21
I0
sg24
S'710'
p830
sba(iArchitecture
Cluster
p831
(dp832
g7
(lp833
(iArchitecture
Entity
p834
(dp835
g11
(lp836
sg13
S'com.android.server.location.GeofenceManager'
p837
sg15
(lp838
sg17
(lp839
sg19
(lp840
sg21
I0
sba(iArchitecture
Entity
p841
(dp842
g11
(lp843
sg13
S'com.android.server.location.GeofenceManager$GeofenceHandler'
p844
sg15
(lp845
sg17
(lp846
sg19
(lp847
sg21
I0
sbasg22
(lp848
g837
ag844
asg21
I0
sg24
S'742'
p849
sba(iArchitecture
Cluster
p850
(dp851
g7
(lp852
(iArchitecture
Entity
p853
(dp854
g11
(lp855
sg13
S'com.android.server.location.LocationBasedCountryDetector'
p856
sg15
(lp857
sg17
(lp858
sg19
(lp859
sg21
I0
sba(iArchitecture
Entity
p860
(dp861
g11
(lp862
sg13
S'com.android.server.location.LocationBasedCountryDetector$1'
p863
sg15
(lp864
sg17
(lp865
sg19
(lp866
sg21
I0
sba(iArchitecture
Entity
p867
(dp868
g11
(lp869
sg13
S'com.android.server.location.LocationBasedCountryDetector$2'
p870
sg15
(lp871
sg17
(lp872
sg19
(lp873
sg21
I0
sba(iArchitecture
Entity
p874
(dp875
g11
(lp876
sg13
S'com.android.server.location.LocationBasedCountryDetector$3'
p877
sg15
(lp878
sg17
(lp879
sg19
(lp880
sg21
I0
sbasg22
(lp881
g856
ag863
ag870
ag877
asg21
I0
sg24
S'877'
p882
sba(iArchitecture
Cluster
p883
(dp884
g7
(lp885
(iArchitecture
Entity
p886
(dp887
g11
(lp888
sg13
S'com.android.server.location.GeofenceProxy'
p889
sg15
(lp890
sg17
(lp891
sg19
(lp892
sg21
I0
sba(iArchitecture
Entity
p893
(dp894
g11
(lp895
sg13
S'com.android.server.location.GeofenceProxy$1'
p896
sg15
(lp897
sg17
(lp898
sg19
(lp899
sg21
I0
sba(iArchitecture
Entity
p900
(dp901
g11
(lp902
sg13
S'com.android.server.location.GeofenceProxy$2'
p903
sg15
(lp904
sg17
(lp905
sg19
(lp906
sg21
I0
sba(iArchitecture
Entity
p907
(dp908
g11
(lp909
sg13
S'com.android.server.location.GeofenceProxy$3'
p910
sg15
(lp911
sg17
(lp912
sg19
(lp913
sg21
I0
sbasg22
(lp914
g889
ag896
ag903
ag910
asg21
I0
sg24
S'932'
p915
sbasg344
g345
sg22
(lp916
sg347
I00
sg24
S'7.0.0_r1'
p917
sba.