(lp0
(iArchitecture
Architecture
p1
(dp2
S'clusters'
p3
(lp4
(iArchitecture
Cluster
p5
(dp6
S'entities'
p7
(lp8
(iArchitecture
Entity
p9
(dp10
S'issue_ids'
p11
(lp12
sS'name'
p13
S'android.security.keystore.KeyStoreCryptoOperationUtils'
p14
sS'descs'
p15
(lp16
sS'labels'
p17
(lp18
sS'titles'
p19
(lp20
sS'change'
p21
I0
sbasS'classes'
p22
(lp23
g14
asg21
I0
sS'label'
p24
S'102'
p25
sba(iArchitecture
Cluster
p26
(dp27
g7
(lp28
(iArchitecture
Entity
p29
(dp30
g11
(lp31
sg13
S'android.security.keystore.KeyProperties'
p32
sg15
(lp33
sg17
(lp34
sg19
(lp35
sg21
I0
sba(iArchitecture
Entity
p36
(dp37
g11
(lp38
sg13
S'android.security.keystore.KeyProperties$BlockMode'
p39
sg15
(lp40
sg17
(lp41
sg19
(lp42
sg21
I0
sba(iArchitecture
Entity
p43
(dp44
g11
(lp45
sg13
S'android.security.keystore.KeyProperties$Digest'
p46
sg15
(lp47
sg17
(lp48
sg19
(lp49
sg21
I0
sba(iArchitecture
Entity
p50
(dp51
g11
(lp52
sg13
S'android.security.keystore.KeyProperties$EncryptionPadding'
p53
sg15
(lp54
sg17
(lp55
sg19
(lp56
sg21
I0
sba(iArchitecture
Entity
p57
(dp58
g11
(lp59
sg13
S'android.security.keystore.KeyProperties$KeyAlgorithm'
p60
sg15
(lp61
sg17
(lp62
sg19
(lp63
sg21
I0
sba(iArchitecture
Entity
p64
(dp65
g11
(lp66
sg13
S'android.security.keystore.KeyProperties$Origin'
p67
sg15
(lp68
sg17
(lp69
sg19
(lp70
sg21
I0
sba(iArchitecture
Entity
p71
(dp72
g11
(lp73
sg13
S'android.security.keystore.KeyProperties$Purpose'
p74
sg15
(lp75
sg17
(lp76
sg19
(lp77
sg21
I0
sba(iArchitecture
Entity
p78
(dp79
g11
(lp80
sg13
S'android.security.keystore.KeyProperties$SignaturePadding'
p81
sg15
(lp82
sg17
(lp83
sg19
(lp84
sg21
I0
sbasg22
(lp85
g32
ag39
ag46
ag53
ag60
ag67
ag74
ag81
asg21
I0
sg24
S'1035'
p86
sba(iArchitecture
Cluster
p87
(dp88
g7
(lp89
(iArchitecture
Entity
p90
(dp91
g11
(lp92
sg13
S'android.security.keystore.AndroidKeyStoreRSASignatureSpi'
p93
sg15
(lp94
sg17
(lp95
sg19
(lp96
sg21
I0
sba(iArchitecture
Entity
p97
(dp98
g11
(lp99
sg13
S'android.security.keystore.AndroidKeyStoreRSASignatureSpi$MD5WithPKCS1Padding'
p100
sg15
(lp101
sg17
(lp102
sg19
(lp103
sg21
I0
sba(iArchitecture
Entity
p104
(dp105
g11
(lp106
sg13
S'android.security.keystore.AndroidKeyStoreRSASignatureSpi$NONEWithPKCS1Padding'
p107
sg15
(lp108
sg17
(lp109
sg19
(lp110
sg21
I0
sba(iArchitecture
Entity
p111
(dp112
g11
(lp113
sg13
S'android.security.keystore.AndroidKeyStoreRSASignatureSpi$PKCS1Padding'
p114
sg15
(lp115
sg17
(lp116
sg19
(lp117
sg21
I0
sba(iArchitecture
Entity
p118
(dp119
g11
(lp120
sg13
S'android.security.keystore.AndroidKeyStoreRSASignatureSpi$PSSPadding'
p121
sg15
(lp122
sg17
(lp123
sg19
(lp124
sg21
I0
sba(iArchitecture
Entity
p125
(dp126
g11
(lp127
sg13
S'android.security.keystore.AndroidKeyStoreRSASignatureSpi$SHA1WithPKCS1Padding'
p128
sg15
(lp129
sg17
(lp130
sg19
(lp131
sg21
I0
sba(iArchitecture
Entity
p132
(dp133
g11
(lp134
sg13
S'android.security.keystore.AndroidKeyStoreRSASignatureSpi$SHA1WithPSSPadding'
p135
sg15
(lp136
sg17
(lp137
sg19
(lp138
sg21
I0
sba(iArchitecture
Entity
p139
(dp140
g11
(lp141
sg13
S'android.security.keystore.AndroidKeyStoreRSASignatureSpi$SHA224WithPKCS1Padding'
p142
sg15
(lp143
sg17
(lp144
sg19
(lp145
sg21
I0
sba(iArchitecture
Entity
p146
(dp147
g11
(lp148
sg13
S'android.security.keystore.AndroidKeyStoreRSASignatureSpi$SHA224WithPSSPadding'
p149
sg15
(lp150
sg17
(lp151
sg19
(lp152
sg21
I0
sba(iArchitecture
Entity
p153
(dp154
g11
(lp155
sg13
S'android.security.keystore.AndroidKeyStoreRSASignatureSpi$SHA256WithPKCS1Padding'
p156
sg15
(lp157
sg17
(lp158
sg19
(lp159
sg21
I0
sba(iArchitecture
Entity
p160
(dp161
g11
(lp162
sg13
S'android.security.keystore.AndroidKeyStoreRSASignatureSpi$SHA256WithPSSPadding'
p163
sg15
(lp164
sg17
(lp165
sg19
(lp166
sg21
I0
sba(iArchitecture
Entity
p167
(dp168
g11
(lp169
sg13
S'android.security.keystore.AndroidKeyStoreRSASignatureSpi$SHA384WithPKCS1Padding'
p170
sg15
(lp171
sg17
(lp172
sg19
(lp173
sg21
I0
sba(iArchitecture
Entity
p174
(dp175
g11
(lp176
sg13
S'android.security.keystore.AndroidKeyStoreRSASignatureSpi$SHA384WithPSSPadding'
p177
sg15
(lp178
sg17
(lp179
sg19
(lp180
sg21
I0
sba(iArchitecture
Entity
p181
(dp182
g11
(lp183
sg13
S'android.security.keystore.AndroidKeyStoreRSASignatureSpi$SHA512WithPKCS1Padding'
p184
sg15
(lp185
sg17
(lp186
sg19
(lp187
sg21
I0
sba(iArchitecture
Entity
p188
(dp189
g11
(lp190
sg13
S'android.security.keystore.AndroidKeyStoreRSASignatureSpi$SHA512WithPSSPadding'
p191
sg15
(lp192
sg17
(lp193
sg19
(lp194
sg21
I0
sbasg22
(lp195
g93
ag100
ag107
ag114
ag121
ag128
ag135
ag142
ag149
ag156
ag163
ag170
ag177
ag184
ag191
asg21
I0
sg24
S'1084'
p196
sba(iArchitecture
Cluster
p197
(dp198
g7
(lp199
(iArchitecture
Entity
p200
(dp201
g11
(lp202
sg13
S'android.security.keystore.AndroidKeyStoreAuthenticatedAESCipherSpi'
p203
sg15
(lp204
sg17
(lp205
sg19
(lp206
sg21
I0
sba(iArchitecture
Entity
p207
(dp208
g11
(lp209
sg13
S'android.security.keystore.AndroidKeyStoreAuthenticatedAESCipherSpi$AdditionalAuthenticationDataStream'
p210
sg15
(lp211
sg17
(lp212
sg19
(lp213
sg21
I0
sba(iArchitecture
Entity
p214
(dp215
g11
(lp216
sg13
S'android.security.keystore.AndroidKeyStoreAuthenticatedAESCipherSpi$BufferAllOutputUntilDoFinalStreamer'
p217
sg15
(lp218
sg17
(lp219
sg19
(lp220
sg21
I0
sba(iArchitecture
Entity
p221
(dp222
g11
(lp223
sg13
S'android.security.keystore.AndroidKeyStoreAuthenticatedAESCipherSpi$GCM'
p224
sg15
(lp225
sg17
(lp226
sg19
(lp227
sg21
I0
sba(iArchitecture
Entity
p228
(dp229
g11
(lp230
sg13
S'android.security.keystore.AndroidKeyStoreAuthenticatedAESCipherSpi$GCM$NoPadding'
p231
sg15
(lp232
sg17
(lp233
sg19
(lp234
sg21
I0
sba(iArchitecture
Entity
p235
(dp236
g11
(lp237
sg13
S'android.security.keystore.AndroidKeyStoreCipherSpiBase'
p238
sg15
(lp239
sg17
(lp240
sg19
(lp241
sg21
I0
sba(iArchitecture
Entity
p242
(dp243
g11
(lp244
sg13
S'android.security.keystore.AndroidKeyStoreECDSASignatureSpi'
p245
sg15
(lp246
sg17
(lp247
sg19
(lp248
sg21
I0
sba(iArchitecture
Entity
p249
(dp250
g11
(lp251
sg13
S'android.security.keystore.AndroidKeyStoreECDSASignatureSpi$NONE'
p252
sg15
(lp253
sg17
(lp254
sg19
(lp255
sg21
I0
sba(iArchitecture
Entity
p256
(dp257
g11
(lp258
sg13
S'android.security.keystore.AndroidKeyStoreECDSASignatureSpi$NONE$TruncateToFieldSizeMessageStreamer'
p259
sg15
(lp260
sg17
(lp261
sg19
(lp262
sg21
I0
sba(iArchitecture
Entity
p263
(dp264
g11
(lp265
sg13
S'android.security.keystore.AndroidKeyStoreECDSASignatureSpi$SHA1'
p266
sg15
(lp267
sg17
(lp268
sg19
(lp269
sg21
I0
sba(iArchitecture
Entity
p270
(dp271
g11
(lp272
sg13
S'android.security.keystore.AndroidKeyStoreECDSASignatureSpi$SHA224'
p273
sg15
(lp274
sg17
(lp275
sg19
(lp276
sg21
I0
sba(iArchitecture
Entity
p277
(dp278
g11
(lp279
sg13
S'android.security.keystore.AndroidKeyStoreECDSASignatureSpi$SHA256'
p280
sg15
(lp281
sg17
(lp282
sg19
(lp283
sg21
I0
sba(iArchitecture
Entity
p284
(dp285
g11
(lp286
sg13
S'android.security.keystore.AndroidKeyStoreECDSASignatureSpi$SHA384'
p287
sg15
(lp288
sg17
(lp289
sg19
(lp290
sg21
I0
sba(iArchitecture
Entity
p291
(dp292
g11
(lp293
sg13
S'android.security.keystore.AndroidKeyStoreECDSASignatureSpi$SHA512'
p294
sg15
(lp295
sg17
(lp296
sg19
(lp297
sg21
I0
sba(iArchitecture
Entity
p298
(dp299
g11
(lp300
sg13
S'android.security.keystore.AndroidKeyStoreHmacSpi'
p301
sg15
(lp302
sg17
(lp303
sg19
(lp304
sg21
I0
sba(iArchitecture
Entity
p305
(dp306
g11
(lp307
sg13
S'android.security.keystore.AndroidKeyStoreHmacSpi$HmacSHA1'
p308
sg15
(lp309
sg17
(lp310
sg19
(lp311
sg21
I0
sba(iArchitecture
Entity
p312
(dp313
g11
(lp314
sg13
S'android.security.keystore.AndroidKeyStoreHmacSpi$HmacSHA224'
p315
sg15
(lp316
sg17
(lp317
sg19
(lp318
sg21
I0
sba(iArchitecture
Entity
p319
(dp320
g11
(lp321
sg13
S'android.security.keystore.AndroidKeyStoreHmacSpi$HmacSHA256'
p322
sg15
(lp323
sg17
(lp324
sg19
(lp325
sg21
I0
sba(iArchitecture
Entity
p326
(dp327
g11
(lp328
sg13
S'android.security.keystore.AndroidKeyStoreHmacSpi$HmacSHA384'
p329
sg15
(lp330
sg17
(lp331
sg19
(lp332
sg21
I0
sba(iArchitecture
Entity
p333
(dp334
g11
(lp335
sg13
S'android.security.keystore.AndroidKeyStoreHmacSpi$HmacSHA512'
p336
sg15
(lp337
sg17
(lp338
sg19
(lp339
sg21
I0
sba(iArchitecture
Entity
p340
(dp341
g11
(lp342
sg13
S'android.security.keystore.AndroidKeyStoreKeyGeneratorSpi'
p343
sg15
(lp344
sg17
(lp345
sg19
(lp346
sg21
I0
sba(iArchitecture
Entity
p347
(dp348
g11
(lp349
sg13
S'android.security.keystore.AndroidKeyStoreKeyGeneratorSpi$AES'
p350
sg15
(lp351
sg17
(lp352
sg19
(lp353
sg21
I0
sba(iArchitecture
Entity
p354
(dp355
g11
(lp356
sg13
S'android.security.keystore.AndroidKeyStoreKeyGeneratorSpi$HmacBase'
p357
sg15
(lp358
sg17
(lp359
sg19
(lp360
sg21
I0
sba(iArchitecture
Entity
p361
(dp362
g11
(lp363
sg13
S'android.security.keystore.AndroidKeyStoreKeyGeneratorSpi$HmacSHA1'
p364
sg15
(lp365
sg17
(lp366
sg19
(lp367
sg21
I0
sba(iArchitecture
Entity
p368
(dp369
g11
(lp370
sg13
S'android.security.keystore.AndroidKeyStoreKeyGeneratorSpi$HmacSHA224'
p371
sg15
(lp372
sg17
(lp373
sg19
(lp374
sg21
I0
sba(iArchitecture
Entity
p375
(dp376
g11
(lp377
sg13
S'android.security.keystore.AndroidKeyStoreKeyGeneratorSpi$HmacSHA256'
p378
sg15
(lp379
sg17
(lp380
sg19
(lp381
sg21
I0
sba(iArchitecture
Entity
p382
(dp383
g11
(lp384
sg13
S'android.security.keystore.AndroidKeyStoreKeyGeneratorSpi$HmacSHA384'
p385
sg15
(lp386
sg17
(lp387
sg19
(lp388
sg21
I0
sba(iArchitecture
Entity
p389
(dp390
g11
(lp391
sg13
S'android.security.keystore.AndroidKeyStoreKeyGeneratorSpi$HmacSHA512'
p392
sg15
(lp393
sg17
(lp394
sg19
(lp395
sg21
I0
sba(iArchitecture
Entity
p396
(dp397
g11
(lp398
sg13
S'android.security.keystore.AndroidKeyStoreKeyPairGeneratorSpi'
p399
sg15
(lp400
sg17
(lp401
sg19
(lp402
sg21
I0
sba(iArchitecture
Entity
p403
(dp404
g11
(lp405
sg13
S'android.security.keystore.AndroidKeyStoreKeyPairGeneratorSpi$EC'
p406
sg15
(lp407
sg17
(lp408
sg19
(lp409
sg21
I0
sba(iArchitecture
Entity
p410
(dp411
g11
(lp412
sg13
S'android.security.keystore.AndroidKeyStoreKeyPairGeneratorSpi$RSA'
p413
sg15
(lp414
sg17
(lp415
sg19
(lp416
sg21
I0
sba(iArchitecture
Entity
p417
(dp418
g11
(lp419
sg13
S'android.security.keystore.AndroidKeyStoreRSACipherSpi'
p420
sg15
(lp421
sg17
(lp422
sg19
(lp423
sg21
I0
sba(iArchitecture
Entity
p424
(dp425
g11
(lp426
sg13
S'android.security.keystore.AndroidKeyStoreRSACipherSpi$NoPadding'
p427
sg15
(lp428
sg17
(lp429
sg19
(lp430
sg21
I0
sba(iArchitecture
Entity
p431
(dp432
g11
(lp433
sg13
S'android.security.keystore.AndroidKeyStoreRSACipherSpi$OAEPWithMGF1Padding'
p434
sg15
(lp435
sg17
(lp436
sg19
(lp437
sg21
I0
sba(iArchitecture
Entity
p438
(dp439
g11
(lp440
sg13
S'android.security.keystore.AndroidKeyStoreRSACipherSpi$OAEPWithSHA1AndMGF1Padding'
p441
sg15
(lp442
sg17
(lp443
sg19
(lp444
sg21
I0
sba(iArchitecture
Entity
p445
(dp446
g11
(lp447
sg13
S'android.security.keystore.AndroidKeyStoreRSACipherSpi$OAEPWithSHA224AndMGF1Padding'
p448
sg15
(lp449
sg17
(lp450
sg19
(lp451
sg21
I0
sba(iArchitecture
Entity
p452
(dp453
g11
(lp454
sg13
S'android.security.keystore.AndroidKeyStoreRSACipherSpi$OAEPWithSHA256AndMGF1Padding'
p455
sg15
(lp456
sg17
(lp457
sg19
(lp458
sg21
I0
sba(iArchitecture
Entity
p459
(dp460
g11
(lp461
sg13
S'android.security.keystore.AndroidKeyStoreRSACipherSpi$OAEPWithSHA384AndMGF1Padding'
p462
sg15
(lp463
sg17
(lp464
sg19
(lp465
sg21
I0
sba(iArchitecture
Entity
p466
(dp467
g11
(lp468
sg13
S'android.security.keystore.AndroidKeyStoreRSACipherSpi$OAEPWithSHA512AndMGF1Padding'
p469
sg15
(lp470
sg17
(lp471
sg19
(lp472
sg21
I0
sba(iArchitecture
Entity
p473
(dp474
g11
(lp475
sg13
S'android.security.keystore.AndroidKeyStoreRSACipherSpi$PKCS1Padding'
p476
sg15
(lp477
sg17
(lp478
sg19
(lp479
sg21
I0
sba(iArchitecture
Entity
p480
(dp481
g11
(lp482
sg13
S'android.security.keystore.AndroidKeyStoreSignatureSpiBase'
p483
sg15
(lp484
sg17
(lp485
sg19
(lp486
sg21
I0
sba(iArchitecture
Entity
p487
(dp488
g11
(lp489
sg13
S'android.security.keystore.AndroidKeyStoreUnauthenticatedAESCipherSpi'
p490
sg15
(lp491
sg17
(lp492
sg19
(lp493
sg21
I0
sba(iArchitecture
Entity
p494
(dp495
g11
(lp496
sg13
S'android.security.keystore.AndroidKeyStoreUnauthenticatedAESCipherSpi$CBC'
p497
sg15
(lp498
sg17
(lp499
sg19
(lp500
sg21
I0
sba(iArchitecture
Entity
p501
(dp502
g11
(lp503
sg13
S'android.security.keystore.AndroidKeyStoreUnauthenticatedAESCipherSpi$CBC$NoPadding'
p504
sg15
(lp505
sg17
(lp506
sg19
(lp507
sg21
I0
sba(iArchitecture
Entity
p508
(dp509
g11
(lp510
sg13
S'android.security.keystore.AndroidKeyStoreUnauthenticatedAESCipherSpi$CBC$PKCS7Padding'
p511
sg15
(lp512
sg17
(lp513
sg19
(lp514
sg21
I0
sba(iArchitecture
Entity
p515
(dp516
g11
(lp517
sg13
S'android.security.keystore.AndroidKeyStoreUnauthenticatedAESCipherSpi$CTR'
p518
sg15
(lp519
sg17
(lp520
sg19
(lp521
sg21
I0
sba(iArchitecture
Entity
p522
(dp523
g11
(lp524
sg13
S'android.security.keystore.AndroidKeyStoreUnauthenticatedAESCipherSpi$CTR$NoPadding'
p525
sg15
(lp526
sg17
(lp527
sg19
(lp528
sg21
I0
sba(iArchitecture
Entity
p529
(dp530
g11
(lp531
sg13
S'android.security.keystore.AndroidKeyStoreUnauthenticatedAESCipherSpi$ECB'
p532
sg15
(lp533
sg17
(lp534
sg19
(lp535
sg21
I0
sba(iArchitecture
Entity
p536
(dp537
g11
(lp538
sg13
S'android.security.keystore.AndroidKeyStoreUnauthenticatedAESCipherSpi$ECB$NoPadding'
p539
sg15
(lp540
sg17
(lp541
sg19
(lp542
sg21
I0
sba(iArchitecture
Entity
p543
(dp544
g11
(lp545
sg13
S'android.security.keystore.AndroidKeyStoreUnauthenticatedAESCipherSpi$ECB$PKCS7Padding'
p546
sg15
(lp547
sg17
(lp548
sg19
(lp549
sg21
I0
sba(iArchitecture
Entity
p550
(dp551
g11
(lp552
sg13
S'android.security.keystore.KeymasterUtils'
p553
sg15
(lp554
sg17
(lp555
sg19
(lp556
sg21
I0
sbasg22
(lp557
g203
ag210
ag217
ag224
ag231
ag238
ag245
ag252
ag259
ag266
ag273
ag280
ag287
ag294
ag301
ag308
ag315
ag322
ag329
ag336
ag343
ag350
ag357
ag364
ag371
ag378
ag385
ag392
ag399
ag406
ag413
ag420
ag427
ag434
ag441
ag448
ag455
ag462
ag469
ag476
ag483
ag490
ag497
ag504
ag511
ag518
ag525
ag532
ag539
ag546
ag553
asg21
I0
sg24
S'1173'
p558
sba(iArchitecture
Cluster
p559
(dp560
g7
(lp561
(iArchitecture
Entity
p562
(dp563
g11
(lp564
sg13
S'android.security.KeyChainAliasCallback'
p565
sg15
(lp566
sg17
(lp567
sg19
(lp568
sg21
I0
sba(iArchitecture
Entity
p569
(dp570
g11
(lp571
sg13
S'android.security.keystore.AndroidKeyStoreECPrivateKey'
p572
sg15
(lp573
sg17
(lp574
sg19
(lp575
sg21
I0
sba(iArchitecture
Entity
p576
(dp577
g11
(lp578
sg13
S'android.security.keystore.AndroidKeyStoreECPublicKey'
p579
sg15
(lp580
sg17
(lp581
sg19
(lp582
sg21
I0
sba(iArchitecture
Entity
p583
(dp584
g11
(lp585
sg13
S'android.security.keystore.AndroidKeyStorePrivateKey'
p586
sg15
(lp587
sg17
(lp588
sg19
(lp589
sg21
I0
sba(iArchitecture
Entity
p590
(dp591
g11
(lp592
sg13
S'android.security.keystore.AndroidKeyStorePublicKey'
p593
sg15
(lp594
sg17
(lp595
sg19
(lp596
sg21
I0
sba(iArchitecture
Entity
p597
(dp598
g11
(lp599
sg13
S'android.security.keystore.AndroidKeyStoreSecretKey'
p600
sg15
(lp601
sg17
(lp602
sg19
(lp603
sg21
I0
sba(iArchitecture
Entity
p604
(dp605
g11
(lp606
sg13
S'android.security.keystore.KeyStoreCryptoOperation'
p607
sg15
(lp608
sg17
(lp609
sg19
(lp610
sg21
I0
sba(iArchitecture
Entity
p611
(dp612
g11
(lp613
sg13
S'android.security.keystore.Utils'
p614
sg15
(lp615
sg17
(lp616
sg19
(lp617
sg21
I0
sbasg22
(lp618
g565
ag572
ag579
ag586
ag593
ag600
ag607
ag614
asg21
I0
sg24
S'1223'
p619
sba(iArchitecture
Cluster
p620
(dp621
g7
(lp622
(iArchitecture
Entity
p623
(dp624
g11
(lp625
sg13
S'android.security.keymaster.KeymasterBlob'
p626
sg15
(lp627
sg17
(lp628
sg19
(lp629
sg21
I0
sba(iArchitecture
Entity
p630
(dp631
g11
(lp632
sg13
S'android.security.keymaster.KeymasterBlob$1'
p633
sg15
(lp634
sg17
(lp635
sg19
(lp636
sg21
I0
sba(iArchitecture
Entity
p637
(dp638
g11
(lp639
sg13
S'android.security.keymaster.KeymasterBlobArgument'
p640
sg15
(lp641
sg17
(lp642
sg19
(lp643
sg21
I0
sba(iArchitecture
Entity
p644
(dp645
g11
(lp646
sg13
S'android.security.keymaster.KeymasterBooleanArgument'
p647
sg15
(lp648
sg17
(lp649
sg19
(lp650
sg21
I0
sba(iArchitecture
Entity
p651
(dp652
g11
(lp653
sg13
S'android.security.keymaster.KeymasterDateArgument'
p654
sg15
(lp655
sg17
(lp656
sg19
(lp657
sg21
I0
sba(iArchitecture
Entity
p658
(dp659
g11
(lp660
sg13
S'android.security.keymaster.KeymasterIntArgument'
p661
sg15
(lp662
sg17
(lp663
sg19
(lp664
sg21
I0
sba(iArchitecture
Entity
p665
(dp666
g11
(lp667
sg13
S'android.security.keymaster.KeymasterLongArgument'
p668
sg15
(lp669
sg17
(lp670
sg19
(lp671
sg21
I0
sbasg22
(lp672
g626
ag633
ag640
ag647
ag654
ag661
ag668
asg21
I0
sg24
S'1224'
p673
sba(iArchitecture
Cluster
p674
(dp675
g7
(lp676
(iArchitecture
Entity
p677
(dp678
g11
(lp679
sg13
S'android.security.KeyPairGeneratorSpec'
p680
sg15
(lp681
sg17
(lp682
sg19
(lp683
sg21
I0
sba(iArchitecture
Entity
p684
(dp685
g11
(lp686
sg13
S'android.security.KeyPairGeneratorSpec$Builder'
p687
sg15
(lp688
sg17
(lp689
sg19
(lp690
sg21
I0
sba(iArchitecture
Entity
p691
(dp692
g11
(lp693
sg13
S'android.security.KeyStoreParameter'
p694
sg15
(lp695
sg17
(lp696
sg19
(lp697
sg21
I0
sba(iArchitecture
Entity
p698
(dp699
g11
(lp700
sg13
S'android.security.KeyStoreParameter$Builder'
p701
sg15
(lp702
sg17
(lp703
sg19
(lp704
sg21
I0
sba(iArchitecture
Entity
p705
(dp706
g11
(lp707
sg13
S'android.security.keystore.KeyGenParameterSpec'
p708
sg15
(lp709
sg17
(lp710
sg19
(lp711
sg21
I0
sba(iArchitecture
Entity
p712
(dp713
g11
(lp714
sg13
S'android.security.keystore.KeyGenParameterSpec$Builder'
p715
sg15
(lp716
sg17
(lp717
sg19
(lp718
sg21
I0
sba(iArchitecture
Entity
p719
(dp720
g11
(lp721
sg13
S'android.security.keystore.KeyInfo'
p722
sg15
(lp723
sg17
(lp724
sg19
(lp725
sg21
I0
sba(iArchitecture
Entity
p726
(dp727
g11
(lp728
sg13
S'android.security.keystore.KeyProtection'
p729
sg15
(lp730
sg17
(lp731
sg19
(lp732
sg21
I0
sba(iArchitecture
Entity
p733
(dp734
g11
(lp735
sg13
S'android.security.keystore.KeyProtection$Builder'
p736
sg15
(lp737
sg17
(lp738
sg19
(lp739
sg21
I0
sbasg22
(lp740
g680
ag687
ag694
ag701
ag708
ag715
ag722
ag729
ag736
asg21
I0
sg24
S'1236'
p741
sba(iArchitecture
Cluster
p742
(dp743
g7
(lp744
(iArchitecture
Entity
p745
(dp746
g11
(lp747
sg13
S'android.security.GateKeeper'
p748
sg15
(lp749
sg17
(lp750
sg19
(lp751
sg21
I0
sba(iArchitecture
Entity
p752
(dp753
g11
(lp754
sg13
S'android.security.KeystoreArguments'
p755
sg15
(lp756
sg17
(lp757
sg19
(lp758
sg21
I0
sba(iArchitecture
Entity
p759
(dp760
g11
(lp761
sg13
S'android.security.KeystoreArguments$1'
p762
sg15
(lp763
sg17
(lp764
sg19
(lp765
sg21
I0
sba(iArchitecture
Entity
p766
(dp767
g11
(lp768
sg13
S'android.security.SystemKeyStore'
p769
sg15
(lp770
sg17
(lp771
sg19
(lp772
sg21
I0
sba(iArchitecture
Entity
p773
(dp774
g11
(lp775
sg13
S'android.security.keystore.AndroidKeyStoreKey'
p776
sg15
(lp777
sg17
(lp778
sg19
(lp779
sg21
I0
sba(iArchitecture
Entity
p780
(dp781
g11
(lp782
sg13
S'android.security.keystore.AndroidKeyStoreRSAPrivateKey'
p783
sg15
(lp784
sg17
(lp785
sg19
(lp786
sg21
I0
sba(iArchitecture
Entity
p787
(dp788
g11
(lp789
sg13
S'android.security.keystore.AndroidKeyStoreRSAPublicKey'
p790
sg15
(lp791
sg17
(lp792
sg19
(lp793
sg21
I0
sba(iArchitecture
Entity
p794
(dp795
g11
(lp796
sg13
S'android.security.keystore.KeyExpiredException'
p797
sg15
(lp798
sg17
(lp799
sg19
(lp800
sg21
I0
sba(iArchitecture
Entity
p801
(dp802
g11
(lp803
sg13
S'android.security.keystore.KeyNotYetValidException'
p804
sg15
(lp805
sg17
(lp806
sg19
(lp807
sg21
I0
sba(iArchitecture
Entity
p808
(dp809
g11
(lp810
sg13
S'android.security.keystore.KeyStoreConnectException'
p811
sg15
(lp812
sg17
(lp813
sg19
(lp814
sg21
I0
sba(iArchitecture
Entity
p815
(dp816
g11
(lp817
sg13
S'android.security.keystore.KeyStoreCryptoOperationStreamer'
p818
sg15
(lp819
sg17
(lp820
sg19
(lp821
sg21
I0
sba(iArchitecture
Entity
p822
(dp823
g11
(lp824
sg13
S'android.security.keystore.UserNotAuthenticatedException'
p825
sg15
(lp826
sg17
(lp827
sg19
(lp828
sg21
I0
sbasg22
(lp829
g748
ag755
ag762
ag769
ag776
ag783
ag790
ag797
ag804
ag811
ag818
ag825
asg21
I0
sg24
S'1237'
p830
sba(iArchitecture
Cluster
p831
(dp832
g7
(lp833
(iArchitecture
Entity
p834
(dp835
g11
(lp836
sg13
S'android.security.KeyStoreException'
p837
sg15
(lp838
sg17
(lp839
sg19
(lp840
sg21
I0
sba(iArchitecture
Entity
p841
(dp842
g11
(lp843
sg13
S'android.security.keymaster.ExportResult'
p844
sg15
(lp845
sg17
(lp846
sg19
(lp847
sg21
I0
sba(iArchitecture
Entity
p848
(dp849
g11
(lp850
sg13
S'android.security.keymaster.ExportResult$1'
p851
sg15
(lp852
sg17
(lp853
sg19
(lp854
sg21
I0
sbasg22
(lp855
g837
ag844
ag851
asg21
I0
sg24
S'1246'
p856
sba(iArchitecture
Cluster
p857
(dp858
g7
(lp859
(iArchitecture
Entity
p860
(dp861
g11
(lp862
sg13
S'android.security.KeyChainException'
p863
sg15
(lp864
sg17
(lp865
sg19
(lp866
sg21
I0
sbasg22
(lp867
g863
asg21
I0
sg24
S'1252'
p868
sba(iArchitecture
Cluster
p869
(dp870
g7
(lp871
(iArchitecture
Entity
p872
(dp873
g11
(lp874
sg13
S'android.security.keystore.AndroidKeyStoreProvider'
p875
sg15
(lp876
sg17
(lp877
sg19
(lp878
sg21
I0
sbasg22
(lp879
g875
asg21
I0
sg24
S'130'
p880
sba(iArchitecture
Cluster
p881
(dp882
g7
(lp883
(iArchitecture
Entity
p884
(dp885
g11
(lp886
sg13
S'android.security.NetworkSecurityPolicy'
p887
sg15
(lp888
sg17
(lp889
sg19
(lp890
sg21
I0
sbasg22
(lp891
g887
asg21
I0
sg24
S'139'
p892
sba(iArchitecture
Cluster
p893
(dp894
g7
(lp895
(iArchitecture
Entity
p896
(dp897
g11
(lp898
sg13
S'android.security.Credentials'
p899
sg15
(lp900
sg17
(lp901
sg19
(lp902
sg21
I0
sbasg22
(lp903
g899
asg21
I0
sg24
S'218'
p904
sba(iArchitecture
Cluster
p905
(dp906
g7
(lp907
(iArchitecture
Entity
p908
(dp909
g11
(lp910
sg13
S'android.security.keystore.DelegatingX509Certificate'
p911
sg15
(lp912
sg17
(lp913
sg19
(lp914
sg21
I0
sbasg22
(lp915
g911
asg21
I0
sg24
S'284'
p916
sba(iArchitecture
Cluster
p917
(dp918
g7
(lp919
(iArchitecture
Entity
p920
(dp921
g11
(lp922
sg13
S'android.security.keymaster.KeymasterDefs'
p923
sg15
(lp924
sg17
(lp925
sg19
(lp926
sg21
I0
sbasg22
(lp927
g923
asg21
I0
sg24
S'292'
p928
sba(iArchitecture
Cluster
p929
(dp930
g7
(lp931
(iArchitecture
Entity
p932
(dp933
g11
(lp934
sg13
S'android.security.keystore.ArrayUtils'
p935
sg15
(lp936
sg17
(lp937
sg19
(lp938
sg21
I0
sbasg22
(lp939
g935
asg21
I0
sg24
S'340'
p940
sba(iArchitecture
Cluster
p941
(dp942
g7
(lp943
(iArchitecture
Entity
p944
(dp945
g11
(lp946
sg13
S'android.security.keystore.AndroidKeyStoreSecretKeyFactorySpi'
p947
sg15
(lp948
sg17
(lp949
sg19
(lp950
sg21
I0
sbasg22
(lp951
g947
asg21
I0
sg24
S'371'
p952
sba(iArchitecture
Cluster
p953
(dp954
g7
(lp955
(iArchitecture
Entity
p956
(dp957
g11
(lp958
sg13
S'android.security.keystore.KeyPermanentlyInvalidatedException'
p959
sg15
(lp960
sg17
(lp961
sg19
(lp962
sg21
I0
sbasg22
(lp963
g959
asg21
I0
sg24
S'422'
p964
sba(iArchitecture
Cluster
p965
(dp966
g7
(lp967
(iArchitecture
Entity
p968
(dp969
g11
(lp970
sg13
S'android.security.keystore.AndroidKeyStoreKeyFactorySpi'
p971
sg15
(lp972
sg17
(lp973
sg19
(lp974
sg21
I0
sbasg22
(lp975
g971
asg21
I0
sg24
S'438'
p976
sba(iArchitecture
Cluster
p977
(dp978
g7
(lp979
(iArchitecture
Entity
p980
(dp981
g11
(lp982
sg13
S'android.security.keymaster.KeymasterArguments'
p983
sg15
(lp984
sg17
(lp985
sg19
(lp986
sg21
I0
sba(iArchitecture
Entity
p987
(dp988
g11
(lp989
sg13
S'android.security.keymaster.KeymasterArguments$1'
p990
sg15
(lp991
sg17
(lp992
sg19
(lp993
sg21
I0
sbasg22
(lp994
g983
ag990
asg21
I0
sg24
S'460'
p995
sba(iArchitecture
Cluster
p996
(dp997
g7
(lp998
(iArchitecture
Entity
p999
(dp1000
g11
(lp1001
sg13
S'android.security.keymaster.KeyCharacteristics'
p1002
sg15
(lp1003
sg17
(lp1004
sg19
(lp1005
sg21
I0
sba(iArchitecture
Entity
p1006
(dp1007
g11
(lp1008
sg13
S'android.security.keymaster.KeyCharacteristics$1'
p1009
sg15
(lp1010
sg17
(lp1011
sg19
(lp1012
sg21
I0
sbasg22
(lp1013
g1002
ag1009
asg21
I0
sg24
S'565'
p1014
sba(iArchitecture
Cluster
p1015
(dp1016
g7
(lp1017
(iArchitecture
Entity
p1018
(dp1019
g11
(lp1020
sg13
S'android.security.KeyStore'
p1021
sg15
(lp1022
sg17
(lp1023
sg19
(lp1024
sg21
I0
sba(iArchitecture
Entity
p1025
(dp1026
g11
(lp1027
sg13
S'android.security.KeyStore$State'
p1028
sg15
(lp1029
sg17
(lp1030
sg19
(lp1031
sg21
I0
sbasg22
(lp1032
g1021
ag1028
asg21
I0
sg24
S'578'
p1033
sba(iArchitecture
Cluster
p1034
(dp1035
g7
(lp1036
(iArchitecture
Entity
p1037
(dp1038
g11
(lp1039
sg13
S'android.security.keystore.AndroidKeyStoreSpi'
p1040
sg15
(lp1041
sg17
(lp1042
sg19
(lp1043
sg21
I0
sba(iArchitecture
Entity
p1044
(dp1045
g11
(lp1046
sg13
S'android.security.keystore.AndroidKeyStoreSpi$KeyStoreX509Certificate'
p1047
sg15
(lp1048
sg17
(lp1049
sg19
(lp1050
sg21
I0
sbasg22
(lp1051
g1040
ag1047
asg21
I0
sg24
S'634'
p1052
sba(iArchitecture
Cluster
p1053
(dp1054
g7
(lp1055
(iArchitecture
Entity
p1056
(dp1057
g11
(lp1058
sg13
S'android.security.keymaster.KeymasterArgument'
p1059
sg15
(lp1060
sg17
(lp1061
sg19
(lp1062
sg21
I0
sba(iArchitecture
Entity
p1063
(dp1064
g11
(lp1065
sg13
S'android.security.keymaster.KeymasterArgument$1'
p1066
sg15
(lp1067
sg17
(lp1068
sg19
(lp1069
sg21
I0
sbasg22
(lp1070
g1059
ag1066
asg21
I0
sg24
S'636'
p1071
sba(iArchitecture
Cluster
p1072
(dp1073
g7
(lp1074
(iArchitecture
Entity
p1075
(dp1076
g11
(lp1077
sg13
S'android.security.keymaster.OperationResult'
p1078
sg15
(lp1079
sg17
(lp1080
sg19
(lp1081
sg21
I0
sba(iArchitecture
Entity
p1082
(dp1083
g11
(lp1084
sg13
S'android.security.keymaster.OperationResult$1'
p1085
sg15
(lp1086
sg17
(lp1087
sg19
(lp1088
sg21
I0
sbasg22
(lp1089
g1078
ag1085
asg21
I0
sg24
S'646'
p1090
sba(iArchitecture
Cluster
p1091
(dp1092
g7
(lp1093
(iArchitecture
Entity
p1094
(dp1095
g11
(lp1096
sg13
S'android.security.keystore.KeyStoreCryptoOperationChunkedStreamer'
p1097
sg15
(lp1098
sg17
(lp1099
sg19
(lp1100
sg21
I0
sba(iArchitecture
Entity
p1101
(dp1102
g11
(lp1103
sg13
S'android.security.keystore.KeyStoreCryptoOperationChunkedStreamer$MainDataStream'
p1104
sg15
(lp1105
sg17
(lp1106
sg19
(lp1107
sg21
I0
sba(iArchitecture
Entity
p1108
(dp1109
g11
(lp1110
sg13
S'android.security.keystore.KeyStoreCryptoOperationChunkedStreamer$Stream'
p1111
sg15
(lp1112
sg17
(lp1113
sg19
(lp1114
sg21
I0
sbasg22
(lp1115
g1097
ag1104
ag1111
asg21
I0
sg24
S'880'
p1116
sba(iArchitecture
Cluster
p1117
(dp1118
g7
(lp1119
(iArchitecture
Entity
p1120
(dp1121
g11
(lp1122
sg13
S'android.security.KeyChain'
p1123
sg15
(lp1124
sg17
(lp1125
sg19
(lp1126
sg21
I0
sba(iArchitecture
Entity
p1127
(dp1128
g11
(lp1129
sg13
S'android.security.KeyChain$1'
p1130
sg15
(lp1131
sg17
(lp1132
sg19
(lp1133
sg21
I0
sba(iArchitecture
Entity
p1134
(dp1135
g11
(lp1136
sg13
S'android.security.KeyChain$AliasResponse'
p1137
sg15
(lp1138
sg17
(lp1139
sg19
(lp1140
sg21
I0
sba(iArchitecture
Entity
p1141
(dp1142
g11
(lp1143
sg13
S'android.security.KeyChain$KeyChainConnection'
p1144
sg15
(lp1145
sg17
(lp1146
sg19
(lp1147
sg21
I0
sbasg22
(lp1148
g1123
ag1130
ag1137
ag1144
asg21
I0
sg24
S'900'
p1149
sba(iArchitecture
Cluster
p1150
(dp1151
g7
(lp1152
(iArchitecture
Entity
p1153
(dp1154
g11
(lp1155
sg13
S'android.security.keystore.AndroidKeyStoreBCWorkaroundProvider'
p1156
sg15
(lp1157
sg17
(lp1158
sg19
(lp1159
sg21
I0
sbasg22
(lp1160
g1156
asg21
I0
sg24
S'98'
p1161
sbasS'target_sub'
p1162
S'android.security'
p1163
sg22
(lp1164
sS'is_component_arch'
p1165
I00
sg24
S'6.0.0_r1'
p1166
sba(iArchitecture
Architecture
p1167
(dp1168
g3
(lp1169
(iArchitecture
Cluster
p1170
(dp1171
g7
(lp1172
(iArchitecture
Entity
p1173
(dp1174
g11
(lp1175
sg13
S'android.security.KeyChain'
p1176
sg15
(lp1177
sg17
(lp1178
sg19
(lp1179
sg21
I0
sba(iArchitecture
Entity
p1180
(dp1181
g11
(lp1182
sg13
S'android.security.KeyChain$1'
p1183
sg15
(lp1184
sg17
(lp1185
sg19
(lp1186
sg21
I0
sba(iArchitecture
Entity
p1187
(dp1188
g11
(lp1189
sg13
S'android.security.KeyChain$AliasResponse'
p1190
sg15
(lp1191
sg17
(lp1192
sg19
(lp1193
sg21
I0
sba(iArchitecture
Entity
p1194
(dp1195
g11
(lp1196
sg13
S'android.security.KeyChain$KeyChainConnection'
p1197
sg15
(lp1198
sg17
(lp1199
sg19
(lp1200
sg21
I0
sbasg22
(lp1201
g1176
ag1183
ag1190
ag1197
asg21
I0
sg24
S'1015'
p1202
sba(iArchitecture
Cluster
p1203
(dp1204
g7
(lp1205
(iArchitecture
Entity
p1206
(dp1207
g11
(lp1208
sg13
S'android.security.net.config.NetworkSecurityConfig'
p1209
sg15
(lp1210
sg17
(lp1211
sg19
(lp1212
sg21
I0
sba(iArchitecture
Entity
p1213
(dp1214
g11
(lp1215
sg13
S'android.security.net.config.NetworkSecurityConfig$1'
p1216
sg15
(lp1217
sg17
(lp1218
sg19
(lp1219
sg21
I0
sba(iArchitecture
Entity
p1220
(dp1221
g11
(lp1222
sg13
S'android.security.net.config.NetworkSecurityConfig$Builder'
p1223
sg15
(lp1224
sg17
(lp1225
sg19
(lp1226
sg21
I0
sbasg22
(lp1227
g1209
ag1216
ag1223
asg21
I0
sg24
S'1038'
p1228
sba(iArchitecture
Cluster
p1229
(dp1230
g7
(lp1231
(iArchitecture
Entity
p1232
(dp1233
g11
(lp1234
sg13
S'android.security.keystore.AndroidKeyStoreBCWorkaroundProvider'
p1235
sg15
(lp1236
sg17
(lp1237
sg19
(lp1238
sg21
I0
sbasg22
(lp1239
g1235
asg21
I0
sg24
S'110'
p1240
sba(iArchitecture
Cluster
p1241
(dp1242
g7
(lp1243
(iArchitecture
Entity
p1244
(dp1245
g11
(lp1246
sg13
S'android.security.keystore.KeyStoreCryptoOperationUtils'
p1247
sg15
(lp1248
sg17
(lp1249
sg19
(lp1250
sg21
I0
sbasg22
(lp1251
g1247
asg21
I0
sg24
S'114'
p1252
sba(iArchitecture
Cluster
p1253
(dp1254
g7
(lp1255
(iArchitecture
Entity
p1256
(dp1257
g11
(lp1258
sg13
S'android.security.keystore.KeyProperties'
p1259
sg15
(lp1260
sg17
(lp1261
sg19
(lp1262
sg21
I0
sba(iArchitecture
Entity
p1263
(dp1264
g11
(lp1265
sg13
S'android.security.keystore.KeyProperties$BlockMode'
p1266
sg15
(lp1267
sg17
(lp1268
sg19
(lp1269
sg21
I0
sba(iArchitecture
Entity
p1270
(dp1271
g11
(lp1272
sg13
S'android.security.keystore.KeyProperties$Digest'
p1273
sg15
(lp1274
sg17
(lp1275
sg19
(lp1276
sg21
I0
sba(iArchitecture
Entity
p1277
(dp1278
g11
(lp1279
sg13
S'android.security.keystore.KeyProperties$EncryptionPadding'
p1280
sg15
(lp1281
sg17
(lp1282
sg19
(lp1283
sg21
I0
sba(iArchitecture
Entity
p1284
(dp1285
g11
(lp1286
sg13
S'android.security.keystore.KeyProperties$KeyAlgorithm'
p1287
sg15
(lp1288
sg17
(lp1289
sg19
(lp1290
sg21
I0
sba(iArchitecture
Entity
p1291
(dp1292
g11
(lp1293
sg13
S'android.security.keystore.KeyProperties$Origin'
p1294
sg15
(lp1295
sg17
(lp1296
sg19
(lp1297
sg21
I0
sba(iArchitecture
Entity
p1298
(dp1299
g11
(lp1300
sg13
S'android.security.keystore.KeyProperties$Purpose'
p1301
sg15
(lp1302
sg17
(lp1303
sg19
(lp1304
sg21
I0
sba(iArchitecture
Entity
p1305
(dp1306
g11
(lp1307
sg13
S'android.security.keystore.KeyProperties$SignaturePadding'
p1308
sg15
(lp1309
sg17
(lp1310
sg19
(lp1311
sg21
I0
sbasg22
(lp1312
g1259
ag1266
ag1273
ag1280
ag1287
ag1294
ag1301
ag1308
asg21
I0
sg24
S'1161'
p1313
sba(iArchitecture
Cluster
p1314
(dp1315
g7
(lp1316
(iArchitecture
Entity
p1317
(dp1318
g11
(lp1319
sg13
S'android.security.keystore.AndroidKeyStoreRSASignatureSpi'
p1320
sg15
(lp1321
sg17
(lp1322
sg19
(lp1323
sg21
I0
sba(iArchitecture
Entity
p1324
(dp1325
g11
(lp1326
sg13
S'android.security.keystore.AndroidKeyStoreRSASignatureSpi$MD5WithPKCS1Padding'
p1327
sg15
(lp1328
sg17
(lp1329
sg19
(lp1330
sg21
I0
sba(iArchitecture
Entity
p1331
(dp1332
g11
(lp1333
sg13
S'android.security.keystore.AndroidKeyStoreRSASignatureSpi$NONEWithPKCS1Padding'
p1334
sg15
(lp1335
sg17
(lp1336
sg19
(lp1337
sg21
I0
sba(iArchitecture
Entity
p1338
(dp1339
g11
(lp1340
sg13
S'android.security.keystore.AndroidKeyStoreRSASignatureSpi$PKCS1Padding'
p1341
sg15
(lp1342
sg17
(lp1343
sg19
(lp1344
sg21
I0
sba(iArchitecture
Entity
p1345
(dp1346
g11
(lp1347
sg13
S'android.security.keystore.AndroidKeyStoreRSASignatureSpi$PSSPadding'
p1348
sg15
(lp1349
sg17
(lp1350
sg19
(lp1351
sg21
I0
sba(iArchitecture
Entity
p1352
(dp1353
g11
(lp1354
sg13
S'android.security.keystore.AndroidKeyStoreRSASignatureSpi$SHA1WithPKCS1Padding'
p1355
sg15
(lp1356
sg17
(lp1357
sg19
(lp1358
sg21
I0
sba(iArchitecture
Entity
p1359
(dp1360
g11
(lp1361
sg13
S'android.security.keystore.AndroidKeyStoreRSASignatureSpi$SHA1WithPSSPadding'
p1362
sg15
(lp1363
sg17
(lp1364
sg19
(lp1365
sg21
I0
sba(iArchitecture
Entity
p1366
(dp1367
g11
(lp1368
sg13
S'android.security.keystore.AndroidKeyStoreRSASignatureSpi$SHA224WithPKCS1Padding'
p1369
sg15
(lp1370
sg17
(lp1371
sg19
(lp1372
sg21
I0
sba(iArchitecture
Entity
p1373
(dp1374
g11
(lp1375
sg13
S'android.security.keystore.AndroidKeyStoreRSASignatureSpi$SHA224WithPSSPadding'
p1376
sg15
(lp1377
sg17
(lp1378
sg19
(lp1379
sg21
I0
sba(iArchitecture
Entity
p1380
(dp1381
g11
(lp1382
sg13
S'android.security.keystore.AndroidKeyStoreRSASignatureSpi$SHA256WithPKCS1Padding'
p1383
sg15
(lp1384
sg17
(lp1385
sg19
(lp1386
sg21
I0
sba(iArchitecture
Entity
p1387
(dp1388
g11
(lp1389
sg13
S'android.security.keystore.AndroidKeyStoreRSASignatureSpi$SHA256WithPSSPadding'
p1390
sg15
(lp1391
sg17
(lp1392
sg19
(lp1393
sg21
I0
sba(iArchitecture
Entity
p1394
(dp1395
g11
(lp1396
sg13
S'android.security.keystore.AndroidKeyStoreRSASignatureSpi$SHA384WithPKCS1Padding'
p1397
sg15
(lp1398
sg17
(lp1399
sg19
(lp1400
sg21
I0
sba(iArchitecture
Entity
p1401
(dp1402
g11
(lp1403
sg13
S'android.security.keystore.AndroidKeyStoreRSASignatureSpi$SHA384WithPSSPadding'
p1404
sg15
(lp1405
sg17
(lp1406
sg19
(lp1407
sg21
I0
sba(iArchitecture
Entity
p1408
(dp1409
g11
(lp1410
sg13
S'android.security.keystore.AndroidKeyStoreRSASignatureSpi$SHA512WithPKCS1Padding'
p1411
sg15
(lp1412
sg17
(lp1413
sg19
(lp1414
sg21
I0
sba(iArchitecture
Entity
p1415
(dp1416
g11
(lp1417
sg13
S'android.security.keystore.AndroidKeyStoreRSASignatureSpi$SHA512WithPSSPadding'
p1418
sg15
(lp1419
sg17
(lp1420
sg19
(lp1421
sg21
I0
sbasg22
(lp1422
g1320
ag1327
ag1334
ag1341
ag1348
ag1355
ag1362
ag1369
ag1376
ag1383
ag1390
ag1397
ag1404
ag1411
ag1418
asg21
I0
sg24
S'1216'
p1423
sba(iArchitecture
Cluster
p1424
(dp1425
g7
(lp1426
(iArchitecture
Entity
p1427
(dp1428
g11
(lp1429
sg13
S'android.security.net.config.NetworkSecurityTrustManager'
p1430
sg15
(lp1431
sg17
(lp1432
sg19
(lp1433
sg21
I0
sba(iArchitecture
Entity
p1434
(dp1435
g11
(lp1436
sg13
S'android.security.net.config.RootTrustManager'
p1437
sg15
(lp1438
sg17
(lp1439
sg19
(lp1440
sg21
I0
sbasg22
(lp1441
g1430
ag1437
asg21
I0
sg24
S'1282'
p1442
sba(iArchitecture
Cluster
p1443
(dp1444
g7
(lp1445
(iArchitecture
Entity
p1446
(dp1447
g11
(lp1448
sg13
S'android.security.net.config.CertificatesEntryRef'
p1449
sg15
(lp1450
sg17
(lp1451
sg19
(lp1452
sg21
I0
sba(iArchitecture
Entity
p1453
(dp1454
g11
(lp1455
sg13
S'android.security.net.config.DirectoryCertificateSource'
p1456
sg15
(lp1457
sg17
(lp1458
sg19
(lp1459
sg21
I0
sba(iArchitecture
Entity
p1460
(dp1461
g11
(lp1462
sg13
S'android.security.net.config.DirectoryCertificateSource$1'
p1463
sg15
(lp1464
sg17
(lp1465
sg19
(lp1466
sg21
I0
sba(iArchitecture
Entity
p1467
(dp1468
g11
(lp1469
sg13
S'android.security.net.config.DirectoryCertificateSource$2'
p1470
sg15
(lp1471
sg17
(lp1472
sg19
(lp1473
sg21
I0
sba(iArchitecture
Entity
p1474
(dp1475
g11
(lp1476
sg13
S'android.security.net.config.DirectoryCertificateSource$3'
p1477
sg15
(lp1478
sg17
(lp1479
sg19
(lp1480
sg21
I0
sba(iArchitecture
Entity
p1481
(dp1482
g11
(lp1483
sg13
S'android.security.net.config.DirectoryCertificateSource$CertSelector'
p1484
sg15
(lp1485
sg17
(lp1486
sg19
(lp1487
sg21
I0
sba(iArchitecture
Entity
p1488
(dp1489
g11
(lp1490
sg13
S'android.security.net.config.KeyStoreCertificateSource'
p1491
sg15
(lp1492
sg17
(lp1493
sg19
(lp1494
sg21
I0
sba(iArchitecture
Entity
p1495
(dp1496
g11
(lp1497
sg13
S'android.security.net.config.ResourceCertificateSource'
p1498
sg15
(lp1499
sg17
(lp1500
sg19
(lp1501
sg21
I0
sba(iArchitecture
Entity
p1502
(dp1503
g11
(lp1504
sg13
S'android.security.net.config.TrustedCertificateStoreAdapter'
p1505
sg15
(lp1506
sg17
(lp1507
sg19
(lp1508
sg21
I0
sbasg22
(lp1509
g1449
ag1456
ag1463
ag1470
ag1477
ag1484
ag1491
ag1498
ag1505
asg21
I0
sg24
S'1316'
p1510
sba(iArchitecture
Cluster
p1511
(dp1512
g7
(lp1513
(iArchitecture
Entity
p1514
(dp1515
g11
(lp1516
sg13
S'android.security.keystore.AndroidKeyStoreAuthenticatedAESCipherSpi'
p1517
sg15
(lp1518
sg17
(lp1519
sg19
(lp1520
sg21
I0
sba(iArchitecture
Entity
p1521
(dp1522
g11
(lp1523
sg13
S'android.security.keystore.AndroidKeyStoreAuthenticatedAESCipherSpi$AdditionalAuthenticationDataStream'
p1524
sg15
(lp1525
sg17
(lp1526
sg19
(lp1527
sg21
I0
sba(iArchitecture
Entity
p1528
(dp1529
g11
(lp1530
sg13
S'android.security.keystore.AndroidKeyStoreAuthenticatedAESCipherSpi$BufferAllOutputUntilDoFinalStreamer'
p1531
sg15
(lp1532
sg17
(lp1533
sg19
(lp1534
sg21
I0
sba(iArchitecture
Entity
p1535
(dp1536
g11
(lp1537
sg13
S'android.security.keystore.AndroidKeyStoreAuthenticatedAESCipherSpi$GCM'
p1538
sg15
(lp1539
sg17
(lp1540
sg19
(lp1541
sg21
I0
sba(iArchitecture
Entity
p1542
(dp1543
g11
(lp1544
sg13
S'android.security.keystore.AndroidKeyStoreAuthenticatedAESCipherSpi$GCM$NoPadding'
p1545
sg15
(lp1546
sg17
(lp1547
sg19
(lp1548
sg21
I0
sba(iArchitecture
Entity
p1549
(dp1550
g11
(lp1551
sg13
S'android.security.keystore.AndroidKeyStoreCipherSpiBase'
p1552
sg15
(lp1553
sg17
(lp1554
sg19
(lp1555
sg21
I0
sba(iArchitecture
Entity
p1556
(dp1557
g11
(lp1558
sg13
S'android.security.keystore.AndroidKeyStoreECDSASignatureSpi'
p1559
sg15
(lp1560
sg17
(lp1561
sg19
(lp1562
sg21
I0
sba(iArchitecture
Entity
p1563
(dp1564
g11
(lp1565
sg13
S'android.security.keystore.AndroidKeyStoreECDSASignatureSpi$NONE'
p1566
sg15
(lp1567
sg17
(lp1568
sg19
(lp1569
sg21
I0
sba(iArchitecture
Entity
p1570
(dp1571
g11
(lp1572
sg13
S'android.security.keystore.AndroidKeyStoreECDSASignatureSpi$NONE$TruncateToFieldSizeMessageStreamer'
p1573
sg15
(lp1574
sg17
(lp1575
sg19
(lp1576
sg21
I0
sba(iArchitecture
Entity
p1577
(dp1578
g11
(lp1579
sg13
S'android.security.keystore.AndroidKeyStoreECDSASignatureSpi$SHA1'
p1580
sg15
(lp1581
sg17
(lp1582
sg19
(lp1583
sg21
I0
sba(iArchitecture
Entity
p1584
(dp1585
g11
(lp1586
sg13
S'android.security.keystore.AndroidKeyStoreECDSASignatureSpi$SHA224'
p1587
sg15
(lp1588
sg17
(lp1589
sg19
(lp1590
sg21
I0
sba(iArchitecture
Entity
p1591
(dp1592
g11
(lp1593
sg13
S'android.security.keystore.AndroidKeyStoreECDSASignatureSpi$SHA256'
p1594
sg15
(lp1595
sg17
(lp1596
sg19
(lp1597
sg21
I0
sba(iArchitecture
Entity
p1598
(dp1599
g11
(lp1600
sg13
S'android.security.keystore.AndroidKeyStoreECDSASignatureSpi$SHA384'
p1601
sg15
(lp1602
sg17
(lp1603
sg19
(lp1604
sg21
I0
sba(iArchitecture
Entity
p1605
(dp1606
g11
(lp1607
sg13
S'android.security.keystore.AndroidKeyStoreECDSASignatureSpi$SHA512'
p1608
sg15
(lp1609
sg17
(lp1610
sg19
(lp1611
sg21
I0
sba(iArchitecture
Entity
p1612
(dp1613
g11
(lp1614
sg13
S'android.security.keystore.AndroidKeyStoreHmacSpi'
p1615
sg15
(lp1616
sg17
(lp1617
sg19
(lp1618
sg21
I0
sba(iArchitecture
Entity
p1619
(dp1620
g11
(lp1621
sg13
S'android.security.keystore.AndroidKeyStoreHmacSpi$HmacSHA1'
p1622
sg15
(lp1623
sg17
(lp1624
sg19
(lp1625
sg21
I0
sba(iArchitecture
Entity
p1626
(dp1627
g11
(lp1628
sg13
S'android.security.keystore.AndroidKeyStoreHmacSpi$HmacSHA224'
p1629
sg15
(lp1630
sg17
(lp1631
sg19
(lp1632
sg21
I0
sba(iArchitecture
Entity
p1633
(dp1634
g11
(lp1635
sg13
S'android.security.keystore.AndroidKeyStoreHmacSpi$HmacSHA256'
p1636
sg15
(lp1637
sg17
(lp1638
sg19
(lp1639
sg21
I0
sba(iArchitecture
Entity
p1640
(dp1641
g11
(lp1642
sg13
S'android.security.keystore.AndroidKeyStoreHmacSpi$HmacSHA384'
p1643
sg15
(lp1644
sg17
(lp1645
sg19
(lp1646
sg21
I0
sba(iArchitecture
Entity
p1647
(dp1648
g11
(lp1649
sg13
S'android.security.keystore.AndroidKeyStoreHmacSpi$HmacSHA512'
p1650
sg15
(lp1651
sg17
(lp1652
sg19
(lp1653
sg21
I0
sba(iArchitecture
Entity
p1654
(dp1655
g11
(lp1656
sg13
S'android.security.keystore.AndroidKeyStoreKeyGeneratorSpi'
p1657
sg15
(lp1658
sg17
(lp1659
sg19
(lp1660
sg21
I0
sba(iArchitecture
Entity
p1661
(dp1662
g11
(lp1663
sg13
S'android.security.keystore.AndroidKeyStoreKeyGeneratorSpi$AES'
p1664
sg15
(lp1665
sg17
(lp1666
sg19
(lp1667
sg21
I0
sba(iArchitecture
Entity
p1668
(dp1669
g11
(lp1670
sg13
S'android.security.keystore.AndroidKeyStoreKeyGeneratorSpi$HmacBase'
p1671
sg15
(lp1672
sg17
(lp1673
sg19
(lp1674
sg21
I0
sba(iArchitecture
Entity
p1675
(dp1676
g11
(lp1677
sg13
S'android.security.keystore.AndroidKeyStoreKeyGeneratorSpi$HmacSHA1'
p1678
sg15
(lp1679
sg17
(lp1680
sg19
(lp1681
sg21
I0
sba(iArchitecture
Entity
p1682
(dp1683
g11
(lp1684
sg13
S'android.security.keystore.AndroidKeyStoreKeyGeneratorSpi$HmacSHA224'
p1685
sg15
(lp1686
sg17
(lp1687
sg19
(lp1688
sg21
I0
sba(iArchitecture
Entity
p1689
(dp1690
g11
(lp1691
sg13
S'android.security.keystore.AndroidKeyStoreKeyGeneratorSpi$HmacSHA256'
p1692
sg15
(lp1693
sg17
(lp1694
sg19
(lp1695
sg21
I0
sba(iArchitecture
Entity
p1696
(dp1697
g11
(lp1698
sg13
S'android.security.keystore.AndroidKeyStoreKeyGeneratorSpi$HmacSHA384'
p1699
sg15
(lp1700
sg17
(lp1701
sg19
(lp1702
sg21
I0
sba(iArchitecture
Entity
p1703
(dp1704
g11
(lp1705
sg13
S'android.security.keystore.AndroidKeyStoreKeyGeneratorSpi$HmacSHA512'
p1706
sg15
(lp1707
sg17
(lp1708
sg19
(lp1709
sg21
I0
sba(iArchitecture
Entity
p1710
(dp1711
g11
(lp1712
sg13
S'android.security.keystore.AndroidKeyStoreKeyPairGeneratorSpi'
p1713
sg15
(lp1714
sg17
(lp1715
sg19
(lp1716
sg21
I0
sba(iArchitecture
Entity
p1717
(dp1718
g11
(lp1719
sg13
S'android.security.keystore.AndroidKeyStoreKeyPairGeneratorSpi$EC'
p1720
sg15
(lp1721
sg17
(lp1722
sg19
(lp1723
sg21
I0
sba(iArchitecture
Entity
p1724
(dp1725
g11
(lp1726
sg13
S'android.security.keystore.AndroidKeyStoreKeyPairGeneratorSpi$RSA'
p1727
sg15
(lp1728
sg17
(lp1729
sg19
(lp1730
sg21
I0
sba(iArchitecture
Entity
p1731
(dp1732
g11
(lp1733
sg13
S'android.security.keystore.AndroidKeyStoreRSACipherSpi'
p1734
sg15
(lp1735
sg17
(lp1736
sg19
(lp1737
sg21
I0
sba(iArchitecture
Entity
p1738
(dp1739
g11
(lp1740
sg13
S'android.security.keystore.AndroidKeyStoreRSACipherSpi$NoPadding'
p1741
sg15
(lp1742
sg17
(lp1743
sg19
(lp1744
sg21
I0
sba(iArchitecture
Entity
p1745
(dp1746
g11
(lp1747
sg13
S'android.security.keystore.AndroidKeyStoreRSACipherSpi$OAEPWithMGF1Padding'
p1748
sg15
(lp1749
sg17
(lp1750
sg19
(lp1751
sg21
I0
sba(iArchitecture
Entity
p1752
(dp1753
g11
(lp1754
sg13
S'android.security.keystore.AndroidKeyStoreRSACipherSpi$OAEPWithSHA1AndMGF1Padding'
p1755
sg15
(lp1756
sg17
(lp1757
sg19
(lp1758
sg21
I0
sba(iArchitecture
Entity
p1759
(dp1760
g11
(lp1761
sg13
S'android.security.keystore.AndroidKeyStoreRSACipherSpi$OAEPWithSHA224AndMGF1Padding'
p1762
sg15
(lp1763
sg17
(lp1764
sg19
(lp1765
sg21
I0
sba(iArchitecture
Entity
p1766
(dp1767
g11
(lp1768
sg13
S'android.security.keystore.AndroidKeyStoreRSACipherSpi$OAEPWithSHA256AndMGF1Padding'
p1769
sg15
(lp1770
sg17
(lp1771
sg19
(lp1772
sg21
I0
sba(iArchitecture
Entity
p1773
(dp1774
g11
(lp1775
sg13
S'android.security.keystore.AndroidKeyStoreRSACipherSpi$OAEPWithSHA384AndMGF1Padding'
p1776
sg15
(lp1777
sg17
(lp1778
sg19
(lp1779
sg21
I0
sba(iArchitecture
Entity
p1780
(dp1781
g11
(lp1782
sg13
S'android.security.keystore.AndroidKeyStoreRSACipherSpi$OAEPWithSHA512AndMGF1Padding'
p1783
sg15
(lp1784
sg17
(lp1785
sg19
(lp1786
sg21
I0
sba(iArchitecture
Entity
p1787
(dp1788
g11
(lp1789
sg13
S'android.security.keystore.AndroidKeyStoreRSACipherSpi$PKCS1Padding'
p1790
sg15
(lp1791
sg17
(lp1792
sg19
(lp1793
sg21
I0
sba(iArchitecture
Entity
p1794
(dp1795
g11
(lp1796
sg13
S'android.security.keystore.AndroidKeyStoreSignatureSpiBase'
p1797
sg15
(lp1798
sg17
(lp1799
sg19
(lp1800
sg21
I0
sba(iArchitecture
Entity
p1801
(dp1802
g11
(lp1803
sg13
S'android.security.keystore.AndroidKeyStoreUnauthenticatedAESCipherSpi'
p1804
sg15
(lp1805
sg17
(lp1806
sg19
(lp1807
sg21
I0
sba(iArchitecture
Entity
p1808
(dp1809
g11
(lp1810
sg13
S'android.security.keystore.AndroidKeyStoreUnauthenticatedAESCipherSpi$CBC'
p1811
sg15
(lp1812
sg17
(lp1813
sg19
(lp1814
sg21
I0
sba(iArchitecture
Entity
p1815
(dp1816
g11
(lp1817
sg13
S'android.security.keystore.AndroidKeyStoreUnauthenticatedAESCipherSpi$CBC$NoPadding'
p1818
sg15
(lp1819
sg17
(lp1820
sg19
(lp1821
sg21
I0
sba(iArchitecture
Entity
p1822
(dp1823
g11
(lp1824
sg13
S'android.security.keystore.AndroidKeyStoreUnauthenticatedAESCipherSpi$CBC$PKCS7Padding'
p1825
sg15
(lp1826
sg17
(lp1827
sg19
(lp1828
sg21
I0
sba(iArchitecture
Entity
p1829
(dp1830
g11
(lp1831
sg13
S'android.security.keystore.AndroidKeyStoreUnauthenticatedAESCipherSpi$CTR'
p1832
sg15
(lp1833
sg17
(lp1834
sg19
(lp1835
sg21
I0
sba(iArchitecture
Entity
p1836
(dp1837
g11
(lp1838
sg13
S'android.security.keystore.AndroidKeyStoreUnauthenticatedAESCipherSpi$CTR$NoPadding'
p1839
sg15
(lp1840
sg17
(lp1841
sg19
(lp1842
sg21
I0
sba(iArchitecture
Entity
p1843
(dp1844
g11
(lp1845
sg13
S'android.security.keystore.AndroidKeyStoreUnauthenticatedAESCipherSpi$ECB'
p1846
sg15
(lp1847
sg17
(lp1848
sg19
(lp1849
sg21
I0
sba(iArchitecture
Entity
p1850
(dp1851
g11
(lp1852
sg13
S'android.security.keystore.AndroidKeyStoreUnauthenticatedAESCipherSpi$ECB$NoPadding'
p1853
sg15
(lp1854
sg17
(lp1855
sg19
(lp1856
sg21
I0
sba(iArchitecture
Entity
p1857
(dp1858
g11
(lp1859
sg13
S'android.security.keystore.AndroidKeyStoreUnauthenticatedAESCipherSpi$ECB$PKCS7Padding'
p1860
sg15
(lp1861
sg17
(lp1862
sg19
(lp1863
sg21
I0
sba(iArchitecture
Entity
p1864
(dp1865
g11
(lp1866
sg13
S'android.security.keystore.KeymasterUtils'
p1867
sg15
(lp1868
sg17
(lp1869
sg19
(lp1870
sg21
I0
sbasg22
(lp1871
g1517
ag1524
ag1531
ag1538
ag1545
ag1552
ag1559
ag1566
ag1573
ag1580
ag1587
ag1594
ag1601
ag1608
ag1615
ag1622
ag1629
ag1636
ag1643
ag1650
ag1657
ag1664
ag1671
ag1678
ag1685
ag1692
ag1699
ag1706
ag1713
ag1720
ag1727
ag1734
ag1741
ag1748
ag1755
ag1762
ag1769
ag1776
ag1783
ag1790
ag1797
ag1804
ag1811
ag1818
ag1825
ag1832
ag1839
ag1846
ag1853
ag1860
ag1867
asg21
I0
sg24
S'1327'
p1872
sba(iArchitecture
Cluster
p1873
(dp1874
g7
(lp1875
(iArchitecture
Entity
p1876
(dp1877
g11
(lp1878
sg13
S'android.security.FrameworkNetworkSecurityPolicy'
p1879
sg15
(lp1880
sg17
(lp1881
sg19
(lp1882
sg21
I0
sba(iArchitecture
Entity
p1883
(dp1884
g11
(lp1885
sg13
S'android.security.KeyChainAliasCallback'
p1886
sg15
(lp1887
sg17
(lp1888
sg19
(lp1889
sg21
I0
sba(iArchitecture
Entity
p1890
(dp1891
g11
(lp1892
sg13
S'android.security.KeyStoreException'
p1893
sg15
(lp1894
sg17
(lp1895
sg19
(lp1896
sg21
I0
sba(iArchitecture
Entity
p1897
(dp1898
g11
(lp1899
sg13
S'android.security.keystore.AndroidKeyStoreECPrivateKey'
p1900
sg15
(lp1901
sg17
(lp1902
sg19
(lp1903
sg21
I0
sba(iArchitecture
Entity
p1904
(dp1905
g11
(lp1906
sg13
S'android.security.keystore.AndroidKeyStoreECPublicKey'
p1907
sg15
(lp1908
sg17
(lp1909
sg19
(lp1910
sg21
I0
sba(iArchitecture
Entity
p1911
(dp1912
g11
(lp1913
sg13
S'android.security.keystore.AndroidKeyStoreLoadStoreParameter'
p1914
sg15
(lp1915
sg17
(lp1916
sg19
(lp1917
sg21
I0
sba(iArchitecture
Entity
p1918
(dp1919
g11
(lp1920
sg13
S'android.security.keystore.AndroidKeyStorePrivateKey'
p1921
sg15
(lp1922
sg17
(lp1923
sg19
(lp1924
sg21
I0
sba(iArchitecture
Entity
p1925
(dp1926
g11
(lp1927
sg13
S'android.security.keystore.AndroidKeyStorePublicKey'
p1928
sg15
(lp1929
sg17
(lp1930
sg19
(lp1931
sg21
I0
sba(iArchitecture
Entity
p1932
(dp1933
g11
(lp1934
sg13
S'android.security.keystore.AndroidKeyStoreRSAPrivateKey'
p1935
sg15
(lp1936
sg17
(lp1937
sg19
(lp1938
sg21
I0
sba(iArchitecture
Entity
p1939
(dp1940
g11
(lp1941
sg13
S'android.security.keystore.AndroidKeyStoreRSAPublicKey'
p1942
sg15
(lp1943
sg17
(lp1944
sg19
(lp1945
sg21
I0
sba(iArchitecture
Entity
p1946
(dp1947
g11
(lp1948
sg13
S'android.security.keystore.AndroidKeyStoreSecretKey'
p1949
sg15
(lp1950
sg17
(lp1951
sg19
(lp1952
sg21
I0
sba(iArchitecture
Entity
p1953
(dp1954
g11
(lp1955
sg13
S'android.security.keystore.KeyExpiredException'
p1956
sg15
(lp1957
sg17
(lp1958
sg19
(lp1959
sg21
I0
sba(iArchitecture
Entity
p1960
(dp1961
g11
(lp1962
sg13
S'android.security.keystore.KeyNotYetValidException'
p1963
sg15
(lp1964
sg17
(lp1965
sg19
(lp1966
sg21
I0
sba(iArchitecture
Entity
p1967
(dp1968
g11
(lp1969
sg13
S'android.security.keystore.KeyStoreConnectException'
p1970
sg15
(lp1971
sg17
(lp1972
sg19
(lp1973
sg21
I0
sba(iArchitecture
Entity
p1974
(dp1975
g11
(lp1976
sg13
S'android.security.keystore.KeyStoreCryptoOperation'
p1977
sg15
(lp1978
sg17
(lp1979
sg19
(lp1980
sg21
I0
sba(iArchitecture
Entity
p1981
(dp1982
g11
(lp1983
sg13
S'android.security.keystore.KeyStoreCryptoOperationStreamer'
p1984
sg15
(lp1985
sg17
(lp1986
sg19
(lp1987
sg21
I0
sba(iArchitecture
Entity
p1988
(dp1989
g11
(lp1990
sg13
S'android.security.keystore.UserNotAuthenticatedException'
p1991
sg15
(lp1992
sg17
(lp1993
sg19
(lp1994
sg21
I0
sba(iArchitecture
Entity
p1995
(dp1996
g11
(lp1997
sg13
S'android.security.keystore.Utils'
p1998
sg15
(lp1999
sg17
(lp2000
sg19
(lp2001
sg21
I0
sba(iArchitecture
Entity
p2002
(dp2003
g11
(lp2004
sg13
S'android.security.net.config.CertificateSource'
p2005
sg15
(lp2006
sg17
(lp2007
sg19
(lp2008
sg21
I0
sba(iArchitecture
Entity
p2009
(dp2010
g11
(lp2011
sg13
S'android.security.net.config.ConfigSource'
p2012
sg15
(lp2013
sg17
(lp2014
sg19
(lp2015
sg21
I0
sba(iArchitecture
Entity
p2016
(dp2017
g11
(lp2018
sg13
S'android.security.net.config.SystemCertificateSource'
p2019
sg15
(lp2020
sg17
(lp2021
sg19
(lp2022
sg21
I0
sba(iArchitecture
Entity
p2023
(dp2024
g11
(lp2025
sg13
S'android.security.net.config.SystemCertificateSource$NoPreloadHolder'
p2026
sg15
(lp2027
sg17
(lp2028
sg19
(lp2029
sg21
I0
sba(iArchitecture
Entity
p2030
(dp2031
g11
(lp2032
sg13
S'android.security.net.config.TrustAnchor'
p2033
sg15
(lp2034
sg17
(lp2035
sg19
(lp2036
sg21
I0
sba(iArchitecture
Entity
p2037
(dp2038
g11
(lp2039
sg13
S'android.security.net.config.UserCertificateSource'
p2040
sg15
(lp2041
sg17
(lp2042
sg19
(lp2043
sg21
I0
sba(iArchitecture
Entity
p2044
(dp2045
g11
(lp2046
sg13
S'android.security.net.config.UserCertificateSource$NoPreloadHolder'
p2047
sg15
(lp2048
sg17
(lp2049
sg19
(lp2050
sg21
I0
sbasg22
(lp2051
g1879
ag1886
ag1893
ag1900
ag1907
ag1914
ag1921
ag1928
ag1935
ag1942
ag1949
ag1956
ag1963
ag1970
ag1977
ag1984
ag1991
ag1998
ag2005
ag2012
ag2019
ag2026
ag2033
ag2040
ag2047
asg21
I0
sg24
S'1330'
p2052
sba(iArchitecture
Cluster
p2053
(dp2054
g7
(lp2055
(iArchitecture
Entity
p2056
(dp2057
g11
(lp2058
sg13
S'android.security.keymaster.ExportResult'
p2059
sg15
(lp2060
sg17
(lp2061
sg19
(lp2062
sg21
I0
sba(iArchitecture
Entity
p2063
(dp2064
g11
(lp2065
sg13
S'android.security.keymaster.ExportResult$1'
p2066
sg15
(lp2067
sg17
(lp2068
sg19
(lp2069
sg21
I0
sba(iArchitecture
Entity
p2070
(dp2071
g11
(lp2072
sg13
S'android.security.keystore.AndroidKeyStoreKey'
p2073
sg15
(lp2074
sg17
(lp2075
sg19
(lp2076
sg21
I0
sba(iArchitecture
Entity
p2077
(dp2078
g11
(lp2079
sg13
S'android.security.net.config.PinSet'
p2080
sg15
(lp2081
sg17
(lp2082
sg19
(lp2083
sg21
I0
sbasg22
(lp2084
g2059
ag2066
ag2073
ag2080
asg21
I0
sg24
S'1331'
p2085
sba(iArchitecture
Cluster
p2086
(dp2087
g7
(lp2088
(iArchitecture
Entity
p2089
(dp2090
g11
(lp2091
sg13
S'android.security.keymaster.KeymasterBlob'
p2092
sg15
(lp2093
sg17
(lp2094
sg19
(lp2095
sg21
I0
sba(iArchitecture
Entity
p2096
(dp2097
g11
(lp2098
sg13
S'android.security.keymaster.KeymasterBlob$1'
p2099
sg15
(lp2100
sg17
(lp2101
sg19
(lp2102
sg21
I0
sba(iArchitecture
Entity
p2103
(dp2104
g11
(lp2105
sg13
S'android.security.keymaster.KeymasterCertificateChain'
p2106
sg15
(lp2107
sg17
(lp2108
sg19
(lp2109
sg21
I0
sba(iArchitecture
Entity
p2110
(dp2111
g11
(lp2112
sg13
S'android.security.keymaster.KeymasterCertificateChain$1'
p2113
sg15
(lp2114
sg17
(lp2115
sg19
(lp2116
sg21
I0
sba(iArchitecture
Entity
p2117
(dp2118
g11
(lp2119
sg13
S'android.security.net.config.KeyStoreConfigSource'
p2120
sg15
(lp2121
sg17
(lp2122
sg19
(lp2123
sg21
I0
sbasg22
(lp2124
g2092
ag2099
ag2106
ag2113
ag2120
asg21
I0
sg24
S'1351'
p2125
sba(iArchitecture
Cluster
p2126
(dp2127
g7
(lp2128
(iArchitecture
Entity
p2129
(dp2130
g11
(lp2131
sg13
S'android.security.GateKeeper'
p2132
sg15
(lp2133
sg17
(lp2134
sg19
(lp2135
sg21
I0
sba(iArchitecture
Entity
p2136
(dp2137
g11
(lp2138
sg13
S'android.security.KeystoreArguments'
p2139
sg15
(lp2140
sg17
(lp2141
sg19
(lp2142
sg21
I0
sba(iArchitecture
Entity
p2143
(dp2144
g11
(lp2145
sg13
S'android.security.KeystoreArguments$1'
p2146
sg15
(lp2147
sg17
(lp2148
sg19
(lp2149
sg21
I0
sba(iArchitecture
Entity
p2150
(dp2151
g11
(lp2152
sg13
S'android.security.keymaster.KeymasterBlobArgument'
p2153
sg15
(lp2154
sg17
(lp2155
sg19
(lp2156
sg21
I0
sba(iArchitecture
Entity
p2157
(dp2158
g11
(lp2159
sg13
S'android.security.keymaster.KeymasterBooleanArgument'
p2160
sg15
(lp2161
sg17
(lp2162
sg19
(lp2163
sg21
I0
sba(iArchitecture
Entity
p2164
(dp2165
g11
(lp2166
sg13
S'android.security.keymaster.KeymasterDateArgument'
p2167
sg15
(lp2168
sg17
(lp2169
sg19
(lp2170
sg21
I0
sba(iArchitecture
Entity
p2171
(dp2172
g11
(lp2173
sg13
S'android.security.keymaster.KeymasterIntArgument'
p2174
sg15
(lp2175
sg17
(lp2176
sg19
(lp2177
sg21
I0
sba(iArchitecture
Entity
p2178
(dp2179
g11
(lp2180
sg13
S'android.security.keymaster.KeymasterLongArgument'
p2181
sg15
(lp2182
sg17
(lp2183
sg19
(lp2184
sg21
I0
sba(iArchitecture
Entity
p2185
(dp2186
g11
(lp2187
sg13
S'android.security.keymaster.OperationResult'
p2188
sg15
(lp2189
sg17
(lp2190
sg19
(lp2191
sg21
I0
sba(iArchitecture
Entity
p2192
(dp2193
g11
(lp2194
sg13
S'android.security.keymaster.OperationResult$1'
p2195
sg15
(lp2196
sg17
(lp2197
sg19
(lp2198
sg21
I0
sba(iArchitecture
Entity
p2199
(dp2200
g11
(lp2201
sg13
S'android.security.net.config.ConfigNetworkSecurityPolicy'
p2202
sg15
(lp2203
sg17
(lp2204
sg19
(lp2205
sg21
I0
sbasg22
(lp2206
g2132
ag2139
ag2146
ag2153
ag2160
ag2167
ag2174
ag2181
ag2188
ag2195
ag2202
asg21
I0
sg24
S'1384'
p2207
sba(iArchitecture
Cluster
p2208
(dp2209
g7
(lp2210
(iArchitecture
Entity
p2211
(dp2212
g11
(lp2213
sg13
S'android.security.KeyPairGeneratorSpec'
p2214
sg15
(lp2215
sg17
(lp2216
sg19
(lp2217
sg21
I0
sba(iArchitecture
Entity
p2218
(dp2219
g11
(lp2220
sg13
S'android.security.KeyPairGeneratorSpec$Builder'
p2221
sg15
(lp2222
sg17
(lp2223
sg19
(lp2224
sg21
I0
sba(iArchitecture
Entity
p2225
(dp2226
g11
(lp2227
sg13
S'android.security.KeyStoreParameter'
p2228
sg15
(lp2229
sg17
(lp2230
sg19
(lp2231
sg21
I0
sba(iArchitecture
Entity
p2232
(dp2233
g11
(lp2234
sg13
S'android.security.KeyStoreParameter$Builder'
p2235
sg15
(lp2236
sg17
(lp2237
sg19
(lp2238
sg21
I0
sba(iArchitecture
Entity
p2239
(dp2240
g11
(lp2241
sg13
S'android.security.keystore.KeyGenParameterSpec'
p2242
sg15
(lp2243
sg17
(lp2244
sg19
(lp2245
sg21
I0
sba(iArchitecture
Entity
p2246
(dp2247
g11
(lp2248
sg13
S'android.security.keystore.KeyGenParameterSpec$Builder'
p2249
sg15
(lp2250
sg17
(lp2251
sg19
(lp2252
sg21
I0
sba(iArchitecture
Entity
p2253
(dp2254
g11
(lp2255
sg13
S'android.security.keystore.KeyInfo'
p2256
sg15
(lp2257
sg17
(lp2258
sg19
(lp2259
sg21
I0
sba(iArchitecture
Entity
p2260
(dp2261
g11
(lp2262
sg13
S'android.security.keystore.KeyProtection'
p2263
sg15
(lp2264
sg17
(lp2265
sg19
(lp2266
sg21
I0
sba(iArchitecture
Entity
p2267
(dp2268
g11
(lp2269
sg13
S'android.security.keystore.KeyProtection$Builder'
p2270
sg15
(lp2271
sg17
(lp2272
sg19
(lp2273
sg21
I0
sbasg22
(lp2274
g2214
ag2221
ag2228
ag2235
ag2242
ag2249
ag2256
ag2263
ag2270
asg21
I0
sg24
S'1390'
p2275
sba(iArchitecture
Cluster
p2276
(dp2277
g7
(lp2278
(iArchitecture
Entity
p2279
(dp2280
g11
(lp2281
sg13
S'android.security.KeyChainException'
p2282
sg15
(lp2283
sg17
(lp2284
sg19
(lp2285
sg21
I0
sbasg22
(lp2286
g2282
asg21
I0
sg24
S'1407'
p2287
sba(iArchitecture
Cluster
p2288
(dp2289
g7
(lp2290
(iArchitecture
Entity
p2291
(dp2292
g11
(lp2293
sg13
S'android.security.SystemKeyStore'
p2294
sg15
(lp2295
sg17
(lp2296
sg19
(lp2297
sg21
I0
sbasg22
(lp2298
g2294
asg21
I0
sg24
S'1416'
p2299
sba(iArchitecture
Cluster
p2300
(dp2301
g7
(lp2302
(iArchitecture
Entity
p2303
(dp2304
g11
(lp2305
sg13
S'android.security.keystore.AndroidKeyStoreProvider'
p2306
sg15
(lp2307
sg17
(lp2308
sg19
(lp2309
sg21
I0
sbasg22
(lp2310
g2306
asg21
I0
sg24
S'144'
p2311
sba(iArchitecture
Cluster
p2312
(dp2313
g7
(lp2314
(iArchitecture
Entity
p2315
(dp2316
g11
(lp2317
sg13
S'android.security.NetworkSecurityPolicy'
p2318
sg15
(lp2319
sg17
(lp2320
sg19
(lp2321
sg21
I0
sbasg22
(lp2322
g2318
asg21
I0
sg24
S'155'
p2323
sba(iArchitecture
Cluster
p2324
(dp2325
g7
(lp2326
(iArchitecture
Entity
p2327
(dp2328
g11
(lp2329
sg13
S'android.security.Credentials'
p2330
sg15
(lp2331
sg17
(lp2332
sg19
(lp2333
sg21
I0
sbasg22
(lp2334
g2330
asg21
I0
sg24
S'241'
p2335
sba(iArchitecture
Cluster
p2336
(dp2337
g7
(lp2338
(iArchitecture
Entity
p2339
(dp2340
g11
(lp2341
sg13
S'android.security.net.config.ApplicationConfig'
p2342
sg15
(lp2343
sg17
(lp2344
sg19
(lp2345
sg21
I0
sbasg22
(lp2346
g2342
asg21
I0
sg24
S'259'
p2347
sba(iArchitecture
Cluster
p2348
(dp2349
g7
(lp2350
(iArchitecture
Entity
p2351
(dp2352
g11
(lp2353
sg13
S'android.security.keystore.DelegatingX509Certificate'
p2354
sg15
(lp2355
sg17
(lp2356
sg19
(lp2357
sg21
I0
sbasg22
(lp2358
g2354
asg21
I0
sg24
S'312'
p2359
sba(iArchitecture
Cluster
p2360
(dp2361
g7
(lp2362
(iArchitecture
Entity
p2363
(dp2364
g11
(lp2365
sg13
S'android.security.keymaster.KeymasterDefs'
p2366
sg15
(lp2367
sg17
(lp2368
sg19
(lp2369
sg21
I0
sbasg22
(lp2370
g2366
asg21
I0
sg24
S'322'
p2371
sba(iArchitecture
Cluster
p2372
(dp2373
g7
(lp2374
(iArchitecture
Entity
p2375
(dp2376
g11
(lp2377
sg13
S'android.security.keystore.ArrayUtils'
p2378
sg15
(lp2379
sg17
(lp2380
sg19
(lp2381
sg21
I0
sbasg22
(lp2382
g2378
asg21
I0
sg24
S'372'
p2383
sba(iArchitecture
Cluster
p2384
(dp2385
g7
(lp2386
(iArchitecture
Entity
p2387
(dp2388
g11
(lp2389
sg13
S'android.security.keystore.AndroidKeyStoreSecretKeyFactorySpi'
p2390
sg15
(lp2391
sg17
(lp2392
sg19
(lp2393
sg21
I0
sbasg22
(lp2394
g2390
asg21
I0
sg24
S'407'
p2395
sba(iArchitecture
Cluster
p2396
(dp2397
g7
(lp2398
(iArchitecture
Entity
p2399
(dp2400
g11
(lp2401
sg13
S'android.security.net.config.Pin'
p2402
sg15
(lp2403
sg17
(lp2404
sg19
(lp2405
sg21
I0
sbasg22
(lp2406
g2402
asg21
I0
sg24
S'448'
p2407
sba(iArchitecture
Cluster
p2408
(dp2409
g7
(lp2410
(iArchitecture
Entity
p2411
(dp2412
g11
(lp2413
sg13
S'android.security.net.config.Domain'
p2414
sg15
(lp2415
sg17
(lp2416
sg19
(lp2417
sg21
I0
sbasg22
(lp2418
g2414
asg21
I0
sg24
S'460'
p2419
sba(iArchitecture
Cluster
p2420
(dp2421
g7
(lp2422
(iArchitecture
Entity
p2423
(dp2424
g11
(lp2425
sg13
S'android.security.keystore.KeyPermanentlyInvalidatedException'
p2426
sg15
(lp2427
sg17
(lp2428
sg19
(lp2429
sg21
I0
sbasg22
(lp2430
g2426
asg21
I0
sg24
S'466'
p2431
sba(iArchitecture
Cluster
p2432
(dp2433
g7
(lp2434
(iArchitecture
Entity
p2435
(dp2436
g11
(lp2437
sg13
S'android.security.keystore.AndroidKeyStoreKeyFactorySpi'
p2438
sg15
(lp2439
sg17
(lp2440
sg19
(lp2441
sg21
I0
sbasg22
(lp2442
g2438
asg21
I0
sg24
S'482'
p2443
sba(iArchitecture
Cluster
p2444
(dp2445
g7
(lp2446
(iArchitecture
Entity
p2447
(dp2448
g11
(lp2449
sg13
S'android.security.keymaster.KeymasterArguments'
p2450
sg15
(lp2451
sg17
(lp2452
sg19
(lp2453
sg21
I0
sba(iArchitecture
Entity
p2454
(dp2455
g11
(lp2456
sg13
S'android.security.keymaster.KeymasterArguments$1'
p2457
sg15
(lp2458
sg17
(lp2459
sg19
(lp2460
sg21
I0
sbasg22
(lp2461
g2450
ag2457
asg21
I0
sg24
S'514'
p2462
sba(iArchitecture
Cluster
p2463
(dp2464
g7
(lp2465
(iArchitecture
Entity
p2466
(dp2467
g11
(lp2468
sg13
S'android.security.net.config.XmlConfigSource'
p2469
sg15
(lp2470
sg17
(lp2471
sg19
(lp2472
sg21
I0
sba(iArchitecture
Entity
p2473
(dp2474
g11
(lp2475
sg13
S'android.security.net.config.XmlConfigSource$ParserException'
p2476
sg15
(lp2477
sg17
(lp2478
sg19
(lp2479
sg21
I0
sbasg22
(lp2480
g2469
ag2476
asg21
I0
sg24
S'594'
p2481
sba(iArchitecture
Cluster
p2482
(dp2483
g7
(lp2484
(iArchitecture
Entity
p2485
(dp2486
g11
(lp2487
sg13
S'android.security.net.config.ManifestConfigSource'
p2488
sg15
(lp2489
sg17
(lp2490
sg19
(lp2491
sg21
I0
sba(iArchitecture
Entity
p2492
(dp2493
g11
(lp2494
sg13
S'android.security.net.config.ManifestConfigSource$DefaultConfigSource'
p2495
sg15
(lp2496
sg17
(lp2497
sg19
(lp2498
sg21
I0
sbasg22
(lp2499
g2488
ag2495
asg21
I0
sg24
S'607'
p2500
sba(iArchitecture
Cluster
p2501
(dp2502
g7
(lp2503
(iArchitecture
Entity
p2504
(dp2505
g11
(lp2506
sg13
S'android.security.keymaster.KeyCharacteristics'
p2507
sg15
(lp2508
sg17
(lp2509
sg19
(lp2510
sg21
I0
sba(iArchitecture
Entity
p2511
(dp2512
g11
(lp2513
sg13
S'android.security.keymaster.KeyCharacteristics$1'
p2514
sg15
(lp2515
sg17
(lp2516
sg19
(lp2517
sg21
I0
sbasg22
(lp2518
g2507
ag2514
asg21
I0
sg24
S'642'
p2519
sba(iArchitecture
Cluster
p2520
(dp2521
g7
(lp2522
(iArchitecture
Entity
p2523
(dp2524
g11
(lp2525
sg13
S'android.security.KeyStore'
p2526
sg15
(lp2527
sg17
(lp2528
sg19
(lp2529
sg21
I0
sba(iArchitecture
Entity
p2530
(dp2531
g11
(lp2532
sg13
S'android.security.KeyStore$State'
p2533
sg15
(lp2534
sg17
(lp2535
sg19
(lp2536
sg21
I0
sbasg22
(lp2537
g2526
ag2533
asg21
I0
sg24
S'660'
p2538
sba(iArchitecture
Cluster
p2539
(dp2540
g7
(lp2541
(iArchitecture
Entity
p2542
(dp2543
g11
(lp2544
sg13
S'android.security.keystore.AndroidKeyStoreSpi'
p2545
sg15
(lp2546
sg17
(lp2547
sg19
(lp2548
sg21
I0
sba(iArchitecture
Entity
p2549
(dp2550
g11
(lp2551
sg13
S'android.security.keystore.AndroidKeyStoreSpi$KeyStoreX509Certificate'
p2552
sg15
(lp2553
sg17
(lp2554
sg19
(lp2555
sg21
I0
sbasg22
(lp2556
g2545
ag2552
asg21
I0
sg24
S'719'
p2557
sba(iArchitecture
Cluster
p2558
(dp2559
g7
(lp2560
(iArchitecture
Entity
p2561
(dp2562
g11
(lp2563
sg13
S'android.security.keymaster.KeymasterArgument'
p2564
sg15
(lp2565
sg17
(lp2566
sg19
(lp2567
sg21
I0
sba(iArchitecture
Entity
p2568
(dp2569
g11
(lp2570
sg13
S'android.security.keymaster.KeymasterArgument$1'
p2571
sg15
(lp2572
sg17
(lp2573
sg19
(lp2574
sg21
I0
sbasg22
(lp2575
g2564
ag2571
asg21
I0
sg24
S'721'
p2576
sba(iArchitecture
Cluster
p2577
(dp2578
g7
(lp2579
(iArchitecture
Entity
p2580
(dp2581
g11
(lp2582
sg13
S'android.security.net.config.RootTrustManagerFactorySpi'
p2583
sg15
(lp2584
sg17
(lp2585
sg19
(lp2586
sg21
I0
sba(iArchitecture
Entity
p2587
(dp2588
g11
(lp2589
sg13
S'android.security.net.config.RootTrustManagerFactorySpi$ApplicationConfigParameters'
p2590
sg15
(lp2591
sg17
(lp2592
sg19
(lp2593
sg21
I0
sbasg22
(lp2594
g2583
ag2590
asg21
I0
sg24
S'788'
p2595
sba(iArchitecture
Cluster
p2596
(dp2597
g7
(lp2598
(iArchitecture
Entity
p2599
(dp2600
g11
(lp2601
sg13
S'android.security.net.config.NetworkSecurityConfigProvider'
p2602
sg15
(lp2603
sg17
(lp2604
sg19
(lp2605
sg21
I0
sbasg22
(lp2606
g2602
asg21
I0
sg24
S'95'
p2607
sba(iArchitecture
Cluster
p2608
(dp2609
g7
(lp2610
(iArchitecture
Entity
p2611
(dp2612
g11
(lp2613
sg13
S'android.security.keystore.KeyStoreCryptoOperationChunkedStreamer'
p2614
sg15
(lp2615
sg17
(lp2616
sg19
(lp2617
sg21
I0
sba(iArchitecture
Entity
p2618
(dp2619
g11
(lp2620
sg13
S'android.security.keystore.KeyStoreCryptoOperationChunkedStreamer$MainDataStream'
p2621
sg15
(lp2622
sg17
(lp2623
sg19
(lp2624
sg21
I0
sba(iArchitecture
Entity
p2625
(dp2626
g11
(lp2627
sg13
S'android.security.keystore.KeyStoreCryptoOperationChunkedStreamer$Stream'
p2628
sg15
(lp2629
sg17
(lp2630
sg19
(lp2631
sg21
I0
sbasg22
(lp2632
g2614
ag2621
ag2628
asg21
I0
sg24
S'994'
p2633
sbasg1162
g1163
sg22
(lp2634
sg1165
I00
sg24
S'7.0.0_r1'
p2635
sba.