(lp0
(iArchitecture
Architecture
p1
(dp2
S'clusters'
p3
(lp4
(iArchitecture
Cluster
p5
(dp6
S'entities'
p7
(lp8
(iArchitecture
Entity
p9
(dp10
S'issue_ids'
p11
(lp12
sS'name'
p13
S'com.android.server.connectivity.NetworkMonitor'
p14
sS'descs'
p15
(lp16
sS'labels'
p17
(lp18
sS'titles'
p19
(lp20
sS'change'
p21
I0
sba(iArchitecture
Entity
p22
(dp23
g11
(lp24
sg13
S'com.android.server.connectivity.NetworkMonitor$CaptivePortalState'
p25
sg15
(lp26
sg17
(lp27
sg19
(lp28
sg21
I0
sba(iArchitecture
Entity
p29
(dp30
g11
(lp31
sg13
S'com.android.server.connectivity.NetworkMonitor$CustomIntentReceiver'
p32
sg15
(lp33
sg17
(lp34
sg19
(lp35
sg21
I0
sba(iArchitecture
Entity
p36
(dp37
g11
(lp38
sg13
S'com.android.server.connectivity.NetworkMonitor$DefaultState'
p39
sg15
(lp40
sg17
(lp41
sg19
(lp42
sg21
I0
sba(iArchitecture
Entity
p43
(dp44
g11
(lp45
sg13
S'com.android.server.connectivity.NetworkMonitor$EvaluatingState'
p46
sg15
(lp47
sg17
(lp48
sg19
(lp49
sg21
I0
sba(iArchitecture
Entity
p50
(dp51
g11
(lp52
sg13
S'com.android.server.connectivity.NetworkMonitor$LingeringState'
p53
sg15
(lp54
sg17
(lp55
sg19
(lp56
sg21
I0
sba(iArchitecture
Entity
p57
(dp58
g11
(lp59
sg13
S'com.android.server.connectivity.NetworkMonitor$MaybeNotifyState'
p60
sg15
(lp61
sg17
(lp62
sg19
(lp63
sg21
I0
sba(iArchitecture
Entity
p64
(dp65
g11
(lp66
sg13
S'com.android.server.connectivity.NetworkMonitor$MaybeNotifyState$1'
p67
sg15
(lp68
sg17
(lp69
sg19
(lp70
sg21
I0
sba(iArchitecture
Entity
p71
(dp72
g11
(lp73
sg13
S'com.android.server.connectivity.NetworkMonitor$ValidatedState'
p74
sg15
(lp75
sg17
(lp76
sg19
(lp77
sg21
I0
sbasS'classes'
p78
(lp79
g14
ag25
ag32
ag39
ag46
ag53
ag60
ag67
ag74
asg21
I0
sS'label'
p80
S'1050'
p81
sba(iArchitecture
Cluster
p82
(dp83
g7
(lp84
(iArchitecture
Entity
p85
(dp86
g11
(lp87
sg13
S'com.android.server.connectivity.Tethering'
p88
sg15
(lp89
sg17
(lp90
sg19
(lp91
sg21
I0
sba(iArchitecture
Entity
p92
(dp93
g11
(lp94
sg13
S'com.android.server.connectivity.Tethering$StateReceiver'
p95
sg15
(lp96
sg17
(lp97
sg19
(lp98
sg21
I0
sba(iArchitecture
Entity
p99
(dp100
g11
(lp101
sg13
S'com.android.server.connectivity.Tethering$TetherInterfaceSM'
p102
sg15
(lp103
sg17
(lp104
sg19
(lp105
sg21
I0
sba(iArchitecture
Entity
p106
(dp107
g11
(lp108
sg13
S'com.android.server.connectivity.Tethering$TetherInterfaceSM$InitialState'
p109
sg15
(lp110
sg17
(lp111
sg19
(lp112
sg21
I0
sba(iArchitecture
Entity
p113
(dp114
g11
(lp115
sg13
S'com.android.server.connectivity.Tethering$TetherInterfaceSM$StartingState'
p116
sg15
(lp117
sg17
(lp118
sg19
(lp119
sg21
I0
sba(iArchitecture
Entity
p120
(dp121
g11
(lp122
sg13
S'com.android.server.connectivity.Tethering$TetherInterfaceSM$TetheredState'
p123
sg15
(lp124
sg17
(lp125
sg19
(lp126
sg21
I0
sba(iArchitecture
Entity
p127
(dp128
g11
(lp129
sg13
S'com.android.server.connectivity.Tethering$TetherInterfaceSM$UnavailableState'
p130
sg15
(lp131
sg17
(lp132
sg19
(lp133
sg21
I0
sba(iArchitecture
Entity
p134
(dp135
g11
(lp136
sg13
S'com.android.server.connectivity.Tethering$TetherMasterSM'
p137
sg15
(lp138
sg17
(lp139
sg19
(lp140
sg21
I0
sba(iArchitecture
Entity
p141
(dp142
g11
(lp143
sg13
S'com.android.server.connectivity.Tethering$TetherMasterSM$ErrorState'
p144
sg15
(lp145
sg17
(lp146
sg19
(lp147
sg21
I0
sba(iArchitecture
Entity
p148
(dp149
g11
(lp150
sg13
S'com.android.server.connectivity.Tethering$TetherMasterSM$InitialState'
p151
sg15
(lp152
sg17
(lp153
sg19
(lp154
sg21
I0
sba(iArchitecture
Entity
p155
(dp156
g11
(lp157
sg13
S'com.android.server.connectivity.Tethering$TetherMasterSM$SetDnsForwardersErrorState'
p158
sg15
(lp159
sg17
(lp160
sg19
(lp161
sg21
I0
sba(iArchitecture
Entity
p162
(dp163
g11
(lp164
sg13
S'com.android.server.connectivity.Tethering$TetherMasterSM$SetIpForwardingDisabledErrorState'
p165
sg15
(lp166
sg17
(lp167
sg19
(lp168
sg21
I0
sba(iArchitecture
Entity
p169
(dp170
g11
(lp171
sg13
S'com.android.server.connectivity.Tethering$TetherMasterSM$SetIpForwardingEnabledErrorState'
p172
sg15
(lp173
sg17
(lp174
sg19
(lp175
sg21
I0
sba(iArchitecture
Entity
p176
(dp177
g11
(lp178
sg13
S'com.android.server.connectivity.Tethering$TetherMasterSM$SimChangeBroadcastReceiver'
p179
sg15
(lp180
sg17
(lp181
sg19
(lp182
sg21
I0
sba(iArchitecture
Entity
p183
(dp184
g11
(lp185
sg13
S'com.android.server.connectivity.Tethering$TetherMasterSM$StartTetheringErrorState'
p186
sg15
(lp187
sg17
(lp188
sg19
(lp189
sg21
I0
sba(iArchitecture
Entity
p190
(dp191
g11
(lp192
sg13
S'com.android.server.connectivity.Tethering$TetherMasterSM$StopTetheringErrorState'
p193
sg15
(lp194
sg17
(lp195
sg19
(lp196
sg21
I0
sba(iArchitecture
Entity
p197
(dp198
g11
(lp199
sg13
S'com.android.server.connectivity.Tethering$TetherMasterSM$TetherMasterUtilState'
p200
sg15
(lp201
sg17
(lp202
sg19
(lp203
sg21
I0
sba(iArchitecture
Entity
p204
(dp205
g11
(lp206
sg13
S'com.android.server.connectivity.Tethering$TetherMasterSM$TetherModeAliveState'
p207
sg15
(lp208
sg17
(lp209
sg19
(lp210
sg21
I0
sbasg78
(lp211
g88
ag95
ag102
ag109
ag116
ag123
ag130
ag137
ag144
ag151
ag158
ag165
ag172
ag179
ag186
ag193
ag200
ag207
asg21
I0
sg80
S'1089'
p212
sba(iArchitecture
Cluster
p213
(dp214
g7
(lp215
(iArchitecture
Entity
p216
(dp217
g11
(lp218
sg13
S'com.android.server.connectivity.PacManager'
p219
sg15
(lp220
sg17
(lp221
sg19
(lp222
sg21
I0
sba(iArchitecture
Entity
p223
(dp224
g11
(lp225
sg13
S'com.android.server.connectivity.PacManager$1'
p226
sg15
(lp227
sg17
(lp228
sg19
(lp229
sg21
I0
sba(iArchitecture
Entity
p230
(dp231
g11
(lp232
sg13
S'com.android.server.connectivity.PacManager$2'
p233
sg15
(lp234
sg17
(lp235
sg19
(lp236
sg21
I0
sba(iArchitecture
Entity
p237
(dp238
g11
(lp239
sg13
S'com.android.server.connectivity.PacManager$3'
p240
sg15
(lp241
sg17
(lp242
sg19
(lp243
sg21
I0
sba(iArchitecture
Entity
p244
(dp245
g11
(lp246
sg13
S'com.android.server.connectivity.PacManager$3$1'
p247
sg15
(lp248
sg17
(lp249
sg19
(lp250
sg21
I0
sba(iArchitecture
Entity
p251
(dp252
g11
(lp253
sg13
S'com.android.server.connectivity.PacManager$PacRefreshIntentReceiver'
p254
sg15
(lp255
sg17
(lp256
sg19
(lp257
sg21
I0
sbasg78
(lp258
g219
ag226
ag233
ag240
ag247
ag254
asg21
I0
sg80
S'1181'
p259
sba(iArchitecture
Cluster
p260
(dp261
g7
(lp262
(iArchitecture
Entity
p263
(dp264
g11
(lp265
sg13
S'com.android.server.connectivity.PermissionMonitor'
p266
sg15
(lp267
sg17
(lp268
sg19
(lp269
sg21
I0
sba(iArchitecture
Entity
p270
(dp271
g11
(lp272
sg13
S'com.android.server.connectivity.PermissionMonitor$1'
p273
sg15
(lp274
sg17
(lp275
sg19
(lp276
sg21
I0
sbasg78
(lp277
g266
ag273
asg21
I0
sg80
S'1190'
p278
sba(iArchitecture
Cluster
p279
(dp280
g7
(lp281
(iArchitecture
Entity
p282
(dp283
g11
(lp284
sg13
S'com.android.server.connectivity.NetworkDiagnostics'
p285
sg15
(lp286
sg17
(lp287
sg19
(lp288
sg21
I0
sba(iArchitecture
Entity
p289
(dp290
g11
(lp291
sg13
S'com.android.server.connectivity.NetworkDiagnostics$DnsResponseCode'
p292
sg15
(lp293
sg17
(lp294
sg19
(lp295
sg21
I0
sba(iArchitecture
Entity
p296
(dp297
g11
(lp298
sg13
S'com.android.server.connectivity.NetworkDiagnostics$DnsUdpCheck'
p299
sg15
(lp300
sg17
(lp301
sg19
(lp302
sg21
I0
sba(iArchitecture
Entity
p303
(dp304
g11
(lp305
sg13
S'com.android.server.connectivity.NetworkDiagnostics$IcmpCheck'
p306
sg15
(lp307
sg17
(lp308
sg19
(lp309
sg21
I0
sba(iArchitecture
Entity
p310
(dp311
g11
(lp312
sg13
S'com.android.server.connectivity.NetworkDiagnostics$Measurement'
p313
sg15
(lp314
sg17
(lp315
sg19
(lp316
sg21
I0
sba(iArchitecture
Entity
p317
(dp318
g11
(lp319
sg13
S'com.android.server.connectivity.NetworkDiagnostics$SimpleSocketCheck'
p320
sg15
(lp321
sg17
(lp322
sg19
(lp323
sg21
I0
sbasg78
(lp324
g285
ag292
ag299
ag306
ag313
ag320
asg21
I0
sg80
S'1219'
p325
sba(iArchitecture
Cluster
p326
(dp327
g7
(lp328
(iArchitecture
Entity
p329
(dp330
g11
(lp331
sg13
S'com.android.server.connectivity.DataConnectionStats'
p332
sg15
(lp333
sg17
(lp334
sg19
(lp335
sg21
I0
sba(iArchitecture
Entity
p336
(dp337
g11
(lp338
sg13
S'com.android.server.connectivity.DataConnectionStats$1'
p339
sg15
(lp340
sg17
(lp341
sg19
(lp342
sg21
I0
sba(iArchitecture
Entity
p343
(dp344
g11
(lp345
sg13
S'com.android.server.connectivity.NetworkAgentInfo'
p346
sg15
(lp347
sg17
(lp348
sg19
(lp349
sg21
I0
sbasg78
(lp350
g332
ag339
ag346
asg21
I0
sg80
S'1246'
p351
sba(iArchitecture
Cluster
p352
(dp353
g7
(lp354
(iArchitecture
Entity
p355
(dp356
g11
(lp357
sg13
S'com.android.server.connectivity.Nat464Xlat'
p358
sg15
(lp359
sg17
(lp360
sg19
(lp361
sg21
I0
sbasg78
(lp362
g358
asg21
I0
sg80
S'172'
p363
sbasS'target_sub'
p364
S'com.android.server.connectivity'
p365
sg78
(lp366
sS'is_component_arch'
p367
I00
sg80
S'6.0.0_r1'
p368
sba(iArchitecture
Architecture
p369
(dp370
g3
(lp371
(iArchitecture
Cluster
p372
(dp373
g7
(lp374
(iArchitecture
Entity
p375
(dp376
g11
(lp377
sg13
S'com.android.server.connectivity.NetworkMonitor'
p378
sg15
(lp379
sg17
(lp380
sg19
(lp381
sg21
I0
sba(iArchitecture
Entity
p382
(dp383
g11
(lp384
sg13
S'com.android.server.connectivity.NetworkMonitor$1ProbeThread'
p385
sg15
(lp386
sg17
(lp387
sg19
(lp388
sg21
I0
sba(iArchitecture
Entity
p389
(dp390
g11
(lp391
sg13
S'com.android.server.connectivity.NetworkMonitor$CaptivePortalProbeResult'
p392
sg15
(lp393
sg17
(lp394
sg19
(lp395
sg21
I0
sba(iArchitecture
Entity
p396
(dp397
g11
(lp398
sg13
S'com.android.server.connectivity.NetworkMonitor$CaptivePortalState'
p399
sg15
(lp400
sg17
(lp401
sg19
(lp402
sg21
I0
sba(iArchitecture
Entity
p403
(dp404
g11
(lp405
sg13
S'com.android.server.connectivity.NetworkMonitor$CustomIntentReceiver'
p406
sg15
(lp407
sg17
(lp408
sg19
(lp409
sg21
I0
sba(iArchitecture
Entity
p410
(dp411
g11
(lp412
sg13
S'com.android.server.connectivity.NetworkMonitor$DefaultState'
p413
sg15
(lp414
sg17
(lp415
sg19
(lp416
sg21
I0
sba(iArchitecture
Entity
p417
(dp418
g11
(lp419
sg13
S'com.android.server.connectivity.NetworkMonitor$EvaluatingState'
p420
sg15
(lp421
sg17
(lp422
sg19
(lp423
sg21
I0
sba(iArchitecture
Entity
p424
(dp425
g11
(lp426
sg13
S'com.android.server.connectivity.NetworkMonitor$LingeringState'
p427
sg15
(lp428
sg17
(lp429
sg19
(lp430
sg21
I0
sba(iArchitecture
Entity
p431
(dp432
g11
(lp433
sg13
S'com.android.server.connectivity.NetworkMonitor$MaybeNotifyState'
p434
sg15
(lp435
sg17
(lp436
sg19
(lp437
sg21
I0
sba(iArchitecture
Entity
p438
(dp439
g11
(lp440
sg13
S'com.android.server.connectivity.NetworkMonitor$MaybeNotifyState$1'
p441
sg15
(lp442
sg17
(lp443
sg19
(lp444
sg21
I0
sba(iArchitecture
Entity
p445
(dp446
g11
(lp447
sg13
S'com.android.server.connectivity.NetworkMonitor$ValidatedState'
p448
sg15
(lp449
sg17
(lp450
sg19
(lp451
sg21
I0
sbasg78
(lp452
g378
ag385
ag392
ag399
ag406
ag413
ag420
ag427
ag434
ag441
ag448
asg21
I0
sg80
S'1199'
p453
sba(iArchitecture
Cluster
p454
(dp455
g7
(lp456
(iArchitecture
Entity
p457
(dp458
g11
(lp459
sg13
S'com.android.server.connectivity.Tethering'
p460
sg15
(lp461
sg17
(lp462
sg19
(lp463
sg21
I0
sba(iArchitecture
Entity
p464
(dp465
g11
(lp466
sg13
S'com.android.server.connectivity.Tethering$1'
p467
sg15
(lp468
sg17
(lp469
sg19
(lp470
sg21
I0
sba(iArchitecture
Entity
p471
(dp472
g11
(lp473
sg13
S'com.android.server.connectivity.Tethering$2'
p474
sg15
(lp475
sg17
(lp476
sg19
(lp477
sg21
I0
sba(iArchitecture
Entity
p478
(dp479
g11
(lp480
sg13
S'com.android.server.connectivity.Tethering$StateReceiver'
p481
sg15
(lp482
sg17
(lp483
sg19
(lp484
sg21
I0
sba(iArchitecture
Entity
p485
(dp486
g11
(lp487
sg13
S'com.android.server.connectivity.Tethering$TetherInterfaceSM'
p488
sg15
(lp489
sg17
(lp490
sg19
(lp491
sg21
I0
sba(iArchitecture
Entity
p492
(dp493
g11
(lp494
sg13
S'com.android.server.connectivity.Tethering$TetherInterfaceSM$InitialState'
p495
sg15
(lp496
sg17
(lp497
sg19
(lp498
sg21
I0
sba(iArchitecture
Entity
p499
(dp500
g11
(lp501
sg13
S'com.android.server.connectivity.Tethering$TetherInterfaceSM$StartingState'
p502
sg15
(lp503
sg17
(lp504
sg19
(lp505
sg21
I0
sba(iArchitecture
Entity
p506
(dp507
g11
(lp508
sg13
S'com.android.server.connectivity.Tethering$TetherInterfaceSM$TetheredState'
p509
sg15
(lp510
sg17
(lp511
sg19
(lp512
sg21
I0
sba(iArchitecture
Entity
p513
(dp514
g11
(lp515
sg13
S'com.android.server.connectivity.Tethering$TetherInterfaceSM$UnavailableState'
p516
sg15
(lp517
sg17
(lp518
sg19
(lp519
sg21
I0
sba(iArchitecture
Entity
p520
(dp521
g11
(lp522
sg13
S'com.android.server.connectivity.Tethering$TetherMasterSM'
p523
sg15
(lp524
sg17
(lp525
sg19
(lp526
sg21
I0
sba(iArchitecture
Entity
p527
(dp528
g11
(lp529
sg13
S'com.android.server.connectivity.Tethering$TetherMasterSM$ErrorState'
p530
sg15
(lp531
sg17
(lp532
sg19
(lp533
sg21
I0
sba(iArchitecture
Entity
p534
(dp535
g11
(lp536
sg13
S'com.android.server.connectivity.Tethering$TetherMasterSM$InitialState'
p537
sg15
(lp538
sg17
(lp539
sg19
(lp540
sg21
I0
sba(iArchitecture
Entity
p541
(dp542
g11
(lp543
sg13
S'com.android.server.connectivity.Tethering$TetherMasterSM$SetDnsForwardersErrorState'
p544
sg15
(lp545
sg17
(lp546
sg19
(lp547
sg21
I0
sba(iArchitecture
Entity
p548
(dp549
g11
(lp550
sg13
S'com.android.server.connectivity.Tethering$TetherMasterSM$SetIpForwardingDisabledErrorState'
p551
sg15
(lp552
sg17
(lp553
sg19
(lp554
sg21
I0
sba(iArchitecture
Entity
p555
(dp556
g11
(lp557
sg13
S'com.android.server.connectivity.Tethering$TetherMasterSM$SetIpForwardingEnabledErrorState'
p558
sg15
(lp559
sg17
(lp560
sg19
(lp561
sg21
I0
sba(iArchitecture
Entity
p562
(dp563
g11
(lp564
sg13
S'com.android.server.connectivity.Tethering$TetherMasterSM$SimChangeBroadcastReceiver'
p565
sg15
(lp566
sg17
(lp567
sg19
(lp568
sg21
I0
sba(iArchitecture
Entity
p569
(dp570
g11
(lp571
sg13
S'com.android.server.connectivity.Tethering$TetherMasterSM$StartTetheringErrorState'
p572
sg15
(lp573
sg17
(lp574
sg19
(lp575
sg21
I0
sba(iArchitecture
Entity
p576
(dp577
g11
(lp578
sg13
S'com.android.server.connectivity.Tethering$TetherMasterSM$StopTetheringErrorState'
p579
sg15
(lp580
sg17
(lp581
sg19
(lp582
sg21
I0
sba(iArchitecture
Entity
p583
(dp584
g11
(lp585
sg13
S'com.android.server.connectivity.Tethering$TetherMasterSM$TetherMasterUtilState'
p586
sg15
(lp587
sg17
(lp588
sg19
(lp589
sg21
I0
sba(iArchitecture
Entity
p590
(dp591
g11
(lp592
sg13
S'com.android.server.connectivity.Tethering$TetherMasterSM$TetherModeAliveState'
p593
sg15
(lp594
sg17
(lp595
sg19
(lp596
sg21
I0
sba(iArchitecture
Entity
p597
(dp598
g11
(lp599
sg13
S'com.android.server.connectivity.Tethering$UpstreamNetworkCallback'
p600
sg15
(lp601
sg17
(lp602
sg19
(lp603
sg21
I0
sba(iArchitecture
Entity
p604
(dp605
g11
(lp606
sg13
S'com.android.server.connectivity.Tethering$UpstreamNetworkMonitor'
p607
sg15
(lp608
sg17
(lp609
sg19
(lp610
sg21
I0
sbasg78
(lp611
g460
ag467
ag474
ag481
ag488
ag495
ag502
ag509
ag516
ag523
ag530
ag537
ag544
ag551
ag558
ag565
ag572
ag579
ag586
ag593
ag600
ag607
asg21
I0
sg80
S'1223'
p612
sba(iArchitecture
Cluster
p613
(dp614
g7
(lp615
(iArchitecture
Entity
p616
(dp617
g11
(lp618
sg13
S'com.android.server.connectivity.DataConnectionStats'
p619
sg15
(lp620
sg17
(lp621
sg19
(lp622
sg21
I0
sba(iArchitecture
Entity
p623
(dp624
g11
(lp625
sg13
S'com.android.server.connectivity.DataConnectionStats$1'
p626
sg15
(lp627
sg17
(lp628
sg19
(lp629
sg21
I0
sbasg78
(lp630
g619
ag626
asg21
I0
sg80
S'1330'
p631
sba(iArchitecture
Cluster
p632
(dp633
g7
(lp634
(iArchitecture
Entity
p635
(dp636
g11
(lp637
sg13
S'com.android.server.connectivity.PacManager'
p638
sg15
(lp639
sg17
(lp640
sg19
(lp641
sg21
I0
sba(iArchitecture
Entity
p642
(dp643
g11
(lp644
sg13
S'com.android.server.connectivity.PacManager$1'
p645
sg15
(lp646
sg17
(lp647
sg19
(lp648
sg21
I0
sba(iArchitecture
Entity
p649
(dp650
g11
(lp651
sg13
S'com.android.server.connectivity.PacManager$2'
p652
sg15
(lp653
sg17
(lp654
sg19
(lp655
sg21
I0
sba(iArchitecture
Entity
p656
(dp657
g11
(lp658
sg13
S'com.android.server.connectivity.PacManager$3'
p659
sg15
(lp660
sg17
(lp661
sg19
(lp662
sg21
I0
sba(iArchitecture
Entity
p663
(dp664
g11
(lp665
sg13
S'com.android.server.connectivity.PacManager$3$1'
p666
sg15
(lp667
sg17
(lp668
sg19
(lp669
sg21
I0
sba(iArchitecture
Entity
p670
(dp671
g11
(lp672
sg13
S'com.android.server.connectivity.PacManager$PacRefreshIntentReceiver'
p673
sg15
(lp674
sg17
(lp675
sg19
(lp676
sg21
I0
sbasg78
(lp677
g638
ag645
ag652
ag659
ag666
ag673
asg21
I0
sg80
S'1335'
p678
sba(iArchitecture
Cluster
p679
(dp680
g7
(lp681
(iArchitecture
Entity
p682
(dp683
g11
(lp684
sg13
S'com.android.server.connectivity.NetworkAgentInfo'
p685
sg15
(lp686
sg17
(lp687
sg19
(lp688
sg21
I0
sba(iArchitecture
Entity
p689
(dp690
g11
(lp691
sg13
S'com.android.server.connectivity.NetworkDiagnostics'
p692
sg15
(lp693
sg17
(lp694
sg19
(lp695
sg21
I0
sba(iArchitecture
Entity
p696
(dp697
g11
(lp698
sg13
S'com.android.server.connectivity.NetworkDiagnostics$DnsResponseCode'
p699
sg15
(lp700
sg17
(lp701
sg19
(lp702
sg21
I0
sba(iArchitecture
Entity
p703
(dp704
g11
(lp705
sg13
S'com.android.server.connectivity.NetworkDiagnostics$DnsUdpCheck'
p706
sg15
(lp707
sg17
(lp708
sg19
(lp709
sg21
I0
sba(iArchitecture
Entity
p710
(dp711
g11
(lp712
sg13
S'com.android.server.connectivity.NetworkDiagnostics$IcmpCheck'
p713
sg15
(lp714
sg17
(lp715
sg19
(lp716
sg21
I0
sba(iArchitecture
Entity
p717
(dp718
g11
(lp719
sg13
S'com.android.server.connectivity.NetworkDiagnostics$Measurement'
p720
sg15
(lp721
sg17
(lp722
sg19
(lp723
sg21
I0
sba(iArchitecture
Entity
p724
(dp725
g11
(lp726
sg13
S'com.android.server.connectivity.NetworkDiagnostics$SimpleSocketCheck'
p727
sg15
(lp728
sg17
(lp729
sg19
(lp730
sg21
I0
sba(iArchitecture
Entity
p731
(dp732
g11
(lp733
sg13
S'com.android.server.connectivity.PermissionMonitor'
p734
sg15
(lp735
sg17
(lp736
sg19
(lp737
sg21
I0
sba(iArchitecture
Entity
p738
(dp739
g11
(lp740
sg13
S'com.android.server.connectivity.PermissionMonitor$1'
p741
sg15
(lp742
sg17
(lp743
sg19
(lp744
sg21
I0
sbasg78
(lp745
g685
ag692
ag699
ag706
ag713
ag720
ag727
ag734
ag741
asg21
I0
sg80
S'1401'
p746
sba(iArchitecture
Cluster
p747
(dp748
g7
(lp749
(iArchitecture
Entity
p750
(dp751
g11
(lp752
sg13
S'com.android.server.connectivity.Nat464Xlat'
p753
sg15
(lp754
sg17
(lp755
sg19
(lp756
sg21
I0
sbasg78
(lp757
g753
asg21
I0
sg80
S'192'
p758
sba(iArchitecture
Cluster
p759
(dp760
g7
(lp761
(iArchitecture
Entity
p762
(dp763
g11
(lp764
sg13
S'com.android.server.connectivity.KeepalivePacketData'
p765
sg15
(lp766
sg17
(lp767
sg19
(lp768
sg21
I0
sba(iArchitecture
Entity
p769
(dp770
g11
(lp771
sg13
S'com.android.server.connectivity.KeepalivePacketData$InvalidPacketException'
p772
sg15
(lp773
sg17
(lp774
sg19
(lp775
sg21
I0
sbasg78
(lp776
g765
ag772
asg21
I0
sg80
S'632'
p777
sba(iArchitecture
Cluster
p778
(dp779
g7
(lp780
(iArchitecture
Entity
p781
(dp782
g11
(lp783
sg13
S'com.android.server.connectivity.KeepaliveTracker'
p784
sg15
(lp785
sg17
(lp786
sg19
(lp787
sg21
I0
sba(iArchitecture
Entity
p788
(dp789
g11
(lp790
sg13
S'com.android.server.connectivity.KeepaliveTracker$KeepaliveInfo'
p791
sg15
(lp792
sg17
(lp793
sg19
(lp794
sg21
I0
sbasg78
(lp795
g784
ag791
asg21
I0
sg80
S'649'
p796
sbasg364
g365
sg78
(lp797
sg367
I00
sg80
S'7.0.0_r1'
p798
sba.