(lp0
(iArchitecture
Architecture
p1
(dp2
S'clusters'
p3
(lp4
(iArchitecture
Cluster
p5
(dp6
S'entities'
p7
(lp8
(iArchitecture
Entity
p9
(dp10
S'issue_ids'
p11
(lp12
sS'name'
p13
S'com.android.server.net.NetworkIdentitySet'
p14
sS'descs'
p15
(lp16
sS'labels'
p17
(lp18
sS'titles'
p19
(lp20
sS'change'
p21
I0
sbasS'classes'
p22
(lp23
g14
asg21
I0
sS'label'
p24
S'1237'
p25
sba(iArchitecture
Cluster
p26
(dp27
g7
(lp28
(iArchitecture
Entity
p29
(dp30
g11
(lp31
sg13
S'com.android.server.net.NetworkStatsRecorder'
p32
sg15
(lp33
sg17
(lp34
sg19
(lp35
sg21
I0
sba(iArchitecture
Entity
p36
(dp37
g11
(lp38
sg13
S'com.android.server.net.NetworkStatsRecorder$CombiningRewriter'
p39
sg15
(lp40
sg17
(lp41
sg19
(lp42
sg21
I0
sba(iArchitecture
Entity
p43
(dp44
g11
(lp45
sg13
S'com.android.server.net.NetworkStatsRecorder$RemoveUidRewriter'
p46
sg15
(lp47
sg17
(lp48
sg19
(lp49
sg21
I0
sbasg22
(lp50
g32
ag39
ag46
asg21
I0
sg24
S'1246'
p51
sba(iArchitecture
Cluster
p52
(dp53
g7
(lp54
(iArchitecture
Entity
p55
(dp56
g11
(lp57
sg13
S'com.android.server.net.BaseNetworkObserver'
p58
sg15
(lp59
sg17
(lp60
sg19
(lp61
sg21
I0
sbasg22
(lp62
g58
asg21
I0
sg24
S'165'
p63
sba(iArchitecture
Cluster
p64
(dp65
g7
(lp66
(iArchitecture
Entity
p67
(dp68
g11
(lp69
sg13
S'com.android.server.net.LockdownVpnTracker'
p70
sg15
(lp71
sg17
(lp72
sg19
(lp73
sg21
I0
sba(iArchitecture
Entity
p74
(dp75
g11
(lp76
sg13
S'com.android.server.net.LockdownVpnTracker$1'
p77
sg15
(lp78
sg17
(lp79
sg19
(lp80
sg21
I0
sbasg22
(lp81
g70
ag77
asg21
I0
sg24
S'476'
p82
sba(iArchitecture
Cluster
p83
(dp84
g7
(lp85
(iArchitecture
Entity
p86
(dp87
g11
(lp88
sg13
S'com.android.server.net.NetworkStatsCollection'
p89
sg15
(lp90
sg17
(lp91
sg19
(lp92
sg21
I0
sba(iArchitecture
Entity
p93
(dp94
g11
(lp95
sg13
S'com.android.server.net.NetworkStatsCollection$Key'
p96
sg15
(lp97
sg17
(lp98
sg19
(lp99
sg21
I0
sbasg22
(lp100
g89
ag96
asg21
I0
sg24
S'479'
p101
sba(iArchitecture
Cluster
p102
(dp103
g7
(lp104
(iArchitecture
Entity
p105
(dp106
g11
(lp107
sg13
S'com.android.server.net.IpConfigStore'
p108
sg15
(lp109
sg17
(lp110
sg19
(lp111
sg21
I0
sba(iArchitecture
Entity
p112
(dp113
g11
(lp114
sg13
S'com.android.server.net.IpConfigStore$1'
p115
sg15
(lp116
sg17
(lp117
sg19
(lp118
sg21
I0
sbasg22
(lp119
g108
ag115
asg21
I0
sg24
S'580'
p120
sba(iArchitecture
Cluster
p121
(dp122
g7
(lp123
(iArchitecture
Entity
p124
(dp125
g11
(lp126
sg13
S'com.android.server.net.NetlinkTracker'
p127
sg15
(lp128
sg17
(lp129
sg19
(lp130
sg21
I0
sba(iArchitecture
Entity
p131
(dp132
g11
(lp133
sg13
S'com.android.server.net.NetlinkTracker$Callback'
p134
sg15
(lp135
sg17
(lp136
sg19
(lp137
sg21
I0
sbasg22
(lp138
g127
ag134
asg21
I0
sg24
S'653'
p139
sba(iArchitecture
Cluster
p140
(dp141
g7
(lp142
(iArchitecture
Entity
p143
(dp144
g11
(lp145
sg13
S'com.android.server.net.DelayedDiskWrite'
p146
sg15
(lp147
sg17
(lp148
sg19
(lp149
sg21
I0
sba(iArchitecture
Entity
p150
(dp151
g11
(lp152
sg13
S'com.android.server.net.DelayedDiskWrite$1'
p153
sg15
(lp154
sg17
(lp155
sg19
(lp156
sg21
I0
sba(iArchitecture
Entity
p157
(dp158
g11
(lp159
sg13
S'com.android.server.net.DelayedDiskWrite$Writer'
p160
sg15
(lp161
sg17
(lp162
sg19
(lp163
sg21
I0
sbasg22
(lp164
g146
ag153
ag160
asg21
I0
sg24
S'767'
p165
sbasS'target_sub'
p166
S'com.android.server.net'
p167
sg22
(lp168
sS'is_component_arch'
p169
I00
sg24
S'6.0.0_r1'
p170
sba(iArchitecture
Architecture
p171
(dp172
g3
(lp173
(iArchitecture
Cluster
p174
(dp175
g7
(lp176
(iArchitecture
Entity
p177
(dp178
g11
(lp179
sg13
S'com.android.server.net.NetworkStatsObservers'
p180
sg15
(lp181
sg17
(lp182
sg19
(lp183
sg21
I0
sba(iArchitecture
Entity
p184
(dp185
g11
(lp186
sg13
S'com.android.server.net.NetworkStatsObservers$1'
p187
sg15
(lp188
sg17
(lp189
sg19
(lp190
sg21
I0
sba(iArchitecture
Entity
p191
(dp192
g11
(lp193
sg13
S'com.android.server.net.NetworkStatsObservers$NetworkUsageRequestInfo'
p194
sg15
(lp195
sg17
(lp196
sg19
(lp197
sg21
I0
sba(iArchitecture
Entity
p198
(dp199
g11
(lp200
sg13
S'com.android.server.net.NetworkStatsObservers$RequestInfo'
p201
sg15
(lp202
sg17
(lp203
sg19
(lp204
sg21
I0
sba(iArchitecture
Entity
p205
(dp206
g11
(lp207
sg13
S'com.android.server.net.NetworkStatsObservers$StatsContext'
p208
sg15
(lp209
sg17
(lp210
sg19
(lp211
sg21
I0
sba(iArchitecture
Entity
p212
(dp213
g11
(lp214
sg13
S'com.android.server.net.NetworkStatsObservers$UserUsageRequestInfo'
p215
sg15
(lp216
sg17
(lp217
sg19
(lp218
sg21
I0
sbasg22
(lp219
g180
ag187
ag194
ag201
ag208
ag215
asg21
I0
sg24
S'1075'
p220
sba(iArchitecture
Cluster
p221
(dp222
g7
(lp223
(iArchitecture
Entity
p224
(dp225
g11
(lp226
sg13
S'com.android.server.net.NetworkPolicyManagerInternal'
p227
sg15
(lp228
sg17
(lp229
sg19
(lp230
sg21
I0
sbasg22
(lp231
g227
asg21
I0
sg24
S'1330'
p232
sba(iArchitecture
Cluster
p233
(dp234
g7
(lp235
(iArchitecture
Entity
p236
(dp237
g11
(lp238
sg13
S'com.android.server.net.NetworkIdentitySet'
p239
sg15
(lp240
sg17
(lp241
sg19
(lp242
sg21
I0
sbasg22
(lp243
g239
asg21
I0
sg24
S'1401'
p244
sba(iArchitecture
Cluster
p245
(dp246
g7
(lp247
(iArchitecture
Entity
p248
(dp249
g11
(lp250
sg13
S'com.android.server.net.NetworkStatsAccess'
p251
sg15
(lp252
sg17
(lp253
sg19
(lp254
sg21
I0
sba(iArchitecture
Entity
p255
(dp256
g11
(lp257
sg13
S'com.android.server.net.NetworkStatsAccess$Level'
p258
sg15
(lp259
sg17
(lp260
sg19
(lp261
sg21
I0
sba(iArchitecture
Entity
p262
(dp263
g11
(lp264
sg13
S'com.android.server.net.NetworkStatsRecorder'
p265
sg15
(lp266
sg17
(lp267
sg19
(lp268
sg21
I0
sba(iArchitecture
Entity
p269
(dp270
g11
(lp271
sg13
S'com.android.server.net.NetworkStatsRecorder$CombiningRewriter'
p272
sg15
(lp273
sg17
(lp274
sg19
(lp275
sg21
I0
sba(iArchitecture
Entity
p276
(dp277
g11
(lp278
sg13
S'com.android.server.net.NetworkStatsRecorder$RemoveUidRewriter'
p279
sg15
(lp280
sg17
(lp281
sg19
(lp282
sg21
I0
sbasg22
(lp283
g251
ag258
ag265
ag272
ag279
asg21
I0
sg24
S'1406'
p284
sba(iArchitecture
Cluster
p285
(dp286
g7
(lp287
(iArchitecture
Entity
p288
(dp289
g11
(lp290
sg13
S'com.android.server.net.BaseNetworkObserver'
p291
sg15
(lp292
sg17
(lp293
sg19
(lp294
sg21
I0
sbasg22
(lp295
g291
asg21
I0
sg24
S'181'
p296
sba(iArchitecture
Cluster
p297
(dp298
g7
(lp299
(iArchitecture
Entity
p300
(dp301
g11
(lp302
sg13
S'com.android.server.net.NetworkPolicyManagerShellCommand'
p303
sg15
(lp304
sg17
(lp305
sg19
(lp306
sg21
I0
sbasg22
(lp307
g303
asg21
I0
sg24
S'484'
p308
sba(iArchitecture
Cluster
p309
(dp310
g7
(lp311
(iArchitecture
Entity
p312
(dp313
g11
(lp314
sg13
S'com.android.server.net.LockdownVpnTracker'
p315
sg15
(lp316
sg17
(lp317
sg19
(lp318
sg21
I0
sba(iArchitecture
Entity
p319
(dp320
g11
(lp321
sg13
S'com.android.server.net.LockdownVpnTracker$1'
p322
sg15
(lp323
sg17
(lp324
sg19
(lp325
sg21
I0
sbasg22
(lp326
g315
ag322
asg21
I0
sg24
S'532'
p327
sba(iArchitecture
Cluster
p328
(dp329
g7
(lp330
(iArchitecture
Entity
p331
(dp332
g11
(lp333
sg13
S'com.android.server.net.NetworkStatsCollection'
p334
sg15
(lp335
sg17
(lp336
sg19
(lp337
sg21
I0
sba(iArchitecture
Entity
p338
(dp339
g11
(lp340
sg13
S'com.android.server.net.NetworkStatsCollection$Key'
p341
sg15
(lp342
sg17
(lp343
sg19
(lp344
sg21
I0
sbasg22
(lp345
g334
ag341
asg21
I0
sg24
S'536'
p346
sba(iArchitecture
Cluster
p347
(dp348
g7
(lp349
(iArchitecture
Entity
p350
(dp351
g11
(lp352
sg13
S'com.android.server.net.NetworkPinner'
p353
sg15
(lp354
sg17
(lp355
sg19
(lp356
sg21
I0
sba(iArchitecture
Entity
p357
(dp358
g11
(lp359
sg13
S'com.android.server.net.NetworkPinner$Callback'
p360
sg15
(lp361
sg17
(lp362
sg19
(lp363
sg21
I0
sbasg22
(lp364
g353
ag360
asg21
I0
sg24
S'659'
p365
sba(iArchitecture
Cluster
p366
(dp367
g7
(lp368
(iArchitecture
Entity
p369
(dp370
g11
(lp371
sg13
S'com.android.server.net.IpConfigStore'
p372
sg15
(lp373
sg17
(lp374
sg19
(lp375
sg21
I0
sba(iArchitecture
Entity
p376
(dp377
g11
(lp378
sg13
S'com.android.server.net.IpConfigStore$1'
p379
sg15
(lp380
sg17
(lp381
sg19
(lp382
sg21
I0
sbasg22
(lp383
g372
ag379
asg21
I0
sg24
S'662'
p384
sba(iArchitecture
Cluster
p385
(dp386
g7
(lp387
(iArchitecture
Entity
p388
(dp389
g11
(lp390
sg13
S'com.android.server.net.NetlinkTracker'
p391
sg15
(lp392
sg17
(lp393
sg19
(lp394
sg21
I0
sba(iArchitecture
Entity
p395
(dp396
g11
(lp397
sg13
S'com.android.server.net.NetlinkTracker$Callback'
p398
sg15
(lp399
sg17
(lp400
sg19
(lp401
sg21
I0
sbasg22
(lp402
g391
ag398
asg21
I0
sg24
S'740'
p403
sba(iArchitecture
Cluster
p404
(dp405
g7
(lp406
(iArchitecture
Entity
p407
(dp408
g11
(lp409
sg13
S'com.android.server.net.DelayedDiskWrite'
p410
sg15
(lp411
sg17
(lp412
sg19
(lp413
sg21
I0
sba(iArchitecture
Entity
p414
(dp415
g11
(lp416
sg13
S'com.android.server.net.DelayedDiskWrite$1'
p417
sg15
(lp418
sg17
(lp419
sg19
(lp420
sg21
I0
sba(iArchitecture
Entity
p421
(dp422
g11
(lp423
sg13
S'com.android.server.net.DelayedDiskWrite$Writer'
p424
sg15
(lp425
sg17
(lp426
sg19
(lp427
sg21
I0
sbasg22
(lp428
g410
ag417
ag424
asg21
I0
sg24
S'866'
p429
sbasg166
g167
sg22
(lp430
sg169
I00
sg24
S'7.0.0_r1'
p431
sba.