(lp0
(iArchitecture
Architecture
p1
(dp2
S'clusters'
p3
(lp4
(iArchitecture
Cluster
p5
(dp6
S'entities'
p7
(lp8
(iArchitecture
Entity
p9
(dp10
S'issue_ids'
p11
(lp12
sS'name'
p13
S'android.inputmethodservice.Keyboard'
p14
sS'descs'
p15
(lp16
sS'labels'
p17
(lp18
sS'titles'
p19
(lp20
sS'change'
p21
I0
sba(iArchitecture
Entity
p22
(dp23
g11
(lp24
sg13
S'android.inputmethodservice.Keyboard$Key'
p25
sg15
(lp26
sg17
(lp27
sg19
(lp28
sg21
I0
sba(iArchitecture
Entity
p29
(dp30
g11
(lp31
sg13
S'android.inputmethodservice.Keyboard$Row'
p32
sg15
(lp33
sg17
(lp34
sg19
(lp35
sg21
I0
sba(iArchitecture
Entity
p36
(dp37
g11
(lp38
sg13
S'android.inputmethodservice.KeyboardView'
p39
sg15
(lp40
sg17
(lp41
sg19
(lp42
sg21
I0
sba(iArchitecture
Entity
p43
(dp44
g11
(lp45
sg13
S'android.inputmethodservice.KeyboardView$1'
p46
sg15
(lp47
sg17
(lp48
sg19
(lp49
sg21
I0
sba(iArchitecture
Entity
p50
(dp51
g11
(lp52
sg13
S'android.inputmethodservice.KeyboardView$2'
p53
sg15
(lp54
sg17
(lp55
sg19
(lp56
sg21
I0
sba(iArchitecture
Entity
p57
(dp58
g11
(lp59
sg13
S'android.inputmethodservice.KeyboardView$3'
p60
sg15
(lp61
sg17
(lp62
sg19
(lp63
sg21
I0
sba(iArchitecture
Entity
p64
(dp65
g11
(lp66
sg13
S'android.inputmethodservice.KeyboardView$OnKeyboardActionListener'
p67
sg15
(lp68
sg17
(lp69
sg19
(lp70
sg21
I0
sba(iArchitecture
Entity
p71
(dp72
g11
(lp73
sg13
S'android.inputmethodservice.KeyboardView$SwipeTracker'
p74
sg15
(lp75
sg17
(lp76
sg19
(lp77
sg21
I0
sbasS'classes'
p78
(lp79
g14
ag25
ag32
ag39
ag46
ag53
ag60
ag67
ag74
asg21
I0
sS'label'
p80
S'1183'
p81
sba(iArchitecture
Cluster
p82
(dp83
g7
(lp84
(iArchitecture
Entity
p85
(dp86
g11
(lp87
sg13
S'android.inputmethodservice.ExtractButton'
p88
sg15
(lp89
sg17
(lp90
sg19
(lp91
sg21
I0
sba(iArchitecture
Entity
p92
(dp93
g11
(lp94
sg13
S'android.inputmethodservice.ExtractEditLayout'
p95
sg15
(lp96
sg17
(lp97
sg19
(lp98
sg21
I0
sbasg78
(lp99
g88
ag95
asg21
I0
sg80
S'1223'
p100
sba(iArchitecture
Cluster
p101
(dp102
g7
(lp103
(iArchitecture
Entity
p104
(dp105
g11
(lp106
sg13
S'android.inputmethodservice.InputMethodService'
p107
sg15
(lp108
sg17
(lp109
sg19
(lp110
sg21
I0
sba(iArchitecture
Entity
p111
(dp112
g11
(lp113
sg13
S'android.inputmethodservice.InputMethodService$1'
p114
sg15
(lp115
sg17
(lp116
sg19
(lp117
sg21
I0
sba(iArchitecture
Entity
p118
(dp119
g11
(lp120
sg13
S'android.inputmethodservice.InputMethodService$2'
p121
sg15
(lp122
sg17
(lp123
sg19
(lp124
sg21
I0
sba(iArchitecture
Entity
p125
(dp126
g11
(lp127
sg13
S'android.inputmethodservice.InputMethodService$InputMethodImpl'
p128
sg15
(lp129
sg17
(lp130
sg19
(lp131
sg21
I0
sba(iArchitecture
Entity
p132
(dp133
g11
(lp134
sg13
S'android.inputmethodservice.InputMethodService$InputMethodSessionImpl'
p135
sg15
(lp136
sg17
(lp137
sg19
(lp138
sg21
I0
sba(iArchitecture
Entity
p139
(dp140
g11
(lp141
sg13
S'android.inputmethodservice.InputMethodService$Insets'
p142
sg15
(lp143
sg17
(lp144
sg19
(lp145
sg21
I0
sbasg78
(lp146
g107
ag114
ag121
ag128
ag135
ag142
asg21
I0
sg80
S'1232'
p147
sba(iArchitecture
Cluster
p148
(dp149
g7
(lp150
(iArchitecture
Entity
p151
(dp152
g11
(lp153
sg13
S'android.inputmethodservice.ExtractEditText'
p154
sg15
(lp155
sg17
(lp156
sg19
(lp157
sg21
I0
sbasg78
(lp158
g154
asg21
I0
sg80
S'1246'
p159
sba(iArchitecture
Cluster
p160
(dp161
g7
(lp162
(iArchitecture
Entity
p163
(dp164
g11
(lp165
sg13
S'android.inputmethodservice.IInputMethodSessionWrapper'
p166
sg15
(lp167
sg17
(lp168
sg19
(lp169
sg21
I0
sba(iArchitecture
Entity
p170
(dp171
g11
(lp172
sg13
S'android.inputmethodservice.IInputMethodSessionWrapper$ImeInputEventReceiver'
p173
sg15
(lp174
sg17
(lp175
sg19
(lp176
sg21
I0
sbasg78
(lp177
g166
ag173
asg21
I0
sg80
S'590'
p178
sba(iArchitecture
Cluster
p179
(dp180
g7
(lp181
(iArchitecture
Entity
p182
(dp183
g11
(lp184
sg13
S'android.inputmethodservice.SoftInputWindow'
p185
sg15
(lp186
sg17
(lp187
sg19
(lp188
sg21
I0
sba(iArchitecture
Entity
p189
(dp190
g11
(lp191
sg13
S'android.inputmethodservice.SoftInputWindow$Callback'
p192
sg15
(lp193
sg17
(lp194
sg19
(lp195
sg21
I0
sbasg78
(lp196
g185
ag192
asg21
I0
sg80
S'675'
p197
sba(iArchitecture
Cluster
p198
(dp199
g7
(lp200
(iArchitecture
Entity
p201
(dp202
g11
(lp203
sg13
S'android.inputmethodservice.IInputMethodWrapper'
p204
sg15
(lp205
sg17
(lp206
sg19
(lp207
sg21
I0
sba(iArchitecture
Entity
p208
(dp209
g11
(lp210
sg13
S'android.inputmethodservice.IInputMethodWrapper$InputMethodSessionCallbackWrapper'
p211
sg15
(lp212
sg17
(lp213
sg19
(lp214
sg21
I0
sba(iArchitecture
Entity
p215
(dp216
g11
(lp217
sg13
S'android.inputmethodservice.IInputMethodWrapper$Notifier'
p218
sg15
(lp219
sg17
(lp220
sg19
(lp221
sg21
I0
sbasg78
(lp222
g204
ag211
ag218
asg21
I0
sg80
S'771'
p223
sba(iArchitecture
Cluster
p224
(dp225
g7
(lp226
(iArchitecture
Entity
p227
(dp228
g11
(lp229
sg13
S'android.inputmethodservice.AbstractInputMethodService'
p230
sg15
(lp231
sg17
(lp232
sg19
(lp233
sg21
I0
sba(iArchitecture
Entity
p234
(dp235
g11
(lp236
sg13
S'android.inputmethodservice.AbstractInputMethodService$AbstractInputMethodImpl'
p237
sg15
(lp238
sg17
(lp239
sg19
(lp240
sg21
I0
sba(iArchitecture
Entity
p241
(dp242
g11
(lp243
sg13
S'android.inputmethodservice.AbstractInputMethodService$AbstractInputMethodSessionImpl'
p244
sg15
(lp245
sg17
(lp246
sg19
(lp247
sg21
I0
sbasg78
(lp248
g230
ag237
ag244
asg21
I0
sg80
S'869'
p249
sbasS'target_sub'
p250
S'android.inputmethodservice'
p251
sg78
(lp252
sS'is_component_arch'
p253
I00
sg80
S'6.0.0_r1'
p254
sba(iArchitecture
Architecture
p255
(dp256
g3
(lp257
(iArchitecture
Cluster
p258
(dp259
g7
(lp260
(iArchitecture
Entity
p261
(dp262
g11
(lp263
sg13
S'android.inputmethodservice.ExtractButton'
p264
sg15
(lp265
sg17
(lp266
sg19
(lp267
sg21
I0
sba(iArchitecture
Entity
p268
(dp269
g11
(lp270
sg13
S'android.inputmethodservice.ExtractEditLayout'
p271
sg15
(lp272
sg17
(lp273
sg19
(lp274
sg21
I0
sba(iArchitecture
Entity
p275
(dp276
g11
(lp277
sg13
S'android.inputmethodservice.ExtractEditText'
p278
sg15
(lp279
sg17
(lp280
sg19
(lp281
sg21
I0
sbasg78
(lp282
g264
ag271
ag278
asg21
I0
sg80
S'1330'
p283
sba(iArchitecture
Cluster
p284
(dp285
g7
(lp286
(iArchitecture
Entity
p287
(dp288
g11
(lp289
sg13
S'android.inputmethodservice.Keyboard'
p290
sg15
(lp291
sg17
(lp292
sg19
(lp293
sg21
I0
sba(iArchitecture
Entity
p294
(dp295
g11
(lp296
sg13
S'android.inputmethodservice.Keyboard$Key'
p297
sg15
(lp298
sg17
(lp299
sg19
(lp300
sg21
I0
sba(iArchitecture
Entity
p301
(dp302
g11
(lp303
sg13
S'android.inputmethodservice.Keyboard$Row'
p304
sg15
(lp305
sg17
(lp306
sg19
(lp307
sg21
I0
sba(iArchitecture
Entity
p308
(dp309
g11
(lp310
sg13
S'android.inputmethodservice.KeyboardView'
p311
sg15
(lp312
sg17
(lp313
sg19
(lp314
sg21
I0
sba(iArchitecture
Entity
p315
(dp316
g11
(lp317
sg13
S'android.inputmethodservice.KeyboardView$1'
p318
sg15
(lp319
sg17
(lp320
sg19
(lp321
sg21
I0
sba(iArchitecture
Entity
p322
(dp323
g11
(lp324
sg13
S'android.inputmethodservice.KeyboardView$2'
p325
sg15
(lp326
sg17
(lp327
sg19
(lp328
sg21
I0
sba(iArchitecture
Entity
p329
(dp330
g11
(lp331
sg13
S'android.inputmethodservice.KeyboardView$3'
p332
sg15
(lp333
sg17
(lp334
sg19
(lp335
sg21
I0
sba(iArchitecture
Entity
p336
(dp337
g11
(lp338
sg13
S'android.inputmethodservice.KeyboardView$OnKeyboardActionListener'
p339
sg15
(lp340
sg17
(lp341
sg19
(lp342
sg21
I0
sba(iArchitecture
Entity
p343
(dp344
g11
(lp345
sg13
S'android.inputmethodservice.KeyboardView$SwipeTracker'
p346
sg15
(lp347
sg17
(lp348
sg19
(lp349
sg21
I0
sbasg78
(lp350
g290
ag297
ag304
ag311
ag318
ag325
ag332
ag339
ag346
asg21
I0
sg80
S'1338'
p351
sba(iArchitecture
Cluster
p352
(dp353
g7
(lp354
(iArchitecture
Entity
p355
(dp356
g11
(lp357
sg13
S'android.inputmethodservice.InputMethodService'
p358
sg15
(lp359
sg17
(lp360
sg19
(lp361
sg21
I0
sba(iArchitecture
Entity
p362
(dp363
g11
(lp364
sg13
S'android.inputmethodservice.InputMethodService$1'
p365
sg15
(lp366
sg17
(lp367
sg19
(lp368
sg21
I0
sba(iArchitecture
Entity
p369
(dp370
g11
(lp371
sg13
S'android.inputmethodservice.InputMethodService$2'
p372
sg15
(lp373
sg17
(lp374
sg19
(lp375
sg21
I0
sba(iArchitecture
Entity
p376
(dp377
g11
(lp378
sg13
S'android.inputmethodservice.InputMethodService$InputMethodImpl'
p379
sg15
(lp380
sg17
(lp381
sg19
(lp382
sg21
I0
sba(iArchitecture
Entity
p383
(dp384
g11
(lp385
sg13
S'android.inputmethodservice.InputMethodService$InputMethodSessionImpl'
p386
sg15
(lp387
sg17
(lp388
sg19
(lp389
sg21
I0
sba(iArchitecture
Entity
p390
(dp391
g11
(lp392
sg13
S'android.inputmethodservice.InputMethodService$Insets'
p393
sg15
(lp394
sg17
(lp395
sg19
(lp396
sg21
I0
sba(iArchitecture
Entity
p397
(dp398
g11
(lp399
sg13
S'android.inputmethodservice.InputMethodService$SettingsObserver'
p400
sg15
(lp401
sg17
(lp402
sg19
(lp403
sg21
I0
sbasg78
(lp404
g358
ag365
ag372
ag379
ag386
ag393
ag400
asg21
I0
sg80
S'1401'
p405
sba(iArchitecture
Cluster
p406
(dp407
g7
(lp408
(iArchitecture
Entity
p409
(dp410
g11
(lp411
sg13
S'android.inputmethodservice.CompactExtractEditLayout'
p412
sg15
(lp413
sg17
(lp414
sg19
(lp415
sg21
I0
sbasg78
(lp416
g412
asg21
I0
sg80
S'490'
p417
sba(iArchitecture
Cluster
p418
(dp419
g7
(lp420
(iArchitecture
Entity
p421
(dp422
g11
(lp423
sg13
S'android.inputmethodservice.IInputMethodSessionWrapper'
p424
sg15
(lp425
sg17
(lp426
sg19
(lp427
sg21
I0
sba(iArchitecture
Entity
p428
(dp429
g11
(lp430
sg13
S'android.inputmethodservice.IInputMethodSessionWrapper$ImeInputEventReceiver'
p431
sg15
(lp432
sg17
(lp433
sg19
(lp434
sg21
I0
sbasg78
(lp435
g424
ag431
asg21
I0
sg80
S'674'
p436
sba(iArchitecture
Cluster
p437
(dp438
g7
(lp439
(iArchitecture
Entity
p440
(dp441
g11
(lp442
sg13
S'android.inputmethodservice.SoftInputWindow'
p443
sg15
(lp444
sg17
(lp445
sg19
(lp446
sg21
I0
sba(iArchitecture
Entity
p447
(dp448
g11
(lp449
sg13
S'android.inputmethodservice.SoftInputWindow$Callback'
p450
sg15
(lp451
sg17
(lp452
sg19
(lp453
sg21
I0
sbasg78
(lp454
g443
ag450
asg21
I0
sg80
S'766'
p455
sba(iArchitecture
Cluster
p456
(dp457
g7
(lp458
(iArchitecture
Entity
p459
(dp460
g11
(lp461
sg13
S'android.inputmethodservice.IInputMethodWrapper'
p462
sg15
(lp463
sg17
(lp464
sg19
(lp465
sg21
I0
sba(iArchitecture
Entity
p466
(dp467
g11
(lp468
sg13
S'android.inputmethodservice.IInputMethodWrapper$InputMethodSessionCallbackWrapper'
p469
sg15
(lp470
sg17
(lp471
sg19
(lp472
sg21
I0
sba(iArchitecture
Entity
p473
(dp474
g11
(lp475
sg13
S'android.inputmethodservice.IInputMethodWrapper$Notifier'
p476
sg15
(lp477
sg17
(lp478
sg19
(lp479
sg21
I0
sbasg78
(lp480
g462
ag469
ag476
asg21
I0
sg80
S'870'
p481
sba(iArchitecture
Cluster
p482
(dp483
g7
(lp484
(iArchitecture
Entity
p485
(dp486
g11
(lp487
sg13
S'android.inputmethodservice.AbstractInputMethodService'
p488
sg15
(lp489
sg17
(lp490
sg19
(lp491
sg21
I0
sba(iArchitecture
Entity
p492
(dp493
g11
(lp494
sg13
S'android.inputmethodservice.AbstractInputMethodService$AbstractInputMethodImpl'
p495
sg15
(lp496
sg17
(lp497
sg19
(lp498
sg21
I0
sba(iArchitecture
Entity
p499
(dp500
g11
(lp501
sg13
S'android.inputmethodservice.AbstractInputMethodService$AbstractInputMethodSessionImpl'
p502
sg15
(lp503
sg17
(lp504
sg19
(lp505
sg21
I0
sbasg78
(lp506
g488
ag495
ag502
asg21
I0
sg80
S'976'
p507
sbasg250
g251
sg78
(lp508
sg253
I00
sg80
S'7.0.0_r1'
p509
sba.