(lp0
(iArchitecture
Architecture
p1
(dp2
S'clusters'
p3
(lp4
(iArchitecture
Cluster
p5
(dp6
S'entities'
p7
(lp8
(iArchitecture
Entity
p9
(dp10
S'issue_ids'
p11
(lp12
sS'name'
p13
S'com.android.server.usb.UsbDeviceManager'
p14
sS'descs'
p15
(lp16
sS'labels'
p17
(lp18
sS'titles'
p19
(lp20
sS'change'
p21
I0
sba(iArchitecture
Entity
p22
(dp23
g11
(lp24
sg13
S'com.android.server.usb.UsbDeviceManager$1'
p25
sg15
(lp26
sg17
(lp27
sg19
(lp28
sg21
I0
sba(iArchitecture
Entity
p29
(dp30
g11
(lp31
sg13
S'com.android.server.usb.UsbDeviceManager$AdbSettingsObserver'
p32
sg15
(lp33
sg17
(lp34
sg19
(lp35
sg21
I0
sba(iArchitecture
Entity
p36
(dp37
g11
(lp38
sg13
S'com.android.server.usb.UsbDeviceManager$UsbHandler'
p39
sg15
(lp40
sg17
(lp41
sg19
(lp42
sg21
I0
sba(iArchitecture
Entity
p43
(dp44
g11
(lp45
sg13
S'com.android.server.usb.UsbService'
p46
sg15
(lp47
sg17
(lp48
sg19
(lp49
sg21
I0
sba(iArchitecture
Entity
p50
(dp51
g11
(lp52
sg13
S'com.android.server.usb.UsbService$1'
p53
sg15
(lp54
sg17
(lp55
sg19
(lp56
sg21
I0
sba(iArchitecture
Entity
p57
(dp58
g11
(lp59
sg13
S'com.android.server.usb.UsbService$Lifecycle'
p60
sg15
(lp61
sg17
(lp62
sg19
(lp63
sg21
I0
sbasS'classes'
p64
(lp65
g14
ag25
ag32
ag39
ag46
ag53
ag60
asg21
I0
sS'label'
p66
S'1148'
p67
sba(iArchitecture
Cluster
p68
(dp69
g7
(lp70
(iArchitecture
Entity
p71
(dp72
g11
(lp73
sg13
S'com.android.server.usb.UsbHostManager'
p74
sg15
(lp75
sg17
(lp76
sg19
(lp77
sg21
I0
sba(iArchitecture
Entity
p78
(dp79
g11
(lp80
sg13
S'com.android.server.usb.UsbHostManager$1'
p81
sg15
(lp82
sg17
(lp83
sg19
(lp84
sg21
I0
sbasg64
(lp85
g74
ag81
asg21
I0
sg66
S'1237'
p86
sba(iArchitecture
Cluster
p87
(dp88
g7
(lp89
(iArchitecture
Entity
p90
(dp91
g11
(lp92
sg13
S'com.android.server.usb.UsbMidiDevice'
p93
sg15
(lp94
sg17
(lp95
sg19
(lp96
sg21
I0
sba(iArchitecture
Entity
p97
(dp98
g11
(lp99
sg13
S'com.android.server.usb.UsbMidiDevice$1'
p100
sg15
(lp101
sg17
(lp102
sg19
(lp103
sg21
I0
sba(iArchitecture
Entity
p104
(dp105
g11
(lp106
sg13
S'com.android.server.usb.UsbMidiDevice$2'
p107
sg15
(lp108
sg17
(lp109
sg19
(lp110
sg21
I0
sba(iArchitecture
Entity
p111
(dp112
g11
(lp113
sg13
S'com.android.server.usb.UsbMidiDevice$3'
p114
sg15
(lp115
sg17
(lp116
sg19
(lp117
sg21
I0
sba(iArchitecture
Entity
p118
(dp119
g11
(lp120
sg13
S'com.android.server.usb.UsbMidiDevice$InputReceiverProxy'
p121
sg15
(lp122
sg17
(lp123
sg19
(lp124
sg21
I0
sbasg64
(lp125
g93
ag100
ag107
ag114
ag121
asg21
I0
sg66
S'1246'
p126
sba(iArchitecture
Cluster
p127
(dp128
g7
(lp129
(iArchitecture
Entity
p130
(dp131
g11
(lp132
sg13
S'com.android.server.usb.UsbDebuggingManager'
p133
sg15
(lp134
sg17
(lp135
sg19
(lp136
sg21
I0
sba(iArchitecture
Entity
p137
(dp138
g11
(lp139
sg13
S'com.android.server.usb.UsbDebuggingManager$UsbDebuggingHandler'
p140
sg15
(lp141
sg17
(lp142
sg19
(lp143
sg21
I0
sba(iArchitecture
Entity
p144
(dp145
g11
(lp146
sg13
S'com.android.server.usb.UsbDebuggingManager$UsbDebuggingThread'
p147
sg15
(lp148
sg17
(lp149
sg19
(lp150
sg21
I0
sbasg64
(lp151
g133
ag140
ag147
asg21
I0
sg66
S'1263'
p152
sba(iArchitecture
Cluster
p153
(dp154
g7
(lp155
(iArchitecture
Entity
p156
(dp157
g11
(lp158
sg13
S'com.android.server.usb.UsbAudioDevice'
p159
sg15
(lp160
sg17
(lp161
sg19
(lp162
sg21
I0
sbasg64
(lp163
g159
asg21
I0
sg66
S'307'
p164
sba(iArchitecture
Cluster
p165
(dp166
g7
(lp167
(iArchitecture
Entity
p168
(dp169
g11
(lp170
sg13
S'com.android.server.usb.UsbAlsaManager'
p171
sg15
(lp172
sg17
(lp173
sg19
(lp174
sg21
I0
sba(iArchitecture
Entity
p175
(dp176
g11
(lp177
sg13
S'com.android.server.usb.UsbAlsaManager$1'
p178
sg15
(lp179
sg17
(lp180
sg19
(lp181
sg21
I0
sba(iArchitecture
Entity
p182
(dp183
g11
(lp184
sg13
S'com.android.server.usb.UsbAlsaManager$AlsaDevice'
p185
sg15
(lp186
sg17
(lp187
sg19
(lp188
sg21
I0
sbasg64
(lp189
g171
ag178
ag185
asg21
I0
sg66
S'781'
p190
sba(iArchitecture
Cluster
p191
(dp192
g7
(lp193
(iArchitecture
Entity
p194
(dp195
g11
(lp196
sg13
S'com.android.server.usb.UsbSettingsManager'
p197
sg15
(lp198
sg17
(lp199
sg19
(lp200
sg21
I0
sba(iArchitecture
Entity
p201
(dp202
g11
(lp203
sg13
S'com.android.server.usb.UsbSettingsManager$AccessoryFilter'
p204
sg15
(lp205
sg17
(lp206
sg19
(lp207
sg21
I0
sba(iArchitecture
Entity
p208
(dp209
g11
(lp210
sg13
S'com.android.server.usb.UsbSettingsManager$DeviceFilter'
p211
sg15
(lp212
sg17
(lp213
sg19
(lp214
sg21
I0
sba(iArchitecture
Entity
p215
(dp216
g11
(lp217
sg13
S'com.android.server.usb.UsbSettingsManager$MyPackageMonitor'
p218
sg15
(lp219
sg17
(lp220
sg19
(lp221
sg21
I0
sbasg64
(lp222
g197
ag204
ag211
ag218
asg21
I0
sg66
S'916'
p223
sba(iArchitecture
Cluster
p224
(dp225
g7
(lp226
(iArchitecture
Entity
p227
(dp228
g11
(lp229
sg13
S'com.android.server.usb.UsbPortManager'
p230
sg15
(lp231
sg17
(lp232
sg19
(lp233
sg21
I0
sba(iArchitecture
Entity
p234
(dp235
g11
(lp236
sg13
S'com.android.server.usb.UsbPortManager$1'
p237
sg15
(lp238
sg17
(lp239
sg19
(lp240
sg21
I0
sba(iArchitecture
Entity
p241
(dp242
g11
(lp243
sg13
S'com.android.server.usb.UsbPortManager$2'
p244
sg15
(lp245
sg17
(lp246
sg19
(lp247
sg21
I0
sba(iArchitecture
Entity
p248
(dp249
g11
(lp250
sg13
S'com.android.server.usb.UsbPortManager$3'
p251
sg15
(lp252
sg17
(lp253
sg19
(lp254
sg21
I0
sba(iArchitecture
Entity
p255
(dp256
g11
(lp257
sg13
S'com.android.server.usb.UsbPortManager$PortInfo'
p258
sg15
(lp259
sg17
(lp260
sg19
(lp261
sg21
I0
sba(iArchitecture
Entity
p262
(dp263
g11
(lp264
sg13
S'com.android.server.usb.UsbPortManager$SimulatedPortInfo'
p265
sg15
(lp266
sg17
(lp267
sg19
(lp268
sg21
I0
sbasg64
(lp269
g230
ag237
ag244
ag251
ag258
ag265
asg21
I0
sg66
S'993'
p270
sbasS'target_sub'
p271
S'com.android.server.usb'
p272
sg64
(lp273
sS'is_component_arch'
p274
I00
sg66
S'6.0.0_r1'
p275
sba(iArchitecture
Architecture
p276
(dp277
g3
(lp278
(iArchitecture
Cluster
p279
(dp280
g7
(lp281
(iArchitecture
Entity
p282
(dp283
g11
(lp284
sg13
S'com.android.server.usb.UsbSettingsManager'
p285
sg15
(lp286
sg17
(lp287
sg19
(lp288
sg21
I0
sba(iArchitecture
Entity
p289
(dp290
g11
(lp291
sg13
S'com.android.server.usb.UsbSettingsManager$1'
p292
sg15
(lp293
sg17
(lp294
sg19
(lp295
sg21
I0
sba(iArchitecture
Entity
p296
(dp297
g11
(lp298
sg13
S'com.android.server.usb.UsbSettingsManager$AccessoryFilter'
p299
sg15
(lp300
sg17
(lp301
sg19
(lp302
sg21
I0
sba(iArchitecture
Entity
p303
(dp304
g11
(lp305
sg13
S'com.android.server.usb.UsbSettingsManager$DeviceFilter'
p306
sg15
(lp307
sg17
(lp308
sg19
(lp309
sg21
I0
sba(iArchitecture
Entity
p310
(dp311
g11
(lp312
sg13
S'com.android.server.usb.UsbSettingsManager$MyPackageMonitor'
p313
sg15
(lp314
sg17
(lp315
sg19
(lp316
sg21
I0
sbasg64
(lp317
g285
ag292
ag299
ag306
ag313
asg21
I0
sg66
S'1041'
p318
sba(iArchitecture
Cluster
p319
(dp320
g7
(lp321
(iArchitecture
Entity
p322
(dp323
g11
(lp324
sg13
S'com.android.server.usb.UsbPortManager'
p325
sg15
(lp326
sg17
(lp327
sg19
(lp328
sg21
I0
sba(iArchitecture
Entity
p329
(dp330
g11
(lp331
sg13
S'com.android.server.usb.UsbPortManager$1'
p332
sg15
(lp333
sg17
(lp334
sg19
(lp335
sg21
I0
sba(iArchitecture
Entity
p336
(dp337
g11
(lp338
sg13
S'com.android.server.usb.UsbPortManager$2'
p339
sg15
(lp340
sg17
(lp341
sg19
(lp342
sg21
I0
sba(iArchitecture
Entity
p343
(dp344
g11
(lp345
sg13
S'com.android.server.usb.UsbPortManager$3'
p346
sg15
(lp347
sg17
(lp348
sg19
(lp349
sg21
I0
sba(iArchitecture
Entity
p350
(dp351
g11
(lp352
sg13
S'com.android.server.usb.UsbPortManager$PortInfo'
p353
sg15
(lp354
sg17
(lp355
sg19
(lp356
sg21
I0
sba(iArchitecture
Entity
p357
(dp358
g11
(lp359
sg13
S'com.android.server.usb.UsbPortManager$SimulatedPortInfo'
p360
sg15
(lp361
sg17
(lp362
sg19
(lp363
sg21
I0
sbasg64
(lp364
g325
ag332
ag339
ag346
ag353
ag360
asg21
I0
sg66
S'1120'
p365
sba(iArchitecture
Cluster
p366
(dp367
g7
(lp368
(iArchitecture
Entity
p369
(dp370
g11
(lp371
sg13
S'com.android.server.usb.UsbDeviceManager'
p372
sg15
(lp373
sg17
(lp374
sg19
(lp375
sg21
I0
sba(iArchitecture
Entity
p376
(dp377
g11
(lp378
sg13
S'com.android.server.usb.UsbDeviceManager$1'
p379
sg15
(lp380
sg17
(lp381
sg19
(lp382
sg21
I0
sba(iArchitecture
Entity
p383
(dp384
g11
(lp385
sg13
S'com.android.server.usb.UsbDeviceManager$2'
p386
sg15
(lp387
sg17
(lp388
sg19
(lp389
sg21
I0
sba(iArchitecture
Entity
p390
(dp391
g11
(lp392
sg13
S'com.android.server.usb.UsbDeviceManager$AdbSettingsObserver'
p393
sg15
(lp394
sg17
(lp395
sg19
(lp396
sg21
I0
sba(iArchitecture
Entity
p397
(dp398
g11
(lp399
sg13
S'com.android.server.usb.UsbDeviceManager$UsbHandler'
p400
sg15
(lp401
sg17
(lp402
sg19
(lp403
sg21
I0
sba(iArchitecture
Entity
p404
(dp405
g11
(lp406
sg13
S'com.android.server.usb.UsbService'
p407
sg15
(lp408
sg17
(lp409
sg19
(lp410
sg21
I0
sba(iArchitecture
Entity
p411
(dp412
g11
(lp413
sg13
S'com.android.server.usb.UsbService$1'
p414
sg15
(lp415
sg17
(lp416
sg19
(lp417
sg21
I0
sba(iArchitecture
Entity
p418
(dp419
g11
(lp420
sg13
S'com.android.server.usb.UsbService$Lifecycle'
p421
sg15
(lp422
sg17
(lp423
sg19
(lp424
sg21
I0
sbasg64
(lp425
g372
ag379
ag386
ag393
ag400
ag407
ag414
ag421
asg21
I0
sg66
S'1289'
p426
sba(iArchitecture
Cluster
p427
(dp428
g7
(lp429
(iArchitecture
Entity
p430
(dp431
g11
(lp432
sg13
S'com.android.server.usb.MtpNotificationManager'
p433
sg15
(lp434
sg17
(lp435
sg19
(lp436
sg21
I0
sba(iArchitecture
Entity
p437
(dp438
g11
(lp439
sg13
S'com.android.server.usb.MtpNotificationManager$OnOpenInAppListener'
p440
sg15
(lp441
sg17
(lp442
sg19
(lp443
sg21
I0
sba(iArchitecture
Entity
p444
(dp445
g11
(lp446
sg13
S'com.android.server.usb.MtpNotificationManager$Receiver'
p447
sg15
(lp448
sg17
(lp449
sg19
(lp450
sg21
I0
sbasg64
(lp451
g433
ag440
ag447
asg21
I0
sg66
S'1366'
p452
sba(iArchitecture
Cluster
p453
(dp454
g7
(lp455
(iArchitecture
Entity
p456
(dp457
g11
(lp458
sg13
S'com.android.server.usb.UsbAudioDevice'
p459
sg15
(lp460
sg17
(lp461
sg19
(lp462
sg21
I0
sbasg64
(lp463
g459
asg21
I0
sg66
S'1369'
p464
sba(iArchitecture
Cluster
p465
(dp466
g7
(lp467
(iArchitecture
Entity
p468
(dp469
g11
(lp470
sg13
S'com.android.server.usb.UsbHostManager'
p471
sg15
(lp472
sg17
(lp473
sg19
(lp474
sg21
I0
sba(iArchitecture
Entity
p475
(dp476
g11
(lp477
sg13
S'com.android.server.usb.UsbHostManager$1'
p478
sg15
(lp479
sg17
(lp480
sg19
(lp481
sg21
I0
sbasg64
(lp482
g471
ag478
asg21
I0
sg66
S'1401'
p483
sba(iArchitecture
Cluster
p484
(dp485
g7
(lp486
(iArchitecture
Entity
p487
(dp488
g11
(lp489
sg13
S'com.android.server.usb.UsbMidiDevice'
p490
sg15
(lp491
sg17
(lp492
sg19
(lp493
sg21
I0
sba(iArchitecture
Entity
p494
(dp495
g11
(lp496
sg13
S'com.android.server.usb.UsbMidiDevice$1'
p497
sg15
(lp498
sg17
(lp499
sg19
(lp500
sg21
I0
sba(iArchitecture
Entity
p501
(dp502
g11
(lp503
sg13
S'com.android.server.usb.UsbMidiDevice$2'
p504
sg15
(lp505
sg17
(lp506
sg19
(lp507
sg21
I0
sba(iArchitecture
Entity
p508
(dp509
g11
(lp510
sg13
S'com.android.server.usb.UsbMidiDevice$3'
p511
sg15
(lp512
sg17
(lp513
sg19
(lp514
sg21
I0
sba(iArchitecture
Entity
p515
(dp516
g11
(lp517
sg13
S'com.android.server.usb.UsbMidiDevice$InputReceiverProxy'
p518
sg15
(lp519
sg17
(lp520
sg19
(lp521
sg21
I0
sbasg64
(lp522
g490
ag497
ag504
ag511
ag518
asg21
I0
sg66
S'1416'
p523
sba(iArchitecture
Cluster
p524
(dp525
g7
(lp526
(iArchitecture
Entity
p527
(dp528
g11
(lp529
sg13
S'com.android.server.usb.UsbDebuggingManager'
p530
sg15
(lp531
sg17
(lp532
sg19
(lp533
sg21
I0
sba(iArchitecture
Entity
p534
(dp535
g11
(lp536
sg13
S'com.android.server.usb.UsbDebuggingManager$UsbDebuggingHandler'
p537
sg15
(lp538
sg17
(lp539
sg19
(lp540
sg21
I0
sba(iArchitecture
Entity
p541
(dp542
g11
(lp543
sg13
S'com.android.server.usb.UsbDebuggingManager$UsbDebuggingThread'
p544
sg15
(lp545
sg17
(lp546
sg19
(lp547
sg21
I0
sbasg64
(lp548
g530
ag537
ag544
asg21
I0
sg66
S'1418'
p549
sba(iArchitecture
Cluster
p550
(dp551
g7
(lp552
(iArchitecture
Entity
p553
(dp554
g11
(lp555
sg13
S'com.android.server.usb.UsbAlsaManager'
p556
sg15
(lp557
sg17
(lp558
sg19
(lp559
sg21
I0
sba(iArchitecture
Entity
p560
(dp561
g11
(lp562
sg13
S'com.android.server.usb.UsbAlsaManager$1'
p563
sg15
(lp564
sg17
(lp565
sg19
(lp566
sg21
I0
sba(iArchitecture
Entity
p567
(dp568
g11
(lp569
sg13
S'com.android.server.usb.UsbAlsaManager$AlsaDevice'
p570
sg15
(lp571
sg17
(lp572
sg19
(lp573
sg21
I0
sbasg64
(lp574
g556
ag563
ag570
asg21
I0
sg66
S'880'
p575
sbasg271
g272
sg64
(lp576
sg274
I00
sg66
S'7.0.0_r1'
p577
sba.