(lp0
(iArchitecture
Architecture
p1
(dp2
S'clusters'
p3
(lp4
(iArchitecture
Cluster
p5
(dp6
S'entities'
p7
(lp8
(iArchitecture
Entity
p9
(dp10
S'issue_ids'
p11
(lp12
sS'name'
p13
S'com.android.server.hdmi.HdmiCecMessageValidator'
p14
sS'descs'
p15
(lp16
sS'labels'
p17
(lp18
sS'titles'
p19
(lp20
sS'change'
p21
I0
sba(iArchitecture
Entity
p22
(dp23
g11
(lp24
sg13
S'com.android.server.hdmi.HdmiCecMessageValidator$FixedLengthValidator'
p25
sg15
(lp26
sg17
(lp27
sg19
(lp28
sg21
I0
sba(iArchitecture
Entity
p29
(dp30
g11
(lp31
sg13
S'com.android.server.hdmi.HdmiCecMessageValidator$ParameterValidator'
p32
sg15
(lp33
sg17
(lp34
sg19
(lp35
sg21
I0
sba(iArchitecture
Entity
p36
(dp37
g11
(lp38
sg13
S'com.android.server.hdmi.HdmiCecMessageValidator$PhysicalAddressValidator'
p39
sg15
(lp40
sg17
(lp41
sg19
(lp42
sg21
I0
sba(iArchitecture
Entity
p43
(dp44
g11
(lp45
sg13
S'com.android.server.hdmi.HdmiCecMessageValidator$ReportPhysicalAddressValidator'
p46
sg15
(lp47
sg17
(lp48
sg19
(lp49
sg21
I0
sba(iArchitecture
Entity
p50
(dp51
g11
(lp52
sg13
S'com.android.server.hdmi.HdmiCecMessageValidator$RoutingChangeValidator'
p53
sg15
(lp54
sg17
(lp55
sg19
(lp56
sg21
I0
sba(iArchitecture
Entity
p57
(dp58
g11
(lp59
sg13
S'com.android.server.hdmi.HdmiCecMessageValidator$SystemAudioModeRequestValidator'
p60
sg15
(lp61
sg17
(lp62
sg19
(lp63
sg21
I0
sba(iArchitecture
Entity
p64
(dp65
g11
(lp66
sg13
S'com.android.server.hdmi.HdmiCecMessageValidator$ValidationInfo'
p67
sg15
(lp68
sg17
(lp69
sg19
(lp70
sg21
I0
sba(iArchitecture
Entity
p71
(dp72
g11
(lp73
sg13
S'com.android.server.hdmi.HdmiCecMessageValidator$VariableLengthValidator'
p74
sg15
(lp75
sg17
(lp76
sg19
(lp77
sg21
I0
sbasS'classes'
p78
(lp79
g14
ag25
ag32
ag39
ag46
ag53
ag60
ag67
ag74
asg21
I0
sS'label'
p80
S'1054'
p81
sba(iArchitecture
Cluster
p82
(dp83
g7
(lp84
(iArchitecture
Entity
p85
(dp86
g11
(lp87
sg13
S'com.android.server.hdmi.DevicePowerStatusAction'
p88
sg15
(lp89
sg17
(lp90
sg19
(lp91
sg21
I0
sba(iArchitecture
Entity
p92
(dp93
g11
(lp94
sg13
S'com.android.server.hdmi.DeviceSelectAction'
p95
sg15
(lp96
sg17
(lp97
sg19
(lp98
sg21
I0
sba(iArchitecture
Entity
p99
(dp100
g11
(lp101
sg13
S'com.android.server.hdmi.DeviceSelectAction$1'
p102
sg15
(lp103
sg17
(lp104
sg19
(lp105
sg21
I0
sba(iArchitecture
Entity
p106
(dp107
g11
(lp108
sg13
S'com.android.server.hdmi.OneTouchPlayAction'
p109
sg15
(lp110
sg17
(lp111
sg19
(lp112
sg21
I0
sba(iArchitecture
Entity
p113
(dp114
g11
(lp115
sg13
S'com.android.server.hdmi.PowerStatusMonitorAction'
p116
sg15
(lp117
sg17
(lp118
sg19
(lp119
sg21
I0
sba(iArchitecture
Entity
p120
(dp121
g11
(lp122
sg13
S'com.android.server.hdmi.PowerStatusMonitorAction$1'
p123
sg15
(lp124
sg17
(lp125
sg19
(lp126
sg21
I0
sba(iArchitecture
Entity
p127
(dp128
g11
(lp129
sg13
S'com.android.server.hdmi.RoutingControlAction'
p130
sg15
(lp131
sg17
(lp132
sg19
(lp133
sg21
I0
sba(iArchitecture
Entity
p134
(dp135
g11
(lp136
sg13
S'com.android.server.hdmi.RoutingControlAction$1'
p137
sg15
(lp138
sg17
(lp139
sg19
(lp140
sg21
I0
sbasg78
(lp141
g88
ag95
ag102
ag109
ag116
ag123
ag130
ag137
asg21
I0
sg80
S'1163'
p142
sba(iArchitecture
Cluster
p143
(dp144
g7
(lp145
(iArchitecture
Entity
p146
(dp147
g11
(lp148
sg13
S'com.android.server.hdmi.HdmiAnnotations'
p149
sg15
(lp150
sg17
(lp151
sg19
(lp152
sg21
I0
sba(iArchitecture
Entity
p153
(dp154
g11
(lp155
sg13
S'com.android.server.hdmi.HdmiAnnotations$IoThreadOnly'
p156
sg15
(lp157
sg17
(lp158
sg19
(lp159
sg21
I0
sba(iArchitecture
Entity
p160
(dp161
g11
(lp162
sg13
S'com.android.server.hdmi.HdmiAnnotations$ServiceThreadOnly'
p163
sg15
(lp164
sg17
(lp165
sg19
(lp166
sg21
I0
sbasg78
(lp167
g149
ag156
ag163
asg21
I0
sg80
S'1223'
p168
sba(iArchitecture
Cluster
p169
(dp170
g7
(lp171
(iArchitecture
Entity
p172
(dp173
g11
(lp174
sg13
S'com.android.server.hdmi.ActiveSourceHandler'
p175
sg15
(lp176
sg17
(lp177
sg19
(lp178
sg21
I0
sba(iArchitecture
Entity
p179
(dp180
g11
(lp181
sg13
S'com.android.server.hdmi.HdmiConfig'
p182
sg15
(lp183
sg17
(lp184
sg19
(lp185
sg21
I0
sba(iArchitecture
Entity
p186
(dp187
g11
(lp188
sg13
S'com.android.server.hdmi.UnmodifiableSparseArray'
p189
sg15
(lp190
sg17
(lp191
sg19
(lp192
sg21
I0
sba(iArchitecture
Entity
p193
(dp194
g11
(lp195
sg13
S'com.android.server.hdmi.UnmodifiableSparseIntArray'
p196
sg15
(lp197
sg17
(lp198
sg19
(lp199
sg21
I0
sbasg78
(lp200
g175
ag182
ag189
ag196
asg21
I0
sg80
S'1237'
p201
sba(iArchitecture
Cluster
p202
(dp203
g7
(lp204
(iArchitecture
Entity
p205
(dp206
g11
(lp207
sg13
S'com.android.server.hdmi.SendKeyAction'
p208
sg15
(lp209
sg17
(lp210
sg19
(lp211
sg21
I0
sbasg78
(lp212
g208
asg21
I0
sg80
S'1246'
p213
sba(iArchitecture
Cluster
p214
(dp215
g7
(lp216
(iArchitecture
Entity
p217
(dp218
g11
(lp219
sg13
S'com.android.server.hdmi.Constants'
p220
sg15
(lp221
sg17
(lp222
sg19
(lp223
sg21
I0
sba(iArchitecture
Entity
p224
(dp225
g11
(lp226
sg13
S'com.android.server.hdmi.DelayedMessageBuffer'
p227
sg15
(lp228
sg17
(lp229
sg19
(lp230
sg21
I0
sba(iArchitecture
Entity
p231
(dp232
g11
(lp233
sg13
S'com.android.server.hdmi.DeviceDiscoveryAction'
p234
sg15
(lp235
sg17
(lp236
sg19
(lp237
sg21
I0
sba(iArchitecture
Entity
p238
(dp239
g11
(lp240
sg13
S'com.android.server.hdmi.DeviceDiscoveryAction$1'
p241
sg15
(lp242
sg17
(lp243
sg19
(lp244
sg21
I0
sba(iArchitecture
Entity
p245
(dp246
g11
(lp247
sg13
S'com.android.server.hdmi.DeviceDiscoveryAction$DeviceDiscoveryCallback'
p248
sg15
(lp249
sg17
(lp250
sg19
(lp251
sg21
I0
sba(iArchitecture
Entity
p252
(dp253
g11
(lp254
sg13
S'com.android.server.hdmi.DeviceDiscoveryAction$DeviceInfo'
p255
sg15
(lp256
sg17
(lp257
sg19
(lp258
sg21
I0
sba(iArchitecture
Entity
p259
(dp260
g11
(lp261
sg13
S'com.android.server.hdmi.HdmiCecController'
p262
sg15
(lp263
sg17
(lp264
sg19
(lp265
sg21
I0
sba(iArchitecture
Entity
p266
(dp267
g11
(lp268
sg13
S'com.android.server.hdmi.HdmiCecController$1'
p269
sg15
(lp270
sg17
(lp271
sg19
(lp272
sg21
I0
sba(iArchitecture
Entity
p273
(dp274
g11
(lp275
sg13
S'com.android.server.hdmi.HdmiCecController$2'
p276
sg15
(lp277
sg17
(lp278
sg19
(lp279
sg21
I0
sba(iArchitecture
Entity
p280
(dp281
g11
(lp282
sg13
S'com.android.server.hdmi.HdmiCecController$3'
p283
sg15
(lp284
sg17
(lp285
sg19
(lp286
sg21
I0
sba(iArchitecture
Entity
p287
(dp288
g11
(lp289
sg13
S'com.android.server.hdmi.HdmiCecController$4'
p290
sg15
(lp291
sg17
(lp292
sg19
(lp293
sg21
I0
sba(iArchitecture
Entity
p294
(dp295
g11
(lp296
sg13
S'com.android.server.hdmi.HdmiCecController$5'
p297
sg15
(lp298
sg17
(lp299
sg19
(lp300
sg21
I0
sba(iArchitecture
Entity
p301
(dp302
g11
(lp303
sg13
S'com.android.server.hdmi.HdmiCecController$5$1'
p304
sg15
(lp305
sg17
(lp306
sg19
(lp307
sg21
I0
sba(iArchitecture
Entity
p308
(dp309
g11
(lp310
sg13
S'com.android.server.hdmi.HdmiCecController$6'
p311
sg15
(lp312
sg17
(lp313
sg19
(lp314
sg21
I0
sba(iArchitecture
Entity
p315
(dp316
g11
(lp317
sg13
S'com.android.server.hdmi.HdmiCecController$7'
p318
sg15
(lp319
sg17
(lp320
sg19
(lp321
sg21
I0
sba(iArchitecture
Entity
p322
(dp323
g11
(lp324
sg13
S'com.android.server.hdmi.HdmiCecController$7$1'
p325
sg15
(lp326
sg17
(lp327
sg19
(lp328
sg21
I0
sba(iArchitecture
Entity
p329
(dp330
g11
(lp331
sg13
S'com.android.server.hdmi.HdmiCecController$AllocateAddressCallback'
p332
sg15
(lp333
sg17
(lp334
sg19
(lp335
sg21
I0
sba(iArchitecture
Entity
p336
(dp337
g11
(lp338
sg13
S'com.android.server.hdmi.HdmiCecFeatureAction'
p339
sg15
(lp340
sg17
(lp341
sg19
(lp342
sg21
I0
sba(iArchitecture
Entity
p343
(dp344
g11
(lp345
sg13
S'com.android.server.hdmi.HdmiCecFeatureAction$ActionTimer'
p346
sg15
(lp347
sg17
(lp348
sg19
(lp349
sg21
I0
sba(iArchitecture
Entity
p350
(dp351
g11
(lp352
sg13
S'com.android.server.hdmi.HdmiCecFeatureAction$ActionTimerHandler'
p353
sg15
(lp354
sg17
(lp355
sg19
(lp356
sg21
I0
sba(iArchitecture
Entity
p357
(dp358
g11
(lp359
sg13
S'com.android.server.hdmi.HdmiCecLocalDevice'
p360
sg15
(lp361
sg17
(lp362
sg19
(lp363
sg21
I0
sba(iArchitecture
Entity
p364
(dp365
g11
(lp366
sg13
S'com.android.server.hdmi.HdmiCecLocalDevice$1'
p367
sg15
(lp368
sg17
(lp369
sg19
(lp370
sg21
I0
sba(iArchitecture
Entity
p371
(dp372
g11
(lp373
sg13
S'com.android.server.hdmi.HdmiCecLocalDevice$2'
p374
sg15
(lp375
sg17
(lp376
sg19
(lp377
sg21
I0
sba(iArchitecture
Entity
p378
(dp379
g11
(lp380
sg13
S'com.android.server.hdmi.HdmiCecLocalDevice$ActiveSource'
p381
sg15
(lp382
sg17
(lp383
sg19
(lp384
sg21
I0
sba(iArchitecture
Entity
p385
(dp386
g11
(lp387
sg13
S'com.android.server.hdmi.HdmiCecLocalDevice$PendingActionClearedCallback'
p388
sg15
(lp389
sg17
(lp390
sg19
(lp391
sg21
I0
sba(iArchitecture
Entity
p392
(dp393
g11
(lp394
sg13
S'com.android.server.hdmi.HdmiCecLocalDevicePlayback'
p395
sg15
(lp396
sg17
(lp397
sg19
(lp398
sg21
I0
sba(iArchitecture
Entity
p399
(dp400
g11
(lp401
sg13
S'com.android.server.hdmi.HdmiCecLocalDevicePlayback$1'
p402
sg15
(lp403
sg17
(lp404
sg19
(lp405
sg21
I0
sba(iArchitecture
Entity
p406
(dp407
g11
(lp408
sg13
S'com.android.server.hdmi.HdmiCecLocalDevicePlayback$ActiveWakeLock'
p409
sg15
(lp410
sg17
(lp411
sg19
(lp412
sg21
I0
sba(iArchitecture
Entity
p413
(dp414
g11
(lp415
sg13
S'com.android.server.hdmi.HdmiCecLocalDevicePlayback$SystemWakeLock'
p416
sg15
(lp417
sg17
(lp418
sg19
(lp419
sg21
I0
sba(iArchitecture
Entity
p420
(dp421
g11
(lp422
sg13
S'com.android.server.hdmi.HdmiCecLocalDeviceTv'
p423
sg15
(lp424
sg17
(lp425
sg19
(lp426
sg21
I0
sba(iArchitecture
Entity
p427
(dp428
g11
(lp429
sg13
S'com.android.server.hdmi.HdmiCecLocalDeviceTv$1'
p430
sg15
(lp431
sg17
(lp432
sg19
(lp433
sg21
I0
sba(iArchitecture
Entity
p434
(dp435
g11
(lp436
sg13
S'com.android.server.hdmi.HdmiCecLocalDeviceTv$2'
p437
sg15
(lp438
sg17
(lp439
sg19
(lp440
sg21
I0
sba(iArchitecture
Entity
p441
(dp442
g11
(lp443
sg13
S'com.android.server.hdmi.HdmiCecLocalDeviceTv$3'
p444
sg15
(lp445
sg17
(lp446
sg19
(lp447
sg21
I0
sba(iArchitecture
Entity
p448
(dp449
g11
(lp450
sg13
S'com.android.server.hdmi.HdmiCecMessageBuilder'
p451
sg15
(lp452
sg17
(lp453
sg19
(lp454
sg21
I0
sba(iArchitecture
Entity
p455
(dp456
g11
(lp457
sg13
S'com.android.server.hdmi.HdmiControlService'
p458
sg15
(lp459
sg17
(lp460
sg19
(lp461
sg21
I0
sba(iArchitecture
Entity
p462
(dp463
g11
(lp464
sg13
S'com.android.server.hdmi.HdmiControlService$1'
p465
sg15
(lp466
sg17
(lp467
sg19
(lp468
sg21
I0
sba(iArchitecture
Entity
p469
(dp470
g11
(lp471
sg13
S'com.android.server.hdmi.HdmiControlService$2'
p472
sg15
(lp473
sg17
(lp474
sg19
(lp475
sg21
I0
sba(iArchitecture
Entity
p476
(dp477
g11
(lp478
sg13
S'com.android.server.hdmi.HdmiControlService$3'
p479
sg15
(lp480
sg17
(lp481
sg19
(lp482
sg21
I0
sba(iArchitecture
Entity
p483
(dp484
g11
(lp485
sg13
S'com.android.server.hdmi.HdmiControlService$4'
p486
sg15
(lp487
sg17
(lp488
sg19
(lp489
sg21
I0
sba(iArchitecture
Entity
p490
(dp491
g11
(lp492
sg13
S'com.android.server.hdmi.HdmiControlService$5'
p493
sg15
(lp494
sg17
(lp495
sg19
(lp496
sg21
I0
sba(iArchitecture
Entity
p497
(dp498
g11
(lp499
sg13
S'com.android.server.hdmi.HdmiControlService$5$1'
p500
sg15
(lp501
sg17
(lp502
sg19
(lp503
sg21
I0
sba(iArchitecture
Entity
p504
(dp505
g11
(lp506
sg13
S'com.android.server.hdmi.HdmiControlService$6'
p507
sg15
(lp508
sg17
(lp509
sg19
(lp510
sg21
I0
sba(iArchitecture
Entity
p511
(dp512
g11
(lp513
sg13
S'com.android.server.hdmi.HdmiControlService$BinderService'
p514
sg15
(lp515
sg17
(lp516
sg19
(lp517
sg21
I0
sba(iArchitecture
Entity
p518
(dp519
g11
(lp520
sg13
S'com.android.server.hdmi.HdmiControlService$BinderService$1'
p521
sg15
(lp522
sg17
(lp523
sg19
(lp524
sg21
I0
sba(iArchitecture
Entity
p525
(dp526
g11
(lp527
sg13
S'com.android.server.hdmi.HdmiControlService$BinderService$10'
p528
sg15
(lp529
sg17
(lp530
sg19
(lp531
sg21
I0
sba(iArchitecture
Entity
p532
(dp533
g11
(lp534
sg13
S'com.android.server.hdmi.HdmiControlService$BinderService$11'
p535
sg15
(lp536
sg17
(lp537
sg19
(lp538
sg21
I0
sba(iArchitecture
Entity
p539
(dp540
g11
(lp541
sg13
S'com.android.server.hdmi.HdmiControlService$BinderService$12'
p542
sg15
(lp543
sg17
(lp544
sg19
(lp545
sg21
I0
sba(iArchitecture
Entity
p546
(dp547
g11
(lp548
sg13
S'com.android.server.hdmi.HdmiControlService$BinderService$13'
p549
sg15
(lp550
sg17
(lp551
sg19
(lp552
sg21
I0
sba(iArchitecture
Entity
p553
(dp554
g11
(lp555
sg13
S'com.android.server.hdmi.HdmiControlService$BinderService$14'
p556
sg15
(lp557
sg17
(lp558
sg19
(lp559
sg21
I0
sba(iArchitecture
Entity
p560
(dp561
g11
(lp562
sg13
S'com.android.server.hdmi.HdmiControlService$BinderService$15'
p563
sg15
(lp564
sg17
(lp565
sg19
(lp566
sg21
I0
sba(iArchitecture
Entity
p567
(dp568
g11
(lp569
sg13
S'com.android.server.hdmi.HdmiControlService$BinderService$16'
p570
sg15
(lp571
sg17
(lp572
sg19
(lp573
sg21
I0
sba(iArchitecture
Entity
p574
(dp575
g11
(lp576
sg13
S'com.android.server.hdmi.HdmiControlService$BinderService$2'
p577
sg15
(lp578
sg17
(lp579
sg19
(lp580
sg21
I0
sba(iArchitecture
Entity
p581
(dp582
g11
(lp583
sg13
S'com.android.server.hdmi.HdmiControlService$BinderService$3'
p584
sg15
(lp585
sg17
(lp586
sg19
(lp587
sg21
I0
sba(iArchitecture
Entity
p588
(dp589
g11
(lp590
sg13
S'com.android.server.hdmi.HdmiControlService$BinderService$4'
p591
sg15
(lp592
sg17
(lp593
sg19
(lp594
sg21
I0
sba(iArchitecture
Entity
p595
(dp596
g11
(lp597
sg13
S'com.android.server.hdmi.HdmiControlService$BinderService$5'
p598
sg15
(lp599
sg17
(lp600
sg19
(lp601
sg21
I0
sba(iArchitecture
Entity
p602
(dp603
g11
(lp604
sg13
S'com.android.server.hdmi.HdmiControlService$BinderService$6'
p605
sg15
(lp606
sg17
(lp607
sg19
(lp608
sg21
I0
sba(iArchitecture
Entity
p609
(dp610
g11
(lp611
sg13
S'com.android.server.hdmi.HdmiControlService$BinderService$7'
p612
sg15
(lp613
sg17
(lp614
sg19
(lp615
sg21
I0
sba(iArchitecture
Entity
p616
(dp617
g11
(lp618
sg13
S'com.android.server.hdmi.HdmiControlService$BinderService$8'
p619
sg15
(lp620
sg17
(lp621
sg19
(lp622
sg21
I0
sba(iArchitecture
Entity
p623
(dp624
g11
(lp625
sg13
S'com.android.server.hdmi.HdmiControlService$BinderService$9'
p626
sg15
(lp627
sg17
(lp628
sg19
(lp629
sg21
I0
sba(iArchitecture
Entity
p630
(dp631
g11
(lp632
sg13
S'com.android.server.hdmi.HdmiControlService$CecMessageBuffer'
p633
sg15
(lp634
sg17
(lp635
sg19
(lp636
sg21
I0
sba(iArchitecture
Entity
p637
(dp638
g11
(lp639
sg13
S'com.android.server.hdmi.HdmiControlService$CecMessageBuffer$1'
p640
sg15
(lp641
sg17
(lp642
sg19
(lp643
sg21
I0
sba(iArchitecture
Entity
p644
(dp645
g11
(lp646
sg13
S'com.android.server.hdmi.HdmiControlService$DeviceEventListenerRecord'
p647
sg15
(lp648
sg17
(lp649
sg19
(lp650
sg21
I0
sba(iArchitecture
Entity
p651
(dp652
g11
(lp653
sg13
S'com.android.server.hdmi.HdmiControlService$DevicePollingCallback'
p654
sg15
(lp655
sg17
(lp656
sg19
(lp657
sg21
I0
sba(iArchitecture
Entity
p658
(dp659
g11
(lp660
sg13
S'com.android.server.hdmi.HdmiControlService$HdmiControlBroadcastReceiver'
p661
sg15
(lp662
sg17
(lp663
sg19
(lp664
sg21
I0
sba(iArchitecture
Entity
p665
(dp666
g11
(lp667
sg13
S'com.android.server.hdmi.HdmiControlService$HdmiMhlVendorCommandListenerRecord'
p668
sg15
(lp669
sg17
(lp670
sg19
(lp671
sg21
I0
sba(iArchitecture
Entity
p672
(dp673
g11
(lp674
sg13
S'com.android.server.hdmi.HdmiControlService$HdmiRecordListenerRecord'
p675
sg15
(lp676
sg17
(lp677
sg19
(lp678
sg21
I0
sba(iArchitecture
Entity
p679
(dp680
g11
(lp681
sg13
S'com.android.server.hdmi.HdmiControlService$HotplugEventListenerRecord'
p682
sg15
(lp683
sg17
(lp684
sg19
(lp685
sg21
I0
sba(iArchitecture
Entity
p686
(dp687
g11
(lp688
sg13
S'com.android.server.hdmi.HdmiControlService$InputChangeListenerRecord'
p689
sg15
(lp690
sg17
(lp691
sg19
(lp692
sg21
I0
sba(iArchitecture
Entity
p693
(dp694
g11
(lp695
sg13
S'com.android.server.hdmi.HdmiControlService$SendMessageCallback'
p696
sg15
(lp697
sg17
(lp698
sg19
(lp699
sg21
I0
sba(iArchitecture
Entity
p700
(dp701
g11
(lp702
sg13
S'com.android.server.hdmi.HdmiControlService$SettingsObserver'
p703
sg15
(lp704
sg17
(lp705
sg19
(lp706
sg21
I0
sba(iArchitecture
Entity
p707
(dp708
g11
(lp709
sg13
S'com.android.server.hdmi.HdmiControlService$SystemAudioModeChangeListenerRecord'
p710
sg15
(lp711
sg17
(lp712
sg19
(lp713
sg21
I0
sba(iArchitecture
Entity
p714
(dp715
g11
(lp716
sg13
S'com.android.server.hdmi.HdmiControlService$VendorCommandListenerRecord'
p717
sg15
(lp718
sg17
(lp719
sg19
(lp720
sg21
I0
sba(iArchitecture
Entity
p721
(dp722
g11
(lp723
sg13
S'com.android.server.hdmi.HdmiMhlControllerStub'
p724
sg15
(lp725
sg17
(lp726
sg19
(lp727
sg21
I0
sba(iArchitecture
Entity
p728
(dp729
g11
(lp730
sg13
S'com.android.server.hdmi.HdmiUtils'
p731
sg15
(lp732
sg17
(lp733
sg19
(lp734
sg21
I0
sba(iArchitecture
Entity
p735
(dp736
g11
(lp737
sg13
S'com.android.server.hdmi.HotplugDetectionAction'
p738
sg15
(lp739
sg17
(lp740
sg19
(lp741
sg21
I0
sba(iArchitecture
Entity
p742
(dp743
g11
(lp744
sg13
S'com.android.server.hdmi.HotplugDetectionAction$1'
p745
sg15
(lp746
sg17
(lp747
sg19
(lp748
sg21
I0
sba(iArchitecture
Entity
p749
(dp750
g11
(lp751
sg13
S'com.android.server.hdmi.HotplugDetectionAction$2'
p752
sg15
(lp753
sg17
(lp754
sg19
(lp755
sg21
I0
sba(iArchitecture
Entity
p756
(dp757
g11
(lp758
sg13
S'com.android.server.hdmi.NewDeviceAction'
p759
sg15
(lp760
sg17
(lp761
sg19
(lp762
sg21
I0
sba(iArchitecture
Entity
p763
(dp764
g11
(lp765
sg13
S'com.android.server.hdmi.RequestArcAction'
p766
sg15
(lp767
sg17
(lp768
sg19
(lp769
sg21
I0
sba(iArchitecture
Entity
p770
(dp771
g11
(lp772
sg13
S'com.android.server.hdmi.RequestArcInitiationAction'
p773
sg15
(lp774
sg17
(lp775
sg19
(lp776
sg21
I0
sba(iArchitecture
Entity
p777
(dp778
g11
(lp779
sg13
S'com.android.server.hdmi.RequestArcInitiationAction$1'
p780
sg15
(lp781
sg17
(lp782
sg19
(lp783
sg21
I0
sba(iArchitecture
Entity
p784
(dp785
g11
(lp786
sg13
S'com.android.server.hdmi.RequestArcTerminationAction'
p787
sg15
(lp788
sg17
(lp789
sg19
(lp790
sg21
I0
sba(iArchitecture
Entity
p791
(dp792
g11
(lp793
sg13
S'com.android.server.hdmi.RequestArcTerminationAction$1'
p794
sg15
(lp795
sg17
(lp796
sg19
(lp797
sg21
I0
sba(iArchitecture
Entity
p798
(dp799
g11
(lp800
sg13
S'com.android.server.hdmi.SetArcTransmissionStateAction'
p801
sg15
(lp802
sg17
(lp803
sg19
(lp804
sg21
I0
sba(iArchitecture
Entity
p805
(dp806
g11
(lp807
sg13
S'com.android.server.hdmi.SetArcTransmissionStateAction$1'
p808
sg15
(lp809
sg17
(lp810
sg19
(lp811
sg21
I0
sba(iArchitecture
Entity
p812
(dp813
g11
(lp814
sg13
S'com.android.server.hdmi.SystemAudioAction'
p815
sg15
(lp816
sg17
(lp817
sg19
(lp818
sg21
I0
sba(iArchitecture
Entity
p819
(dp820
g11
(lp821
sg13
S'com.android.server.hdmi.SystemAudioAction$1'
p822
sg15
(lp823
sg17
(lp824
sg19
(lp825
sg21
I0
sba(iArchitecture
Entity
p826
(dp827
g11
(lp828
sg13
S'com.android.server.hdmi.SystemAudioAction$2'
p829
sg15
(lp830
sg17
(lp831
sg19
(lp832
sg21
I0
sba(iArchitecture
Entity
p833
(dp834
g11
(lp835
sg13
S'com.android.server.hdmi.SystemAudioActionFromAvr'
p836
sg15
(lp837
sg17
(lp838
sg19
(lp839
sg21
I0
sba(iArchitecture
Entity
p840
(dp841
g11
(lp842
sg13
S'com.android.server.hdmi.SystemAudioActionFromTv'
p843
sg15
(lp844
sg17
(lp845
sg19
(lp846
sg21
I0
sba(iArchitecture
Entity
p847
(dp848
g11
(lp849
sg13
S'com.android.server.hdmi.SystemAudioAutoInitiationAction'
p850
sg15
(lp851
sg17
(lp852
sg19
(lp853
sg21
I0
sba(iArchitecture
Entity
p854
(dp855
g11
(lp856
sg13
S'com.android.server.hdmi.SystemAudioAutoInitiationAction$1'
p857
sg15
(lp858
sg17
(lp859
sg19
(lp860
sg21
I0
sba(iArchitecture
Entity
p861
(dp862
g11
(lp863
sg13
S'com.android.server.hdmi.SystemAudioStatusAction'
p864
sg15
(lp865
sg17
(lp866
sg19
(lp867
sg21
I0
sba(iArchitecture
Entity
p868
(dp869
g11
(lp870
sg13
S'com.android.server.hdmi.SystemAudioStatusAction$1'
p871
sg15
(lp872
sg17
(lp873
sg19
(lp874
sg21
I0
sba(iArchitecture
Entity
p875
(dp876
g11
(lp877
sg13
S'com.android.server.hdmi.VolumeControlAction'
p878
sg15
(lp879
sg17
(lp880
sg19
(lp881
sg21
I0
sbasg78
(lp882
g220
ag227
ag234
ag241
ag248
ag255
ag262
ag269
ag276
ag283
ag290
ag297
ag304
ag311
ag318
ag325
ag332
ag339
ag346
ag353
ag360
ag367
ag374
ag381
ag388
ag395
ag402
ag409
ag416
ag423
ag430
ag437
ag444
ag451
ag458
ag465
ag472
ag479
ag486
ag493
ag500
ag507
ag514
ag521
ag528
ag535
ag542
ag549
ag556
ag563
ag570
ag577
ag584
ag591
ag598
ag605
ag612
ag619
ag626
ag633
ag640
ag647
ag654
ag661
ag668
ag675
ag682
ag689
ag696
ag703
ag710
ag717
ag724
ag731
ag738
ag745
ag752
ag759
ag766
ag773
ag780
ag787
ag794
ag801
ag808
ag815
ag822
ag829
ag836
ag843
ag850
ag857
ag864
ag871
ag878
asg21
I0
sg80
S'1261'
p883
sba(iArchitecture
Cluster
p884
(dp885
g7
(lp886
(iArchitecture
Entity
p887
(dp888
g11
(lp889
sg13
S'com.android.server.hdmi.HdmiLogger'
p890
sg15
(lp891
sg17
(lp892
sg19
(lp893
sg21
I0
sbasg78
(lp894
g890
asg21
I0
sg80
S'286'
p895
sba(iArchitecture
Cluster
p896
(dp897
g7
(lp898
(iArchitecture
Entity
p899
(dp900
g11
(lp901
sg13
S'com.android.server.hdmi.HdmiMhlLocalDeviceStub'
p902
sg15
(lp903
sg17
(lp904
sg19
(lp905
sg21
I0
sbasg78
(lp906
g902
asg21
I0
sg80
S'384'
p907
sba(iArchitecture
Cluster
p908
(dp909
g7
(lp910
(iArchitecture
Entity
p911
(dp912
g11
(lp913
sg13
S'com.android.server.hdmi.HdmiCecMessageCache'
p914
sg15
(lp915
sg17
(lp916
sg19
(lp917
sg21
I0
sbasg78
(lp918
g914
asg21
I0
sg80
S'46'
p919
sba(iArchitecture
Cluster
p920
(dp921
g7
(lp922
(iArchitecture
Entity
p923
(dp924
g11
(lp925
sg13
S'com.android.server.hdmi.HdmiCecKeycode'
p926
sg15
(lp927
sg17
(lp928
sg19
(lp929
sg21
I0
sba(iArchitecture
Entity
p930
(dp931
g11
(lp932
sg13
S'com.android.server.hdmi.HdmiCecKeycode$KeycodeEntry'
p933
sg15
(lp934
sg17
(lp935
sg19
(lp936
sg21
I0
sbasg78
(lp937
g926
ag933
asg21
I0
sg80
S'531'
p938
sba(iArchitecture
Cluster
p939
(dp940
g7
(lp941
(iArchitecture
Entity
p942
(dp943
g11
(lp944
sg13
S'com.android.server.hdmi.OneTouchRecordAction'
p945
sg15
(lp946
sg17
(lp947
sg19
(lp948
sg21
I0
sba(iArchitecture
Entity
p949
(dp950
g11
(lp951
sg13
S'com.android.server.hdmi.OneTouchRecordAction$1'
p952
sg15
(lp953
sg17
(lp954
sg19
(lp955
sg21
I0
sbasg78
(lp956
g945
ag952
asg21
I0
sg80
S'662'
p957
sba(iArchitecture
Cluster
p958
(dp959
g7
(lp960
(iArchitecture
Entity
p961
(dp962
g11
(lp963
sg13
S'com.android.server.hdmi.TimerRecordingAction'
p964
sg15
(lp965
sg17
(lp966
sg19
(lp967
sg21
I0
sba(iArchitecture
Entity
p968
(dp969
g11
(lp970
sg13
S'com.android.server.hdmi.TimerRecordingAction$1'
p971
sg15
(lp972
sg17
(lp973
sg19
(lp974
sg21
I0
sbasg78
(lp975
g964
ag971
asg21
I0
sg80
S'665'
p976
sba(iArchitecture
Cluster
p977
(dp978
g7
(lp979
(iArchitecture
Entity
p980
(dp981
g11
(lp982
sg13
S'com.android.server.hdmi.HdmiCecMessage'
p983
sg15
(lp984
sg17
(lp985
sg19
(lp986
sg21
I0
sbasg78
(lp987
g983
asg21
I0
sg80
S'79'
p988
sba(iArchitecture
Cluster
p989
(dp990
g7
(lp991
(iArchitecture
Entity
p992
(dp993
g11
(lp994
sg13
S'com.android.server.hdmi.HdmiCecStandbyModeHandler'
p995
sg15
(lp996
sg17
(lp997
sg19
(lp998
sg21
I0
sba(iArchitecture
Entity
p999
(dp1000
g11
(lp1001
sg13
S'com.android.server.hdmi.HdmiCecStandbyModeHandler$Aborter'
p1002
sg15
(lp1003
sg17
(lp1004
sg19
(lp1005
sg21
I0
sba(iArchitecture
Entity
p1006
(dp1007
g11
(lp1008
sg13
S'com.android.server.hdmi.HdmiCecStandbyModeHandler$AutoOnHandler'
p1009
sg15
(lp1010
sg17
(lp1011
sg19
(lp1012
sg21
I0
sba(iArchitecture
Entity
p1013
(dp1014
g11
(lp1015
sg13
S'com.android.server.hdmi.HdmiCecStandbyModeHandler$Bypasser'
p1016
sg15
(lp1017
sg17
(lp1018
sg19
(lp1019
sg21
I0
sba(iArchitecture
Entity
p1020
(dp1021
g11
(lp1022
sg13
S'com.android.server.hdmi.HdmiCecStandbyModeHandler$Bystander'
p1023
sg15
(lp1024
sg17
(lp1025
sg19
(lp1026
sg21
I0
sba(iArchitecture
Entity
p1027
(dp1028
g11
(lp1029
sg13
S'com.android.server.hdmi.HdmiCecStandbyModeHandler$CecMessageHandler'
p1030
sg15
(lp1031
sg17
(lp1032
sg19
(lp1033
sg21
I0
sba(iArchitecture
Entity
p1034
(dp1035
g11
(lp1036
sg13
S'com.android.server.hdmi.HdmiCecStandbyModeHandler$UserControlProcessedHandler'
p1037
sg15
(lp1038
sg17
(lp1039
sg19
(lp1040
sg21
I0
sbasg78
(lp1041
g995
ag1002
ag1009
ag1016
ag1023
ag1030
ag1037
asg21
I0
sg80
S'967'
p1042
sbasS'target_sub'
p1043
S'com.android.server.hdmi'
p1044
sg78
(lp1045
sS'is_component_arch'
p1046
I00
sg80
S'6.0.0_r1'
p1047
sba(iArchitecture
Architecture
p1048
(dp1049
g3
(lp1050
(iArchitecture
Cluster
p1051
(dp1052
g7
(lp1053
(iArchitecture
Entity
p1054
(dp1055
g11
(lp1056
sg13
S'com.android.server.hdmi.HdmiCecStandbyModeHandler'
p1057
sg15
(lp1058
sg17
(lp1059
sg19
(lp1060
sg21
I0
sba(iArchitecture
Entity
p1061
(dp1062
g11
(lp1063
sg13
S'com.android.server.hdmi.HdmiCecStandbyModeHandler$Aborter'
p1064
sg15
(lp1065
sg17
(lp1066
sg19
(lp1067
sg21
I0
sba(iArchitecture
Entity
p1068
(dp1069
g11
(lp1070
sg13
S'com.android.server.hdmi.HdmiCecStandbyModeHandler$AutoOnHandler'
p1071
sg15
(lp1072
sg17
(lp1073
sg19
(lp1074
sg21
I0
sba(iArchitecture
Entity
p1075
(dp1076
g11
(lp1077
sg13
S'com.android.server.hdmi.HdmiCecStandbyModeHandler$Bypasser'
p1078
sg15
(lp1079
sg17
(lp1080
sg19
(lp1081
sg21
I0
sba(iArchitecture
Entity
p1082
(dp1083
g11
(lp1084
sg13
S'com.android.server.hdmi.HdmiCecStandbyModeHandler$Bystander'
p1085
sg15
(lp1086
sg17
(lp1087
sg19
(lp1088
sg21
I0
sba(iArchitecture
Entity
p1089
(dp1090
g11
(lp1091
sg13
S'com.android.server.hdmi.HdmiCecStandbyModeHandler$CecMessageHandler'
p1092
sg15
(lp1093
sg17
(lp1094
sg19
(lp1095
sg21
I0
sba(iArchitecture
Entity
p1096
(dp1097
g11
(lp1098
sg13
S'com.android.server.hdmi.HdmiCecStandbyModeHandler$UserControlProcessedHandler'
p1099
sg15
(lp1100
sg17
(lp1101
sg19
(lp1102
sg21
I0
sbasg78
(lp1103
g1057
ag1064
ag1071
ag1078
ag1085
ag1092
ag1099
asg21
I0
sg80
S'1094'
p1104
sba(iArchitecture
Cluster
p1105
(dp1106
g7
(lp1107
(iArchitecture
Entity
p1108
(dp1109
g11
(lp1110
sg13
S'com.android.server.hdmi.HdmiCecMessageValidator'
p1111
sg15
(lp1112
sg17
(lp1113
sg19
(lp1114
sg21
I0
sba(iArchitecture
Entity
p1115
(dp1116
g11
(lp1117
sg13
S'com.android.server.hdmi.HdmiCecMessageValidator$FixedLengthValidator'
p1118
sg15
(lp1119
sg17
(lp1120
sg19
(lp1121
sg21
I0
sba(iArchitecture
Entity
p1122
(dp1123
g11
(lp1124
sg13
S'com.android.server.hdmi.HdmiCecMessageValidator$ParameterValidator'
p1125
sg15
(lp1126
sg17
(lp1127
sg19
(lp1128
sg21
I0
sba(iArchitecture
Entity
p1129
(dp1130
g11
(lp1131
sg13
S'com.android.server.hdmi.HdmiCecMessageValidator$PhysicalAddressValidator'
p1132
sg15
(lp1133
sg17
(lp1134
sg19
(lp1135
sg21
I0
sba(iArchitecture
Entity
p1136
(dp1137
g11
(lp1138
sg13
S'com.android.server.hdmi.HdmiCecMessageValidator$ReportPhysicalAddressValidator'
p1139
sg15
(lp1140
sg17
(lp1141
sg19
(lp1142
sg21
I0
sba(iArchitecture
Entity
p1143
(dp1144
g11
(lp1145
sg13
S'com.android.server.hdmi.HdmiCecMessageValidator$RoutingChangeValidator'
p1146
sg15
(lp1147
sg17
(lp1148
sg19
(lp1149
sg21
I0
sba(iArchitecture
Entity
p1150
(dp1151
g11
(lp1152
sg13
S'com.android.server.hdmi.HdmiCecMessageValidator$SystemAudioModeRequestValidator'
p1153
sg15
(lp1154
sg17
(lp1155
sg19
(lp1156
sg21
I0
sba(iArchitecture
Entity
p1157
(dp1158
g11
(lp1159
sg13
S'com.android.server.hdmi.HdmiCecMessageValidator$ValidationInfo'
p1160
sg15
(lp1161
sg17
(lp1162
sg19
(lp1163
sg21
I0
sba(iArchitecture
Entity
p1164
(dp1165
g11
(lp1166
sg13
S'com.android.server.hdmi.HdmiCecMessageValidator$VariableLengthValidator'
p1167
sg15
(lp1168
sg17
(lp1169
sg19
(lp1170
sg21
I0
sbasg78
(lp1171
g1111
ag1118
ag1125
ag1132
ag1139
ag1146
ag1153
ag1160
ag1167
asg21
I0
sg80
S'1182'
p1172
sba(iArchitecture
Cluster
p1173
(dp1174
g7
(lp1175
(iArchitecture
Entity
p1176
(dp1177
g11
(lp1178
sg13
S'com.android.server.hdmi.DevicePowerStatusAction'
p1179
sg15
(lp1180
sg17
(lp1181
sg19
(lp1182
sg21
I0
sba(iArchitecture
Entity
p1183
(dp1184
g11
(lp1185
sg13
S'com.android.server.hdmi.DeviceSelectAction'
p1186
sg15
(lp1187
sg17
(lp1188
sg19
(lp1189
sg21
I0
sba(iArchitecture
Entity
p1190
(dp1191
g11
(lp1192
sg13
S'com.android.server.hdmi.DeviceSelectAction$1'
p1193
sg15
(lp1194
sg17
(lp1195
sg19
(lp1196
sg21
I0
sba(iArchitecture
Entity
p1197
(dp1198
g11
(lp1199
sg13
S'com.android.server.hdmi.OneTouchPlayAction'
p1200
sg15
(lp1201
sg17
(lp1202
sg19
(lp1203
sg21
I0
sba(iArchitecture
Entity
p1204
(dp1205
g11
(lp1206
sg13
S'com.android.server.hdmi.PowerStatusMonitorAction'
p1207
sg15
(lp1208
sg17
(lp1209
sg19
(lp1210
sg21
I0
sba(iArchitecture
Entity
p1211
(dp1212
g11
(lp1213
sg13
S'com.android.server.hdmi.PowerStatusMonitorAction$1'
p1214
sg15
(lp1215
sg17
(lp1216
sg19
(lp1217
sg21
I0
sba(iArchitecture
Entity
p1218
(dp1219
g11
(lp1220
sg13
S'com.android.server.hdmi.RoutingControlAction'
p1221
sg15
(lp1222
sg17
(lp1223
sg19
(lp1224
sg21
I0
sba(iArchitecture
Entity
p1225
(dp1226
g11
(lp1227
sg13
S'com.android.server.hdmi.RoutingControlAction$1'
p1228
sg15
(lp1229
sg17
(lp1230
sg19
(lp1231
sg21
I0
sbasg78
(lp1232
g1179
ag1186
ag1193
ag1200
ag1207
ag1214
ag1221
ag1228
asg21
I0
sg80
S'1308'
p1233
sba(iArchitecture
Cluster
p1234
(dp1235
g7
(lp1236
(iArchitecture
Entity
p1237
(dp1238
g11
(lp1239
sg13
S'com.android.server.hdmi.HdmiAnnotations'
p1240
sg15
(lp1241
sg17
(lp1242
sg19
(lp1243
sg21
I0
sba(iArchitecture
Entity
p1244
(dp1245
g11
(lp1246
sg13
S'com.android.server.hdmi.HdmiAnnotations$IoThreadOnly'
p1247
sg15
(lp1248
sg17
(lp1249
sg19
(lp1250
sg21
I0
sba(iArchitecture
Entity
p1251
(dp1252
g11
(lp1253
sg13
S'com.android.server.hdmi.HdmiAnnotations$ServiceThreadOnly'
p1254
sg15
(lp1255
sg17
(lp1256
sg19
(lp1257
sg21
I0
sba(iArchitecture
Entity
p1258
(dp1259
g11
(lp1260
sg13
S'com.android.server.hdmi.UnmodifiableSparseArray'
p1261
sg15
(lp1262
sg17
(lp1263
sg19
(lp1264
sg21
I0
sba(iArchitecture
Entity
p1265
(dp1266
g11
(lp1267
sg13
S'com.android.server.hdmi.UnmodifiableSparseIntArray'
p1268
sg15
(lp1269
sg17
(lp1270
sg19
(lp1271
sg21
I0
sbasg78
(lp1272
g1240
ag1247
ag1254
ag1261
ag1268
asg21
I0
sg80
S'1330'
p1273
sba(iArchitecture
Cluster
p1274
(dp1275
g7
(lp1276
(iArchitecture
Entity
p1277
(dp1278
g11
(lp1279
sg13
S'com.android.server.hdmi.HdmiConfig'
p1280
sg15
(lp1281
sg17
(lp1282
sg19
(lp1283
sg21
I0
sbasg78
(lp1284
g1280
asg21
I0
sg80
S'1331'
p1285
sba(iArchitecture
Cluster
p1286
(dp1287
g7
(lp1288
(iArchitecture
Entity
p1289
(dp1290
g11
(lp1291
sg13
S'com.android.server.hdmi.HdmiLogger'
p1292
sg15
(lp1293
sg17
(lp1294
sg19
(lp1295
sg21
I0
sbasg78
(lp1296
g1292
asg21
I0
sg80
S'1362'
p1297
sba(iArchitecture
Cluster
p1298
(dp1299
g7
(lp1300
(iArchitecture
Entity
p1301
(dp1302
g11
(lp1303
sg13
S'com.android.server.hdmi.Constants'
p1304
sg15
(lp1305
sg17
(lp1306
sg19
(lp1307
sg21
I0
sba(iArchitecture
Entity
p1308
(dp1309
g11
(lp1310
sg13
S'com.android.server.hdmi.DeviceDiscoveryAction'
p1311
sg15
(lp1312
sg17
(lp1313
sg19
(lp1314
sg21
I0
sba(iArchitecture
Entity
p1315
(dp1316
g11
(lp1317
sg13
S'com.android.server.hdmi.DeviceDiscoveryAction$1'
p1318
sg15
(lp1319
sg17
(lp1320
sg19
(lp1321
sg21
I0
sba(iArchitecture
Entity
p1322
(dp1323
g11
(lp1324
sg13
S'com.android.server.hdmi.DeviceDiscoveryAction$DeviceDiscoveryCallback'
p1325
sg15
(lp1326
sg17
(lp1327
sg19
(lp1328
sg21
I0
sba(iArchitecture
Entity
p1329
(dp1330
g11
(lp1331
sg13
S'com.android.server.hdmi.DeviceDiscoveryAction$DeviceInfo'
p1332
sg15
(lp1333
sg17
(lp1334
sg19
(lp1335
sg21
I0
sba(iArchitecture
Entity
p1336
(dp1337
g11
(lp1338
sg13
S'com.android.server.hdmi.HdmiCecController'
p1339
sg15
(lp1340
sg17
(lp1341
sg19
(lp1342
sg21
I0
sba(iArchitecture
Entity
p1343
(dp1344
g11
(lp1345
sg13
S'com.android.server.hdmi.HdmiCecController$1'
p1346
sg15
(lp1347
sg17
(lp1348
sg19
(lp1349
sg21
I0
sba(iArchitecture
Entity
p1350
(dp1351
g11
(lp1352
sg13
S'com.android.server.hdmi.HdmiCecController$2'
p1353
sg15
(lp1354
sg17
(lp1355
sg19
(lp1356
sg21
I0
sba(iArchitecture
Entity
p1357
(dp1358
g11
(lp1359
sg13
S'com.android.server.hdmi.HdmiCecController$3'
p1360
sg15
(lp1361
sg17
(lp1362
sg19
(lp1363
sg21
I0
sba(iArchitecture
Entity
p1364
(dp1365
g11
(lp1366
sg13
S'com.android.server.hdmi.HdmiCecController$4'
p1367
sg15
(lp1368
sg17
(lp1369
sg19
(lp1370
sg21
I0
sba(iArchitecture
Entity
p1371
(dp1372
g11
(lp1373
sg13
S'com.android.server.hdmi.HdmiCecController$5'
p1374
sg15
(lp1375
sg17
(lp1376
sg19
(lp1377
sg21
I0
sba(iArchitecture
Entity
p1378
(dp1379
g11
(lp1380
sg13
S'com.android.server.hdmi.HdmiCecController$5$1'
p1381
sg15
(lp1382
sg17
(lp1383
sg19
(lp1384
sg21
I0
sba(iArchitecture
Entity
p1385
(dp1386
g11
(lp1387
sg13
S'com.android.server.hdmi.HdmiCecController$6'
p1388
sg15
(lp1389
sg17
(lp1390
sg19
(lp1391
sg21
I0
sba(iArchitecture
Entity
p1392
(dp1393
g11
(lp1394
sg13
S'com.android.server.hdmi.HdmiCecController$7'
p1395
sg15
(lp1396
sg17
(lp1397
sg19
(lp1398
sg21
I0
sba(iArchitecture
Entity
p1399
(dp1400
g11
(lp1401
sg13
S'com.android.server.hdmi.HdmiCecController$7$1'
p1402
sg15
(lp1403
sg17
(lp1404
sg19
(lp1405
sg21
I0
sba(iArchitecture
Entity
p1406
(dp1407
g11
(lp1408
sg13
S'com.android.server.hdmi.HdmiCecController$AllocateAddressCallback'
p1409
sg15
(lp1410
sg17
(lp1411
sg19
(lp1412
sg21
I0
sba(iArchitecture
Entity
p1413
(dp1414
g11
(lp1415
sg13
S'com.android.server.hdmi.HdmiCecLocalDevice'
p1416
sg15
(lp1417
sg17
(lp1418
sg19
(lp1419
sg21
I0
sba(iArchitecture
Entity
p1420
(dp1421
g11
(lp1422
sg13
S'com.android.server.hdmi.HdmiCecLocalDevice$1'
p1423
sg15
(lp1424
sg17
(lp1425
sg19
(lp1426
sg21
I0
sba(iArchitecture
Entity
p1427
(dp1428
g11
(lp1429
sg13
S'com.android.server.hdmi.HdmiCecLocalDevice$2'
p1430
sg15
(lp1431
sg17
(lp1432
sg19
(lp1433
sg21
I0
sba(iArchitecture
Entity
p1434
(dp1435
g11
(lp1436
sg13
S'com.android.server.hdmi.HdmiCecLocalDevice$ActiveSource'
p1437
sg15
(lp1438
sg17
(lp1439
sg19
(lp1440
sg21
I0
sba(iArchitecture
Entity
p1441
(dp1442
g11
(lp1443
sg13
S'com.android.server.hdmi.HdmiCecLocalDevice$PendingActionClearedCallback'
p1444
sg15
(lp1445
sg17
(lp1446
sg19
(lp1447
sg21
I0
sba(iArchitecture
Entity
p1448
(dp1449
g11
(lp1450
sg13
S'com.android.server.hdmi.HdmiCecLocalDevicePlayback'
p1451
sg15
(lp1452
sg17
(lp1453
sg19
(lp1454
sg21
I0
sba(iArchitecture
Entity
p1455
(dp1456
g11
(lp1457
sg13
S'com.android.server.hdmi.HdmiCecLocalDevicePlayback$1'
p1458
sg15
(lp1459
sg17
(lp1460
sg19
(lp1461
sg21
I0
sba(iArchitecture
Entity
p1462
(dp1463
g11
(lp1464
sg13
S'com.android.server.hdmi.HdmiCecLocalDevicePlayback$ActiveWakeLock'
p1465
sg15
(lp1466
sg17
(lp1467
sg19
(lp1468
sg21
I0
sba(iArchitecture
Entity
p1469
(dp1470
g11
(lp1471
sg13
S'com.android.server.hdmi.HdmiCecLocalDevicePlayback$SystemWakeLock'
p1472
sg15
(lp1473
sg17
(lp1474
sg19
(lp1475
sg21
I0
sba(iArchitecture
Entity
p1476
(dp1477
g11
(lp1478
sg13
S'com.android.server.hdmi.HdmiCecLocalDeviceTv'
p1479
sg15
(lp1480
sg17
(lp1481
sg19
(lp1482
sg21
I0
sba(iArchitecture
Entity
p1483
(dp1484
g11
(lp1485
sg13
S'com.android.server.hdmi.HdmiCecLocalDeviceTv$1'
p1486
sg15
(lp1487
sg17
(lp1488
sg19
(lp1489
sg21
I0
sba(iArchitecture
Entity
p1490
(dp1491
g11
(lp1492
sg13
S'com.android.server.hdmi.HdmiCecLocalDeviceTv$2'
p1493
sg15
(lp1494
sg17
(lp1495
sg19
(lp1496
sg21
I0
sba(iArchitecture
Entity
p1497
(dp1498
g11
(lp1499
sg13
S'com.android.server.hdmi.HdmiCecLocalDeviceTv$3'
p1500
sg15
(lp1501
sg17
(lp1502
sg19
(lp1503
sg21
I0
sba(iArchitecture
Entity
p1504
(dp1505
g11
(lp1506
sg13
S'com.android.server.hdmi.HdmiCecMessageBuilder'
p1507
sg15
(lp1508
sg17
(lp1509
sg19
(lp1510
sg21
I0
sba(iArchitecture
Entity
p1511
(dp1512
g11
(lp1513
sg13
S'com.android.server.hdmi.HdmiControlService'
p1514
sg15
(lp1515
sg17
(lp1516
sg19
(lp1517
sg21
I0
sba(iArchitecture
Entity
p1518
(dp1519
g11
(lp1520
sg13
S'com.android.server.hdmi.HdmiControlService$1'
p1521
sg15
(lp1522
sg17
(lp1523
sg19
(lp1524
sg21
I0
sba(iArchitecture
Entity
p1525
(dp1526
g11
(lp1527
sg13
S'com.android.server.hdmi.HdmiControlService$2'
p1528
sg15
(lp1529
sg17
(lp1530
sg19
(lp1531
sg21
I0
sba(iArchitecture
Entity
p1532
(dp1533
g11
(lp1534
sg13
S'com.android.server.hdmi.HdmiControlService$3'
p1535
sg15
(lp1536
sg17
(lp1537
sg19
(lp1538
sg21
I0
sba(iArchitecture
Entity
p1539
(dp1540
g11
(lp1541
sg13
S'com.android.server.hdmi.HdmiControlService$4'
p1542
sg15
(lp1543
sg17
(lp1544
sg19
(lp1545
sg21
I0
sba(iArchitecture
Entity
p1546
(dp1547
g11
(lp1548
sg13
S'com.android.server.hdmi.HdmiControlService$5'
p1549
sg15
(lp1550
sg17
(lp1551
sg19
(lp1552
sg21
I0
sba(iArchitecture
Entity
p1553
(dp1554
g11
(lp1555
sg13
S'com.android.server.hdmi.HdmiControlService$5$1'
p1556
sg15
(lp1557
sg17
(lp1558
sg19
(lp1559
sg21
I0
sba(iArchitecture
Entity
p1560
(dp1561
g11
(lp1562
sg13
S'com.android.server.hdmi.HdmiControlService$6'
p1563
sg15
(lp1564
sg17
(lp1565
sg19
(lp1566
sg21
I0
sba(iArchitecture
Entity
p1567
(dp1568
g11
(lp1569
sg13
S'com.android.server.hdmi.HdmiControlService$BinderService'
p1570
sg15
(lp1571
sg17
(lp1572
sg19
(lp1573
sg21
I0
sba(iArchitecture
Entity
p1574
(dp1575
g11
(lp1576
sg13
S'com.android.server.hdmi.HdmiControlService$BinderService$1'
p1577
sg15
(lp1578
sg17
(lp1579
sg19
(lp1580
sg21
I0
sba(iArchitecture
Entity
p1581
(dp1582
g11
(lp1583
sg13
S'com.android.server.hdmi.HdmiControlService$BinderService$10'
p1584
sg15
(lp1585
sg17
(lp1586
sg19
(lp1587
sg21
I0
sba(iArchitecture
Entity
p1588
(dp1589
g11
(lp1590
sg13
S'com.android.server.hdmi.HdmiControlService$BinderService$11'
p1591
sg15
(lp1592
sg17
(lp1593
sg19
(lp1594
sg21
I0
sba(iArchitecture
Entity
p1595
(dp1596
g11
(lp1597
sg13
S'com.android.server.hdmi.HdmiControlService$BinderService$12'
p1598
sg15
(lp1599
sg17
(lp1600
sg19
(lp1601
sg21
I0
sba(iArchitecture
Entity
p1602
(dp1603
g11
(lp1604
sg13
S'com.android.server.hdmi.HdmiControlService$BinderService$13'
p1605
sg15
(lp1606
sg17
(lp1607
sg19
(lp1608
sg21
I0
sba(iArchitecture
Entity
p1609
(dp1610
g11
(lp1611
sg13
S'com.android.server.hdmi.HdmiControlService$BinderService$14'
p1612
sg15
(lp1613
sg17
(lp1614
sg19
(lp1615
sg21
I0
sba(iArchitecture
Entity
p1616
(dp1617
g11
(lp1618
sg13
S'com.android.server.hdmi.HdmiControlService$BinderService$15'
p1619
sg15
(lp1620
sg17
(lp1621
sg19
(lp1622
sg21
I0
sba(iArchitecture
Entity
p1623
(dp1624
g11
(lp1625
sg13
S'com.android.server.hdmi.HdmiControlService$BinderService$16'
p1626
sg15
(lp1627
sg17
(lp1628
sg19
(lp1629
sg21
I0
sba(iArchitecture
Entity
p1630
(dp1631
g11
(lp1632
sg13
S'com.android.server.hdmi.HdmiControlService$BinderService$2'
p1633
sg15
(lp1634
sg17
(lp1635
sg19
(lp1636
sg21
I0
sba(iArchitecture
Entity
p1637
(dp1638
g11
(lp1639
sg13
S'com.android.server.hdmi.HdmiControlService$BinderService$3'
p1640
sg15
(lp1641
sg17
(lp1642
sg19
(lp1643
sg21
I0
sba(iArchitecture
Entity
p1644
(dp1645
g11
(lp1646
sg13
S'com.android.server.hdmi.HdmiControlService$BinderService$4'
p1647
sg15
(lp1648
sg17
(lp1649
sg19
(lp1650
sg21
I0
sba(iArchitecture
Entity
p1651
(dp1652
g11
(lp1653
sg13
S'com.android.server.hdmi.HdmiControlService$BinderService$5'
p1654
sg15
(lp1655
sg17
(lp1656
sg19
(lp1657
sg21
I0
sba(iArchitecture
Entity
p1658
(dp1659
g11
(lp1660
sg13
S'com.android.server.hdmi.HdmiControlService$BinderService$6'
p1661
sg15
(lp1662
sg17
(lp1663
sg19
(lp1664
sg21
I0
sba(iArchitecture
Entity
p1665
(dp1666
g11
(lp1667
sg13
S'com.android.server.hdmi.HdmiControlService$BinderService$7'
p1668
sg15
(lp1669
sg17
(lp1670
sg19
(lp1671
sg21
I0
sba(iArchitecture
Entity
p1672
(dp1673
g11
(lp1674
sg13
S'com.android.server.hdmi.HdmiControlService$BinderService$8'
p1675
sg15
(lp1676
sg17
(lp1677
sg19
(lp1678
sg21
I0
sba(iArchitecture
Entity
p1679
(dp1680
g11
(lp1681
sg13
S'com.android.server.hdmi.HdmiControlService$BinderService$9'
p1682
sg15
(lp1683
sg17
(lp1684
sg19
(lp1685
sg21
I0
sba(iArchitecture
Entity
p1686
(dp1687
g11
(lp1688
sg13
S'com.android.server.hdmi.HdmiControlService$CecMessageBuffer'
p1689
sg15
(lp1690
sg17
(lp1691
sg19
(lp1692
sg21
I0
sba(iArchitecture
Entity
p1693
(dp1694
g11
(lp1695
sg13
S'com.android.server.hdmi.HdmiControlService$CecMessageBuffer$1'
p1696
sg15
(lp1697
sg17
(lp1698
sg19
(lp1699
sg21
I0
sba(iArchitecture
Entity
p1700
(dp1701
g11
(lp1702
sg13
S'com.android.server.hdmi.HdmiControlService$DeviceEventListenerRecord'
p1703
sg15
(lp1704
sg17
(lp1705
sg19
(lp1706
sg21
I0
sba(iArchitecture
Entity
p1707
(dp1708
g11
(lp1709
sg13
S'com.android.server.hdmi.HdmiControlService$DevicePollingCallback'
p1710
sg15
(lp1711
sg17
(lp1712
sg19
(lp1713
sg21
I0
sba(iArchitecture
Entity
p1714
(dp1715
g11
(lp1716
sg13
S'com.android.server.hdmi.HdmiControlService$HdmiControlBroadcastReceiver'
p1717
sg15
(lp1718
sg17
(lp1719
sg19
(lp1720
sg21
I0
sba(iArchitecture
Entity
p1721
(dp1722
g11
(lp1723
sg13
S'com.android.server.hdmi.HdmiControlService$HdmiMhlVendorCommandListenerRecord'
p1724
sg15
(lp1725
sg17
(lp1726
sg19
(lp1727
sg21
I0
sba(iArchitecture
Entity
p1728
(dp1729
g11
(lp1730
sg13
S'com.android.server.hdmi.HdmiControlService$HdmiRecordListenerRecord'
p1731
sg15
(lp1732
sg17
(lp1733
sg19
(lp1734
sg21
I0
sba(iArchitecture
Entity
p1735
(dp1736
g11
(lp1737
sg13
S'com.android.server.hdmi.HdmiControlService$HotplugEventListenerRecord'
p1738
sg15
(lp1739
sg17
(lp1740
sg19
(lp1741
sg21
I0
sba(iArchitecture
Entity
p1742
(dp1743
g11
(lp1744
sg13
S'com.android.server.hdmi.HdmiControlService$InputChangeListenerRecord'
p1745
sg15
(lp1746
sg17
(lp1747
sg19
(lp1748
sg21
I0
sba(iArchitecture
Entity
p1749
(dp1750
g11
(lp1751
sg13
S'com.android.server.hdmi.HdmiControlService$SendMessageCallback'
p1752
sg15
(lp1753
sg17
(lp1754
sg19
(lp1755
sg21
I0
sba(iArchitecture
Entity
p1756
(dp1757
g11
(lp1758
sg13
S'com.android.server.hdmi.HdmiControlService$SettingsObserver'
p1759
sg15
(lp1760
sg17
(lp1761
sg19
(lp1762
sg21
I0
sba(iArchitecture
Entity
p1763
(dp1764
g11
(lp1765
sg13
S'com.android.server.hdmi.HdmiControlService$SystemAudioModeChangeListenerRecord'
p1766
sg15
(lp1767
sg17
(lp1768
sg19
(lp1769
sg21
I0
sba(iArchitecture
Entity
p1770
(dp1771
g11
(lp1772
sg13
S'com.android.server.hdmi.HdmiControlService$VendorCommandListenerRecord'
p1773
sg15
(lp1774
sg17
(lp1775
sg19
(lp1776
sg21
I0
sba(iArchitecture
Entity
p1777
(dp1778
g11
(lp1779
sg13
S'com.android.server.hdmi.HdmiMhlControllerStub'
p1780
sg15
(lp1781
sg17
(lp1782
sg19
(lp1783
sg21
I0
sba(iArchitecture
Entity
p1784
(dp1785
g11
(lp1786
sg13
S'com.android.server.hdmi.HdmiUtils'
p1787
sg15
(lp1788
sg17
(lp1789
sg19
(lp1790
sg21
I0
sba(iArchitecture
Entity
p1791
(dp1792
g11
(lp1793
sg13
S'com.android.server.hdmi.HotplugDetectionAction'
p1794
sg15
(lp1795
sg17
(lp1796
sg19
(lp1797
sg21
I0
sba(iArchitecture
Entity
p1798
(dp1799
g11
(lp1800
sg13
S'com.android.server.hdmi.HotplugDetectionAction$1'
p1801
sg15
(lp1802
sg17
(lp1803
sg19
(lp1804
sg21
I0
sba(iArchitecture
Entity
p1805
(dp1806
g11
(lp1807
sg13
S'com.android.server.hdmi.HotplugDetectionAction$2'
p1808
sg15
(lp1809
sg17
(lp1810
sg19
(lp1811
sg21
I0
sba(iArchitecture
Entity
p1812
(dp1813
g11
(lp1814
sg13
S'com.android.server.hdmi.NewDeviceAction'
p1815
sg15
(lp1816
sg17
(lp1817
sg19
(lp1818
sg21
I0
sba(iArchitecture
Entity
p1819
(dp1820
g11
(lp1821
sg13
S'com.android.server.hdmi.RequestArcAction'
p1822
sg15
(lp1823
sg17
(lp1824
sg19
(lp1825
sg21
I0
sba(iArchitecture
Entity
p1826
(dp1827
g11
(lp1828
sg13
S'com.android.server.hdmi.RequestArcInitiationAction'
p1829
sg15
(lp1830
sg17
(lp1831
sg19
(lp1832
sg21
I0
sba(iArchitecture
Entity
p1833
(dp1834
g11
(lp1835
sg13
S'com.android.server.hdmi.RequestArcInitiationAction$1'
p1836
sg15
(lp1837
sg17
(lp1838
sg19
(lp1839
sg21
I0
sba(iArchitecture
Entity
p1840
(dp1841
g11
(lp1842
sg13
S'com.android.server.hdmi.RequestArcTerminationAction'
p1843
sg15
(lp1844
sg17
(lp1845
sg19
(lp1846
sg21
I0
sba(iArchitecture
Entity
p1847
(dp1848
g11
(lp1849
sg13
S'com.android.server.hdmi.RequestArcTerminationAction$1'
p1850
sg15
(lp1851
sg17
(lp1852
sg19
(lp1853
sg21
I0
sba(iArchitecture
Entity
p1854
(dp1855
g11
(lp1856
sg13
S'com.android.server.hdmi.SendKeyAction'
p1857
sg15
(lp1858
sg17
(lp1859
sg19
(lp1860
sg21
I0
sba(iArchitecture
Entity
p1861
(dp1862
g11
(lp1863
sg13
S'com.android.server.hdmi.SetArcTransmissionStateAction'
p1864
sg15
(lp1865
sg17
(lp1866
sg19
(lp1867
sg21
I0
sba(iArchitecture
Entity
p1868
(dp1869
g11
(lp1870
sg13
S'com.android.server.hdmi.SetArcTransmissionStateAction$1'
p1871
sg15
(lp1872
sg17
(lp1873
sg19
(lp1874
sg21
I0
sba(iArchitecture
Entity
p1875
(dp1876
g11
(lp1877
sg13
S'com.android.server.hdmi.SystemAudioAction'
p1878
sg15
(lp1879
sg17
(lp1880
sg19
(lp1881
sg21
I0
sba(iArchitecture
Entity
p1882
(dp1883
g11
(lp1884
sg13
S'com.android.server.hdmi.SystemAudioAction$1'
p1885
sg15
(lp1886
sg17
(lp1887
sg19
(lp1888
sg21
I0
sba(iArchitecture
Entity
p1889
(dp1890
g11
(lp1891
sg13
S'com.android.server.hdmi.SystemAudioAction$2'
p1892
sg15
(lp1893
sg17
(lp1894
sg19
(lp1895
sg21
I0
sba(iArchitecture
Entity
p1896
(dp1897
g11
(lp1898
sg13
S'com.android.server.hdmi.SystemAudioActionFromAvr'
p1899
sg15
(lp1900
sg17
(lp1901
sg19
(lp1902
sg21
I0
sba(iArchitecture
Entity
p1903
(dp1904
g11
(lp1905
sg13
S'com.android.server.hdmi.SystemAudioActionFromTv'
p1906
sg15
(lp1907
sg17
(lp1908
sg19
(lp1909
sg21
I0
sba(iArchitecture
Entity
p1910
(dp1911
g11
(lp1912
sg13
S'com.android.server.hdmi.SystemAudioAutoInitiationAction'
p1913
sg15
(lp1914
sg17
(lp1915
sg19
(lp1916
sg21
I0
sba(iArchitecture
Entity
p1917
(dp1918
g11
(lp1919
sg13
S'com.android.server.hdmi.SystemAudioAutoInitiationAction$1'
p1920
sg15
(lp1921
sg17
(lp1922
sg19
(lp1923
sg21
I0
sba(iArchitecture
Entity
p1924
(dp1925
g11
(lp1926
sg13
S'com.android.server.hdmi.SystemAudioStatusAction'
p1927
sg15
(lp1928
sg17
(lp1929
sg19
(lp1930
sg21
I0
sba(iArchitecture
Entity
p1931
(dp1932
g11
(lp1933
sg13
S'com.android.server.hdmi.SystemAudioStatusAction$1'
p1934
sg15
(lp1935
sg17
(lp1936
sg19
(lp1937
sg21
I0
sba(iArchitecture
Entity
p1938
(dp1939
g11
(lp1940
sg13
S'com.android.server.hdmi.VolumeControlAction'
p1941
sg15
(lp1942
sg17
(lp1943
sg19
(lp1944
sg21
I0
sbasg78
(lp1945
g1304
ag1311
ag1318
ag1325
ag1332
ag1339
ag1346
ag1353
ag1360
ag1367
ag1374
ag1381
ag1388
ag1395
ag1402
ag1409
ag1416
ag1423
ag1430
ag1437
ag1444
ag1451
ag1458
ag1465
ag1472
ag1479
ag1486
ag1493
ag1500
ag1507
ag1514
ag1521
ag1528
ag1535
ag1542
ag1549
ag1556
ag1563
ag1570
ag1577
ag1584
ag1591
ag1598
ag1605
ag1612
ag1619
ag1626
ag1633
ag1640
ag1647
ag1654
ag1661
ag1668
ag1675
ag1682
ag1689
ag1696
ag1703
ag1710
ag1717
ag1724
ag1731
ag1738
ag1745
ag1752
ag1759
ag1766
ag1773
ag1780
ag1787
ag1794
ag1801
ag1808
ag1815
ag1822
ag1829
ag1836
ag1843
ag1850
ag1857
ag1864
ag1871
ag1878
ag1885
ag1892
ag1899
ag1906
ag1913
ag1920
ag1927
ag1934
ag1941
asg21
I0
sg80
S'1401'
p1946
sba(iArchitecture
Cluster
p1947
(dp1948
g7
(lp1949
(iArchitecture
Entity
p1950
(dp1951
g11
(lp1952
sg13
S'com.android.server.hdmi.ActiveSourceHandler'
p1953
sg15
(lp1954
sg17
(lp1955
sg19
(lp1956
sg21
I0
sba(iArchitecture
Entity
p1957
(dp1958
g11
(lp1959
sg13
S'com.android.server.hdmi.SelectRequestBuffer'
p1960
sg15
(lp1961
sg17
(lp1962
sg19
(lp1963
sg21
I0
sba(iArchitecture
Entity
p1964
(dp1965
g11
(lp1966
sg13
S'com.android.server.hdmi.SelectRequestBuffer$1'
p1967
sg15
(lp1968
sg17
(lp1969
sg19
(lp1970
sg21
I0
sba(iArchitecture
Entity
p1971
(dp1972
g11
(lp1973
sg13
S'com.android.server.hdmi.SelectRequestBuffer$DeviceSelectRequest'
p1974
sg15
(lp1975
sg17
(lp1976
sg19
(lp1977
sg21
I0
sba(iArchitecture
Entity
p1978
(dp1979
g11
(lp1980
sg13
S'com.android.server.hdmi.SelectRequestBuffer$PortSelectRequest'
p1981
sg15
(lp1982
sg17
(lp1983
sg19
(lp1984
sg21
I0
sba(iArchitecture
Entity
p1985
(dp1986
g11
(lp1987
sg13
S'com.android.server.hdmi.SelectRequestBuffer$SelectRequest'
p1988
sg15
(lp1989
sg17
(lp1990
sg19
(lp1991
sg21
I0
sbasg78
(lp1992
g1953
ag1960
ag1967
ag1974
ag1981
ag1988
asg21
I0
sg80
S'1416'
p1993
sba(iArchitecture
Cluster
p1994
(dp1995
g7
(lp1996
(iArchitecture
Entity
p1997
(dp1998
g11
(lp1999
sg13
S'com.android.server.hdmi.DelayedMessageBuffer'
p2000
sg15
(lp2001
sg17
(lp2002
sg19
(lp2003
sg21
I0
sbasg78
(lp2004
g2000
asg21
I0
sg80
S'294'
p2005
sba(iArchitecture
Cluster
p2006
(dp2007
g7
(lp2008
(iArchitecture
Entity
p2009
(dp2010
g11
(lp2011
sg13
S'com.android.server.hdmi.HdmiMhlLocalDeviceStub'
p2012
sg15
(lp2013
sg17
(lp2014
sg19
(lp2015
sg21
I0
sbasg78
(lp2016
g2012
asg21
I0
sg80
S'421'
p2017
sba(iArchitecture
Cluster
p2018
(dp2019
g7
(lp2020
(iArchitecture
Entity
p2021
(dp2022
g11
(lp2023
sg13
S'com.android.server.hdmi.HdmiCecMessageCache'
p2024
sg15
(lp2025
sg17
(lp2026
sg19
(lp2027
sg21
I0
sbasg78
(lp2028
g2024
asg21
I0
sg80
S'54'
p2029
sba(iArchitecture
Cluster
p2030
(dp2031
g7
(lp2032
(iArchitecture
Entity
p2033
(dp2034
g11
(lp2035
sg13
S'com.android.server.hdmi.HdmiCecKeycode'
p2036
sg15
(lp2037
sg17
(lp2038
sg19
(lp2039
sg21
I0
sba(iArchitecture
Entity
p2040
(dp2041
g11
(lp2042
sg13
S'com.android.server.hdmi.HdmiCecKeycode$KeycodeEntry'
p2043
sg15
(lp2044
sg17
(lp2045
sg19
(lp2046
sg21
I0
sbasg78
(lp2047
g2036
ag2043
asg21
I0
sg80
S'592'
p2048
sba(iArchitecture
Cluster
p2049
(dp2050
g7
(lp2051
(iArchitecture
Entity
p2052
(dp2053
g11
(lp2054
sg13
S'com.android.server.hdmi.OneTouchRecordAction'
p2055
sg15
(lp2056
sg17
(lp2057
sg19
(lp2058
sg21
I0
sba(iArchitecture
Entity
p2059
(dp2060
g11
(lp2061
sg13
S'com.android.server.hdmi.OneTouchRecordAction$1'
p2062
sg15
(lp2063
sg17
(lp2064
sg19
(lp2065
sg21
I0
sbasg78
(lp2066
g2055
ag2062
asg21
I0
sg80
S'753'
p2067
sba(iArchitecture
Cluster
p2068
(dp2069
g7
(lp2070
(iArchitecture
Entity
p2071
(dp2072
g11
(lp2073
sg13
S'com.android.server.hdmi.TimerRecordingAction'
p2074
sg15
(lp2075
sg17
(lp2076
sg19
(lp2077
sg21
I0
sba(iArchitecture
Entity
p2078
(dp2079
g11
(lp2080
sg13
S'com.android.server.hdmi.TimerRecordingAction$1'
p2081
sg15
(lp2082
sg17
(lp2083
sg19
(lp2084
sg21
I0
sbasg78
(lp2085
g2074
ag2081
asg21
I0
sg80
S'756'
p2086
sba(iArchitecture
Cluster
p2087
(dp2088
g7
(lp2089
(iArchitecture
Entity
p2090
(dp2091
g11
(lp2092
sg13
S'com.android.server.hdmi.HdmiCecMessage'
p2093
sg15
(lp2094
sg17
(lp2095
sg19
(lp2096
sg21
I0
sbasg78
(lp2097
g2093
asg21
I0
sg80
S'87'
p2098
sba(iArchitecture
Cluster
p2099
(dp2100
g7
(lp2101
(iArchitecture
Entity
p2102
(dp2103
g11
(lp2104
sg13
S'com.android.server.hdmi.HdmiCecFeatureAction'
p2105
sg15
(lp2106
sg17
(lp2107
sg19
(lp2108
sg21
I0
sba(iArchitecture
Entity
p2109
(dp2110
g11
(lp2111
sg13
S'com.android.server.hdmi.HdmiCecFeatureAction$ActionTimer'
p2112
sg15
(lp2113
sg17
(lp2114
sg19
(lp2115
sg21
I0
sba(iArchitecture
Entity
p2116
(dp2117
g11
(lp2118
sg13
S'com.android.server.hdmi.HdmiCecFeatureAction$ActionTimerHandler'
p2119
sg15
(lp2120
sg17
(lp2121
sg19
(lp2122
sg21
I0
sbasg78
(lp2123
g2105
ag2112
ag2119
asg21
I0
sg80
S'907'
p2124
sbasg1043
g1044
sg78
(lp2125
sg1046
I00
sg80
S'7.0.0_r1'
p2126
sba.