(lp0
(iArchitecture
Architecture
p1
(dp2
S'clusters'
p3
(lp4
(iArchitecture
Cluster
p5
(dp6
S'entities'
p7
(lp8
(iArchitecture
Entity
p9
(dp10
S'issue_ids'
p11
(lp12
sS'name'
p13
S'android.transition.ChangeTransform'
p14
sS'descs'
p15
(lp16
sS'labels'
p17
(lp18
sS'titles'
p19
(lp20
sS'change'
p21
I0
sba(iArchitecture
Entity
p22
(dp23
g11
(lp24
sg13
S'android.transition.ChangeTransform$1'
p25
sg15
(lp26
sg17
(lp27
sg19
(lp28
sg21
I0
sba(iArchitecture
Entity
p29
(dp30
g11
(lp31
sg13
S'android.transition.ChangeTransform$2'
p32
sg15
(lp33
sg17
(lp34
sg19
(lp35
sg21
I0
sba(iArchitecture
Entity
p36
(dp37
g11
(lp38
sg13
S'android.transition.ChangeTransform$3'
p39
sg15
(lp40
sg17
(lp41
sg19
(lp42
sg21
I0
sba(iArchitecture
Entity
p43
(dp44
g11
(lp45
sg13
S'android.transition.ChangeTransform$GhostListener'
p46
sg15
(lp47
sg17
(lp48
sg19
(lp49
sg21
I0
sba(iArchitecture
Entity
p50
(dp51
g11
(lp52
sg13
S'android.transition.ChangeTransform$PathAnimatorMatrix'
p53
sg15
(lp54
sg17
(lp55
sg19
(lp56
sg21
I0
sba(iArchitecture
Entity
p57
(dp58
g11
(lp59
sg13
S'android.transition.ChangeTransform$Transforms'
p60
sg15
(lp61
sg17
(lp62
sg19
(lp63
sg21
I0
sbasS'classes'
p64
(lp65
g14
ag25
ag32
ag39
ag46
ag53
ag60
asg21
I0
sS'label'
p66
S'1024'
p67
sba(iArchitecture
Cluster
p68
(dp69
g7
(lp70
(iArchitecture
Entity
p71
(dp72
g11
(lp73
sg13
S'android.transition.ChangeText'
p74
sg15
(lp75
sg17
(lp76
sg19
(lp77
sg21
I0
sba(iArchitecture
Entity
p78
(dp79
g11
(lp80
sg13
S'android.transition.ChangeText$1'
p81
sg15
(lp82
sg17
(lp83
sg19
(lp84
sg21
I0
sba(iArchitecture
Entity
p85
(dp86
g11
(lp87
sg13
S'android.transition.ChangeText$2'
p88
sg15
(lp89
sg17
(lp90
sg19
(lp91
sg21
I0
sba(iArchitecture
Entity
p92
(dp93
g11
(lp94
sg13
S'android.transition.ChangeText$3'
p95
sg15
(lp96
sg17
(lp97
sg19
(lp98
sg21
I0
sba(iArchitecture
Entity
p99
(dp100
g11
(lp101
sg13
S'android.transition.ChangeText$4'
p102
sg15
(lp103
sg17
(lp104
sg19
(lp105
sg21
I0
sba(iArchitecture
Entity
p106
(dp107
g11
(lp108
sg13
S'android.transition.ChangeText$5'
p109
sg15
(lp110
sg17
(lp111
sg19
(lp112
sg21
I0
sba(iArchitecture
Entity
p113
(dp114
g11
(lp115
sg13
S'android.transition.ChangeText$6'
p116
sg15
(lp117
sg17
(lp118
sg19
(lp119
sg21
I0
sbasg64
(lp120
g74
ag81
ag88
ag95
ag102
ag109
ag116
asg21
I0
sg66
S'1041'
p121
sba(iArchitecture
Cluster
p122
(dp123
g7
(lp124
(iArchitecture
Entity
p125
(dp126
g11
(lp127
sg13
S'android.transition.ChangeBounds'
p128
sg15
(lp129
sg17
(lp130
sg19
(lp131
sg21
I0
sba(iArchitecture
Entity
p132
(dp133
g11
(lp134
sg13
S'android.transition.ChangeBounds$1'
p135
sg15
(lp136
sg17
(lp137
sg19
(lp138
sg21
I0
sba(iArchitecture
Entity
p139
(dp140
g11
(lp141
sg13
S'android.transition.ChangeBounds$10'
p142
sg15
(lp143
sg17
(lp144
sg19
(lp145
sg21
I0
sba(iArchitecture
Entity
p146
(dp147
g11
(lp148
sg13
S'android.transition.ChangeBounds$2'
p149
sg15
(lp150
sg17
(lp151
sg19
(lp152
sg21
I0
sba(iArchitecture
Entity
p153
(dp154
g11
(lp155
sg13
S'android.transition.ChangeBounds$3'
p156
sg15
(lp157
sg17
(lp158
sg19
(lp159
sg21
I0
sba(iArchitecture
Entity
p160
(dp161
g11
(lp162
sg13
S'android.transition.ChangeBounds$4'
p163
sg15
(lp164
sg17
(lp165
sg19
(lp166
sg21
I0
sba(iArchitecture
Entity
p167
(dp168
g11
(lp169
sg13
S'android.transition.ChangeBounds$5'
p170
sg15
(lp171
sg17
(lp172
sg19
(lp173
sg21
I0
sba(iArchitecture
Entity
p174
(dp175
g11
(lp176
sg13
S'android.transition.ChangeBounds$6'
p177
sg15
(lp178
sg17
(lp179
sg19
(lp180
sg21
I0
sba(iArchitecture
Entity
p181
(dp182
g11
(lp183
sg13
S'android.transition.ChangeBounds$7'
p184
sg15
(lp185
sg17
(lp186
sg19
(lp187
sg21
I0
sba(iArchitecture
Entity
p188
(dp189
g11
(lp190
sg13
S'android.transition.ChangeBounds$8'
p191
sg15
(lp192
sg17
(lp193
sg19
(lp194
sg21
I0
sba(iArchitecture
Entity
p195
(dp196
g11
(lp197
sg13
S'android.transition.ChangeBounds$9'
p198
sg15
(lp199
sg17
(lp200
sg19
(lp201
sg21
I0
sba(iArchitecture
Entity
p202
(dp203
g11
(lp204
sg13
S'android.transition.ChangeBounds$ViewBounds'
p205
sg15
(lp206
sg17
(lp207
sg19
(lp208
sg21
I0
sbasg64
(lp209
g128
ag135
ag142
ag149
ag156
ag163
ag170
ag177
ag184
ag191
ag198
ag205
asg21
I0
sg66
S'1058'
p210
sba(iArchitecture
Cluster
p211
(dp212
g7
(lp213
(iArchitecture
Entity
p214
(dp215
g11
(lp216
sg13
S'android.transition.Slide'
p217
sg15
(lp218
sg17
(lp219
sg19
(lp220
sg21
I0
sba(iArchitecture
Entity
p221
(dp222
g11
(lp223
sg13
S'android.transition.Slide$1'
p224
sg15
(lp225
sg17
(lp226
sg19
(lp227
sg21
I0
sba(iArchitecture
Entity
p228
(dp229
g11
(lp230
sg13
S'android.transition.Slide$2'
p231
sg15
(lp232
sg17
(lp233
sg19
(lp234
sg21
I0
sba(iArchitecture
Entity
p235
(dp236
g11
(lp237
sg13
S'android.transition.Slide$3'
p238
sg15
(lp239
sg17
(lp240
sg19
(lp241
sg21
I0
sba(iArchitecture
Entity
p242
(dp243
g11
(lp244
sg13
S'android.transition.Slide$4'
p245
sg15
(lp246
sg17
(lp247
sg19
(lp248
sg21
I0
sba(iArchitecture
Entity
p249
(dp250
g11
(lp251
sg13
S'android.transition.Slide$5'
p252
sg15
(lp253
sg17
(lp254
sg19
(lp255
sg21
I0
sba(iArchitecture
Entity
p256
(dp257
g11
(lp258
sg13
S'android.transition.Slide$6'
p259
sg15
(lp260
sg17
(lp261
sg19
(lp262
sg21
I0
sba(iArchitecture
Entity
p263
(dp264
g11
(lp265
sg13
S'android.transition.Slide$CalculateSlide'
p266
sg15
(lp267
sg17
(lp268
sg19
(lp269
sg21
I0
sba(iArchitecture
Entity
p270
(dp271
g11
(lp272
sg13
S'android.transition.Slide$CalculateSlideHorizontal'
p273
sg15
(lp274
sg17
(lp275
sg19
(lp276
sg21
I0
sba(iArchitecture
Entity
p277
(dp278
g11
(lp279
sg13
S'android.transition.Slide$CalculateSlideVertical'
p280
sg15
(lp281
sg17
(lp282
sg19
(lp283
sg21
I0
sbasg64
(lp284
g217
ag224
ag231
ag238
ag245
ag252
ag259
ag266
ag273
ag280
asg21
I0
sg66
S'1070'
p285
sba(iArchitecture
Cluster
p286
(dp287
g7
(lp288
(iArchitecture
Entity
p289
(dp290
g11
(lp291
sg13
S'android.transition.ChangeImageTransform'
p292
sg15
(lp293
sg17
(lp294
sg19
(lp295
sg21
I0
sba(iArchitecture
Entity
p296
(dp297
g11
(lp298
sg13
S'android.transition.ChangeImageTransform$1'
p299
sg15
(lp300
sg17
(lp301
sg19
(lp302
sg21
I0
sba(iArchitecture
Entity
p303
(dp304
g11
(lp305
sg13
S'android.transition.ChangeImageTransform$2'
p306
sg15
(lp307
sg17
(lp308
sg19
(lp309
sg21
I0
sba(iArchitecture
Entity
p310
(dp311
g11
(lp312
sg13
S'android.transition.TransitionUtils'
p313
sg15
(lp314
sg17
(lp315
sg19
(lp316
sg21
I0
sba(iArchitecture
Entity
p317
(dp318
g11
(lp319
sg13
S'android.transition.TransitionUtils$MatrixEvaluator'
p320
sg15
(lp321
sg17
(lp322
sg19
(lp323
sg21
I0
sbasg64
(lp324
g292
ag299
ag306
ag313
ag320
asg21
I0
sg66
S'1118'
p325
sba(iArchitecture
Cluster
p326
(dp327
g7
(lp328
(iArchitecture
Entity
p329
(dp330
g11
(lp331
sg13
S'android.transition.VisibilityPropagation'
p332
sg15
(lp333
sg17
(lp334
sg19
(lp335
sg21
I0
sbasg64
(lp336
g332
asg21
I0
sg66
S'112'
p337
sba(iArchitecture
Cluster
p338
(dp339
g7
(lp340
(iArchitecture
Entity
p341
(dp342
g11
(lp343
sg13
S'android.transition.CircularPropagation'
p344
sg15
(lp345
sg17
(lp346
sg19
(lp347
sg21
I0
sba(iArchitecture
Entity
p348
(dp349
g11
(lp350
sg13
S'android.transition.Explode'
p351
sg15
(lp352
sg17
(lp353
sg19
(lp354
sg21
I0
sba(iArchitecture
Entity
p355
(dp356
g11
(lp357
sg13
S'android.transition.SidePropagation'
p358
sg15
(lp359
sg17
(lp360
sg19
(lp361
sg21
I0
sbasg64
(lp362
g344
ag351
ag358
asg21
I0
sg66
S'1194'
p363
sba(iArchitecture
Cluster
p364
(dp365
g7
(lp366
(iArchitecture
Entity
p367
(dp368
g11
(lp369
sg13
S'android.transition.ArcMotion'
p370
sg15
(lp371
sg17
(lp372
sg19
(lp373
sg21
I0
sbasg64
(lp374
g370
asg21
I0
sg66
S'120'
p375
sba(iArchitecture
Cluster
p376
(dp377
g7
(lp378
(iArchitecture
Entity
p379
(dp380
g11
(lp381
sg13
S'android.transition.Transition'
p382
sg15
(lp383
sg17
(lp384
sg19
(lp385
sg21
I0
sba(iArchitecture
Entity
p386
(dp387
g11
(lp388
sg13
S'android.transition.Transition$1'
p389
sg15
(lp390
sg17
(lp391
sg19
(lp392
sg21
I0
sba(iArchitecture
Entity
p393
(dp394
g11
(lp395
sg13
S'android.transition.Transition$2'
p396
sg15
(lp397
sg17
(lp398
sg19
(lp399
sg21
I0
sba(iArchitecture
Entity
p400
(dp401
g11
(lp402
sg13
S'android.transition.Transition$3'
p403
sg15
(lp404
sg17
(lp405
sg19
(lp406
sg21
I0
sba(iArchitecture
Entity
p407
(dp408
g11
(lp409
sg13
S'android.transition.Transition$AnimationInfo'
p410
sg15
(lp411
sg17
(lp412
sg19
(lp413
sg21
I0
sba(iArchitecture
Entity
p414
(dp415
g11
(lp416
sg13
S'android.transition.Transition$ArrayListManager'
p417
sg15
(lp418
sg17
(lp419
sg19
(lp420
sg21
I0
sba(iArchitecture
Entity
p421
(dp422
g11
(lp423
sg13
S'android.transition.Transition$EpicenterCallback'
p424
sg15
(lp425
sg17
(lp426
sg19
(lp427
sg21
I0
sba(iArchitecture
Entity
p428
(dp429
g11
(lp430
sg13
S'android.transition.Transition$TransitionListener'
p431
sg15
(lp432
sg17
(lp433
sg19
(lp434
sg21
I0
sba(iArchitecture
Entity
p435
(dp436
g11
(lp437
sg13
S'android.transition.Transition$TransitionListenerAdapter'
p438
sg15
(lp439
sg17
(lp440
sg19
(lp441
sg21
I0
sba(iArchitecture
Entity
p442
(dp443
g11
(lp444
sg13
S'android.transition.TransitionSet'
p445
sg15
(lp446
sg17
(lp447
sg19
(lp448
sg21
I0
sba(iArchitecture
Entity
p449
(dp450
g11
(lp451
sg13
S'android.transition.TransitionSet$1'
p452
sg15
(lp453
sg17
(lp454
sg19
(lp455
sg21
I0
sba(iArchitecture
Entity
p456
(dp457
g11
(lp458
sg13
S'android.transition.TransitionSet$TransitionSetListener'
p459
sg15
(lp460
sg17
(lp461
sg19
(lp462
sg21
I0
sbasg64
(lp463
g382
ag389
ag396
ag403
ag410
ag417
ag424
ag431
ag438
ag445
ag452
ag459
asg21
I0
sg66
S'1226'
p464
sba(iArchitecture
Cluster
p465
(dp466
g7
(lp467
(iArchitecture
Entity
p468
(dp469
g11
(lp470
sg13
S'android.transition.Scene'
p471
sg15
(lp472
sg17
(lp473
sg19
(lp474
sg21
I0
sbasg64
(lp475
g471
asg21
I0
sg66
S'1232'
p476
sba(iArchitecture
Cluster
p477
(dp478
g7
(lp479
(iArchitecture
Entity
p480
(dp481
g11
(lp482
sg13
S'android.transition.TransitionValuesMaps'
p483
sg15
(lp484
sg17
(lp485
sg19
(lp486
sg21
I0
sbasg64
(lp487
g483
asg21
I0
sg66
S'1237'
p488
sba(iArchitecture
Cluster
p489
(dp490
g7
(lp491
(iArchitecture
Entity
p492
(dp493
g11
(lp494
sg13
S'android.transition.AutoTransition'
p495
sg15
(lp496
sg17
(lp497
sg19
(lp498
sg21
I0
sba(iArchitecture
Entity
p499
(dp500
g11
(lp501
sg13
S'android.transition.PathMotion'
p502
sg15
(lp503
sg17
(lp504
sg19
(lp505
sg21
I0
sbasg64
(lp506
g495
ag502
asg21
I0
sg66
S'1246'
p507
sba(iArchitecture
Cluster
p508
(dp509
g7
(lp510
(iArchitecture
Entity
p511
(dp512
g11
(lp513
sg13
S'android.transition.ChangeClipBounds'
p514
sg15
(lp515
sg17
(lp516
sg19
(lp517
sg21
I0
sba(iArchitecture
Entity
p518
(dp519
g11
(lp520
sg13
S'android.transition.ChangeScroll'
p521
sg15
(lp522
sg17
(lp523
sg19
(lp524
sg21
I0
sba(iArchitecture
Entity
p525
(dp526
g11
(lp527
sg13
S'android.transition.Recolor'
p528
sg15
(lp529
sg17
(lp530
sg19
(lp531
sg21
I0
sba(iArchitecture
Entity
p532
(dp533
g11
(lp534
sg13
S'android.transition.TransitionPropagation'
p535
sg15
(lp536
sg17
(lp537
sg19
(lp538
sg21
I0
sba(iArchitecture
Entity
p539
(dp540
g11
(lp541
sg13
S'android.transition.TransitionValues'
p542
sg15
(lp543
sg17
(lp544
sg19
(lp545
sg21
I0
sbasg64
(lp546
g514
ag521
ag528
ag535
ag542
asg21
I0
sg66
S'1251'
p547
sba(iArchitecture
Cluster
p548
(dp549
g7
(lp550
(iArchitecture
Entity
p551
(dp552
g11
(lp553
sg13
S'android.transition.PatternPathMotion'
p554
sg15
(lp555
sg17
(lp556
sg19
(lp557
sg21
I0
sbasg64
(lp558
g554
asg21
I0
sg66
S'212'
p559
sba(iArchitecture
Cluster
p560
(dp561
g7
(lp562
(iArchitecture
Entity
p563
(dp564
g11
(lp565
sg13
S'android.transition.TranslationAnimationCreator'
p566
sg15
(lp567
sg17
(lp568
sg19
(lp569
sg21
I0
sba(iArchitecture
Entity
p570
(dp571
g11
(lp572
sg13
S'android.transition.TranslationAnimationCreator$TransitionPositionListener'
p573
sg15
(lp574
sg17
(lp575
sg19
(lp576
sg21
I0
sbasg64
(lp577
g566
ag573
asg21
I0
sg66
S'526'
p578
sba(iArchitecture
Cluster
p579
(dp580
g7
(lp581
(iArchitecture
Entity
p582
(dp583
g11
(lp584
sg13
S'android.transition.Rotate'
p585
sg15
(lp586
sg17
(lp587
sg19
(lp588
sg21
I0
sbasg64
(lp589
g585
asg21
I0
sg66
S'56'
p590
sba(iArchitecture
Cluster
p591
(dp592
g7
(lp593
(iArchitecture
Entity
p594
(dp595
g11
(lp596
sg13
S'android.transition.TransitionInflater'
p597
sg15
(lp598
sg17
(lp599
sg19
(lp600
sg21
I0
sbasg64
(lp601
g597
asg21
I0
sg66
S'73'
p602
sba(iArchitecture
Cluster
p603
(dp604
g7
(lp605
(iArchitecture
Entity
p606
(dp607
g11
(lp608
sg13
S'android.transition.Crossfade'
p609
sg15
(lp610
sg17
(lp611
sg19
(lp612
sg21
I0
sba(iArchitecture
Entity
p613
(dp614
g11
(lp615
sg13
S'android.transition.Crossfade$1'
p616
sg15
(lp617
sg17
(lp618
sg19
(lp619
sg21
I0
sba(iArchitecture
Entity
p620
(dp621
g11
(lp622
sg13
S'android.transition.Crossfade$2'
p623
sg15
(lp624
sg17
(lp625
sg19
(lp626
sg21
I0
sbasg64
(lp627
g609
ag616
ag623
asg21
I0
sg66
S'784'
p628
sba(iArchitecture
Cluster
p629
(dp630
g7
(lp631
(iArchitecture
Entity
p632
(dp633
g11
(lp634
sg13
S'android.transition.TransitionManager'
p635
sg15
(lp636
sg17
(lp637
sg19
(lp638
sg21
I0
sba(iArchitecture
Entity
p639
(dp640
g11
(lp641
sg13
S'android.transition.TransitionManager$MultiListener'
p642
sg15
(lp643
sg17
(lp644
sg19
(lp645
sg21
I0
sba(iArchitecture
Entity
p646
(dp647
g11
(lp648
sg13
S'android.transition.TransitionManager$MultiListener$1'
p649
sg15
(lp650
sg17
(lp651
sg19
(lp652
sg21
I0
sbasg64
(lp653
g635
ag642
ag649
asg21
I0
sg66
S'791'
p654
sba(iArchitecture
Cluster
p655
(dp656
g7
(lp657
(iArchitecture
Entity
p658
(dp659
g11
(lp660
sg13
S'android.transition.Fade'
p661
sg15
(lp662
sg17
(lp663
sg19
(lp664
sg21
I0
sba(iArchitecture
Entity
p665
(dp666
g11
(lp667
sg13
S'android.transition.Fade$1'
p668
sg15
(lp669
sg17
(lp670
sg19
(lp671
sg21
I0
sba(iArchitecture
Entity
p672
(dp673
g11
(lp674
sg13
S'android.transition.Fade$FadeAnimatorListener'
p675
sg15
(lp676
sg17
(lp677
sg19
(lp678
sg21
I0
sbasg64
(lp679
g661
ag668
ag675
asg21
I0
sg66
S'800'
p680
sba(iArchitecture
Cluster
p681
(dp682
g7
(lp683
(iArchitecture
Entity
p684
(dp685
g11
(lp686
sg13
S'android.transition.Visibility'
p687
sg15
(lp688
sg17
(lp689
sg19
(lp690
sg21
I0
sba(iArchitecture
Entity
p691
(dp692
g11
(lp693
sg13
S'android.transition.Visibility$1'
p694
sg15
(lp695
sg17
(lp696
sg19
(lp697
sg21
I0
sba(iArchitecture
Entity
p698
(dp699
g11
(lp700
sg13
S'android.transition.Visibility$DisappearListener'
p701
sg15
(lp702
sg17
(lp703
sg19
(lp704
sg21
I0
sba(iArchitecture
Entity
p705
(dp706
g11
(lp707
sg13
S'android.transition.Visibility$VisibilityInfo'
p708
sg15
(lp709
sg17
(lp710
sg19
(lp711
sg21
I0
sbasg64
(lp712
g687
ag694
ag701
ag708
asg21
I0
sg66
S'837'
p713
sbasS'target_sub'
p714
S'android.transition'
p715
sg64
(lp716
sS'is_component_arch'
p717
I00
sg66
S'6.0.0_r1'
p718
sba(iArchitecture
Architecture
p719
(dp720
g3
(lp721
(iArchitecture
Cluster
p722
(dp723
g7
(lp724
(iArchitecture
Entity
p725
(dp726
g11
(lp727
sg13
S'android.transition.ChangeTransform'
p728
sg15
(lp729
sg17
(lp730
sg19
(lp731
sg21
I0
sba(iArchitecture
Entity
p732
(dp733
g11
(lp734
sg13
S'android.transition.ChangeTransform$1'
p735
sg15
(lp736
sg17
(lp737
sg19
(lp738
sg21
I0
sba(iArchitecture
Entity
p739
(dp740
g11
(lp741
sg13
S'android.transition.ChangeTransform$2'
p742
sg15
(lp743
sg17
(lp744
sg19
(lp745
sg21
I0
sba(iArchitecture
Entity
p746
(dp747
g11
(lp748
sg13
S'android.transition.ChangeTransform$3'
p749
sg15
(lp750
sg17
(lp751
sg19
(lp752
sg21
I0
sba(iArchitecture
Entity
p753
(dp754
g11
(lp755
sg13
S'android.transition.ChangeTransform$GhostListener'
p756
sg15
(lp757
sg17
(lp758
sg19
(lp759
sg21
I0
sba(iArchitecture
Entity
p760
(dp761
g11
(lp762
sg13
S'android.transition.ChangeTransform$PathAnimatorMatrix'
p763
sg15
(lp764
sg17
(lp765
sg19
(lp766
sg21
I0
sba(iArchitecture
Entity
p767
(dp768
g11
(lp769
sg13
S'android.transition.ChangeTransform$Transforms'
p770
sg15
(lp771
sg17
(lp772
sg19
(lp773
sg21
I0
sbasg64
(lp774
g728
ag735
ag742
ag749
ag756
ag763
ag770
asg21
I0
sg66
S'1151'
p775
sba(iArchitecture
Cluster
p776
(dp777
g7
(lp778
(iArchitecture
Entity
p779
(dp780
g11
(lp781
sg13
S'android.transition.ChangeText'
p782
sg15
(lp783
sg17
(lp784
sg19
(lp785
sg21
I0
sba(iArchitecture
Entity
p786
(dp787
g11
(lp788
sg13
S'android.transition.ChangeText$1'
p789
sg15
(lp790
sg17
(lp791
sg19
(lp792
sg21
I0
sba(iArchitecture
Entity
p793
(dp794
g11
(lp795
sg13
S'android.transition.ChangeText$2'
p796
sg15
(lp797
sg17
(lp798
sg19
(lp799
sg21
I0
sba(iArchitecture
Entity
p800
(dp801
g11
(lp802
sg13
S'android.transition.ChangeText$3'
p803
sg15
(lp804
sg17
(lp805
sg19
(lp806
sg21
I0
sba(iArchitecture
Entity
p807
(dp808
g11
(lp809
sg13
S'android.transition.ChangeText$4'
p810
sg15
(lp811
sg17
(lp812
sg19
(lp813
sg21
I0
sba(iArchitecture
Entity
p814
(dp815
g11
(lp816
sg13
S'android.transition.ChangeText$5'
p817
sg15
(lp818
sg17
(lp819
sg19
(lp820
sg21
I0
sba(iArchitecture
Entity
p821
(dp822
g11
(lp823
sg13
S'android.transition.ChangeText$6'
p824
sg15
(lp825
sg17
(lp826
sg19
(lp827
sg21
I0
sbasg64
(lp828
g782
ag789
ag796
ag803
ag810
ag817
ag824
asg21
I0
sg66
S'1169'
p829
sba(iArchitecture
Cluster
p830
(dp831
g7
(lp832
(iArchitecture
Entity
p833
(dp834
g11
(lp835
sg13
S'android.transition.ChangeBounds'
p836
sg15
(lp837
sg17
(lp838
sg19
(lp839
sg21
I0
sba(iArchitecture
Entity
p840
(dp841
g11
(lp842
sg13
S'android.transition.ChangeBounds$1'
p843
sg15
(lp844
sg17
(lp845
sg19
(lp846
sg21
I0
sba(iArchitecture
Entity
p847
(dp848
g11
(lp849
sg13
S'android.transition.ChangeBounds$10'
p850
sg15
(lp851
sg17
(lp852
sg19
(lp853
sg21
I0
sba(iArchitecture
Entity
p854
(dp855
g11
(lp856
sg13
S'android.transition.ChangeBounds$2'
p857
sg15
(lp858
sg17
(lp859
sg19
(lp860
sg21
I0
sba(iArchitecture
Entity
p861
(dp862
g11
(lp863
sg13
S'android.transition.ChangeBounds$3'
p864
sg15
(lp865
sg17
(lp866
sg19
(lp867
sg21
I0
sba(iArchitecture
Entity
p868
(dp869
g11
(lp870
sg13
S'android.transition.ChangeBounds$4'
p871
sg15
(lp872
sg17
(lp873
sg19
(lp874
sg21
I0
sba(iArchitecture
Entity
p875
(dp876
g11
(lp877
sg13
S'android.transition.ChangeBounds$5'
p878
sg15
(lp879
sg17
(lp880
sg19
(lp881
sg21
I0
sba(iArchitecture
Entity
p882
(dp883
g11
(lp884
sg13
S'android.transition.ChangeBounds$6'
p885
sg15
(lp886
sg17
(lp887
sg19
(lp888
sg21
I0
sba(iArchitecture
Entity
p889
(dp890
g11
(lp891
sg13
S'android.transition.ChangeBounds$7'
p892
sg15
(lp893
sg17
(lp894
sg19
(lp895
sg21
I0
sba(iArchitecture
Entity
p896
(dp897
g11
(lp898
sg13
S'android.transition.ChangeBounds$8'
p899
sg15
(lp900
sg17
(lp901
sg19
(lp902
sg21
I0
sba(iArchitecture
Entity
p903
(dp904
g11
(lp905
sg13
S'android.transition.ChangeBounds$9'
p906
sg15
(lp907
sg17
(lp908
sg19
(lp909
sg21
I0
sba(iArchitecture
Entity
p910
(dp911
g11
(lp912
sg13
S'android.transition.ChangeBounds$ViewBounds'
p913
sg15
(lp914
sg17
(lp915
sg19
(lp916
sg21
I0
sbasg64
(lp917
g836
ag843
ag850
ag857
ag864
ag871
ag878
ag885
ag892
ag899
ag906
ag913
asg21
I0
sg66
S'1188'
p918
sba(iArchitecture
Cluster
p919
(dp920
g7
(lp921
(iArchitecture
Entity
p922
(dp923
g11
(lp924
sg13
S'android.transition.Slide'
p925
sg15
(lp926
sg17
(lp927
sg19
(lp928
sg21
I0
sba(iArchitecture
Entity
p929
(dp930
g11
(lp931
sg13
S'android.transition.Slide$1'
p932
sg15
(lp933
sg17
(lp934
sg19
(lp935
sg21
I0
sba(iArchitecture
Entity
p936
(dp937
g11
(lp938
sg13
S'android.transition.Slide$2'
p939
sg15
(lp940
sg17
(lp941
sg19
(lp942
sg21
I0
sba(iArchitecture
Entity
p943
(dp944
g11
(lp945
sg13
S'android.transition.Slide$3'
p946
sg15
(lp947
sg17
(lp948
sg19
(lp949
sg21
I0
sba(iArchitecture
Entity
p950
(dp951
g11
(lp952
sg13
S'android.transition.Slide$4'
p953
sg15
(lp954
sg17
(lp955
sg19
(lp956
sg21
I0
sba(iArchitecture
Entity
p957
(dp958
g11
(lp959
sg13
S'android.transition.Slide$5'
p960
sg15
(lp961
sg17
(lp962
sg19
(lp963
sg21
I0
sba(iArchitecture
Entity
p964
(dp965
g11
(lp966
sg13
S'android.transition.Slide$6'
p967
sg15
(lp968
sg17
(lp969
sg19
(lp970
sg21
I0
sba(iArchitecture
Entity
p971
(dp972
g11
(lp973
sg13
S'android.transition.Slide$CalculateSlide'
p974
sg15
(lp975
sg17
(lp976
sg19
(lp977
sg21
I0
sba(iArchitecture
Entity
p978
(dp979
g11
(lp980
sg13
S'android.transition.Slide$CalculateSlideHorizontal'
p981
sg15
(lp982
sg17
(lp983
sg19
(lp984
sg21
I0
sba(iArchitecture
Entity
p985
(dp986
g11
(lp987
sg13
S'android.transition.Slide$CalculateSlideVertical'
p988
sg15
(lp989
sg17
(lp990
sg19
(lp991
sg21
I0
sbasg64
(lp992
g925
ag932
ag939
ag946
ag953
ag960
ag967
ag974
ag981
ag988
asg21
I0
sg66
S'1198'
p993
sba(iArchitecture
Cluster
p994
(dp995
g7
(lp996
(iArchitecture
Entity
p997
(dp998
g11
(lp999
sg13
S'android.transition.ChangeImageTransform'
p1000
sg15
(lp1001
sg17
(lp1002
sg19
(lp1003
sg21
I0
sba(iArchitecture
Entity
p1004
(dp1005
g11
(lp1006
sg13
S'android.transition.ChangeImageTransform$1'
p1007
sg15
(lp1008
sg17
(lp1009
sg19
(lp1010
sg21
I0
sba(iArchitecture
Entity
p1011
(dp1012
g11
(lp1013
sg13
S'android.transition.ChangeImageTransform$2'
p1014
sg15
(lp1015
sg17
(lp1016
sg19
(lp1017
sg21
I0
sba(iArchitecture
Entity
p1018
(dp1019
g11
(lp1020
sg13
S'android.transition.TransitionUtils'
p1021
sg15
(lp1022
sg17
(lp1023
sg19
(lp1024
sg21
I0
sba(iArchitecture
Entity
p1025
(dp1026
g11
(lp1027
sg13
S'android.transition.TransitionUtils$MatrixEvaluator'
p1028
sg15
(lp1029
sg17
(lp1030
sg19
(lp1031
sg21
I0
sbasg64
(lp1032
g1000
ag1007
ag1014
ag1021
ag1028
asg21
I0
sg66
S'1257'
p1033
sba(iArchitecture
Cluster
p1034
(dp1035
g7
(lp1036
(iArchitecture
Entity
p1037
(dp1038
g11
(lp1039
sg13
S'android.transition.VisibilityPropagation'
p1040
sg15
(lp1041
sg17
(lp1042
sg19
(lp1043
sg21
I0
sbasg64
(lp1044
g1040
asg21
I0
sg66
S'127'
p1045
sba(iArchitecture
Cluster
p1046
(dp1047
g7
(lp1048
(iArchitecture
Entity
p1049
(dp1050
g11
(lp1051
sg13
S'android.transition.PathMotion'
p1052
sg15
(lp1053
sg17
(lp1054
sg19
(lp1055
sg21
I0
sbasg64
(lp1056
g1052
asg21
I0
sg66
S'1313'
p1057
sba(iArchitecture
Cluster
p1058
(dp1059
g7
(lp1060
(iArchitecture
Entity
p1061
(dp1062
g11
(lp1063
sg13
S'android.transition.TransitionValuesMaps'
p1064
sg15
(lp1065
sg17
(lp1066
sg19
(lp1067
sg21
I0
sbasg64
(lp1068
g1064
asg21
I0
sg66
S'1330'
p1069
sba(iArchitecture
Cluster
p1070
(dp1071
g7
(lp1072
(iArchitecture
Entity
p1073
(dp1074
g11
(lp1075
sg13
S'android.transition.CircularPropagation'
p1076
sg15
(lp1077
sg17
(lp1078
sg19
(lp1079
sg21
I0
sba(iArchitecture
Entity
p1080
(dp1081
g11
(lp1082
sg13
S'android.transition.Explode'
p1083
sg15
(lp1084
sg17
(lp1085
sg19
(lp1086
sg21
I0
sba(iArchitecture
Entity
p1087
(dp1088
g11
(lp1089
sg13
S'android.transition.SidePropagation'
p1090
sg15
(lp1091
sg17
(lp1092
sg19
(lp1093
sg21
I0
sbasg64
(lp1094
g1076
ag1083
ag1090
asg21
I0
sg66
S'1346'
p1095
sba(iArchitecture
Cluster
p1096
(dp1097
g7
(lp1098
(iArchitecture
Entity
p1099
(dp1100
g11
(lp1101
sg13
S'android.transition.ArcMotion'
p1102
sg15
(lp1103
sg17
(lp1104
sg19
(lp1105
sg21
I0
sbasg64
(lp1106
g1102
asg21
I0
sg66
S'135'
p1107
sba(iArchitecture
Cluster
p1108
(dp1109
g7
(lp1110
(iArchitecture
Entity
p1111
(dp1112
g11
(lp1113
sg13
S'android.transition.Transition'
p1114
sg15
(lp1115
sg17
(lp1116
sg19
(lp1117
sg21
I0
sba(iArchitecture
Entity
p1118
(dp1119
g11
(lp1120
sg13
S'android.transition.Transition$1'
p1121
sg15
(lp1122
sg17
(lp1123
sg19
(lp1124
sg21
I0
sba(iArchitecture
Entity
p1125
(dp1126
g11
(lp1127
sg13
S'android.transition.Transition$2'
p1128
sg15
(lp1129
sg17
(lp1130
sg19
(lp1131
sg21
I0
sba(iArchitecture
Entity
p1132
(dp1133
g11
(lp1134
sg13
S'android.transition.Transition$3'
p1135
sg15
(lp1136
sg17
(lp1137
sg19
(lp1138
sg21
I0
sba(iArchitecture
Entity
p1139
(dp1140
g11
(lp1141
sg13
S'android.transition.Transition$AnimationInfo'
p1142
sg15
(lp1143
sg17
(lp1144
sg19
(lp1145
sg21
I0
sba(iArchitecture
Entity
p1146
(dp1147
g11
(lp1148
sg13
S'android.transition.Transition$ArrayListManager'
p1149
sg15
(lp1150
sg17
(lp1151
sg19
(lp1152
sg21
I0
sba(iArchitecture
Entity
p1153
(dp1154
g11
(lp1155
sg13
S'android.transition.Transition$EpicenterCallback'
p1156
sg15
(lp1157
sg17
(lp1158
sg19
(lp1159
sg21
I0
sba(iArchitecture
Entity
p1160
(dp1161
g11
(lp1162
sg13
S'android.transition.Transition$TransitionListener'
p1163
sg15
(lp1164
sg17
(lp1165
sg19
(lp1166
sg21
I0
sba(iArchitecture
Entity
p1167
(dp1168
g11
(lp1169
sg13
S'android.transition.Transition$TransitionListenerAdapter'
p1170
sg15
(lp1171
sg17
(lp1172
sg19
(lp1173
sg21
I0
sba(iArchitecture
Entity
p1174
(dp1175
g11
(lp1176
sg13
S'android.transition.TransitionSet'
p1177
sg15
(lp1178
sg17
(lp1179
sg19
(lp1180
sg21
I0
sba(iArchitecture
Entity
p1181
(dp1182
g11
(lp1183
sg13
S'android.transition.TransitionSet$1'
p1184
sg15
(lp1185
sg17
(lp1186
sg19
(lp1187
sg21
I0
sba(iArchitecture
Entity
p1188
(dp1189
g11
(lp1190
sg13
S'android.transition.TransitionSet$TransitionSetListener'
p1191
sg15
(lp1192
sg17
(lp1193
sg19
(lp1194
sg21
I0
sbasg64
(lp1195
g1114
ag1121
ag1128
ag1135
ag1142
ag1149
ag1156
ag1163
ag1170
ag1177
ag1184
ag1191
asg21
I0
sg66
S'1374'
p1196
sba(iArchitecture
Cluster
p1197
(dp1198
g7
(lp1199
(iArchitecture
Entity
p1200
(dp1201
g11
(lp1202
sg13
S'android.transition.Scene'
p1203
sg15
(lp1204
sg17
(lp1205
sg19
(lp1206
sg21
I0
sbasg64
(lp1207
g1203
asg21
I0
sg66
S'1401'
p1208
sba(iArchitecture
Cluster
p1209
(dp1210
g7
(lp1211
(iArchitecture
Entity
p1212
(dp1213
g11
(lp1214
sg13
S'android.transition.ChangeClipBounds'
p1215
sg15
(lp1216
sg17
(lp1217
sg19
(lp1218
sg21
I0
sba(iArchitecture
Entity
p1219
(dp1220
g11
(lp1221
sg13
S'android.transition.ChangeScroll'
p1222
sg15
(lp1223
sg17
(lp1224
sg19
(lp1225
sg21
I0
sba(iArchitecture
Entity
p1226
(dp1227
g11
(lp1228
sg13
S'android.transition.Recolor'
p1229
sg15
(lp1230
sg17
(lp1231
sg19
(lp1232
sg21
I0
sba(iArchitecture
Entity
p1233
(dp1234
g11
(lp1235
sg13
S'android.transition.TransitionPropagation'
p1236
sg15
(lp1237
sg17
(lp1238
sg19
(lp1239
sg21
I0
sba(iArchitecture
Entity
p1240
(dp1241
g11
(lp1242
sg13
S'android.transition.TransitionValues'
p1243
sg15
(lp1244
sg17
(lp1245
sg19
(lp1246
sg21
I0
sbasg64
(lp1247
g1215
ag1222
ag1229
ag1236
ag1243
asg21
I0
sg66
S'1405'
p1248
sba(iArchitecture
Cluster
p1249
(dp1250
g7
(lp1251
(iArchitecture
Entity
p1252
(dp1253
g11
(lp1254
sg13
S'android.transition.Rotate'
p1255
sg15
(lp1256
sg17
(lp1257
sg19
(lp1258
sg21
I0
sbasg64
(lp1259
g1255
asg21
I0
sg66
S'1411'
p1260
sba(iArchitecture
Cluster
p1261
(dp1262
g7
(lp1263
(iArchitecture
Entity
p1264
(dp1265
g11
(lp1266
sg13
S'android.transition.PatternPathMotion'
p1267
sg15
(lp1268
sg17
(lp1269
sg19
(lp1270
sg21
I0
sbasg64
(lp1271
g1267
asg21
I0
sg66
S'235'
p1272
sba(iArchitecture
Cluster
p1273
(dp1274
g7
(lp1275
(iArchitecture
Entity
p1276
(dp1277
g11
(lp1278
sg13
S'android.transition.TranslationAnimationCreator'
p1279
sg15
(lp1280
sg17
(lp1281
sg19
(lp1282
sg21
I0
sba(iArchitecture
Entity
p1283
(dp1284
g11
(lp1285
sg13
S'android.transition.TranslationAnimationCreator$TransitionPositionListener'
p1286
sg15
(lp1287
sg17
(lp1288
sg19
(lp1289
sg21
I0
sbasg64
(lp1290
g1279
ag1286
asg21
I0
sg66
S'586'
p1291
sba(iArchitecture
Cluster
p1292
(dp1293
g7
(lp1294
(iArchitecture
Entity
p1295
(dp1296
g11
(lp1297
sg13
S'android.transition.TransitionInflater'
p1298
sg15
(lp1299
sg17
(lp1300
sg19
(lp1301
sg21
I0
sbasg64
(lp1302
g1298
asg21
I0
sg66
S'80'
p1303
sba(iArchitecture
Cluster
p1304
(dp1305
g7
(lp1306
(iArchitecture
Entity
p1307
(dp1308
g11
(lp1309
sg13
S'android.transition.AutoTransition'
p1310
sg15
(lp1311
sg17
(lp1312
sg19
(lp1313
sg21
I0
sbasg64
(lp1314
g1310
asg21
I0
sg66
S'81'
p1315
sba(iArchitecture
Cluster
p1316
(dp1317
g7
(lp1318
(iArchitecture
Entity
p1319
(dp1320
g11
(lp1321
sg13
S'android.transition.Crossfade'
p1322
sg15
(lp1323
sg17
(lp1324
sg19
(lp1325
sg21
I0
sba(iArchitecture
Entity
p1326
(dp1327
g11
(lp1328
sg13
S'android.transition.Crossfade$1'
p1329
sg15
(lp1330
sg17
(lp1331
sg19
(lp1332
sg21
I0
sba(iArchitecture
Entity
p1333
(dp1334
g11
(lp1335
sg13
S'android.transition.Crossfade$2'
p1336
sg15
(lp1337
sg17
(lp1338
sg19
(lp1339
sg21
I0
sbasg64
(lp1340
g1322
ag1329
ag1336
asg21
I0
sg66
S'881'
p1341
sba(iArchitecture
Cluster
p1342
(dp1343
g7
(lp1344
(iArchitecture
Entity
p1345
(dp1346
g11
(lp1347
sg13
S'android.transition.TransitionManager'
p1348
sg15
(lp1349
sg17
(lp1350
sg19
(lp1351
sg21
I0
sba(iArchitecture
Entity
p1352
(dp1353
g11
(lp1354
sg13
S'android.transition.TransitionManager$MultiListener'
p1355
sg15
(lp1356
sg17
(lp1357
sg19
(lp1358
sg21
I0
sba(iArchitecture
Entity
p1359
(dp1360
g11
(lp1361
sg13
S'android.transition.TransitionManager$MultiListener$1'
p1362
sg15
(lp1363
sg17
(lp1364
sg19
(lp1365
sg21
I0
sbasg64
(lp1366
g1348
ag1355
ag1362
asg21
I0
sg66
S'888'
p1367
sba(iArchitecture
Cluster
p1368
(dp1369
g7
(lp1370
(iArchitecture
Entity
p1371
(dp1372
g11
(lp1373
sg13
S'android.transition.Fade'
p1374
sg15
(lp1375
sg17
(lp1376
sg19
(lp1377
sg21
I0
sba(iArchitecture
Entity
p1378
(dp1379
g11
(lp1380
sg13
S'android.transition.Fade$1'
p1381
sg15
(lp1382
sg17
(lp1383
sg19
(lp1384
sg21
I0
sba(iArchitecture
Entity
p1385
(dp1386
g11
(lp1387
sg13
S'android.transition.Fade$FadeAnimatorListener'
p1388
sg15
(lp1389
sg17
(lp1390
sg19
(lp1391
sg21
I0
sbasg64
(lp1392
g1374
ag1381
ag1388
asg21
I0
sg66
S'896'
p1393
sba(iArchitecture
Cluster
p1394
(dp1395
g7
(lp1396
(iArchitecture
Entity
p1397
(dp1398
g11
(lp1399
sg13
S'android.transition.Visibility'
p1400
sg15
(lp1401
sg17
(lp1402
sg19
(lp1403
sg21
I0
sba(iArchitecture
Entity
p1404
(dp1405
g11
(lp1406
sg13
S'android.transition.Visibility$1'
p1407
sg15
(lp1408
sg17
(lp1409
sg19
(lp1410
sg21
I0
sba(iArchitecture
Entity
p1411
(dp1412
g11
(lp1413
sg13
S'android.transition.Visibility$DisappearListener'
p1414
sg15
(lp1415
sg17
(lp1416
sg19
(lp1417
sg21
I0
sba(iArchitecture
Entity
p1418
(dp1419
g11
(lp1420
sg13
S'android.transition.Visibility$VisibilityInfo'
p1421
sg15
(lp1422
sg17
(lp1423
sg19
(lp1424
sg21
I0
sbasg64
(lp1425
g1400
ag1407
ag1414
ag1421
asg21
I0
sg66
S'939'
p1426
sbasg714
g715
sg64
(lp1427
sg717
I00
sg66
S'7.0.0_r1'
p1428
sba.