(lp0
(iArchitecture
Architecture
p1
(dp2
S'clusters'
p3
(lp4
(iArchitecture
Cluster
p5
(dp6
S'entities'
p7
(lp8
(iArchitecture
Entity
p9
(dp10
S'issue_ids'
p11
(lp12
sS'name'
p13
S'android.os.AsyncTask'
p14
sS'descs'
p15
(lp16
sS'labels'
p17
(lp18
sS'titles'
p19
(lp20
sS'change'
p21
I0
sba(iArchitecture
Entity
p22
(dp23
g11
(lp24
sg13
S'android.os.AsyncTask$1'
p25
sg15
(lp26
sg17
(lp27
sg19
(lp28
sg21
I0
sba(iArchitecture
Entity
p29
(dp30
g11
(lp31
sg13
S'android.os.AsyncTask$2'
p32
sg15
(lp33
sg17
(lp34
sg19
(lp35
sg21
I0
sba(iArchitecture
Entity
p36
(dp37
g11
(lp38
sg13
S'android.os.AsyncTask$3'
p39
sg15
(lp40
sg17
(lp41
sg19
(lp42
sg21
I0
sba(iArchitecture
Entity
p43
(dp44
g11
(lp45
sg13
S'android.os.AsyncTask$AsyncTaskResult'
p46
sg15
(lp47
sg17
(lp48
sg19
(lp49
sg21
I0
sba(iArchitecture
Entity
p50
(dp51
g11
(lp52
sg13
S'android.os.AsyncTask$InternalHandler'
p53
sg15
(lp54
sg17
(lp55
sg19
(lp56
sg21
I0
sba(iArchitecture
Entity
p57
(dp58
g11
(lp59
sg13
S'android.os.AsyncTask$SerialExecutor'
p60
sg15
(lp61
sg17
(lp62
sg19
(lp63
sg21
I0
sba(iArchitecture
Entity
p64
(dp65
g11
(lp66
sg13
S'android.os.AsyncTask$SerialExecutor$1'
p67
sg15
(lp68
sg17
(lp69
sg19
(lp70
sg21
I0
sba(iArchitecture
Entity
p71
(dp72
g11
(lp73
sg13
S'android.os.AsyncTask$Status'
p74
sg15
(lp75
sg17
(lp76
sg19
(lp77
sg21
I0
sba(iArchitecture
Entity
p78
(dp79
g11
(lp80
sg13
S'android.os.AsyncTask$WorkerRunnable'
p81
sg15
(lp82
sg17
(lp83
sg19
(lp84
sg21
I0
sbasS'classes'
p85
(lp86
g14
ag25
ag32
ag39
ag46
ag53
ag60
ag67
ag74
ag81
asg21
I0
sS'label'
p87
S'1063'
p88
sba(iArchitecture
Cluster
p89
(dp90
g7
(lp91
(iArchitecture
Entity
p92
(dp93
g11
(lp94
sg13
S'android.os.StrictMode'
p95
sg15
(lp96
sg17
(lp97
sg19
(lp98
sg21
I0
sba(iArchitecture
Entity
p99
(dp100
g11
(lp101
sg13
S'android.os.StrictMode$1'
p102
sg15
(lp103
sg17
(lp104
sg19
(lp105
sg21
I0
sba(iArchitecture
Entity
p106
(dp107
g11
(lp108
sg13
S'android.os.StrictMode$2'
p109
sg15
(lp110
sg17
(lp111
sg19
(lp112
sg21
I0
sba(iArchitecture
Entity
p113
(dp114
g11
(lp115
sg13
S'android.os.StrictMode$3'
p116
sg15
(lp117
sg17
(lp118
sg19
(lp119
sg21
I0
sba(iArchitecture
Entity
p120
(dp121
g11
(lp122
sg13
S'android.os.StrictMode$4'
p123
sg15
(lp124
sg17
(lp125
sg19
(lp126
sg21
I0
sba(iArchitecture
Entity
p127
(dp128
g11
(lp129
sg13
S'android.os.StrictMode$5'
p130
sg15
(lp131
sg17
(lp132
sg19
(lp133
sg21
I0
sba(iArchitecture
Entity
p134
(dp135
g11
(lp136
sg13
S'android.os.StrictMode$6'
p137
sg15
(lp138
sg17
(lp139
sg19
(lp140
sg21
I0
sba(iArchitecture
Entity
p141
(dp142
g11
(lp143
sg13
S'android.os.StrictMode$7'
p144
sg15
(lp145
sg17
(lp146
sg19
(lp147
sg21
I0
sba(iArchitecture
Entity
p148
(dp149
g11
(lp150
sg13
S'android.os.StrictMode$8'
p151
sg15
(lp152
sg17
(lp153
sg19
(lp154
sg21
I0
sba(iArchitecture
Entity
p155
(dp156
g11
(lp157
sg13
S'android.os.StrictMode$9'
p158
sg15
(lp159
sg17
(lp160
sg19
(lp161
sg21
I0
sba(iArchitecture
Entity
p162
(dp163
g11
(lp164
sg13
S'android.os.StrictMode$AndroidBlockGuardPolicy'
p165
sg15
(lp166
sg17
(lp167
sg19
(lp168
sg21
I0
sba(iArchitecture
Entity
p169
(dp170
g11
(lp171
sg13
S'android.os.StrictMode$AndroidBlockGuardPolicy$1'
p172
sg15
(lp173
sg17
(lp174
sg19
(lp175
sg21
I0
sba(iArchitecture
Entity
p176
(dp177
g11
(lp178
sg13
S'android.os.StrictMode$AndroidCloseGuardReporter'
p179
sg15
(lp180
sg17
(lp181
sg19
(lp182
sg21
I0
sba(iArchitecture
Entity
p183
(dp184
g11
(lp185
sg13
S'android.os.StrictMode$InstanceCountViolation'
p186
sg15
(lp187
sg17
(lp188
sg19
(lp189
sg21
I0
sba(iArchitecture
Entity
p190
(dp191
g11
(lp192
sg13
S'android.os.StrictMode$InstanceTracker'
p193
sg15
(lp194
sg17
(lp195
sg19
(lp196
sg21
I0
sba(iArchitecture
Entity
p197
(dp198
g11
(lp199
sg13
S'android.os.StrictMode$LogStackTrace'
p200
sg15
(lp201
sg17
(lp202
sg19
(lp203
sg21
I0
sba(iArchitecture
Entity
p204
(dp205
g11
(lp206
sg13
S'android.os.StrictMode$Span'
p207
sg15
(lp208
sg17
(lp209
sg19
(lp210
sg21
I0
sba(iArchitecture
Entity
p211
(dp212
g11
(lp213
sg13
S'android.os.StrictMode$StrictModeCustomViolation'
p214
sg15
(lp215
sg17
(lp216
sg19
(lp217
sg21
I0
sba(iArchitecture
Entity
p218
(dp219
g11
(lp220
sg13
S'android.os.StrictMode$StrictModeDiskReadViolation'
p221
sg15
(lp222
sg17
(lp223
sg19
(lp224
sg21
I0
sba(iArchitecture
Entity
p225
(dp226
g11
(lp227
sg13
S'android.os.StrictMode$StrictModeDiskWriteViolation'
p228
sg15
(lp229
sg17
(lp230
sg19
(lp231
sg21
I0
sba(iArchitecture
Entity
p232
(dp233
g11
(lp234
sg13
S'android.os.StrictMode$StrictModeNetworkViolation'
p235
sg15
(lp236
sg17
(lp237
sg19
(lp238
sg21
I0
sba(iArchitecture
Entity
p239
(dp240
g11
(lp241
sg13
S'android.os.StrictMode$StrictModeResourceMismatchViolation'
p242
sg15
(lp243
sg17
(lp244
sg19
(lp245
sg21
I0
sba(iArchitecture
Entity
p246
(dp247
g11
(lp248
sg13
S'android.os.StrictMode$StrictModeViolation'
p249
sg15
(lp250
sg17
(lp251
sg19
(lp252
sg21
I0
sba(iArchitecture
Entity
p253
(dp254
g11
(lp255
sg13
S'android.os.StrictMode$ThreadPolicy'
p256
sg15
(lp257
sg17
(lp258
sg19
(lp259
sg21
I0
sba(iArchitecture
Entity
p260
(dp261
g11
(lp262
sg13
S'android.os.StrictMode$ThreadPolicy$Builder'
p263
sg15
(lp264
sg17
(lp265
sg19
(lp266
sg21
I0
sba(iArchitecture
Entity
p267
(dp268
g11
(lp269
sg13
S'android.os.StrictMode$ThreadSpanState'
p270
sg15
(lp271
sg17
(lp272
sg19
(lp273
sg21
I0
sba(iArchitecture
Entity
p274
(dp275
g11
(lp276
sg13
S'android.os.StrictMode$ViolationInfo'
p277
sg15
(lp278
sg17
(lp279
sg19
(lp280
sg21
I0
sba(iArchitecture
Entity
p281
(dp282
g11
(lp283
sg13
S'android.os.StrictMode$VmPolicy'
p284
sg15
(lp285
sg17
(lp286
sg19
(lp287
sg21
I0
sba(iArchitecture
Entity
p288
(dp289
g11
(lp290
sg13
S'android.os.StrictMode$VmPolicy$Builder'
p291
sg15
(lp292
sg17
(lp293
sg19
(lp294
sg21
I0
sbasg85
(lp295
g95
ag102
ag109
ag116
ag123
ag130
ag137
ag144
ag151
ag158
ag165
ag172
ag179
ag186
ag193
ag200
ag207
ag214
ag221
ag228
ag235
ag242
ag249
ag256
ag263
ag270
ag277
ag284
ag291
asg21
I0
sg87
S'1098'
p296
sba(iArchitecture
Cluster
p297
(dp298
g7
(lp299
(iArchitecture
Entity
p300
(dp301
g11
(lp302
sg13
S'android.os.BatteryStats'
p303
sg15
(lp304
sg17
(lp305
sg19
(lp306
sg21
I0
sba(iArchitecture
Entity
p307
(dp308
g11
(lp309
sg13
S'android.os.BatteryStats$1'
p310
sg15
(lp311
sg17
(lp312
sg19
(lp313
sg21
I0
sba(iArchitecture
Entity
p314
(dp315
g11
(lp316
sg13
S'android.os.BatteryStats$BitDescription'
p317
sg15
(lp318
sg17
(lp319
sg19
(lp320
sg21
I0
sba(iArchitecture
Entity
p321
(dp322
g11
(lp323
sg13
S'android.os.BatteryStats$Counter'
p324
sg15
(lp325
sg17
(lp326
sg19
(lp327
sg21
I0
sba(iArchitecture
Entity
p328
(dp329
g11
(lp330
sg13
S'android.os.BatteryStats$DailyItem'
p331
sg15
(lp332
sg17
(lp333
sg19
(lp334
sg21
I0
sba(iArchitecture
Entity
p335
(dp336
g11
(lp337
sg13
S'android.os.BatteryStats$HistoryEventTracker'
p338
sg15
(lp339
sg17
(lp340
sg19
(lp341
sg21
I0
sba(iArchitecture
Entity
p342
(dp343
g11
(lp344
sg13
S'android.os.BatteryStats$HistoryItem'
p345
sg15
(lp346
sg17
(lp347
sg19
(lp348
sg21
I0
sba(iArchitecture
Entity
p349
(dp350
g11
(lp351
sg13
S'android.os.BatteryStats$HistoryPrinter'
p352
sg15
(lp353
sg17
(lp354
sg19
(lp355
sg21
I0
sba(iArchitecture
Entity
p356
(dp357
g11
(lp358
sg13
S'android.os.BatteryStats$HistoryStepDetails'
p359
sg15
(lp360
sg17
(lp361
sg19
(lp362
sg21
I0
sba(iArchitecture
Entity
p363
(dp364
g11
(lp365
sg13
S'android.os.BatteryStats$HistoryTag'
p366
sg15
(lp367
sg17
(lp368
sg19
(lp369
sg21
I0
sba(iArchitecture
Entity
p370
(dp371
g11
(lp372
sg13
S'android.os.BatteryStats$LevelStepTracker'
p373
sg15
(lp374
sg17
(lp375
sg19
(lp376
sg21
I0
sba(iArchitecture
Entity
p377
(dp378
g11
(lp379
sg13
S'android.os.BatteryStats$LongCounter'
p380
sg15
(lp381
sg17
(lp382
sg19
(lp383
sg21
I0
sba(iArchitecture
Entity
p384
(dp385
g11
(lp386
sg13
S'android.os.BatteryStats$PackageChange'
p387
sg15
(lp388
sg17
(lp389
sg19
(lp390
sg21
I0
sba(iArchitecture
Entity
p391
(dp392
g11
(lp393
sg13
S'android.os.BatteryStats$Timer'
p394
sg15
(lp395
sg17
(lp396
sg19
(lp397
sg21
I0
sba(iArchitecture
Entity
p398
(dp399
g11
(lp400
sg13
S'android.os.BatteryStats$TimerEntry'
p401
sg15
(lp402
sg17
(lp403
sg19
(lp404
sg21
I0
sba(iArchitecture
Entity
p405
(dp406
g11
(lp407
sg13
S'android.os.BatteryStats$Uid'
p408
sg15
(lp409
sg17
(lp410
sg19
(lp411
sg21
I0
sba(iArchitecture
Entity
p412
(dp413
g11
(lp414
sg13
S'android.os.BatteryStats$Uid$Pid'
p415
sg15
(lp416
sg17
(lp417
sg19
(lp418
sg21
I0
sba(iArchitecture
Entity
p419
(dp420
g11
(lp421
sg13
S'android.os.BatteryStats$Uid$Pkg'
p422
sg15
(lp423
sg17
(lp424
sg19
(lp425
sg21
I0
sba(iArchitecture
Entity
p426
(dp427
g11
(lp428
sg13
S'android.os.BatteryStats$Uid$Pkg$Serv'
p429
sg15
(lp430
sg17
(lp431
sg19
(lp432
sg21
I0
sba(iArchitecture
Entity
p433
(dp434
g11
(lp435
sg13
S'android.os.BatteryStats$Uid$Proc'
p436
sg15
(lp437
sg17
(lp438
sg19
(lp439
sg21
I0
sba(iArchitecture
Entity
p440
(dp441
g11
(lp442
sg13
S'android.os.BatteryStats$Uid$Proc$ExcessivePower'
p443
sg15
(lp444
sg17
(lp445
sg19
(lp446
sg21
I0
sba(iArchitecture
Entity
p447
(dp448
g11
(lp449
sg13
S'android.os.BatteryStats$Uid$Sensor'
p450
sg15
(lp451
sg17
(lp452
sg19
(lp453
sg21
I0
sba(iArchitecture
Entity
p454
(dp455
g11
(lp456
sg13
S'android.os.BatteryStats$Uid$Wakelock'
p457
sg15
(lp458
sg17
(lp459
sg19
(lp460
sg21
I0
sbasg85
(lp461
g303
ag310
ag317
ag324
ag331
ag338
ag345
ag352
ag359
ag366
ag373
ag380
ag387
ag394
ag401
ag408
ag415
ag422
ag429
ag436
ag443
ag450
ag457
asg21
I0
sg87
S'1111'
p462
sba(iArchitecture
Cluster
p463
(dp464
g7
(lp465
(iArchitecture
Entity
p466
(dp467
g11
(lp468
sg13
S'android.os.ServiceManager'
p469
sg15
(lp470
sg17
(lp471
sg19
(lp472
sg21
I0
sba(iArchitecture
Entity
p473
(dp474
g11
(lp475
sg13
S'android.os.ServiceManagerNative'
p476
sg15
(lp477
sg17
(lp478
sg19
(lp479
sg21
I0
sbasg85
(lp480
g469
ag476
asg21
I0
sg87
S'1141'
p481
sba(iArchitecture
Cluster
p482
(dp483
g7
(lp484
(iArchitecture
Entity
p485
(dp486
g11
(lp487
sg13
S'android.os.UserManager'
p488
sg15
(lp489
sg17
(lp490
sg19
(lp491
sg21
I0
sbasg85
(lp492
g488
asg21
I0
sg87
S'1143'
p493
sba(iArchitecture
Cluster
p494
(dp495
g7
(lp496
(iArchitecture
Entity
p497
(dp498
g11
(lp499
sg13
S'android.os.Registrant'
p500
sg15
(lp501
sg17
(lp502
sg19
(lp503
sg21
I0
sba(iArchitecture
Entity
p504
(dp505
g11
(lp506
sg13
S'android.os.RegistrantList'
p507
sg15
(lp508
sg17
(lp509
sg19
(lp510
sg21
I0
sbasg85
(lp511
g500
ag507
asg21
I0
sg87
S'1152'
p512
sba(iArchitecture
Cluster
p513
(dp514
g7
(lp515
(iArchitecture
Entity
p516
(dp517
g11
(lp518
sg13
S'android.os.AsyncResult'
p519
sg15
(lp520
sg17
(lp521
sg19
(lp522
sg21
I0
sba(iArchitecture
Entity
p523
(dp524
g11
(lp525
sg13
S'android.os.BadParcelableException'
p526
sg15
(lp527
sg17
(lp528
sg19
(lp529
sg21
I0
sba(iArchitecture
Entity
p530
(dp531
g11
(lp532
sg13
S'android.os.BatteryManagerInternal'
p533
sg15
(lp534
sg17
(lp535
sg19
(lp536
sg21
I0
sba(iArchitecture
Entity
p537
(dp538
g11
(lp539
sg13
S'android.os.BatteryProperty'
p540
sg15
(lp541
sg17
(lp542
sg19
(lp543
sg21
I0
sba(iArchitecture
Entity
p544
(dp545
g11
(lp546
sg13
S'android.os.BatteryProperty$1'
p547
sg15
(lp548
sg17
(lp549
sg19
(lp550
sg21
I0
sba(iArchitecture
Entity
p551
(dp552
g11
(lp553
sg13
S'android.os.DeadObjectException'
p554
sg15
(lp555
sg17
(lp556
sg19
(lp557
sg21
I0
sba(iArchitecture
Entity
p558
(dp559
g11
(lp560
sg13
S'android.os.FactoryTest'
p561
sg15
(lp562
sg17
(lp563
sg19
(lp564
sg21
I0
sba(iArchitecture
Entity
p565
(dp566
g11
(lp567
sg13
S'android.os.IInterface'
p568
sg15
(lp569
sg17
(lp570
sg19
(lp571
sg21
I0
sba(iArchitecture
Entity
p572
(dp573
g11
(lp574
sg13
S'android.os.NetworkOnMainThreadException'
p575
sg15
(lp576
sg17
(lp577
sg19
(lp578
sg21
I0
sba(iArchitecture
Entity
p579
(dp580
g11
(lp581
sg13
S'android.os.OperationCanceledException'
p582
sg15
(lp583
sg17
(lp584
sg19
(lp585
sg21
I0
sba(iArchitecture
Entity
p586
(dp587
g11
(lp588
sg13
S'android.os.ParcelFormatException'
p589
sg15
(lp590
sg17
(lp591
sg19
(lp592
sg21
I0
sba(iArchitecture
Entity
p593
(dp594
g11
(lp595
sg13
S'android.os.ParcelableParcel'
p596
sg15
(lp597
sg17
(lp598
sg19
(lp599
sg21
I0
sba(iArchitecture
Entity
p600
(dp601
g11
(lp602
sg13
S'android.os.ParcelableParcel$1'
p603
sg15
(lp604
sg17
(lp605
sg19
(lp606
sg21
I0
sba(iArchitecture
Entity
p607
(dp608
g11
(lp609
sg13
S'android.os.PooledStringReader'
p610
sg15
(lp611
sg17
(lp612
sg19
(lp613
sg21
I0
sba(iArchitecture
Entity
p614
(dp615
g11
(lp616
sg13
S'android.os.PooledStringWriter'
p617
sg15
(lp618
sg17
(lp619
sg19
(lp620
sg21
I0
sba(iArchitecture
Entity
p621
(dp622
g11
(lp623
sg13
S'android.os.RemoteException'
p624
sg15
(lp625
sg17
(lp626
sg19
(lp627
sg21
I0
sba(iArchitecture
Entity
p628
(dp629
g11
(lp630
sg13
S'android.os.RemoteMailException'
p631
sg15
(lp632
sg17
(lp633
sg19
(lp634
sg21
I0
sba(iArchitecture
Entity
p635
(dp636
g11
(lp637
sg13
S'android.os.ResultReceiver'
p638
sg15
(lp639
sg17
(lp640
sg19
(lp641
sg21
I0
sba(iArchitecture
Entity
p642
(dp643
g11
(lp644
sg13
S'android.os.ResultReceiver$1'
p645
sg15
(lp646
sg17
(lp647
sg19
(lp648
sg21
I0
sba(iArchitecture
Entity
p649
(dp650
g11
(lp651
sg13
S'android.os.ResultReceiver$MyResultReceiver'
p652
sg15
(lp653
sg17
(lp654
sg19
(lp655
sg21
I0
sba(iArchitecture
Entity
p656
(dp657
g11
(lp658
sg13
S'android.os.ResultReceiver$MyRunnable'
p659
sg15
(lp660
sg17
(lp661
sg19
(lp662
sg21
I0
sbasg85
(lp663
g519
ag526
ag533
ag540
ag547
ag554
ag561
ag568
ag575
ag582
ag589
ag596
ag603
ag610
ag617
ag624
ag631
ag638
ag645
ag652
ag659
asg21
I0
sg87
S'1223'
p664
sba(iArchitecture
Cluster
p665
(dp666
g7
(lp667
(iArchitecture
Entity
p668
(dp669
g11
(lp670
sg13
S'android.os.RemoteCallbackList'
p671
sg15
(lp672
sg17
(lp673
sg19
(lp674
sg21
I0
sba(iArchitecture
Entity
p675
(dp676
g11
(lp677
sg13
S'android.os.RemoteCallbackList$Callback'
p678
sg15
(lp679
sg17
(lp680
sg19
(lp681
sg21
I0
sbasg85
(lp682
g671
ag678
asg21
I0
sg87
S'1232'
p683
sba(iArchitecture
Cluster
p684
(dp685
g7
(lp686
(iArchitecture
Entity
p687
(dp688
g11
(lp689
sg13
S'android.os.IServiceManager'
p690
sg15
(lp691
sg17
(lp692
sg19
(lp693
sg21
I0
sba(iArchitecture
Entity
p694
(dp695
g11
(lp696
sg13
S'android.os.NullVibrator'
p697
sg15
(lp698
sg17
(lp699
sg19
(lp700
sg21
I0
sba(iArchitecture
Entity
p701
(dp702
g11
(lp703
sg13
S'android.os.Parcelable'
p704
sg15
(lp705
sg17
(lp706
sg19
(lp707
sg21
I0
sba(iArchitecture
Entity
p708
(dp709
g11
(lp710
sg13
S'android.os.Parcelable$ClassLoaderCreator'
p711
sg15
(lp712
sg17
(lp713
sg19
(lp714
sg21
I0
sba(iArchitecture
Entity
p715
(dp716
g11
(lp717
sg13
S'android.os.Parcelable$Creator'
p718
sg15
(lp719
sg17
(lp720
sg19
(lp721
sg21
I0
sba(iArchitecture
Entity
p722
(dp723
g11
(lp724
sg13
S'android.os.PersistableBundle'
p725
sg15
(lp726
sg17
(lp727
sg19
(lp728
sg21
I0
sba(iArchitecture
Entity
p729
(dp730
g11
(lp731
sg13
S'android.os.PersistableBundle$1'
p732
sg15
(lp733
sg17
(lp734
sg19
(lp735
sg21
I0
sba(iArchitecture
Entity
p736
(dp737
g11
(lp738
sg13
S'android.os.PersistableBundle$MyReadMapCallback'
p739
sg15
(lp740
sg17
(lp741
sg19
(lp742
sg21
I0
sba(iArchitecture
Entity
p743
(dp744
g11
(lp745
sg13
S'android.os.RemoteCallback'
p746
sg15
(lp747
sg17
(lp748
sg19
(lp749
sg21
I0
sba(iArchitecture
Entity
p750
(dp751
g11
(lp752
sg13
S'android.os.RemoteCallback$1'
p753
sg15
(lp754
sg17
(lp755
sg19
(lp756
sg21
I0
sba(iArchitecture
Entity
p757
(dp758
g11
(lp759
sg13
S'android.os.RemoteCallback$DeliverResult'
p760
sg15
(lp761
sg17
(lp762
sg19
(lp763
sg21
I0
sba(iArchitecture
Entity
p764
(dp765
g11
(lp766
sg13
S'android.os.RemoteCallback$LocalCallback'
p767
sg15
(lp768
sg17
(lp769
sg19
(lp770
sg21
I0
sba(iArchitecture
Entity
p771
(dp772
g11
(lp773
sg13
S'android.os.RemoteCallback$RemoteCallbackProxy'
p774
sg15
(lp775
sg17
(lp776
sg19
(lp777
sg21
I0
sba(iArchitecture
Entity
p778
(dp779
g11
(lp780
sg13
S'android.os.SystemProperties'
p781
sg15
(lp782
sg17
(lp783
sg19
(lp784
sg21
I0
sba(iArchitecture
Entity
p785
(dp786
g11
(lp787
sg13
S'android.os.TransactionTooLargeException'
p788
sg15
(lp789
sg17
(lp790
sg19
(lp791
sg21
I0
sbasg85
(lp792
g690
ag697
ag704
ag711
ag718
ag725
ag732
ag739
ag746
ag753
ag760
ag767
ag774
ag781
ag788
asg21
I0
sg87
S'1237'
p793
sba(iArchitecture
Cluster
p794
(dp795
g7
(lp796
(iArchitecture
Entity
p797
(dp798
g11
(lp799
sg13
S'android.os.Binder'
p800
sg15
(lp801
sg17
(lp802
sg19
(lp803
sg21
I0
sba(iArchitecture
Entity
p804
(dp805
g11
(lp806
sg13
S'android.os.Binder$1'
p807
sg15
(lp808
sg17
(lp809
sg19
(lp810
sg21
I0
sba(iArchitecture
Entity
p811
(dp812
g11
(lp813
sg13
S'android.os.Build'
p814
sg15
(lp815
sg17
(lp816
sg19
(lp817
sg21
I0
sba(iArchitecture
Entity
p818
(dp819
g11
(lp820
sg13
S'android.os.Build$VERSION'
p821
sg15
(lp822
sg17
(lp823
sg19
(lp824
sg21
I0
sba(iArchitecture
Entity
p825
(dp826
g11
(lp827
sg13
S'android.os.Build$VERSION_CODES'
p828
sg15
(lp829
sg17
(lp830
sg19
(lp831
sg21
I0
sba(iArchitecture
Entity
p832
(dp833
g11
(lp834
sg13
S'android.os.DropBoxManager'
p835
sg15
(lp836
sg17
(lp837
sg19
(lp838
sg21
I0
sba(iArchitecture
Entity
p839
(dp840
g11
(lp841
sg13
S'android.os.DropBoxManager$Entry'
p842
sg15
(lp843
sg17
(lp844
sg19
(lp845
sg21
I0
sba(iArchitecture
Entity
p846
(dp847
g11
(lp848
sg13
S'android.os.DropBoxManager$Entry$1'
p849
sg15
(lp850
sg17
(lp851
sg19
(lp852
sg21
I0
sba(iArchitecture
Entity
p853
(dp854
g11
(lp855
sg13
S'android.os.FileObserver'
p856
sg15
(lp857
sg17
(lp858
sg19
(lp859
sg21
I0
sba(iArchitecture
Entity
p860
(dp861
g11
(lp862
sg13
S'android.os.FileObserver$ObserverThread'
p863
sg15
(lp864
sg17
(lp865
sg19
(lp866
sg21
I0
sba(iArchitecture
Entity
p867
(dp868
g11
(lp869
sg13
S'android.os.FileUtils'
p870
sg15
(lp871
sg17
(lp872
sg19
(lp873
sg21
I0
sba(iArchitecture
Entity
p874
(dp875
g11
(lp876
sg13
S'android.os.FileUtils$1'
p877
sg15
(lp878
sg17
(lp879
sg19
(lp880
sg21
I0
sba(iArchitecture
Entity
p881
(dp882
g11
(lp883
sg13
S'android.os.IBinder'
p884
sg15
(lp885
sg17
(lp886
sg19
(lp887
sg21
I0
sba(iArchitecture
Entity
p888
(dp889
g11
(lp890
sg13
S'android.os.IBinder$DeathRecipient'
p891
sg15
(lp892
sg17
(lp893
sg19
(lp894
sg21
I0
sba(iArchitecture
Entity
p895
(dp896
g11
(lp897
sg13
S'android.os.MemoryFile'
p898
sg15
(lp899
sg17
(lp900
sg19
(lp901
sg21
I0
sba(iArchitecture
Entity
p902
(dp903
g11
(lp904
sg13
S'android.os.MemoryFile$MemoryInputStream'
p905
sg15
(lp906
sg17
(lp907
sg19
(lp908
sg21
I0
sba(iArchitecture
Entity
p909
(dp910
g11
(lp911
sg13
S'android.os.MemoryFile$MemoryOutputStream'
p912
sg15
(lp913
sg17
(lp914
sg19
(lp915
sg21
I0
sba(iArchitecture
Entity
p916
(dp917
g11
(lp918
sg13
S'android.os.ParcelFileDescriptor'
p919
sg15
(lp920
sg17
(lp921
sg19
(lp922
sg21
I0
sba(iArchitecture
Entity
p923
(dp924
g11
(lp925
sg13
S'android.os.ParcelFileDescriptor$1'
p926
sg15
(lp927
sg17
(lp928
sg19
(lp929
sg21
I0
sba(iArchitecture
Entity
p930
(dp931
g11
(lp932
sg13
S'android.os.ParcelFileDescriptor$2'
p933
sg15
(lp934
sg17
(lp935
sg19
(lp936
sg21
I0
sba(iArchitecture
Entity
p937
(dp938
g11
(lp939
sg13
S'android.os.ParcelFileDescriptor$AutoCloseInputStream'
p940
sg15
(lp941
sg17
(lp942
sg19
(lp943
sg21
I0
sba(iArchitecture
Entity
p944
(dp945
g11
(lp946
sg13
S'android.os.ParcelFileDescriptor$AutoCloseOutputStream'
p947
sg15
(lp948
sg17
(lp949
sg19
(lp950
sg21
I0
sba(iArchitecture
Entity
p951
(dp952
g11
(lp953
sg13
S'android.os.ParcelFileDescriptor$FileDescriptorDetachedException'
p954
sg15
(lp955
sg17
(lp956
sg19
(lp957
sg21
I0
sba(iArchitecture
Entity
p958
(dp959
g11
(lp960
sg13
S'android.os.ParcelFileDescriptor$OnCloseListener'
p961
sg15
(lp962
sg17
(lp963
sg19
(lp964
sg21
I0
sba(iArchitecture
Entity
p965
(dp966
g11
(lp967
sg13
S'android.os.ParcelFileDescriptor$Status'
p968
sg15
(lp969
sg17
(lp970
sg19
(lp971
sg21
I0
sba(iArchitecture
Entity
p972
(dp973
g11
(lp974
sg13
S'android.os.ParcelUuid'
p975
sg15
(lp976
sg17
(lp977
sg19
(lp978
sg21
I0
sba(iArchitecture
Entity
p979
(dp980
g11
(lp981
sg13
S'android.os.ParcelUuid$1'
p982
sg15
(lp983
sg17
(lp984
sg19
(lp985
sg21
I0
sba(iArchitecture
Entity
p986
(dp987
g11
(lp988
sg13
S'android.os.PowerManager'
p989
sg15
(lp990
sg17
(lp991
sg19
(lp992
sg21
I0
sba(iArchitecture
Entity
p993
(dp994
g11
(lp995
sg13
S'android.os.PowerManager$WakeLock'
p996
sg15
(lp997
sg17
(lp998
sg19
(lp999
sg21
I0
sba(iArchitecture
Entity
p1000
(dp1001
g11
(lp1002
sg13
S'android.os.PowerManager$WakeLock$1'
p1003
sg15
(lp1004
sg17
(lp1005
sg19
(lp1006
sg21
I0
sba(iArchitecture
Entity
p1007
(dp1008
g11
(lp1009
sg13
S'android.os.SystemService'
p1010
sg15
(lp1011
sg17
(lp1012
sg19
(lp1013
sg21
I0
sba(iArchitecture
Entity
p1014
(dp1015
g11
(lp1016
sg13
S'android.os.SystemService$1'
p1017
sg15
(lp1018
sg17
(lp1019
sg19
(lp1020
sg21
I0
sba(iArchitecture
Entity
p1021
(dp1022
g11
(lp1023
sg13
S'android.os.SystemService$State'
p1024
sg15
(lp1025
sg17
(lp1026
sg19
(lp1027
sg21
I0
sba(iArchitecture
Entity
p1028
(dp1029
g11
(lp1030
sg13
S'android.os.TokenWatcher'
p1031
sg15
(lp1032
sg17
(lp1033
sg19
(lp1034
sg21
I0
sba(iArchitecture
Entity
p1035
(dp1036
g11
(lp1037
sg13
S'android.os.TokenWatcher$1'
p1038
sg15
(lp1039
sg17
(lp1040
sg19
(lp1041
sg21
I0
sba(iArchitecture
Entity
p1042
(dp1043
g11
(lp1044
sg13
S'android.os.TokenWatcher$Death'
p1045
sg15
(lp1046
sg17
(lp1047
sg19
(lp1048
sg21
I0
sba(iArchitecture
Entity
p1049
(dp1050
g11
(lp1051
sg13
S'android.os.UpdateLock'
p1052
sg15
(lp1053
sg17
(lp1054
sg19
(lp1055
sg21
I0
sba(iArchitecture
Entity
p1056
(dp1057
g11
(lp1058
sg13
S'android.os.storage.DiskInfo'
p1059
sg15
(lp1060
sg17
(lp1061
sg19
(lp1062
sg21
I0
sba(iArchitecture
Entity
p1063
(dp1064
g11
(lp1065
sg13
S'android.os.storage.DiskInfo$1'
p1066
sg15
(lp1067
sg17
(lp1068
sg19
(lp1069
sg21
I0
sba(iArchitecture
Entity
p1070
(dp1071
g11
(lp1072
sg13
S'android.os.storage.StorageEventListener'
p1073
sg15
(lp1074
sg17
(lp1075
sg19
(lp1076
sg21
I0
sba(iArchitecture
Entity
p1077
(dp1078
g11
(lp1079
sg13
S'android.os.storage.VolumeRecord'
p1080
sg15
(lp1081
sg17
(lp1082
sg19
(lp1083
sg21
I0
sba(iArchitecture
Entity
p1084
(dp1085
g11
(lp1086
sg13
S'android.os.storage.VolumeRecord$1'
p1087
sg15
(lp1088
sg17
(lp1089
sg19
(lp1090
sg21
I0
sbasg85
(lp1091
g800
ag807
ag814
ag821
ag828
ag835
ag842
ag849
ag856
ag863
ag870
ag877
ag884
ag891
ag898
ag905
ag912
ag919
ag926
ag933
ag940
ag947
ag954
ag961
ag968
ag975
ag982
ag989
ag996
ag1003
ag1010
ag1017
ag1024
ag1031
ag1038
ag1045
ag1052
ag1059
ag1066
ag1073
ag1080
ag1087
asg21
I0
sg87
S'1246'
p1092
sba(iArchitecture
Cluster
p1093
(dp1094
g7
(lp1095
(iArchitecture
Entity
p1096
(dp1097
g11
(lp1098
sg13
S'android.os.Process'
p1099
sg15
(lp1100
sg17
(lp1101
sg19
(lp1102
sg21
I0
sba(iArchitecture
Entity
p1103
(dp1104
g11
(lp1105
sg13
S'android.os.Process$ProcessStartResult'
p1106
sg15
(lp1107
sg17
(lp1108
sg19
(lp1109
sg21
I0
sba(iArchitecture
Entity
p1110
(dp1111
g11
(lp1112
sg13
S'android.os.Process$ZygoteState'
p1113
sg15
(lp1114
sg17
(lp1115
sg19
(lp1116
sg21
I0
sbasg85
(lp1117
g1099
ag1106
ag1113
asg21
I0
sg87
S'1250'
p1118
sba(iArchitecture
Cluster
p1119
(dp1120
g7
(lp1121
(iArchitecture
Entity
p1122
(dp1123
g11
(lp1124
sg13
S'android.os.Parcel'
p1125
sg15
(lp1126
sg17
(lp1127
sg19
(lp1128
sg21
I0
sba(iArchitecture
Entity
p1129
(dp1130
g11
(lp1131
sg13
S'android.os.Parcel$1'
p1132
sg15
(lp1133
sg17
(lp1134
sg19
(lp1135
sg21
I0
sba(iArchitecture
Entity
p1136
(dp1137
g11
(lp1138
sg13
S'android.os.Parcel$2'
p1139
sg15
(lp1140
sg17
(lp1141
sg19
(lp1142
sg21
I0
sbasg85
(lp1143
g1125
ag1132
ag1139
asg21
I0
sg87
S'1253'
p1144
sba(iArchitecture
Cluster
p1145
(dp1146
g7
(lp1147
(iArchitecture
Entity
p1148
(dp1149
g11
(lp1150
sg13
S'android.os.BaseBundle'
p1151
sg15
(lp1152
sg17
(lp1153
sg19
(lp1154
sg21
I0
sba(iArchitecture
Entity
p1155
(dp1156
g11
(lp1157
sg13
S'android.os.BatteryManager'
p1158
sg15
(lp1159
sg17
(lp1160
sg19
(lp1161
sg21
I0
sba(iArchitecture
Entity
p1162
(dp1163
g11
(lp1164
sg13
S'android.os.Bundle'
p1165
sg15
(lp1166
sg17
(lp1167
sg19
(lp1168
sg21
I0
sba(iArchitecture
Entity
p1169
(dp1170
g11
(lp1171
sg13
S'android.os.Bundle$1'
p1172
sg15
(lp1173
sg17
(lp1174
sg19
(lp1175
sg21
I0
sba(iArchitecture
Entity
p1176
(dp1177
g11
(lp1178
sg13
S'android.os.Messenger'
p1179
sg15
(lp1180
sg17
(lp1181
sg19
(lp1182
sg21
I0
sba(iArchitecture
Entity
p1183
(dp1184
g11
(lp1185
sg13
S'android.os.Messenger$1'
p1186
sg15
(lp1187
sg17
(lp1188
sg19
(lp1189
sg21
I0
sbasg85
(lp1190
g1151
ag1158
ag1165
ag1172
ag1179
ag1186
asg21
I0
sg87
S'1261'
p1191
sba(iArchitecture
Cluster
p1192
(dp1193
g7
(lp1194
(iArchitecture
Entity
p1195
(dp1196
g11
(lp1197
sg13
S'android.os.Vibrator'
p1198
sg15
(lp1199
sg17
(lp1200
sg19
(lp1201
sg21
I0
sbasg85
(lp1202
g1198
asg21
I0
sg87
S'13'
p1203
sba(iArchitecture
Cluster
p1204
(dp1205
g7
(lp1206
(iArchitecture
Entity
p1207
(dp1208
g11
(lp1209
sg13
S'android.os.ConditionVariable'
p1210
sg15
(lp1211
sg17
(lp1212
sg19
(lp1213
sg21
I0
sbasg85
(lp1214
g1210
asg21
I0
sg87
S'138'
p1215
sba(iArchitecture
Cluster
p1216
(dp1217
g7
(lp1218
(iArchitecture
Entity
p1219
(dp1220
g11
(lp1221
sg13
S'android.os.StatFs'
p1222
sg15
(lp1223
sg17
(lp1224
sg19
(lp1225
sg21
I0
sbasg85
(lp1226
g1222
asg21
I0
sg87
S'214'
p1227
sba(iArchitecture
Cluster
p1228
(dp1229
g7
(lp1230
(iArchitecture
Entity
p1231
(dp1232
g11
(lp1233
sg13
S'android.os.SystemClock'
p1234
sg15
(lp1235
sg17
(lp1236
sg19
(lp1237
sg21
I0
sbasg85
(lp1238
g1234
asg21
I0
sg87
S'225'
p1239
sba(iArchitecture
Cluster
p1240
(dp1241
g7
(lp1242
(iArchitecture
Entity
p1243
(dp1244
g11
(lp1245
sg13
S'android.os.storage.StorageResultCode'
p1246
sg15
(lp1247
sg17
(lp1248
sg19
(lp1249
sg21
I0
sbasg85
(lp1250
g1246
asg21
I0
sg87
S'239'
p1251
sba(iArchitecture
Cluster
p1252
(dp1253
g7
(lp1254
(iArchitecture
Entity
p1255
(dp1256
g11
(lp1257
sg13
S'android.os.SELinux'
p1258
sg15
(lp1259
sg17
(lp1260
sg19
(lp1261
sg21
I0
sbasg85
(lp1262
g1258
asg21
I0
sg87
S'35'
p1263
sba(iArchitecture
Cluster
p1264
(dp1265
g7
(lp1266
(iArchitecture
Entity
p1267
(dp1268
g11
(lp1269
sg13
S'android.os.storage.OnObbStateChangeListener'
p1270
sg15
(lp1271
sg17
(lp1272
sg19
(lp1273
sg21
I0
sbasg85
(lp1274
g1270
asg21
I0
sg87
S'405'
p1275
sba(iArchitecture
Cluster
p1276
(dp1277
g7
(lp1278
(iArchitecture
Entity
p1279
(dp1280
g11
(lp1281
sg13
S'android.os.Looper'
p1282
sg15
(lp1283
sg17
(lp1284
sg19
(lp1285
sg21
I0
sbasg85
(lp1286
g1282
asg21
I0
sg87
S'432'
p1287
sba(iArchitecture
Cluster
p1288
(dp1289
g7
(lp1290
(iArchitecture
Entity
p1291
(dp1292
g11
(lp1293
sg13
S'android.os.HandlerThread'
p1294
sg15
(lp1295
sg17
(lp1296
sg19
(lp1297
sg21
I0
sbasg85
(lp1298
g1294
asg21
I0
sg87
S'50'
p1299
sba(iArchitecture
Cluster
p1300
(dp1301
g7
(lp1302
(iArchitecture
Entity
p1303
(dp1304
g11
(lp1305
sg13
S'android.os.CommonTimeUtils'
p1306
sg15
(lp1307
sg17
(lp1308
sg19
(lp1309
sg21
I0
sbasg85
(lp1310
g1306
asg21
I0
sg87
S'53'
p1311
sba(iArchitecture
Cluster
p1312
(dp1313
g7
(lp1314
(iArchitecture
Entity
p1315
(dp1316
g11
(lp1317
sg13
S'android.os.CountDownTimer'
p1318
sg15
(lp1319
sg17
(lp1320
sg19
(lp1321
sg21
I0
sba(iArchitecture
Entity
p1322
(dp1323
g11
(lp1324
sg13
S'android.os.CountDownTimer$1'
p1325
sg15
(lp1326
sg17
(lp1327
sg19
(lp1328
sg21
I0
sbasg85
(lp1329
g1318
ag1325
asg21
I0
sg87
S'536'
p1330
sba(iArchitecture
Cluster
p1331
(dp1332
g7
(lp1333
(iArchitecture
Entity
p1334
(dp1335
g11
(lp1336
sg13
S'android.os.PatternMatcher'
p1337
sg15
(lp1338
sg17
(lp1339
sg19
(lp1340
sg21
I0
sba(iArchitecture
Entity
p1341
(dp1342
g11
(lp1343
sg13
S'android.os.PatternMatcher$1'
p1344
sg15
(lp1345
sg17
(lp1346
sg19
(lp1347
sg21
I0
sbasg85
(lp1348
g1337
ag1344
asg21
I0
sg87
S'546'
p1349
sba(iArchitecture
Cluster
p1350
(dp1351
g7
(lp1352
(iArchitecture
Entity
p1353
(dp1354
g11
(lp1355
sg13
S'android.os.PerformanceCollector'
p1356
sg15
(lp1357
sg17
(lp1358
sg19
(lp1359
sg21
I0
sba(iArchitecture
Entity
p1360
(dp1361
g11
(lp1362
sg13
S'android.os.PerformanceCollector$PerformanceResultsWriter'
p1363
sg15
(lp1364
sg17
(lp1365
sg19
(lp1366
sg21
I0
sbasg85
(lp1367
g1356
ag1363
asg21
I0
sg87
S'584'
p1368
sba(iArchitecture
Cluster
p1369
(dp1370
g7
(lp1371
(iArchitecture
Entity
p1372
(dp1373
g11
(lp1374
sg13
S'android.os.SystemVibrator'
p1375
sg15
(lp1376
sg17
(lp1377
sg19
(lp1378
sg21
I0
sbasg85
(lp1379
g1375
asg21
I0
sg87
S'61'
p1380
sba(iArchitecture
Cluster
p1381
(dp1382
g7
(lp1383
(iArchitecture
Entity
p1384
(dp1385
g11
(lp1386
sg13
S'android.os.Message'
p1387
sg15
(lp1388
sg17
(lp1389
sg19
(lp1390
sg21
I0
sba(iArchitecture
Entity
p1391
(dp1392
g11
(lp1393
sg13
S'android.os.Message$1'
p1394
sg15
(lp1395
sg17
(lp1396
sg19
(lp1397
sg21
I0
sbasg85
(lp1398
g1387
ag1394
asg21
I0
sg87
S'612'
p1399
sba(iArchitecture
Cluster
p1400
(dp1401
g7
(lp1402
(iArchitecture
Entity
p1403
(dp1404
g11
(lp1405
sg13
S'android.os.WorkSource'
p1406
sg15
(lp1407
sg17
(lp1408
sg19
(lp1409
sg21
I0
sba(iArchitecture
Entity
p1410
(dp1411
g11
(lp1412
sg13
S'android.os.WorkSource$1'
p1413
sg15
(lp1414
sg17
(lp1415
sg19
(lp1416
sg21
I0
sbasg85
(lp1417
g1406
ag1413
asg21
I0
sg87
S'614'
p1418
sba(iArchitecture
Cluster
p1419
(dp1420
g7
(lp1421
(iArchitecture
Entity
p1422
(dp1423
g11
(lp1424
sg13
S'android.os.PowerManagerInternal'
p1425
sg15
(lp1426
sg17
(lp1427
sg19
(lp1428
sg21
I0
sba(iArchitecture
Entity
p1429
(dp1430
g11
(lp1431
sg13
S'android.os.PowerManagerInternal$LowPowerModeListener'
p1432
sg15
(lp1433
sg17
(lp1434
sg19
(lp1435
sg21
I0
sbasg85
(lp1436
g1425
ag1432
asg21
I0
sg87
S'625'
p1437
sba(iArchitecture
Cluster
p1438
(dp1439
g7
(lp1440
(iArchitecture
Entity
p1441
(dp1442
g11
(lp1443
sg13
S'android.os.UserHandle'
p1444
sg15
(lp1445
sg17
(lp1446
sg19
(lp1447
sg21
I0
sba(iArchitecture
Entity
p1448
(dp1449
g11
(lp1450
sg13
S'android.os.UserHandle$1'
p1451
sg15
(lp1452
sg17
(lp1453
sg19
(lp1454
sg21
I0
sbasg85
(lp1455
g1444
ag1451
asg21
I0
sg87
S'667'
p1456
sba(iArchitecture
Cluster
p1457
(dp1458
g7
(lp1459
(iArchitecture
Entity
p1460
(dp1461
g11
(lp1462
sg13
S'android.os.BatteryProperties'
p1463
sg15
(lp1464
sg17
(lp1465
sg19
(lp1466
sg21
I0
sba(iArchitecture
Entity
p1467
(dp1468
g11
(lp1469
sg13
S'android.os.BatteryProperties$1'
p1470
sg15
(lp1471
sg17
(lp1472
sg19
(lp1473
sg21
I0
sbasg85
(lp1474
g1463
ag1470
asg21
I0
sg87
S'686'
p1475
sba(iArchitecture
Cluster
p1476
(dp1477
g7
(lp1478
(iArchitecture
Entity
p1479
(dp1480
g11
(lp1481
sg13
S'android.os.Environment'
p1482
sg15
(lp1483
sg17
(lp1484
sg19
(lp1485
sg21
I0
sba(iArchitecture
Entity
p1486
(dp1487
g11
(lp1488
sg13
S'android.os.Environment$UserEnvironment'
p1489
sg15
(lp1490
sg17
(lp1491
sg19
(lp1492
sg21
I0
sbasg85
(lp1493
g1482
ag1489
asg21
I0
sg87
S'702'
p1494
sba(iArchitecture
Cluster
p1495
(dp1496
g7
(lp1497
(iArchitecture
Entity
p1498
(dp1499
g11
(lp1500
sg13
S'android.os.storage.StorageVolume'
p1501
sg15
(lp1502
sg17
(lp1503
sg19
(lp1504
sg21
I0
sba(iArchitecture
Entity
p1505
(dp1506
g11
(lp1507
sg13
S'android.os.storage.StorageVolume$1'
p1508
sg15
(lp1509
sg17
(lp1510
sg19
(lp1511
sg21
I0
sbasg85
(lp1512
g1501
ag1508
asg21
I0
sg87
S'707'
p1513
sba(iArchitecture
Cluster
p1514
(dp1515
g7
(lp1516
(iArchitecture
Entity
p1517
(dp1518
g11
(lp1519
sg13
S'android.os.Broadcaster'
p1520
sg15
(lp1521
sg17
(lp1522
sg19
(lp1523
sg21
I0
sba(iArchitecture
Entity
p1524
(dp1525
g11
(lp1526
sg13
S'android.os.Broadcaster$Registration'
p1527
sg15
(lp1528
sg17
(lp1529
sg19
(lp1530
sg21
I0
sbasg85
(lp1531
g1520
ag1527
asg21
I0
sg87
S'716'
p1532
sba(iArchitecture
Cluster
p1533
(dp1534
g7
(lp1535
(iArchitecture
Entity
p1536
(dp1537
g11
(lp1538
sg13
S'android.os.Trace'
p1539
sg15
(lp1540
sg17
(lp1541
sg19
(lp1542
sg21
I0
sba(iArchitecture
Entity
p1543
(dp1544
g11
(lp1545
sg13
S'android.os.Trace$1'
p1546
sg15
(lp1547
sg17
(lp1548
sg19
(lp1549
sg21
I0
sbasg85
(lp1550
g1539
ag1546
asg21
I0
sg87
S'717'
p1551
sba(iArchitecture
Cluster
p1552
(dp1553
g7
(lp1554
(iArchitecture
Entity
p1555
(dp1556
g11
(lp1557
sg13
S'android.os.FileBridge'
p1558
sg15
(lp1559
sg17
(lp1560
sg19
(lp1561
sg21
I0
sba(iArchitecture
Entity
p1562
(dp1563
g11
(lp1564
sg13
S'android.os.FileBridge$FileBridgeOutputStream'
p1565
sg15
(lp1566
sg17
(lp1567
sg19
(lp1568
sg21
I0
sbasg85
(lp1569
g1558
ag1565
asg21
I0
sg87
S'718'
p1570
sba(iArchitecture
Cluster
p1571
(dp1572
g7
(lp1573
(iArchitecture
Entity
p1574
(dp1575
g11
(lp1576
sg13
S'android.os.CommonTimeConfig'
p1577
sg15
(lp1578
sg17
(lp1579
sg19
(lp1580
sg21
I0
sba(iArchitecture
Entity
p1581
(dp1582
g11
(lp1583
sg13
S'android.os.CommonTimeConfig$1'
p1584
sg15
(lp1585
sg17
(lp1586
sg19
(lp1587
sg21
I0
sba(iArchitecture
Entity
p1588
(dp1589
g11
(lp1590
sg13
S'android.os.CommonTimeConfig$OnServerDiedListener'
p1591
sg15
(lp1592
sg17
(lp1593
sg19
(lp1594
sg21
I0
sbasg85
(lp1595
g1577
ag1584
ag1591
asg21
I0
sg87
S'779'
p1596
sba(iArchitecture
Cluster
p1597
(dp1598
g7
(lp1599
(iArchitecture
Entity
p1600
(dp1601
g11
(lp1602
sg13
S'android.os.UEventObserver'
p1603
sg15
(lp1604
sg17
(lp1605
sg19
(lp1606
sg21
I0
sba(iArchitecture
Entity
p1607
(dp1608
g11
(lp1609
sg13
S'android.os.UEventObserver$UEvent'
p1610
sg15
(lp1611
sg17
(lp1612
sg19
(lp1613
sg21
I0
sba(iArchitecture
Entity
p1614
(dp1615
g11
(lp1616
sg13
S'android.os.UEventObserver$UEventThread'
p1617
sg15
(lp1618
sg17
(lp1619
sg19
(lp1620
sg21
I0
sbasg85
(lp1621
g1603
ag1610
ag1617
asg21
I0
sg87
S'801'
p1622
sba(iArchitecture
Cluster
p1623
(dp1624
g7
(lp1625
(iArchitecture
Entity
p1626
(dp1627
g11
(lp1628
sg13
S'android.os.CancellationSignal'
p1629
sg15
(lp1630
sg17
(lp1631
sg19
(lp1632
sg21
I0
sba(iArchitecture
Entity
p1633
(dp1634
g11
(lp1635
sg13
S'android.os.CancellationSignal$OnCancelListener'
p1636
sg15
(lp1637
sg17
(lp1638
sg19
(lp1639
sg21
I0
sba(iArchitecture
Entity
p1640
(dp1641
g11
(lp1642
sg13
S'android.os.CancellationSignal$Transport'
p1643
sg15
(lp1644
sg17
(lp1645
sg19
(lp1646
sg21
I0
sbasg85
(lp1647
g1629
ag1636
ag1643
asg21
I0
sg87
S'811'
p1648
sba(iArchitecture
Cluster
p1649
(dp1650
g7
(lp1651
(iArchitecture
Entity
p1652
(dp1653
g11
(lp1654
sg13
S'android.os.storage.VolumeInfo'
p1655
sg15
(lp1656
sg17
(lp1657
sg19
(lp1658
sg21
I0
sba(iArchitecture
Entity
p1659
(dp1660
g11
(lp1661
sg13
S'android.os.storage.VolumeInfo$1'
p1662
sg15
(lp1663
sg17
(lp1664
sg19
(lp1665
sg21
I0
sba(iArchitecture
Entity
p1666
(dp1667
g11
(lp1668
sg13
S'android.os.storage.VolumeInfo$2'
p1669
sg15
(lp1670
sg17
(lp1671
sg19
(lp1672
sg21
I0
sbasg85
(lp1673
g1655
ag1662
ag1669
asg21
I0
sg87
S'833'
p1674
sba(iArchitecture
Cluster
p1675
(dp1676
g7
(lp1677
(iArchitecture
Entity
p1678
(dp1679
g11
(lp1680
sg13
S'android.os.Handler'
p1681
sg15
(lp1682
sg17
(lp1683
sg19
(lp1684
sg21
I0
sba(iArchitecture
Entity
p1685
(dp1686
g11
(lp1687
sg13
S'android.os.Handler$BlockingRunnable'
p1688
sg15
(lp1689
sg17
(lp1690
sg19
(lp1691
sg21
I0
sba(iArchitecture
Entity
p1692
(dp1693
g11
(lp1694
sg13
S'android.os.Handler$Callback'
p1695
sg15
(lp1696
sg17
(lp1697
sg19
(lp1698
sg21
I0
sba(iArchitecture
Entity
p1699
(dp1700
g11
(lp1701
sg13
S'android.os.Handler$MessengerImpl'
p1702
sg15
(lp1703
sg17
(lp1704
sg19
(lp1705
sg21
I0
sbasg85
(lp1706
g1681
ag1688
ag1695
ag1702
asg21
I0
sg87
S'889'
p1707
sba(iArchitecture
Cluster
p1708
(dp1709
g7
(lp1710
(iArchitecture
Entity
p1711
(dp1712
g11
(lp1713
sg13
S'android.os.MessageQueue'
p1714
sg15
(lp1715
sg17
(lp1716
sg19
(lp1717
sg21
I0
sba(iArchitecture
Entity
p1718
(dp1719
g11
(lp1720
sg13
S'android.os.MessageQueue$FileDescriptorRecord'
p1721
sg15
(lp1722
sg17
(lp1723
sg19
(lp1724
sg21
I0
sba(iArchitecture
Entity
p1725
(dp1726
g11
(lp1727
sg13
S'android.os.MessageQueue$IdleHandler'
p1728
sg15
(lp1729
sg17
(lp1730
sg19
(lp1731
sg21
I0
sba(iArchitecture
Entity
p1732
(dp1733
g11
(lp1734
sg13
S'android.os.MessageQueue$OnFileDescriptorEventListener'
p1735
sg15
(lp1736
sg17
(lp1737
sg19
(lp1738
sg21
I0
sbasg85
(lp1739
g1714
ag1721
ag1728
ag1735
asg21
I0
sg87
S'903'
p1740
sba(iArchitecture
Cluster
p1741
(dp1742
g7
(lp1743
(iArchitecture
Entity
p1744
(dp1745
g11
(lp1746
sg13
S'android.os.storage.StorageManager'
p1747
sg15
(lp1748
sg17
(lp1749
sg19
(lp1750
sg21
I0
sba(iArchitecture
Entity
p1751
(dp1752
g11
(lp1753
sg13
S'android.os.storage.StorageManager$ObbActionListener'
p1754
sg15
(lp1755
sg17
(lp1756
sg19
(lp1757
sg21
I0
sba(iArchitecture
Entity
p1758
(dp1759
g11
(lp1760
sg13
S'android.os.storage.StorageManager$ObbListenerDelegate'
p1761
sg15
(lp1762
sg17
(lp1763
sg19
(lp1764
sg21
I0
sba(iArchitecture
Entity
p1765
(dp1766
g11
(lp1767
sg13
S'android.os.storage.StorageManager$ObbListenerDelegate$1'
p1768
sg15
(lp1769
sg17
(lp1770
sg19
(lp1771
sg21
I0
sba(iArchitecture
Entity
p1772
(dp1773
g11
(lp1774
sg13
S'android.os.storage.StorageManager$StorageEventListenerDelegate'
p1775
sg15
(lp1776
sg17
(lp1777
sg19
(lp1778
sg21
I0
sbasg85
(lp1779
g1747
ag1754
ag1761
ag1768
ag1775
asg21
I0
sg87
S'941'
p1780
sba(iArchitecture
Cluster
p1781
(dp1782
g7
(lp1783
(iArchitecture
Entity
p1784
(dp1785
g11
(lp1786
sg13
S'android.os.CommonClock'
p1787
sg15
(lp1788
sg17
(lp1789
sg19
(lp1790
sg21
I0
sba(iArchitecture
Entity
p1791
(dp1792
g11
(lp1793
sg13
S'android.os.CommonClock$1'
p1794
sg15
(lp1795
sg17
(lp1796
sg19
(lp1797
sg21
I0
sba(iArchitecture
Entity
p1798
(dp1799
g11
(lp1800
sg13
S'android.os.CommonClock$OnServerDiedListener'
p1801
sg15
(lp1802
sg17
(lp1803
sg19
(lp1804
sg21
I0
sba(iArchitecture
Entity
p1805
(dp1806
g11
(lp1807
sg13
S'android.os.CommonClock$OnTimelineChangedListener'
p1808
sg15
(lp1809
sg17
(lp1810
sg19
(lp1811
sg21
I0
sba(iArchitecture
Entity
p1812
(dp1813
g11
(lp1814
sg13
S'android.os.CommonClock$TimelineChangedListener'
p1815
sg15
(lp1816
sg17
(lp1817
sg19
(lp1818
sg21
I0
sbasg85
(lp1819
g1787
ag1794
ag1801
ag1808
ag1815
asg21
I0
sg87
S'975'
p1820
sbasS'target_sub'
p1821
S'android.os'
p1822
sg85
(lp1823
sS'is_component_arch'
p1824
I00
sg87
S'6.0.0_r1'
p1825
sba(iArchitecture
Architecture
p1826
(dp1827
g3
(lp1828
(iArchitecture
Cluster
p1829
(dp1830
g7
(lp1831
(iArchitecture
Entity
p1832
(dp1833
g11
(lp1834
sg13
S'android.os.Handler'
p1835
sg15
(lp1836
sg17
(lp1837
sg19
(lp1838
sg21
I0
sba(iArchitecture
Entity
p1839
(dp1840
g11
(lp1841
sg13
S'android.os.Handler$BlockingRunnable'
p1842
sg15
(lp1843
sg17
(lp1844
sg19
(lp1845
sg21
I0
sba(iArchitecture
Entity
p1846
(dp1847
g11
(lp1848
sg13
S'android.os.Handler$Callback'
p1849
sg15
(lp1850
sg17
(lp1851
sg19
(lp1852
sg21
I0
sba(iArchitecture
Entity
p1853
(dp1854
g11
(lp1855
sg13
S'android.os.Handler$MessengerImpl'
p1856
sg15
(lp1857
sg17
(lp1858
sg19
(lp1859
sg21
I0
sbasg85
(lp1860
g1835
ag1842
ag1849
ag1856
asg21
I0
sg87
S'1005'
p1861
sba(iArchitecture
Cluster
p1862
(dp1863
g7
(lp1864
(iArchitecture
Entity
p1865
(dp1866
g11
(lp1867
sg13
S'android.os.MessageQueue'
p1868
sg15
(lp1869
sg17
(lp1870
sg19
(lp1871
sg21
I0
sba(iArchitecture
Entity
p1872
(dp1873
g11
(lp1874
sg13
S'android.os.MessageQueue$FileDescriptorRecord'
p1875
sg15
(lp1876
sg17
(lp1877
sg19
(lp1878
sg21
I0
sba(iArchitecture
Entity
p1879
(dp1880
g11
(lp1881
sg13
S'android.os.MessageQueue$IdleHandler'
p1882
sg15
(lp1883
sg17
(lp1884
sg19
(lp1885
sg21
I0
sba(iArchitecture
Entity
p1886
(dp1887
g11
(lp1888
sg13
S'android.os.MessageQueue$OnFileDescriptorEventListener'
p1889
sg15
(lp1890
sg17
(lp1891
sg19
(lp1892
sg21
I0
sbasg85
(lp1893
g1868
ag1875
ag1882
ag1889
asg21
I0
sg87
S'1018'
p1894
sba(iArchitecture
Cluster
p1895
(dp1896
g7
(lp1897
(iArchitecture
Entity
p1898
(dp1899
g11
(lp1900
sg13
S'android.os.storage.StorageManager'
p1901
sg15
(lp1902
sg17
(lp1903
sg19
(lp1904
sg21
I0
sba(iArchitecture
Entity
p1905
(dp1906
g11
(lp1907
sg13
S'android.os.storage.StorageManager$ObbActionListener'
p1908
sg15
(lp1909
sg17
(lp1910
sg19
(lp1911
sg21
I0
sba(iArchitecture
Entity
p1912
(dp1913
g11
(lp1914
sg13
S'android.os.storage.StorageManager$ObbListenerDelegate'
p1915
sg15
(lp1916
sg17
(lp1917
sg19
(lp1918
sg21
I0
sba(iArchitecture
Entity
p1919
(dp1920
g11
(lp1921
sg13
S'android.os.storage.StorageManager$ObbListenerDelegate$1'
p1922
sg15
(lp1923
sg17
(lp1924
sg19
(lp1925
sg21
I0
sba(iArchitecture
Entity
p1926
(dp1927
g11
(lp1928
sg13
S'android.os.storage.StorageManager$StorageEventListenerDelegate'
p1929
sg15
(lp1930
sg17
(lp1931
sg19
(lp1932
sg21
I0
sbasg85
(lp1933
g1901
ag1908
ag1915
ag1922
ag1929
asg21
I0
sg87
S'1061'
p1934
sba(iArchitecture
Cluster
p1935
(dp1936
g7
(lp1937
(iArchitecture
Entity
p1938
(dp1939
g11
(lp1940
sg13
S'android.os.CommonClock'
p1941
sg15
(lp1942
sg17
(lp1943
sg19
(lp1944
sg21
I0
sba(iArchitecture
Entity
p1945
(dp1946
g11
(lp1947
sg13
S'android.os.CommonClock$1'
p1948
sg15
(lp1949
sg17
(lp1950
sg19
(lp1951
sg21
I0
sba(iArchitecture
Entity
p1952
(dp1953
g11
(lp1954
sg13
S'android.os.CommonClock$OnServerDiedListener'
p1955
sg15
(lp1956
sg17
(lp1957
sg19
(lp1958
sg21
I0
sba(iArchitecture
Entity
p1959
(dp1960
g11
(lp1961
sg13
S'android.os.CommonClock$OnTimelineChangedListener'
p1962
sg15
(lp1963
sg17
(lp1964
sg19
(lp1965
sg21
I0
sba(iArchitecture
Entity
p1966
(dp1967
g11
(lp1968
sg13
S'android.os.CommonClock$TimelineChangedListener'
p1969
sg15
(lp1970
sg17
(lp1971
sg19
(lp1972
sg21
I0
sbasg85
(lp1973
g1941
ag1948
ag1955
ag1962
ag1969
asg21
I0
sg87
S'1101'
p1974
sba(iArchitecture
Cluster
p1975
(dp1976
g7
(lp1977
(iArchitecture
Entity
p1978
(dp1979
g11
(lp1980
sg13
S'android.os.StrictMode'
p1981
sg15
(lp1982
sg17
(lp1983
sg19
(lp1984
sg21
I0
sba(iArchitecture
Entity
p1985
(dp1986
g11
(lp1987
sg13
S'android.os.StrictMode$1'
p1988
sg15
(lp1989
sg17
(lp1990
sg19
(lp1991
sg21
I0
sba(iArchitecture
Entity
p1992
(dp1993
g11
(lp1994
sg13
S'android.os.StrictMode$2'
p1995
sg15
(lp1996
sg17
(lp1997
sg19
(lp1998
sg21
I0
sba(iArchitecture
Entity
p1999
(dp2000
g11
(lp2001
sg13
S'android.os.StrictMode$3'
p2002
sg15
(lp2003
sg17
(lp2004
sg19
(lp2005
sg21
I0
sba(iArchitecture
Entity
p2006
(dp2007
g11
(lp2008
sg13
S'android.os.StrictMode$4'
p2009
sg15
(lp2010
sg17
(lp2011
sg19
(lp2012
sg21
I0
sba(iArchitecture
Entity
p2013
(dp2014
g11
(lp2015
sg13
S'android.os.StrictMode$5'
p2016
sg15
(lp2017
sg17
(lp2018
sg19
(lp2019
sg21
I0
sba(iArchitecture
Entity
p2020
(dp2021
g11
(lp2022
sg13
S'android.os.StrictMode$6'
p2023
sg15
(lp2024
sg17
(lp2025
sg19
(lp2026
sg21
I0
sba(iArchitecture
Entity
p2027
(dp2028
g11
(lp2029
sg13
S'android.os.StrictMode$7'
p2030
sg15
(lp2031
sg17
(lp2032
sg19
(lp2033
sg21
I0
sba(iArchitecture
Entity
p2034
(dp2035
g11
(lp2036
sg13
S'android.os.StrictMode$8'
p2037
sg15
(lp2038
sg17
(lp2039
sg19
(lp2040
sg21
I0
sba(iArchitecture
Entity
p2041
(dp2042
g11
(lp2043
sg13
S'android.os.StrictMode$9'
p2044
sg15
(lp2045
sg17
(lp2046
sg19
(lp2047
sg21
I0
sba(iArchitecture
Entity
p2048
(dp2049
g11
(lp2050
sg13
S'android.os.StrictMode$AndroidBlockGuardPolicy'
p2051
sg15
(lp2052
sg17
(lp2053
sg19
(lp2054
sg21
I0
sba(iArchitecture
Entity
p2055
(dp2056
g11
(lp2057
sg13
S'android.os.StrictMode$AndroidBlockGuardPolicy$1'
p2058
sg15
(lp2059
sg17
(lp2060
sg19
(lp2061
sg21
I0
sba(iArchitecture
Entity
p2062
(dp2063
g11
(lp2064
sg13
S'android.os.StrictMode$AndroidCloseGuardReporter'
p2065
sg15
(lp2066
sg17
(lp2067
sg19
(lp2068
sg21
I0
sba(iArchitecture
Entity
p2069
(dp2070
g11
(lp2071
sg13
S'android.os.StrictMode$InstanceCountViolation'
p2072
sg15
(lp2073
sg17
(lp2074
sg19
(lp2075
sg21
I0
sba(iArchitecture
Entity
p2076
(dp2077
g11
(lp2078
sg13
S'android.os.StrictMode$InstanceTracker'
p2079
sg15
(lp2080
sg17
(lp2081
sg19
(lp2082
sg21
I0
sba(iArchitecture
Entity
p2083
(dp2084
g11
(lp2085
sg13
S'android.os.StrictMode$LogStackTrace'
p2086
sg15
(lp2087
sg17
(lp2088
sg19
(lp2089
sg21
I0
sba(iArchitecture
Entity
p2090
(dp2091
g11
(lp2092
sg13
S'android.os.StrictMode$Span'
p2093
sg15
(lp2094
sg17
(lp2095
sg19
(lp2096
sg21
I0
sba(iArchitecture
Entity
p2097
(dp2098
g11
(lp2099
sg13
S'android.os.StrictMode$StrictModeCustomViolation'
p2100
sg15
(lp2101
sg17
(lp2102
sg19
(lp2103
sg21
I0
sba(iArchitecture
Entity
p2104
(dp2105
g11
(lp2106
sg13
S'android.os.StrictMode$StrictModeDiskReadViolation'
p2107
sg15
(lp2108
sg17
(lp2109
sg19
(lp2110
sg21
I0
sba(iArchitecture
Entity
p2111
(dp2112
g11
(lp2113
sg13
S'android.os.StrictMode$StrictModeDiskWriteViolation'
p2114
sg15
(lp2115
sg17
(lp2116
sg19
(lp2117
sg21
I0
sba(iArchitecture
Entity
p2118
(dp2119
g11
(lp2120
sg13
S'android.os.StrictMode$StrictModeNetworkViolation'
p2121
sg15
(lp2122
sg17
(lp2123
sg19
(lp2124
sg21
I0
sba(iArchitecture
Entity
p2125
(dp2126
g11
(lp2127
sg13
S'android.os.StrictMode$StrictModeResourceMismatchViolation'
p2128
sg15
(lp2129
sg17
(lp2130
sg19
(lp2131
sg21
I0
sba(iArchitecture
Entity
p2132
(dp2133
g11
(lp2134
sg13
S'android.os.StrictMode$StrictModeViolation'
p2135
sg15
(lp2136
sg17
(lp2137
sg19
(lp2138
sg21
I0
sba(iArchitecture
Entity
p2139
(dp2140
g11
(lp2141
sg13
S'android.os.StrictMode$ThreadPolicy'
p2142
sg15
(lp2143
sg17
(lp2144
sg19
(lp2145
sg21
I0
sba(iArchitecture
Entity
p2146
(dp2147
g11
(lp2148
sg13
S'android.os.StrictMode$ThreadPolicy$Builder'
p2149
sg15
(lp2150
sg17
(lp2151
sg19
(lp2152
sg21
I0
sba(iArchitecture
Entity
p2153
(dp2154
g11
(lp2155
sg13
S'android.os.StrictMode$ThreadSpanState'
p2156
sg15
(lp2157
sg17
(lp2158
sg19
(lp2159
sg21
I0
sba(iArchitecture
Entity
p2160
(dp2161
g11
(lp2162
sg13
S'android.os.StrictMode$ViolationInfo'
p2163
sg15
(lp2164
sg17
(lp2165
sg19
(lp2166
sg21
I0
sba(iArchitecture
Entity
p2167
(dp2168
g11
(lp2169
sg13
S'android.os.StrictMode$VmPolicy'
p2170
sg15
(lp2171
sg17
(lp2172
sg19
(lp2173
sg21
I0
sba(iArchitecture
Entity
p2174
(dp2175
g11
(lp2176
sg13
S'android.os.StrictMode$VmPolicy$Builder'
p2177
sg15
(lp2178
sg17
(lp2179
sg19
(lp2180
sg21
I0
sbasg85
(lp2181
g1981
ag1988
ag1995
ag2002
ag2009
ag2016
ag2023
ag2030
ag2037
ag2044
ag2051
ag2058
ag2065
ag2072
ag2079
ag2086
ag2093
ag2100
ag2107
ag2114
ag2121
ag2128
ag2135
ag2142
ag2149
ag2156
ag2163
ag2170
ag2177
asg21
I0
sg87
S'1230'
p2182
sba(iArchitecture
Cluster
p2183
(dp2184
g7
(lp2185
(iArchitecture
Entity
p2186
(dp2187
g11
(lp2188
sg13
S'android.os.health.HealthStats'
p2189
sg15
(lp2190
sg17
(lp2191
sg19
(lp2192
sg21
I0
sba(iArchitecture
Entity
p2193
(dp2194
g11
(lp2195
sg13
S'android.os.health.HealthStatsWriter'
p2196
sg15
(lp2197
sg17
(lp2198
sg19
(lp2199
sg21
I0
sbasg85
(lp2200
g2189
ag2196
asg21
I0
sg87
S'1240'
p2201
sba(iArchitecture
Cluster
p2202
(dp2203
g7
(lp2204
(iArchitecture
Entity
p2205
(dp2206
g11
(lp2207
sg13
S'android.os.BatteryStats'
p2208
sg15
(lp2209
sg17
(lp2210
sg19
(lp2211
sg21
I0
sba(iArchitecture
Entity
p2212
(dp2213
g11
(lp2214
sg13
S'android.os.BatteryStats$1'
p2215
sg15
(lp2216
sg17
(lp2217
sg19
(lp2218
sg21
I0
sba(iArchitecture
Entity
p2219
(dp2220
g11
(lp2221
sg13
S'android.os.BatteryStats$BitDescription'
p2222
sg15
(lp2223
sg17
(lp2224
sg19
(lp2225
sg21
I0
sba(iArchitecture
Entity
p2226
(dp2227
g11
(lp2228
sg13
S'android.os.BatteryStats$ControllerActivityCounter'
p2229
sg15
(lp2230
sg17
(lp2231
sg19
(lp2232
sg21
I0
sba(iArchitecture
Entity
p2233
(dp2234
g11
(lp2235
sg13
S'android.os.BatteryStats$Counter'
p2236
sg15
(lp2237
sg17
(lp2238
sg19
(lp2239
sg21
I0
sba(iArchitecture
Entity
p2240
(dp2241
g11
(lp2242
sg13
S'android.os.BatteryStats$DailyItem'
p2243
sg15
(lp2244
sg17
(lp2245
sg19
(lp2246
sg21
I0
sba(iArchitecture
Entity
p2247
(dp2248
g11
(lp2249
sg13
S'android.os.BatteryStats$HistoryEventTracker'
p2250
sg15
(lp2251
sg17
(lp2252
sg19
(lp2253
sg21
I0
sba(iArchitecture
Entity
p2254
(dp2255
g11
(lp2256
sg13
S'android.os.BatteryStats$HistoryItem'
p2257
sg15
(lp2258
sg17
(lp2259
sg19
(lp2260
sg21
I0
sba(iArchitecture
Entity
p2261
(dp2262
g11
(lp2263
sg13
S'android.os.BatteryStats$HistoryPrinter'
p2264
sg15
(lp2265
sg17
(lp2266
sg19
(lp2267
sg21
I0
sba(iArchitecture
Entity
p2268
(dp2269
g11
(lp2270
sg13
S'android.os.BatteryStats$HistoryStepDetails'
p2271
sg15
(lp2272
sg17
(lp2273
sg19
(lp2274
sg21
I0
sba(iArchitecture
Entity
p2275
(dp2276
g11
(lp2277
sg13
S'android.os.BatteryStats$HistoryTag'
p2278
sg15
(lp2279
sg17
(lp2280
sg19
(lp2281
sg21
I0
sba(iArchitecture
Entity
p2282
(dp2283
g11
(lp2284
sg13
S'android.os.BatteryStats$LevelStepTracker'
p2285
sg15
(lp2286
sg17
(lp2287
sg19
(lp2288
sg21
I0
sba(iArchitecture
Entity
p2289
(dp2290
g11
(lp2291
sg13
S'android.os.BatteryStats$LongCounter'
p2292
sg15
(lp2293
sg17
(lp2294
sg19
(lp2295
sg21
I0
sba(iArchitecture
Entity
p2296
(dp2297
g11
(lp2298
sg13
S'android.os.BatteryStats$PackageChange'
p2299
sg15
(lp2300
sg17
(lp2301
sg19
(lp2302
sg21
I0
sba(iArchitecture
Entity
p2303
(dp2304
g11
(lp2305
sg13
S'android.os.BatteryStats$Timer'
p2306
sg15
(lp2307
sg17
(lp2308
sg19
(lp2309
sg21
I0
sba(iArchitecture
Entity
p2310
(dp2311
g11
(lp2312
sg13
S'android.os.BatteryStats$TimerEntry'
p2313
sg15
(lp2314
sg17
(lp2315
sg19
(lp2316
sg21
I0
sba(iArchitecture
Entity
p2317
(dp2318
g11
(lp2319
sg13
S'android.os.BatteryStats$Uid'
p2320
sg15
(lp2321
sg17
(lp2322
sg19
(lp2323
sg21
I0
sba(iArchitecture
Entity
p2324
(dp2325
g11
(lp2326
sg13
S'android.os.BatteryStats$Uid$Pid'
p2327
sg15
(lp2328
sg17
(lp2329
sg19
(lp2330
sg21
I0
sba(iArchitecture
Entity
p2331
(dp2332
g11
(lp2333
sg13
S'android.os.BatteryStats$Uid$Pkg'
p2334
sg15
(lp2335
sg17
(lp2336
sg19
(lp2337
sg21
I0
sba(iArchitecture
Entity
p2338
(dp2339
g11
(lp2340
sg13
S'android.os.BatteryStats$Uid$Pkg$Serv'
p2341
sg15
(lp2342
sg17
(lp2343
sg19
(lp2344
sg21
I0
sba(iArchitecture
Entity
p2345
(dp2346
g11
(lp2347
sg13
S'android.os.BatteryStats$Uid$Proc'
p2348
sg15
(lp2349
sg17
(lp2350
sg19
(lp2351
sg21
I0
sba(iArchitecture
Entity
p2352
(dp2353
g11
(lp2354
sg13
S'android.os.BatteryStats$Uid$Proc$ExcessivePower'
p2355
sg15
(lp2356
sg17
(lp2357
sg19
(lp2358
sg21
I0
sba(iArchitecture
Entity
p2359
(dp2360
g11
(lp2361
sg13
S'android.os.BatteryStats$Uid$Sensor'
p2362
sg15
(lp2363
sg17
(lp2364
sg19
(lp2365
sg21
I0
sba(iArchitecture
Entity
p2366
(dp2367
g11
(lp2368
sg13
S'android.os.BatteryStats$Uid$Wakelock'
p2369
sg15
(lp2370
sg17
(lp2371
sg19
(lp2372
sg21
I0
sbasg85
(lp2373
g2208
ag2215
ag2222
ag2229
ag2236
ag2243
ag2250
ag2257
ag2264
ag2271
ag2278
ag2285
ag2292
ag2299
ag2306
ag2313
ag2320
ag2327
ag2334
ag2341
ag2348
ag2355
ag2362
ag2369
asg21
I0
sg87
S'1250'
p2374
sba(iArchitecture
Cluster
p2375
(dp2376
g7
(lp2377
(iArchitecture
Entity
p2378
(dp2379
g11
(lp2380
sg13
S'android.os.Registrant'
p2381
sg15
(lp2382
sg17
(lp2383
sg19
(lp2384
sg21
I0
sba(iArchitecture
Entity
p2385
(dp2386
g11
(lp2387
sg13
S'android.os.RegistrantList'
p2388
sg15
(lp2389
sg17
(lp2390
sg19
(lp2391
sg21
I0
sbasg85
(lp2392
g2381
ag2388
asg21
I0
sg87
S'1296'
p2393
sba(iArchitecture
Cluster
p2394
(dp2395
g7
(lp2396
(iArchitecture
Entity
p2397
(dp2398
g11
(lp2399
sg13
S'android.os.HardwarePropertiesManager'
p2400
sg15
(lp2401
sg17
(lp2402
sg19
(lp2403
sg21
I0
sbasg85
(lp2404
g2400
asg21
I0
sg87
S'1325'
p2405
sba(iArchitecture
Cluster
p2406
(dp2407
g7
(lp2408
(iArchitecture
Entity
p2409
(dp2410
g11
(lp2411
sg13
S'android.os.AsyncResult'
p2412
sg15
(lp2413
sg17
(lp2414
sg19
(lp2415
sg21
I0
sba(iArchitecture
Entity
p2416
(dp2417
g11
(lp2418
sg13
S'android.os.BadParcelableException'
p2419
sg15
(lp2420
sg17
(lp2421
sg19
(lp2422
sg21
I0
sba(iArchitecture
Entity
p2423
(dp2424
g11
(lp2425
sg13
S'android.os.BatteryManagerInternal'
p2426
sg15
(lp2427
sg17
(lp2428
sg19
(lp2429
sg21
I0
sba(iArchitecture
Entity
p2430
(dp2431
g11
(lp2432
sg13
S'android.os.BatteryProperty'
p2433
sg15
(lp2434
sg17
(lp2435
sg19
(lp2436
sg21
I0
sba(iArchitecture
Entity
p2437
(dp2438
g11
(lp2439
sg13
S'android.os.BatteryProperty$1'
p2440
sg15
(lp2441
sg17
(lp2442
sg19
(lp2443
sg21
I0
sba(iArchitecture
Entity
p2444
(dp2445
g11
(lp2446
sg13
S'android.os.CpuUsageInfo'
p2447
sg15
(lp2448
sg17
(lp2449
sg19
(lp2450
sg21
I0
sba(iArchitecture
Entity
p2451
(dp2452
g11
(lp2453
sg13
S'android.os.CpuUsageInfo$1'
p2454
sg15
(lp2455
sg17
(lp2456
sg19
(lp2457
sg21
I0
sba(iArchitecture
Entity
p2458
(dp2459
g11
(lp2460
sg13
S'android.os.DeadObjectException'
p2461
sg15
(lp2462
sg17
(lp2463
sg19
(lp2464
sg21
I0
sba(iArchitecture
Entity
p2465
(dp2466
g11
(lp2467
sg13
S'android.os.DeadSystemException'
p2468
sg15
(lp2469
sg17
(lp2470
sg19
(lp2471
sg21
I0
sba(iArchitecture
Entity
p2472
(dp2473
g11
(lp2474
sg13
S'android.os.DropBoxManager'
p2475
sg15
(lp2476
sg17
(lp2477
sg19
(lp2478
sg21
I0
sba(iArchitecture
Entity
p2479
(dp2480
g11
(lp2481
sg13
S'android.os.DropBoxManager$Entry'
p2482
sg15
(lp2483
sg17
(lp2484
sg19
(lp2485
sg21
I0
sba(iArchitecture
Entity
p2486
(dp2487
g11
(lp2488
sg13
S'android.os.DropBoxManager$Entry$1'
p2489
sg15
(lp2490
sg17
(lp2491
sg19
(lp2492
sg21
I0
sba(iArchitecture
Entity
p2493
(dp2494
g11
(lp2495
sg13
S'android.os.FactoryTest'
p2496
sg15
(lp2497
sg17
(lp2498
sg19
(lp2499
sg21
I0
sba(iArchitecture
Entity
p2500
(dp2501
g11
(lp2502
sg13
S'android.os.FileUriExposedException'
p2503
sg15
(lp2504
sg17
(lp2505
sg19
(lp2506
sg21
I0
sba(iArchitecture
Entity
p2507
(dp2508
g11
(lp2509
sg13
S'android.os.FileUtils'
p2510
sg15
(lp2511
sg17
(lp2512
sg19
(lp2513
sg21
I0
sba(iArchitecture
Entity
p2514
(dp2515
g11
(lp2516
sg13
S'android.os.FileUtils$1'
p2517
sg15
(lp2518
sg17
(lp2519
sg19
(lp2520
sg21
I0
sba(iArchitecture
Entity
p2521
(dp2522
g11
(lp2523
sg13
S'android.os.FileUtils$NoImagePreloadHolder'
p2524
sg15
(lp2525
sg17
(lp2526
sg19
(lp2527
sg21
I0
sba(iArchitecture
Entity
p2528
(dp2529
g11
(lp2530
sg13
S'android.os.IInterface'
p2531
sg15
(lp2532
sg17
(lp2533
sg19
(lp2534
sg21
I0
sba(iArchitecture
Entity
p2535
(dp2536
g11
(lp2537
sg13
S'android.os.IServiceManager'
p2538
sg15
(lp2539
sg17
(lp2540
sg19
(lp2541
sg21
I0
sba(iArchitecture
Entity
p2542
(dp2543
g11
(lp2544
sg13
S'android.os.MemoryFile'
p2545
sg15
(lp2546
sg17
(lp2547
sg19
(lp2548
sg21
I0
sba(iArchitecture
Entity
p2549
(dp2550
g11
(lp2551
sg13
S'android.os.MemoryFile$MemoryInputStream'
p2552
sg15
(lp2553
sg17
(lp2554
sg19
(lp2555
sg21
I0
sba(iArchitecture
Entity
p2556
(dp2557
g11
(lp2558
sg13
S'android.os.MemoryFile$MemoryOutputStream'
p2559
sg15
(lp2560
sg17
(lp2561
sg19
(lp2562
sg21
I0
sba(iArchitecture
Entity
p2563
(dp2564
g11
(lp2565
sg13
S'android.os.NetworkOnMainThreadException'
p2566
sg15
(lp2567
sg17
(lp2568
sg19
(lp2569
sg21
I0
sba(iArchitecture
Entity
p2570
(dp2571
g11
(lp2572
sg13
S'android.os.NullVibrator'
p2573
sg15
(lp2574
sg17
(lp2575
sg19
(lp2576
sg21
I0
sba(iArchitecture
Entity
p2577
(dp2578
g11
(lp2579
sg13
S'android.os.OperationCanceledException'
p2580
sg15
(lp2581
sg17
(lp2582
sg19
(lp2583
sg21
I0
sba(iArchitecture
Entity
p2584
(dp2585
g11
(lp2586
sg13
S'android.os.ParcelFileDescriptor'
p2587
sg15
(lp2588
sg17
(lp2589
sg19
(lp2590
sg21
I0
sba(iArchitecture
Entity
p2591
(dp2592
g11
(lp2593
sg13
S'android.os.ParcelFileDescriptor$1'
p2594
sg15
(lp2595
sg17
(lp2596
sg19
(lp2597
sg21
I0
sba(iArchitecture
Entity
p2598
(dp2599
g11
(lp2600
sg13
S'android.os.ParcelFileDescriptor$2'
p2601
sg15
(lp2602
sg17
(lp2603
sg19
(lp2604
sg21
I0
sba(iArchitecture
Entity
p2605
(dp2606
g11
(lp2607
sg13
S'android.os.ParcelFileDescriptor$AutoCloseInputStream'
p2608
sg15
(lp2609
sg17
(lp2610
sg19
(lp2611
sg21
I0
sba(iArchitecture
Entity
p2612
(dp2613
g11
(lp2614
sg13
S'android.os.ParcelFileDescriptor$AutoCloseOutputStream'
p2615
sg15
(lp2616
sg17
(lp2617
sg19
(lp2618
sg21
I0
sba(iArchitecture
Entity
p2619
(dp2620
g11
(lp2621
sg13
S'android.os.ParcelFileDescriptor$FileDescriptorDetachedException'
p2622
sg15
(lp2623
sg17
(lp2624
sg19
(lp2625
sg21
I0
sba(iArchitecture
Entity
p2626
(dp2627
g11
(lp2628
sg13
S'android.os.ParcelFileDescriptor$OnCloseListener'
p2629
sg15
(lp2630
sg17
(lp2631
sg19
(lp2632
sg21
I0
sba(iArchitecture
Entity
p2633
(dp2634
g11
(lp2635
sg13
S'android.os.ParcelFileDescriptor$Status'
p2636
sg15
(lp2637
sg17
(lp2638
sg19
(lp2639
sg21
I0
sba(iArchitecture
Entity
p2640
(dp2641
g11
(lp2642
sg13
S'android.os.ParcelFormatException'
p2643
sg15
(lp2644
sg17
(lp2645
sg19
(lp2646
sg21
I0
sba(iArchitecture
Entity
p2647
(dp2648
g11
(lp2649
sg13
S'android.os.ParcelableParcel'
p2650
sg15
(lp2651
sg17
(lp2652
sg19
(lp2653
sg21
I0
sba(iArchitecture
Entity
p2654
(dp2655
g11
(lp2656
sg13
S'android.os.ParcelableParcel$1'
p2657
sg15
(lp2658
sg17
(lp2659
sg19
(lp2660
sg21
I0
sba(iArchitecture
Entity
p2661
(dp2662
g11
(lp2663
sg13
S'android.os.PooledStringReader'
p2664
sg15
(lp2665
sg17
(lp2666
sg19
(lp2667
sg21
I0
sba(iArchitecture
Entity
p2668
(dp2669
g11
(lp2670
sg13
S'android.os.PooledStringWriter'
p2671
sg15
(lp2672
sg17
(lp2673
sg19
(lp2674
sg21
I0
sba(iArchitecture
Entity
p2675
(dp2676
g11
(lp2677
sg13
S'android.os.RemoteException'
p2678
sg15
(lp2679
sg17
(lp2680
sg19
(lp2681
sg21
I0
sba(iArchitecture
Entity
p2682
(dp2683
g11
(lp2684
sg13
S'android.os.RemoteMailException'
p2685
sg15
(lp2686
sg17
(lp2687
sg19
(lp2688
sg21
I0
sba(iArchitecture
Entity
p2689
(dp2690
g11
(lp2691
sg13
S'android.os.ResultReceiver'
p2692
sg15
(lp2693
sg17
(lp2694
sg19
(lp2695
sg21
I0
sba(iArchitecture
Entity
p2696
(dp2697
g11
(lp2698
sg13
S'android.os.ResultReceiver$1'
p2699
sg15
(lp2700
sg17
(lp2701
sg19
(lp2702
sg21
I0
sba(iArchitecture
Entity
p2703
(dp2704
g11
(lp2705
sg13
S'android.os.ResultReceiver$MyResultReceiver'
p2706
sg15
(lp2707
sg17
(lp2708
sg19
(lp2709
sg21
I0
sba(iArchitecture
Entity
p2710
(dp2711
g11
(lp2712
sg13
S'android.os.ResultReceiver$MyRunnable'
p2713
sg15
(lp2714
sg17
(lp2715
sg19
(lp2716
sg21
I0
sba(iArchitecture
Entity
p2717
(dp2718
g11
(lp2719
sg13
S'android.os.ServiceManager'
p2720
sg15
(lp2721
sg17
(lp2722
sg19
(lp2723
sg21
I0
sba(iArchitecture
Entity
p2724
(dp2725
g11
(lp2726
sg13
S'android.os.ServiceManagerNative'
p2727
sg15
(lp2728
sg17
(lp2729
sg19
(lp2730
sg21
I0
sba(iArchitecture
Entity
p2731
(dp2732
g11
(lp2733
sg13
S'android.os.ServiceSpecificException'
p2734
sg15
(lp2735
sg17
(lp2736
sg19
(lp2737
sg21
I0
sba(iArchitecture
Entity
p2738
(dp2739
g11
(lp2740
sg13
S'android.os.SynchronousResultReceiver'
p2741
sg15
(lp2742
sg17
(lp2743
sg19
(lp2744
sg21
I0
sba(iArchitecture
Entity
p2745
(dp2746
g11
(lp2747
sg13
S'android.os.SynchronousResultReceiver$Result'
p2748
sg15
(lp2749
sg17
(lp2750
sg19
(lp2751
sg21
I0
sba(iArchitecture
Entity
p2752
(dp2753
g11
(lp2754
sg13
S'android.os.SystemService'
p2755
sg15
(lp2756
sg17
(lp2757
sg19
(lp2758
sg21
I0
sba(iArchitecture
Entity
p2759
(dp2760
g11
(lp2761
sg13
S'android.os.SystemService$1'
p2762
sg15
(lp2763
sg17
(lp2764
sg19
(lp2765
sg21
I0
sba(iArchitecture
Entity
p2766
(dp2767
g11
(lp2768
sg13
S'android.os.SystemService$State'
p2769
sg15
(lp2770
sg17
(lp2771
sg19
(lp2772
sg21
I0
sba(iArchitecture
Entity
p2773
(dp2774
g11
(lp2775
sg13
S'android.os.TokenWatcher'
p2776
sg15
(lp2777
sg17
(lp2778
sg19
(lp2779
sg21
I0
sba(iArchitecture
Entity
p2780
(dp2781
g11
(lp2782
sg13
S'android.os.TokenWatcher$1'
p2783
sg15
(lp2784
sg17
(lp2785
sg19
(lp2786
sg21
I0
sba(iArchitecture
Entity
p2787
(dp2788
g11
(lp2789
sg13
S'android.os.TokenWatcher$Death'
p2790
sg15
(lp2791
sg17
(lp2792
sg19
(lp2793
sg21
I0
sba(iArchitecture
Entity
p2794
(dp2795
g11
(lp2796
sg13
S'android.os.TransactionTooLargeException'
p2797
sg15
(lp2798
sg17
(lp2799
sg19
(lp2800
sg21
I0
sba(iArchitecture
Entity
p2801
(dp2802
g11
(lp2803
sg13
S'android.os.TransactionTracker'
p2804
sg15
(lp2805
sg17
(lp2806
sg19
(lp2807
sg21
I0
sba(iArchitecture
Entity
p2808
(dp2809
g11
(lp2810
sg13
S'android.os.UpdateEngineCallback'
p2811
sg15
(lp2812
sg17
(lp2813
sg19
(lp2814
sg21
I0
sba(iArchitecture
Entity
p2815
(dp2816
g11
(lp2817
sg13
S'android.os.storage.DiskInfo'
p2818
sg15
(lp2819
sg17
(lp2820
sg19
(lp2821
sg21
I0
sba(iArchitecture
Entity
p2822
(dp2823
g11
(lp2824
sg13
S'android.os.storage.DiskInfo$1'
p2825
sg15
(lp2826
sg17
(lp2827
sg19
(lp2828
sg21
I0
sba(iArchitecture
Entity
p2829
(dp2830
g11
(lp2831
sg13
S'android.os.storage.VolumeRecord'
p2832
sg15
(lp2833
sg17
(lp2834
sg19
(lp2835
sg21
I0
sba(iArchitecture
Entity
p2836
(dp2837
g11
(lp2838
sg13
S'android.os.storage.VolumeRecord$1'
p2839
sg15
(lp2840
sg17
(lp2841
sg19
(lp2842
sg21
I0
sbasg85
(lp2843
g2412
ag2419
ag2426
ag2433
ag2440
ag2447
ag2454
ag2461
ag2468
ag2475
ag2482
ag2489
ag2496
ag2503
ag2510
ag2517
ag2524
ag2531
ag2538
ag2545
ag2552
ag2559
ag2566
ag2573
ag2580
ag2587
ag2594
ag2601
ag2608
ag2615
ag2622
ag2629
ag2636
ag2643
ag2650
ag2657
ag2664
ag2671
ag2678
ag2685
ag2692
ag2699
ag2706
ag2713
ag2720
ag2727
ag2734
ag2741
ag2748
ag2755
ag2762
ag2769
ag2776
ag2783
ag2790
ag2797
ag2804
ag2811
ag2818
ag2825
ag2832
ag2839
asg21
I0
sg87
S'1330'
p2844
sba(iArchitecture
Cluster
p2845
(dp2846
g7
(lp2847
(iArchitecture
Entity
p2848
(dp2849
g11
(lp2850
sg13
S'android.os.storage.StorageEventListener'
p2851
sg15
(lp2852
sg17
(lp2853
sg19
(lp2854
sg21
I0
sbasg85
(lp2855
g2851
asg21
I0
sg87
S'1331'
p2856
sba(iArchitecture
Cluster
p2857
(dp2858
g7
(lp2859
(iArchitecture
Entity
p2860
(dp2861
g11
(lp2862
sg13
S'android.os.ParcelUuid'
p2863
sg15
(lp2864
sg17
(lp2865
sg19
(lp2866
sg21
I0
sba(iArchitecture
Entity
p2867
(dp2868
g11
(lp2869
sg13
S'android.os.ParcelUuid$1'
p2870
sg15
(lp2871
sg17
(lp2872
sg19
(lp2873
sg21
I0
sbasg85
(lp2874
g2863
ag2870
asg21
I0
sg87
S'1340'
p2875
sba(iArchitecture
Cluster
p2876
(dp2877
g7
(lp2878
(iArchitecture
Entity
p2879
(dp2880
g11
(lp2881
sg13
S'android.os.health.HealthKeys'
p2882
sg15
(lp2883
sg17
(lp2884
sg19
(lp2885
sg21
I0
sba(iArchitecture
Entity
p2886
(dp2887
g11
(lp2888
sg13
S'android.os.health.HealthKeys$Constant'
p2889
sg15
(lp2890
sg17
(lp2891
sg19
(lp2892
sg21
I0
sba(iArchitecture
Entity
p2893
(dp2894
g11
(lp2895
sg13
S'android.os.health.HealthKeys$Constants'
p2896
sg15
(lp2897
sg17
(lp2898
sg19
(lp2899
sg21
I0
sba(iArchitecture
Entity
p2900
(dp2901
g11
(lp2902
sg13
S'android.os.health.HealthKeys$SortedIntArray'
p2903
sg15
(lp2904
sg17
(lp2905
sg19
(lp2906
sg21
I0
sba(iArchitecture
Entity
p2907
(dp2908
g11
(lp2909
sg13
S'android.os.health.PackageHealthStats'
p2910
sg15
(lp2911
sg17
(lp2912
sg19
(lp2913
sg21
I0
sba(iArchitecture
Entity
p2914
(dp2915
g11
(lp2916
sg13
S'android.os.health.ProcessHealthStats'
p2917
sg15
(lp2918
sg17
(lp2919
sg19
(lp2920
sg21
I0
sba(iArchitecture
Entity
p2921
(dp2922
g11
(lp2923
sg13
S'android.os.health.ServiceHealthStats'
p2924
sg15
(lp2925
sg17
(lp2926
sg19
(lp2927
sg21
I0
sbasg85
(lp2928
g2882
ag2889
ag2896
ag2903
ag2910
ag2917
ag2924
asg21
I0
sg87
S'1372'
p2929
sba(iArchitecture
Cluster
p2930
(dp2931
g7
(lp2932
(iArchitecture
Entity
p2933
(dp2934
g11
(lp2935
sg13
S'android.os.AsyncTask'
p2936
sg15
(lp2937
sg17
(lp2938
sg19
(lp2939
sg21
I0
sba(iArchitecture
Entity
p2940
(dp2941
g11
(lp2942
sg13
S'android.os.AsyncTask$1'
p2943
sg15
(lp2944
sg17
(lp2945
sg19
(lp2946
sg21
I0
sba(iArchitecture
Entity
p2947
(dp2948
g11
(lp2949
sg13
S'android.os.AsyncTask$2'
p2950
sg15
(lp2951
sg17
(lp2952
sg19
(lp2953
sg21
I0
sba(iArchitecture
Entity
p2954
(dp2955
g11
(lp2956
sg13
S'android.os.AsyncTask$3'
p2957
sg15
(lp2958
sg17
(lp2959
sg19
(lp2960
sg21
I0
sba(iArchitecture
Entity
p2961
(dp2962
g11
(lp2963
sg13
S'android.os.AsyncTask$AsyncTaskResult'
p2964
sg15
(lp2965
sg17
(lp2966
sg19
(lp2967
sg21
I0
sba(iArchitecture
Entity
p2968
(dp2969
g11
(lp2970
sg13
S'android.os.AsyncTask$InternalHandler'
p2971
sg15
(lp2972
sg17
(lp2973
sg19
(lp2974
sg21
I0
sba(iArchitecture
Entity
p2975
(dp2976
g11
(lp2977
sg13
S'android.os.AsyncTask$SerialExecutor'
p2978
sg15
(lp2979
sg17
(lp2980
sg19
(lp2981
sg21
I0
sba(iArchitecture
Entity
p2982
(dp2983
g11
(lp2984
sg13
S'android.os.AsyncTask$SerialExecutor$1'
p2985
sg15
(lp2986
sg17
(lp2987
sg19
(lp2988
sg21
I0
sba(iArchitecture
Entity
p2989
(dp2990
g11
(lp2991
sg13
S'android.os.AsyncTask$Status'
p2992
sg15
(lp2993
sg17
(lp2994
sg19
(lp2995
sg21
I0
sba(iArchitecture
Entity
p2996
(dp2997
g11
(lp2998
sg13
S'android.os.AsyncTask$WorkerRunnable'
p2999
sg15
(lp3000
sg17
(lp3001
sg19
(lp3002
sg21
I0
sbasg85
(lp3003
g2936
ag2943
ag2950
ag2957
ag2964
ag2971
ag2978
ag2985
ag2992
ag2999
asg21
I0
sg87
S'1375'
p3004
sba(iArchitecture
Cluster
p3005
(dp3006
g7
(lp3007
(iArchitecture
Entity
p3008
(dp3009
g11
(lp3010
sg13
S'android.os.health.TimerStat'
p3011
sg15
(lp3012
sg17
(lp3013
sg19
(lp3014
sg21
I0
sba(iArchitecture
Entity
p3015
(dp3016
g11
(lp3017
sg13
S'android.os.health.TimerStat$1'
p3018
sg15
(lp3019
sg17
(lp3020
sg19
(lp3021
sg21
I0
sbasg85
(lp3022
g3011
ag3018
asg21
I0
sg87
S'1379'
p3023
sba(iArchitecture
Cluster
p3024
(dp3025
g7
(lp3026
(iArchitecture
Entity
p3027
(dp3028
g11
(lp3029
sg13
S'android.os.Parcelable'
p3030
sg15
(lp3031
sg17
(lp3032
sg19
(lp3033
sg21
I0
sba(iArchitecture
Entity
p3034
(dp3035
g11
(lp3036
sg13
S'android.os.Parcelable$ClassLoaderCreator'
p3037
sg15
(lp3038
sg17
(lp3039
sg19
(lp3040
sg21
I0
sba(iArchitecture
Entity
p3041
(dp3042
g11
(lp3043
sg13
S'android.os.Parcelable$Creator'
p3044
sg15
(lp3045
sg17
(lp3046
sg19
(lp3047
sg21
I0
sba(iArchitecture
Entity
p3048
(dp3049
g11
(lp3050
sg13
S'android.os.RemoteCallback'
p3051
sg15
(lp3052
sg17
(lp3053
sg19
(lp3054
sg21
I0
sba(iArchitecture
Entity
p3055
(dp3056
g11
(lp3057
sg13
S'android.os.RemoteCallback$1'
p3058
sg15
(lp3059
sg17
(lp3060
sg19
(lp3061
sg21
I0
sba(iArchitecture
Entity
p3062
(dp3063
g11
(lp3064
sg13
S'android.os.RemoteCallback$2'
p3065
sg15
(lp3066
sg17
(lp3067
sg19
(lp3068
sg21
I0
sba(iArchitecture
Entity
p3069
(dp3070
g11
(lp3071
sg13
S'android.os.RemoteCallback$3'
p3072
sg15
(lp3073
sg17
(lp3074
sg19
(lp3075
sg21
I0
sba(iArchitecture
Entity
p3076
(dp3077
g11
(lp3078
sg13
S'android.os.RemoteCallback$OnResultListener'
p3079
sg15
(lp3080
sg17
(lp3081
sg19
(lp3082
sg21
I0
sba(iArchitecture
Entity
p3083
(dp3084
g11
(lp3085
sg13
S'android.os.UpdateEngine'
p3086
sg15
(lp3087
sg17
(lp3088
sg19
(lp3089
sg21
I0
sba(iArchitecture
Entity
p3090
(dp3091
g11
(lp3092
sg13
S'android.os.UpdateEngine$1'
p3093
sg15
(lp3094
sg17
(lp3095
sg19
(lp3096
sg21
I0
sba(iArchitecture
Entity
p3097
(dp3098
g11
(lp3099
sg13
S'android.os.UpdateEngine$1$1'
p3100
sg15
(lp3101
sg17
(lp3102
sg19
(lp3103
sg21
I0
sba(iArchitecture
Entity
p3104
(dp3105
g11
(lp3106
sg13
S'android.os.UpdateEngine$1$2'
p3107
sg15
(lp3108
sg17
(lp3109
sg19
(lp3110
sg21
I0
sba(iArchitecture
Entity
p3111
(dp3112
g11
(lp3113
sg13
S'android.os.UpdateEngine$ErrorCodeConstants'
p3114
sg15
(lp3115
sg17
(lp3116
sg19
(lp3117
sg21
I0
sba(iArchitecture
Entity
p3118
(dp3119
g11
(lp3120
sg13
S'android.os.UpdateEngine$UpdateStatusConstants'
p3121
sg15
(lp3122
sg17
(lp3123
sg19
(lp3124
sg21
I0
sbasg85
(lp3125
g3030
ag3037
ag3044
ag3051
ag3058
ag3065
ag3072
ag3079
ag3086
ag3093
ag3100
ag3107
ag3114
ag3121
asg21
I0
sg87
S'1384'
p3126
sba(iArchitecture
Cluster
p3127
(dp3128
g7
(lp3129
(iArchitecture
Entity
p3130
(dp3131
g11
(lp3132
sg13
S'android.os.UserManager'
p3133
sg15
(lp3134
sg17
(lp3135
sg19
(lp3136
sg21
I0
sbasg85
(lp3137
g3133
asg21
I0
sg87
S'1392'
p3138
sba(iArchitecture
Cluster
p3139
(dp3140
g7
(lp3141
(iArchitecture
Entity
p3142
(dp3143
g11
(lp3144
sg13
S'android.os.BaseBundle'
p3145
sg15
(lp3146
sg17
(lp3147
sg19
(lp3148
sg21
I0
sba(iArchitecture
Entity
p3149
(dp3150
g11
(lp3151
sg13
S'android.os.BaseBundle$NoImagePreloadHolder'
p3152
sg15
(lp3153
sg17
(lp3154
sg19
(lp3155
sg21
I0
sba(iArchitecture
Entity
p3156
(dp3157
g11
(lp3158
sg13
S'android.os.BatteryManager'
p3159
sg15
(lp3160
sg17
(lp3161
sg19
(lp3162
sg21
I0
sba(iArchitecture
Entity
p3163
(dp3164
g11
(lp3165
sg13
S'android.os.Binder'
p3166
sg15
(lp3167
sg17
(lp3168
sg19
(lp3169
sg21
I0
sba(iArchitecture
Entity
p3170
(dp3171
g11
(lp3172
sg13
S'android.os.Binder$1'
p3173
sg15
(lp3174
sg17
(lp3175
sg19
(lp3176
sg21
I0
sba(iArchitecture
Entity
p3177
(dp3178
g11
(lp3179
sg13
S'android.os.Build'
p3180
sg15
(lp3181
sg17
(lp3182
sg19
(lp3183
sg21
I0
sba(iArchitecture
Entity
p3184
(dp3185
g11
(lp3186
sg13
S'android.os.Build$VERSION'
p3187
sg15
(lp3188
sg17
(lp3189
sg19
(lp3190
sg21
I0
sba(iArchitecture
Entity
p3191
(dp3192
g11
(lp3193
sg13
S'android.os.Build$VERSION_CODES'
p3194
sg15
(lp3195
sg17
(lp3196
sg19
(lp3197
sg21
I0
sba(iArchitecture
Entity
p3198
(dp3199
g11
(lp3200
sg13
S'android.os.Bundle'
p3201
sg15
(lp3202
sg17
(lp3203
sg19
(lp3204
sg21
I0
sba(iArchitecture
Entity
p3205
(dp3206
g11
(lp3207
sg13
S'android.os.Bundle$1'
p3208
sg15
(lp3209
sg17
(lp3210
sg19
(lp3211
sg21
I0
sba(iArchitecture
Entity
p3212
(dp3213
g11
(lp3214
sg13
S'android.os.FileObserver'
p3215
sg15
(lp3216
sg17
(lp3217
sg19
(lp3218
sg21
I0
sba(iArchitecture
Entity
p3219
(dp3220
g11
(lp3221
sg13
S'android.os.FileObserver$ObserverThread'
p3222
sg15
(lp3223
sg17
(lp3224
sg19
(lp3225
sg21
I0
sba(iArchitecture
Entity
p3226
(dp3227
g11
(lp3228
sg13
S'android.os.IBinder'
p3229
sg15
(lp3230
sg17
(lp3231
sg19
(lp3232
sg21
I0
sba(iArchitecture
Entity
p3233
(dp3234
g11
(lp3235
sg13
S'android.os.IBinder$DeathRecipient'
p3236
sg15
(lp3237
sg17
(lp3238
sg19
(lp3239
sg21
I0
sba(iArchitecture
Entity
p3240
(dp3241
g11
(lp3242
sg13
S'android.os.PersistableBundle'
p3243
sg15
(lp3244
sg17
(lp3245
sg19
(lp3246
sg21
I0
sba(iArchitecture
Entity
p3247
(dp3248
g11
(lp3249
sg13
S'android.os.PersistableBundle$1'
p3250
sg15
(lp3251
sg17
(lp3252
sg19
(lp3253
sg21
I0
sba(iArchitecture
Entity
p3254
(dp3255
g11
(lp3256
sg13
S'android.os.PersistableBundle$MyReadMapCallback'
p3257
sg15
(lp3258
sg17
(lp3259
sg19
(lp3260
sg21
I0
sba(iArchitecture
Entity
p3261
(dp3262
g11
(lp3263
sg13
S'android.os.PowerManager'
p3264
sg15
(lp3265
sg17
(lp3266
sg19
(lp3267
sg21
I0
sba(iArchitecture
Entity
p3268
(dp3269
g11
(lp3270
sg13
S'android.os.PowerManager$WakeLock'
p3271
sg15
(lp3272
sg17
(lp3273
sg19
(lp3274
sg21
I0
sba(iArchitecture
Entity
p3275
(dp3276
g11
(lp3277
sg13
S'android.os.PowerManager$WakeLock$1'
p3278
sg15
(lp3279
sg17
(lp3280
sg19
(lp3281
sg21
I0
sba(iArchitecture
Entity
p3282
(dp3283
g11
(lp3284
sg13
S'android.os.RemoteCallbackList'
p3285
sg15
(lp3286
sg17
(lp3287
sg19
(lp3288
sg21
I0
sba(iArchitecture
Entity
p3289
(dp3290
g11
(lp3291
sg13
S'android.os.RemoteCallbackList$Callback'
p3292
sg15
(lp3293
sg17
(lp3294
sg19
(lp3295
sg21
I0
sba(iArchitecture
Entity
p3296
(dp3297
g11
(lp3298
sg13
S'android.os.SystemProperties'
p3299
sg15
(lp3300
sg17
(lp3301
sg19
(lp3302
sg21
I0
sba(iArchitecture
Entity
p3303
(dp3304
g11
(lp3305
sg13
S'android.os.UpdateLock'
p3306
sg15
(lp3307
sg17
(lp3308
sg19
(lp3309
sg21
I0
sbasg85
(lp3310
g3145
ag3152
ag3159
ag3166
ag3173
ag3180
ag3187
ag3194
ag3201
ag3208
ag3215
ag3222
ag3229
ag3236
ag3243
ag3250
ag3257
ag3264
ag3271
ag3278
ag3285
ag3292
ag3299
ag3306
asg21
I0
sg87
S'1401'
p3311
sba(iArchitecture
Cluster
p3312
(dp3313
g7
(lp3314
(iArchitecture
Entity
p3315
(dp3316
g11
(lp3317
sg13
S'android.os.Process'
p3318
sg15
(lp3319
sg17
(lp3320
sg19
(lp3321
sg21
I0
sba(iArchitecture
Entity
p3322
(dp3323
g11
(lp3324
sg13
S'android.os.Process$ProcessStartResult'
p3325
sg15
(lp3326
sg17
(lp3327
sg19
(lp3328
sg21
I0
sba(iArchitecture
Entity
p3329
(dp3330
g11
(lp3331
sg13
S'android.os.Process$ZygoteState'
p3332
sg15
(lp3333
sg17
(lp3334
sg19
(lp3335
sg21
I0
sbasg85
(lp3336
g3318
ag3325
ag3332
asg21
I0
sg87
S'1404'
p3337
sba(iArchitecture
Cluster
p3338
(dp3339
g7
(lp3340
(iArchitecture
Entity
p3341
(dp3342
g11
(lp3343
sg13
S'android.os.Parcel'
p3344
sg15
(lp3345
sg17
(lp3346
sg19
(lp3347
sg21
I0
sba(iArchitecture
Entity
p3348
(dp3349
g11
(lp3350
sg13
S'android.os.Parcel$1'
p3351
sg15
(lp3352
sg17
(lp3353
sg19
(lp3354
sg21
I0
sba(iArchitecture
Entity
p3355
(dp3356
g11
(lp3357
sg13
S'android.os.Parcel$2'
p3358
sg15
(lp3359
sg17
(lp3360
sg19
(lp3361
sg21
I0
sbasg85
(lp3362
g3344
ag3351
ag3358
asg21
I0
sg87
S'1406'
p3363
sba(iArchitecture
Cluster
p3364
(dp3365
g7
(lp3366
(iArchitecture
Entity
p3367
(dp3368
g11
(lp3369
sg13
S'android.os.Vibrator'
p3370
sg15
(lp3371
sg17
(lp3372
sg19
(lp3373
sg21
I0
sbasg85
(lp3374
g3370
asg21
I0
sg87
S'15'
p3375
sba(iArchitecture
Cluster
p3376
(dp3377
g7
(lp3378
(iArchitecture
Entity
p3379
(dp3380
g11
(lp3381
sg13
S'android.os.ConditionVariable'
p3382
sg15
(lp3383
sg17
(lp3384
sg19
(lp3385
sg21
I0
sbasg85
(lp3386
g3382
asg21
I0
sg87
S'154'
p3387
sba(iArchitecture
Cluster
p3388
(dp3389
g7
(lp3390
(iArchitecture
Entity
p3391
(dp3392
g11
(lp3393
sg13
S'android.os.health.SystemHealthManager'
p3394
sg15
(lp3395
sg17
(lp3396
sg19
(lp3397
sg21
I0
sbasg85
(lp3398
g3394
asg21
I0
sg87
S'215'
p3399
sba(iArchitecture
Cluster
p3400
(dp3401
g7
(lp3402
(iArchitecture
Entity
p3403
(dp3404
g11
(lp3405
sg13
S'android.os.StatFs'
p3406
sg15
(lp3407
sg17
(lp3408
sg19
(lp3409
sg21
I0
sbasg85
(lp3410
g3406
asg21
I0
sg87
S'237'
p3411
sba(iArchitecture
Cluster
p3412
(dp3413
g7
(lp3414
(iArchitecture
Entity
p3415
(dp3416
g11
(lp3417
sg13
S'android.os.SystemClock'
p3418
sg15
(lp3419
sg17
(lp3420
sg19
(lp3421
sg21
I0
sbasg85
(lp3422
g3418
asg21
I0
sg87
S'248'
p3423
sba(iArchitecture
Cluster
p3424
(dp3425
g7
(lp3426
(iArchitecture
Entity
p3427
(dp3428
g11
(lp3429
sg13
S'android.os.storage.StorageResultCode'
p3430
sg15
(lp3431
sg17
(lp3432
sg19
(lp3433
sg21
I0
sbasg85
(lp3434
g3430
asg21
I0
sg87
S'265'
p3435
sba(iArchitecture
Cluster
p3436
(dp3437
g7
(lp3438
(iArchitecture
Entity
p3439
(dp3440
g11
(lp3441
sg13
S'android.os.health.PidHealthStats'
p3442
sg15
(lp3443
sg17
(lp3444
sg19
(lp3445
sg21
I0
sbasg85
(lp3446
g3442
asg21
I0
sg87
S'288'
p3447
sba(iArchitecture
Cluster
p3448
(dp3449
g7
(lp3450
(iArchitecture
Entity
p3451
(dp3452
g11
(lp3453
sg13
S'android.os.SELinux'
p3454
sg15
(lp3455
sg17
(lp3456
sg19
(lp3457
sg21
I0
sbasg85
(lp3458
g3454
asg21
I0
sg87
S'42'
p3459
sba(iArchitecture
Cluster
p3460
(dp3461
g7
(lp3462
(iArchitecture
Entity
p3463
(dp3464
g11
(lp3465
sg13
S'android.os.ShellCommand'
p3466
sg15
(lp3467
sg17
(lp3468
sg19
(lp3469
sg21
I0
sbasg85
(lp3470
g3466
asg21
I0
sg87
S'44'
p3471
sba(iArchitecture
Cluster
p3472
(dp3473
g7
(lp3474
(iArchitecture
Entity
p3475
(dp3476
g11
(lp3477
sg13
S'android.os.storage.OnObbStateChangeListener'
p3478
sg15
(lp3479
sg17
(lp3480
sg19
(lp3481
sg21
I0
sbasg85
(lp3482
g3478
asg21
I0
sg87
S'444'
p3483
sba(iArchitecture
Cluster
p3484
(dp3485
g7
(lp3486
(iArchitecture
Entity
p3487
(dp3488
g11
(lp3489
sg13
S'android.os.Looper'
p3490
sg15
(lp3491
sg17
(lp3492
sg19
(lp3493
sg21
I0
sbasg85
(lp3494
g3490
asg21
I0
sg87
S'476'
p3495
sba(iArchitecture
Cluster
p3496
(dp3497
g7
(lp3498
(iArchitecture
Entity
p3499
(dp3500
g11
(lp3501
sg13
S'android.os.health.UidHealthStats'
p3502
sg15
(lp3503
sg17
(lp3504
sg19
(lp3505
sg21
I0
sbasg85
(lp3506
g3502
asg21
I0
sg87
S'489'
p3507
sba(iArchitecture
Cluster
p3508
(dp3509
g7
(lp3510
(iArchitecture
Entity
p3511
(dp3512
g11
(lp3513
sg13
S'android.os.HandlerThread'
p3514
sg15
(lp3515
sg17
(lp3516
sg19
(lp3517
sg21
I0
sbasg85
(lp3518
g3514
asg21
I0
sg87
S'56'
p3519
sba(iArchitecture
Cluster
p3520
(dp3521
g7
(lp3522
(iArchitecture
Entity
p3523
(dp3524
g11
(lp3525
sg13
S'android.os.CommonTimeUtils'
p3526
sg15
(lp3527
sg17
(lp3528
sg19
(lp3529
sg21
I0
sbasg85
(lp3530
g3526
asg21
I0
sg87
S'59'
p3531
sba(iArchitecture
Cluster
p3532
(dp3533
g7
(lp3534
(iArchitecture
Entity
p3535
(dp3536
g11
(lp3537
sg13
S'android.os.CountDownTimer'
p3538
sg15
(lp3539
sg17
(lp3540
sg19
(lp3541
sg21
I0
sba(iArchitecture
Entity
p3542
(dp3543
g11
(lp3544
sg13
S'android.os.CountDownTimer$1'
p3545
sg15
(lp3546
sg17
(lp3547
sg19
(lp3548
sg21
I0
sbasg85
(lp3549
g3538
ag3545
asg21
I0
sg87
S'600'
p3550
sba(iArchitecture
Cluster
p3551
(dp3552
g7
(lp3553
(iArchitecture
Entity
p3554
(dp3555
g11
(lp3556
sg13
S'android.os.PatternMatcher'
p3557
sg15
(lp3558
sg17
(lp3559
sg19
(lp3560
sg21
I0
sba(iArchitecture
Entity
p3561
(dp3562
g11
(lp3563
sg13
S'android.os.PatternMatcher$1'
p3564
sg15
(lp3565
sg17
(lp3566
sg19
(lp3567
sg21
I0
sbasg85
(lp3568
g3557
ag3564
asg21
I0
sg87
S'618'
p3569
sba(iArchitecture
Cluster
p3570
(dp3571
g7
(lp3572
(iArchitecture
Entity
p3573
(dp3574
g11
(lp3575
sg13
S'android.os.Messenger'
p3576
sg15
(lp3577
sg17
(lp3578
sg19
(lp3579
sg21
I0
sba(iArchitecture
Entity
p3580
(dp3581
g11
(lp3582
sg13
S'android.os.Messenger$1'
p3583
sg15
(lp3584
sg17
(lp3585
sg19
(lp3586
sg21
I0
sbasg85
(lp3587
g3576
ag3583
asg21
I0
sg87
S'627'
p3588
sba(iArchitecture
Cluster
p3589
(dp3590
g7
(lp3591
(iArchitecture
Entity
p3592
(dp3593
g11
(lp3594
sg13
S'android.os.LocaleList'
p3595
sg15
(lp3596
sg17
(lp3597
sg19
(lp3598
sg21
I0
sba(iArchitecture
Entity
p3599
(dp3600
g11
(lp3601
sg13
S'android.os.LocaleList$1'
p3602
sg15
(lp3603
sg17
(lp3604
sg19
(lp3605
sg21
I0
sbasg85
(lp3606
g3595
ag3602
asg21
I0
sg87
S'652'
p3607
sba(iArchitecture
Cluster
p3608
(dp3609
g7
(lp3610
(iArchitecture
Entity
p3611
(dp3612
g11
(lp3613
sg13
S'android.os.PerformanceCollector'
p3614
sg15
(lp3615
sg17
(lp3616
sg19
(lp3617
sg21
I0
sba(iArchitecture
Entity
p3618
(dp3619
g11
(lp3620
sg13
S'android.os.PerformanceCollector$PerformanceResultsWriter'
p3621
sg15
(lp3622
sg17
(lp3623
sg19
(lp3624
sg21
I0
sbasg85
(lp3625
g3614
ag3621
asg21
I0
sg87
S'667'
p3626
sba(iArchitecture
Cluster
p3627
(dp3628
g7
(lp3629
(iArchitecture
Entity
p3630
(dp3631
g11
(lp3632
sg13
S'android.os.SystemVibrator'
p3633
sg15
(lp3634
sg17
(lp3635
sg19
(lp3636
sg21
I0
sbasg85
(lp3637
g3633
asg21
I0
sg87
S'68'
p3638
sba(iArchitecture
Cluster
p3639
(dp3640
g7
(lp3641
(iArchitecture
Entity
p3642
(dp3643
g11
(lp3644
sg13
S'android.os.Message'
p3645
sg15
(lp3646
sg17
(lp3647
sg19
(lp3648
sg21
I0
sba(iArchitecture
Entity
p3649
(dp3650
g11
(lp3651
sg13
S'android.os.Message$1'
p3652
sg15
(lp3653
sg17
(lp3654
sg19
(lp3655
sg21
I0
sbasg85
(lp3656
g3645
ag3652
asg21
I0
sg87
S'696'
p3657
sba(iArchitecture
Cluster
p3658
(dp3659
g7
(lp3660
(iArchitecture
Entity
p3661
(dp3662
g11
(lp3663
sg13
S'android.os.WorkSource'
p3664
sg15
(lp3665
sg17
(lp3666
sg19
(lp3667
sg21
I0
sba(iArchitecture
Entity
p3668
(dp3669
g11
(lp3670
sg13
S'android.os.WorkSource$1'
p3671
sg15
(lp3672
sg17
(lp3673
sg19
(lp3674
sg21
I0
sbasg85
(lp3675
g3664
ag3671
asg21
I0
sg87
S'698'
p3676
sba(iArchitecture
Cluster
p3677
(dp3678
g7
(lp3679
(iArchitecture
Entity
p3680
(dp3681
g11
(lp3682
sg13
S'android.os.PowerManagerInternal'
p3683
sg15
(lp3684
sg17
(lp3685
sg19
(lp3686
sg21
I0
sba(iArchitecture
Entity
p3687
(dp3688
g11
(lp3689
sg13
S'android.os.PowerManagerInternal$LowPowerModeListener'
p3690
sg15
(lp3691
sg17
(lp3692
sg19
(lp3693
sg21
I0
sbasg85
(lp3694
g3683
ag3690
asg21
I0
sg87
S'709'
p3695
sba(iArchitecture
Cluster
p3696
(dp3697
g7
(lp3698
(iArchitecture
Entity
p3699
(dp3700
g11
(lp3701
sg13
S'android.os.health.HealthStatsParceler'
p3702
sg15
(lp3703
sg17
(lp3704
sg19
(lp3705
sg21
I0
sba(iArchitecture
Entity
p3706
(dp3707
g11
(lp3708
sg13
S'android.os.health.HealthStatsParceler$1'
p3709
sg15
(lp3710
sg17
(lp3711
sg19
(lp3712
sg21
I0
sbasg85
(lp3713
g3702
ag3709
asg21
I0
sg87
S'744'
p3714
sba(iArchitecture
Cluster
p3715
(dp3716
g7
(lp3717
(iArchitecture
Entity
p3718
(dp3719
g11
(lp3720
sg13
S'android.os.UserHandle'
p3721
sg15
(lp3722
sg17
(lp3723
sg19
(lp3724
sg21
I0
sba(iArchitecture
Entity
p3725
(dp3726
g11
(lp3727
sg13
S'android.os.UserHandle$1'
p3728
sg15
(lp3729
sg17
(lp3730
sg19
(lp3731
sg21
I0
sbasg85
(lp3732
g3721
ag3728
asg21
I0
sg87
S'757'
p3733
sba(iArchitecture
Cluster
p3734
(dp3735
g7
(lp3736
(iArchitecture
Entity
p3737
(dp3738
g11
(lp3739
sg13
S'android.os.BatteryProperties'
p3740
sg15
(lp3741
sg17
(lp3742
sg19
(lp3743
sg21
I0
sba(iArchitecture
Entity
p3744
(dp3745
g11
(lp3746
sg13
S'android.os.BatteryProperties$1'
p3747
sg15
(lp3748
sg17
(lp3749
sg19
(lp3750
sg21
I0
sbasg85
(lp3751
g3740
ag3747
asg21
I0
sg87
S'778'
p3752
sba(iArchitecture
Cluster
p3753
(dp3754
g7
(lp3755
(iArchitecture
Entity
p3756
(dp3757
g11
(lp3758
sg13
S'android.os.Environment'
p3759
sg15
(lp3760
sg17
(lp3761
sg19
(lp3762
sg21
I0
sba(iArchitecture
Entity
p3763
(dp3764
g11
(lp3765
sg13
S'android.os.Environment$UserEnvironment'
p3766
sg15
(lp3767
sg17
(lp3768
sg19
(lp3769
sg21
I0
sbasg85
(lp3770
g3759
ag3766
asg21
I0
sg87
S'796'
p3771
sba(iArchitecture
Cluster
p3772
(dp3773
g7
(lp3774
(iArchitecture
Entity
p3775
(dp3776
g11
(lp3777
sg13
S'android.os.storage.StorageVolume'
p3778
sg15
(lp3779
sg17
(lp3780
sg19
(lp3781
sg21
I0
sba(iArchitecture
Entity
p3782
(dp3783
g11
(lp3784
sg13
S'android.os.storage.StorageVolume$1'
p3785
sg15
(lp3786
sg17
(lp3787
sg19
(lp3788
sg21
I0
sbasg85
(lp3789
g3778
ag3785
asg21
I0
sg87
S'802'
p3790
sba(iArchitecture
Cluster
p3791
(dp3792
g7
(lp3793
(iArchitecture
Entity
p3794
(dp3795
g11
(lp3796
sg13
S'android.os.Broadcaster'
p3797
sg15
(lp3798
sg17
(lp3799
sg19
(lp3800
sg21
I0
sba(iArchitecture
Entity
p3801
(dp3802
g11
(lp3803
sg13
S'android.os.Broadcaster$Registration'
p3804
sg15
(lp3805
sg17
(lp3806
sg19
(lp3807
sg21
I0
sbasg85
(lp3808
g3797
ag3804
asg21
I0
sg87
S'812'
p3809
sba(iArchitecture
Cluster
p3810
(dp3811
g7
(lp3812
(iArchitecture
Entity
p3813
(dp3814
g11
(lp3815
sg13
S'android.os.Trace'
p3816
sg15
(lp3817
sg17
(lp3818
sg19
(lp3819
sg21
I0
sba(iArchitecture
Entity
p3820
(dp3821
g11
(lp3822
sg13
S'android.os.Trace$1'
p3823
sg15
(lp3824
sg17
(lp3825
sg19
(lp3826
sg21
I0
sbasg85
(lp3827
g3816
ag3823
asg21
I0
sg87
S'813'
p3828
sba(iArchitecture
Cluster
p3829
(dp3830
g7
(lp3831
(iArchitecture
Entity
p3832
(dp3833
g11
(lp3834
sg13
S'android.os.FileBridge'
p3835
sg15
(lp3836
sg17
(lp3837
sg19
(lp3838
sg21
I0
sba(iArchitecture
Entity
p3839
(dp3840
g11
(lp3841
sg13
S'android.os.FileBridge$FileBridgeOutputStream'
p3842
sg15
(lp3843
sg17
(lp3844
sg19
(lp3845
sg21
I0
sbasg85
(lp3846
g3835
ag3842
asg21
I0
sg87
S'814'
p3847
sba(iArchitecture
Cluster
p3848
(dp3849
g7
(lp3850
(iArchitecture
Entity
p3851
(dp3852
g11
(lp3853
sg13
S'android.os.UserManagerInternal'
p3854
sg15
(lp3855
sg17
(lp3856
sg19
(lp3857
sg21
I0
sba(iArchitecture
Entity
p3858
(dp3859
g11
(lp3860
sg13
S'android.os.UserManagerInternal$UserRestrictionsListener'
p3861
sg15
(lp3862
sg17
(lp3863
sg19
(lp3864
sg21
I0
sbasg85
(lp3865
g3854
ag3861
asg21
I0
sg87
S'816'
p3866
sba(iArchitecture
Cluster
p3867
(dp3868
g7
(lp3869
(iArchitecture
Entity
p3870
(dp3871
g11
(lp3872
sg13
S'android.os.CommonTimeConfig'
p3873
sg15
(lp3874
sg17
(lp3875
sg19
(lp3876
sg21
I0
sba(iArchitecture
Entity
p3877
(dp3878
g11
(lp3879
sg13
S'android.os.CommonTimeConfig$1'
p3880
sg15
(lp3881
sg17
(lp3882
sg19
(lp3883
sg21
I0
sba(iArchitecture
Entity
p3884
(dp3885
g11
(lp3886
sg13
S'android.os.CommonTimeConfig$OnServerDiedListener'
p3887
sg15
(lp3888
sg17
(lp3889
sg19
(lp3890
sg21
I0
sbasg85
(lp3891
g3873
ag3880
ag3887
asg21
I0
sg87
S'879'
p3892
sba(iArchitecture
Cluster
p3893
(dp3894
g7
(lp3895
(iArchitecture
Entity
p3896
(dp3897
g11
(lp3898
sg13
S'android.os.UEventObserver'
p3899
sg15
(lp3900
sg17
(lp3901
sg19
(lp3902
sg21
I0
sba(iArchitecture
Entity
p3903
(dp3904
g11
(lp3905
sg13
S'android.os.UEventObserver$UEvent'
p3906
sg15
(lp3907
sg17
(lp3908
sg19
(lp3909
sg21
I0
sba(iArchitecture
Entity
p3910
(dp3911
g11
(lp3912
sg13
S'android.os.UEventObserver$UEventThread'
p3913
sg15
(lp3914
sg17
(lp3915
sg19
(lp3916
sg21
I0
sbasg85
(lp3917
g3899
ag3906
ag3913
asg21
I0
sg87
S'897'
p3918
sba(iArchitecture
Cluster
p3919
(dp3920
g7
(lp3921
(iArchitecture
Entity
p3922
(dp3923
g11
(lp3924
sg13
S'android.os.CancellationSignal'
p3925
sg15
(lp3926
sg17
(lp3927
sg19
(lp3928
sg21
I0
sba(iArchitecture
Entity
p3929
(dp3930
g11
(lp3931
sg13
S'android.os.CancellationSignal$OnCancelListener'
p3932
sg15
(lp3933
sg17
(lp3934
sg19
(lp3935
sg21
I0
sba(iArchitecture
Entity
p3936
(dp3937
g11
(lp3938
sg13
S'android.os.CancellationSignal$Transport'
p3939
sg15
(lp3940
sg17
(lp3941
sg19
(lp3942
sg21
I0
sbasg85
(lp3943
g3925
ag3932
ag3939
asg21
I0
sg87
S'910'
p3944
sba(iArchitecture
Cluster
p3945
(dp3946
g7
(lp3947
(iArchitecture
Entity
p3948
(dp3949
g11
(lp3950
sg13
S'android.os.storage.VolumeInfo'
p3951
sg15
(lp3952
sg17
(lp3953
sg19
(lp3954
sg21
I0
sba(iArchitecture
Entity
p3955
(dp3956
g11
(lp3957
sg13
S'android.os.storage.VolumeInfo$1'
p3958
sg15
(lp3959
sg17
(lp3960
sg19
(lp3961
sg21
I0
sba(iArchitecture
Entity
p3962
(dp3963
g11
(lp3964
sg13
S'android.os.storage.VolumeInfo$2'
p3965
sg15
(lp3966
sg17
(lp3967
sg19
(lp3968
sg21
I0
sbasg85
(lp3969
g3951
ag3958
ag3965
asg21
I0
sg87
S'935'
p3970
sbasg1821
g1822
sg85
(lp3971
sg1824
I00
sg87
S'7.0.0_r1'
p3972
sba.