(lp0
(iArchitecture
Architecture
p1
(dp2
S'clusters'
p3
(lp4
(iArchitecture
Cluster
p5
(dp6
S'entities'
p7
(lp8
(iArchitecture
Entity
p9
(dp10
S'issue_ids'
p11
(lp12
sS'name'
p13
S'com.android.server.power.ScreenOnBlocker'
p14
sS'descs'
p15
(lp16
sS'labels'
p17
(lp18
sS'titles'
p19
(lp20
sS'change'
p21
I0
sba(iArchitecture
Entity
p22
(dp23
g11
(lp24
sg13
S'com.android.server.power.SuspendBlocker'
p25
sg15
(lp26
sg17
(lp27
sg19
(lp28
sg21
I0
sbasS'classes'
p29
(lp30
g14
ag25
asg21
I0
sS'label'
p31
S'1223'
p32
sba(iArchitecture
Cluster
p33
(dp34
g7
(lp35
(iArchitecture
Entity
p36
(dp37
g11
(lp38
sg13
S'com.android.server.power.Notifier'
p39
sg15
(lp40
sg17
(lp41
sg19
(lp42
sg21
I0
sba(iArchitecture
Entity
p43
(dp44
g11
(lp45
sg13
S'com.android.server.power.Notifier$1'
p46
sg15
(lp47
sg17
(lp48
sg19
(lp49
sg21
I0
sba(iArchitecture
Entity
p50
(dp51
g11
(lp52
sg13
S'com.android.server.power.Notifier$2'
p53
sg15
(lp54
sg17
(lp55
sg19
(lp56
sg21
I0
sba(iArchitecture
Entity
p57
(dp58
g11
(lp59
sg13
S'com.android.server.power.Notifier$3'
p60
sg15
(lp61
sg17
(lp62
sg19
(lp63
sg21
I0
sba(iArchitecture
Entity
p64
(dp65
g11
(lp66
sg13
S'com.android.server.power.Notifier$4'
p67
sg15
(lp68
sg17
(lp69
sg19
(lp70
sg21
I0
sba(iArchitecture
Entity
p71
(dp72
g11
(lp73
sg13
S'com.android.server.power.Notifier$5'
p74
sg15
(lp75
sg17
(lp76
sg19
(lp77
sg21
I0
sba(iArchitecture
Entity
p78
(dp79
g11
(lp80
sg13
S'com.android.server.power.Notifier$6'
p81
sg15
(lp82
sg17
(lp83
sg19
(lp84
sg21
I0
sba(iArchitecture
Entity
p85
(dp86
g11
(lp87
sg13
S'com.android.server.power.Notifier$7'
p88
sg15
(lp89
sg17
(lp90
sg19
(lp91
sg21
I0
sba(iArchitecture
Entity
p92
(dp93
g11
(lp94
sg13
S'com.android.server.power.Notifier$8'
p95
sg15
(lp96
sg17
(lp97
sg19
(lp98
sg21
I0
sba(iArchitecture
Entity
p99
(dp100
g11
(lp101
sg13
S'com.android.server.power.Notifier$NotifierHandler'
p102
sg15
(lp103
sg17
(lp104
sg19
(lp105
sg21
I0
sba(iArchitecture
Entity
p106
(dp107
g11
(lp108
sg13
S'com.android.server.power.PowerManagerService'
p109
sg15
(lp110
sg17
(lp111
sg19
(lp112
sg21
I0
sba(iArchitecture
Entity
p113
(dp114
g11
(lp115
sg13
S'com.android.server.power.PowerManagerService$1'
p116
sg15
(lp117
sg17
(lp118
sg19
(lp119
sg21
I0
sba(iArchitecture
Entity
p120
(dp121
g11
(lp122
sg13
S'com.android.server.power.PowerManagerService$2'
p123
sg15
(lp124
sg17
(lp125
sg19
(lp126
sg21
I0
sba(iArchitecture
Entity
p127
(dp128
g11
(lp129
sg13
S'com.android.server.power.PowerManagerService$3'
p130
sg15
(lp131
sg17
(lp132
sg19
(lp133
sg21
I0
sba(iArchitecture
Entity
p134
(dp135
g11
(lp136
sg13
S'com.android.server.power.PowerManagerService$4'
p137
sg15
(lp138
sg17
(lp139
sg19
(lp140
sg21
I0
sba(iArchitecture
Entity
p141
(dp142
g11
(lp143
sg13
S'com.android.server.power.PowerManagerService$BatteryReceiver'
p144
sg15
(lp145
sg17
(lp146
sg19
(lp147
sg21
I0
sba(iArchitecture
Entity
p148
(dp149
g11
(lp150
sg13
S'com.android.server.power.PowerManagerService$BinderService'
p151
sg15
(lp152
sg17
(lp153
sg19
(lp154
sg21
I0
sba(iArchitecture
Entity
p155
(dp156
g11
(lp157
sg13
S'com.android.server.power.PowerManagerService$DockReceiver'
p158
sg15
(lp159
sg17
(lp160
sg19
(lp161
sg21
I0
sba(iArchitecture
Entity
p162
(dp163
g11
(lp164
sg13
S'com.android.server.power.PowerManagerService$DreamReceiver'
p165
sg15
(lp166
sg17
(lp167
sg19
(lp168
sg21
I0
sba(iArchitecture
Entity
p169
(dp170
g11
(lp171
sg13
S'com.android.server.power.PowerManagerService$LocalService'
p172
sg15
(lp173
sg17
(lp174
sg19
(lp175
sg21
I0
sba(iArchitecture
Entity
p176
(dp177
g11
(lp178
sg13
S'com.android.server.power.PowerManagerService$PowerManagerHandler'
p179
sg15
(lp180
sg17
(lp181
sg19
(lp182
sg21
I0
sba(iArchitecture
Entity
p183
(dp184
g11
(lp185
sg13
S'com.android.server.power.PowerManagerService$SettingsObserver'
p186
sg15
(lp187
sg17
(lp188
sg19
(lp189
sg21
I0
sba(iArchitecture
Entity
p190
(dp191
g11
(lp192
sg13
S'com.android.server.power.PowerManagerService$SuspendBlockerImpl'
p193
sg15
(lp194
sg17
(lp195
sg19
(lp196
sg21
I0
sba(iArchitecture
Entity
p197
(dp198
g11
(lp199
sg13
S'com.android.server.power.PowerManagerService$UserSwitchedReceiver'
p200
sg15
(lp201
sg17
(lp202
sg19
(lp203
sg21
I0
sba(iArchitecture
Entity
p204
(dp205
g11
(lp206
sg13
S'com.android.server.power.PowerManagerService$WakeLock'
p207
sg15
(lp208
sg17
(lp209
sg19
(lp210
sg21
I0
sbasg29
(lp211
g39
ag46
ag53
ag60
ag67
ag74
ag81
ag88
ag95
ag102
ag109
ag116
ag123
ag130
ag137
ag144
ag151
ag158
ag165
ag172
ag179
ag186
ag193
ag200
ag207
asg21
I0
sg31
S'1246'
p212
sba(iArchitecture
Cluster
p213
(dp214
g7
(lp215
(iArchitecture
Entity
p216
(dp217
g11
(lp218
sg13
S'com.android.server.power.WirelessChargerDetector'
p219
sg15
(lp220
sg17
(lp221
sg19
(lp222
sg21
I0
sba(iArchitecture
Entity
p223
(dp224
g11
(lp225
sg13
S'com.android.server.power.WirelessChargerDetector$1'
p226
sg15
(lp227
sg17
(lp228
sg19
(lp229
sg21
I0
sba(iArchitecture
Entity
p230
(dp231
g11
(lp232
sg13
S'com.android.server.power.WirelessChargerDetector$2'
p233
sg15
(lp234
sg17
(lp235
sg19
(lp236
sg21
I0
sbasg29
(lp237
g219
ag226
ag233
asg21
I0
sg31
S'884'
p238
sbasS'target_sub'
p239
S'com.android.server.power'
p240
sg29
(lp241
sS'is_component_arch'
p242
I00
sg31
S'6.0.0_r1'
p243
sba(iArchitecture
Architecture
p244
(dp245
g3
(lp246
(iArchitecture
Cluster
p247
(dp248
g7
(lp249
(iArchitecture
Entity
p250
(dp251
g11
(lp252
sg13
S'com.android.server.power.ScreenOnBlocker'
p253
sg15
(lp254
sg17
(lp255
sg19
(lp256
sg21
I0
sba(iArchitecture
Entity
p257
(dp258
g11
(lp259
sg13
S'com.android.server.power.SuspendBlocker'
p260
sg15
(lp261
sg17
(lp262
sg19
(lp263
sg21
I0
sbasg29
(lp264
g253
ag260
asg21
I0
sg31
S'1330'
p265
sba(iArchitecture
Cluster
p266
(dp267
g7
(lp268
(iArchitecture
Entity
p269
(dp270
g11
(lp271
sg13
S'com.android.server.power.Notifier'
p272
sg15
(lp273
sg17
(lp274
sg19
(lp275
sg21
I0
sba(iArchitecture
Entity
p276
(dp277
g11
(lp278
sg13
S'com.android.server.power.Notifier$1'
p279
sg15
(lp280
sg17
(lp281
sg19
(lp282
sg21
I0
sba(iArchitecture
Entity
p283
(dp284
g11
(lp285
sg13
S'com.android.server.power.Notifier$2'
p286
sg15
(lp287
sg17
(lp288
sg19
(lp289
sg21
I0
sba(iArchitecture
Entity
p290
(dp291
g11
(lp292
sg13
S'com.android.server.power.Notifier$3'
p293
sg15
(lp294
sg17
(lp295
sg19
(lp296
sg21
I0
sba(iArchitecture
Entity
p297
(dp298
g11
(lp299
sg13
S'com.android.server.power.Notifier$4'
p300
sg15
(lp301
sg17
(lp302
sg19
(lp303
sg21
I0
sba(iArchitecture
Entity
p304
(dp305
g11
(lp306
sg13
S'com.android.server.power.Notifier$5'
p307
sg15
(lp308
sg17
(lp309
sg19
(lp310
sg21
I0
sba(iArchitecture
Entity
p311
(dp312
g11
(lp313
sg13
S'com.android.server.power.Notifier$6'
p314
sg15
(lp315
sg17
(lp316
sg19
(lp317
sg21
I0
sba(iArchitecture
Entity
p318
(dp319
g11
(lp320
sg13
S'com.android.server.power.Notifier$7'
p321
sg15
(lp322
sg17
(lp323
sg19
(lp324
sg21
I0
sba(iArchitecture
Entity
p325
(dp326
g11
(lp327
sg13
S'com.android.server.power.Notifier$8'
p328
sg15
(lp329
sg17
(lp330
sg19
(lp331
sg21
I0
sba(iArchitecture
Entity
p332
(dp333
g11
(lp334
sg13
S'com.android.server.power.Notifier$NotifierHandler'
p335
sg15
(lp336
sg17
(lp337
sg19
(lp338
sg21
I0
sba(iArchitecture
Entity
p339
(dp340
g11
(lp341
sg13
S'com.android.server.power.PowerManagerService'
p342
sg15
(lp343
sg17
(lp344
sg19
(lp345
sg21
I0
sba(iArchitecture
Entity
p346
(dp347
g11
(lp348
sg13
S'com.android.server.power.PowerManagerService$1'
p349
sg15
(lp350
sg17
(lp351
sg19
(lp352
sg21
I0
sba(iArchitecture
Entity
p353
(dp354
g11
(lp355
sg13
S'com.android.server.power.PowerManagerService$2'
p356
sg15
(lp357
sg17
(lp358
sg19
(lp359
sg21
I0
sba(iArchitecture
Entity
p360
(dp361
g11
(lp362
sg13
S'com.android.server.power.PowerManagerService$3'
p363
sg15
(lp364
sg17
(lp365
sg19
(lp366
sg21
I0
sba(iArchitecture
Entity
p367
(dp368
g11
(lp369
sg13
S'com.android.server.power.PowerManagerService$4'
p370
sg15
(lp371
sg17
(lp372
sg19
(lp373
sg21
I0
sba(iArchitecture
Entity
p374
(dp375
g11
(lp376
sg13
S'com.android.server.power.PowerManagerService$5'
p377
sg15
(lp378
sg17
(lp379
sg19
(lp380
sg21
I0
sba(iArchitecture
Entity
p381
(dp382
g11
(lp383
sg13
S'com.android.server.power.PowerManagerService$BatteryReceiver'
p384
sg15
(lp385
sg17
(lp386
sg19
(lp387
sg21
I0
sba(iArchitecture
Entity
p388
(dp389
g11
(lp390
sg13
S'com.android.server.power.PowerManagerService$BinderService'
p391
sg15
(lp392
sg17
(lp393
sg19
(lp394
sg21
I0
sba(iArchitecture
Entity
p395
(dp396
g11
(lp397
sg13
S'com.android.server.power.PowerManagerService$DockReceiver'
p398
sg15
(lp399
sg17
(lp400
sg19
(lp401
sg21
I0
sba(iArchitecture
Entity
p402
(dp403
g11
(lp404
sg13
S'com.android.server.power.PowerManagerService$DreamReceiver'
p405
sg15
(lp406
sg17
(lp407
sg19
(lp408
sg21
I0
sba(iArchitecture
Entity
p409
(dp410
g11
(lp411
sg13
S'com.android.server.power.PowerManagerService$HaltMode'
p412
sg15
(lp413
sg17
(lp414
sg19
(lp415
sg21
I0
sba(iArchitecture
Entity
p416
(dp417
g11
(lp418
sg13
S'com.android.server.power.PowerManagerService$LocalService'
p419
sg15
(lp420
sg17
(lp421
sg19
(lp422
sg21
I0
sba(iArchitecture
Entity
p423
(dp424
g11
(lp425
sg13
S'com.android.server.power.PowerManagerService$PowerManagerHandler'
p426
sg15
(lp427
sg17
(lp428
sg19
(lp429
sg21
I0
sba(iArchitecture
Entity
p430
(dp431
g11
(lp432
sg13
S'com.android.server.power.PowerManagerService$SettingsObserver'
p433
sg15
(lp434
sg17
(lp435
sg19
(lp436
sg21
I0
sba(iArchitecture
Entity
p437
(dp438
g11
(lp439
sg13
S'com.android.server.power.PowerManagerService$SuspendBlockerImpl'
p440
sg15
(lp441
sg17
(lp442
sg19
(lp443
sg21
I0
sba(iArchitecture
Entity
p444
(dp445
g11
(lp446
sg13
S'com.android.server.power.PowerManagerService$UserSwitchedReceiver'
p447
sg15
(lp448
sg17
(lp449
sg19
(lp450
sg21
I0
sba(iArchitecture
Entity
p451
(dp452
g11
(lp453
sg13
S'com.android.server.power.PowerManagerService$WakeLock'
p454
sg15
(lp455
sg17
(lp456
sg19
(lp457
sg21
I0
sbasg29
(lp458
g272
ag279
ag286
ag293
ag300
ag307
ag314
ag321
ag328
ag335
ag342
ag349
ag356
ag363
ag370
ag377
ag384
ag391
ag398
ag405
ag412
ag419
ag426
ag433
ag440
ag447
ag454
asg21
I0
sg31
S'1401'
p459
sba(iArchitecture
Cluster
p460
(dp461
g7
(lp462
(iArchitecture
Entity
p463
(dp464
g11
(lp465
sg13
S'com.android.server.power.WirelessChargerDetector'
p466
sg15
(lp467
sg17
(lp468
sg19
(lp469
sg21
I0
sba(iArchitecture
Entity
p470
(dp471
g11
(lp472
sg13
S'com.android.server.power.WirelessChargerDetector$1'
p473
sg15
(lp474
sg17
(lp475
sg19
(lp476
sg21
I0
sba(iArchitecture
Entity
p477
(dp478
g11
(lp479
sg13
S'com.android.server.power.WirelessChargerDetector$2'
p480
sg15
(lp481
sg17
(lp482
sg19
(lp483
sg21
I0
sbasg29
(lp484
g466
ag473
ag480
asg21
I0
sg31
S'998'
p485
sbasg239
g240
sg29
(lp486
sg242
I00
sg31
S'7.0.0_r1'
p487
sba.