(lp0
(iArchitecture
Architecture
p1
(dp2
S'clusters'
p3
(lp4
(iArchitecture
Cluster
p5
(dp6
S'entities'
p7
(lp8
(iArchitecture
Entity
p9
(dp10
S'issue_ids'
p11
(lp12
sS'name'
p13
S'android.appwidget.AppWidgetHost'
p14
sS'descs'
p15
(lp16
sS'labels'
p17
(lp18
sS'titles'
p19
(lp20
sS'change'
p21
I0
sba(iArchitecture
Entity
p22
(dp23
g11
(lp24
sg13
S'android.appwidget.AppWidgetHost$Callbacks'
p25
sg15
(lp26
sg17
(lp27
sg19
(lp28
sg21
I0
sba(iArchitecture
Entity
p29
(dp30
g11
(lp31
sg13
S'android.appwidget.AppWidgetHost$UpdateHandler'
p32
sg15
(lp33
sg17
(lp34
sg19
(lp35
sg21
I0
sba(iArchitecture
Entity
p36
(dp37
g11
(lp38
sg13
S'android.appwidget.AppWidgetHostView'
p39
sg15
(lp40
sg17
(lp41
sg19
(lp42
sg21
I0
sba(iArchitecture
Entity
p43
(dp44
g11
(lp45
sg13
S'android.appwidget.AppWidgetHostView$1'
p46
sg15
(lp47
sg17
(lp48
sg19
(lp49
sg21
I0
sba(iArchitecture
Entity
p50
(dp51
g11
(lp52
sg13
S'android.appwidget.AppWidgetHostView$ParcelableSparseArray'
p53
sg15
(lp54
sg17
(lp55
sg19
(lp56
sg21
I0
sba(iArchitecture
Entity
p57
(dp58
g11
(lp59
sg13
S'android.appwidget.AppWidgetHostView$ParcelableSparseArray$1'
p60
sg15
(lp61
sg17
(lp62
sg19
(lp63
sg21
I0
sbasS'classes'
p64
(lp65
g14
ag25
ag32
ag39
ag46
ag53
ag60
asg21
I0
sS'label'
p66
S'1223'
p67
sba(iArchitecture
Cluster
p68
(dp69
g7
(lp70
(iArchitecture
Entity
p71
(dp72
g11
(lp73
sg13
S'android.appwidget.AppWidgetProvider'
p74
sg15
(lp75
sg17
(lp76
sg19
(lp77
sg21
I0
sbasg64
(lp78
g74
asg21
I0
sg66
S'329'
p79
sba(iArchitecture
Cluster
p80
(dp81
g7
(lp82
(iArchitecture
Entity
p83
(dp84
g11
(lp85
sg13
S'android.appwidget.AppWidgetManager'
p86
sg15
(lp87
sg17
(lp88
sg19
(lp89
sg21
I0
sbasg64
(lp90
g86
asg21
I0
sg66
S'352'
p91
sba(iArchitecture
Cluster
p92
(dp93
g7
(lp94
(iArchitecture
Entity
p95
(dp96
g11
(lp97
sg13
S'android.appwidget.AppWidgetProviderInfo'
p98
sg15
(lp99
sg17
(lp100
sg19
(lp101
sg21
I0
sba(iArchitecture
Entity
p102
(dp103
g11
(lp104
sg13
S'android.appwidget.AppWidgetProviderInfo$1'
p105
sg15
(lp106
sg17
(lp107
sg19
(lp108
sg21
I0
sbasg64
(lp109
g98
ag105
asg21
I0
sg66
S'561'
p110
sbasS'target_sub'
p111
S'android.appwidget'
p112
sg64
(lp113
sS'is_component_arch'
p114
I00
sg66
S'6.0.0_r1'
p115
sba(iArchitecture
Architecture
p116
(dp117
g3
(lp118
(iArchitecture
Cluster
p119
(dp120
g7
(lp121
(iArchitecture
Entity
p122
(dp123
g11
(lp124
sg13
S'android.appwidget.AppWidgetHost'
p125
sg15
(lp126
sg17
(lp127
sg19
(lp128
sg21
I0
sba(iArchitecture
Entity
p129
(dp130
g11
(lp131
sg13
S'android.appwidget.AppWidgetHost$Callbacks'
p132
sg15
(lp133
sg17
(lp134
sg19
(lp135
sg21
I0
sba(iArchitecture
Entity
p136
(dp137
g11
(lp138
sg13
S'android.appwidget.AppWidgetHost$UpdateHandler'
p139
sg15
(lp140
sg17
(lp141
sg19
(lp142
sg21
I0
sba(iArchitecture
Entity
p143
(dp144
g11
(lp145
sg13
S'android.appwidget.AppWidgetHostView'
p146
sg15
(lp147
sg17
(lp148
sg19
(lp149
sg21
I0
sba(iArchitecture
Entity
p150
(dp151
g11
(lp152
sg13
S'android.appwidget.AppWidgetHostView$1'
p153
sg15
(lp154
sg17
(lp155
sg19
(lp156
sg21
I0
sba(iArchitecture
Entity
p157
(dp158
g11
(lp159
sg13
S'android.appwidget.AppWidgetHostView$ParcelableSparseArray'
p160
sg15
(lp161
sg17
(lp162
sg19
(lp163
sg21
I0
sba(iArchitecture
Entity
p164
(dp165
g11
(lp166
sg13
S'android.appwidget.AppWidgetHostView$ParcelableSparseArray$1'
p167
sg15
(lp168
sg17
(lp169
sg19
(lp170
sg21
I0
sba(iArchitecture
Entity
p171
(dp172
g11
(lp173
sg13
S'android.appwidget.AppWidgetHostView$ViewApplyListener'
p174
sg15
(lp175
sg17
(lp176
sg19
(lp177
sg21
I0
sbasg64
(lp178
g125
ag132
ag139
ag146
ag153
ag160
ag167
ag174
asg21
I0
sg66
S'1401'
p179
sba(iArchitecture
Cluster
p180
(dp181
g7
(lp182
(iArchitecture
Entity
p183
(dp184
g11
(lp185
sg13
S'android.appwidget.AppWidgetProvider'
p186
sg15
(lp187
sg17
(lp188
sg19
(lp189
sg21
I0
sbasg64
(lp190
g186
asg21
I0
sg66
S'360'
p191
sba(iArchitecture
Cluster
p192
(dp193
g7
(lp194
(iArchitecture
Entity
p195
(dp196
g11
(lp197
sg13
S'android.appwidget.AppWidgetManager'
p198
sg15
(lp199
sg17
(lp200
sg19
(lp201
sg21
I0
sbasg64
(lp202
g198
asg21
I0
sg66
S'384'
p203
sba(iArchitecture
Cluster
p204
(dp205
g7
(lp206
(iArchitecture
Entity
p207
(dp208
g11
(lp209
sg13
S'android.appwidget.AppWidgetProviderInfo'
p210
sg15
(lp211
sg17
(lp212
sg19
(lp213
sg21
I0
sba(iArchitecture
Entity
p214
(dp215
g11
(lp216
sg13
S'android.appwidget.AppWidgetProviderInfo$1'
p217
sg15
(lp218
sg17
(lp219
sg19
(lp220
sg21
I0
sbasg64
(lp221
g210
ag217
asg21
I0
sg66
S'638'
p222
sbasg111
g112
sg64
(lp223
sg114
I00
sg66
S'7.0.0_r1'
p224
sba.