(lp0
(iArchitecture
Architecture
p1
(dp2
S'clusters'
p3
(lp4
(iArchitecture
Cluster
p5
(dp6
S'entities'
p7
(lp8
(iArchitecture
Entity
p9
(dp10
S'issue_ids'
p11
(lp12
sS'name'
p13
S'android.animation.PathKeyframes'
p14
sS'descs'
p15
(lp16
sS'labels'
p17
(lp18
sS'titles'
p19
(lp20
sS'change'
p21
I0
sba(iArchitecture
Entity
p22
(dp23
g11
(lp24
sg13
S'android.animation.PathKeyframes$1'
p25
sg15
(lp26
sg17
(lp27
sg19
(lp28
sg21
I0
sba(iArchitecture
Entity
p29
(dp30
g11
(lp31
sg13
S'android.animation.PathKeyframes$2'
p32
sg15
(lp33
sg17
(lp34
sg19
(lp35
sg21
I0
sba(iArchitecture
Entity
p36
(dp37
g11
(lp38
sg13
S'android.animation.PathKeyframes$3'
p39
sg15
(lp40
sg17
(lp41
sg19
(lp42
sg21
I0
sba(iArchitecture
Entity
p43
(dp44
g11
(lp45
sg13
S'android.animation.PathKeyframes$4'
p46
sg15
(lp47
sg17
(lp48
sg19
(lp49
sg21
I0
sba(iArchitecture
Entity
p50
(dp51
g11
(lp52
sg13
S'android.animation.PathKeyframes$FloatKeyframesBase'
p53
sg15
(lp54
sg17
(lp55
sg19
(lp56
sg21
I0
sba(iArchitecture
Entity
p57
(dp58
g11
(lp59
sg13
S'android.animation.PathKeyframes$IntKeyframesBase'
p60
sg15
(lp61
sg17
(lp62
sg19
(lp63
sg21
I0
sba(iArchitecture
Entity
p64
(dp65
g11
(lp66
sg13
S'android.animation.PathKeyframes$SimpleKeyframes'
p67
sg15
(lp68
sg17
(lp69
sg19
(lp70
sg21
I0
sbasS'classes'
p71
(lp72
g14
ag25
ag32
ag39
ag46
ag53
ag60
ag67
asg21
I0
sS'label'
p73
S'1045'
p74
sba(iArchitecture
Cluster
p75
(dp76
g7
(lp77
(iArchitecture
Entity
p78
(dp79
g11
(lp80
sg13
S'android.animation.FloatKeyframeSet'
p81
sg15
(lp82
sg17
(lp83
sg19
(lp84
sg21
I0
sba(iArchitecture
Entity
p85
(dp86
g11
(lp87
sg13
S'android.animation.IntKeyframeSet'
p88
sg15
(lp89
sg17
(lp90
sg19
(lp91
sg21
I0
sbasg71
(lp92
g81
ag88
asg21
I0
sg73
S'1100'
p93
sba(iArchitecture
Cluster
p94
(dp95
g7
(lp96
(iArchitecture
Entity
p97
(dp98
g11
(lp99
sg13
S'android.animation.ObjectAnimator'
p100
sg15
(lp101
sg17
(lp102
sg19
(lp103
sg21
I0
sba(iArchitecture
Entity
p104
(dp105
g11
(lp106
sg13
S'android.animation.PropertyValuesHolder'
p107
sg15
(lp108
sg17
(lp109
sg19
(lp110
sg21
I0
sba(iArchitecture
Entity
p111
(dp112
g11
(lp113
sg13
S'android.animation.PropertyValuesHolder$FloatPropertyValuesHolder'
p114
sg15
(lp115
sg17
(lp116
sg19
(lp117
sg21
I0
sba(iArchitecture
Entity
p118
(dp119
g11
(lp120
sg13
S'android.animation.PropertyValuesHolder$IntPropertyValuesHolder'
p121
sg15
(lp122
sg17
(lp123
sg19
(lp124
sg21
I0
sba(iArchitecture
Entity
p125
(dp126
g11
(lp127
sg13
S'android.animation.PropertyValuesHolder$MultiFloatValuesHolder'
p128
sg15
(lp129
sg17
(lp130
sg19
(lp131
sg21
I0
sba(iArchitecture
Entity
p132
(dp133
g11
(lp134
sg13
S'android.animation.PropertyValuesHolder$MultiIntValuesHolder'
p135
sg15
(lp136
sg17
(lp137
sg19
(lp138
sg21
I0
sba(iArchitecture
Entity
p139
(dp140
g11
(lp141
sg13
S'android.animation.PropertyValuesHolder$PointFToFloatArray'
p142
sg15
(lp143
sg17
(lp144
sg19
(lp145
sg21
I0
sba(iArchitecture
Entity
p146
(dp147
g11
(lp148
sg13
S'android.animation.PropertyValuesHolder$PointFToIntArray'
p149
sg15
(lp150
sg17
(lp151
sg19
(lp152
sg21
I0
sbasg71
(lp153
g100
ag107
ag114
ag121
ag128
ag135
ag142
ag149
asg21
I0
sg73
S'1109'
p154
sba(iArchitecture
Cluster
p155
(dp156
g7
(lp157
(iArchitecture
Entity
p158
(dp159
g11
(lp160
sg13
S'android.animation.ArgbEvaluator'
p161
sg15
(lp162
sg17
(lp163
sg19
(lp164
sg21
I0
sba(iArchitecture
Entity
p165
(dp166
g11
(lp167
sg13
S'android.animation.PointFEvaluator'
p168
sg15
(lp169
sg17
(lp170
sg19
(lp171
sg21
I0
sbasg71
(lp172
g161
ag168
asg21
I0
sg73
S'1124'
p173
sba(iArchitecture
Cluster
p174
(dp175
g7
(lp176
(iArchitecture
Entity
p177
(dp178
g11
(lp179
sg13
S'android.animation.KeyframeSet'
p180
sg15
(lp181
sg17
(lp182
sg19
(lp183
sg21
I0
sbasg71
(lp184
g180
asg21
I0
sg73
S'114'
p185
sba(iArchitecture
Cluster
p186
(dp187
g7
(lp188
(iArchitecture
Entity
p189
(dp190
g11
(lp191
sg13
S'android.animation.AnimatorListenerAdapter'
p192
sg15
(lp193
sg17
(lp194
sg19
(lp195
sg21
I0
sba(iArchitecture
Entity
p196
(dp197
g11
(lp198
sg13
S'android.animation.Keyframes'
p199
sg15
(lp200
sg17
(lp201
sg19
(lp202
sg21
I0
sba(iArchitecture
Entity
p203
(dp204
g11
(lp205
sg13
S'android.animation.Keyframes$FloatKeyframes'
p206
sg15
(lp207
sg17
(lp208
sg19
(lp209
sg21
I0
sba(iArchitecture
Entity
p210
(dp211
g11
(lp212
sg13
S'android.animation.Keyframes$IntKeyframes'
p213
sg15
(lp214
sg17
(lp215
sg19
(lp216
sg21
I0
sba(iArchitecture
Entity
p217
(dp218
g11
(lp219
sg13
S'android.animation.TimeInterpolator'
p220
sg15
(lp221
sg17
(lp222
sg19
(lp223
sg21
I0
sba(iArchitecture
Entity
p224
(dp225
g11
(lp226
sg13
S'android.animation.TypeConverter'
p227
sg15
(lp228
sg17
(lp229
sg19
(lp230
sg21
I0
sbasg71
(lp231
g192
ag199
ag206
ag213
ag220
ag227
asg21
I0
sg73
S'1223'
p232
sba(iArchitecture
Cluster
p233
(dp234
g7
(lp235
(iArchitecture
Entity
p236
(dp237
g11
(lp238
sg13
S'android.animation.AnimatorInflater'
p239
sg15
(lp240
sg17
(lp241
sg19
(lp242
sg21
I0
sba(iArchitecture
Entity
p243
(dp244
g11
(lp245
sg13
S'android.animation.AnimatorInflater$PathDataEvaluator'
p246
sg15
(lp247
sg17
(lp248
sg19
(lp249
sg21
I0
sba(iArchitecture
Entity
p250
(dp251
g11
(lp252
sg13
S'android.animation.StateListAnimator'
p253
sg15
(lp254
sg17
(lp255
sg19
(lp256
sg21
I0
sba(iArchitecture
Entity
p257
(dp258
g11
(lp259
sg13
S'android.animation.StateListAnimator$1'
p260
sg15
(lp261
sg17
(lp262
sg19
(lp263
sg21
I0
sba(iArchitecture
Entity
p264
(dp265
g11
(lp266
sg13
S'android.animation.StateListAnimator$StateListAnimatorConstantState'
p267
sg15
(lp268
sg17
(lp269
sg19
(lp270
sg21
I0
sba(iArchitecture
Entity
p271
(dp272
g11
(lp273
sg13
S'android.animation.StateListAnimator$Tuple'
p274
sg15
(lp275
sg17
(lp276
sg19
(lp277
sg21
I0
sbasg71
(lp278
g239
ag246
ag253
ag260
ag267
ag274
asg21
I0
sg73
S'1232'
p279
sba(iArchitecture
Cluster
p280
(dp281
g7
(lp282
(iArchitecture
Entity
p283
(dp284
g11
(lp285
sg13
S'android.animation.FloatArrayEvaluator'
p286
sg15
(lp287
sg17
(lp288
sg19
(lp289
sg21
I0
sba(iArchitecture
Entity
p290
(dp291
g11
(lp292
sg13
S'android.animation.FloatEvaluator'
p293
sg15
(lp294
sg17
(lp295
sg19
(lp296
sg21
I0
sba(iArchitecture
Entity
p297
(dp298
g11
(lp299
sg13
S'android.animation.IntArrayEvaluator'
p300
sg15
(lp301
sg17
(lp302
sg19
(lp303
sg21
I0
sba(iArchitecture
Entity
p304
(dp305
g11
(lp306
sg13
S'android.animation.IntEvaluator'
p307
sg15
(lp308
sg17
(lp309
sg19
(lp310
sg21
I0
sba(iArchitecture
Entity
p311
(dp312
g11
(lp313
sg13
S'android.animation.RectEvaluator'
p314
sg15
(lp315
sg17
(lp316
sg19
(lp317
sg21
I0
sba(iArchitecture
Entity
p318
(dp319
g11
(lp320
sg13
S'android.animation.TypeEvaluator'
p321
sg15
(lp322
sg17
(lp323
sg19
(lp324
sg21
I0
sbasg71
(lp325
g286
ag293
ag300
ag307
ag314
ag321
asg21
I0
sg73
S'1237'
p326
sba(iArchitecture
Cluster
p327
(dp328
g7
(lp329
(iArchitecture
Entity
p330
(dp331
g11
(lp332
sg13
S'android.animation.RevealAnimator'
p333
sg15
(lp334
sg17
(lp335
sg19
(lp336
sg21
I0
sbasg71
(lp337
g333
asg21
I0
sg73
S'1246'
p338
sba(iArchitecture
Cluster
p339
(dp340
g7
(lp341
(iArchitecture
Entity
p342
(dp343
g11
(lp344
sg13
S'android.animation.Animator'
p345
sg15
(lp346
sg17
(lp347
sg19
(lp348
sg21
I0
sba(iArchitecture
Entity
p349
(dp350
g11
(lp351
sg13
S'android.animation.Animator$AnimatorConstantState'
p352
sg15
(lp353
sg17
(lp354
sg19
(lp355
sg21
I0
sba(iArchitecture
Entity
p356
(dp357
g11
(lp358
sg13
S'android.animation.Animator$AnimatorListener'
p359
sg15
(lp360
sg17
(lp361
sg19
(lp362
sg21
I0
sba(iArchitecture
Entity
p363
(dp364
g11
(lp365
sg13
S'android.animation.Animator$AnimatorPauseListener'
p366
sg15
(lp367
sg17
(lp368
sg19
(lp369
sg21
I0
sba(iArchitecture
Entity
p370
(dp371
g11
(lp372
sg13
S'android.animation.AnimatorSet'
p373
sg15
(lp374
sg17
(lp375
sg19
(lp376
sg21
I0
sba(iArchitecture
Entity
p377
(dp378
g11
(lp379
sg13
S'android.animation.AnimatorSet$1'
p380
sg15
(lp381
sg17
(lp382
sg19
(lp383
sg21
I0
sba(iArchitecture
Entity
p384
(dp385
g11
(lp386
sg13
S'android.animation.AnimatorSet$AnimatorSetListener'
p387
sg15
(lp388
sg17
(lp389
sg19
(lp390
sg21
I0
sba(iArchitecture
Entity
p391
(dp392
g11
(lp393
sg13
S'android.animation.AnimatorSet$Builder'
p394
sg15
(lp395
sg17
(lp396
sg19
(lp397
sg21
I0
sba(iArchitecture
Entity
p398
(dp399
g11
(lp400
sg13
S'android.animation.AnimatorSet$Dependency'
p401
sg15
(lp402
sg17
(lp403
sg19
(lp404
sg21
I0
sba(iArchitecture
Entity
p405
(dp406
g11
(lp407
sg13
S'android.animation.AnimatorSet$DependencyListener'
p408
sg15
(lp409
sg17
(lp410
sg19
(lp411
sg21
I0
sba(iArchitecture
Entity
p412
(dp413
g11
(lp414
sg13
S'android.animation.AnimatorSet$Node'
p415
sg15
(lp416
sg17
(lp417
sg19
(lp418
sg21
I0
sba(iArchitecture
Entity
p419
(dp420
g11
(lp421
sg13
S'android.animation.ValueAnimator'
p422
sg15
(lp423
sg17
(lp424
sg19
(lp425
sg21
I0
sba(iArchitecture
Entity
p426
(dp427
g11
(lp428
sg13
S'android.animation.ValueAnimator$AnimationHandler'
p429
sg15
(lp430
sg17
(lp431
sg19
(lp432
sg21
I0
sba(iArchitecture
Entity
p433
(dp434
g11
(lp435
sg13
S'android.animation.ValueAnimator$AnimationHandler$1'
p436
sg15
(lp437
sg17
(lp438
sg19
(lp439
sg21
I0
sba(iArchitecture
Entity
p440
(dp441
g11
(lp442
sg13
S'android.animation.ValueAnimator$AnimationHandler$2'
p443
sg15
(lp444
sg17
(lp445
sg19
(lp446
sg21
I0
sba(iArchitecture
Entity
p447
(dp448
g11
(lp449
sg13
S'android.animation.ValueAnimator$AnimatorUpdateListener'
p450
sg15
(lp451
sg17
(lp452
sg19
(lp453
sg21
I0
sbasg71
(lp454
g345
ag352
ag359
ag366
ag373
ag380
ag387
ag394
ag401
ag408
ag415
ag422
ag429
ag436
ag443
ag450
asg21
I0
sg73
S'1253'
p455
sba(iArchitecture
Cluster
p456
(dp457
g7
(lp458
(iArchitecture
Entity
p459
(dp460
g11
(lp461
sg13
S'android.animation.BidirectionalTypeConverter'
p462
sg15
(lp463
sg17
(lp464
sg19
(lp465
sg21
I0
sba(iArchitecture
Entity
p466
(dp467
g11
(lp468
sg13
S'android.animation.BidirectionalTypeConverter$InvertedConverter'
p469
sg15
(lp470
sg17
(lp471
sg19
(lp472
sg21
I0
sbasg71
(lp473
g462
ag469
asg21
I0
sg73
S'1261'
p474
sba(iArchitecture
Cluster
p475
(dp476
g7
(lp477
(iArchitecture
Entity
p478
(dp479
g11
(lp480
sg13
S'android.animation.TimeAnimator'
p481
sg15
(lp482
sg17
(lp483
sg19
(lp484
sg21
I0
sba(iArchitecture
Entity
p485
(dp486
g11
(lp487
sg13
S'android.animation.TimeAnimator$TimeListener'
p488
sg15
(lp489
sg17
(lp490
sg19
(lp491
sg21
I0
sbasg71
(lp492
g481
ag488
asg21
I0
sg73
S'635'
p493
sba(iArchitecture
Cluster
p494
(dp495
g7
(lp496
(iArchitecture
Entity
p497
(dp498
g11
(lp499
sg13
S'android.animation.Keyframe'
p500
sg15
(lp501
sg17
(lp502
sg19
(lp503
sg21
I0
sba(iArchitecture
Entity
p504
(dp505
g11
(lp506
sg13
S'android.animation.Keyframe$FloatKeyframe'
p507
sg15
(lp508
sg17
(lp509
sg19
(lp510
sg21
I0
sba(iArchitecture
Entity
p511
(dp512
g11
(lp513
sg13
S'android.animation.Keyframe$IntKeyframe'
p514
sg15
(lp515
sg17
(lp516
sg19
(lp517
sg21
I0
sba(iArchitecture
Entity
p518
(dp519
g11
(lp520
sg13
S'android.animation.Keyframe$ObjectKeyframe'
p521
sg15
(lp522
sg17
(lp523
sg19
(lp524
sg21
I0
sbasg71
(lp525
g500
ag507
ag514
ag521
asg21
I0
sg73
S'874'
p526
sba(iArchitecture
Cluster
p527
(dp528
g7
(lp529
(iArchitecture
Entity
p530
(dp531
g11
(lp532
sg13
S'android.animation.LayoutTransition'
p533
sg15
(lp534
sg17
(lp535
sg19
(lp536
sg21
I0
sba(iArchitecture
Entity
p537
(dp538
g11
(lp539
sg13
S'android.animation.LayoutTransition$1'
p540
sg15
(lp541
sg17
(lp542
sg19
(lp543
sg21
I0
sba(iArchitecture
Entity
p544
(dp545
g11
(lp546
sg13
S'android.animation.LayoutTransition$2'
p547
sg15
(lp548
sg17
(lp549
sg19
(lp550
sg21
I0
sba(iArchitecture
Entity
p551
(dp552
g11
(lp553
sg13
S'android.animation.LayoutTransition$3'
p554
sg15
(lp555
sg17
(lp556
sg19
(lp557
sg21
I0
sba(iArchitecture
Entity
p558
(dp559
g11
(lp560
sg13
S'android.animation.LayoutTransition$4'
p561
sg15
(lp562
sg17
(lp563
sg19
(lp564
sg21
I0
sba(iArchitecture
Entity
p565
(dp566
g11
(lp567
sg13
S'android.animation.LayoutTransition$5'
p568
sg15
(lp569
sg17
(lp570
sg19
(lp571
sg21
I0
sba(iArchitecture
Entity
p572
(dp573
g11
(lp574
sg13
S'android.animation.LayoutTransition$CleanupCallback'
p575
sg15
(lp576
sg17
(lp577
sg19
(lp578
sg21
I0
sba(iArchitecture
Entity
p579
(dp580
g11
(lp581
sg13
S'android.animation.LayoutTransition$TransitionListener'
p582
sg15
(lp583
sg17
(lp584
sg19
(lp585
sg21
I0
sbasg71
(lp586
g533
ag540
ag547
ag554
ag561
ag568
ag575
ag582
asg21
I0
sg73
S'946'
p587
sbasS'target_sub'
p588
S'android.animation'
p589
sg71
(lp590
sS'is_component_arch'
p591
I00
sg73
S'6.0.0_r1'
p592
sba(iArchitecture
Architecture
p593
(dp594
g3
(lp595
(iArchitecture
Cluster
p596
(dp597
g7
(lp598
(iArchitecture
Entity
p599
(dp600
g11
(lp601
sg13
S'android.animation.LayoutTransition'
p602
sg15
(lp603
sg17
(lp604
sg19
(lp605
sg21
I0
sba(iArchitecture
Entity
p606
(dp607
g11
(lp608
sg13
S'android.animation.LayoutTransition$1'
p609
sg15
(lp610
sg17
(lp611
sg19
(lp612
sg21
I0
sba(iArchitecture
Entity
p613
(dp614
g11
(lp615
sg13
S'android.animation.LayoutTransition$2'
p616
sg15
(lp617
sg17
(lp618
sg19
(lp619
sg21
I0
sba(iArchitecture
Entity
p620
(dp621
g11
(lp622
sg13
S'android.animation.LayoutTransition$3'
p623
sg15
(lp624
sg17
(lp625
sg19
(lp626
sg21
I0
sba(iArchitecture
Entity
p627
(dp628
g11
(lp629
sg13
S'android.animation.LayoutTransition$4'
p630
sg15
(lp631
sg17
(lp632
sg19
(lp633
sg21
I0
sba(iArchitecture
Entity
p634
(dp635
g11
(lp636
sg13
S'android.animation.LayoutTransition$5'
p637
sg15
(lp638
sg17
(lp639
sg19
(lp640
sg21
I0
sba(iArchitecture
Entity
p641
(dp642
g11
(lp643
sg13
S'android.animation.LayoutTransition$CleanupCallback'
p644
sg15
(lp645
sg17
(lp646
sg19
(lp647
sg21
I0
sba(iArchitecture
Entity
p648
(dp649
g11
(lp650
sg13
S'android.animation.LayoutTransition$TransitionListener'
p651
sg15
(lp652
sg17
(lp653
sg19
(lp654
sg21
I0
sbasg71
(lp655
g602
ag609
ag616
ag623
ag630
ag637
ag644
ag651
asg21
I0
sg73
S'1068'
p656
sba(iArchitecture
Cluster
p657
(dp658
g7
(lp659
(iArchitecture
Entity
p660
(dp661
g11
(lp662
sg13
S'android.animation.PathKeyframes'
p663
sg15
(lp664
sg17
(lp665
sg19
(lp666
sg21
I0
sba(iArchitecture
Entity
p667
(dp668
g11
(lp669
sg13
S'android.animation.PathKeyframes$1'
p670
sg15
(lp671
sg17
(lp672
sg19
(lp673
sg21
I0
sba(iArchitecture
Entity
p674
(dp675
g11
(lp676
sg13
S'android.animation.PathKeyframes$2'
p677
sg15
(lp678
sg17
(lp679
sg19
(lp680
sg21
I0
sba(iArchitecture
Entity
p681
(dp682
g11
(lp683
sg13
S'android.animation.PathKeyframes$3'
p684
sg15
(lp685
sg17
(lp686
sg19
(lp687
sg21
I0
sba(iArchitecture
Entity
p688
(dp689
g11
(lp690
sg13
S'android.animation.PathKeyframes$4'
p691
sg15
(lp692
sg17
(lp693
sg19
(lp694
sg21
I0
sba(iArchitecture
Entity
p695
(dp696
g11
(lp697
sg13
S'android.animation.PathKeyframes$FloatKeyframesBase'
p698
sg15
(lp699
sg17
(lp700
sg19
(lp701
sg21
I0
sba(iArchitecture
Entity
p702
(dp703
g11
(lp704
sg13
S'android.animation.PathKeyframes$IntKeyframesBase'
p705
sg15
(lp706
sg17
(lp707
sg19
(lp708
sg21
I0
sba(iArchitecture
Entity
p709
(dp710
g11
(lp711
sg13
S'android.animation.PathKeyframes$SimpleKeyframes'
p712
sg15
(lp713
sg17
(lp714
sg19
(lp715
sg21
I0
sbasg71
(lp716
g663
ag670
ag677
ag684
ag691
ag698
ag705
ag712
asg21
I0
sg73
S'1171'
p717
sba(iArchitecture
Cluster
p718
(dp719
g7
(lp720
(iArchitecture
Entity
p721
(dp722
g11
(lp723
sg13
S'android.animation.FloatKeyframeSet'
p724
sg15
(lp725
sg17
(lp726
sg19
(lp727
sg21
I0
sba(iArchitecture
Entity
p728
(dp729
g11
(lp730
sg13
S'android.animation.IntKeyframeSet'
p731
sg15
(lp732
sg17
(lp733
sg19
(lp734
sg21
I0
sbasg71
(lp735
g724
ag731
asg21
I0
sg73
S'1233'
p736
sba(iArchitecture
Cluster
p737
(dp738
g7
(lp739
(iArchitecture
Entity
p740
(dp741
g11
(lp742
sg13
S'android.animation.ObjectAnimator'
p743
sg15
(lp744
sg17
(lp745
sg19
(lp746
sg21
I0
sba(iArchitecture
Entity
p747
(dp748
g11
(lp749
sg13
S'android.animation.PropertyValuesHolder'
p750
sg15
(lp751
sg17
(lp752
sg19
(lp753
sg21
I0
sba(iArchitecture
Entity
p754
(dp755
g11
(lp756
sg13
S'android.animation.PropertyValuesHolder$1'
p757
sg15
(lp758
sg17
(lp759
sg19
(lp760
sg21
I0
sba(iArchitecture
Entity
p761
(dp762
g11
(lp763
sg13
S'android.animation.PropertyValuesHolder$FloatPropertyValuesHolder'
p764
sg15
(lp765
sg17
(lp766
sg19
(lp767
sg21
I0
sba(iArchitecture
Entity
p768
(dp769
g11
(lp770
sg13
S'android.animation.PropertyValuesHolder$IntPropertyValuesHolder'
p771
sg15
(lp772
sg17
(lp773
sg19
(lp774
sg21
I0
sba(iArchitecture
Entity
p775
(dp776
g11
(lp777
sg13
S'android.animation.PropertyValuesHolder$MultiFloatValuesHolder'
p778
sg15
(lp779
sg17
(lp780
sg19
(lp781
sg21
I0
sba(iArchitecture
Entity
p782
(dp783
g11
(lp784
sg13
S'android.animation.PropertyValuesHolder$MultiIntValuesHolder'
p785
sg15
(lp786
sg17
(lp787
sg19
(lp788
sg21
I0
sba(iArchitecture
Entity
p789
(dp790
g11
(lp791
sg13
S'android.animation.PropertyValuesHolder$PointFToFloatArray'
p792
sg15
(lp793
sg17
(lp794
sg19
(lp795
sg21
I0
sba(iArchitecture
Entity
p796
(dp797
g11
(lp798
sg13
S'android.animation.PropertyValuesHolder$PointFToIntArray'
p799
sg15
(lp800
sg17
(lp801
sg19
(lp802
sg21
I0
sba(iArchitecture
Entity
p803
(dp804
g11
(lp805
sg13
S'android.animation.PropertyValuesHolder$PropertyValues'
p806
sg15
(lp807
sg17
(lp808
sg19
(lp809
sg21
I0
sba(iArchitecture
Entity
p810
(dp811
g11
(lp812
sg13
S'android.animation.PropertyValuesHolder$PropertyValues$DataSource'
p813
sg15
(lp814
sg17
(lp815
sg19
(lp816
sg21
I0
sbasg71
(lp817
g743
ag750
ag757
ag764
ag771
ag778
ag785
ag792
ag799
ag806
ag813
asg21
I0
sg73
S'1247'
p818
sba(iArchitecture
Cluster
p819
(dp820
g7
(lp821
(iArchitecture
Entity
p822
(dp823
g11
(lp824
sg13
S'android.animation.AnimationHandler'
p825
sg15
(lp826
sg17
(lp827
sg19
(lp828
sg21
I0
sba(iArchitecture
Entity
p829
(dp830
g11
(lp831
sg13
S'android.animation.AnimationHandler$1'
p832
sg15
(lp833
sg17
(lp834
sg19
(lp835
sg21
I0
sba(iArchitecture
Entity
p836
(dp837
g11
(lp838
sg13
S'android.animation.AnimationHandler$2'
p839
sg15
(lp840
sg17
(lp841
sg19
(lp842
sg21
I0
sba(iArchitecture
Entity
p843
(dp844
g11
(lp845
sg13
S'android.animation.AnimationHandler$AnimationFrameCallback'
p846
sg15
(lp847
sg17
(lp848
sg19
(lp849
sg21
I0
sba(iArchitecture
Entity
p850
(dp851
g11
(lp852
sg13
S'android.animation.AnimationHandler$AnimationFrameCallbackProvider'
p853
sg15
(lp854
sg17
(lp855
sg19
(lp856
sg21
I0
sba(iArchitecture
Entity
p857
(dp858
g11
(lp859
sg13
S'android.animation.AnimationHandler$MyFrameCallbackProvider'
p860
sg15
(lp861
sg17
(lp862
sg19
(lp863
sg21
I0
sbasg71
(lp864
g825
ag832
ag839
ag846
ag853
ag860
asg21
I0
sg73
S'1268'
p865
sba(iArchitecture
Cluster
p866
(dp867
g7
(lp868
(iArchitecture
Entity
p869
(dp870
g11
(lp871
sg13
S'android.animation.KeyframeSet'
p872
sg15
(lp873
sg17
(lp874
sg19
(lp875
sg21
I0
sbasg71
(lp876
g872
asg21
I0
sg73
S'129'
p877
sba(iArchitecture
Cluster
p878
(dp879
g7
(lp880
(iArchitecture
Entity
p881
(dp882
g11
(lp883
sg13
S'android.animation.ArgbEvaluator'
p884
sg15
(lp885
sg17
(lp886
sg19
(lp887
sg21
I0
sba(iArchitecture
Entity
p888
(dp889
g11
(lp890
sg13
S'android.animation.PointFEvaluator'
p891
sg15
(lp892
sg17
(lp893
sg19
(lp894
sg21
I0
sbasg71
(lp895
g884
ag891
asg21
I0
sg73
S'1313'
p896
sba(iArchitecture
Cluster
p897
(dp898
g7
(lp899
(iArchitecture
Entity
p900
(dp901
g11
(lp902
sg13
S'android.animation.AnimatorListenerAdapter'
p903
sg15
(lp904
sg17
(lp905
sg19
(lp906
sg21
I0
sba(iArchitecture
Entity
p907
(dp908
g11
(lp909
sg13
S'android.animation.FloatEvaluator'
p910
sg15
(lp911
sg17
(lp912
sg19
(lp913
sg21
I0
sba(iArchitecture
Entity
p914
(dp915
g11
(lp916
sg13
S'android.animation.IntEvaluator'
p917
sg15
(lp918
sg17
(lp919
sg19
(lp920
sg21
I0
sba(iArchitecture
Entity
p921
(dp922
g11
(lp923
sg13
S'android.animation.Keyframes'
p924
sg15
(lp925
sg17
(lp926
sg19
(lp927
sg21
I0
sba(iArchitecture
Entity
p928
(dp929
g11
(lp930
sg13
S'android.animation.Keyframes$FloatKeyframes'
p931
sg15
(lp932
sg17
(lp933
sg19
(lp934
sg21
I0
sba(iArchitecture
Entity
p935
(dp936
g11
(lp937
sg13
S'android.animation.Keyframes$IntKeyframes'
p938
sg15
(lp939
sg17
(lp940
sg19
(lp941
sg21
I0
sba(iArchitecture
Entity
p942
(dp943
g11
(lp944
sg13
S'android.animation.RevealAnimator'
p945
sg15
(lp946
sg17
(lp947
sg19
(lp948
sg21
I0
sba(iArchitecture
Entity
p949
(dp950
g11
(lp951
sg13
S'android.animation.TimeInterpolator'
p952
sg15
(lp953
sg17
(lp954
sg19
(lp955
sg21
I0
sba(iArchitecture
Entity
p956
(dp957
g11
(lp958
sg13
S'android.animation.TypeConverter'
p959
sg15
(lp960
sg17
(lp961
sg19
(lp962
sg21
I0
sba(iArchitecture
Entity
p963
(dp964
g11
(lp965
sg13
S'android.animation.TypeEvaluator'
p966
sg15
(lp967
sg17
(lp968
sg19
(lp969
sg21
I0
sbasg71
(lp970
g903
ag910
ag917
ag924
ag931
ag938
ag945
ag952
ag959
ag966
asg21
I0
sg73
S'1330'
p971
sba(iArchitecture
Cluster
p972
(dp973
g7
(lp974
(iArchitecture
Entity
p975
(dp976
g11
(lp977
sg13
S'android.animation.FloatArrayEvaluator'
p978
sg15
(lp979
sg17
(lp980
sg19
(lp981
sg21
I0
sba(iArchitecture
Entity
p982
(dp983
g11
(lp984
sg13
S'android.animation.IntArrayEvaluator'
p985
sg15
(lp986
sg17
(lp987
sg19
(lp988
sg21
I0
sba(iArchitecture
Entity
p989
(dp990
g11
(lp991
sg13
S'android.animation.RectEvaluator'
p992
sg15
(lp993
sg17
(lp994
sg19
(lp995
sg21
I0
sbasg71
(lp996
g978
ag985
ag992
asg21
I0
sg73
S'1384'
p997
sba(iArchitecture
Cluster
p998
(dp999
g7
(lp1000
(iArchitecture
Entity
p1001
(dp1002
g11
(lp1003
sg13
S'android.animation.Animator'
p1004
sg15
(lp1005
sg17
(lp1006
sg19
(lp1007
sg21
I0
sba(iArchitecture
Entity
p1008
(dp1009
g11
(lp1010
sg13
S'android.animation.Animator$AnimatorConstantState'
p1011
sg15
(lp1012
sg17
(lp1013
sg19
(lp1014
sg21
I0
sba(iArchitecture
Entity
p1015
(dp1016
g11
(lp1017
sg13
S'android.animation.Animator$AnimatorListener'
p1018
sg15
(lp1019
sg17
(lp1020
sg19
(lp1021
sg21
I0
sba(iArchitecture
Entity
p1022
(dp1023
g11
(lp1024
sg13
S'android.animation.Animator$AnimatorPauseListener'
p1025
sg15
(lp1026
sg17
(lp1027
sg19
(lp1028
sg21
I0
sba(iArchitecture
Entity
p1029
(dp1030
g11
(lp1031
sg13
S'android.animation.AnimatorInflater'
p1032
sg15
(lp1033
sg17
(lp1034
sg19
(lp1035
sg21
I0
sba(iArchitecture
Entity
p1036
(dp1037
g11
(lp1038
sg13
S'android.animation.AnimatorInflater$PathDataEvaluator'
p1039
sg15
(lp1040
sg17
(lp1041
sg19
(lp1042
sg21
I0
sba(iArchitecture
Entity
p1043
(dp1044
g11
(lp1045
sg13
S'android.animation.AnimatorSet'
p1046
sg15
(lp1047
sg17
(lp1048
sg19
(lp1049
sg21
I0
sba(iArchitecture
Entity
p1050
(dp1051
g11
(lp1052
sg13
S'android.animation.AnimatorSet$AnimatorSetListener'
p1053
sg15
(lp1054
sg17
(lp1055
sg19
(lp1056
sg21
I0
sba(iArchitecture
Entity
p1057
(dp1058
g11
(lp1059
sg13
S'android.animation.AnimatorSet$Builder'
p1060
sg15
(lp1061
sg17
(lp1062
sg19
(lp1063
sg21
I0
sba(iArchitecture
Entity
p1064
(dp1065
g11
(lp1066
sg13
S'android.animation.AnimatorSet$Node'
p1067
sg15
(lp1068
sg17
(lp1069
sg19
(lp1070
sg21
I0
sba(iArchitecture
Entity
p1071
(dp1072
g11
(lp1073
sg13
S'android.animation.StateListAnimator'
p1074
sg15
(lp1075
sg17
(lp1076
sg19
(lp1077
sg21
I0
sba(iArchitecture
Entity
p1078
(dp1079
g11
(lp1080
sg13
S'android.animation.StateListAnimator$1'
p1081
sg15
(lp1082
sg17
(lp1083
sg19
(lp1084
sg21
I0
sba(iArchitecture
Entity
p1085
(dp1086
g11
(lp1087
sg13
S'android.animation.StateListAnimator$StateListAnimatorConstantState'
p1088
sg15
(lp1089
sg17
(lp1090
sg19
(lp1091
sg21
I0
sba(iArchitecture
Entity
p1092
(dp1093
g11
(lp1094
sg13
S'android.animation.StateListAnimator$Tuple'
p1095
sg15
(lp1096
sg17
(lp1097
sg19
(lp1098
sg21
I0
sba(iArchitecture
Entity
p1099
(dp1100
g11
(lp1101
sg13
S'android.animation.ValueAnimator'
p1102
sg15
(lp1103
sg17
(lp1104
sg19
(lp1105
sg21
I0
sba(iArchitecture
Entity
p1106
(dp1107
g11
(lp1108
sg13
S'android.animation.ValueAnimator$AnimatorUpdateListener'
p1109
sg15
(lp1110
sg17
(lp1111
sg19
(lp1112
sg21
I0
sbasg71
(lp1113
g1004
ag1011
ag1018
ag1025
ag1032
ag1039
ag1046
ag1053
ag1060
ag1067
ag1074
ag1081
ag1088
ag1095
ag1102
ag1109
asg21
I0
sg73
S'1401'
p1114
sba(iArchitecture
Cluster
p1115
(dp1116
g7
(lp1117
(iArchitecture
Entity
p1118
(dp1119
g11
(lp1120
sg13
S'android.animation.BidirectionalTypeConverter'
p1121
sg15
(lp1122
sg17
(lp1123
sg19
(lp1124
sg21
I0
sba(iArchitecture
Entity
p1125
(dp1126
g11
(lp1127
sg13
S'android.animation.BidirectionalTypeConverter$InvertedConverter'
p1128
sg15
(lp1129
sg17
(lp1130
sg19
(lp1131
sg21
I0
sbasg71
(lp1132
g1121
ag1128
asg21
I0
sg73
S'633'
p1133
sba(iArchitecture
Cluster
p1134
(dp1135
g7
(lp1136
(iArchitecture
Entity
p1137
(dp1138
g11
(lp1139
sg13
S'android.animation.TimeAnimator'
p1140
sg15
(lp1141
sg17
(lp1142
sg19
(lp1143
sg21
I0
sba(iArchitecture
Entity
p1144
(dp1145
g11
(lp1146
sg13
S'android.animation.TimeAnimator$TimeListener'
p1147
sg15
(lp1148
sg17
(lp1149
sg19
(lp1150
sg21
I0
sbasg71
(lp1151
g1140
ag1147
asg21
I0
sg73
S'720'
p1152
sba(iArchitecture
Cluster
p1153
(dp1154
g7
(lp1155
(iArchitecture
Entity
p1156
(dp1157
g11
(lp1158
sg13
S'android.animation.Keyframe'
p1159
sg15
(lp1160
sg17
(lp1161
sg19
(lp1162
sg21
I0
sba(iArchitecture
Entity
p1163
(dp1164
g11
(lp1165
sg13
S'android.animation.Keyframe$FloatKeyframe'
p1166
sg15
(lp1167
sg17
(lp1168
sg19
(lp1169
sg21
I0
sba(iArchitecture
Entity
p1170
(dp1171
g11
(lp1172
sg13
S'android.animation.Keyframe$IntKeyframe'
p1173
sg15
(lp1174
sg17
(lp1175
sg19
(lp1176
sg21
I0
sba(iArchitecture
Entity
p1177
(dp1178
g11
(lp1179
sg13
S'android.animation.Keyframe$ObjectKeyframe'
p1180
sg15
(lp1181
sg17
(lp1182
sg19
(lp1183
sg21
I0
sbasg71
(lp1184
g1159
ag1166
ag1173
ag1180
asg21
I0
sg73
S'986'
p1185
sbasg588
g589
sg71
(lp1186
sg591
I00
sg73
S'7.0.0_r1'
p1187
sba.