(lp0
(iArchitecture
Architecture
p1
(dp2
S'clusters'
p3
(lp4
(iArchitecture
Cluster
p5
(dp6
S'entities'
p7
(lp8
(iArchitecture
Entity
p9
(dp10
S'issue_ids'
p11
(lp12
sS'name'
p13
S'android.nfc.cardemulation.HostApduService'
p14
sS'descs'
p15
(lp16
sS'labels'
p17
(lp18
sS'titles'
p19
(lp20
sS'change'
p21
I0
sba(iArchitecture
Entity
p22
(dp23
g11
(lp24
sg13
S'android.nfc.cardemulation.HostApduService$MsgHandler'
p25
sg15
(lp26
sg17
(lp27
sg19
(lp28
sg21
I0
sba(iArchitecture
Entity
p29
(dp30
g11
(lp31
sg13
S'android.nfc.cardemulation.OffHostApduService'
p32
sg15
(lp33
sg17
(lp34
sg19
(lp35
sg21
I0
sbasS'classes'
p36
(lp37
g14
ag25
ag32
asg21
I0
sS'label'
p38
S'1112'
p39
sba(iArchitecture
Cluster
p40
(dp41
g7
(lp42
(iArchitecture
Entity
p43
(dp44
g11
(lp45
sg13
S'android.nfc.Tag'
p46
sg15
(lp47
sg17
(lp48
sg19
(lp49
sg21
I0
sba(iArchitecture
Entity
p50
(dp51
g11
(lp52
sg13
S'android.nfc.Tag$1'
p53
sg15
(lp54
sg17
(lp55
sg19
(lp56
sg21
I0
sba(iArchitecture
Entity
p57
(dp58
g11
(lp59
sg13
S'android.nfc.tech.IsoDep'
p60
sg15
(lp61
sg17
(lp62
sg19
(lp63
sg21
I0
sba(iArchitecture
Entity
p64
(dp65
g11
(lp66
sg13
S'android.nfc.tech.MifareClassic'
p67
sg15
(lp68
sg17
(lp69
sg19
(lp70
sg21
I0
sba(iArchitecture
Entity
p71
(dp72
g11
(lp73
sg13
S'android.nfc.tech.MifareUltralight'
p74
sg15
(lp75
sg17
(lp76
sg19
(lp77
sg21
I0
sba(iArchitecture
Entity
p78
(dp79
g11
(lp80
sg13
S'android.nfc.tech.Ndef'
p81
sg15
(lp82
sg17
(lp83
sg19
(lp84
sg21
I0
sba(iArchitecture
Entity
p85
(dp86
g11
(lp87
sg13
S'android.nfc.tech.NdefFormatable'
p88
sg15
(lp89
sg17
(lp90
sg19
(lp91
sg21
I0
sba(iArchitecture
Entity
p92
(dp93
g11
(lp94
sg13
S'android.nfc.tech.NfcA'
p95
sg15
(lp96
sg17
(lp97
sg19
(lp98
sg21
I0
sba(iArchitecture
Entity
p99
(dp100
g11
(lp101
sg13
S'android.nfc.tech.NfcB'
p102
sg15
(lp103
sg17
(lp104
sg19
(lp105
sg21
I0
sba(iArchitecture
Entity
p106
(dp107
g11
(lp108
sg13
S'android.nfc.tech.NfcF'
p109
sg15
(lp110
sg17
(lp111
sg19
(lp112
sg21
I0
sba(iArchitecture
Entity
p113
(dp114
g11
(lp115
sg13
S'android.nfc.tech.NfcV'
p116
sg15
(lp117
sg17
(lp118
sg19
(lp119
sg21
I0
sba(iArchitecture
Entity
p120
(dp121
g11
(lp122
sg13
S'android.nfc.tech.TagTechnology'
p123
sg15
(lp124
sg17
(lp125
sg19
(lp126
sg21
I0
sbasg36
(lp127
g46
ag53
ag60
ag67
ag74
ag81
ag88
ag95
ag102
ag109
ag116
ag123
asg21
I0
sg38
S'1178'
p128
sba(iArchitecture
Cluster
p129
(dp130
g7
(lp131
(iArchitecture
Entity
p132
(dp133
g11
(lp134
sg13
S'android.nfc.FormatException'
p135
sg15
(lp136
sg17
(lp137
sg19
(lp138
sg21
I0
sba(iArchitecture
Entity
p139
(dp140
g11
(lp141
sg13
S'android.nfc.TagLostException'
p142
sg15
(lp143
sg17
(lp144
sg19
(lp145
sg21
I0
sbasg36
(lp146
g135
ag142
asg21
I0
sg38
S'1223'
p147
sba(iArchitecture
Cluster
p148
(dp149
g7
(lp150
(iArchitecture
Entity
p151
(dp152
g11
(lp153
sg13
S'android.nfc.ApduList'
p154
sg15
(lp155
sg17
(lp156
sg19
(lp157
sg21
I0
sba(iArchitecture
Entity
p158
(dp159
g11
(lp160
sg13
S'android.nfc.ApduList$1'
p161
sg15
(lp162
sg17
(lp163
sg19
(lp164
sg21
I0
sba(iArchitecture
Entity
p165
(dp166
g11
(lp167
sg13
S'android.nfc.TechListParcel'
p168
sg15
(lp169
sg17
(lp170
sg19
(lp171
sg21
I0
sba(iArchitecture
Entity
p172
(dp173
g11
(lp174
sg13
S'android.nfc.TechListParcel$1'
p175
sg15
(lp176
sg17
(lp177
sg19
(lp178
sg21
I0
sbasg36
(lp179
g154
ag161
ag168
ag175
asg21
I0
sg38
S'1237'
p180
sba(iArchitecture
Cluster
p181
(dp182
g7
(lp183
(iArchitecture
Entity
p184
(dp185
g11
(lp186
sg13
S'android.nfc.NdefMessage'
p187
sg15
(lp188
sg17
(lp189
sg19
(lp190
sg21
I0
sba(iArchitecture
Entity
p191
(dp192
g11
(lp193
sg13
S'android.nfc.NdefMessage$1'
p194
sg15
(lp195
sg17
(lp196
sg19
(lp197
sg21
I0
sba(iArchitecture
Entity
p198
(dp199
g11
(lp200
sg13
S'android.nfc.NdefRecord'
p201
sg15
(lp202
sg17
(lp203
sg19
(lp204
sg21
I0
sba(iArchitecture
Entity
p205
(dp206
g11
(lp207
sg13
S'android.nfc.NdefRecord$1'
p208
sg15
(lp209
sg17
(lp210
sg19
(lp211
sg21
I0
sba(iArchitecture
Entity
p212
(dp213
g11
(lp214
sg13
S'android.nfc.cardemulation.ApduServiceInfo'
p215
sg15
(lp216
sg17
(lp217
sg19
(lp218
sg21
I0
sba(iArchitecture
Entity
p219
(dp220
g11
(lp221
sg13
S'android.nfc.cardemulation.ApduServiceInfo$1'
p222
sg15
(lp223
sg17
(lp224
sg19
(lp225
sg21
I0
sbasg36
(lp226
g187
ag194
ag201
ag208
ag215
ag222
asg21
I0
sg38
S'1261'
p227
sba(iArchitecture
Cluster
p228
(dp229
g7
(lp230
(iArchitecture
Entity
p231
(dp232
g11
(lp233
sg13
S'android.nfc.NfcEvent'
p234
sg15
(lp235
sg17
(lp236
sg19
(lp237
sg21
I0
sbasg36
(lp238
g234
asg21
I0
sg38
S'234'
p239
sba(iArchitecture
Cluster
p240
(dp241
g7
(lp242
(iArchitecture
Entity
p243
(dp244
g11
(lp245
sg13
S'android.nfc.cardemulation.CardEmulation'
p246
sg15
(lp247
sg17
(lp248
sg19
(lp249
sg21
I0
sbasg36
(lp250
g246
asg21
I0
sg38
S'309'
p251
sba(iArchitecture
Cluster
p252
(dp253
g7
(lp254
(iArchitecture
Entity
p255
(dp256
g11
(lp257
sg13
S'android.nfc.tech.BasicTagTechnology'
p258
sg15
(lp259
sg17
(lp260
sg19
(lp261
sg21
I0
sbasg36
(lp262
g258
asg21
I0
sg38
S'314'
p263
sba(iArchitecture
Cluster
p264
(dp265
g7
(lp266
(iArchitecture
Entity
p267
(dp268
g11
(lp269
sg13
S'android.nfc.NfcManager'
p270
sg15
(lp271
sg17
(lp272
sg19
(lp273
sg21
I0
sbasg36
(lp274
g270
asg21
I0
sg38
S'36'
p275
sba(iArchitecture
Cluster
p276
(dp277
g7
(lp278
(iArchitecture
Entity
p279
(dp280
g11
(lp281
sg13
S'android.nfc.cardemulation.AidGroup'
p282
sg15
(lp283
sg17
(lp284
sg19
(lp285
sg21
I0
sba(iArchitecture
Entity
p286
(dp287
g11
(lp288
sg13
S'android.nfc.cardemulation.AidGroup$1'
p289
sg15
(lp290
sg17
(lp291
sg19
(lp292
sg21
I0
sbasg36
(lp293
g282
ag289
asg21
I0
sg38
S'591'
p294
sba(iArchitecture
Cluster
p295
(dp296
g7
(lp297
(iArchitecture
Entity
p298
(dp299
g11
(lp300
sg13
S'android.nfc.ErrorCodes'
p301
sg15
(lp302
sg17
(lp303
sg19
(lp304
sg21
I0
sbasg36
(lp305
g301
asg21
I0
sg38
S'62'
p306
sba(iArchitecture
Cluster
p307
(dp308
g7
(lp309
(iArchitecture
Entity
p310
(dp311
g11
(lp312
sg13
S'android.nfc.BeamShareData'
p313
sg15
(lp314
sg17
(lp315
sg19
(lp316
sg21
I0
sba(iArchitecture
Entity
p317
(dp318
g11
(lp319
sg13
S'android.nfc.BeamShareData$1'
p320
sg15
(lp321
sg17
(lp322
sg19
(lp323
sg21
I0
sbasg36
(lp324
g313
ag320
asg21
I0
sg38
S'622'
p325
sba(iArchitecture
Cluster
p326
(dp327
g7
(lp328
(iArchitecture
Entity
p329
(dp330
g11
(lp331
sg13
S'android.nfc.TransceiveResult'
p332
sg15
(lp333
sg17
(lp334
sg19
(lp335
sg21
I0
sba(iArchitecture
Entity
p336
(dp337
g11
(lp338
sg13
S'android.nfc.TransceiveResult$1'
p339
sg15
(lp340
sg17
(lp341
sg19
(lp342
sg21
I0
sbasg36
(lp343
g332
ag339
asg21
I0
sg38
S'660'
p344
sba(iArchitecture
Cluster
p345
(dp346
g7
(lp347
(iArchitecture
Entity
p348
(dp349
g11
(lp350
sg13
S'android.nfc.tech.NfcBarcode'
p351
sg15
(lp352
sg17
(lp353
sg19
(lp354
sg21
I0
sbasg36
(lp355
g351
asg21
I0
sg38
S'72'
p356
sba(iArchitecture
Cluster
p357
(dp358
g7
(lp359
(iArchitecture
Entity
p360
(dp361
g11
(lp362
sg13
S'android.nfc.NfcActivityManager'
p363
sg15
(lp364
sg17
(lp365
sg19
(lp366
sg21
I0
sba(iArchitecture
Entity
p367
(dp368
g11
(lp369
sg13
S'android.nfc.NfcActivityManager$NfcActivityState'
p370
sg15
(lp371
sg17
(lp372
sg19
(lp373
sg21
I0
sba(iArchitecture
Entity
p374
(dp375
g11
(lp376
sg13
S'android.nfc.NfcActivityManager$NfcApplicationState'
p377
sg15
(lp378
sg17
(lp379
sg19
(lp380
sg21
I0
sbasg36
(lp381
g363
ag370
ag377
asg21
I0
sg38
S'788'
p382
sbasS'target_sub'
p383
S'android.nfc'
p384
sg36
(lp385
sS'is_component_arch'
p386
I00
sg38
S'6.0.0_r1'
p387
sba(iArchitecture
Architecture
p388
(dp389
g3
(lp390
(iArchitecture
Cluster
p391
(dp392
g7
(lp393
(iArchitecture
Entity
p394
(dp395
g11
(lp396
sg13
S'android.nfc.cardemulation.CardEmulation'
p397
sg15
(lp398
sg17
(lp399
sg19
(lp400
sg21
I0
sba(iArchitecture
Entity
p401
(dp402
g11
(lp403
sg13
S'android.nfc.cardemulation.NfcFCardEmulation'
p404
sg15
(lp405
sg17
(lp406
sg19
(lp407
sg21
I0
sbasg36
(lp408
g397
ag404
asg21
I0
sg38
S'1244'
p409
sba(iArchitecture
Cluster
p410
(dp411
g7
(lp412
(iArchitecture
Entity
p413
(dp414
g11
(lp415
sg13
S'android.nfc.cardemulation.HostApduService'
p416
sg15
(lp417
sg17
(lp418
sg19
(lp419
sg21
I0
sba(iArchitecture
Entity
p420
(dp421
g11
(lp422
sg13
S'android.nfc.cardemulation.HostApduService$MsgHandler'
p423
sg15
(lp424
sg17
(lp425
sg19
(lp426
sg21
I0
sba(iArchitecture
Entity
p427
(dp428
g11
(lp429
sg13
S'android.nfc.cardemulation.HostNfcFService'
p430
sg15
(lp431
sg17
(lp432
sg19
(lp433
sg21
I0
sba(iArchitecture
Entity
p434
(dp435
g11
(lp436
sg13
S'android.nfc.cardemulation.HostNfcFService$MsgHandler'
p437
sg15
(lp438
sg17
(lp439
sg19
(lp440
sg21
I0
sba(iArchitecture
Entity
p441
(dp442
g11
(lp443
sg13
S'android.nfc.cardemulation.OffHostApduService'
p444
sg15
(lp445
sg17
(lp446
sg19
(lp447
sg21
I0
sbasg36
(lp448
g416
ag423
ag430
ag437
ag444
asg21
I0
sg38
S'1317'
p449
sba(iArchitecture
Cluster
p450
(dp451
g7
(lp452
(iArchitecture
Entity
p453
(dp454
g11
(lp455
sg13
S'android.nfc.FormatException'
p456
sg15
(lp457
sg17
(lp458
sg19
(lp459
sg21
I0
sba(iArchitecture
Entity
p460
(dp461
g11
(lp462
sg13
S'android.nfc.Tag'
p463
sg15
(lp464
sg17
(lp465
sg19
(lp466
sg21
I0
sba(iArchitecture
Entity
p467
(dp468
g11
(lp469
sg13
S'android.nfc.Tag$1'
p470
sg15
(lp471
sg17
(lp472
sg19
(lp473
sg21
I0
sba(iArchitecture
Entity
p474
(dp475
g11
(lp476
sg13
S'android.nfc.TagLostException'
p477
sg15
(lp478
sg17
(lp479
sg19
(lp480
sg21
I0
sba(iArchitecture
Entity
p481
(dp482
g11
(lp483
sg13
S'android.nfc.tech.BasicTagTechnology'
p484
sg15
(lp485
sg17
(lp486
sg19
(lp487
sg21
I0
sba(iArchitecture
Entity
p488
(dp489
g11
(lp490
sg13
S'android.nfc.tech.IsoDep'
p491
sg15
(lp492
sg17
(lp493
sg19
(lp494
sg21
I0
sba(iArchitecture
Entity
p495
(dp496
g11
(lp497
sg13
S'android.nfc.tech.MifareClassic'
p498
sg15
(lp499
sg17
(lp500
sg19
(lp501
sg21
I0
sba(iArchitecture
Entity
p502
(dp503
g11
(lp504
sg13
S'android.nfc.tech.MifareUltralight'
p505
sg15
(lp506
sg17
(lp507
sg19
(lp508
sg21
I0
sba(iArchitecture
Entity
p509
(dp510
g11
(lp511
sg13
S'android.nfc.tech.Ndef'
p512
sg15
(lp513
sg17
(lp514
sg19
(lp515
sg21
I0
sba(iArchitecture
Entity
p516
(dp517
g11
(lp518
sg13
S'android.nfc.tech.NdefFormatable'
p519
sg15
(lp520
sg17
(lp521
sg19
(lp522
sg21
I0
sba(iArchitecture
Entity
p523
(dp524
g11
(lp525
sg13
S'android.nfc.tech.NfcA'
p526
sg15
(lp527
sg17
(lp528
sg19
(lp529
sg21
I0
sba(iArchitecture
Entity
p530
(dp531
g11
(lp532
sg13
S'android.nfc.tech.NfcB'
p533
sg15
(lp534
sg17
(lp535
sg19
(lp536
sg21
I0
sba(iArchitecture
Entity
p537
(dp538
g11
(lp539
sg13
S'android.nfc.tech.NfcF'
p540
sg15
(lp541
sg17
(lp542
sg19
(lp543
sg21
I0
sba(iArchitecture
Entity
p544
(dp545
g11
(lp546
sg13
S'android.nfc.tech.NfcV'
p547
sg15
(lp548
sg17
(lp549
sg19
(lp550
sg21
I0
sba(iArchitecture
Entity
p551
(dp552
g11
(lp553
sg13
S'android.nfc.tech.TagTechnology'
p554
sg15
(lp555
sg17
(lp556
sg19
(lp557
sg21
I0
sbasg36
(lp558
g456
ag463
ag470
ag477
ag484
ag491
ag498
ag505
ag512
ag519
ag526
ag533
ag540
ag547
ag554
asg21
I0
sg38
S'1330'
p559
sba(iArchitecture
Cluster
p560
(dp561
g7
(lp562
(iArchitecture
Entity
p563
(dp564
g11
(lp565
sg13
S'android.nfc.cardemulation.NfcFServiceInfo'
p566
sg15
(lp567
sg17
(lp568
sg19
(lp569
sg21
I0
sba(iArchitecture
Entity
p570
(dp571
g11
(lp572
sg13
S'android.nfc.cardemulation.NfcFServiceInfo$1'
p573
sg15
(lp574
sg17
(lp575
sg19
(lp576
sg21
I0
sbasg36
(lp577
g566
ag573
asg21
I0
sg38
S'1397'
p578
sba(iArchitecture
Cluster
p579
(dp580
g7
(lp581
(iArchitecture
Entity
p582
(dp583
g11
(lp584
sg13
S'android.nfc.NdefMessage'
p585
sg15
(lp586
sg17
(lp587
sg19
(lp588
sg21
I0
sba(iArchitecture
Entity
p589
(dp590
g11
(lp591
sg13
S'android.nfc.NdefMessage$1'
p592
sg15
(lp593
sg17
(lp594
sg19
(lp595
sg21
I0
sba(iArchitecture
Entity
p596
(dp597
g11
(lp598
sg13
S'android.nfc.NdefRecord'
p599
sg15
(lp600
sg17
(lp601
sg19
(lp602
sg21
I0
sba(iArchitecture
Entity
p603
(dp604
g11
(lp605
sg13
S'android.nfc.NdefRecord$1'
p606
sg15
(lp607
sg17
(lp608
sg19
(lp609
sg21
I0
sbasg36
(lp610
g585
ag592
ag599
ag606
asg21
I0
sg38
S'1401'
p611
sba(iArchitecture
Cluster
p612
(dp613
g7
(lp614
(iArchitecture
Entity
p615
(dp616
g11
(lp617
sg13
S'android.nfc.NfcEvent'
p618
sg15
(lp619
sg17
(lp620
sg19
(lp621
sg21
I0
sbasg36
(lp622
g618
asg21
I0
sg38
S'258'
p623
sba(iArchitecture
Cluster
p624
(dp625
g7
(lp626
(iArchitecture
Entity
p627
(dp628
g11
(lp629
sg13
S'android.nfc.NfcManager'
p630
sg15
(lp631
sg17
(lp632
sg19
(lp633
sg21
I0
sbasg36
(lp634
g630
asg21
I0
sg38
S'43'
p635
sba(iArchitecture
Cluster
p636
(dp637
g7
(lp638
(iArchitecture
Entity
p639
(dp640
g11
(lp641
sg13
S'android.nfc.cardemulation.ApduServiceInfo'
p642
sg15
(lp643
sg17
(lp644
sg19
(lp645
sg21
I0
sba(iArchitecture
Entity
p646
(dp647
g11
(lp648
sg13
S'android.nfc.cardemulation.ApduServiceInfo$1'
p649
sg15
(lp650
sg17
(lp651
sg19
(lp652
sg21
I0
sbasg36
(lp653
g642
ag649
asg21
I0
sg38
S'608'
p654
sba(iArchitecture
Cluster
p655
(dp656
g7
(lp657
(iArchitecture
Entity
p658
(dp659
g11
(lp660
sg13
S'android.nfc.cardemulation.AidGroup'
p661
sg15
(lp662
sg17
(lp663
sg19
(lp664
sg21
I0
sba(iArchitecture
Entity
p665
(dp666
g11
(lp667
sg13
S'android.nfc.cardemulation.AidGroup$1'
p668
sg15
(lp669
sg17
(lp670
sg19
(lp671
sg21
I0
sbasg36
(lp672
g661
ag668
asg21
I0
sg38
S'675'
p673
sba(iArchitecture
Cluster
p674
(dp675
g7
(lp676
(iArchitecture
Entity
p677
(dp678
g11
(lp679
sg13
S'android.nfc.ErrorCodes'
p680
sg15
(lp681
sg17
(lp682
sg19
(lp683
sg21
I0
sbasg36
(lp684
g680
asg21
I0
sg38
S'69'
p685
sba(iArchitecture
Cluster
p686
(dp687
g7
(lp688
(iArchitecture
Entity
p689
(dp690
g11
(lp691
sg13
S'android.nfc.TechListParcel'
p692
sg15
(lp693
sg17
(lp694
sg19
(lp695
sg21
I0
sba(iArchitecture
Entity
p696
(dp697
g11
(lp698
sg13
S'android.nfc.TechListParcel$1'
p699
sg15
(lp700
sg17
(lp701
sg19
(lp702
sg21
I0
sbasg36
(lp703
g692
ag699
asg21
I0
sg38
S'704'
p704
sba(iArchitecture
Cluster
p705
(dp706
g7
(lp707
(iArchitecture
Entity
p708
(dp709
g11
(lp710
sg13
S'android.nfc.BeamShareData'
p711
sg15
(lp712
sg17
(lp713
sg19
(lp714
sg21
I0
sba(iArchitecture
Entity
p715
(dp716
g11
(lp717
sg13
S'android.nfc.BeamShareData$1'
p718
sg15
(lp719
sg17
(lp720
sg19
(lp721
sg21
I0
sbasg36
(lp722
g711
ag718
asg21
I0
sg38
S'705'
p723
sba(iArchitecture
Cluster
p724
(dp725
g7
(lp726
(iArchitecture
Entity
p727
(dp728
g11
(lp729
sg13
S'android.nfc.TransceiveResult'
p730
sg15
(lp731
sg17
(lp732
sg19
(lp733
sg21
I0
sba(iArchitecture
Entity
p734
(dp735
g11
(lp736
sg13
S'android.nfc.TransceiveResult$1'
p737
sg15
(lp738
sg17
(lp739
sg19
(lp740
sg21
I0
sbasg36
(lp741
g730
ag737
asg21
I0
sg38
S'751'
p742
sba(iArchitecture
Cluster
p743
(dp744
g7
(lp745
(iArchitecture
Entity
p746
(dp747
g11
(lp748
sg13
S'android.nfc.tech.NfcBarcode'
p749
sg15
(lp750
sg17
(lp751
sg19
(lp752
sg21
I0
sbasg36
(lp753
g749
asg21
I0
sg38
S'79'
p754
sba(iArchitecture
Cluster
p755
(dp756
g7
(lp757
(iArchitecture
Entity
p758
(dp759
g11
(lp760
sg13
S'android.nfc.ApduList'
p761
sg15
(lp762
sg17
(lp763
sg19
(lp764
sg21
I0
sba(iArchitecture
Entity
p765
(dp766
g11
(lp767
sg13
S'android.nfc.ApduList$1'
p768
sg15
(lp769
sg17
(lp770
sg19
(lp771
sg21
I0
sbasg36
(lp772
g761
ag768
asg21
I0
sg38
S'827'
p773
sba(iArchitecture
Cluster
p774
(dp775
g7
(lp776
(iArchitecture
Entity
p777
(dp778
g11
(lp779
sg13
S'android.nfc.NfcActivityManager'
p780
sg15
(lp781
sg17
(lp782
sg19
(lp783
sg21
I0
sba(iArchitecture
Entity
p784
(dp785
g11
(lp786
sg13
S'android.nfc.NfcActivityManager$NfcActivityState'
p787
sg15
(lp788
sg17
(lp789
sg19
(lp790
sg21
I0
sba(iArchitecture
Entity
p791
(dp792
g11
(lp793
sg13
S'android.nfc.NfcActivityManager$NfcApplicationState'
p794
sg15
(lp795
sg17
(lp796
sg19
(lp797
sg21
I0
sbasg36
(lp798
g780
ag787
ag794
asg21
I0
sg38
S'886'
p799
sbasg383
g384
sg36
(lp800
sg386
I00
sg38
S'7.0.0_r1'
p801
sba.