(lp0
(iArchitecture
Architecture
p1
(dp2
S'clusters'
p3
(lp4
(iArchitecture
Cluster
p5
(dp6
S'entities'
p7
(lp8
(iArchitecture
Entity
p9
(dp10
S'issue_ids'
p11
(lp12
sS'name'
p13
S'com.android.server.tv.TvInputHardwareManager'
p14
sS'descs'
p15
(lp16
sS'labels'
p17
(lp18
sS'titles'
p19
(lp20
sS'change'
p21
I0
sba(iArchitecture
Entity
p22
(dp23
g11
(lp24
sg13
S'com.android.server.tv.TvInputHardwareManager$1'
p25
sg15
(lp26
sg17
(lp27
sg19
(lp28
sg21
I0
sba(iArchitecture
Entity
p29
(dp30
g11
(lp31
sg13
S'com.android.server.tv.TvInputHardwareManager$2'
p32
sg15
(lp33
sg17
(lp34
sg19
(lp35
sg21
I0
sba(iArchitecture
Entity
p36
(dp37
g11
(lp38
sg13
S'com.android.server.tv.TvInputHardwareManager$Connection'
p39
sg15
(lp40
sg17
(lp41
sg19
(lp42
sg21
I0
sba(iArchitecture
Entity
p43
(dp44
g11
(lp45
sg13
S'com.android.server.tv.TvInputHardwareManager$HdmiDeviceEventListener'
p46
sg15
(lp47
sg17
(lp48
sg19
(lp49
sg21
I0
sba(iArchitecture
Entity
p50
(dp51
g11
(lp52
sg13
S'com.android.server.tv.TvInputHardwareManager$HdmiHotplugEventListener'
p53
sg15
(lp54
sg17
(lp55
sg19
(lp56
sg21
I0
sba(iArchitecture
Entity
p57
(dp58
g11
(lp59
sg13
S'com.android.server.tv.TvInputHardwareManager$HdmiSystemAudioModeChangeListener'
p60
sg15
(lp61
sg17
(lp62
sg19
(lp63
sg21
I0
sba(iArchitecture
Entity
p64
(dp65
g11
(lp66
sg13
S'com.android.server.tv.TvInputHardwareManager$Listener'
p67
sg15
(lp68
sg17
(lp69
sg19
(lp70
sg21
I0
sba(iArchitecture
Entity
p71
(dp72
g11
(lp73
sg13
S'com.android.server.tv.TvInputHardwareManager$ListenerHandler'
p74
sg15
(lp75
sg17
(lp76
sg19
(lp77
sg21
I0
sba(iArchitecture
Entity
p78
(dp79
g11
(lp80
sg13
S'com.android.server.tv.TvInputHardwareManager$TvInputHardwareImpl'
p81
sg15
(lp82
sg17
(lp83
sg19
(lp84
sg21
I0
sba(iArchitecture
Entity
p85
(dp86
g11
(lp87
sg13
S'com.android.server.tv.TvInputHardwareManager$TvInputHardwareImpl$1'
p88
sg15
(lp89
sg17
(lp90
sg19
(lp91
sg21
I0
sbasS'classes'
p92
(lp93
g14
ag25
ag32
ag39
ag46
ag53
ag60
ag67
ag74
ag81
ag88
asg21
I0
sS'label'
p94
S'1062'
p95
sba(iArchitecture
Cluster
p96
(dp97
g7
(lp98
(iArchitecture
Entity
p99
(dp100
g11
(lp101
sg13
S'com.android.server.tv.TvInputHal'
p102
sg15
(lp103
sg17
(lp104
sg19
(lp105
sg21
I0
sba(iArchitecture
Entity
p106
(dp107
g11
(lp108
sg13
S'com.android.server.tv.TvInputHal$Callback'
p109
sg15
(lp110
sg17
(lp111
sg19
(lp112
sg21
I0
sbasg92
(lp113
g102
ag109
asg21
I0
sg94
S'471'
p114
sba(iArchitecture
Cluster
p115
(dp116
g7
(lp117
(iArchitecture
Entity
p118
(dp119
g11
(lp120
sg13
S'com.android.server.tv.PersistentDataStore'
p121
sg15
(lp122
sg17
(lp123
sg19
(lp124
sg21
I0
sba(iArchitecture
Entity
p125
(dp126
g11
(lp127
sg13
S'com.android.server.tv.PersistentDataStore$1'
p128
sg15
(lp129
sg17
(lp130
sg19
(lp131
sg21
I0
sbasg92
(lp132
g121
ag128
asg21
I0
sg94
S'593'
p133
sbasS'target_sub'
p134
S'com.android.server.tv'
p135
sg92
(lp136
sS'is_component_arch'
p137
I00
sg94
S'6.0.0_r1'
p138
sba(iArchitecture
Architecture
p139
(dp140
g3
(lp141
(iArchitecture
Cluster
p142
(dp143
g7
(lp144
(iArchitecture
Entity
p145
(dp146
g11
(lp147
sg13
S'com.android.server.tv.TvRemoteProviderProxy'
p148
sg15
(lp149
sg17
(lp150
sg19
(lp151
sg21
I0
sba(iArchitecture
Entity
p152
(dp153
g11
(lp154
sg13
S'com.android.server.tv.TvRemoteProviderProxy$Connection'
p155
sg15
(lp156
sg17
(lp157
sg19
(lp158
sg21
I0
sba(iArchitecture
Entity
p159
(dp160
g11
(lp161
sg13
S'com.android.server.tv.TvRemoteProviderProxy$Connection$1'
p162
sg15
(lp163
sg17
(lp164
sg19
(lp165
sg21
I0
sba(iArchitecture
Entity
p166
(dp167
g11
(lp168
sg13
S'com.android.server.tv.TvRemoteProviderProxy$Connection$2'
p169
sg15
(lp170
sg17
(lp171
sg19
(lp172
sg21
I0
sba(iArchitecture
Entity
p173
(dp174
g11
(lp175
sg13
S'com.android.server.tv.TvRemoteProviderProxy$ProviderMethods'
p176
sg15
(lp177
sg17
(lp178
sg19
(lp179
sg21
I0
sba(iArchitecture
Entity
p180
(dp181
g11
(lp182
sg13
S'com.android.server.tv.TvRemoteProviderProxy$RemoteServiceInputProvider'
p183
sg15
(lp184
sg17
(lp185
sg19
(lp186
sg21
I0
sbasg92
(lp187
g148
ag155
ag162
ag169
ag176
ag183
asg21
I0
sg94
S'1087'
p188
sba(iArchitecture
Cluster
p189
(dp190
g7
(lp191
(iArchitecture
Entity
p192
(dp193
g11
(lp194
sg13
S'com.android.server.tv.TvInputHardwareManager'
p195
sg15
(lp196
sg17
(lp197
sg19
(lp198
sg21
I0
sba(iArchitecture
Entity
p199
(dp200
g11
(lp201
sg13
S'com.android.server.tv.TvInputHardwareManager$1'
p202
sg15
(lp203
sg17
(lp204
sg19
(lp205
sg21
I0
sba(iArchitecture
Entity
p206
(dp207
g11
(lp208
sg13
S'com.android.server.tv.TvInputHardwareManager$2'
p209
sg15
(lp210
sg17
(lp211
sg19
(lp212
sg21
I0
sba(iArchitecture
Entity
p213
(dp214
g11
(lp215
sg13
S'com.android.server.tv.TvInputHardwareManager$Connection'
p216
sg15
(lp217
sg17
(lp218
sg19
(lp219
sg21
I0
sba(iArchitecture
Entity
p220
(dp221
g11
(lp222
sg13
S'com.android.server.tv.TvInputHardwareManager$HdmiDeviceEventListener'
p223
sg15
(lp224
sg17
(lp225
sg19
(lp226
sg21
I0
sba(iArchitecture
Entity
p227
(dp228
g11
(lp229
sg13
S'com.android.server.tv.TvInputHardwareManager$HdmiHotplugEventListener'
p230
sg15
(lp231
sg17
(lp232
sg19
(lp233
sg21
I0
sba(iArchitecture
Entity
p234
(dp235
g11
(lp236
sg13
S'com.android.server.tv.TvInputHardwareManager$HdmiSystemAudioModeChangeListener'
p237
sg15
(lp238
sg17
(lp239
sg19
(lp240
sg21
I0
sba(iArchitecture
Entity
p241
(dp242
g11
(lp243
sg13
S'com.android.server.tv.TvInputHardwareManager$Listener'
p244
sg15
(lp245
sg17
(lp246
sg19
(lp247
sg21
I0
sba(iArchitecture
Entity
p248
(dp249
g11
(lp250
sg13
S'com.android.server.tv.TvInputHardwareManager$ListenerHandler'
p251
sg15
(lp252
sg17
(lp253
sg19
(lp254
sg21
I0
sba(iArchitecture
Entity
p255
(dp256
g11
(lp257
sg13
S'com.android.server.tv.TvInputHardwareManager$TvInputHardwareImpl'
p258
sg15
(lp259
sg17
(lp260
sg19
(lp261
sg21
I0
sba(iArchitecture
Entity
p262
(dp263
g11
(lp264
sg13
S'com.android.server.tv.TvInputHardwareManager$TvInputHardwareImpl$1'
p265
sg15
(lp266
sg17
(lp267
sg19
(lp268
sg21
I0
sbasg92
(lp269
g195
ag202
ag209
ag216
ag223
ag230
ag237
ag244
ag251
ag258
ag265
asg21
I0
sg94
S'1190'
p270
sba(iArchitecture
Cluster
p271
(dp272
g7
(lp273
(iArchitecture
Entity
p274
(dp275
g11
(lp276
sg13
S'com.android.server.tv.UinputBridge'
p277
sg15
(lp278
sg17
(lp279
sg19
(lp280
sg21
I0
sbasg92
(lp281
g277
asg21
I0
sg94
S'187'
p282
sba(iArchitecture
Cluster
p283
(dp284
g7
(lp285
(iArchitecture
Entity
p286
(dp287
g11
(lp288
sg13
S'com.android.server.tv.TvInputHal'
p289
sg15
(lp290
sg17
(lp291
sg19
(lp292
sg21
I0
sba(iArchitecture
Entity
p293
(dp294
g11
(lp295
sg13
S'com.android.server.tv.TvInputHal$Callback'
p296
sg15
(lp297
sg17
(lp298
sg19
(lp299
sg21
I0
sbasg92
(lp300
g289
ag296
asg21
I0
sg94
S'526'
p301
sba(iArchitecture
Cluster
p302
(dp303
g7
(lp304
(iArchitecture
Entity
p305
(dp306
g11
(lp307
sg13
S'com.android.server.tv.PersistentDataStore'
p308
sg15
(lp309
sg17
(lp310
sg19
(lp311
sg21
I0
sba(iArchitecture
Entity
p312
(dp313
g11
(lp314
sg13
S'com.android.server.tv.PersistentDataStore$1'
p315
sg15
(lp316
sg17
(lp317
sg19
(lp318
sg21
I0
sbasg92
(lp319
g308
ag315
asg21
I0
sg94
S'677'
p320
sba(iArchitecture
Cluster
p321
(dp322
g7
(lp323
(iArchitecture
Entity
p324
(dp325
g11
(lp326
sg13
S'com.android.server.tv.TvRemoteService'
p327
sg15
(lp328
sg17
(lp329
sg19
(lp330
sg21
I0
sba(iArchitecture
Entity
p331
(dp332
g11
(lp333
sg13
S'com.android.server.tv.TvRemoteService$UserHandler'
p334
sg15
(lp335
sg17
(lp336
sg19
(lp337
sg21
I0
sba(iArchitecture
Entity
p338
(dp339
g11
(lp340
sg13
S'com.android.server.tv.TvRemoteService$UserProvider'
p341
sg15
(lp342
sg17
(lp343
sg19
(lp344
sg21
I0
sbasg92
(lp345
g327
ag334
ag341
asg21
I0
sg94
S'912'
p346
sbasg134
g135
sg92
(lp347
sg137
I00
sg94
S'7.0.0_r1'
p348
sba.