(lp0
(iArchitecture
Architecture
p1
(dp2
S'clusters'
p3
(lp4
(iArchitecture
Cluster
p5
(dp6
S'entities'
p7
(lp8
(iArchitecture
Entity
p9
(dp10
S'issue_ids'
p11
(lp12
sS'name'
p13
S'android.ddm.DdmHandleAppName'
p14
sS'descs'
p15
(lp16
sS'labels'
p17
(lp18
sS'titles'
p19
(lp20
sS'change'
p21
I0
sba(iArchitecture
Entity
p22
(dp23
g11
(lp24
sg13
S'android.ddm.DdmHandleExit'
p25
sg15
(lp26
sg17
(lp27
sg19
(lp28
sg21
I0
sba(iArchitecture
Entity
p29
(dp30
g11
(lp31
sg13
S'android.ddm.DdmHandleHeap'
p32
sg15
(lp33
sg17
(lp34
sg19
(lp35
sg21
I0
sba(iArchitecture
Entity
p36
(dp37
g11
(lp38
sg13
S'android.ddm.DdmHandleHello'
p39
sg15
(lp40
sg17
(lp41
sg19
(lp42
sg21
I0
sba(iArchitecture
Entity
p43
(dp44
g11
(lp45
sg13
S'android.ddm.DdmHandleNativeHeap'
p46
sg15
(lp47
sg17
(lp48
sg19
(lp49
sg21
I0
sba(iArchitecture
Entity
p50
(dp51
g11
(lp52
sg13
S'android.ddm.DdmHandleProfiling'
p53
sg15
(lp54
sg17
(lp55
sg19
(lp56
sg21
I0
sba(iArchitecture
Entity
p57
(dp58
g11
(lp59
sg13
S'android.ddm.DdmHandleThread'
p60
sg15
(lp61
sg17
(lp62
sg19
(lp63
sg21
I0
sbasS'classes'
p64
(lp65
g14
ag25
ag32
ag39
ag46
ag53
ag60
asg21
I0
sS'label'
p66
S'1158'
p67
sba(iArchitecture
Cluster
p68
(dp69
g7
(lp70
(iArchitecture
Entity
p71
(dp72
g11
(lp73
sg13
S'android.ddm.DdmRegister'
p74
sg15
(lp75
sg17
(lp76
sg19
(lp77
sg21
I0
sbasg64
(lp78
g74
asg21
I0
sg66
S'1237'
p79
sba(iArchitecture
Cluster
p80
(dp81
g7
(lp82
(iArchitecture
Entity
p83
(dp84
g11
(lp85
sg13
S'android.ddm.DdmHandleViewDebug'
p86
sg15
(lp87
sg17
(lp88
sg19
(lp89
sg21
I0
sba(iArchitecture
Entity
p90
(dp91
g11
(lp92
sg13
S'android.ddm.DdmHandleViewDebug$1'
p93
sg15
(lp94
sg17
(lp95
sg19
(lp96
sg21
I0
sbasg64
(lp97
g86
ag93
asg21
I0
sg66
S'668'
p98
sbasS'target_sub'
p99
S'android.ddm'
p100
sg64
(lp101
sS'is_component_arch'
p102
I00
sg66
S'6.0.0_r1'
p103
sba(iArchitecture
Architecture
p104
(dp105
g3
(lp106
(iArchitecture
Cluster
p107
(dp108
g7
(lp109
(iArchitecture
Entity
p110
(dp111
g11
(lp112
sg13
S'android.ddm.DdmHandleAppName'
p113
sg15
(lp114
sg17
(lp115
sg19
(lp116
sg21
I0
sba(iArchitecture
Entity
p117
(dp118
g11
(lp119
sg13
S'android.ddm.DdmHandleExit'
p120
sg15
(lp121
sg17
(lp122
sg19
(lp123
sg21
I0
sba(iArchitecture
Entity
p124
(dp125
g11
(lp126
sg13
S'android.ddm.DdmHandleHeap'
p127
sg15
(lp128
sg17
(lp129
sg19
(lp130
sg21
I0
sba(iArchitecture
Entity
p131
(dp132
g11
(lp133
sg13
S'android.ddm.DdmHandleHello'
p134
sg15
(lp135
sg17
(lp136
sg19
(lp137
sg21
I0
sba(iArchitecture
Entity
p138
(dp139
g11
(lp140
sg13
S'android.ddm.DdmHandleNativeHeap'
p141
sg15
(lp142
sg17
(lp143
sg19
(lp144
sg21
I0
sba(iArchitecture
Entity
p145
(dp146
g11
(lp147
sg13
S'android.ddm.DdmHandleProfiling'
p148
sg15
(lp149
sg17
(lp150
sg19
(lp151
sg21
I0
sba(iArchitecture
Entity
p152
(dp153
g11
(lp154
sg13
S'android.ddm.DdmHandleThread'
p155
sg15
(lp156
sg17
(lp157
sg19
(lp158
sg21
I0
sbasg64
(lp159
g113
ag120
ag127
ag134
ag141
ag148
ag155
asg21
I0
sg66
S'1302'
p160
sba(iArchitecture
Cluster
p161
(dp162
g7
(lp163
(iArchitecture
Entity
p164
(dp165
g11
(lp166
sg13
S'android.ddm.DdmRegister'
p167
sg15
(lp168
sg17
(lp169
sg19
(lp170
sg21
I0
sbasg64
(lp171
g167
asg21
I0
sg66
S'1331'
p172
sba(iArchitecture
Cluster
p173
(dp174
g7
(lp175
(iArchitecture
Entity
p176
(dp177
g11
(lp178
sg13
S'android.ddm.DdmHandleViewDebug'
p179
sg15
(lp180
sg17
(lp181
sg19
(lp182
sg21
I0
sba(iArchitecture
Entity
p183
(dp184
g11
(lp185
sg13
S'android.ddm.DdmHandleViewDebug$1'
p186
sg15
(lp187
sg17
(lp188
sg19
(lp189
sg21
I0
sbasg64
(lp190
g179
ag186
asg21
I0
sg66
S'758'
p191
sbasg99
g100
sg64
(lp192
sg102
I00
sg66
S'7.0.0_r1'
p193
sba.