(lp0
(iArchitecture
Architecture
p1
(dp2
S'clusters'
p3
(lp4
(iArchitecture
Cluster
p5
(dp6
S'entities'
p7
(lp8
(iArchitecture
Entity
p9
(dp10
S'issue_ids'
p11
(lp12
sS'name'
p13
S'com.android.server.webkit.WebViewUpdateService'
p14
sS'descs'
p15
(lp16
sS'labels'
p17
(lp18
sS'titles'
p19
(lp20
sS'change'
p21
I0
sba(iArchitecture
Entity
p22
(dp23
g11
(lp24
sg13
S'com.android.server.webkit.WebViewUpdateService$1'
p25
sg15
(lp26
sg17
(lp27
sg19
(lp28
sg21
I0
sba(iArchitecture
Entity
p29
(dp30
g11
(lp31
sg13
S'com.android.server.webkit.WebViewUpdateService$BinderService'
p32
sg15
(lp33
sg17
(lp34
sg19
(lp35
sg21
I0
sbasS'classes'
p36
(lp37
g14
ag25
ag32
asg21
I0
sS'label'
p38
S'1232'
p39
sbasS'target_sub'
p40
S'com.android.server.webkit'
p41
sg36
(lp42
sS'is_component_arch'
p43
I00
sg38
S'6.0.0_r1'
p44
sba(iArchitecture
Architecture
p45
(dp46
g3
(lp47
(iArchitecture
Cluster
p48
(dp49
g7
(lp50
(iArchitecture
Entity
p51
(dp52
g11
(lp53
sg13
S'com.android.server.webkit.WebViewUpdateService'
p54
sg15
(lp55
sg17
(lp56
sg19
(lp57
sg21
I0
sba(iArchitecture
Entity
p58
(dp59
g11
(lp60
sg13
S'com.android.server.webkit.WebViewUpdateService$1'
p61
sg15
(lp62
sg17
(lp63
sg19
(lp64
sg21
I0
sba(iArchitecture
Entity
p65
(dp66
g11
(lp67
sg13
S'com.android.server.webkit.WebViewUpdateService$BinderService'
p68
sg15
(lp69
sg17
(lp70
sg19
(lp71
sg21
I0
sbasg36
(lp72
g54
ag61
ag68
asg21
I0
sg38
S'1401'
p73
sba(iArchitecture
Cluster
p74
(dp75
g7
(lp76
(iArchitecture
Entity
p77
(dp78
g11
(lp79
sg13
S'com.android.server.webkit.SystemInterface'
p80
sg15
(lp81
sg17
(lp82
sg19
(lp83
sg21
I0
sbasg36
(lp84
g80
asg21
I0
sg38
S'398'
p85
sba(iArchitecture
Cluster
p86
(dp87
g7
(lp88
(iArchitecture
Entity
p89
(dp90
g11
(lp91
sg13
S'com.android.server.webkit.WebViewUpdateServiceImpl'
p92
sg15
(lp93
sg17
(lp94
sg19
(lp95
sg21
I0
sba(iArchitecture
Entity
p96
(dp97
g11
(lp98
sg13
S'com.android.server.webkit.WebViewUpdateServiceImpl$WebViewUpdater'
p99
sg15
(lp100
sg17
(lp101
sg19
(lp102
sg21
I0
sba(iArchitecture
Entity
p103
(dp104
g11
(lp105
sg13
S'com.android.server.webkit.WebViewUpdateServiceImpl$WebViewUpdater$ProviderAndPackageInfo'
p106
sg15
(lp107
sg17
(lp108
sg19
(lp109
sg21
I0
sbasg36
(lp110
g92
ag99
ag106
asg21
I0
sg38
S'904'
p111
sbasg40
g41
sg36
(lp112
sg43
I00
sg38
S'7.0.0_r1'
p113
sba.