(lp0
(iArchitecture
Architecture
p1
(dp2
S'clusters'
p3
(lp4
(iArchitecture
Cluster
p5
(dp6
S'entities'
p7
(lp8
(iArchitecture
Entity
p9
(dp10
S'issue_ids'
p11
(lp12
sS'name'
p13
S'android.gesture.Gesture'
p14
sS'descs'
p15
(lp16
sS'labels'
p17
(lp18
sS'titles'
p19
(lp20
sS'change'
p21
I0
sba(iArchitecture
Entity
p22
(dp23
g11
(lp24
sg13
S'android.gesture.Gesture$1'
p25
sg15
(lp26
sg17
(lp27
sg19
(lp28
sg21
I0
sba(iArchitecture
Entity
p29
(dp30
g11
(lp31
sg13
S'android.gesture.GestureStore'
p32
sg15
(lp33
sg17
(lp34
sg19
(lp35
sg21
I0
sbasS'classes'
p36
(lp37
g14
ag25
ag32
asg21
I0
sS'label'
p38
S'1138'
p39
sba(iArchitecture
Cluster
p40
(dp41
g7
(lp42
(iArchitecture
Entity
p43
(dp44
g11
(lp45
sg13
S'android.gesture.GestureConstants'
p46
sg15
(lp47
sg17
(lp48
sg19
(lp49
sg21
I0
sba(iArchitecture
Entity
p50
(dp51
g11
(lp52
sg13
S'android.gesture.Learner'
p53
sg15
(lp54
sg17
(lp55
sg19
(lp56
sg21
I0
sba(iArchitecture
Entity
p57
(dp58
g11
(lp59
sg13
S'android.gesture.Prediction'
p60
sg15
(lp61
sg17
(lp62
sg19
(lp63
sg21
I0
sbasg36
(lp64
g46
ag53
ag60
asg21
I0
sg38
S'1223'
p65
sba(iArchitecture
Cluster
p66
(dp67
g7
(lp68
(iArchitecture
Entity
p69
(dp70
g11
(lp71
sg13
S'android.gesture.GesturePoint'
p72
sg15
(lp73
sg17
(lp74
sg19
(lp75
sg21
I0
sbasg36
(lp76
g72
asg21
I0
sg38
S'1237'
p77
sba(iArchitecture
Cluster
p78
(dp79
g7
(lp80
(iArchitecture
Entity
p81
(dp82
g11
(lp83
sg13
S'android.gesture.OrientedBoundingBox'
p84
sg15
(lp85
sg17
(lp86
sg19
(lp87
sg21
I0
sbasg36
(lp88
g84
asg21
I0
sg38
S'1261'
p89
sba(iArchitecture
Cluster
p90
(dp91
g7
(lp92
(iArchitecture
Entity
p93
(dp94
g11
(lp95
sg13
S'android.gesture.Instance'
p96
sg15
(lp97
sg17
(lp98
sg19
(lp99
sg21
I0
sbasg36
(lp100
g96
asg21
I0
sg38
S'200'
p101
sba(iArchitecture
Cluster
p102
(dp103
g7
(lp104
(iArchitecture
Entity
p105
(dp106
g11
(lp107
sg13
S'android.gesture.GestureUtils'
p108
sg15
(lp109
sg17
(lp110
sg19
(lp111
sg21
I0
sbasg36
(lp112
g108
asg21
I0
sg38
S'25'
p113
sba(iArchitecture
Cluster
p114
(dp115
g7
(lp116
(iArchitecture
Entity
p117
(dp118
g11
(lp119
sg13
S'android.gesture.GestureStroke'
p120
sg15
(lp121
sg17
(lp122
sg19
(lp123
sg21
I0
sbasg36
(lp124
g120
asg21
I0
sg38
S'29'
p125
sba(iArchitecture
Cluster
p126
(dp127
g7
(lp128
(iArchitecture
Entity
p129
(dp130
g11
(lp131
sg13
S'android.gesture.GestureLibrary'
p132
sg15
(lp133
sg17
(lp134
sg19
(lp135
sg21
I0
sbasg36
(lp136
g132
asg21
I0
sg38
S'378'
p137
sba(iArchitecture
Cluster
p138
(dp139
g7
(lp140
(iArchitecture
Entity
p141
(dp142
g11
(lp143
sg13
S'android.gesture.InstanceLearner'
p144
sg15
(lp145
sg17
(lp146
sg19
(lp147
sg21
I0
sba(iArchitecture
Entity
p148
(dp149
g11
(lp150
sg13
S'android.gesture.InstanceLearner$1'
p151
sg15
(lp152
sg17
(lp153
sg19
(lp154
sg21
I0
sbasg36
(lp155
g144
ag151
asg21
I0
sg38
S'602'
p156
sba(iArchitecture
Cluster
p157
(dp158
g7
(lp159
(iArchitecture
Entity
p160
(dp161
g11
(lp162
sg13
S'android.gesture.GestureLibraries'
p163
sg15
(lp164
sg17
(lp165
sg19
(lp166
sg21
I0
sba(iArchitecture
Entity
p167
(dp168
g11
(lp169
sg13
S'android.gesture.GestureLibraries$FileGestureLibrary'
p170
sg15
(lp171
sg17
(lp172
sg19
(lp173
sg21
I0
sba(iArchitecture
Entity
p174
(dp175
g11
(lp176
sg13
S'android.gesture.GestureLibraries$ResourceGestureLibrary'
p177
sg15
(lp178
sg17
(lp179
sg19
(lp180
sg21
I0
sbasg36
(lp181
g163
ag170
ag177
asg21
I0
sg38
S'809'
p182
sba(iArchitecture
Cluster
p183
(dp184
g7
(lp185
(iArchitecture
Entity
p186
(dp187
g11
(lp188
sg13
S'android.gesture.GestureOverlayView'
p189
sg15
(lp190
sg17
(lp191
sg19
(lp192
sg21
I0
sba(iArchitecture
Entity
p193
(dp194
g11
(lp195
sg13
S'android.gesture.GestureOverlayView$FadeOutRunnable'
p196
sg15
(lp197
sg17
(lp198
sg19
(lp199
sg21
I0
sba(iArchitecture
Entity
p200
(dp201
g11
(lp202
sg13
S'android.gesture.GestureOverlayView$OnGestureListener'
p203
sg15
(lp204
sg17
(lp205
sg19
(lp206
sg21
I0
sba(iArchitecture
Entity
p207
(dp208
g11
(lp209
sg13
S'android.gesture.GestureOverlayView$OnGesturePerformedListener'
p210
sg15
(lp211
sg17
(lp212
sg19
(lp213
sg21
I0
sba(iArchitecture
Entity
p214
(dp215
g11
(lp216
sg13
S'android.gesture.GestureOverlayView$OnGesturingListener'
p217
sg15
(lp218
sg17
(lp219
sg19
(lp220
sg21
I0
sbasg36
(lp221
g189
ag196
ag203
ag210
ag217
asg21
I0
sg38
S'972'
p222
sbasS'target_sub'
p223
S'android.gesture'
p224
sg36
(lp225
sS'is_component_arch'
p226
I00
sg38
S'6.0.0_r1'
p227
sba(iArchitecture
Architecture
p228
(dp229
g3
(lp230
(iArchitecture
Cluster
p231
(dp232
g7
(lp233
(iArchitecture
Entity
p234
(dp235
g11
(lp236
sg13
S'android.gesture.GestureOverlayView'
p237
sg15
(lp238
sg17
(lp239
sg19
(lp240
sg21
I0
sba(iArchitecture
Entity
p241
(dp242
g11
(lp243
sg13
S'android.gesture.GestureOverlayView$FadeOutRunnable'
p244
sg15
(lp245
sg17
(lp246
sg19
(lp247
sg21
I0
sba(iArchitecture
Entity
p248
(dp249
g11
(lp250
sg13
S'android.gesture.GestureOverlayView$OnGestureListener'
p251
sg15
(lp252
sg17
(lp253
sg19
(lp254
sg21
I0
sba(iArchitecture
Entity
p255
(dp256
g11
(lp257
sg13
S'android.gesture.GestureOverlayView$OnGesturePerformedListener'
p258
sg15
(lp259
sg17
(lp260
sg19
(lp261
sg21
I0
sba(iArchitecture
Entity
p262
(dp263
g11
(lp264
sg13
S'android.gesture.GestureOverlayView$OnGesturingListener'
p265
sg15
(lp266
sg17
(lp267
sg19
(lp268
sg21
I0
sbasg36
(lp269
g237
ag244
ag251
ag258
ag265
asg21
I0
sg38
S'1098'
p270
sba(iArchitecture
Cluster
p271
(dp272
g7
(lp273
(iArchitecture
Entity
p274
(dp275
g11
(lp276
sg13
S'android.gesture.Gesture'
p277
sg15
(lp278
sg17
(lp279
sg19
(lp280
sg21
I0
sba(iArchitecture
Entity
p281
(dp282
g11
(lp283
sg13
S'android.gesture.Gesture$1'
p284
sg15
(lp285
sg17
(lp286
sg19
(lp287
sg21
I0
sba(iArchitecture
Entity
p288
(dp289
g11
(lp290
sg13
S'android.gesture.GestureStore'
p291
sg15
(lp292
sg17
(lp293
sg19
(lp294
sg21
I0
sbasg36
(lp295
g277
ag284
ag291
asg21
I0
sg38
S'1278'
p296
sba(iArchitecture
Cluster
p297
(dp298
g7
(lp299
(iArchitecture
Entity
p300
(dp301
g11
(lp302
sg13
S'android.gesture.GestureConstants'
p303
sg15
(lp304
sg17
(lp305
sg19
(lp306
sg21
I0
sba(iArchitecture
Entity
p307
(dp308
g11
(lp309
sg13
S'android.gesture.GesturePoint'
p310
sg15
(lp311
sg17
(lp312
sg19
(lp313
sg21
I0
sba(iArchitecture
Entity
p314
(dp315
g11
(lp316
sg13
S'android.gesture.Prediction'
p317
sg15
(lp318
sg17
(lp319
sg19
(lp320
sg21
I0
sbasg36
(lp321
g303
ag310
ag317
asg21
I0
sg38
S'1330'
p322
sba(iArchitecture
Cluster
p323
(dp324
g7
(lp325
(iArchitecture
Entity
p326
(dp327
g11
(lp328
sg13
S'android.gesture.InstanceLearner'
p329
sg15
(lp330
sg17
(lp331
sg19
(lp332
sg21
I0
sba(iArchitecture
Entity
p333
(dp334
g11
(lp335
sg13
S'android.gesture.InstanceLearner$1'
p336
sg15
(lp337
sg17
(lp338
sg19
(lp339
sg21
I0
sba(iArchitecture
Entity
p340
(dp341
g11
(lp342
sg13
S'android.gesture.Learner'
p343
sg15
(lp344
sg17
(lp345
sg19
(lp346
sg21
I0
sba(iArchitecture
Entity
p347
(dp348
g11
(lp349
sg13
S'android.gesture.OrientedBoundingBox'
p350
sg15
(lp351
sg17
(lp352
sg19
(lp353
sg21
I0
sbasg36
(lp354
g329
ag336
ag343
ag350
asg21
I0
sg38
S'1384'
p355
sba(iArchitecture
Cluster
p356
(dp357
g7
(lp358
(iArchitecture
Entity
p359
(dp360
g11
(lp361
sg13
S'android.gesture.Instance'
p362
sg15
(lp363
sg17
(lp364
sg19
(lp365
sg21
I0
sbasg36
(lp366
g362
asg21
I0
sg38
S'223'
p367
sba(iArchitecture
Cluster
p368
(dp369
g7
(lp370
(iArchitecture
Entity
p371
(dp372
g11
(lp373
sg13
S'android.gesture.GestureUtils'
p374
sg15
(lp375
sg17
(lp376
sg19
(lp377
sg21
I0
sbasg36
(lp378
g374
asg21
I0
sg38
S'32'
p379
sba(iArchitecture
Cluster
p380
(dp381
g7
(lp382
(iArchitecture
Entity
p383
(dp384
g11
(lp385
sg13
S'android.gesture.GestureStroke'
p386
sg15
(lp387
sg17
(lp388
sg19
(lp389
sg21
I0
sbasg36
(lp390
g386
asg21
I0
sg38
S'36'
p391
sba(iArchitecture
Cluster
p392
(dp393
g7
(lp394
(iArchitecture
Entity
p395
(dp396
g11
(lp397
sg13
S'android.gesture.GestureLibrary'
p398
sg15
(lp399
sg17
(lp400
sg19
(lp401
sg21
I0
sbasg36
(lp402
g398
asg21
I0
sg38
S'413'
p403
sba(iArchitecture
Cluster
p404
(dp405
g7
(lp406
(iArchitecture
Entity
p407
(dp408
g11
(lp409
sg13
S'android.gesture.GestureLibraries'
p410
sg15
(lp411
sg17
(lp412
sg19
(lp413
sg21
I0
sba(iArchitecture
Entity
p414
(dp415
g11
(lp416
sg13
S'android.gesture.GestureLibraries$FileGestureLibrary'
p417
sg15
(lp418
sg17
(lp419
sg19
(lp420
sg21
I0
sba(iArchitecture
Entity
p421
(dp422
g11
(lp423
sg13
S'android.gesture.GestureLibraries$ResourceGestureLibrary'
p424
sg15
(lp425
sg17
(lp426
sg19
(lp427
sg21
I0
sbasg36
(lp428
g410
ag417
ag424
asg21
I0
sg38
S'909'
p429
sbasg223
g224
sg36
(lp430
sg226
I00
sg38
S'7.0.0_r1'
p431
sba.