(lp0
(iArchitecture
Architecture
p1
(dp2
S'clusters'
p3
(lp4
(iArchitecture
Cluster
p5
(dp6
S'entities'
p7
(lp8
(iArchitecture
Entity
p9
(dp10
S'issue_ids'
p11
(lp12
sS'name'
p13
S'android.app.ApplicationErrorReport'
p14
sS'descs'
p15
(lp16
sS'labels'
p17
(lp18
sS'titles'
p19
(lp20
sS'change'
p21
I0
sba(iArchitecture
Entity
p22
(dp23
g11
(lp24
sg13
S'android.app.ApplicationErrorReport$1'
p25
sg15
(lp26
sg17
(lp27
sg19
(lp28
sg21
I0
sba(iArchitecture
Entity
p29
(dp30
g11
(lp31
sg13
S'android.app.ApplicationErrorReport$AnrInfo'
p32
sg15
(lp33
sg17
(lp34
sg19
(lp35
sg21
I0
sba(iArchitecture
Entity
p36
(dp37
g11
(lp38
sg13
S'android.app.ApplicationErrorReport$BatteryInfo'
p39
sg15
(lp40
sg17
(lp41
sg19
(lp42
sg21
I0
sba(iArchitecture
Entity
p43
(dp44
g11
(lp45
sg13
S'android.app.ApplicationErrorReport$CrashInfo'
p46
sg15
(lp47
sg17
(lp48
sg19
(lp49
sg21
I0
sba(iArchitecture
Entity
p50
(dp51
g11
(lp52
sg13
S'android.app.ApplicationErrorReport$RunningServiceInfo'
p53
sg15
(lp54
sg17
(lp55
sg19
(lp56
sg21
I0
sbasS'classes'
p57
(lp58
g14
ag25
ag32
ag39
ag46
ag53
asg21
I0
sS'label'
p59
S'1003'
p60
sba(iArchitecture
Cluster
p61
(dp62
g7
(lp63
(iArchitecture
Entity
p64
(dp65
g11
(lp66
sg13
S'android.app.ActionBar'
p67
sg15
(lp68
sg17
(lp69
sg19
(lp70
sg21
I0
sba(iArchitecture
Entity
p71
(dp72
g11
(lp73
sg13
S'android.app.ActionBar$LayoutParams'
p74
sg15
(lp75
sg17
(lp76
sg19
(lp77
sg21
I0
sba(iArchitecture
Entity
p78
(dp79
g11
(lp80
sg13
S'android.app.ActionBar$OnMenuVisibilityListener'
p81
sg15
(lp82
sg17
(lp83
sg19
(lp84
sg21
I0
sba(iArchitecture
Entity
p85
(dp86
g11
(lp87
sg13
S'android.app.ActionBar$OnNavigationListener'
p88
sg15
(lp89
sg17
(lp90
sg19
(lp91
sg21
I0
sba(iArchitecture
Entity
p92
(dp93
g11
(lp94
sg13
S'android.app.ActionBar$Tab'
p95
sg15
(lp96
sg17
(lp97
sg19
(lp98
sg21
I0
sba(iArchitecture
Entity
p99
(dp100
g11
(lp101
sg13
S'android.app.ActionBar$TabListener'
p102
sg15
(lp103
sg17
(lp104
sg19
(lp105
sg21
I0
sbasg57
(lp106
g67
ag74
ag81
ag88
ag95
ag102
asg21
I0
sg59
S'1030'
p107
sba(iArchitecture
Cluster
p108
(dp109
g7
(lp110
(iArchitecture
Entity
p111
(dp112
g11
(lp113
sg13
S'android.app.AppOpsManager'
p114
sg15
(lp115
sg17
(lp116
sg19
(lp117
sg21
I0
sba(iArchitecture
Entity
p118
(dp119
g11
(lp120
sg13
S'android.app.AppOpsManager$1'
p121
sg15
(lp122
sg17
(lp123
sg19
(lp124
sg21
I0
sba(iArchitecture
Entity
p125
(dp126
g11
(lp127
sg13
S'android.app.AppOpsManager$OnOpChangedInternalListener'
p128
sg15
(lp129
sg17
(lp130
sg19
(lp131
sg21
I0
sba(iArchitecture
Entity
p132
(dp133
g11
(lp134
sg13
S'android.app.AppOpsManager$OnOpChangedListener'
p135
sg15
(lp136
sg17
(lp137
sg19
(lp138
sg21
I0
sba(iArchitecture
Entity
p139
(dp140
g11
(lp141
sg13
S'android.app.AppOpsManager$OpEntry'
p142
sg15
(lp143
sg17
(lp144
sg19
(lp145
sg21
I0
sba(iArchitecture
Entity
p146
(dp147
g11
(lp148
sg13
S'android.app.AppOpsManager$OpEntry$1'
p149
sg15
(lp150
sg17
(lp151
sg19
(lp152
sg21
I0
sba(iArchitecture
Entity
p153
(dp154
g11
(lp155
sg13
S'android.app.AppOpsManager$PackageOps'
p156
sg15
(lp157
sg17
(lp158
sg19
(lp159
sg21
I0
sba(iArchitecture
Entity
p160
(dp161
g11
(lp162
sg13
S'android.app.AppOpsManager$PackageOps$1'
p163
sg15
(lp164
sg17
(lp165
sg19
(lp166
sg21
I0
sbasg57
(lp167
g114
ag121
ag128
ag135
ag142
ag149
ag156
ag163
asg21
I0
sg59
S'1032'
p168
sba(iArchitecture
Cluster
p169
(dp170
g7
(lp171
(iArchitecture
Entity
p172
(dp173
g11
(lp174
sg13
S'android.app.ActivityView'
p175
sg15
(lp176
sg17
(lp177
sg19
(lp178
sg21
I0
sba(iArchitecture
Entity
p179
(dp180
g11
(lp181
sg13
S'android.app.ActivityView$1'
p182
sg15
(lp183
sg17
(lp184
sg19
(lp185
sg21
I0
sba(iArchitecture
Entity
p186
(dp187
g11
(lp188
sg13
S'android.app.ActivityView$ActivityContainerCallback'
p189
sg15
(lp190
sg17
(lp191
sg19
(lp192
sg21
I0
sba(iArchitecture
Entity
p193
(dp194
g11
(lp195
sg13
S'android.app.ActivityView$ActivityContainerCallback$1'
p196
sg15
(lp197
sg17
(lp198
sg19
(lp199
sg21
I0
sba(iArchitecture
Entity
p200
(dp201
g11
(lp202
sg13
S'android.app.ActivityView$ActivityContainerWrapper'
p203
sg15
(lp204
sg17
(lp205
sg19
(lp206
sg21
I0
sba(iArchitecture
Entity
p207
(dp208
g11
(lp209
sg13
S'android.app.ActivityView$ActivityViewCallback'
p210
sg15
(lp211
sg17
(lp212
sg19
(lp213
sg21
I0
sba(iArchitecture
Entity
p214
(dp215
g11
(lp216
sg13
S'android.app.ActivityView$ActivityViewSurfaceTextureListener'
p217
sg15
(lp218
sg17
(lp219
sg19
(lp220
sg21
I0
sbasg57
(lp221
g175
ag182
ag189
ag196
ag203
ag210
ag217
asg21
I0
sg59
S'1042'
p222
sba(iArchitecture
Cluster
p223
(dp224
g7
(lp225
(iArchitecture
Entity
p226
(dp227
g11
(lp228
sg13
S'android.app.SharedPreferencesImpl'
p229
sg15
(lp230
sg17
(lp231
sg19
(lp232
sg21
I0
sba(iArchitecture
Entity
p233
(dp234
g11
(lp235
sg13
S'android.app.SharedPreferencesImpl$1'
p236
sg15
(lp237
sg17
(lp238
sg19
(lp239
sg21
I0
sba(iArchitecture
Entity
p240
(dp241
g11
(lp242
sg13
S'android.app.SharedPreferencesImpl$2'
p243
sg15
(lp244
sg17
(lp245
sg19
(lp246
sg21
I0
sba(iArchitecture
Entity
p247
(dp248
g11
(lp249
sg13
S'android.app.SharedPreferencesImpl$EditorImpl'
p250
sg15
(lp251
sg17
(lp252
sg19
(lp253
sg21
I0
sba(iArchitecture
Entity
p254
(dp255
g11
(lp256
sg13
S'android.app.SharedPreferencesImpl$EditorImpl$1'
p257
sg15
(lp258
sg17
(lp259
sg19
(lp260
sg21
I0
sba(iArchitecture
Entity
p261
(dp262
g11
(lp263
sg13
S'android.app.SharedPreferencesImpl$EditorImpl$2'
p264
sg15
(lp265
sg17
(lp266
sg19
(lp267
sg21
I0
sba(iArchitecture
Entity
p268
(dp269
g11
(lp270
sg13
S'android.app.SharedPreferencesImpl$EditorImpl$3'
p271
sg15
(lp272
sg17
(lp273
sg19
(lp274
sg21
I0
sba(iArchitecture
Entity
p275
(dp276
g11
(lp277
sg13
S'android.app.SharedPreferencesImpl$MemoryCommitResult'
p278
sg15
(lp279
sg17
(lp280
sg19
(lp281
sg21
I0
sbasg57
(lp282
g229
ag236
ag243
ag250
ag257
ag264
ag271
ag278
asg21
I0
sg59
S'1047'
p283
sba(iArchitecture
Cluster
p284
(dp285
g7
(lp286
(iArchitecture
Entity
p287
(dp288
g11
(lp289
sg13
S'android.app.Instrumentation'
p290
sg15
(lp291
sg17
(lp292
sg19
(lp293
sg21
I0
sba(iArchitecture
Entity
p294
(dp295
g11
(lp296
sg13
S'android.app.Instrumentation$1ContextMenuRunnable'
p297
sg15
(lp298
sg17
(lp299
sg19
(lp300
sg21
I0
sba(iArchitecture
Entity
p301
(dp302
g11
(lp303
sg13
S'android.app.Instrumentation$1MenuRunnable'
p304
sg15
(lp305
sg17
(lp306
sg19
(lp307
sg21
I0
sba(iArchitecture
Entity
p308
(dp309
g11
(lp310
sg13
S'android.app.Instrumentation$ActivityGoing'
p311
sg15
(lp312
sg17
(lp313
sg19
(lp314
sg21
I0
sba(iArchitecture
Entity
p315
(dp316
g11
(lp317
sg13
S'android.app.Instrumentation$ActivityMonitor'
p318
sg15
(lp319
sg17
(lp320
sg19
(lp321
sg21
I0
sba(iArchitecture
Entity
p322
(dp323
g11
(lp324
sg13
S'android.app.Instrumentation$ActivityResult'
p325
sg15
(lp326
sg17
(lp327
sg19
(lp328
sg21
I0
sba(iArchitecture
Entity
p329
(dp330
g11
(lp331
sg13
S'android.app.Instrumentation$ActivityWaiter'
p332
sg15
(lp333
sg17
(lp334
sg19
(lp335
sg21
I0
sba(iArchitecture
Entity
p336
(dp337
g11
(lp338
sg13
S'android.app.Instrumentation$EmptyRunnable'
p339
sg15
(lp340
sg17
(lp341
sg19
(lp342
sg21
I0
sba(iArchitecture
Entity
p343
(dp344
g11
(lp345
sg13
S'android.app.Instrumentation$Idler'
p346
sg15
(lp347
sg17
(lp348
sg19
(lp349
sg21
I0
sba(iArchitecture
Entity
p350
(dp351
g11
(lp352
sg13
S'android.app.Instrumentation$InstrumentationThread'
p353
sg15
(lp354
sg17
(lp355
sg19
(lp356
sg21
I0
sba(iArchitecture
Entity
p357
(dp358
g11
(lp359
sg13
S'android.app.Instrumentation$SyncRunnable'
p360
sg15
(lp361
sg17
(lp362
sg19
(lp363
sg21
I0
sbasg57
(lp364
g290
ag297
ag304
ag311
ag318
ag325
ag332
ag339
ag346
ag353
ag360
asg21
I0
sg59
S'1073'
p365
sba(iArchitecture
Cluster
p366
(dp367
g7
(lp368
(iArchitecture
Entity
p369
(dp370
g11
(lp371
sg13
S'android.app.Notification'
p372
sg15
(lp373
sg17
(lp374
sg19
(lp375
sg21
I0
sba(iArchitecture
Entity
p376
(dp377
g11
(lp378
sg13
S'android.app.Notification$1'
p379
sg15
(lp380
sg17
(lp381
sg19
(lp382
sg21
I0
sba(iArchitecture
Entity
p383
(dp384
g11
(lp385
sg13
S'android.app.Notification$Action'
p386
sg15
(lp387
sg17
(lp388
sg19
(lp389
sg21
I0
sba(iArchitecture
Entity
p390
(dp391
g11
(lp392
sg13
S'android.app.Notification$Action$1'
p393
sg15
(lp394
sg17
(lp395
sg19
(lp396
sg21
I0
sba(iArchitecture
Entity
p397
(dp398
g11
(lp399
sg13
S'android.app.Notification$Action$Builder'
p400
sg15
(lp401
sg17
(lp402
sg19
(lp403
sg21
I0
sba(iArchitecture
Entity
p404
(dp405
g11
(lp406
sg13
S'android.app.Notification$Action$Extender'
p407
sg15
(lp408
sg17
(lp409
sg19
(lp410
sg21
I0
sba(iArchitecture
Entity
p411
(dp412
g11
(lp413
sg13
S'android.app.Notification$Action$WearableExtender'
p414
sg15
(lp415
sg17
(lp416
sg19
(lp417
sg21
I0
sba(iArchitecture
Entity
p418
(dp419
g11
(lp420
sg13
S'android.app.Notification$BigPictureStyle'
p421
sg15
(lp422
sg17
(lp423
sg19
(lp424
sg21
I0
sba(iArchitecture
Entity
p425
(dp426
g11
(lp427
sg13
S'android.app.Notification$BigTextStyle'
p428
sg15
(lp429
sg17
(lp430
sg19
(lp431
sg21
I0
sba(iArchitecture
Entity
p432
(dp433
g11
(lp434
sg13
S'android.app.Notification$Builder'
p435
sg15
(lp436
sg17
(lp437
sg19
(lp438
sg21
I0
sba(iArchitecture
Entity
p439
(dp440
g11
(lp441
sg13
S'android.app.Notification$BuilderRemoteViews'
p442
sg15
(lp443
sg17
(lp444
sg19
(lp445
sg21
I0
sba(iArchitecture
Entity
p446
(dp447
g11
(lp448
sg13
S'android.app.Notification$CarExtender'
p449
sg15
(lp450
sg17
(lp451
sg19
(lp452
sg21
I0
sba(iArchitecture
Entity
p453
(dp454
g11
(lp455
sg13
S'android.app.Notification$CarExtender$Builder'
p456
sg15
(lp457
sg17
(lp458
sg19
(lp459
sg21
I0
sba(iArchitecture
Entity
p460
(dp461
g11
(lp462
sg13
S'android.app.Notification$CarExtender$UnreadConversation'
p463
sg15
(lp464
sg17
(lp465
sg19
(lp466
sg21
I0
sba(iArchitecture
Entity
p467
(dp468
g11
(lp469
sg13
S'android.app.Notification$Extender'
p470
sg15
(lp471
sg17
(lp472
sg19
(lp473
sg21
I0
sba(iArchitecture
Entity
p474
(dp475
g11
(lp476
sg13
S'android.app.Notification$InboxStyle'
p477
sg15
(lp478
sg17
(lp479
sg19
(lp480
sg21
I0
sba(iArchitecture
Entity
p481
(dp482
g11
(lp483
sg13
S'android.app.Notification$MediaStyle'
p484
sg15
(lp485
sg17
(lp486
sg19
(lp487
sg21
I0
sba(iArchitecture
Entity
p488
(dp489
g11
(lp490
sg13
S'android.app.Notification$Style'
p491
sg15
(lp492
sg17
(lp493
sg19
(lp494
sg21
I0
sba(iArchitecture
Entity
p495
(dp496
g11
(lp497
sg13
S'android.app.Notification$WearableExtender'
p498
sg15
(lp499
sg17
(lp500
sg19
(lp501
sg21
I0
sbasg57
(lp502
g372
ag379
ag386
ag393
ag400
ag407
ag414
ag421
ag428
ag435
ag442
ag449
ag456
ag463
ag470
ag477
ag484
ag491
ag498
asg21
I0
sg59
S'1088'
p503
sba(iArchitecture
Cluster
p504
(dp505
g7
(lp506
(iArchitecture
Entity
p507
(dp508
g11
(lp509
sg13
S'android.app.SystemServiceRegistry'
p510
sg15
(lp511
sg17
(lp512
sg19
(lp513
sg21
I0
sba(iArchitecture
Entity
p514
(dp515
g11
(lp516
sg13
S'android.app.SystemServiceRegistry$1'
p517
sg15
(lp518
sg17
(lp519
sg19
(lp520
sg21
I0
sba(iArchitecture
Entity
p521
(dp522
g11
(lp523
sg13
S'android.app.SystemServiceRegistry$10'
p524
sg15
(lp525
sg17
(lp526
sg19
(lp527
sg21
I0
sba(iArchitecture
Entity
p528
(dp529
g11
(lp530
sg13
S'android.app.SystemServiceRegistry$11'
p531
sg15
(lp532
sg17
(lp533
sg19
(lp534
sg21
I0
sba(iArchitecture
Entity
p535
(dp536
g11
(lp537
sg13
S'android.app.SystemServiceRegistry$12'
p538
sg15
(lp539
sg17
(lp540
sg19
(lp541
sg21
I0
sba(iArchitecture
Entity
p542
(dp543
g11
(lp544
sg13
S'android.app.SystemServiceRegistry$13'
p545
sg15
(lp546
sg17
(lp547
sg19
(lp548
sg21
I0
sba(iArchitecture
Entity
p549
(dp550
g11
(lp551
sg13
S'android.app.SystemServiceRegistry$14'
p552
sg15
(lp553
sg17
(lp554
sg19
(lp555
sg21
I0
sba(iArchitecture
Entity
p556
(dp557
g11
(lp558
sg13
S'android.app.SystemServiceRegistry$15'
p559
sg15
(lp560
sg17
(lp561
sg19
(lp562
sg21
I0
sba(iArchitecture
Entity
p563
(dp564
g11
(lp565
sg13
S'android.app.SystemServiceRegistry$16'
p566
sg15
(lp567
sg17
(lp568
sg19
(lp569
sg21
I0
sba(iArchitecture
Entity
p570
(dp571
g11
(lp572
sg13
S'android.app.SystemServiceRegistry$17'
p573
sg15
(lp574
sg17
(lp575
sg19
(lp576
sg21
I0
sba(iArchitecture
Entity
p577
(dp578
g11
(lp579
sg13
S'android.app.SystemServiceRegistry$18'
p580
sg15
(lp581
sg17
(lp582
sg19
(lp583
sg21
I0
sba(iArchitecture
Entity
p584
(dp585
g11
(lp586
sg13
S'android.app.SystemServiceRegistry$19'
p587
sg15
(lp588
sg17
(lp589
sg19
(lp590
sg21
I0
sba(iArchitecture
Entity
p591
(dp592
g11
(lp593
sg13
S'android.app.SystemServiceRegistry$2'
p594
sg15
(lp595
sg17
(lp596
sg19
(lp597
sg21
I0
sba(iArchitecture
Entity
p598
(dp599
g11
(lp600
sg13
S'android.app.SystemServiceRegistry$20'
p601
sg15
(lp602
sg17
(lp603
sg19
(lp604
sg21
I0
sba(iArchitecture
Entity
p605
(dp606
g11
(lp607
sg13
S'android.app.SystemServiceRegistry$21'
p608
sg15
(lp609
sg17
(lp610
sg19
(lp611
sg21
I0
sba(iArchitecture
Entity
p612
(dp613
g11
(lp614
sg13
S'android.app.SystemServiceRegistry$22'
p615
sg15
(lp616
sg17
(lp617
sg19
(lp618
sg21
I0
sba(iArchitecture
Entity
p619
(dp620
g11
(lp621
sg13
S'android.app.SystemServiceRegistry$23'
p622
sg15
(lp623
sg17
(lp624
sg19
(lp625
sg21
I0
sba(iArchitecture
Entity
p626
(dp627
g11
(lp628
sg13
S'android.app.SystemServiceRegistry$24'
p629
sg15
(lp630
sg17
(lp631
sg19
(lp632
sg21
I0
sba(iArchitecture
Entity
p633
(dp634
g11
(lp635
sg13
S'android.app.SystemServiceRegistry$25'
p636
sg15
(lp637
sg17
(lp638
sg19
(lp639
sg21
I0
sba(iArchitecture
Entity
p640
(dp641
g11
(lp642
sg13
S'android.app.SystemServiceRegistry$26'
p643
sg15
(lp644
sg17
(lp645
sg19
(lp646
sg21
I0
sba(iArchitecture
Entity
p647
(dp648
g11
(lp649
sg13
S'android.app.SystemServiceRegistry$27'
p650
sg15
(lp651
sg17
(lp652
sg19
(lp653
sg21
I0
sba(iArchitecture
Entity
p654
(dp655
g11
(lp656
sg13
S'android.app.SystemServiceRegistry$28'
p657
sg15
(lp658
sg17
(lp659
sg19
(lp660
sg21
I0
sba(iArchitecture
Entity
p661
(dp662
g11
(lp663
sg13
S'android.app.SystemServiceRegistry$29'
p664
sg15
(lp665
sg17
(lp666
sg19
(lp667
sg21
I0
sba(iArchitecture
Entity
p668
(dp669
g11
(lp670
sg13
S'android.app.SystemServiceRegistry$3'
p671
sg15
(lp672
sg17
(lp673
sg19
(lp674
sg21
I0
sba(iArchitecture
Entity
p675
(dp676
g11
(lp677
sg13
S'android.app.SystemServiceRegistry$30'
p678
sg15
(lp679
sg17
(lp680
sg19
(lp681
sg21
I0
sba(iArchitecture
Entity
p682
(dp683
g11
(lp684
sg13
S'android.app.SystemServiceRegistry$31'
p685
sg15
(lp686
sg17
(lp687
sg19
(lp688
sg21
I0
sba(iArchitecture
Entity
p689
(dp690
g11
(lp691
sg13
S'android.app.SystemServiceRegistry$32'
p692
sg15
(lp693
sg17
(lp694
sg19
(lp695
sg21
I0
sba(iArchitecture
Entity
p696
(dp697
g11
(lp698
sg13
S'android.app.SystemServiceRegistry$33'
p699
sg15
(lp700
sg17
(lp701
sg19
(lp702
sg21
I0
sba(iArchitecture
Entity
p703
(dp704
g11
(lp705
sg13
S'android.app.SystemServiceRegistry$34'
p706
sg15
(lp707
sg17
(lp708
sg19
(lp709
sg21
I0
sba(iArchitecture
Entity
p710
(dp711
g11
(lp712
sg13
S'android.app.SystemServiceRegistry$35'
p713
sg15
(lp714
sg17
(lp715
sg19
(lp716
sg21
I0
sba(iArchitecture
Entity
p717
(dp718
g11
(lp719
sg13
S'android.app.SystemServiceRegistry$36'
p720
sg15
(lp721
sg17
(lp722
sg19
(lp723
sg21
I0
sba(iArchitecture
Entity
p724
(dp725
g11
(lp726
sg13
S'android.app.SystemServiceRegistry$37'
p727
sg15
(lp728
sg17
(lp729
sg19
(lp730
sg21
I0
sba(iArchitecture
Entity
p731
(dp732
g11
(lp733
sg13
S'android.app.SystemServiceRegistry$38'
p734
sg15
(lp735
sg17
(lp736
sg19
(lp737
sg21
I0
sba(iArchitecture
Entity
p738
(dp739
g11
(lp740
sg13
S'android.app.SystemServiceRegistry$39'
p741
sg15
(lp742
sg17
(lp743
sg19
(lp744
sg21
I0
sba(iArchitecture
Entity
p745
(dp746
g11
(lp747
sg13
S'android.app.SystemServiceRegistry$4'
p748
sg15
(lp749
sg17
(lp750
sg19
(lp751
sg21
I0
sba(iArchitecture
Entity
p752
(dp753
g11
(lp754
sg13
S'android.app.SystemServiceRegistry$40'
p755
sg15
(lp756
sg17
(lp757
sg19
(lp758
sg21
I0
sba(iArchitecture
Entity
p759
(dp760
g11
(lp761
sg13
S'android.app.SystemServiceRegistry$41'
p762
sg15
(lp763
sg17
(lp764
sg19
(lp765
sg21
I0
sba(iArchitecture
Entity
p766
(dp767
g11
(lp768
sg13
S'android.app.SystemServiceRegistry$42'
p769
sg15
(lp770
sg17
(lp771
sg19
(lp772
sg21
I0
sba(iArchitecture
Entity
p773
(dp774
g11
(lp775
sg13
S'android.app.SystemServiceRegistry$43'
p776
sg15
(lp777
sg17
(lp778
sg19
(lp779
sg21
I0
sba(iArchitecture
Entity
p780
(dp781
g11
(lp782
sg13
S'android.app.SystemServiceRegistry$44'
p783
sg15
(lp784
sg17
(lp785
sg19
(lp786
sg21
I0
sba(iArchitecture
Entity
p787
(dp788
g11
(lp789
sg13
S'android.app.SystemServiceRegistry$45'
p790
sg15
(lp791
sg17
(lp792
sg19
(lp793
sg21
I0
sba(iArchitecture
Entity
p794
(dp795
g11
(lp796
sg13
S'android.app.SystemServiceRegistry$46'
p797
sg15
(lp798
sg17
(lp799
sg19
(lp800
sg21
I0
sba(iArchitecture
Entity
p801
(dp802
g11
(lp803
sg13
S'android.app.SystemServiceRegistry$47'
p804
sg15
(lp805
sg17
(lp806
sg19
(lp807
sg21
I0
sba(iArchitecture
Entity
p808
(dp809
g11
(lp810
sg13
S'android.app.SystemServiceRegistry$48'
p811
sg15
(lp812
sg17
(lp813
sg19
(lp814
sg21
I0
sba(iArchitecture
Entity
p815
(dp816
g11
(lp817
sg13
S'android.app.SystemServiceRegistry$49'
p818
sg15
(lp819
sg17
(lp820
sg19
(lp821
sg21
I0
sba(iArchitecture
Entity
p822
(dp823
g11
(lp824
sg13
S'android.app.SystemServiceRegistry$5'
p825
sg15
(lp826
sg17
(lp827
sg19
(lp828
sg21
I0
sba(iArchitecture
Entity
p829
(dp830
g11
(lp831
sg13
S'android.app.SystemServiceRegistry$50'
p832
sg15
(lp833
sg17
(lp834
sg19
(lp835
sg21
I0
sba(iArchitecture
Entity
p836
(dp837
g11
(lp838
sg13
S'android.app.SystemServiceRegistry$51'
p839
sg15
(lp840
sg17
(lp841
sg19
(lp842
sg21
I0
sba(iArchitecture
Entity
p843
(dp844
g11
(lp845
sg13
S'android.app.SystemServiceRegistry$52'
p846
sg15
(lp847
sg17
(lp848
sg19
(lp849
sg21
I0
sba(iArchitecture
Entity
p850
(dp851
g11
(lp852
sg13
S'android.app.SystemServiceRegistry$53'
p853
sg15
(lp854
sg17
(lp855
sg19
(lp856
sg21
I0
sba(iArchitecture
Entity
p857
(dp858
g11
(lp859
sg13
S'android.app.SystemServiceRegistry$54'
p860
sg15
(lp861
sg17
(lp862
sg19
(lp863
sg21
I0
sba(iArchitecture
Entity
p864
(dp865
g11
(lp866
sg13
S'android.app.SystemServiceRegistry$55'
p867
sg15
(lp868
sg17
(lp869
sg19
(lp870
sg21
I0
sba(iArchitecture
Entity
p871
(dp872
g11
(lp873
sg13
S'android.app.SystemServiceRegistry$56'
p874
sg15
(lp875
sg17
(lp876
sg19
(lp877
sg21
I0
sba(iArchitecture
Entity
p878
(dp879
g11
(lp880
sg13
S'android.app.SystemServiceRegistry$57'
p881
sg15
(lp882
sg17
(lp883
sg19
(lp884
sg21
I0
sba(iArchitecture
Entity
p885
(dp886
g11
(lp887
sg13
S'android.app.SystemServiceRegistry$58'
p888
sg15
(lp889
sg17
(lp890
sg19
(lp891
sg21
I0
sba(iArchitecture
Entity
p892
(dp893
g11
(lp894
sg13
S'android.app.SystemServiceRegistry$59'
p895
sg15
(lp896
sg17
(lp897
sg19
(lp898
sg21
I0
sba(iArchitecture
Entity
p899
(dp900
g11
(lp901
sg13
S'android.app.SystemServiceRegistry$6'
p902
sg15
(lp903
sg17
(lp904
sg19
(lp905
sg21
I0
sba(iArchitecture
Entity
p906
(dp907
g11
(lp908
sg13
S'android.app.SystemServiceRegistry$60'
p909
sg15
(lp910
sg17
(lp911
sg19
(lp912
sg21
I0
sba(iArchitecture
Entity
p913
(dp914
g11
(lp915
sg13
S'android.app.SystemServiceRegistry$61'
p916
sg15
(lp917
sg17
(lp918
sg19
(lp919
sg21
I0
sba(iArchitecture
Entity
p920
(dp921
g11
(lp922
sg13
S'android.app.SystemServiceRegistry$62'
p923
sg15
(lp924
sg17
(lp925
sg19
(lp926
sg21
I0
sba(iArchitecture
Entity
p927
(dp928
g11
(lp929
sg13
S'android.app.SystemServiceRegistry$63'
p930
sg15
(lp931
sg17
(lp932
sg19
(lp933
sg21
I0
sba(iArchitecture
Entity
p934
(dp935
g11
(lp936
sg13
S'android.app.SystemServiceRegistry$64'
p937
sg15
(lp938
sg17
(lp939
sg19
(lp940
sg21
I0
sba(iArchitecture
Entity
p941
(dp942
g11
(lp943
sg13
S'android.app.SystemServiceRegistry$65'
p944
sg15
(lp945
sg17
(lp946
sg19
(lp947
sg21
I0
sba(iArchitecture
Entity
p948
(dp949
g11
(lp950
sg13
S'android.app.SystemServiceRegistry$66'
p951
sg15
(lp952
sg17
(lp953
sg19
(lp954
sg21
I0
sba(iArchitecture
Entity
p955
(dp956
g11
(lp957
sg13
S'android.app.SystemServiceRegistry$67'
p958
sg15
(lp959
sg17
(lp960
sg19
(lp961
sg21
I0
sba(iArchitecture
Entity
p962
(dp963
g11
(lp964
sg13
S'android.app.SystemServiceRegistry$68'
p965
sg15
(lp966
sg17
(lp967
sg19
(lp968
sg21
I0
sba(iArchitecture
Entity
p969
(dp970
g11
(lp971
sg13
S'android.app.SystemServiceRegistry$7'
p972
sg15
(lp973
sg17
(lp974
sg19
(lp975
sg21
I0
sba(iArchitecture
Entity
p976
(dp977
g11
(lp978
sg13
S'android.app.SystemServiceRegistry$8'
p979
sg15
(lp980
sg17
(lp981
sg19
(lp982
sg21
I0
sba(iArchitecture
Entity
p983
(dp984
g11
(lp985
sg13
S'android.app.SystemServiceRegistry$9'
p986
sg15
(lp987
sg17
(lp988
sg19
(lp989
sg21
I0
sba(iArchitecture
Entity
p990
(dp991
g11
(lp992
sg13
S'android.app.SystemServiceRegistry$CachedServiceFetcher'
p993
sg15
(lp994
sg17
(lp995
sg19
(lp996
sg21
I0
sba(iArchitecture
Entity
p997
(dp998
g11
(lp999
sg13
S'android.app.SystemServiceRegistry$ServiceFetcher'
p1000
sg15
(lp1001
sg17
(lp1002
sg19
(lp1003
sg21
I0
sba(iArchitecture
Entity
p1004
(dp1005
g11
(lp1006
sg13
S'android.app.SystemServiceRegistry$StaticOuterContextServiceFetcher'
p1007
sg15
(lp1008
sg17
(lp1009
sg19
(lp1010
sg21
I0
sba(iArchitecture
Entity
p1011
(dp1012
g11
(lp1013
sg13
S'android.app.SystemServiceRegistry$StaticServiceFetcher'
p1014
sg15
(lp1015
sg17
(lp1016
sg19
(lp1017
sg21
I0
sbasg57
(lp1018
g510
ag517
ag524
ag531
ag538
ag545
ag552
ag559
ag566
ag573
ag580
ag587
ag594
ag601
ag608
ag615
ag622
ag629
ag636
ag643
ag650
ag657
ag664
ag671
ag678
ag685
ag692
ag699
ag706
ag713
ag720
ag727
ag734
ag741
ag748
ag755
ag762
ag769
ag776
ag783
ag790
ag797
ag804
ag811
ag818
ag825
ag832
ag839
ag846
ag853
ag860
ag867
ag874
ag881
ag888
ag895
ag902
ag909
ag916
ag923
ag930
ag937
ag944
ag951
ag958
ag965
ag972
ag979
ag986
ag993
ag1000
ag1007
ag1014
asg21
I0
sg59
S'1099'
p1019
sba(iArchitecture
Cluster
p1020
(dp1021
g7
(lp1022
(iArchitecture
Entity
p1023
(dp1024
g11
(lp1025
sg13
S'android.app.backup.RestoreDescription'
p1026
sg15
(lp1027
sg17
(lp1028
sg19
(lp1029
sg21
I0
sba(iArchitecture
Entity
p1030
(dp1031
g11
(lp1032
sg13
S'android.app.backup.RestoreDescription$1'
p1033
sg15
(lp1034
sg17
(lp1035
sg19
(lp1036
sg21
I0
sbasg57
(lp1037
g1026
ag1033
asg21
I0
sg59
S'1125'
p1038
sba(iArchitecture
Cluster
p1039
(dp1040
g7
(lp1041
(iArchitecture
Entity
p1042
(dp1043
g11
(lp1044
sg13
S'android.app.ActivityTransitionCoordinator'
p1045
sg15
(lp1046
sg17
(lp1047
sg19
(lp1048
sg21
I0
sba(iArchitecture
Entity
p1049
(dp1050
g11
(lp1051
sg13
S'android.app.ActivityTransitionCoordinator$1'
p1052
sg15
(lp1053
sg17
(lp1054
sg19
(lp1055
sg21
I0
sba(iArchitecture
Entity
p1056
(dp1057
g11
(lp1058
sg13
S'android.app.ActivityTransitionCoordinator$2'
p1059
sg15
(lp1060
sg17
(lp1061
sg19
(lp1062
sg21
I0
sba(iArchitecture
Entity
p1063
(dp1064
g11
(lp1065
sg13
S'android.app.ActivityTransitionCoordinator$ContinueTransitionListener'
p1066
sg15
(lp1067
sg17
(lp1068
sg19
(lp1069
sg21
I0
sba(iArchitecture
Entity
p1070
(dp1071
g11
(lp1072
sg13
S'android.app.ActivityTransitionCoordinator$FixedEpicenterCallback'
p1073
sg15
(lp1074
sg17
(lp1075
sg19
(lp1076
sg21
I0
sba(iArchitecture
Entity
p1077
(dp1078
g11
(lp1079
sg13
S'android.app.ActivityTransitionCoordinator$GhostViewListeners'
p1080
sg15
(lp1081
sg17
(lp1082
sg19
(lp1083
sg21
I0
sba(iArchitecture
Entity
p1084
(dp1085
g11
(lp1086
sg13
S'android.app.ActivityTransitionCoordinator$SharedElementOriginalState'
p1087
sg15
(lp1088
sg17
(lp1089
sg19
(lp1090
sg21
I0
sba(iArchitecture
Entity
p1091
(dp1092
g11
(lp1093
sg13
S'android.app.EnterTransitionCoordinator'
p1094
sg15
(lp1095
sg17
(lp1096
sg19
(lp1097
sg21
I0
sba(iArchitecture
Entity
p1098
(dp1099
g11
(lp1100
sg13
S'android.app.EnterTransitionCoordinator$1'
p1101
sg15
(lp1102
sg17
(lp1103
sg19
(lp1104
sg21
I0
sba(iArchitecture
Entity
p1105
(dp1106
g11
(lp1107
sg13
S'android.app.EnterTransitionCoordinator$10'
p1108
sg15
(lp1109
sg17
(lp1110
sg19
(lp1111
sg21
I0
sba(iArchitecture
Entity
p1112
(dp1113
g11
(lp1114
sg13
S'android.app.EnterTransitionCoordinator$11'
p1115
sg15
(lp1116
sg17
(lp1117
sg19
(lp1118
sg21
I0
sba(iArchitecture
Entity
p1119
(dp1120
g11
(lp1121
sg13
S'android.app.EnterTransitionCoordinator$2'
p1122
sg15
(lp1123
sg17
(lp1124
sg19
(lp1125
sg21
I0
sba(iArchitecture
Entity
p1126
(dp1127
g11
(lp1128
sg13
S'android.app.EnterTransitionCoordinator$3'
p1129
sg15
(lp1130
sg17
(lp1131
sg19
(lp1132
sg21
I0
sba(iArchitecture
Entity
p1133
(dp1134
g11
(lp1135
sg13
S'android.app.EnterTransitionCoordinator$4'
p1136
sg15
(lp1137
sg17
(lp1138
sg19
(lp1139
sg21
I0
sba(iArchitecture
Entity
p1140
(dp1141
g11
(lp1142
sg13
S'android.app.EnterTransitionCoordinator$5'
p1143
sg15
(lp1144
sg17
(lp1145
sg19
(lp1146
sg21
I0
sba(iArchitecture
Entity
p1147
(dp1148
g11
(lp1149
sg13
S'android.app.EnterTransitionCoordinator$5$1'
p1150
sg15
(lp1151
sg17
(lp1152
sg19
(lp1153
sg21
I0
sba(iArchitecture
Entity
p1154
(dp1155
g11
(lp1156
sg13
S'android.app.EnterTransitionCoordinator$5$1$1'
p1157
sg15
(lp1158
sg17
(lp1159
sg19
(lp1160
sg21
I0
sba(iArchitecture
Entity
p1161
(dp1162
g11
(lp1163
sg13
S'android.app.EnterTransitionCoordinator$6'
p1164
sg15
(lp1165
sg17
(lp1166
sg19
(lp1167
sg21
I0
sba(iArchitecture
Entity
p1168
(dp1169
g11
(lp1170
sg13
S'android.app.EnterTransitionCoordinator$7'
p1171
sg15
(lp1172
sg17
(lp1173
sg19
(lp1174
sg21
I0
sba(iArchitecture
Entity
p1175
(dp1176
g11
(lp1177
sg13
S'android.app.EnterTransitionCoordinator$8'
p1178
sg15
(lp1179
sg17
(lp1180
sg19
(lp1181
sg21
I0
sba(iArchitecture
Entity
p1182
(dp1183
g11
(lp1184
sg13
S'android.app.EnterTransitionCoordinator$9'
p1185
sg15
(lp1186
sg17
(lp1187
sg19
(lp1188
sg21
I0
sba(iArchitecture
Entity
p1189
(dp1190
g11
(lp1191
sg13
S'android.app.ExitTransitionCoordinator'
p1192
sg15
(lp1193
sg17
(lp1194
sg19
(lp1195
sg21
I0
sba(iArchitecture
Entity
p1196
(dp1197
g11
(lp1198
sg13
S'android.app.ExitTransitionCoordinator$1'
p1199
sg15
(lp1200
sg17
(lp1201
sg19
(lp1202
sg21
I0
sba(iArchitecture
Entity
p1203
(dp1204
g11
(lp1205
sg13
S'android.app.ExitTransitionCoordinator$10'
p1206
sg15
(lp1207
sg17
(lp1208
sg19
(lp1209
sg21
I0
sba(iArchitecture
Entity
p1210
(dp1211
g11
(lp1212
sg13
S'android.app.ExitTransitionCoordinator$11'
p1213
sg15
(lp1214
sg17
(lp1215
sg19
(lp1216
sg21
I0
sba(iArchitecture
Entity
p1217
(dp1218
g11
(lp1219
sg13
S'android.app.ExitTransitionCoordinator$2'
p1220
sg15
(lp1221
sg17
(lp1222
sg19
(lp1223
sg21
I0
sba(iArchitecture
Entity
p1224
(dp1225
g11
(lp1226
sg13
S'android.app.ExitTransitionCoordinator$3'
p1227
sg15
(lp1228
sg17
(lp1229
sg19
(lp1230
sg21
I0
sba(iArchitecture
Entity
p1231
(dp1232
g11
(lp1233
sg13
S'android.app.ExitTransitionCoordinator$4'
p1234
sg15
(lp1235
sg17
(lp1236
sg19
(lp1237
sg21
I0
sba(iArchitecture
Entity
p1238
(dp1239
g11
(lp1240
sg13
S'android.app.ExitTransitionCoordinator$5'
p1241
sg15
(lp1242
sg17
(lp1243
sg19
(lp1244
sg21
I0
sba(iArchitecture
Entity
p1245
(dp1246
g11
(lp1247
sg13
S'android.app.ExitTransitionCoordinator$6'
p1248
sg15
(lp1249
sg17
(lp1250
sg19
(lp1251
sg21
I0
sba(iArchitecture
Entity
p1252
(dp1253
g11
(lp1254
sg13
S'android.app.ExitTransitionCoordinator$7'
p1255
sg15
(lp1256
sg17
(lp1257
sg19
(lp1258
sg21
I0
sba(iArchitecture
Entity
p1259
(dp1260
g11
(lp1261
sg13
S'android.app.ExitTransitionCoordinator$8'
p1262
sg15
(lp1263
sg17
(lp1264
sg19
(lp1265
sg21
I0
sba(iArchitecture
Entity
p1266
(dp1267
g11
(lp1268
sg13
S'android.app.ExitTransitionCoordinator$9'
p1269
sg15
(lp1270
sg17
(lp1271
sg19
(lp1272
sg21
I0
sbasg57
(lp1273
g1045
ag1052
ag1059
ag1066
ag1073
ag1080
ag1087
ag1094
ag1101
ag1108
ag1115
ag1122
ag1129
ag1136
ag1143
ag1150
ag1157
ag1164
ag1171
ag1178
ag1185
ag1192
ag1199
ag1206
ag1213
ag1220
ag1227
ag1234
ag1241
ag1248
ag1255
ag1262
ag1269
asg21
I0
sg59
S'1131'
p1274
sba(iArchitecture
Cluster
p1275
(dp1276
g7
(lp1277
(iArchitecture
Entity
p1278
(dp1279
g11
(lp1280
sg13
S'android.app.UiModeManager'
p1281
sg15
(lp1282
sg17
(lp1283
sg19
(lp1284
sg21
I0
sbasg57
(lp1285
g1281
asg21
I0
sg59
S'1165'
p1286
sba(iArchitecture
Cluster
p1287
(dp1288
g7
(lp1289
(iArchitecture
Entity
p1290
(dp1291
g11
(lp1292
sg13
S'android.app.backup.BackupAgent'
p1293
sg15
(lp1294
sg17
(lp1295
sg19
(lp1296
sg21
I0
sba(iArchitecture
Entity
p1297
(dp1298
g11
(lp1299
sg13
S'android.app.backup.BackupAgent$BackupServiceBinder'
p1300
sg15
(lp1301
sg17
(lp1302
sg19
(lp1303
sg21
I0
sba(iArchitecture
Entity
p1304
(dp1305
g11
(lp1306
sg13
S'android.app.backup.BackupAgent$FailRunnable'
p1307
sg15
(lp1308
sg17
(lp1309
sg19
(lp1310
sg21
I0
sba(iArchitecture
Entity
p1311
(dp1312
g11
(lp1313
sg13
S'android.app.backup.BackupAgent$SharedPrefsSynchronizer'
p1314
sg15
(lp1315
sg17
(lp1316
sg19
(lp1317
sg21
I0
sba(iArchitecture
Entity
p1318
(dp1319
g11
(lp1320
sg13
S'android.app.backup.BackupManager'
p1321
sg15
(lp1322
sg17
(lp1323
sg19
(lp1324
sg21
I0
sba(iArchitecture
Entity
p1325
(dp1326
g11
(lp1327
sg13
S'android.app.backup.BackupTransport'
p1328
sg15
(lp1329
sg17
(lp1330
sg19
(lp1331
sg21
I0
sba(iArchitecture
Entity
p1332
(dp1333
g11
(lp1334
sg13
S'android.app.backup.BackupTransport$TransportImpl'
p1335
sg15
(lp1336
sg17
(lp1337
sg19
(lp1338
sg21
I0
sba(iArchitecture
Entity
p1339
(dp1340
g11
(lp1341
sg13
S'android.app.backup.FullBackup'
p1342
sg15
(lp1343
sg17
(lp1344
sg19
(lp1345
sg21
I0
sba(iArchitecture
Entity
p1346
(dp1347
g11
(lp1348
sg13
S'android.app.backup.FullBackup$BackupScheme'
p1349
sg15
(lp1350
sg17
(lp1351
sg19
(lp1352
sg21
I0
sba(iArchitecture
Entity
p1353
(dp1354
g11
(lp1355
sg13
S'android.app.backup.RestoreSession'
p1356
sg15
(lp1357
sg17
(lp1358
sg19
(lp1359
sg21
I0
sba(iArchitecture
Entity
p1360
(dp1361
g11
(lp1362
sg13
S'android.app.backup.RestoreSession$RestoreObserverWrapper'
p1363
sg15
(lp1364
sg17
(lp1365
sg19
(lp1366
sg21
I0
sba(iArchitecture
Entity
p1367
(dp1368
g11
(lp1369
sg13
S'android.app.backup.RestoreSession$RestoreObserverWrapper$1'
p1370
sg15
(lp1371
sg17
(lp1372
sg19
(lp1373
sg21
I0
sbasg57
(lp1374
g1293
ag1300
ag1307
ag1314
ag1321
ag1328
ag1335
ag1342
ag1349
ag1356
ag1363
ag1370
asg21
I0
sg59
S'1190'
p1375
sba(iArchitecture
Cluster
p1376
(dp1377
g7
(lp1378
(iArchitecture
Entity
p1379
(dp1380
g11
(lp1381
sg13
S'android.app.trust.TrustManager'
p1382
sg15
(lp1383
sg17
(lp1384
sg19
(lp1385
sg21
I0
sba(iArchitecture
Entity
p1386
(dp1387
g11
(lp1388
sg13
S'android.app.trust.TrustManager$1'
p1389
sg15
(lp1390
sg17
(lp1391
sg19
(lp1392
sg21
I0
sba(iArchitecture
Entity
p1393
(dp1394
g11
(lp1395
sg13
S'android.app.trust.TrustManager$2'
p1396
sg15
(lp1397
sg17
(lp1398
sg19
(lp1399
sg21
I0
sba(iArchitecture
Entity
p1400
(dp1401
g11
(lp1402
sg13
S'android.app.trust.TrustManager$TrustListener'
p1403
sg15
(lp1404
sg17
(lp1405
sg19
(lp1406
sg21
I0
sba(iArchitecture
Entity
p1407
(dp1408
g11
(lp1409
sg13
S'android.app.usage.UsageStatsManagerInternal'
p1410
sg15
(lp1411
sg17
(lp1412
sg19
(lp1413
sg21
I0
sba(iArchitecture
Entity
p1414
(dp1415
g11
(lp1416
sg13
S'android.app.usage.UsageStatsManagerInternal$AppIdleStateChangeListener'
p1417
sg15
(lp1418
sg17
(lp1419
sg19
(lp1420
sg21
I0
sbasg57
(lp1421
g1382
ag1389
ag1396
ag1403
ag1410
ag1417
asg21
I0
sg59
S'1199'
p1422
sba(iArchitecture
Cluster
p1423
(dp1424
g7
(lp1425
(iArchitecture
Entity
p1426
(dp1427
g11
(lp1428
sg13
S'android.app.PendingIntent'
p1429
sg15
(lp1430
sg17
(lp1431
sg19
(lp1432
sg21
I0
sba(iArchitecture
Entity
p1433
(dp1434
g11
(lp1435
sg13
S'android.app.PendingIntent$1'
p1436
sg15
(lp1437
sg17
(lp1438
sg19
(lp1439
sg21
I0
sba(iArchitecture
Entity
p1440
(dp1441
g11
(lp1442
sg13
S'android.app.PendingIntent$CanceledException'
p1443
sg15
(lp1444
sg17
(lp1445
sg19
(lp1446
sg21
I0
sba(iArchitecture
Entity
p1447
(dp1448
g11
(lp1449
sg13
S'android.app.PendingIntent$FinishedDispatcher'
p1450
sg15
(lp1451
sg17
(lp1452
sg19
(lp1453
sg21
I0
sba(iArchitecture
Entity
p1454
(dp1455
g11
(lp1456
sg13
S'android.app.PendingIntent$OnFinished'
p1457
sg15
(lp1458
sg17
(lp1459
sg19
(lp1460
sg21
I0
sbasg57
(lp1461
g1429
ag1436
ag1443
ag1450
ag1457
asg21
I0
sg59
S'1202'
p1462
sba(iArchitecture
Cluster
p1463
(dp1464
g7
(lp1465
(iArchitecture
Entity
p1466
(dp1467
g11
(lp1468
sg13
S'android.app.MediaRouteActionProvider'
p1469
sg15
(lp1470
sg17
(lp1471
sg19
(lp1472
sg21
I0
sba(iArchitecture
Entity
p1473
(dp1474
g11
(lp1475
sg13
S'android.app.MediaRouteActionProvider$MediaRouterCallback'
p1476
sg15
(lp1477
sg17
(lp1478
sg19
(lp1479
sg21
I0
sba(iArchitecture
Entity
p1480
(dp1481
g11
(lp1482
sg13
S'android.app.MediaRouteButton'
p1483
sg15
(lp1484
sg17
(lp1485
sg19
(lp1486
sg21
I0
sba(iArchitecture
Entity
p1487
(dp1488
g11
(lp1489
sg13
S'android.app.MediaRouteButton$MediaRouterCallback'
p1490
sg15
(lp1491
sg17
(lp1492
sg19
(lp1493
sg21
I0
sbasg57
(lp1494
g1469
ag1476
ag1483
ag1490
asg21
I0
sg59
S'1214'
p1495
sba(iArchitecture
Cluster
p1496
(dp1497
g7
(lp1498
(iArchitecture
Entity
p1499
(dp1500
g11
(lp1501
sg13
S'android.app.WallpaperManager'
p1502
sg15
(lp1503
sg17
(lp1504
sg19
(lp1505
sg21
I0
sba(iArchitecture
Entity
p1506
(dp1507
g11
(lp1508
sg13
S'android.app.WallpaperManager$FastBitmapDrawable'
p1509
sg15
(lp1510
sg17
(lp1511
sg19
(lp1512
sg21
I0
sba(iArchitecture
Entity
p1513
(dp1514
g11
(lp1515
sg13
S'android.app.WallpaperManager$Globals'
p1516
sg15
(lp1517
sg17
(lp1518
sg19
(lp1519
sg21
I0
sbasg57
(lp1520
g1502
ag1509
ag1516
asg21
I0
sg59
S'1220'
p1521
sba(iArchitecture
Cluster
p1522
(dp1523
g7
(lp1524
(iArchitecture
Entity
p1525
(dp1526
g11
(lp1527
sg13
S'android.app.OnActivityPausedListener'
p1528
sg15
(lp1529
sg17
(lp1530
sg19
(lp1531
sg21
I0
sba(iArchitecture
Entity
p1532
(dp1533
g11
(lp1534
sg13
S'android.app.PackageDeleteObserver'
p1535
sg15
(lp1536
sg17
(lp1537
sg19
(lp1538
sg21
I0
sba(iArchitecture
Entity
p1539
(dp1540
g11
(lp1541
sg13
S'android.app.PackageDeleteObserver$1'
p1542
sg15
(lp1543
sg17
(lp1544
sg19
(lp1545
sg21
I0
sba(iArchitecture
Entity
p1546
(dp1547
g11
(lp1548
sg13
S'android.app.backup.FullBackupAgent'
p1549
sg15
(lp1550
sg17
(lp1551
sg19
(lp1552
sg21
I0
sba(iArchitecture
Entity
p1553
(dp1554
g11
(lp1555
sg13
S'android.app.backup.RestoreObserver'
p1556
sg15
(lp1557
sg17
(lp1558
sg19
(lp1559
sg21
I0
sba(iArchitecture
Entity
p1560
(dp1561
g11
(lp1562
sg13
S'android.appwidget.AppWidgetHost'
p1563
sg15
(lp1564
sg17
(lp1565
sg19
(lp1566
sg21
I0
sba(iArchitecture
Entity
p1567
(dp1568
g11
(lp1569
sg13
S'android.appwidget.AppWidgetHost$Callbacks'
p1570
sg15
(lp1571
sg17
(lp1572
sg19
(lp1573
sg21
I0
sba(iArchitecture
Entity
p1574
(dp1575
g11
(lp1576
sg13
S'android.appwidget.AppWidgetHost$UpdateHandler'
p1577
sg15
(lp1578
sg17
(lp1579
sg19
(lp1580
sg21
I0
sba(iArchitecture
Entity
p1581
(dp1582
g11
(lp1583
sg13
S'android.appwidget.AppWidgetHostView'
p1584
sg15
(lp1585
sg17
(lp1586
sg19
(lp1587
sg21
I0
sba(iArchitecture
Entity
p1588
(dp1589
g11
(lp1590
sg13
S'android.appwidget.AppWidgetHostView$1'
p1591
sg15
(lp1592
sg17
(lp1593
sg19
(lp1594
sg21
I0
sba(iArchitecture
Entity
p1595
(dp1596
g11
(lp1597
sg13
S'android.appwidget.AppWidgetHostView$ParcelableSparseArray'
p1598
sg15
(lp1599
sg17
(lp1600
sg19
(lp1601
sg21
I0
sba(iArchitecture
Entity
p1602
(dp1603
g11
(lp1604
sg13
S'android.appwidget.AppWidgetHostView$ParcelableSparseArray$1'
p1605
sg15
(lp1606
sg17
(lp1607
sg19
(lp1608
sg21
I0
sbasg57
(lp1609
g1528
ag1535
ag1542
ag1549
ag1556
ag1563
ag1570
ag1577
ag1584
ag1591
ag1598
ag1605
asg21
I0
sg59
S'1223'
p1610
sba(iArchitecture
Cluster
p1611
(dp1612
g7
(lp1613
(iArchitecture
Entity
p1614
(dp1615
g11
(lp1616
sg13
S'android.app.Service'
p1617
sg15
(lp1618
sg17
(lp1619
sg19
(lp1620
sg21
I0
sbasg57
(lp1621
g1617
asg21
I0
sg59
S'1228'
p1622
sba(iArchitecture
Cluster
p1623
(dp1624
g7
(lp1625
(iArchitecture
Entity
p1626
(dp1627
g11
(lp1628
sg13
S'android.app.ActivityManagerInternal'
p1629
sg15
(lp1630
sg17
(lp1631
sg19
(lp1632
sg21
I0
sba(iArchitecture
Entity
p1633
(dp1634
g11
(lp1635
sg13
S'android.app.ActivityManagerInternal$SleepToken'
p1636
sg15
(lp1637
sg17
(lp1638
sg19
(lp1639
sg21
I0
sba(iArchitecture
Entity
p1640
(dp1641
g11
(lp1642
sg13
S'android.app.Dialog'
p1643
sg15
(lp1644
sg17
(lp1645
sg19
(lp1646
sg21
I0
sba(iArchitecture
Entity
p1647
(dp1648
g11
(lp1649
sg13
S'android.app.Dialog$1'
p1650
sg15
(lp1651
sg17
(lp1652
sg19
(lp1653
sg21
I0
sba(iArchitecture
Entity
p1654
(dp1655
g11
(lp1656
sg13
S'android.app.Dialog$ListenersHandler'
p1657
sg15
(lp1658
sg17
(lp1659
sg19
(lp1660
sg21
I0
sba(iArchitecture
Entity
p1661
(dp1662
g11
(lp1663
sg13
S'android.app.ExpandableListActivity'
p1664
sg15
(lp1665
sg17
(lp1666
sg19
(lp1667
sg21
I0
sba(iArchitecture
Entity
p1668
(dp1669
g11
(lp1670
sg13
S'android.app.KeyguardManager'
p1671
sg15
(lp1672
sg17
(lp1673
sg19
(lp1674
sg21
I0
sba(iArchitecture
Entity
p1675
(dp1676
g11
(lp1677
sg13
S'android.app.KeyguardManager$1'
p1678
sg15
(lp1679
sg17
(lp1680
sg19
(lp1681
sg21
I0
sba(iArchitecture
Entity
p1682
(dp1683
g11
(lp1684
sg13
S'android.app.KeyguardManager$KeyguardLock'
p1685
sg15
(lp1686
sg17
(lp1687
sg19
(lp1688
sg21
I0
sba(iArchitecture
Entity
p1689
(dp1690
g11
(lp1691
sg13
S'android.app.KeyguardManager$OnKeyguardExitResult'
p1692
sg15
(lp1693
sg17
(lp1694
sg19
(lp1695
sg21
I0
sba(iArchitecture
Entity
p1696
(dp1697
g11
(lp1698
sg13
S'android.app.LauncherActivity'
p1699
sg15
(lp1700
sg17
(lp1701
sg19
(lp1702
sg21
I0
sba(iArchitecture
Entity
p1703
(dp1704
g11
(lp1705
sg13
S'android.app.LauncherActivity$1'
p1706
sg15
(lp1707
sg17
(lp1708
sg19
(lp1709
sg21
I0
sba(iArchitecture
Entity
p1710
(dp1711
g11
(lp1712
sg13
S'android.app.LauncherActivity$ActivityAdapter'
p1713
sg15
(lp1714
sg17
(lp1715
sg19
(lp1716
sg21
I0
sba(iArchitecture
Entity
p1717
(dp1718
g11
(lp1719
sg13
S'android.app.LauncherActivity$ActivityAdapter$ArrayFilter'
p1720
sg15
(lp1721
sg17
(lp1722
sg19
(lp1723
sg21
I0
sba(iArchitecture
Entity
p1724
(dp1725
g11
(lp1726
sg13
S'android.app.LauncherActivity$IconResizer'
p1727
sg15
(lp1728
sg17
(lp1729
sg19
(lp1730
sg21
I0
sba(iArchitecture
Entity
p1731
(dp1732
g11
(lp1733
sg13
S'android.app.LauncherActivity$ListItem'
p1734
sg15
(lp1735
sg17
(lp1736
sg19
(lp1737
sg21
I0
sba(iArchitecture
Entity
p1738
(dp1739
g11
(lp1740
sg13
S'android.app.ListActivity'
p1741
sg15
(lp1742
sg17
(lp1743
sg19
(lp1744
sg21
I0
sba(iArchitecture
Entity
p1745
(dp1746
g11
(lp1747
sg13
S'android.app.ListActivity$1'
p1748
sg15
(lp1749
sg17
(lp1750
sg19
(lp1751
sg21
I0
sba(iArchitecture
Entity
p1752
(dp1753
g11
(lp1754
sg13
S'android.app.ListActivity$2'
p1755
sg15
(lp1756
sg17
(lp1757
sg19
(lp1758
sg21
I0
sba(iArchitecture
Entity
p1759
(dp1760
g11
(lp1761
sg13
S'android.app.ListFragment'
p1762
sg15
(lp1763
sg17
(lp1764
sg19
(lp1765
sg21
I0
sba(iArchitecture
Entity
p1766
(dp1767
g11
(lp1768
sg13
S'android.app.ListFragment$1'
p1769
sg15
(lp1770
sg17
(lp1771
sg19
(lp1772
sg21
I0
sba(iArchitecture
Entity
p1773
(dp1774
g11
(lp1775
sg13
S'android.app.ListFragment$2'
p1776
sg15
(lp1777
sg17
(lp1778
sg19
(lp1779
sg21
I0
sba(iArchitecture
Entity
p1780
(dp1781
g11
(lp1782
sg13
S'android.app.UiAutomation'
p1783
sg15
(lp1784
sg17
(lp1785
sg19
(lp1786
sg21
I0
sba(iArchitecture
Entity
p1787
(dp1788
g11
(lp1789
sg13
S'android.app.UiAutomation$AccessibilityEventFilter'
p1790
sg15
(lp1791
sg17
(lp1792
sg19
(lp1793
sg21
I0
sba(iArchitecture
Entity
p1794
(dp1795
g11
(lp1796
sg13
S'android.app.UiAutomation$IAccessibilityServiceClientImpl'
p1797
sg15
(lp1798
sg17
(lp1799
sg19
(lp1800
sg21
I0
sba(iArchitecture
Entity
p1801
(dp1802
g11
(lp1803
sg13
S'android.app.UiAutomation$IAccessibilityServiceClientImpl$1'
p1804
sg15
(lp1805
sg17
(lp1806
sg19
(lp1807
sg21
I0
sba(iArchitecture
Entity
p1808
(dp1809
g11
(lp1810
sg13
S'android.app.UiAutomation$OnAccessibilityEventListener'
p1811
sg15
(lp1812
sg17
(lp1813
sg19
(lp1814
sg21
I0
sba(iArchitecture
Entity
p1815
(dp1816
g11
(lp1817
sg13
S'android.app.UiAutomationConnection'
p1818
sg15
(lp1819
sg17
(lp1820
sg19
(lp1821
sg21
I0
sba(iArchitecture
Entity
p1822
(dp1823
g11
(lp1824
sg13
S'android.app.UiAutomationConnection$1'
p1825
sg15
(lp1826
sg17
(lp1827
sg19
(lp1828
sg21
I0
sba(iArchitecture
Entity
p1829
(dp1830
g11
(lp1831
sg13
S'android.app.WallpaperInfo'
p1832
sg15
(lp1833
sg17
(lp1834
sg19
(lp1835
sg21
I0
sba(iArchitecture
Entity
p1836
(dp1837
g11
(lp1838
sg13
S'android.app.WallpaperInfo$1'
p1839
sg15
(lp1840
sg17
(lp1841
sg19
(lp1842
sg21
I0
sba(iArchitecture
Entity
p1843
(dp1844
g11
(lp1845
sg13
S'android.app.job.JobParameters'
p1846
sg15
(lp1847
sg17
(lp1848
sg19
(lp1849
sg21
I0
sba(iArchitecture
Entity
p1850
(dp1851
g11
(lp1852
sg13
S'android.app.job.JobParameters$1'
p1853
sg15
(lp1854
sg17
(lp1855
sg19
(lp1856
sg21
I0
sba(iArchitecture
Entity
p1857
(dp1858
g11
(lp1859
sg13
S'android.app.job.JobScheduler'
p1860
sg15
(lp1861
sg17
(lp1862
sg19
(lp1863
sg21
I0
sbasg57
(lp1864
g1629
ag1636
ag1643
ag1650
ag1657
ag1664
ag1671
ag1678
ag1685
ag1692
ag1699
ag1706
ag1713
ag1720
ag1727
ag1734
ag1741
ag1748
ag1755
ag1762
ag1769
ag1776
ag1783
ag1790
ag1797
ag1804
ag1811
ag1818
ag1825
ag1832
ag1839
ag1846
ag1853
ag1860
asg21
I0
sg59
S'1232'
p1865
sba(iArchitecture
Cluster
p1866
(dp1867
g7
(lp1868
(iArchitecture
Entity
p1869
(dp1870
g11
(lp1871
sg13
S'android.app.FragmentContainer'
p1872
sg15
(lp1873
sg17
(lp1874
sg19
(lp1875
sg21
I0
sba(iArchitecture
Entity
p1876
(dp1877
g11
(lp1878
sg13
S'android.app.JobSchedulerImpl'
p1879
sg15
(lp1880
sg17
(lp1881
sg19
(lp1882
sg21
I0
sba(iArchitecture
Entity
p1883
(dp1884
g11
(lp1885
sg13
S'android.app.ProfilerInfo'
p1886
sg15
(lp1887
sg17
(lp1888
sg19
(lp1889
sg21
I0
sba(iArchitecture
Entity
p1890
(dp1891
g11
(lp1892
sg13
S'android.app.ProfilerInfo$1'
p1893
sg15
(lp1894
sg17
(lp1895
sg19
(lp1896
sg21
I0
sba(iArchitecture
Entity
p1897
(dp1898
g11
(lp1899
sg13
S'android.app.ResultInfo'
p1900
sg15
(lp1901
sg17
(lp1902
sg19
(lp1903
sg21
I0
sba(iArchitecture
Entity
p1904
(dp1905
g11
(lp1906
sg13
S'android.app.ResultInfo$1'
p1907
sg15
(lp1908
sg17
(lp1909
sg19
(lp1910
sg21
I0
sba(iArchitecture
Entity
p1911
(dp1912
g11
(lp1913
sg13
S'android.app.backup.AbsoluteFileBackupHelper'
p1914
sg15
(lp1915
sg17
(lp1916
sg19
(lp1917
sg21
I0
sba(iArchitecture
Entity
p1918
(dp1919
g11
(lp1920
sg13
S'android.app.backup.BackupAgentHelper'
p1921
sg15
(lp1922
sg17
(lp1923
sg19
(lp1924
sg21
I0
sba(iArchitecture
Entity
p1925
(dp1926
g11
(lp1927
sg13
S'android.app.backup.BackupDataInput'
p1928
sg15
(lp1929
sg17
(lp1930
sg19
(lp1931
sg21
I0
sba(iArchitecture
Entity
p1932
(dp1933
g11
(lp1934
sg13
S'android.app.backup.BackupDataInput$EntityHeader'
p1935
sg15
(lp1936
sg17
(lp1937
sg19
(lp1938
sg21
I0
sba(iArchitecture
Entity
p1939
(dp1940
g11
(lp1941
sg13
S'android.app.backup.BackupDataInputStream'
p1942
sg15
(lp1943
sg17
(lp1944
sg19
(lp1945
sg21
I0
sba(iArchitecture
Entity
p1946
(dp1947
g11
(lp1948
sg13
S'android.app.backup.BackupDataOutput'
p1949
sg15
(lp1950
sg17
(lp1951
sg19
(lp1952
sg21
I0
sba(iArchitecture
Entity
p1953
(dp1954
g11
(lp1955
sg13
S'android.app.backup.BackupHelper'
p1956
sg15
(lp1957
sg17
(lp1958
sg19
(lp1959
sg21
I0
sba(iArchitecture
Entity
p1960
(dp1961
g11
(lp1962
sg13
S'android.app.backup.BackupHelperDispatcher'
p1963
sg15
(lp1964
sg17
(lp1965
sg19
(lp1966
sg21
I0
sba(iArchitecture
Entity
p1967
(dp1968
g11
(lp1969
sg13
S'android.app.backup.BackupHelperDispatcher$Header'
p1970
sg15
(lp1971
sg17
(lp1972
sg19
(lp1973
sg21
I0
sba(iArchitecture
Entity
p1974
(dp1975
g11
(lp1976
sg13
S'android.app.backup.FileBackupHelper'
p1977
sg15
(lp1978
sg17
(lp1979
sg19
(lp1980
sg21
I0
sba(iArchitecture
Entity
p1981
(dp1982
g11
(lp1983
sg13
S'android.app.backup.FileBackupHelperBase'
p1984
sg15
(lp1985
sg17
(lp1986
sg19
(lp1987
sg21
I0
sba(iArchitecture
Entity
p1988
(dp1989
g11
(lp1990
sg13
S'android.app.backup.RestoreSet'
p1991
sg15
(lp1992
sg17
(lp1993
sg19
(lp1994
sg21
I0
sba(iArchitecture
Entity
p1995
(dp1996
g11
(lp1997
sg13
S'android.app.backup.RestoreSet$1'
p1998
sg15
(lp1999
sg17
(lp2000
sg19
(lp2001
sg21
I0
sba(iArchitecture
Entity
p2002
(dp2003
g11
(lp2004
sg13
S'android.app.backup.SharedPreferencesBackupHelper'
p2005
sg15
(lp2006
sg17
(lp2007
sg19
(lp2008
sg21
I0
sbasg57
(lp2009
g1872
ag1879
ag1886
ag1893
ag1900
ag1907
ag1914
ag1921
ag1928
ag1935
ag1942
ag1949
ag1956
ag1963
ag1970
ag1977
ag1984
ag1991
ag1998
ag2005
asg21
I0
sg59
S'1237'
p2010
sba(iArchitecture
Cluster
p2011
(dp2012
g7
(lp2013
(iArchitecture
Entity
p2014
(dp2015
g11
(lp2016
sg13
S'android.app.BackStackRecord'
p2017
sg15
(lp2018
sg17
(lp2019
sg19
(lp2020
sg21
I0
sba(iArchitecture
Entity
p2021
(dp2022
g11
(lp2023
sg13
S'android.app.BackStackRecord$1'
p2024
sg15
(lp2025
sg17
(lp2026
sg19
(lp2027
sg21
I0
sba(iArchitecture
Entity
p2028
(dp2029
g11
(lp2030
sg13
S'android.app.BackStackRecord$2'
p2031
sg15
(lp2032
sg17
(lp2033
sg19
(lp2034
sg21
I0
sba(iArchitecture
Entity
p2035
(dp2036
g11
(lp2037
sg13
S'android.app.BackStackRecord$3'
p2038
sg15
(lp2039
sg17
(lp2040
sg19
(lp2041
sg21
I0
sba(iArchitecture
Entity
p2042
(dp2043
g11
(lp2044
sg13
S'android.app.BackStackRecord$4'
p2045
sg15
(lp2046
sg17
(lp2047
sg19
(lp2048
sg21
I0
sba(iArchitecture
Entity
p2049
(dp2050
g11
(lp2051
sg13
S'android.app.BackStackRecord$Op'
p2052
sg15
(lp2053
sg17
(lp2054
sg19
(lp2055
sg21
I0
sba(iArchitecture
Entity
p2056
(dp2057
g11
(lp2058
sg13
S'android.app.BackStackRecord$TransitionState'
p2059
sg15
(lp2060
sg17
(lp2061
sg19
(lp2062
sg21
I0
sba(iArchitecture
Entity
p2063
(dp2064
g11
(lp2065
sg13
S'android.app.DialogFragment'
p2066
sg15
(lp2067
sg17
(lp2068
sg19
(lp2069
sg21
I0
sba(iArchitecture
Entity
p2070
(dp2071
g11
(lp2072
sg13
S'android.app.Fragment'
p2073
sg15
(lp2074
sg17
(lp2075
sg19
(lp2076
sg21
I0
sba(iArchitecture
Entity
p2077
(dp2078
g11
(lp2079
sg13
S'android.app.Fragment$1'
p2080
sg15
(lp2081
sg17
(lp2082
sg19
(lp2083
sg21
I0
sba(iArchitecture
Entity
p2084
(dp2085
g11
(lp2086
sg13
S'android.app.Fragment$InstantiationException'
p2087
sg15
(lp2088
sg17
(lp2089
sg19
(lp2090
sg21
I0
sba(iArchitecture
Entity
p2091
(dp2092
g11
(lp2093
sg13
S'android.app.Fragment$SavedState'
p2094
sg15
(lp2095
sg17
(lp2096
sg19
(lp2097
sg21
I0
sba(iArchitecture
Entity
p2098
(dp2099
g11
(lp2100
sg13
S'android.app.Fragment$SavedState$1'
p2101
sg15
(lp2102
sg17
(lp2103
sg19
(lp2104
sg21
I0
sba(iArchitecture
Entity
p2105
(dp2106
g11
(lp2107
sg13
S'android.app.FragmentBreadCrumbs'
p2108
sg15
(lp2109
sg17
(lp2110
sg19
(lp2111
sg21
I0
sba(iArchitecture
Entity
p2112
(dp2113
g11
(lp2114
sg13
S'android.app.FragmentBreadCrumbs$1'
p2115
sg15
(lp2116
sg17
(lp2117
sg19
(lp2118
sg21
I0
sba(iArchitecture
Entity
p2119
(dp2120
g11
(lp2121
sg13
S'android.app.FragmentBreadCrumbs$OnBreadCrumbClickListener'
p2122
sg15
(lp2123
sg17
(lp2124
sg19
(lp2125
sg21
I0
sba(iArchitecture
Entity
p2126
(dp2127
g11
(lp2128
sg13
S'android.app.FragmentManager'
p2129
sg15
(lp2130
sg17
(lp2131
sg19
(lp2132
sg21
I0
sba(iArchitecture
Entity
p2133
(dp2134
g11
(lp2135
sg13
S'android.app.FragmentManager$BackStackEntry'
p2136
sg15
(lp2137
sg17
(lp2138
sg19
(lp2139
sg21
I0
sba(iArchitecture
Entity
p2140
(dp2141
g11
(lp2142
sg13
S'android.app.FragmentManager$OnBackStackChangedListener'
p2143
sg15
(lp2144
sg17
(lp2145
sg19
(lp2146
sg21
I0
sba(iArchitecture
Entity
p2147
(dp2148
g11
(lp2149
sg13
S'android.app.FragmentTransaction'
p2150
sg15
(lp2151
sg17
(lp2152
sg19
(lp2153
sg21
I0
sbasg57
(lp2154
g2017
ag2024
ag2031
ag2038
ag2045
ag2052
ag2059
ag2066
ag2073
ag2080
ag2087
ag2094
ag2101
ag2108
ag2115
ag2122
ag2129
ag2136
ag2143
ag2150
asg21
I0
sg59
S'1238'
p2155
sba(iArchitecture
Cluster
p2156
(dp2157
g7
(lp2158
(iArchitecture
Entity
p2159
(dp2160
g11
(lp2161
sg13
S'android.app.StatusBarManager'
p2162
sg15
(lp2163
sg17
(lp2164
sg19
(lp2165
sg21
I0
sbasg57
(lp2166
g2162
asg21
I0
sg59
S'1240'
p2167
sba(iArchitecture
Cluster
p2168
(dp2169
g7
(lp2170
(iArchitecture
Entity
p2171
(dp2172
g11
(lp2173
sg13
S'android.app.ActivityGroup'
p2174
sg15
(lp2175
sg17
(lp2176
sg19
(lp2177
sg21
I0
sba(iArchitecture
Entity
p2178
(dp2179
g11
(lp2180
sg13
S'android.app.ActivityManagerNative'
p2181
sg15
(lp2182
sg17
(lp2183
sg19
(lp2184
sg21
I0
sba(iArchitecture
Entity
p2185
(dp2186
g11
(lp2187
sg13
S'android.app.ActivityManagerNative$1'
p2188
sg15
(lp2189
sg17
(lp2190
sg19
(lp2191
sg21
I0
sba(iArchitecture
Entity
p2192
(dp2193
g11
(lp2194
sg13
S'android.app.AppGlobals'
p2195
sg15
(lp2196
sg17
(lp2197
sg19
(lp2198
sg21
I0
sbasg57
(lp2199
g2174
ag2181
ag2188
ag2195
asg21
I0
sg59
S'1243'
p2200
sba(iArchitecture
Cluster
p2201
(dp2202
g7
(lp2203
(iArchitecture
Entity
p2204
(dp2205
g11
(lp2206
sg13
S'android.app.ActivityThread'
p2207
sg15
(lp2208
sg17
(lp2209
sg19
(lp2210
sg21
I0
sba(iArchitecture
Entity
p2211
(dp2212
g11
(lp2213
sg13
S'android.app.ActivityThread$1'
p2214
sg15
(lp2215
sg17
(lp2216
sg19
(lp2217
sg21
I0
sba(iArchitecture
Entity
p2218
(dp2219
g11
(lp2220
sg13
S'android.app.ActivityThread$2'
p2221
sg15
(lp2222
sg17
(lp2223
sg19
(lp2224
sg21
I0
sba(iArchitecture
Entity
p2225
(dp2226
g11
(lp2227
sg13
S'android.app.ActivityThread$3'
p2228
sg15
(lp2229
sg17
(lp2230
sg19
(lp2231
sg21
I0
sba(iArchitecture
Entity
p2232
(dp2233
g11
(lp2234
sg13
S'android.app.ActivityThread$ActivityClientRecord'
p2235
sg15
(lp2236
sg17
(lp2237
sg19
(lp2238
sg21
I0
sba(iArchitecture
Entity
p2239
(dp2240
g11
(lp2241
sg13
S'android.app.ActivityThread$ActivityConfigChangeData'
p2242
sg15
(lp2243
sg17
(lp2244
sg19
(lp2245
sg21
I0
sba(iArchitecture
Entity
p2246
(dp2247
g11
(lp2248
sg13
S'android.app.ActivityThread$AppBindData'
p2249
sg15
(lp2250
sg17
(lp2251
sg19
(lp2252
sg21
I0
sba(iArchitecture
Entity
p2253
(dp2254
g11
(lp2255
sg13
S'android.app.ActivityThread$ApplicationThread'
p2256
sg15
(lp2257
sg17
(lp2258
sg19
(lp2259
sg21
I0
sba(iArchitecture
Entity
p2260
(dp2261
g11
(lp2262
sg13
S'android.app.ActivityThread$ApplicationThread$1'
p2263
sg15
(lp2264
sg17
(lp2265
sg19
(lp2266
sg21
I0
sba(iArchitecture
Entity
p2267
(dp2268
g11
(lp2269
sg13
S'android.app.ActivityThread$BindServiceData'
p2270
sg15
(lp2271
sg17
(lp2272
sg19
(lp2273
sg21
I0
sba(iArchitecture
Entity
p2274
(dp2275
g11
(lp2276
sg13
S'android.app.ActivityThread$ContextCleanupInfo'
p2277
sg15
(lp2278
sg17
(lp2279
sg19
(lp2280
sg21
I0
sba(iArchitecture
Entity
p2281
(dp2282
g11
(lp2283
sg13
S'android.app.ActivityThread$CreateBackupAgentData'
p2284
sg15
(lp2285
sg17
(lp2286
sg19
(lp2287
sg21
I0
sba(iArchitecture
Entity
p2288
(dp2289
g11
(lp2290
sg13
S'android.app.ActivityThread$CreateServiceData'
p2291
sg15
(lp2292
sg17
(lp2293
sg19
(lp2294
sg21
I0
sba(iArchitecture
Entity
p2295
(dp2296
g11
(lp2297
sg13
S'android.app.ActivityThread$DropBoxReporter'
p2298
sg15
(lp2299
sg17
(lp2300
sg19
(lp2301
sg21
I0
sba(iArchitecture
Entity
p2302
(dp2303
g11
(lp2304
sg13
S'android.app.ActivityThread$DumpComponentInfo'
p2305
sg15
(lp2306
sg17
(lp2307
sg19
(lp2308
sg21
I0
sba(iArchitecture
Entity
p2309
(dp2310
g11
(lp2311
sg13
S'android.app.ActivityThread$DumpHeapData'
p2312
sg15
(lp2313
sg17
(lp2314
sg19
(lp2315
sg21
I0
sba(iArchitecture
Entity
p2316
(dp2317
g11
(lp2318
sg13
S'android.app.ActivityThread$EventLoggingReporter'
p2319
sg15
(lp2320
sg17
(lp2321
sg19
(lp2322
sg21
I0
sba(iArchitecture
Entity
p2323
(dp2324
g11
(lp2325
sg13
S'android.app.ActivityThread$GcIdler'
p2326
sg15
(lp2327
sg17
(lp2328
sg19
(lp2329
sg21
I0
sba(iArchitecture
Entity
p2330
(dp2331
g11
(lp2332
sg13
S'android.app.ActivityThread$H'
p2333
sg15
(lp2334
sg17
(lp2335
sg19
(lp2336
sg21
I0
sba(iArchitecture
Entity
p2337
(dp2338
g11
(lp2339
sg13
S'android.app.ActivityThread$Idler'
p2340
sg15
(lp2341
sg17
(lp2342
sg19
(lp2343
sg21
I0
sba(iArchitecture
Entity
p2344
(dp2345
g11
(lp2346
sg13
S'android.app.ActivityThread$NewIntentData'
p2347
sg15
(lp2348
sg17
(lp2349
sg19
(lp2350
sg21
I0
sba(iArchitecture
Entity
p2351
(dp2352
g11
(lp2353
sg13
S'android.app.ActivityThread$Profiler'
p2354
sg15
(lp2355
sg17
(lp2356
sg19
(lp2357
sg21
I0
sba(iArchitecture
Entity
p2358
(dp2359
g11
(lp2360
sg13
S'android.app.ActivityThread$ProviderClientRecord'
p2361
sg15
(lp2362
sg17
(lp2363
sg19
(lp2364
sg21
I0
sba(iArchitecture
Entity
p2365
(dp2366
g11
(lp2367
sg13
S'android.app.ActivityThread$ProviderKey'
p2368
sg15
(lp2369
sg17
(lp2370
sg19
(lp2371
sg21
I0
sba(iArchitecture
Entity
p2372
(dp2373
g11
(lp2374
sg13
S'android.app.ActivityThread$ProviderRefCount'
p2375
sg15
(lp2376
sg17
(lp2377
sg19
(lp2378
sg21
I0
sba(iArchitecture
Entity
p2379
(dp2380
g11
(lp2381
sg13
S'android.app.ActivityThread$ReceiverData'
p2382
sg15
(lp2383
sg17
(lp2384
sg19
(lp2385
sg21
I0
sba(iArchitecture
Entity
p2386
(dp2387
g11
(lp2388
sg13
S'android.app.ActivityThread$RequestAssistContextExtras'
p2389
sg15
(lp2390
sg17
(lp2391
sg19
(lp2392
sg21
I0
sba(iArchitecture
Entity
p2393
(dp2394
g11
(lp2395
sg13
S'android.app.ActivityThread$ResultData'
p2396
sg15
(lp2397
sg17
(lp2398
sg19
(lp2399
sg21
I0
sba(iArchitecture
Entity
p2400
(dp2401
g11
(lp2402
sg13
S'android.app.ActivityThread$ServiceArgsData'
p2403
sg15
(lp2404
sg17
(lp2405
sg19
(lp2406
sg21
I0
sba(iArchitecture
Entity
p2407
(dp2408
g11
(lp2409
sg13
S'android.app.ActivityThread$StopInfo'
p2410
sg15
(lp2411
sg17
(lp2412
sg19
(lp2413
sg21
I0
sba(iArchitecture
Entity
p2414
(dp2415
g11
(lp2416
sg13
S'android.app.ActivityThread$UpdateCompatibilityData'
p2417
sg15
(lp2418
sg17
(lp2419
sg19
(lp2420
sg21
I0
sba(iArchitecture
Entity
p2421
(dp2422
g11
(lp2423
sg13
S'android.app.DownloadManager'
p2424
sg15
(lp2425
sg17
(lp2426
sg19
(lp2427
sg21
I0
sba(iArchitecture
Entity
p2428
(dp2429
g11
(lp2430
sg13
S'android.app.DownloadManager$CursorTranslator'
p2431
sg15
(lp2432
sg17
(lp2433
sg19
(lp2434
sg21
I0
sba(iArchitecture
Entity
p2435
(dp2436
g11
(lp2437
sg13
S'android.app.DownloadManager$Query'
p2438
sg15
(lp2439
sg17
(lp2440
sg19
(lp2441
sg21
I0
sba(iArchitecture
Entity
p2442
(dp2443
g11
(lp2444
sg13
S'android.app.DownloadManager$Request'
p2445
sg15
(lp2446
sg17
(lp2447
sg19
(lp2448
sg21
I0
sba(iArchitecture
Entity
p2449
(dp2450
g11
(lp2451
sg13
S'android.app.SearchDialog'
p2452
sg15
(lp2453
sg17
(lp2454
sg19
(lp2455
sg21
I0
sba(iArchitecture
Entity
p2456
(dp2457
g11
(lp2458
sg13
S'android.app.SearchDialog$1'
p2459
sg15
(lp2460
sg17
(lp2461
sg19
(lp2462
sg21
I0
sba(iArchitecture
Entity
p2463
(dp2464
g11
(lp2465
sg13
S'android.app.SearchDialog$2'
p2466
sg15
(lp2467
sg17
(lp2468
sg19
(lp2469
sg21
I0
sba(iArchitecture
Entity
p2470
(dp2471
g11
(lp2472
sg13
S'android.app.SearchDialog$3'
p2473
sg15
(lp2474
sg17
(lp2475
sg19
(lp2476
sg21
I0
sba(iArchitecture
Entity
p2477
(dp2478
g11
(lp2479
sg13
S'android.app.SearchDialog$4'
p2480
sg15
(lp2481
sg17
(lp2482
sg19
(lp2483
sg21
I0
sba(iArchitecture
Entity
p2484
(dp2485
g11
(lp2486
sg13
S'android.app.SearchDialog$5'
p2487
sg15
(lp2488
sg17
(lp2489
sg19
(lp2490
sg21
I0
sba(iArchitecture
Entity
p2491
(dp2492
g11
(lp2493
sg13
S'android.app.SearchDialog$SearchBar'
p2494
sg15
(lp2495
sg17
(lp2496
sg19
(lp2497
sg21
I0
sba(iArchitecture
Entity
p2498
(dp2499
g11
(lp2500
sg13
S'android.app.backup.BlobBackupHelper'
p2501
sg15
(lp2502
sg17
(lp2503
sg19
(lp2504
sg21
I0
sba(iArchitecture
Entity
p2505
(dp2506
g11
(lp2507
sg13
S'android.app.backup.WallpaperBackupHelper'
p2508
sg15
(lp2509
sg17
(lp2510
sg19
(lp2511
sg21
I0
sba(iArchitecture
Entity
p2512
(dp2513
g11
(lp2514
sg13
S'android.app.job.JobService'
p2515
sg15
(lp2516
sg17
(lp2517
sg19
(lp2518
sg21
I0
sba(iArchitecture
Entity
p2519
(dp2520
g11
(lp2521
sg13
S'android.app.job.JobService$1'
p2522
sg15
(lp2523
sg17
(lp2524
sg19
(lp2525
sg21
I0
sba(iArchitecture
Entity
p2526
(dp2527
g11
(lp2528
sg13
S'android.app.job.JobService$JobHandler'
p2529
sg15
(lp2530
sg17
(lp2531
sg19
(lp2532
sg21
I0
sba(iArchitecture
Entity
p2533
(dp2534
g11
(lp2535
sg13
S'android.app.usage.NetworkStatsManager'
p2536
sg15
(lp2537
sg17
(lp2538
sg19
(lp2539
sg21
I0
sba(iArchitecture
Entity
p2540
(dp2541
g11
(lp2542
sg13
S'android.app.usage.UsageEvents'
p2543
sg15
(lp2544
sg17
(lp2545
sg19
(lp2546
sg21
I0
sba(iArchitecture
Entity
p2547
(dp2548
g11
(lp2549
sg13
S'android.app.usage.UsageEvents$1'
p2550
sg15
(lp2551
sg17
(lp2552
sg19
(lp2553
sg21
I0
sba(iArchitecture
Entity
p2554
(dp2555
g11
(lp2556
sg13
S'android.app.usage.UsageEvents$Event'
p2557
sg15
(lp2558
sg17
(lp2559
sg19
(lp2560
sg21
I0
sba(iArchitecture
Entity
p2561
(dp2562
g11
(lp2563
sg13
S'android.app.usage.UsageStatsManager'
p2564
sg15
(lp2565
sg17
(lp2566
sg19
(lp2567
sg21
I0
sbasg57
(lp2568
g2207
ag2214
ag2221
ag2228
ag2235
ag2242
ag2249
ag2256
ag2263
ag2270
ag2277
ag2284
ag2291
ag2298
ag2305
ag2312
ag2319
ag2326
ag2333
ag2340
ag2347
ag2354
ag2361
ag2368
ag2375
ag2382
ag2389
ag2396
ag2403
ag2410
ag2417
ag2424
ag2431
ag2438
ag2445
ag2452
ag2459
ag2466
ag2473
ag2480
ag2487
ag2494
ag2501
ag2508
ag2515
ag2522
ag2529
ag2536
ag2543
ag2550
ag2557
ag2564
asg21
I0
sg59
S'1246'
p2569
sba(iArchitecture
Cluster
p2570
(dp2571
g7
(lp2572
(iArchitecture
Entity
p2573
(dp2574
g11
(lp2575
sg13
S'android.app.assist.AssistStructure'
p2576
sg15
(lp2577
sg17
(lp2578
sg19
(lp2579
sg21
I0
sba(iArchitecture
Entity
p2580
(dp2581
g11
(lp2582
sg13
S'android.app.assist.AssistStructure$1'
p2583
sg15
(lp2584
sg17
(lp2585
sg19
(lp2586
sg21
I0
sba(iArchitecture
Entity
p2587
(dp2588
g11
(lp2589
sg13
S'android.app.assist.AssistStructure$ParcelTransferReader'
p2590
sg15
(lp2591
sg17
(lp2592
sg19
(lp2593
sg21
I0
sba(iArchitecture
Entity
p2594
(dp2595
g11
(lp2596
sg13
S'android.app.assist.AssistStructure$ParcelTransferWriter'
p2597
sg15
(lp2598
sg17
(lp2599
sg19
(lp2600
sg21
I0
sba(iArchitecture
Entity
p2601
(dp2602
g11
(lp2603
sg13
S'android.app.assist.AssistStructure$SendChannel'
p2604
sg15
(lp2605
sg17
(lp2606
sg19
(lp2607
sg21
I0
sba(iArchitecture
Entity
p2608
(dp2609
g11
(lp2610
sg13
S'android.app.assist.AssistStructure$ViewNode'
p2611
sg15
(lp2612
sg17
(lp2613
sg19
(lp2614
sg21
I0
sba(iArchitecture
Entity
p2615
(dp2616
g11
(lp2617
sg13
S'android.app.assist.AssistStructure$ViewNodeBuilder'
p2618
sg15
(lp2619
sg17
(lp2620
sg19
(lp2621
sg21
I0
sba(iArchitecture
Entity
p2622
(dp2623
g11
(lp2624
sg13
S'android.app.assist.AssistStructure$ViewNodeText'
p2625
sg15
(lp2626
sg17
(lp2627
sg19
(lp2628
sg21
I0
sba(iArchitecture
Entity
p2629
(dp2630
g11
(lp2631
sg13
S'android.app.assist.AssistStructure$ViewStackEntry'
p2632
sg15
(lp2633
sg17
(lp2634
sg19
(lp2635
sg21
I0
sba(iArchitecture
Entity
p2636
(dp2637
g11
(lp2638
sg13
S'android.app.assist.AssistStructure$WindowNode'
p2639
sg15
(lp2640
sg17
(lp2641
sg19
(lp2642
sg21
I0
sbasg57
(lp2643
g2576
ag2583
ag2590
ag2597
ag2604
ag2611
ag2618
ag2625
ag2632
ag2639
asg21
I0
sg59
S'1253'
p2644
sba(iArchitecture
Cluster
p2645
(dp2646
g7
(lp2647
(iArchitecture
Entity
p2648
(dp2649
g11
(lp2650
sg13
S'android.app.PackageInstallObserver'
p2651
sg15
(lp2652
sg17
(lp2653
sg19
(lp2654
sg21
I0
sba(iArchitecture
Entity
p2655
(dp2656
g11
(lp2657
sg13
S'android.app.PackageInstallObserver$1'
p2658
sg15
(lp2659
sg17
(lp2660
sg19
(lp2661
sg21
I0
sbasg57
(lp2662
g2651
ag2658
asg21
I0
sg59
S'1255'
p2663
sba(iArchitecture
Cluster
p2664
(dp2665
g7
(lp2666
(iArchitecture
Entity
p2667
(dp2668
g11
(lp2669
sg13
S'android.app.usage.TimeSparseArray'
p2670
sg15
(lp2671
sg17
(lp2672
sg19
(lp2673
sg21
I0
sbasg57
(lp2674
g2670
asg21
I0
sg59
S'1259'
p2675
sba(iArchitecture
Cluster
p2676
(dp2677
g7
(lp2678
(iArchitecture
Entity
p2679
(dp2680
g11
(lp2681
sg13
S'android.app.VoiceInteractor'
p2682
sg15
(lp2683
sg17
(lp2684
sg19
(lp2685
sg21
I0
sba(iArchitecture
Entity
p2686
(dp2687
g11
(lp2688
sg13
S'android.app.VoiceInteractor$1'
p2689
sg15
(lp2690
sg17
(lp2691
sg19
(lp2692
sg21
I0
sba(iArchitecture
Entity
p2693
(dp2694
g11
(lp2695
sg13
S'android.app.VoiceInteractor$2'
p2696
sg15
(lp2697
sg17
(lp2698
sg19
(lp2699
sg21
I0
sba(iArchitecture
Entity
p2700
(dp2701
g11
(lp2702
sg13
S'android.app.VoiceInteractor$AbortVoiceRequest'
p2703
sg15
(lp2704
sg17
(lp2705
sg19
(lp2706
sg21
I0
sba(iArchitecture
Entity
p2707
(dp2708
g11
(lp2709
sg13
S'android.app.VoiceInteractor$CommandRequest'
p2710
sg15
(lp2711
sg17
(lp2712
sg19
(lp2713
sg21
I0
sba(iArchitecture
Entity
p2714
(dp2715
g11
(lp2716
sg13
S'android.app.VoiceInteractor$CompleteVoiceRequest'
p2717
sg15
(lp2718
sg17
(lp2719
sg19
(lp2720
sg21
I0
sba(iArchitecture
Entity
p2721
(dp2722
g11
(lp2723
sg13
S'android.app.VoiceInteractor$ConfirmationRequest'
p2724
sg15
(lp2725
sg17
(lp2726
sg19
(lp2727
sg21
I0
sba(iArchitecture
Entity
p2728
(dp2729
g11
(lp2730
sg13
S'android.app.VoiceInteractor$PickOptionRequest'
p2731
sg15
(lp2732
sg17
(lp2733
sg19
(lp2734
sg21
I0
sba(iArchitecture
Entity
p2735
(dp2736
g11
(lp2737
sg13
S'android.app.VoiceInteractor$PickOptionRequest$Option'
p2738
sg15
(lp2739
sg17
(lp2740
sg19
(lp2741
sg21
I0
sba(iArchitecture
Entity
p2742
(dp2743
g11
(lp2744
sg13
S'android.app.VoiceInteractor$PickOptionRequest$Option$1'
p2745
sg15
(lp2746
sg17
(lp2747
sg19
(lp2748
sg21
I0
sba(iArchitecture
Entity
p2749
(dp2750
g11
(lp2751
sg13
S'android.app.VoiceInteractor$Prompt'
p2752
sg15
(lp2753
sg17
(lp2754
sg19
(lp2755
sg21
I0
sba(iArchitecture
Entity
p2756
(dp2757
g11
(lp2758
sg13
S'android.app.VoiceInteractor$Prompt$1'
p2759
sg15
(lp2760
sg17
(lp2761
sg19
(lp2762
sg21
I0
sba(iArchitecture
Entity
p2763
(dp2764
g11
(lp2765
sg13
S'android.app.VoiceInteractor$Request'
p2766
sg15
(lp2767
sg17
(lp2768
sg19
(lp2769
sg21
I0
sbasg57
(lp2770
g2682
ag2689
ag2696
ag2703
ag2710
ag2717
ag2724
ag2731
ag2738
ag2745
ag2752
ag2759
ag2766
asg21
I0
sg59
S'1261'
p2771
sba(iArchitecture
Cluster
p2772
(dp2773
g7
(lp2774
(iArchitecture
Entity
p2775
(dp2776
g11
(lp2777
sg13
S'android.app.TabActivity'
p2778
sg15
(lp2779
sg17
(lp2780
sg19
(lp2781
sg21
I0
sbasg57
(lp2782
g2778
asg21
I0
sg59
S'1265'
p2783
sba(iArchitecture
Cluster
p2784
(dp2785
g7
(lp2786
(iArchitecture
Entity
p2787
(dp2788
g11
(lp2789
sg13
S'android.app.admin.DeviceAdminReceiver'
p2790
sg15
(lp2791
sg17
(lp2792
sg19
(lp2793
sg21
I0
sbasg57
(lp2794
g2790
asg21
I0
sg59
S'177'
p2795
sba(iArchitecture
Cluster
p2796
(dp2797
g7
(lp2798
(iArchitecture
Entity
p2799
(dp2800
g11
(lp2801
sg13
S'android.app.FragmentController'
p2802
sg15
(lp2803
sg17
(lp2804
sg19
(lp2805
sg21
I0
sbasg57
(lp2806
g2802
asg21
I0
sg59
S'18'
p2807
sba(iArchitecture
Cluster
p2808
(dp2809
g7
(lp2810
(iArchitecture
Entity
p2811
(dp2812
g11
(lp2813
sg13
S'android.app.QueuedWork'
p2814
sg15
(lp2815
sg17
(lp2816
sg19
(lp2817
sg21
I0
sbasg57
(lp2818
g2814
asg21
I0
sg59
S'203'
p2819
sba(iArchitecture
Cluster
p2820
(dp2821
g7
(lp2822
(iArchitecture
Entity
p2823
(dp2824
g11
(lp2825
sg13
S'android.app.BroadcastOptions'
p2826
sg15
(lp2827
sg17
(lp2828
sg19
(lp2829
sg21
I0
sbasg57
(lp2830
g2826
asg21
I0
sg59
S'241'
p2831
sba(iArchitecture
Cluster
p2832
(dp2833
g7
(lp2834
(iArchitecture
Entity
p2835
(dp2836
g11
(lp2837
sg13
S'android.app.ResourcesManager'
p2838
sg15
(lp2839
sg17
(lp2840
sg19
(lp2841
sg21
I0
sbasg57
(lp2842
g2838
asg21
I0
sg59
S'278'
p2843
sba(iArchitecture
Cluster
p2844
(dp2845
g7
(lp2846
(iArchitecture
Entity
p2847
(dp2848
g11
(lp2849
sg13
S'android.appwidget.AppWidgetProvider'
p2850
sg15
(lp2851
sg17
(lp2852
sg19
(lp2853
sg21
I0
sbasg57
(lp2854
g2850
asg21
I0
sg59
S'329'
p2855
sba(iArchitecture
Cluster
p2856
(dp2857
g7
(lp2858
(iArchitecture
Entity
p2859
(dp2860
g11
(lp2861
sg13
S'android.appwidget.AppWidgetManager'
p2862
sg15
(lp2863
sg17
(lp2864
sg19
(lp2865
sg21
I0
sbasg57
(lp2866
g2862
asg21
I0
sg59
S'352'
p2867
sba(iArchitecture
Cluster
p2868
(dp2869
g7
(lp2870
(iArchitecture
Entity
p2871
(dp2872
g11
(lp2873
sg13
S'android.app.ApplicationLoaders'
p2874
sg15
(lp2875
sg17
(lp2876
sg19
(lp2877
sg21
I0
sbasg57
(lp2878
g2874
asg21
I0
sg59
S'368'
p2879
sba(iArchitecture
Cluster
p2880
(dp2881
g7
(lp2882
(iArchitecture
Entity
p2883
(dp2884
g11
(lp2885
sg13
S'android.app.TaskStackBuilder'
p2886
sg15
(lp2887
sg17
(lp2888
sg19
(lp2889
sg21
I0
sbasg57
(lp2890
g2886
asg21
I0
sg59
S'369'
p2891
sba(iArchitecture
Cluster
p2892
(dp2893
g7
(lp2894
(iArchitecture
Entity
p2895
(dp2896
g11
(lp2897
sg13
S'android.app.backup.FullBackupDataOutput'
p2898
sg15
(lp2899
sg17
(lp2900
sg19
(lp2901
sg21
I0
sbasg57
(lp2902
g2898
asg21
I0
sg59
S'392'
p2903
sba(iArchitecture
Cluster
p2904
(dp2905
g7
(lp2906
(iArchitecture
Entity
p2907
(dp2908
g11
(lp2909
sg13
S'android.app.AliasActivity'
p2910
sg15
(lp2911
sg17
(lp2912
sg19
(lp2913
sg21
I0
sbasg57
(lp2914
g2910
asg21
I0
sg59
S'42'
p2915
sba(iArchitecture
Cluster
p2916
(dp2917
g7
(lp2918
(iArchitecture
Entity
p2919
(dp2920
g11
(lp2921
sg13
S'android.app.admin.DevicePolicyManager'
p2922
sg15
(lp2923
sg17
(lp2924
sg19
(lp2925
sg21
I0
sbasg57
(lp2926
g2922
asg21
I0
sg59
S'43'
p2927
sba(iArchitecture
Cluster
p2928
(dp2929
g7
(lp2930
(iArchitecture
Entity
p2931
(dp2932
g11
(lp2933
sg13
S'android.app.FragmentHostCallback'
p2934
sg15
(lp2935
sg17
(lp2936
sg19
(lp2937
sg21
I0
sbasg57
(lp2938
g2934
asg21
I0
sg59
S'435'
p2939
sba(iArchitecture
Cluster
p2940
(dp2941
g7
(lp2942
(iArchitecture
Entity
p2943
(dp2944
g11
(lp2945
sg13
S'android.app.admin.DevicePolicyManagerInternal'
p2946
sg15
(lp2947
sg17
(lp2948
sg19
(lp2949
sg21
I0
sba(iArchitecture
Entity
p2950
(dp2951
g11
(lp2952
sg13
S'android.app.admin.DevicePolicyManagerInternal$OnCrossProfileWidgetProvidersChangeListener'
p2953
sg15
(lp2954
sg17
(lp2955
sg19
(lp2956
sg21
I0
sbasg57
(lp2957
g2946
ag2953
asg21
I0
sg59
S'484'
p2958
sba(iArchitecture
Cluster
p2959
(dp2960
g7
(lp2961
(iArchitecture
Entity
p2962
(dp2963
g11
(lp2964
sg13
S'android.app.ProgressDialog'
p2965
sg15
(lp2966
sg17
(lp2967
sg19
(lp2968
sg21
I0
sba(iArchitecture
Entity
p2969
(dp2970
g11
(lp2971
sg13
S'android.app.ProgressDialog$1'
p2972
sg15
(lp2973
sg17
(lp2974
sg19
(lp2975
sg21
I0
sbasg57
(lp2976
g2965
ag2972
asg21
I0
sg59
S'490'
p2977
sba(iArchitecture
Cluster
p2978
(dp2979
g7
(lp2980
(iArchitecture
Entity
p2981
(dp2982
g11
(lp2983
sg13
S'android.app.assist.AssistContent'
p2984
sg15
(lp2985
sg17
(lp2986
sg19
(lp2987
sg21
I0
sba(iArchitecture
Entity
p2988
(dp2989
g11
(lp2990
sg13
S'android.app.assist.AssistContent$1'
p2991
sg15
(lp2992
sg17
(lp2993
sg19
(lp2994
sg21
I0
sbasg57
(lp2995
g2984
ag2991
asg21
I0
sg59
S'491'
p2996
sba(iArchitecture
Cluster
p2997
(dp2998
g7
(lp2999
(iArchitecture
Entity
p3000
(dp3001
g11
(lp3002
sg13
S'android.app.AlertDialog'
p3003
sg15
(lp3004
sg17
(lp3005
sg19
(lp3006
sg21
I0
sba(iArchitecture
Entity
p3007
(dp3008
g11
(lp3009
sg13
S'android.app.AlertDialog$Builder'
p3010
sg15
(lp3011
sg17
(lp3012
sg19
(lp3013
sg21
I0
sbasg57
(lp3014
g3003
ag3010
asg21
I0
sg59
S'500'
p3015
sba(iArchitecture
Cluster
p3016
(dp3017
g7
(lp3018
(iArchitecture
Entity
p3019
(dp3020
g11
(lp3021
sg13
S'android.app.usage.ConfigurationStats'
p3022
sg15
(lp3023
sg17
(lp3024
sg19
(lp3025
sg21
I0
sba(iArchitecture
Entity
p3026
(dp3027
g11
(lp3028
sg13
S'android.app.usage.ConfigurationStats$1'
p3029
sg15
(lp3030
sg17
(lp3031
sg19
(lp3032
sg21
I0
sbasg57
(lp3033
g3022
ag3029
asg21
I0
sg59
S'548'
p3034
sba(iArchitecture
Cluster
p3035
(dp3036
g7
(lp3037
(iArchitecture
Entity
p3038
(dp3039
g11
(lp3040
sg13
S'android.app.NativeActivity'
p3041
sg15
(lp3042
sg17
(lp3043
sg19
(lp3044
sg21
I0
sba(iArchitecture
Entity
p3045
(dp3046
g11
(lp3047
sg13
S'android.app.NativeActivity$NativeContentView'
p3048
sg15
(lp3049
sg17
(lp3050
sg19
(lp3051
sg21
I0
sbasg57
(lp3052
g3041
ag3048
asg21
I0
sg59
S'550'
p3053
sba(iArchitecture
Cluster
p3054
(dp3055
g7
(lp3056
(iArchitecture
Entity
p3057
(dp3058
g11
(lp3059
sg13
S'android.appwidget.AppWidgetProviderInfo'
p3060
sg15
(lp3061
sg17
(lp3062
sg19
(lp3063
sg21
I0
sba(iArchitecture
Entity
p3064
(dp3065
g11
(lp3066
sg13
S'android.appwidget.AppWidgetProviderInfo$1'
p3067
sg15
(lp3068
sg17
(lp3069
sg19
(lp3070
sg21
I0
sbasg57
(lp3071
g3060
ag3067
asg21
I0
sg59
S'561'
p3072
sba(iArchitecture
Cluster
p3073
(dp3074
g7
(lp3075
(iArchitecture
Entity
p3076
(dp3077
g11
(lp3078
sg13
S'android.app.admin.SystemUpdatePolicy'
p3079
sg15
(lp3080
sg17
(lp3081
sg19
(lp3082
sg21
I0
sba(iArchitecture
Entity
p3083
(dp3084
g11
(lp3085
sg13
S'android.app.admin.SystemUpdatePolicy$1'
p3086
sg15
(lp3087
sg17
(lp3088
sg19
(lp3089
sg21
I0
sbasg57
(lp3090
g3079
ag3086
asg21
I0
sg59
S'581'
p3091
sba(iArchitecture
Cluster
p3092
(dp3093
g7
(lp3094
(iArchitecture
Entity
p3095
(dp3096
g11
(lp3097
sg13
S'android.app.LocalActivityManager'
p3098
sg15
(lp3099
sg17
(lp3100
sg19
(lp3101
sg21
I0
sba(iArchitecture
Entity
p3102
(dp3103
g11
(lp3104
sg13
S'android.app.LocalActivityManager$LocalActivityRecord'
p3105
sg15
(lp3106
sg17
(lp3107
sg19
(lp3108
sg21
I0
sbasg57
(lp3109
g3098
ag3105
asg21
I0
sg59
S'604'
p3110
sba(iArchitecture
Cluster
p3111
(dp3112
g7
(lp3113
(iArchitecture
Entity
p3114
(dp3115
g11
(lp3116
sg13
S'android.app.usage.NetworkStats'
p3117
sg15
(lp3118
sg17
(lp3119
sg19
(lp3120
sg21
I0
sba(iArchitecture
Entity
p3121
(dp3122
g11
(lp3123
sg13
S'android.app.usage.NetworkStats$Bucket'
p3124
sg15
(lp3125
sg17
(lp3126
sg19
(lp3127
sg21
I0
sbasg57
(lp3128
g3117
ag3124
asg21
I0
sg59
S'608'
p3129
sba(iArchitecture
Cluster
p3130
(dp3131
g7
(lp3132
(iArchitecture
Entity
p3133
(dp3134
g11
(lp3135
sg13
S'android.app.ActivityTransitionState'
p3136
sg15
(lp3137
sg17
(lp3138
sg19
(lp3139
sg21
I0
sba(iArchitecture
Entity
p3140
(dp3141
g11
(lp3142
sg13
S'android.app.ActivityTransitionState$1'
p3143
sg15
(lp3144
sg17
(lp3145
sg19
(lp3146
sg21
I0
sbasg57
(lp3147
g3136
ag3143
asg21
I0
sg59
S'623'
p3148
sba(iArchitecture
Cluster
p3149
(dp3150
g7
(lp3151
(iArchitecture
Entity
p3152
(dp3153
g11
(lp3154
sg13
S'android.app.IntentService'
p3155
sg15
(lp3156
sg17
(lp3157
sg19
(lp3158
sg21
I0
sba(iArchitecture
Entity
p3159
(dp3160
g11
(lp3161
sg13
S'android.app.IntentService$ServiceHandler'
p3162
sg15
(lp3163
sg17
(lp3164
sg19
(lp3165
sg21
I0
sbasg57
(lp3166
g3155
ag3162
asg21
I0
sg59
S'688'
p3167
sba(iArchitecture
Cluster
p3168
(dp3169
g7
(lp3170
(iArchitecture
Entity
p3171
(dp3172
g11
(lp3173
sg13
S'android.app.LoaderManager'
p3174
sg15
(lp3175
sg17
(lp3176
sg19
(lp3177
sg21
I0
sba(iArchitecture
Entity
p3178
(dp3179
g11
(lp3180
sg13
S'android.app.LoaderManager$LoaderCallbacks'
p3181
sg15
(lp3182
sg17
(lp3183
sg19
(lp3184
sg21
I0
sbasg57
(lp3185
g3174
ag3181
asg21
I0
sg59
S'703'
p3186
sba(iArchitecture
Cluster
p3187
(dp3188
g7
(lp3189
(iArchitecture
Entity
p3190
(dp3191
g11
(lp3192
sg13
S'android.app.TimePickerDialog'
p3193
sg15
(lp3194
sg17
(lp3195
sg19
(lp3196
sg21
I0
sba(iArchitecture
Entity
p3197
(dp3198
g11
(lp3199
sg13
S'android.app.TimePickerDialog$1'
p3200
sg15
(lp3201
sg17
(lp3202
sg19
(lp3203
sg21
I0
sba(iArchitecture
Entity
p3204
(dp3205
g11
(lp3206
sg13
S'android.app.TimePickerDialog$OnTimeSetListener'
p3207
sg15
(lp3208
sg17
(lp3209
sg19
(lp3210
sg21
I0
sbasg57
(lp3211
g3193
ag3200
ag3207
asg21
I0
sg59
S'759'
p3212
sba(iArchitecture
Cluster
p3213
(dp3214
g7
(lp3215
(iArchitecture
Entity
p3216
(dp3217
g11
(lp3218
sg13
S'android.app.Application'
p3219
sg15
(lp3220
sg17
(lp3221
sg19
(lp3222
sg21
I0
sba(iArchitecture
Entity
p3223
(dp3224
g11
(lp3225
sg13
S'android.app.Application$ActivityLifecycleCallbacks'
p3226
sg15
(lp3227
sg17
(lp3228
sg19
(lp3229
sg21
I0
sba(iArchitecture
Entity
p3230
(dp3231
g11
(lp3232
sg13
S'android.app.Application$OnProvideAssistDataListener'
p3233
sg15
(lp3234
sg17
(lp3235
sg19
(lp3236
sg21
I0
sbasg57
(lp3237
g3219
ag3226
ag3233
asg21
I0
sg59
S'772'
p3238
sba(iArchitecture
Cluster
p3239
(dp3240
g7
(lp3241
(iArchitecture
Entity
p3242
(dp3243
g11
(lp3244
sg13
S'android.app.AlarmManager'
p3245
sg15
(lp3246
sg17
(lp3247
sg19
(lp3248
sg21
I0
sba(iArchitecture
Entity
p3249
(dp3250
g11
(lp3251
sg13
S'android.app.AlarmManager$AlarmClockInfo'
p3252
sg15
(lp3253
sg17
(lp3254
sg19
(lp3255
sg21
I0
sba(iArchitecture
Entity
p3256
(dp3257
g11
(lp3258
sg13
S'android.app.AlarmManager$AlarmClockInfo$1'
p3259
sg15
(lp3260
sg17
(lp3261
sg19
(lp3262
sg21
I0
sbasg57
(lp3263
g3245
ag3252
ag3259
asg21
I0
sg59
S'782'
p3264
sba(iArchitecture
Cluster
p3265
(dp3266
g7
(lp3267
(iArchitecture
Entity
p3268
(dp3269
g11
(lp3270
sg13
S'android.app.RemoteInput'
p3271
sg15
(lp3272
sg17
(lp3273
sg19
(lp3274
sg21
I0
sba(iArchitecture
Entity
p3275
(dp3276
g11
(lp3277
sg13
S'android.app.RemoteInput$1'
p3278
sg15
(lp3279
sg17
(lp3280
sg19
(lp3281
sg21
I0
sba(iArchitecture
Entity
p3282
(dp3283
g11
(lp3284
sg13
S'android.app.RemoteInput$Builder'
p3285
sg15
(lp3286
sg17
(lp3287
sg19
(lp3288
sg21
I0
sbasg57
(lp3289
g3271
ag3278
ag3285
asg21
I0
sg59
S'795'
p3290
sba(iArchitecture
Cluster
p3291
(dp3292
g7
(lp3293
(iArchitecture
Entity
p3294
(dp3295
g11
(lp3296
sg13
S'android.app.job.JobInfo'
p3297
sg15
(lp3298
sg17
(lp3299
sg19
(lp3300
sg21
I0
sba(iArchitecture
Entity
p3301
(dp3302
g11
(lp3303
sg13
S'android.app.job.JobInfo$1'
p3304
sg15
(lp3305
sg17
(lp3306
sg19
(lp3307
sg21
I0
sba(iArchitecture
Entity
p3308
(dp3309
g11
(lp3310
sg13
S'android.app.job.JobInfo$Builder'
p3311
sg15
(lp3312
sg17
(lp3313
sg19
(lp3314
sg21
I0
sbasg57
(lp3315
g3297
ag3304
ag3311
asg21
I0
sg59
S'797'
p3316
sba(iArchitecture
Cluster
p3317
(dp3318
g7
(lp3319
(iArchitecture
Entity
p3320
(dp3321
g11
(lp3322
sg13
S'android.app.Presentation'
p3323
sg15
(lp3324
sg17
(lp3325
sg19
(lp3326
sg21
I0
sba(iArchitecture
Entity
p3327
(dp3328
g11
(lp3329
sg13
S'android.app.Presentation$1'
p3330
sg15
(lp3331
sg17
(lp3332
sg19
(lp3333
sg21
I0
sba(iArchitecture
Entity
p3334
(dp3335
g11
(lp3336
sg13
S'android.app.Presentation$2'
p3337
sg15
(lp3338
sg17
(lp3339
sg19
(lp3340
sg21
I0
sba(iArchitecture
Entity
p3341
(dp3342
g11
(lp3343
sg13
S'android.app.Presentation$3'
p3344
sg15
(lp3345
sg17
(lp3346
sg19
(lp3347
sg21
I0
sbasg57
(lp3348
g3323
ag3330
ag3337
ag3344
asg21
I0
sg59
S'798'
p3349
sba(iArchitecture
Cluster
p3350
(dp3351
g7
(lp3352
(iArchitecture
Entity
p3353
(dp3354
g11
(lp3355
sg13
S'android.app.admin.DeviceAdminInfo'
p3356
sg15
(lp3357
sg17
(lp3358
sg19
(lp3359
sg21
I0
sba(iArchitecture
Entity
p3360
(dp3361
g11
(lp3362
sg13
S'android.app.admin.DeviceAdminInfo$1'
p3363
sg15
(lp3364
sg17
(lp3365
sg19
(lp3366
sg21
I0
sba(iArchitecture
Entity
p3367
(dp3368
g11
(lp3369
sg13
S'android.app.admin.DeviceAdminInfo$PolicyInfo'
p3370
sg15
(lp3371
sg17
(lp3372
sg19
(lp3373
sg21
I0
sbasg57
(lp3374
g3356
ag3363
ag3370
asg21
I0
sg59
S'799'
p3375
sba(iArchitecture
Cluster
p3376
(dp3377
g7
(lp3378
(iArchitecture
Entity
p3379
(dp3380
g11
(lp3381
sg13
S'android.app.SharedElementCallback'
p3382
sg15
(lp3383
sg17
(lp3384
sg19
(lp3385
sg21
I0
sba(iArchitecture
Entity
p3386
(dp3387
g11
(lp3388
sg13
S'android.app.SharedElementCallback$1'
p3389
sg15
(lp3390
sg17
(lp3391
sg19
(lp3392
sg21
I0
sba(iArchitecture
Entity
p3393
(dp3394
g11
(lp3395
sg13
S'android.app.SharedElementCallback$OnSharedElementsReadyListener'
p3396
sg15
(lp3397
sg17
(lp3398
sg19
(lp3399
sg21
I0
sbasg57
(lp3400
g3382
ag3389
ag3396
asg21
I0
sg59
S'829'
p3401
sba(iArchitecture
Cluster
p3402
(dp3403
g7
(lp3404
(iArchitecture
Entity
p3405
(dp3406
g11
(lp3407
sg13
S'android.app.NotificationManager'
p3408
sg15
(lp3409
sg17
(lp3410
sg19
(lp3411
sg21
I0
sba(iArchitecture
Entity
p3412
(dp3413
g11
(lp3414
sg13
S'android.app.NotificationManager$Policy'
p3415
sg15
(lp3416
sg17
(lp3417
sg19
(lp3418
sg21
I0
sba(iArchitecture
Entity
p3419
(dp3420
g11
(lp3421
sg13
S'android.app.NotificationManager$Policy$1'
p3422
sg15
(lp3423
sg17
(lp3424
sg19
(lp3425
sg21
I0
sbasg57
(lp3426
g3408
ag3415
ag3422
asg21
I0
sg59
S'838'
p3427
sba(iArchitecture
Cluster
p3428
(dp3429
g7
(lp3430
(iArchitecture
Entity
p3431
(dp3432
g11
(lp3433
sg13
S'android.app.DatePickerDialog'
p3434
sg15
(lp3435
sg17
(lp3436
sg19
(lp3437
sg21
I0
sba(iArchitecture
Entity
p3438
(dp3439
g11
(lp3440
sg13
S'android.app.DatePickerDialog$1'
p3441
sg15
(lp3442
sg17
(lp3443
sg19
(lp3444
sg21
I0
sba(iArchitecture
Entity
p3445
(dp3446
g11
(lp3447
sg13
S'android.app.DatePickerDialog$OnDateSetListener'
p3448
sg15
(lp3449
sg17
(lp3450
sg19
(lp3451
sg21
I0
sbasg57
(lp3452
g3434
ag3441
ag3448
asg21
I0
sg59
S'845'
p3453
sbasS'target_sub'
p3454
S'android.app'
p3455
sg57
(lp3456
sS'is_component_arch'
p3457
I00
sg59
S'6.0.0_r1'
p3458
sba(iArchitecture
Architecture
p3459
(dp3460
g3
(lp3461
(iArchitecture
Cluster
p3462
(dp3463
g7
(lp3464
(iArchitecture
Entity
p3465
(dp3466
g11
(lp3467
sg13
S'android.app.AlarmManager'
p3468
sg15
(lp3469
sg17
(lp3470
sg19
(lp3471
sg21
I0
sba(iArchitecture
Entity
p3472
(dp3473
g11
(lp3474
sg13
S'android.app.AlarmManager$AlarmClockInfo'
p3475
sg15
(lp3476
sg17
(lp3477
sg19
(lp3478
sg21
I0
sba(iArchitecture
Entity
p3479
(dp3480
g11
(lp3481
sg13
S'android.app.AlarmManager$AlarmClockInfo$1'
p3482
sg15
(lp3483
sg17
(lp3484
sg19
(lp3485
sg21
I0
sba(iArchitecture
Entity
p3486
(dp3487
g11
(lp3488
sg13
S'android.app.AlarmManager$ListenerWrapper'
p3489
sg15
(lp3490
sg17
(lp3491
sg19
(lp3492
sg21
I0
sba(iArchitecture
Entity
p3493
(dp3494
g11
(lp3495
sg13
S'android.app.AlarmManager$OnAlarmListener'
p3496
sg15
(lp3497
sg17
(lp3498
sg19
(lp3499
sg21
I0
sbasg57
(lp3500
g3468
ag3475
ag3482
ag3489
ag3496
asg21
I0
sg59
S'1056'
p3501
sba(iArchitecture
Cluster
p3502
(dp3503
g7
(lp3504
(iArchitecture
Entity
p3505
(dp3506
g11
(lp3507
sg13
S'android.app.job.JobInfo'
p3508
sg15
(lp3509
sg17
(lp3510
sg19
(lp3511
sg21
I0
sba(iArchitecture
Entity
p3512
(dp3513
g11
(lp3514
sg13
S'android.app.job.JobInfo$1'
p3515
sg15
(lp3516
sg17
(lp3517
sg19
(lp3518
sg21
I0
sba(iArchitecture
Entity
p3519
(dp3520
g11
(lp3521
sg13
S'android.app.job.JobInfo$Builder'
p3522
sg15
(lp3523
sg17
(lp3524
sg19
(lp3525
sg21
I0
sba(iArchitecture
Entity
p3526
(dp3527
g11
(lp3528
sg13
S'android.app.job.JobInfo$TriggerContentUri'
p3529
sg15
(lp3530
sg17
(lp3531
sg19
(lp3532
sg21
I0
sba(iArchitecture
Entity
p3533
(dp3534
g11
(lp3535
sg13
S'android.app.job.JobInfo$TriggerContentUri$1'
p3536
sg15
(lp3537
sg17
(lp3538
sg19
(lp3539
sg21
I0
sbasg57
(lp3540
g3508
ag3515
ag3522
ag3529
ag3536
asg21
I0
sg59
S'1067'
p3541
sba(iArchitecture
Cluster
p3542
(dp3543
g7
(lp3544
(iArchitecture
Entity
p3545
(dp3546
g11
(lp3547
sg13
S'android.app.ApplicationErrorReport'
p3548
sg15
(lp3549
sg17
(lp3550
sg19
(lp3551
sg21
I0
sba(iArchitecture
Entity
p3552
(dp3553
g11
(lp3554
sg13
S'android.app.ApplicationErrorReport$1'
p3555
sg15
(lp3556
sg17
(lp3557
sg19
(lp3558
sg21
I0
sba(iArchitecture
Entity
p3559
(dp3560
g11
(lp3561
sg13
S'android.app.ApplicationErrorReport$AnrInfo'
p3562
sg15
(lp3563
sg17
(lp3564
sg19
(lp3565
sg21
I0
sba(iArchitecture
Entity
p3566
(dp3567
g11
(lp3568
sg13
S'android.app.ApplicationErrorReport$BatteryInfo'
p3569
sg15
(lp3570
sg17
(lp3571
sg19
(lp3572
sg21
I0
sba(iArchitecture
Entity
p3573
(dp3574
g11
(lp3575
sg13
S'android.app.ApplicationErrorReport$CrashInfo'
p3576
sg15
(lp3577
sg17
(lp3578
sg19
(lp3579
sg21
I0
sba(iArchitecture
Entity
p3580
(dp3581
g11
(lp3582
sg13
S'android.app.ApplicationErrorReport$RunningServiceInfo'
p3583
sg15
(lp3584
sg17
(lp3585
sg19
(lp3586
sg21
I0
sbasg57
(lp3587
g3548
ag3555
ag3562
ag3569
ag3576
ag3583
asg21
I0
sg59
S'1128'
p3588
sba(iArchitecture
Cluster
p3589
(dp3590
g7
(lp3591
(iArchitecture
Entity
p3592
(dp3593
g11
(lp3594
sg13
S'android.app.ActionBar'
p3595
sg15
(lp3596
sg17
(lp3597
sg19
(lp3598
sg21
I0
sba(iArchitecture
Entity
p3599
(dp3600
g11
(lp3601
sg13
S'android.app.ActionBar$FollowOutOfActionBar'
p3602
sg15
(lp3603
sg17
(lp3604
sg19
(lp3605
sg21
I0
sba(iArchitecture
Entity
p3606
(dp3607
g11
(lp3608
sg13
S'android.app.ActionBar$LayoutParams'
p3609
sg15
(lp3610
sg17
(lp3611
sg19
(lp3612
sg21
I0
sba(iArchitecture
Entity
p3613
(dp3614
g11
(lp3615
sg13
S'android.app.ActionBar$OnMenuVisibilityListener'
p3616
sg15
(lp3617
sg17
(lp3618
sg19
(lp3619
sg21
I0
sba(iArchitecture
Entity
p3620
(dp3621
g11
(lp3622
sg13
S'android.app.ActionBar$OnNavigationListener'
p3623
sg15
(lp3624
sg17
(lp3625
sg19
(lp3626
sg21
I0
sba(iArchitecture
Entity
p3627
(dp3628
g11
(lp3629
sg13
S'android.app.ActionBar$Tab'
p3630
sg15
(lp3631
sg17
(lp3632
sg19
(lp3633
sg21
I0
sba(iArchitecture
Entity
p3634
(dp3635
g11
(lp3636
sg13
S'android.app.ActionBar$TabListener'
p3637
sg15
(lp3638
sg17
(lp3639
sg19
(lp3640
sg21
I0
sbasg57
(lp3641
g3595
ag3602
ag3609
ag3616
ag3623
ag3630
ag3637
asg21
I0
sg59
S'1155'
p3642
sba(iArchitecture
Cluster
p3643
(dp3644
g7
(lp3645
(iArchitecture
Entity
p3646
(dp3647
g11
(lp3648
sg13
S'android.app.AppOpsManager'
p3649
sg15
(lp3650
sg17
(lp3651
sg19
(lp3652
sg21
I0
sba(iArchitecture
Entity
p3653
(dp3654
g11
(lp3655
sg13
S'android.app.AppOpsManager$1'
p3656
sg15
(lp3657
sg17
(lp3658
sg19
(lp3659
sg21
I0
sba(iArchitecture
Entity
p3660
(dp3661
g11
(lp3662
sg13
S'android.app.AppOpsManager$OnOpChangedInternalListener'
p3663
sg15
(lp3664
sg17
(lp3665
sg19
(lp3666
sg21
I0
sba(iArchitecture
Entity
p3667
(dp3668
g11
(lp3669
sg13
S'android.app.AppOpsManager$OnOpChangedListener'
p3670
sg15
(lp3671
sg17
(lp3672
sg19
(lp3673
sg21
I0
sba(iArchitecture
Entity
p3674
(dp3675
g11
(lp3676
sg13
S'android.app.AppOpsManager$OpEntry'
p3677
sg15
(lp3678
sg17
(lp3679
sg19
(lp3680
sg21
I0
sba(iArchitecture
Entity
p3681
(dp3682
g11
(lp3683
sg13
S'android.app.AppOpsManager$OpEntry$1'
p3684
sg15
(lp3685
sg17
(lp3686
sg19
(lp3687
sg21
I0
sba(iArchitecture
Entity
p3688
(dp3689
g11
(lp3690
sg13
S'android.app.AppOpsManager$PackageOps'
p3691
sg15
(lp3692
sg17
(lp3693
sg19
(lp3694
sg21
I0
sba(iArchitecture
Entity
p3695
(dp3696
g11
(lp3697
sg13
S'android.app.AppOpsManager$PackageOps$1'
p3698
sg15
(lp3699
sg17
(lp3700
sg19
(lp3701
sg21
I0
sbasg57
(lp3702
g3649
ag3656
ag3663
ag3670
ag3677
ag3684
ag3691
ag3698
asg21
I0
sg59
S'1158'
p3703
sba(iArchitecture
Cluster
p3704
(dp3705
g7
(lp3706
(iArchitecture
Entity
p3707
(dp3708
g11
(lp3709
sg13
S'android.app.SharedPreferencesImpl'
p3710
sg15
(lp3711
sg17
(lp3712
sg19
(lp3713
sg21
I0
sba(iArchitecture
Entity
p3714
(dp3715
g11
(lp3716
sg13
S'android.app.SharedPreferencesImpl$1'
p3717
sg15
(lp3718
sg17
(lp3719
sg19
(lp3720
sg21
I0
sba(iArchitecture
Entity
p3721
(dp3722
g11
(lp3723
sg13
S'android.app.SharedPreferencesImpl$2'
p3724
sg15
(lp3725
sg17
(lp3726
sg19
(lp3727
sg21
I0
sba(iArchitecture
Entity
p3728
(dp3729
g11
(lp3730
sg13
S'android.app.SharedPreferencesImpl$EditorImpl'
p3731
sg15
(lp3732
sg17
(lp3733
sg19
(lp3734
sg21
I0
sba(iArchitecture
Entity
p3735
(dp3736
g11
(lp3737
sg13
S'android.app.SharedPreferencesImpl$EditorImpl$1'
p3738
sg15
(lp3739
sg17
(lp3740
sg19
(lp3741
sg21
I0
sba(iArchitecture
Entity
p3742
(dp3743
g11
(lp3744
sg13
S'android.app.SharedPreferencesImpl$EditorImpl$2'
p3745
sg15
(lp3746
sg17
(lp3747
sg19
(lp3748
sg21
I0
sba(iArchitecture
Entity
p3749
(dp3750
g11
(lp3751
sg13
S'android.app.SharedPreferencesImpl$EditorImpl$3'
p3752
sg15
(lp3753
sg17
(lp3754
sg19
(lp3755
sg21
I0
sba(iArchitecture
Entity
p3756
(dp3757
g11
(lp3758
sg13
S'android.app.SharedPreferencesImpl$MemoryCommitResult'
p3759
sg15
(lp3760
sg17
(lp3761
sg19
(lp3762
sg21
I0
sbasg57
(lp3763
g3710
ag3717
ag3724
ag3731
ag3738
ag3745
ag3752
ag3759
asg21
I0
sg59
S'1174'
p3764
sba(iArchitecture
Cluster
p3765
(dp3766
g7
(lp3767
(iArchitecture
Entity
p3768
(dp3769
g11
(lp3770
sg13
S'android.app.Instrumentation'
p3771
sg15
(lp3772
sg17
(lp3773
sg19
(lp3774
sg21
I0
sba(iArchitecture
Entity
p3775
(dp3776
g11
(lp3777
sg13
S'android.app.Instrumentation$1ContextMenuRunnable'
p3778
sg15
(lp3779
sg17
(lp3780
sg19
(lp3781
sg21
I0
sba(iArchitecture
Entity
p3782
(dp3783
g11
(lp3784
sg13
S'android.app.Instrumentation$1MenuRunnable'
p3785
sg15
(lp3786
sg17
(lp3787
sg19
(lp3788
sg21
I0
sba(iArchitecture
Entity
p3789
(dp3790
g11
(lp3791
sg13
S'android.app.Instrumentation$ActivityGoing'
p3792
sg15
(lp3793
sg17
(lp3794
sg19
(lp3795
sg21
I0
sba(iArchitecture
Entity
p3796
(dp3797
g11
(lp3798
sg13
S'android.app.Instrumentation$ActivityMonitor'
p3799
sg15
(lp3800
sg17
(lp3801
sg19
(lp3802
sg21
I0
sba(iArchitecture
Entity
p3803
(dp3804
g11
(lp3805
sg13
S'android.app.Instrumentation$ActivityResult'
p3806
sg15
(lp3807
sg17
(lp3808
sg19
(lp3809
sg21
I0
sba(iArchitecture
Entity
p3810
(dp3811
g11
(lp3812
sg13
S'android.app.Instrumentation$ActivityWaiter'
p3813
sg15
(lp3814
sg17
(lp3815
sg19
(lp3816
sg21
I0
sba(iArchitecture
Entity
p3817
(dp3818
g11
(lp3819
sg13
S'android.app.Instrumentation$EmptyRunnable'
p3820
sg15
(lp3821
sg17
(lp3822
sg19
(lp3823
sg21
I0
sba(iArchitecture
Entity
p3824
(dp3825
g11
(lp3826
sg13
S'android.app.Instrumentation$Idler'
p3827
sg15
(lp3828
sg17
(lp3829
sg19
(lp3830
sg21
I0
sba(iArchitecture
Entity
p3831
(dp3832
g11
(lp3833
sg13
S'android.app.Instrumentation$InstrumentationThread'
p3834
sg15
(lp3835
sg17
(lp3836
sg19
(lp3837
sg21
I0
sba(iArchitecture
Entity
p3838
(dp3839
g11
(lp3840
sg13
S'android.app.Instrumentation$SyncRunnable'
p3841
sg15
(lp3842
sg17
(lp3843
sg19
(lp3844
sg21
I0
sbasg57
(lp3845
g3771
ag3778
ag3785
ag3792
ag3799
ag3806
ag3813
ag3820
ag3827
ag3834
ag3841
asg21
I0
sg59
S'1202'
p3846
sba(iArchitecture
Cluster
p3847
(dp3848
g7
(lp3849
(iArchitecture
Entity
p3850
(dp3851
g11
(lp3852
sg13
S'android.app.ActivityView'
p3853
sg15
(lp3854
sg17
(lp3855
sg19
(lp3856
sg21
I0
sba(iArchitecture
Entity
p3857
(dp3858
g11
(lp3859
sg13
S'android.app.ActivityView$1'
p3860
sg15
(lp3861
sg17
(lp3862
sg19
(lp3863
sg21
I0
sba(iArchitecture
Entity
p3864
(dp3865
g11
(lp3866
sg13
S'android.app.ActivityView$2'
p3867
sg15
(lp3868
sg17
(lp3869
sg19
(lp3870
sg21
I0
sba(iArchitecture
Entity
p3871
(dp3872
g11
(lp3873
sg13
S'android.app.ActivityView$2$1'
p3874
sg15
(lp3875
sg17
(lp3876
sg19
(lp3877
sg21
I0
sba(iArchitecture
Entity
p3878
(dp3879
g11
(lp3880
sg13
S'android.app.ActivityView$ActivityContainerCallback'
p3881
sg15
(lp3882
sg17
(lp3883
sg19
(lp3884
sg21
I0
sba(iArchitecture
Entity
p3885
(dp3886
g11
(lp3887
sg13
S'android.app.ActivityView$ActivityContainerCallback$1'
p3888
sg15
(lp3889
sg17
(lp3890
sg19
(lp3891
sg21
I0
sba(iArchitecture
Entity
p3892
(dp3893
g11
(lp3894
sg13
S'android.app.ActivityView$ActivityContainerWrapper'
p3895
sg15
(lp3896
sg17
(lp3897
sg19
(lp3898
sg21
I0
sba(iArchitecture
Entity
p3899
(dp3900
g11
(lp3901
sg13
S'android.app.ActivityView$ActivityViewCallback'
p3902
sg15
(lp3903
sg17
(lp3904
sg19
(lp3905
sg21
I0
sba(iArchitecture
Entity
p3906
(dp3907
g11
(lp3908
sg13
S'android.app.ActivityView$ActivityViewSurfaceTextureListener'
p3909
sg15
(lp3910
sg17
(lp3911
sg19
(lp3912
sg21
I0
sba(iArchitecture
Entity
p3913
(dp3914
g11
(lp3915
sg13
S'android.app.ActivityView$SerialExecutor'
p3916
sg15
(lp3917
sg17
(lp3918
sg19
(lp3919
sg21
I0
sba(iArchitecture
Entity
p3920
(dp3921
g11
(lp3922
sg13
S'android.app.ActivityView$SerialExecutor$1'
p3923
sg15
(lp3924
sg17
(lp3925
sg19
(lp3926
sg21
I0
sbasg57
(lp3927
g3853
ag3860
ag3867
ag3874
ag3881
ag3888
ag3895
ag3902
ag3909
ag3916
ag3923
asg21
I0
sg59
S'1208'
p3928
sba(iArchitecture
Cluster
p3929
(dp3930
g7
(lp3931
(iArchitecture
Entity
p3932
(dp3933
g11
(lp3934
sg13
S'android.app.SystemServiceRegistry'
p3935
sg15
(lp3936
sg17
(lp3937
sg19
(lp3938
sg21
I0
sba(iArchitecture
Entity
p3939
(dp3940
g11
(lp3941
sg13
S'android.app.SystemServiceRegistry$1'
p3942
sg15
(lp3943
sg17
(lp3944
sg19
(lp3945
sg21
I0
sba(iArchitecture
Entity
p3946
(dp3947
g11
(lp3948
sg13
S'android.app.SystemServiceRegistry$10'
p3949
sg15
(lp3950
sg17
(lp3951
sg19
(lp3952
sg21
I0
sba(iArchitecture
Entity
p3953
(dp3954
g11
(lp3955
sg13
S'android.app.SystemServiceRegistry$11'
p3956
sg15
(lp3957
sg17
(lp3958
sg19
(lp3959
sg21
I0
sba(iArchitecture
Entity
p3960
(dp3961
g11
(lp3962
sg13
S'android.app.SystemServiceRegistry$12'
p3963
sg15
(lp3964
sg17
(lp3965
sg19
(lp3966
sg21
I0
sba(iArchitecture
Entity
p3967
(dp3968
g11
(lp3969
sg13
S'android.app.SystemServiceRegistry$13'
p3970
sg15
(lp3971
sg17
(lp3972
sg19
(lp3973
sg21
I0
sba(iArchitecture
Entity
p3974
(dp3975
g11
(lp3976
sg13
S'android.app.SystemServiceRegistry$14'
p3977
sg15
(lp3978
sg17
(lp3979
sg19
(lp3980
sg21
I0
sba(iArchitecture
Entity
p3981
(dp3982
g11
(lp3983
sg13
S'android.app.SystemServiceRegistry$15'
p3984
sg15
(lp3985
sg17
(lp3986
sg19
(lp3987
sg21
I0
sba(iArchitecture
Entity
p3988
(dp3989
g11
(lp3990
sg13
S'android.app.SystemServiceRegistry$16'
p3991
sg15
(lp3992
sg17
(lp3993
sg19
(lp3994
sg21
I0
sba(iArchitecture
Entity
p3995
(dp3996
g11
(lp3997
sg13
S'android.app.SystemServiceRegistry$17'
p3998
sg15
(lp3999
sg17
(lp4000
sg19
(lp4001
sg21
I0
sba(iArchitecture
Entity
p4002
(dp4003
g11
(lp4004
sg13
S'android.app.SystemServiceRegistry$18'
p4005
sg15
(lp4006
sg17
(lp4007
sg19
(lp4008
sg21
I0
sba(iArchitecture
Entity
p4009
(dp4010
g11
(lp4011
sg13
S'android.app.SystemServiceRegistry$19'
p4012
sg15
(lp4013
sg17
(lp4014
sg19
(lp4015
sg21
I0
sba(iArchitecture
Entity
p4016
(dp4017
g11
(lp4018
sg13
S'android.app.SystemServiceRegistry$2'
p4019
sg15
(lp4020
sg17
(lp4021
sg19
(lp4022
sg21
I0
sba(iArchitecture
Entity
p4023
(dp4024
g11
(lp4025
sg13
S'android.app.SystemServiceRegistry$20'
p4026
sg15
(lp4027
sg17
(lp4028
sg19
(lp4029
sg21
I0
sba(iArchitecture
Entity
p4030
(dp4031
g11
(lp4032
sg13
S'android.app.SystemServiceRegistry$21'
p4033
sg15
(lp4034
sg17
(lp4035
sg19
(lp4036
sg21
I0
sba(iArchitecture
Entity
p4037
(dp4038
g11
(lp4039
sg13
S'android.app.SystemServiceRegistry$22'
p4040
sg15
(lp4041
sg17
(lp4042
sg19
(lp4043
sg21
I0
sba(iArchitecture
Entity
p4044
(dp4045
g11
(lp4046
sg13
S'android.app.SystemServiceRegistry$23'
p4047
sg15
(lp4048
sg17
(lp4049
sg19
(lp4050
sg21
I0
sba(iArchitecture
Entity
p4051
(dp4052
g11
(lp4053
sg13
S'android.app.SystemServiceRegistry$24'
p4054
sg15
(lp4055
sg17
(lp4056
sg19
(lp4057
sg21
I0
sba(iArchitecture
Entity
p4058
(dp4059
g11
(lp4060
sg13
S'android.app.SystemServiceRegistry$25'
p4061
sg15
(lp4062
sg17
(lp4063
sg19
(lp4064
sg21
I0
sba(iArchitecture
Entity
p4065
(dp4066
g11
(lp4067
sg13
S'android.app.SystemServiceRegistry$26'
p4068
sg15
(lp4069
sg17
(lp4070
sg19
(lp4071
sg21
I0
sba(iArchitecture
Entity
p4072
(dp4073
g11
(lp4074
sg13
S'android.app.SystemServiceRegistry$27'
p4075
sg15
(lp4076
sg17
(lp4077
sg19
(lp4078
sg21
I0
sba(iArchitecture
Entity
p4079
(dp4080
g11
(lp4081
sg13
S'android.app.SystemServiceRegistry$28'
p4082
sg15
(lp4083
sg17
(lp4084
sg19
(lp4085
sg21
I0
sba(iArchitecture
Entity
p4086
(dp4087
g11
(lp4088
sg13
S'android.app.SystemServiceRegistry$29'
p4089
sg15
(lp4090
sg17
(lp4091
sg19
(lp4092
sg21
I0
sba(iArchitecture
Entity
p4093
(dp4094
g11
(lp4095
sg13
S'android.app.SystemServiceRegistry$3'
p4096
sg15
(lp4097
sg17
(lp4098
sg19
(lp4099
sg21
I0
sba(iArchitecture
Entity
p4100
(dp4101
g11
(lp4102
sg13
S'android.app.SystemServiceRegistry$30'
p4103
sg15
(lp4104
sg17
(lp4105
sg19
(lp4106
sg21
I0
sba(iArchitecture
Entity
p4107
(dp4108
g11
(lp4109
sg13
S'android.app.SystemServiceRegistry$31'
p4110
sg15
(lp4111
sg17
(lp4112
sg19
(lp4113
sg21
I0
sba(iArchitecture
Entity
p4114
(dp4115
g11
(lp4116
sg13
S'android.app.SystemServiceRegistry$32'
p4117
sg15
(lp4118
sg17
(lp4119
sg19
(lp4120
sg21
I0
sba(iArchitecture
Entity
p4121
(dp4122
g11
(lp4123
sg13
S'android.app.SystemServiceRegistry$33'
p4124
sg15
(lp4125
sg17
(lp4126
sg19
(lp4127
sg21
I0
sba(iArchitecture
Entity
p4128
(dp4129
g11
(lp4130
sg13
S'android.app.SystemServiceRegistry$34'
p4131
sg15
(lp4132
sg17
(lp4133
sg19
(lp4134
sg21
I0
sba(iArchitecture
Entity
p4135
(dp4136
g11
(lp4137
sg13
S'android.app.SystemServiceRegistry$35'
p4138
sg15
(lp4139
sg17
(lp4140
sg19
(lp4141
sg21
I0
sba(iArchitecture
Entity
p4142
(dp4143
g11
(lp4144
sg13
S'android.app.SystemServiceRegistry$36'
p4145
sg15
(lp4146
sg17
(lp4147
sg19
(lp4148
sg21
I0
sba(iArchitecture
Entity
p4149
(dp4150
g11
(lp4151
sg13
S'android.app.SystemServiceRegistry$37'
p4152
sg15
(lp4153
sg17
(lp4154
sg19
(lp4155
sg21
I0
sba(iArchitecture
Entity
p4156
(dp4157
g11
(lp4158
sg13
S'android.app.SystemServiceRegistry$38'
p4159
sg15
(lp4160
sg17
(lp4161
sg19
(lp4162
sg21
I0
sba(iArchitecture
Entity
p4163
(dp4164
g11
(lp4165
sg13
S'android.app.SystemServiceRegistry$39'
p4166
sg15
(lp4167
sg17
(lp4168
sg19
(lp4169
sg21
I0
sba(iArchitecture
Entity
p4170
(dp4171
g11
(lp4172
sg13
S'android.app.SystemServiceRegistry$4'
p4173
sg15
(lp4174
sg17
(lp4175
sg19
(lp4176
sg21
I0
sba(iArchitecture
Entity
p4177
(dp4178
g11
(lp4179
sg13
S'android.app.SystemServiceRegistry$40'
p4180
sg15
(lp4181
sg17
(lp4182
sg19
(lp4183
sg21
I0
sba(iArchitecture
Entity
p4184
(dp4185
g11
(lp4186
sg13
S'android.app.SystemServiceRegistry$41'
p4187
sg15
(lp4188
sg17
(lp4189
sg19
(lp4190
sg21
I0
sba(iArchitecture
Entity
p4191
(dp4192
g11
(lp4193
sg13
S'android.app.SystemServiceRegistry$42'
p4194
sg15
(lp4195
sg17
(lp4196
sg19
(lp4197
sg21
I0
sba(iArchitecture
Entity
p4198
(dp4199
g11
(lp4200
sg13
S'android.app.SystemServiceRegistry$43'
p4201
sg15
(lp4202
sg17
(lp4203
sg19
(lp4204
sg21
I0
sba(iArchitecture
Entity
p4205
(dp4206
g11
(lp4207
sg13
S'android.app.SystemServiceRegistry$44'
p4208
sg15
(lp4209
sg17
(lp4210
sg19
(lp4211
sg21
I0
sba(iArchitecture
Entity
p4212
(dp4213
g11
(lp4214
sg13
S'android.app.SystemServiceRegistry$45'
p4215
sg15
(lp4216
sg17
(lp4217
sg19
(lp4218
sg21
I0
sba(iArchitecture
Entity
p4219
(dp4220
g11
(lp4221
sg13
S'android.app.SystemServiceRegistry$46'
p4222
sg15
(lp4223
sg17
(lp4224
sg19
(lp4225
sg21
I0
sba(iArchitecture
Entity
p4226
(dp4227
g11
(lp4228
sg13
S'android.app.SystemServiceRegistry$47'
p4229
sg15
(lp4230
sg17
(lp4231
sg19
(lp4232
sg21
I0
sba(iArchitecture
Entity
p4233
(dp4234
g11
(lp4235
sg13
S'android.app.SystemServiceRegistry$48'
p4236
sg15
(lp4237
sg17
(lp4238
sg19
(lp4239
sg21
I0
sba(iArchitecture
Entity
p4240
(dp4241
g11
(lp4242
sg13
S'android.app.SystemServiceRegistry$49'
p4243
sg15
(lp4244
sg17
(lp4245
sg19
(lp4246
sg21
I0
sba(iArchitecture
Entity
p4247
(dp4248
g11
(lp4249
sg13
S'android.app.SystemServiceRegistry$5'
p4250
sg15
(lp4251
sg17
(lp4252
sg19
(lp4253
sg21
I0
sba(iArchitecture
Entity
p4254
(dp4255
g11
(lp4256
sg13
S'android.app.SystemServiceRegistry$50'
p4257
sg15
(lp4258
sg17
(lp4259
sg19
(lp4260
sg21
I0
sba(iArchitecture
Entity
p4261
(dp4262
g11
(lp4263
sg13
S'android.app.SystemServiceRegistry$51'
p4264
sg15
(lp4265
sg17
(lp4266
sg19
(lp4267
sg21
I0
sba(iArchitecture
Entity
p4268
(dp4269
g11
(lp4270
sg13
S'android.app.SystemServiceRegistry$52'
p4271
sg15
(lp4272
sg17
(lp4273
sg19
(lp4274
sg21
I0
sba(iArchitecture
Entity
p4275
(dp4276
g11
(lp4277
sg13
S'android.app.SystemServiceRegistry$53'
p4278
sg15
(lp4279
sg17
(lp4280
sg19
(lp4281
sg21
I0
sba(iArchitecture
Entity
p4282
(dp4283
g11
(lp4284
sg13
S'android.app.SystemServiceRegistry$54'
p4285
sg15
(lp4286
sg17
(lp4287
sg19
(lp4288
sg21
I0
sba(iArchitecture
Entity
p4289
(dp4290
g11
(lp4291
sg13
S'android.app.SystemServiceRegistry$55'
p4292
sg15
(lp4293
sg17
(lp4294
sg19
(lp4295
sg21
I0
sba(iArchitecture
Entity
p4296
(dp4297
g11
(lp4298
sg13
S'android.app.SystemServiceRegistry$56'
p4299
sg15
(lp4300
sg17
(lp4301
sg19
(lp4302
sg21
I0
sba(iArchitecture
Entity
p4303
(dp4304
g11
(lp4305
sg13
S'android.app.SystemServiceRegistry$57'
p4306
sg15
(lp4307
sg17
(lp4308
sg19
(lp4309
sg21
I0
sba(iArchitecture
Entity
p4310
(dp4311
g11
(lp4312
sg13
S'android.app.SystemServiceRegistry$58'
p4313
sg15
(lp4314
sg17
(lp4315
sg19
(lp4316
sg21
I0
sba(iArchitecture
Entity
p4317
(dp4318
g11
(lp4319
sg13
S'android.app.SystemServiceRegistry$59'
p4320
sg15
(lp4321
sg17
(lp4322
sg19
(lp4323
sg21
I0
sba(iArchitecture
Entity
p4324
(dp4325
g11
(lp4326
sg13
S'android.app.SystemServiceRegistry$6'
p4327
sg15
(lp4328
sg17
(lp4329
sg19
(lp4330
sg21
I0
sba(iArchitecture
Entity
p4331
(dp4332
g11
(lp4333
sg13
S'android.app.SystemServiceRegistry$60'
p4334
sg15
(lp4335
sg17
(lp4336
sg19
(lp4337
sg21
I0
sba(iArchitecture
Entity
p4338
(dp4339
g11
(lp4340
sg13
S'android.app.SystemServiceRegistry$61'
p4341
sg15
(lp4342
sg17
(lp4343
sg19
(lp4344
sg21
I0
sba(iArchitecture
Entity
p4345
(dp4346
g11
(lp4347
sg13
S'android.app.SystemServiceRegistry$62'
p4348
sg15
(lp4349
sg17
(lp4350
sg19
(lp4351
sg21
I0
sba(iArchitecture
Entity
p4352
(dp4353
g11
(lp4354
sg13
S'android.app.SystemServiceRegistry$63'
p4355
sg15
(lp4356
sg17
(lp4357
sg19
(lp4358
sg21
I0
sba(iArchitecture
Entity
p4359
(dp4360
g11
(lp4361
sg13
S'android.app.SystemServiceRegistry$64'
p4362
sg15
(lp4363
sg17
(lp4364
sg19
(lp4365
sg21
I0
sba(iArchitecture
Entity
p4366
(dp4367
g11
(lp4368
sg13
S'android.app.SystemServiceRegistry$65'
p4369
sg15
(lp4370
sg17
(lp4371
sg19
(lp4372
sg21
I0
sba(iArchitecture
Entity
p4373
(dp4374
g11
(lp4375
sg13
S'android.app.SystemServiceRegistry$66'
p4376
sg15
(lp4377
sg17
(lp4378
sg19
(lp4379
sg21
I0
sba(iArchitecture
Entity
p4380
(dp4381
g11
(lp4382
sg13
S'android.app.SystemServiceRegistry$67'
p4383
sg15
(lp4384
sg17
(lp4385
sg19
(lp4386
sg21
I0
sba(iArchitecture
Entity
p4387
(dp4388
g11
(lp4389
sg13
S'android.app.SystemServiceRegistry$68'
p4390
sg15
(lp4391
sg17
(lp4392
sg19
(lp4393
sg21
I0
sba(iArchitecture
Entity
p4394
(dp4395
g11
(lp4396
sg13
S'android.app.SystemServiceRegistry$69'
p4397
sg15
(lp4398
sg17
(lp4399
sg19
(lp4400
sg21
I0
sba(iArchitecture
Entity
p4401
(dp4402
g11
(lp4403
sg13
S'android.app.SystemServiceRegistry$7'
p4404
sg15
(lp4405
sg17
(lp4406
sg19
(lp4407
sg21
I0
sba(iArchitecture
Entity
p4408
(dp4409
g11
(lp4410
sg13
S'android.app.SystemServiceRegistry$70'
p4411
sg15
(lp4412
sg17
(lp4413
sg19
(lp4414
sg21
I0
sba(iArchitecture
Entity
p4415
(dp4416
g11
(lp4417
sg13
S'android.app.SystemServiceRegistry$71'
p4418
sg15
(lp4419
sg17
(lp4420
sg19
(lp4421
sg21
I0
sba(iArchitecture
Entity
p4422
(dp4423
g11
(lp4424
sg13
S'android.app.SystemServiceRegistry$72'
p4425
sg15
(lp4426
sg17
(lp4427
sg19
(lp4428
sg21
I0
sba(iArchitecture
Entity
p4429
(dp4430
g11
(lp4431
sg13
S'android.app.SystemServiceRegistry$73'
p4432
sg15
(lp4433
sg17
(lp4434
sg19
(lp4435
sg21
I0
sba(iArchitecture
Entity
p4436
(dp4437
g11
(lp4438
sg13
S'android.app.SystemServiceRegistry$74'
p4439
sg15
(lp4440
sg17
(lp4441
sg19
(lp4442
sg21
I0
sba(iArchitecture
Entity
p4443
(dp4444
g11
(lp4445
sg13
S'android.app.SystemServiceRegistry$8'
p4446
sg15
(lp4447
sg17
(lp4448
sg19
(lp4449
sg21
I0
sba(iArchitecture
Entity
p4450
(dp4451
g11
(lp4452
sg13
S'android.app.SystemServiceRegistry$9'
p4453
sg15
(lp4454
sg17
(lp4455
sg19
(lp4456
sg21
I0
sba(iArchitecture
Entity
p4457
(dp4458
g11
(lp4459
sg13
S'android.app.SystemServiceRegistry$CachedServiceFetcher'
p4460
sg15
(lp4461
sg17
(lp4462
sg19
(lp4463
sg21
I0
sba(iArchitecture
Entity
p4464
(dp4465
g11
(lp4466
sg13
S'android.app.SystemServiceRegistry$ServiceFetcher'
p4467
sg15
(lp4468
sg17
(lp4469
sg19
(lp4470
sg21
I0
sba(iArchitecture
Entity
p4471
(dp4472
g11
(lp4473
sg13
S'android.app.SystemServiceRegistry$StaticApplicationContextServiceFetcher'
p4474
sg15
(lp4475
sg17
(lp4476
sg19
(lp4477
sg21
I0
sba(iArchitecture
Entity
p4478
(dp4479
g11
(lp4480
sg13
S'android.app.SystemServiceRegistry$StaticServiceFetcher'
p4481
sg15
(lp4482
sg17
(lp4483
sg19
(lp4484
sg21
I0
sbasg57
(lp4485
g3935
ag3942
ag3949
ag3956
ag3963
ag3970
ag3977
ag3984
ag3991
ag3998
ag4005
ag4012
ag4019
ag4026
ag4033
ag4040
ag4047
ag4054
ag4061
ag4068
ag4075
ag4082
ag4089
ag4096
ag4103
ag4110
ag4117
ag4124
ag4131
ag4138
ag4145
ag4152
ag4159
ag4166
ag4173
ag4180
ag4187
ag4194
ag4201
ag4208
ag4215
ag4222
ag4229
ag4236
ag4243
ag4250
ag4257
ag4264
ag4271
ag4278
ag4285
ag4292
ag4299
ag4306
ag4313
ag4320
ag4327
ag4334
ag4341
ag4348
ag4355
ag4362
ag4369
ag4376
ag4383
ag4390
ag4397
ag4404
ag4411
ag4418
ag4425
ag4432
ag4439
ag4446
ag4453
ag4460
ag4467
ag4474
ag4481
asg21
I0
sg59
S'1232'
p4486
sba(iArchitecture
Cluster
p4487
(dp4488
g7
(lp4489
(iArchitecture
Entity
p4490
(dp4491
g11
(lp4492
sg13
S'android.app.ActivityThread'
p4493
sg15
(lp4494
sg17
(lp4495
sg19
(lp4496
sg21
I0
sba(iArchitecture
Entity
p4497
(dp4498
g11
(lp4499
sg13
S'android.app.ActivityThread$1'
p4500
sg15
(lp4501
sg17
(lp4502
sg19
(lp4503
sg21
I0
sba(iArchitecture
Entity
p4504
(dp4505
g11
(lp4506
sg13
S'android.app.ActivityThread$2'
p4507
sg15
(lp4508
sg17
(lp4509
sg19
(lp4510
sg21
I0
sba(iArchitecture
Entity
p4511
(dp4512
g11
(lp4513
sg13
S'android.app.ActivityThread$3'
p4514
sg15
(lp4515
sg17
(lp4516
sg19
(lp4517
sg21
I0
sba(iArchitecture
Entity
p4518
(dp4519
g11
(lp4520
sg13
S'android.app.ActivityThread$ActivityClientRecord'
p4521
sg15
(lp4522
sg17
(lp4523
sg19
(lp4524
sg21
I0
sba(iArchitecture
Entity
p4525
(dp4526
g11
(lp4527
sg13
S'android.app.ActivityThread$ActivityConfigChangeData'
p4528
sg15
(lp4529
sg17
(lp4530
sg19
(lp4531
sg21
I0
sba(iArchitecture
Entity
p4532
(dp4533
g11
(lp4534
sg13
S'android.app.ActivityThread$AppBindData'
p4535
sg15
(lp4536
sg17
(lp4537
sg19
(lp4538
sg21
I0
sba(iArchitecture
Entity
p4539
(dp4540
g11
(lp4541
sg13
S'android.app.ActivityThread$ApplicationThread'
p4542
sg15
(lp4543
sg17
(lp4544
sg19
(lp4545
sg21
I0
sba(iArchitecture
Entity
p4546
(dp4547
g11
(lp4548
sg13
S'android.app.ActivityThread$ApplicationThread$1'
p4549
sg15
(lp4550
sg17
(lp4551
sg19
(lp4552
sg21
I0
sba(iArchitecture
Entity
p4553
(dp4554
g11
(lp4555
sg13
S'android.app.ActivityThread$BindServiceData'
p4556
sg15
(lp4557
sg17
(lp4558
sg19
(lp4559
sg21
I0
sba(iArchitecture
Entity
p4560
(dp4561
g11
(lp4562
sg13
S'android.app.ActivityThread$ContextCleanupInfo'
p4563
sg15
(lp4564
sg17
(lp4565
sg19
(lp4566
sg21
I0
sba(iArchitecture
Entity
p4567
(dp4568
g11
(lp4569
sg13
S'android.app.ActivityThread$CreateBackupAgentData'
p4570
sg15
(lp4571
sg17
(lp4572
sg19
(lp4573
sg21
I0
sba(iArchitecture
Entity
p4574
(dp4575
g11
(lp4576
sg13
S'android.app.ActivityThread$CreateServiceData'
p4577
sg15
(lp4578
sg17
(lp4579
sg19
(lp4580
sg21
I0
sba(iArchitecture
Entity
p4581
(dp4582
g11
(lp4583
sg13
S'android.app.ActivityThread$DropBoxReporter'
p4584
sg15
(lp4585
sg17
(lp4586
sg19
(lp4587
sg21
I0
sba(iArchitecture
Entity
p4588
(dp4589
g11
(lp4590
sg13
S'android.app.ActivityThread$DumpComponentInfo'
p4591
sg15
(lp4592
sg17
(lp4593
sg19
(lp4594
sg21
I0
sba(iArchitecture
Entity
p4595
(dp4596
g11
(lp4597
sg13
S'android.app.ActivityThread$DumpHeapData'
p4598
sg15
(lp4599
sg17
(lp4600
sg19
(lp4601
sg21
I0
sba(iArchitecture
Entity
p4602
(dp4603
g11
(lp4604
sg13
S'android.app.ActivityThread$EventLoggingReporter'
p4605
sg15
(lp4606
sg17
(lp4607
sg19
(lp4608
sg21
I0
sba(iArchitecture
Entity
p4609
(dp4610
g11
(lp4611
sg13
S'android.app.ActivityThread$GcIdler'
p4612
sg15
(lp4613
sg17
(lp4614
sg19
(lp4615
sg21
I0
sba(iArchitecture
Entity
p4616
(dp4617
g11
(lp4618
sg13
S'android.app.ActivityThread$H'
p4619
sg15
(lp4620
sg17
(lp4621
sg19
(lp4622
sg21
I0
sba(iArchitecture
Entity
p4623
(dp4624
g11
(lp4625
sg13
S'android.app.ActivityThread$Idler'
p4626
sg15
(lp4627
sg17
(lp4628
sg19
(lp4629
sg21
I0
sba(iArchitecture
Entity
p4630
(dp4631
g11
(lp4632
sg13
S'android.app.ActivityThread$NewIntentData'
p4633
sg15
(lp4634
sg17
(lp4635
sg19
(lp4636
sg21
I0
sba(iArchitecture
Entity
p4637
(dp4638
g11
(lp4639
sg13
S'android.app.ActivityThread$Profiler'
p4640
sg15
(lp4641
sg17
(lp4642
sg19
(lp4643
sg21
I0
sba(iArchitecture
Entity
p4644
(dp4645
g11
(lp4646
sg13
S'android.app.ActivityThread$ProviderClientRecord'
p4647
sg15
(lp4648
sg17
(lp4649
sg19
(lp4650
sg21
I0
sba(iArchitecture
Entity
p4651
(dp4652
g11
(lp4653
sg13
S'android.app.ActivityThread$ProviderKey'
p4654
sg15
(lp4655
sg17
(lp4656
sg19
(lp4657
sg21
I0
sba(iArchitecture
Entity
p4658
(dp4659
g11
(lp4660
sg13
S'android.app.ActivityThread$ProviderRefCount'
p4661
sg15
(lp4662
sg17
(lp4663
sg19
(lp4664
sg21
I0
sba(iArchitecture
Entity
p4665
(dp4666
g11
(lp4667
sg13
S'android.app.ActivityThread$ReceiverData'
p4668
sg15
(lp4669
sg17
(lp4670
sg19
(lp4671
sg21
I0
sba(iArchitecture
Entity
p4672
(dp4673
g11
(lp4674
sg13
S'android.app.ActivityThread$RequestAssistContextExtras'
p4675
sg15
(lp4676
sg17
(lp4677
sg19
(lp4678
sg21
I0
sba(iArchitecture
Entity
p4679
(dp4680
g11
(lp4681
sg13
S'android.app.ActivityThread$ResultData'
p4682
sg15
(lp4683
sg17
(lp4684
sg19
(lp4685
sg21
I0
sba(iArchitecture
Entity
p4686
(dp4687
g11
(lp4688
sg13
S'android.app.ActivityThread$ServiceArgsData'
p4689
sg15
(lp4690
sg17
(lp4691
sg19
(lp4692
sg21
I0
sba(iArchitecture
Entity
p4693
(dp4694
g11
(lp4695
sg13
S'android.app.ActivityThread$StopInfo'
p4696
sg15
(lp4697
sg17
(lp4698
sg19
(lp4699
sg21
I0
sba(iArchitecture
Entity
p4700
(dp4701
g11
(lp4702
sg13
S'android.app.ActivityThread$UpdateCompatibilityData'
p4703
sg15
(lp4704
sg17
(lp4705
sg19
(lp4706
sg21
I0
sbasg57
(lp4707
g4493
ag4500
ag4507
ag4514
ag4521
ag4528
ag4535
ag4542
ag4549
ag4556
ag4563
ag4570
ag4577
ag4584
ag4591
ag4598
ag4605
ag4612
ag4619
ag4626
ag4633
ag4640
ag4647
ag4654
ag4661
ag4668
ag4675
ag4682
ag4689
ag4696
ag4703
asg21
I0
sg59
S'1263'
p4708
sba(iArchitecture
Cluster
p4709
(dp4710
g7
(lp4711
(iArchitecture
Entity
p4712
(dp4713
g11
(lp4714
sg13
S'android.app.ActivityTransitionCoordinator'
p4715
sg15
(lp4716
sg17
(lp4717
sg19
(lp4718
sg21
I0
sba(iArchitecture
Entity
p4719
(dp4720
g11
(lp4721
sg13
S'android.app.ActivityTransitionCoordinator$1'
p4722
sg15
(lp4723
sg17
(lp4724
sg19
(lp4725
sg21
I0
sba(iArchitecture
Entity
p4726
(dp4727
g11
(lp4728
sg13
S'android.app.ActivityTransitionCoordinator$2'
p4729
sg15
(lp4730
sg17
(lp4731
sg19
(lp4732
sg21
I0
sba(iArchitecture
Entity
p4733
(dp4734
g11
(lp4735
sg13
S'android.app.ActivityTransitionCoordinator$ContinueTransitionListener'
p4736
sg15
(lp4737
sg17
(lp4738
sg19
(lp4739
sg21
I0
sba(iArchitecture
Entity
p4740
(dp4741
g11
(lp4742
sg13
S'android.app.ActivityTransitionCoordinator$FixedEpicenterCallback'
p4743
sg15
(lp4744
sg17
(lp4745
sg19
(lp4746
sg21
I0
sba(iArchitecture
Entity
p4747
(dp4748
g11
(lp4749
sg13
S'android.app.ActivityTransitionCoordinator$GhostViewListeners'
p4750
sg15
(lp4751
sg17
(lp4752
sg19
(lp4753
sg21
I0
sba(iArchitecture
Entity
p4754
(dp4755
g11
(lp4756
sg13
S'android.app.ActivityTransitionCoordinator$SharedElementOriginalState'
p4757
sg15
(lp4758
sg17
(lp4759
sg19
(lp4760
sg21
I0
sba(iArchitecture
Entity
p4761
(dp4762
g11
(lp4763
sg13
S'android.app.EnterTransitionCoordinator'
p4764
sg15
(lp4765
sg17
(lp4766
sg19
(lp4767
sg21
I0
sba(iArchitecture
Entity
p4768
(dp4769
g11
(lp4770
sg13
S'android.app.EnterTransitionCoordinator$1'
p4771
sg15
(lp4772
sg17
(lp4773
sg19
(lp4774
sg21
I0
sba(iArchitecture
Entity
p4775
(dp4776
g11
(lp4777
sg13
S'android.app.EnterTransitionCoordinator$10'
p4778
sg15
(lp4779
sg17
(lp4780
sg19
(lp4781
sg21
I0
sba(iArchitecture
Entity
p4782
(dp4783
g11
(lp4784
sg13
S'android.app.EnterTransitionCoordinator$11'
p4785
sg15
(lp4786
sg17
(lp4787
sg19
(lp4788
sg21
I0
sba(iArchitecture
Entity
p4789
(dp4790
g11
(lp4791
sg13
S'android.app.EnterTransitionCoordinator$2'
p4792
sg15
(lp4793
sg17
(lp4794
sg19
(lp4795
sg21
I0
sba(iArchitecture
Entity
p4796
(dp4797
g11
(lp4798
sg13
S'android.app.EnterTransitionCoordinator$3'
p4799
sg15
(lp4800
sg17
(lp4801
sg19
(lp4802
sg21
I0
sba(iArchitecture
Entity
p4803
(dp4804
g11
(lp4805
sg13
S'android.app.EnterTransitionCoordinator$4'
p4806
sg15
(lp4807
sg17
(lp4808
sg19
(lp4809
sg21
I0
sba(iArchitecture
Entity
p4810
(dp4811
g11
(lp4812
sg13
S'android.app.EnterTransitionCoordinator$5'
p4813
sg15
(lp4814
sg17
(lp4815
sg19
(lp4816
sg21
I0
sba(iArchitecture
Entity
p4817
(dp4818
g11
(lp4819
sg13
S'android.app.EnterTransitionCoordinator$5$1'
p4820
sg15
(lp4821
sg17
(lp4822
sg19
(lp4823
sg21
I0
sba(iArchitecture
Entity
p4824
(dp4825
g11
(lp4826
sg13
S'android.app.EnterTransitionCoordinator$5$1$1'
p4827
sg15
(lp4828
sg17
(lp4829
sg19
(lp4830
sg21
I0
sba(iArchitecture
Entity
p4831
(dp4832
g11
(lp4833
sg13
S'android.app.EnterTransitionCoordinator$6'
p4834
sg15
(lp4835
sg17
(lp4836
sg19
(lp4837
sg21
I0
sba(iArchitecture
Entity
p4838
(dp4839
g11
(lp4840
sg13
S'android.app.EnterTransitionCoordinator$7'
p4841
sg15
(lp4842
sg17
(lp4843
sg19
(lp4844
sg21
I0
sba(iArchitecture
Entity
p4845
(dp4846
g11
(lp4847
sg13
S'android.app.EnterTransitionCoordinator$8'
p4848
sg15
(lp4849
sg17
(lp4850
sg19
(lp4851
sg21
I0
sba(iArchitecture
Entity
p4852
(dp4853
g11
(lp4854
sg13
S'android.app.EnterTransitionCoordinator$9'
p4855
sg15
(lp4856
sg17
(lp4857
sg19
(lp4858
sg21
I0
sba(iArchitecture
Entity
p4859
(dp4860
g11
(lp4861
sg13
S'android.app.ExitTransitionCoordinator'
p4862
sg15
(lp4863
sg17
(lp4864
sg19
(lp4865
sg21
I0
sba(iArchitecture
Entity
p4866
(dp4867
g11
(lp4868
sg13
S'android.app.ExitTransitionCoordinator$1'
p4869
sg15
(lp4870
sg17
(lp4871
sg19
(lp4872
sg21
I0
sba(iArchitecture
Entity
p4873
(dp4874
g11
(lp4875
sg13
S'android.app.ExitTransitionCoordinator$10'
p4876
sg15
(lp4877
sg17
(lp4878
sg19
(lp4879
sg21
I0
sba(iArchitecture
Entity
p4880
(dp4881
g11
(lp4882
sg13
S'android.app.ExitTransitionCoordinator$11'
p4883
sg15
(lp4884
sg17
(lp4885
sg19
(lp4886
sg21
I0
sba(iArchitecture
Entity
p4887
(dp4888
g11
(lp4889
sg13
S'android.app.ExitTransitionCoordinator$2'
p4890
sg15
(lp4891
sg17
(lp4892
sg19
(lp4893
sg21
I0
sba(iArchitecture
Entity
p4894
(dp4895
g11
(lp4896
sg13
S'android.app.ExitTransitionCoordinator$3'
p4897
sg15
(lp4898
sg17
(lp4899
sg19
(lp4900
sg21
I0
sba(iArchitecture
Entity
p4901
(dp4902
g11
(lp4903
sg13
S'android.app.ExitTransitionCoordinator$4'
p4904
sg15
(lp4905
sg17
(lp4906
sg19
(lp4907
sg21
I0
sba(iArchitecture
Entity
p4908
(dp4909
g11
(lp4910
sg13
S'android.app.ExitTransitionCoordinator$5'
p4911
sg15
(lp4912
sg17
(lp4913
sg19
(lp4914
sg21
I0
sba(iArchitecture
Entity
p4915
(dp4916
g11
(lp4917
sg13
S'android.app.ExitTransitionCoordinator$6'
p4918
sg15
(lp4919
sg17
(lp4920
sg19
(lp4921
sg21
I0
sba(iArchitecture
Entity
p4922
(dp4923
g11
(lp4924
sg13
S'android.app.ExitTransitionCoordinator$7'
p4925
sg15
(lp4926
sg17
(lp4927
sg19
(lp4928
sg21
I0
sba(iArchitecture
Entity
p4929
(dp4930
g11
(lp4931
sg13
S'android.app.ExitTransitionCoordinator$8'
p4932
sg15
(lp4933
sg17
(lp4934
sg19
(lp4935
sg21
I0
sba(iArchitecture
Entity
p4936
(dp4937
g11
(lp4938
sg13
S'android.app.ExitTransitionCoordinator$9'
p4939
sg15
(lp4940
sg17
(lp4941
sg19
(lp4942
sg21
I0
sbasg57
(lp4943
g4715
ag4722
ag4729
ag4736
ag4743
ag4750
ag4757
ag4764
ag4771
ag4778
ag4785
ag4792
ag4799
ag4806
ag4813
ag4820
ag4827
ag4834
ag4841
ag4848
ag4855
ag4862
ag4869
ag4876
ag4883
ag4890
ag4897
ag4904
ag4911
ag4918
ag4925
ag4932
ag4939
asg21
I0
sg59
S'1271'
p4944
sba(iArchitecture
Cluster
p4945
(dp4946
g7
(lp4947
(iArchitecture
Entity
p4948
(dp4949
g11
(lp4950
sg13
S'android.app.UiModeManager'
p4951
sg15
(lp4952
sg17
(lp4953
sg19
(lp4954
sg21
I0
sbasg57
(lp4955
g4951
asg21
I0
sg59
S'1312'
p4956
sba(iArchitecture
Cluster
p4957
(dp4958
g7
(lp4959
(iArchitecture
Entity
p4960
(dp4961
g11
(lp4962
sg13
S'android.app.ExpandableListActivity'
p4963
sg15
(lp4964
sg17
(lp4965
sg19
(lp4966
sg21
I0
sba(iArchitecture
Entity
p4967
(dp4968
g11
(lp4969
sg13
S'android.app.ListActivity'
p4970
sg15
(lp4971
sg17
(lp4972
sg19
(lp4973
sg21
I0
sba(iArchitecture
Entity
p4974
(dp4975
g11
(lp4976
sg13
S'android.app.ListActivity$1'
p4977
sg15
(lp4978
sg17
(lp4979
sg19
(lp4980
sg21
I0
sba(iArchitecture
Entity
p4981
(dp4982
g11
(lp4983
sg13
S'android.app.ListActivity$2'
p4984
sg15
(lp4985
sg17
(lp4986
sg19
(lp4987
sg21
I0
sba(iArchitecture
Entity
p4988
(dp4989
g11
(lp4990
sg13
S'android.app.ListFragment'
p4991
sg15
(lp4992
sg17
(lp4993
sg19
(lp4994
sg21
I0
sba(iArchitecture
Entity
p4995
(dp4996
g11
(lp4997
sg13
S'android.app.ListFragment$1'
p4998
sg15
(lp4999
sg17
(lp5000
sg19
(lp5001
sg21
I0
sba(iArchitecture
Entity
p5002
(dp5003
g11
(lp5004
sg13
S'android.app.ListFragment$2'
p5005
sg15
(lp5006
sg17
(lp5007
sg19
(lp5008
sg21
I0
sba(iArchitecture
Entity
p5009
(dp5010
g11
(lp5011
sg13
S'android.app.OnActivityPausedListener'
p5012
sg15
(lp5013
sg17
(lp5014
sg19
(lp5015
sg21
I0
sba(iArchitecture
Entity
p5016
(dp5017
g11
(lp5018
sg13
S'android.app.SearchDialog'
p5019
sg15
(lp5020
sg17
(lp5021
sg19
(lp5022
sg21
I0
sba(iArchitecture
Entity
p5023
(dp5024
g11
(lp5025
sg13
S'android.app.SearchDialog$1'
p5026
sg15
(lp5027
sg17
(lp5028
sg19
(lp5029
sg21
I0
sba(iArchitecture
Entity
p5030
(dp5031
g11
(lp5032
sg13
S'android.app.SearchDialog$2'
p5033
sg15
(lp5034
sg17
(lp5035
sg19
(lp5036
sg21
I0
sba(iArchitecture
Entity
p5037
(dp5038
g11
(lp5039
sg13
S'android.app.SearchDialog$3'
p5040
sg15
(lp5041
sg17
(lp5042
sg19
(lp5043
sg21
I0
sba(iArchitecture
Entity
p5044
(dp5045
g11
(lp5046
sg13
S'android.app.SearchDialog$4'
p5047
sg15
(lp5048
sg17
(lp5049
sg19
(lp5050
sg21
I0
sba(iArchitecture
Entity
p5051
(dp5052
g11
(lp5053
sg13
S'android.app.SearchDialog$5'
p5054
sg15
(lp5055
sg17
(lp5056
sg19
(lp5057
sg21
I0
sba(iArchitecture
Entity
p5058
(dp5059
g11
(lp5060
sg13
S'android.app.SearchDialog$SearchBar'
p5061
sg15
(lp5062
sg17
(lp5063
sg19
(lp5064
sg21
I0
sba(iArchitecture
Entity
p5065
(dp5066
g11
(lp5067
sg13
S'android.app.WallpaperInfo'
p5068
sg15
(lp5069
sg17
(lp5070
sg19
(lp5071
sg21
I0
sba(iArchitecture
Entity
p5072
(dp5073
g11
(lp5074
sg13
S'android.app.WallpaperInfo$1'
p5075
sg15
(lp5076
sg17
(lp5077
sg19
(lp5078
sg21
I0
sba(iArchitecture
Entity
p5079
(dp5080
g11
(lp5081
sg13
S'android.app.backup.AbsoluteFileBackupHelper'
p5082
sg15
(lp5083
sg17
(lp5084
sg19
(lp5085
sg21
I0
sba(iArchitecture
Entity
p5086
(dp5087
g11
(lp5088
sg13
S'android.app.backup.BackupAgentHelper'
p5089
sg15
(lp5090
sg17
(lp5091
sg19
(lp5092
sg21
I0
sba(iArchitecture
Entity
p5093
(dp5094
g11
(lp5095
sg13
S'android.app.backup.BackupDataInput'
p5096
sg15
(lp5097
sg17
(lp5098
sg19
(lp5099
sg21
I0
sba(iArchitecture
Entity
p5100
(dp5101
g11
(lp5102
sg13
S'android.app.backup.BackupDataInput$EntityHeader'
p5103
sg15
(lp5104
sg17
(lp5105
sg19
(lp5106
sg21
I0
sba(iArchitecture
Entity
p5107
(dp5108
g11
(lp5109
sg13
S'android.app.backup.BackupDataInputStream'
p5110
sg15
(lp5111
sg17
(lp5112
sg19
(lp5113
sg21
I0
sba(iArchitecture
Entity
p5114
(dp5115
g11
(lp5116
sg13
S'android.app.backup.BackupDataOutput'
p5117
sg15
(lp5118
sg17
(lp5119
sg19
(lp5120
sg21
I0
sba(iArchitecture
Entity
p5121
(dp5122
g11
(lp5123
sg13
S'android.app.backup.BackupHelper'
p5124
sg15
(lp5125
sg17
(lp5126
sg19
(lp5127
sg21
I0
sba(iArchitecture
Entity
p5128
(dp5129
g11
(lp5130
sg13
S'android.app.backup.BackupHelperDispatcher'
p5131
sg15
(lp5132
sg17
(lp5133
sg19
(lp5134
sg21
I0
sba(iArchitecture
Entity
p5135
(dp5136
g11
(lp5137
sg13
S'android.app.backup.BackupHelperDispatcher$Header'
p5138
sg15
(lp5139
sg17
(lp5140
sg19
(lp5141
sg21
I0
sba(iArchitecture
Entity
p5142
(dp5143
g11
(lp5144
sg13
S'android.app.backup.BackupProgress'
p5145
sg15
(lp5146
sg17
(lp5147
sg19
(lp5148
sg21
I0
sba(iArchitecture
Entity
p5149
(dp5150
g11
(lp5151
sg13
S'android.app.backup.BackupProgress$1'
p5152
sg15
(lp5153
sg17
(lp5154
sg19
(lp5155
sg21
I0
sba(iArchitecture
Entity
p5156
(dp5157
g11
(lp5158
sg13
S'android.app.backup.BlobBackupHelper'
p5159
sg15
(lp5160
sg17
(lp5161
sg19
(lp5162
sg21
I0
sba(iArchitecture
Entity
p5163
(dp5164
g11
(lp5165
sg13
S'android.app.backup.FileBackupHelper'
p5166
sg15
(lp5167
sg17
(lp5168
sg19
(lp5169
sg21
I0
sba(iArchitecture
Entity
p5170
(dp5171
g11
(lp5172
sg13
S'android.app.backup.FileBackupHelperBase'
p5173
sg15
(lp5174
sg17
(lp5175
sg19
(lp5176
sg21
I0
sba(iArchitecture
Entity
p5177
(dp5178
g11
(lp5179
sg13
S'android.app.backup.FullBackupAgent'
p5180
sg15
(lp5181
sg17
(lp5182
sg19
(lp5183
sg21
I0
sba(iArchitecture
Entity
p5184
(dp5185
g11
(lp5186
sg13
S'android.app.backup.SharedPreferencesBackupHelper'
p5187
sg15
(lp5188
sg17
(lp5189
sg19
(lp5190
sg21
I0
sba(iArchitecture
Entity
p5191
(dp5192
g11
(lp5193
sg13
S'android.app.backup.WallpaperBackupHelper'
p5194
sg15
(lp5195
sg17
(lp5196
sg19
(lp5197
sg21
I0
sba(iArchitecture
Entity
p5198
(dp5199
g11
(lp5200
sg13
S'android.app.job.JobService'
p5201
sg15
(lp5202
sg17
(lp5203
sg19
(lp5204
sg21
I0
sba(iArchitecture
Entity
p5205
(dp5206
g11
(lp5207
sg13
S'android.app.job.JobService$JobHandler'
p5208
sg15
(lp5209
sg17
(lp5210
sg19
(lp5211
sg21
I0
sba(iArchitecture
Entity
p5212
(dp5213
g11
(lp5214
sg13
S'android.app.job.JobService$JobInterface'
p5215
sg15
(lp5216
sg17
(lp5217
sg19
(lp5218
sg21
I0
sba(iArchitecture
Entity
p5219
(dp5220
g11
(lp5221
sg13
S'android.app.usage.TimeSparseArray'
p5222
sg15
(lp5223
sg17
(lp5224
sg19
(lp5225
sg21
I0
sbasg57
(lp5226
g4963
ag4970
ag4977
ag4984
ag4991
ag4998
ag5005
ag5012
ag5019
ag5026
ag5033
ag5040
ag5047
ag5054
ag5061
ag5068
ag5075
ag5082
ag5089
ag5096
ag5103
ag5110
ag5117
ag5124
ag5131
ag5138
ag5145
ag5152
ag5159
ag5166
ag5173
ag5180
ag5187
ag5194
ag5201
ag5208
ag5215
ag5222
asg21
I0
sg59
S'1330'
p5227
sba(iArchitecture
Cluster
p5228
(dp5229
g7
(lp5230
(iArchitecture
Entity
p5231
(dp5232
g11
(lp5233
sg13
S'android.app.AppGlobals'
p5234
sg15
(lp5235
sg17
(lp5236
sg19
(lp5237
sg21
I0
sba(iArchitecture
Entity
p5238
(dp5239
g11
(lp5240
sg13
S'android.app.FragmentContainer'
p5241
sg15
(lp5242
sg17
(lp5243
sg19
(lp5244
sg21
I0
sba(iArchitecture
Entity
p5245
(dp5246
g11
(lp5247
sg13
S'android.app.PackageDeleteObserver'
p5248
sg15
(lp5249
sg17
(lp5250
sg19
(lp5251
sg21
I0
sba(iArchitecture
Entity
p5252
(dp5253
g11
(lp5254
sg13
S'android.app.PackageDeleteObserver$1'
p5255
sg15
(lp5256
sg17
(lp5257
sg19
(lp5258
sg21
I0
sba(iArchitecture
Entity
p5259
(dp5260
g11
(lp5261
sg13
S'android.app.PackageInstallObserver'
p5262
sg15
(lp5263
sg17
(lp5264
sg19
(lp5265
sg21
I0
sba(iArchitecture
Entity
p5266
(dp5267
g11
(lp5268
sg13
S'android.app.PackageInstallObserver$1'
p5269
sg15
(lp5270
sg17
(lp5271
sg19
(lp5272
sg21
I0
sbasg57
(lp5273
g5234
ag5241
ag5248
ag5255
ag5262
ag5269
asg21
I0
sg59
S'1331'
p5274
sba(iArchitecture
Cluster
p5275
(dp5276
g7
(lp5277
(iArchitecture
Entity
p5278
(dp5279
g11
(lp5280
sg13
S'android.app.PendingIntent'
p5281
sg15
(lp5282
sg17
(lp5283
sg19
(lp5284
sg21
I0
sba(iArchitecture
Entity
p5285
(dp5286
g11
(lp5287
sg13
S'android.app.PendingIntent$1'
p5288
sg15
(lp5289
sg17
(lp5290
sg19
(lp5291
sg21
I0
sba(iArchitecture
Entity
p5292
(dp5293
g11
(lp5294
sg13
S'android.app.PendingIntent$CanceledException'
p5295
sg15
(lp5296
sg17
(lp5297
sg19
(lp5298
sg21
I0
sba(iArchitecture
Entity
p5299
(dp5300
g11
(lp5301
sg13
S'android.app.PendingIntent$FinishedDispatcher'
p5302
sg15
(lp5303
sg17
(lp5304
sg19
(lp5305
sg21
I0
sba(iArchitecture
Entity
p5306
(dp5307
g11
(lp5308
sg13
S'android.app.PendingIntent$OnFinished'
p5309
sg15
(lp5310
sg17
(lp5311
sg19
(lp5312
sg21
I0
sba(iArchitecture
Entity
p5313
(dp5314
g11
(lp5315
sg13
S'android.app.PendingIntent$OnMarshaledListener'
p5316
sg15
(lp5317
sg17
(lp5318
sg19
(lp5319
sg21
I0
sbasg57
(lp5320
g5281
ag5288
ag5295
ag5302
ag5309
ag5316
asg21
I0
sg59
S'1353'
p5321
sba(iArchitecture
Cluster
p5322
(dp5323
g7
(lp5324
(iArchitecture
Entity
p5325
(dp5326
g11
(lp5327
sg13
S'android.app.backup.BackupAgent'
p5328
sg15
(lp5329
sg17
(lp5330
sg19
(lp5331
sg21
I0
sba(iArchitecture
Entity
p5332
(dp5333
g11
(lp5334
sg13
S'android.app.backup.BackupAgent$BackupServiceBinder'
p5335
sg15
(lp5336
sg17
(lp5337
sg19
(lp5338
sg21
I0
sba(iArchitecture
Entity
p5339
(dp5340
g11
(lp5341
sg13
S'android.app.backup.BackupAgent$FailRunnable'
p5342
sg15
(lp5343
sg17
(lp5344
sg19
(lp5345
sg21
I0
sba(iArchitecture
Entity
p5346
(dp5347
g11
(lp5348
sg13
S'android.app.backup.BackupAgent$SharedPrefsSynchronizer'
p5349
sg15
(lp5350
sg17
(lp5351
sg19
(lp5352
sg21
I0
sba(iArchitecture
Entity
p5353
(dp5354
g11
(lp5355
sg13
S'android.app.backup.BackupManager'
p5356
sg15
(lp5357
sg17
(lp5358
sg19
(lp5359
sg21
I0
sba(iArchitecture
Entity
p5360
(dp5361
g11
(lp5362
sg13
S'android.app.backup.BackupManager$BackupObserverWrapper'
p5363
sg15
(lp5364
sg17
(lp5365
sg19
(lp5366
sg21
I0
sba(iArchitecture
Entity
p5367
(dp5368
g11
(lp5369
sg13
S'android.app.backup.BackupManager$BackupObserverWrapper$1'
p5370
sg15
(lp5371
sg17
(lp5372
sg19
(lp5373
sg21
I0
sba(iArchitecture
Entity
p5374
(dp5375
g11
(lp5376
sg13
S'android.app.backup.BackupTransport'
p5377
sg15
(lp5378
sg17
(lp5379
sg19
(lp5380
sg21
I0
sba(iArchitecture
Entity
p5381
(dp5382
g11
(lp5383
sg13
S'android.app.backup.BackupTransport$TransportImpl'
p5384
sg15
(lp5385
sg17
(lp5386
sg19
(lp5387
sg21
I0
sba(iArchitecture
Entity
p5388
(dp5389
g11
(lp5390
sg13
S'android.app.backup.FullBackup'
p5391
sg15
(lp5392
sg17
(lp5393
sg19
(lp5394
sg21
I0
sba(iArchitecture
Entity
p5395
(dp5396
g11
(lp5397
sg13
S'android.app.backup.FullBackup$BackupScheme'
p5398
sg15
(lp5399
sg17
(lp5400
sg19
(lp5401
sg21
I0
sba(iArchitecture
Entity
p5402
(dp5403
g11
(lp5404
sg13
S'android.app.backup.RestoreSession'
p5405
sg15
(lp5406
sg17
(lp5407
sg19
(lp5408
sg21
I0
sba(iArchitecture
Entity
p5409
(dp5410
g11
(lp5411
sg13
S'android.app.backup.RestoreSession$RestoreObserverWrapper'
p5412
sg15
(lp5413
sg17
(lp5414
sg19
(lp5415
sg21
I0
sba(iArchitecture
Entity
p5416
(dp5417
g11
(lp5418
sg13
S'android.app.backup.RestoreSession$RestoreObserverWrapper$1'
p5419
sg15
(lp5420
sg17
(lp5421
sg19
(lp5422
sg21
I0
sbasg57
(lp5423
g5328
ag5335
ag5342
ag5349
ag5356
ag5363
ag5370
ag5377
ag5384
ag5391
ag5398
ag5405
ag5412
ag5419
asg21
I0
sg59
S'1360'
p5424
sba(iArchitecture
Cluster
p5425
(dp5426
g7
(lp5427
(iArchitecture
Entity
p5428
(dp5429
g11
(lp5430
sg13
S'android.app.MediaRouteActionProvider'
p5431
sg15
(lp5432
sg17
(lp5433
sg19
(lp5434
sg21
I0
sba(iArchitecture
Entity
p5435
(dp5436
g11
(lp5437
sg13
S'android.app.MediaRouteActionProvider$MediaRouterCallback'
p5438
sg15
(lp5439
sg17
(lp5440
sg19
(lp5441
sg21
I0
sba(iArchitecture
Entity
p5442
(dp5443
g11
(lp5444
sg13
S'android.app.MediaRouteButton'
p5445
sg15
(lp5446
sg17
(lp5447
sg19
(lp5448
sg21
I0
sba(iArchitecture
Entity
p5449
(dp5450
g11
(lp5451
sg13
S'android.app.MediaRouteButton$MediaRouterCallback'
p5452
sg15
(lp5453
sg17
(lp5454
sg19
(lp5455
sg21
I0
sbasg57
(lp5456
g5431
ag5438
ag5445
ag5452
asg21
I0
sg59
S'1361'
p5457
sba(iArchitecture
Cluster
p5458
(dp5459
g7
(lp5460
(iArchitecture
Entity
p5461
(dp5462
g11
(lp5463
sg13
S'android.app.AutomaticZenRule'
p5464
sg15
(lp5465
sg17
(lp5466
sg19
(lp5467
sg21
I0
sba(iArchitecture
Entity
p5468
(dp5469
g11
(lp5470
sg13
S'android.app.AutomaticZenRule$1'
p5471
sg15
(lp5472
sg17
(lp5473
sg19
(lp5474
sg21
I0
sbasg57
(lp5475
g5464
ag5471
asg21
I0
sg59
S'1362'
p5476
sba(iArchitecture
Cluster
p5477
(dp5478
g7
(lp5479
(iArchitecture
Entity
p5480
(dp5481
g11
(lp5482
sg13
S'android.app.WallpaperManager'
p5483
sg15
(lp5484
sg17
(lp5485
sg19
(lp5486
sg21
I0
sba(iArchitecture
Entity
p5487
(dp5488
g11
(lp5489
sg13
S'android.app.WallpaperManager$FastBitmapDrawable'
p5490
sg15
(lp5491
sg17
(lp5492
sg19
(lp5493
sg21
I0
sba(iArchitecture
Entity
p5494
(dp5495
g11
(lp5496
sg13
S'android.app.WallpaperManager$Globals'
p5497
sg15
(lp5498
sg17
(lp5499
sg19
(lp5500
sg21
I0
sba(iArchitecture
Entity
p5501
(dp5502
g11
(lp5503
sg13
S'android.app.WallpaperManager$WallpaperSetCompletion'
p5504
sg15
(lp5505
sg17
(lp5506
sg19
(lp5507
sg21
I0
sbasg57
(lp5508
g5483
ag5490
ag5497
ag5504
asg21
I0
sg59
S'1368'
p5509
sba(iArchitecture
Cluster
p5510
(dp5511
g7
(lp5512
(iArchitecture
Entity
p5513
(dp5514
g11
(lp5515
sg13
S'android.app.UiAutomationConnection'
p5516
sg15
(lp5517
sg17
(lp5518
sg19
(lp5519
sg21
I0
sba(iArchitecture
Entity
p5520
(dp5521
g11
(lp5522
sg13
S'android.app.UiAutomationConnection$1'
p5523
sg15
(lp5524
sg17
(lp5525
sg19
(lp5526
sg21
I0
sbasg57
(lp5527
g5516
ag5523
asg21
I0
sg59
S'1380'
p5528
sba(iArchitecture
Cluster
p5529
(dp5530
g7
(lp5531
(iArchitecture
Entity
p5532
(dp5533
g11
(lp5534
sg13
S'android.app.ActivityManagerInternal'
p5535
sg15
(lp5536
sg17
(lp5537
sg19
(lp5538
sg21
I0
sba(iArchitecture
Entity
p5539
(dp5540
g11
(lp5541
sg13
S'android.app.ActivityManagerInternal$SleepToken'
p5542
sg15
(lp5543
sg17
(lp5544
sg19
(lp5545
sg21
I0
sba(iArchitecture
Entity
p5546
(dp5547
g11
(lp5548
sg13
S'android.app.JobSchedulerImpl'
p5549
sg15
(lp5550
sg17
(lp5551
sg19
(lp5552
sg21
I0
sba(iArchitecture
Entity
p5553
(dp5554
g11
(lp5555
sg13
S'android.app.ProfilerInfo'
p5556
sg15
(lp5557
sg17
(lp5558
sg19
(lp5559
sg21
I0
sba(iArchitecture
Entity
p5560
(dp5561
g11
(lp5562
sg13
S'android.app.ProfilerInfo$1'
p5563
sg15
(lp5564
sg17
(lp5565
sg19
(lp5566
sg21
I0
sba(iArchitecture
Entity
p5567
(dp5568
g11
(lp5569
sg13
S'android.app.ResultInfo'
p5570
sg15
(lp5571
sg17
(lp5572
sg19
(lp5573
sg21
I0
sba(iArchitecture
Entity
p5574
(dp5575
g11
(lp5576
sg13
S'android.app.ResultInfo$1'
p5577
sg15
(lp5578
sg17
(lp5579
sg19
(lp5580
sg21
I0
sba(iArchitecture
Entity
p5581
(dp5582
g11
(lp5583
sg13
S'android.app.admin.DevicePolicyManagerInternal'
p5584
sg15
(lp5585
sg17
(lp5586
sg19
(lp5587
sg21
I0
sba(iArchitecture
Entity
p5588
(dp5589
g11
(lp5590
sg13
S'android.app.admin.DevicePolicyManagerInternal$OnCrossProfileWidgetProvidersChangeListener'
p5591
sg15
(lp5592
sg17
(lp5593
sg19
(lp5594
sg21
I0
sba(iArchitecture
Entity
p5595
(dp5596
g11
(lp5597
sg13
S'android.app.backup.RestoreDescription'
p5598
sg15
(lp5599
sg17
(lp5600
sg19
(lp5601
sg21
I0
sba(iArchitecture
Entity
p5602
(dp5603
g11
(lp5604
sg13
S'android.app.backup.RestoreDescription$1'
p5605
sg15
(lp5606
sg17
(lp5607
sg19
(lp5608
sg21
I0
sba(iArchitecture
Entity
p5609
(dp5610
g11
(lp5611
sg13
S'android.app.backup.RestoreObserver'
p5612
sg15
(lp5613
sg17
(lp5614
sg19
(lp5615
sg21
I0
sba(iArchitecture
Entity
p5616
(dp5617
g11
(lp5618
sg13
S'android.app.backup.RestoreSet'
p5619
sg15
(lp5620
sg17
(lp5621
sg19
(lp5622
sg21
I0
sba(iArchitecture
Entity
p5623
(dp5624
g11
(lp5625
sg13
S'android.app.backup.RestoreSet$1'
p5626
sg15
(lp5627
sg17
(lp5628
sg19
(lp5629
sg21
I0
sbasg57
(lp5630
g5535
ag5542
ag5549
ag5556
ag5563
ag5570
ag5577
ag5584
ag5591
ag5598
ag5605
ag5612
ag5619
ag5626
asg21
I0
sg59
S'1384'
p5631
sba(iArchitecture
Cluster
p5632
(dp5633
g7
(lp5634
(iArchitecture
Entity
p5635
(dp5636
g11
(lp5637
sg13
S'android.app.BackStackRecord'
p5638
sg15
(lp5639
sg17
(lp5640
sg19
(lp5641
sg21
I0
sba(iArchitecture
Entity
p5642
(dp5643
g11
(lp5644
sg13
S'android.app.BackStackRecord$1'
p5645
sg15
(lp5646
sg17
(lp5647
sg19
(lp5648
sg21
I0
sba(iArchitecture
Entity
p5649
(dp5650
g11
(lp5651
sg13
S'android.app.BackStackRecord$2'
p5652
sg15
(lp5653
sg17
(lp5654
sg19
(lp5655
sg21
I0
sba(iArchitecture
Entity
p5656
(dp5657
g11
(lp5658
sg13
S'android.app.BackStackRecord$3'
p5659
sg15
(lp5660
sg17
(lp5661
sg19
(lp5662
sg21
I0
sba(iArchitecture
Entity
p5663
(dp5664
g11
(lp5665
sg13
S'android.app.BackStackRecord$4'
p5666
sg15
(lp5667
sg17
(lp5668
sg19
(lp5669
sg21
I0
sba(iArchitecture
Entity
p5670
(dp5671
g11
(lp5672
sg13
S'android.app.BackStackRecord$Op'
p5673
sg15
(lp5674
sg17
(lp5675
sg19
(lp5676
sg21
I0
sba(iArchitecture
Entity
p5677
(dp5678
g11
(lp5679
sg13
S'android.app.BackStackRecord$TransitionState'
p5680
sg15
(lp5681
sg17
(lp5682
sg19
(lp5683
sg21
I0
sba(iArchitecture
Entity
p5684
(dp5685
g11
(lp5686
sg13
S'android.app.DialogFragment'
p5687
sg15
(lp5688
sg17
(lp5689
sg19
(lp5690
sg21
I0
sba(iArchitecture
Entity
p5691
(dp5692
g11
(lp5693
sg13
S'android.app.Fragment'
p5694
sg15
(lp5695
sg17
(lp5696
sg19
(lp5697
sg21
I0
sba(iArchitecture
Entity
p5698
(dp5699
g11
(lp5700
sg13
S'android.app.Fragment$1'
p5701
sg15
(lp5702
sg17
(lp5703
sg19
(lp5704
sg21
I0
sba(iArchitecture
Entity
p5705
(dp5706
g11
(lp5707
sg13
S'android.app.Fragment$InstantiationException'
p5708
sg15
(lp5709
sg17
(lp5710
sg19
(lp5711
sg21
I0
sba(iArchitecture
Entity
p5712
(dp5713
g11
(lp5714
sg13
S'android.app.Fragment$SavedState'
p5715
sg15
(lp5716
sg17
(lp5717
sg19
(lp5718
sg21
I0
sba(iArchitecture
Entity
p5719
(dp5720
g11
(lp5721
sg13
S'android.app.Fragment$SavedState$1'
p5722
sg15
(lp5723
sg17
(lp5724
sg19
(lp5725
sg21
I0
sba(iArchitecture
Entity
p5726
(dp5727
g11
(lp5728
sg13
S'android.app.FragmentBreadCrumbs'
p5729
sg15
(lp5730
sg17
(lp5731
sg19
(lp5732
sg21
I0
sba(iArchitecture
Entity
p5733
(dp5734
g11
(lp5735
sg13
S'android.app.FragmentBreadCrumbs$1'
p5736
sg15
(lp5737
sg17
(lp5738
sg19
(lp5739
sg21
I0
sba(iArchitecture
Entity
p5740
(dp5741
g11
(lp5742
sg13
S'android.app.FragmentBreadCrumbs$OnBreadCrumbClickListener'
p5743
sg15
(lp5744
sg17
(lp5745
sg19
(lp5746
sg21
I0
sba(iArchitecture
Entity
p5747
(dp5748
g11
(lp5749
sg13
S'android.app.FragmentManager'
p5750
sg15
(lp5751
sg17
(lp5752
sg19
(lp5753
sg21
I0
sba(iArchitecture
Entity
p5754
(dp5755
g11
(lp5756
sg13
S'android.app.FragmentManager$BackStackEntry'
p5757
sg15
(lp5758
sg17
(lp5759
sg19
(lp5760
sg21
I0
sba(iArchitecture
Entity
p5761
(dp5762
g11
(lp5763
sg13
S'android.app.FragmentManager$OnBackStackChangedListener'
p5764
sg15
(lp5765
sg17
(lp5766
sg19
(lp5767
sg21
I0
sba(iArchitecture
Entity
p5768
(dp5769
g11
(lp5770
sg13
S'android.app.FragmentTransaction'
p5771
sg15
(lp5772
sg17
(lp5773
sg19
(lp5774
sg21
I0
sbasg57
(lp5775
g5638
ag5645
ag5652
ag5659
ag5666
ag5673
ag5680
ag5687
ag5694
ag5701
ag5708
ag5715
ag5722
ag5729
ag5736
ag5743
ag5750
ag5757
ag5764
ag5771
asg21
I0
sg59
S'1393'
p5776
sba(iArchitecture
Cluster
p5777
(dp5778
g7
(lp5779
(iArchitecture
Entity
p5780
(dp5781
g11
(lp5782
sg13
S'android.app.TabActivity'
p5783
sg15
(lp5784
sg17
(lp5785
sg19
(lp5786
sg21
I0
sba(iArchitecture
Entity
p5787
(dp5788
g11
(lp5789
sg13
S'android.app.admin.SecurityLog'
p5790
sg15
(lp5791
sg17
(lp5792
sg19
(lp5793
sg21
I0
sba(iArchitecture
Entity
p5794
(dp5795
g11
(lp5796
sg13
S'android.app.admin.SecurityLog$SecurityEvent'
p5797
sg15
(lp5798
sg17
(lp5799
sg19
(lp5800
sg21
I0
sba(iArchitecture
Entity
p5801
(dp5802
g11
(lp5803
sg13
S'android.app.admin.SecurityLog$SecurityEvent$1'
p5804
sg15
(lp5805
sg17
(lp5806
sg19
(lp5807
sg21
I0
sbasg57
(lp5808
g5783
ag5790
ag5797
ag5804
asg21
I0
sg59
S'1396'
p5809
sba(iArchitecture
Cluster
p5810
(dp5811
g7
(lp5812
(iArchitecture
Entity
p5813
(dp5814
g11
(lp5815
sg13
S'android.app.Dialog'
p5816
sg15
(lp5817
sg17
(lp5818
sg19
(lp5819
sg21
I0
sba(iArchitecture
Entity
p5820
(dp5821
g11
(lp5822
sg13
S'android.app.Dialog$ListenersHandler'
p5823
sg15
(lp5824
sg17
(lp5825
sg19
(lp5826
sg21
I0
sba(iArchitecture
Entity
p5827
(dp5828
g11
(lp5829
sg13
S'android.app.Dialog$_void__init__android_content_Context_context_int_themeResId_boolean_createContextThemeWrapper_LambdaImpl0'
p5830
sg15
(lp5831
sg17
(lp5832
sg19
(lp5833
sg21
I0
sba(iArchitecture
Entity
p5834
(dp5835
g11
(lp5836
sg13
S'android.app.DownloadManager'
p5837
sg15
(lp5838
sg17
(lp5839
sg19
(lp5840
sg21
I0
sba(iArchitecture
Entity
p5841
(dp5842
g11
(lp5843
sg13
S'android.app.DownloadManager$CursorTranslator'
p5844
sg15
(lp5845
sg17
(lp5846
sg19
(lp5847
sg21
I0
sba(iArchitecture
Entity
p5848
(dp5849
g11
(lp5850
sg13
S'android.app.DownloadManager$Query'
p5851
sg15
(lp5852
sg17
(lp5853
sg19
(lp5854
sg21
I0
sba(iArchitecture
Entity
p5855
(dp5856
g11
(lp5857
sg13
S'android.app.DownloadManager$Request'
p5858
sg15
(lp5859
sg17
(lp5860
sg19
(lp5861
sg21
I0
sba(iArchitecture
Entity
p5862
(dp5863
g11
(lp5864
sg13
S'android.app.KeyguardManager'
p5865
sg15
(lp5866
sg17
(lp5867
sg19
(lp5868
sg21
I0
sba(iArchitecture
Entity
p5869
(dp5870
g11
(lp5871
sg13
S'android.app.KeyguardManager$1'
p5872
sg15
(lp5873
sg17
(lp5874
sg19
(lp5875
sg21
I0
sba(iArchitecture
Entity
p5876
(dp5877
g11
(lp5878
sg13
S'android.app.KeyguardManager$KeyguardLock'
p5879
sg15
(lp5880
sg17
(lp5881
sg19
(lp5882
sg21
I0
sba(iArchitecture
Entity
p5883
(dp5884
g11
(lp5885
sg13
S'android.app.KeyguardManager$OnKeyguardExitResult'
p5886
sg15
(lp5887
sg17
(lp5888
sg19
(lp5889
sg21
I0
sba(iArchitecture
Entity
p5890
(dp5891
g11
(lp5892
sg13
S'android.app.LauncherActivity'
p5893
sg15
(lp5894
sg17
(lp5895
sg19
(lp5896
sg21
I0
sba(iArchitecture
Entity
p5897
(dp5898
g11
(lp5899
sg13
S'android.app.LauncherActivity$1'
p5900
sg15
(lp5901
sg17
(lp5902
sg19
(lp5903
sg21
I0
sba(iArchitecture
Entity
p5904
(dp5905
g11
(lp5906
sg13
S'android.app.LauncherActivity$ActivityAdapter'
p5907
sg15
(lp5908
sg17
(lp5909
sg19
(lp5910
sg21
I0
sba(iArchitecture
Entity
p5911
(dp5912
g11
(lp5913
sg13
S'android.app.LauncherActivity$ActivityAdapter$ArrayFilter'
p5914
sg15
(lp5915
sg17
(lp5916
sg19
(lp5917
sg21
I0
sba(iArchitecture
Entity
p5918
(dp5919
g11
(lp5920
sg13
S'android.app.LauncherActivity$IconResizer'
p5921
sg15
(lp5922
sg17
(lp5923
sg19
(lp5924
sg21
I0
sba(iArchitecture
Entity
p5925
(dp5926
g11
(lp5927
sg13
S'android.app.LauncherActivity$ListItem'
p5928
sg15
(lp5929
sg17
(lp5930
sg19
(lp5931
sg21
I0
sba(iArchitecture
Entity
p5932
(dp5933
g11
(lp5934
sg13
S'android.app.Service'
p5935
sg15
(lp5936
sg17
(lp5937
sg19
(lp5938
sg21
I0
sba(iArchitecture
Entity
p5939
(dp5940
g11
(lp5941
sg13
S'android.app.VoiceInteractor'
p5942
sg15
(lp5943
sg17
(lp5944
sg19
(lp5945
sg21
I0
sba(iArchitecture
Entity
p5946
(dp5947
g11
(lp5948
sg13
S'android.app.VoiceInteractor$1'
p5949
sg15
(lp5950
sg17
(lp5951
sg19
(lp5952
sg21
I0
sba(iArchitecture
Entity
p5953
(dp5954
g11
(lp5955
sg13
S'android.app.VoiceInteractor$2'
p5956
sg15
(lp5957
sg17
(lp5958
sg19
(lp5959
sg21
I0
sba(iArchitecture
Entity
p5960
(dp5961
g11
(lp5962
sg13
S'android.app.VoiceInteractor$AbortVoiceRequest'
p5963
sg15
(lp5964
sg17
(lp5965
sg19
(lp5966
sg21
I0
sba(iArchitecture
Entity
p5967
(dp5968
g11
(lp5969
sg13
S'android.app.VoiceInteractor$CommandRequest'
p5970
sg15
(lp5971
sg17
(lp5972
sg19
(lp5973
sg21
I0
sba(iArchitecture
Entity
p5974
(dp5975
g11
(lp5976
sg13
S'android.app.VoiceInteractor$CompleteVoiceRequest'
p5977
sg15
(lp5978
sg17
(lp5979
sg19
(lp5980
sg21
I0
sba(iArchitecture
Entity
p5981
(dp5982
g11
(lp5983
sg13
S'android.app.VoiceInteractor$ConfirmationRequest'
p5984
sg15
(lp5985
sg17
(lp5986
sg19
(lp5987
sg21
I0
sba(iArchitecture
Entity
p5988
(dp5989
g11
(lp5990
sg13
S'android.app.VoiceInteractor$PickOptionRequest'
p5991
sg15
(lp5992
sg17
(lp5993
sg19
(lp5994
sg21
I0
sba(iArchitecture
Entity
p5995
(dp5996
g11
(lp5997
sg13
S'android.app.VoiceInteractor$PickOptionRequest$Option'
p5998
sg15
(lp5999
sg17
(lp6000
sg19
(lp6001
sg21
I0
sba(iArchitecture
Entity
p6002
(dp6003
g11
(lp6004
sg13
S'android.app.VoiceInteractor$PickOptionRequest$Option$1'
p6005
sg15
(lp6006
sg17
(lp6007
sg19
(lp6008
sg21
I0
sba(iArchitecture
Entity
p6009
(dp6010
g11
(lp6011
sg13
S'android.app.VoiceInteractor$Prompt'
p6012
sg15
(lp6013
sg17
(lp6014
sg19
(lp6015
sg21
I0
sba(iArchitecture
Entity
p6016
(dp6017
g11
(lp6018
sg13
S'android.app.VoiceInteractor$Prompt$1'
p6019
sg15
(lp6020
sg17
(lp6021
sg19
(lp6022
sg21
I0
sba(iArchitecture
Entity
p6023
(dp6024
g11
(lp6025
sg13
S'android.app.VoiceInteractor$Request'
p6026
sg15
(lp6027
sg17
(lp6028
sg19
(lp6029
sg21
I0
sba(iArchitecture
Entity
p6030
(dp6031
g11
(lp6032
sg13
S'android.app.usage.UsageEvents'
p6033
sg15
(lp6034
sg17
(lp6035
sg19
(lp6036
sg21
I0
sba(iArchitecture
Entity
p6037
(dp6038
g11
(lp6039
sg13
S'android.app.usage.UsageEvents$1'
p6040
sg15
(lp6041
sg17
(lp6042
sg19
(lp6043
sg21
I0
sba(iArchitecture
Entity
p6044
(dp6045
g11
(lp6046
sg13
S'android.app.usage.UsageEvents$Event'
p6047
sg15
(lp6048
sg17
(lp6049
sg19
(lp6050
sg21
I0
sba(iArchitecture
Entity
p6051
(dp6052
g11
(lp6053
sg13
S'android.appwidget.AppWidgetHost'
p6054
sg15
(lp6055
sg17
(lp6056
sg19
(lp6057
sg21
I0
sba(iArchitecture
Entity
p6058
(dp6059
g11
(lp6060
sg13
S'android.appwidget.AppWidgetHost$Callbacks'
p6061
sg15
(lp6062
sg17
(lp6063
sg19
(lp6064
sg21
I0
sba(iArchitecture
Entity
p6065
(dp6066
g11
(lp6067
sg13
S'android.appwidget.AppWidgetHost$UpdateHandler'
p6068
sg15
(lp6069
sg17
(lp6070
sg19
(lp6071
sg21
I0
sba(iArchitecture
Entity
p6072
(dp6073
g11
(lp6074
sg13
S'android.appwidget.AppWidgetHostView'
p6075
sg15
(lp6076
sg17
(lp6077
sg19
(lp6078
sg21
I0
sba(iArchitecture
Entity
p6079
(dp6080
g11
(lp6081
sg13
S'android.appwidget.AppWidgetHostView$1'
p6082
sg15
(lp6083
sg17
(lp6084
sg19
(lp6085
sg21
I0
sba(iArchitecture
Entity
p6086
(dp6087
g11
(lp6088
sg13
S'android.appwidget.AppWidgetHostView$ParcelableSparseArray'
p6089
sg15
(lp6090
sg17
(lp6091
sg19
(lp6092
sg21
I0
sba(iArchitecture
Entity
p6093
(dp6094
g11
(lp6095
sg13
S'android.appwidget.AppWidgetHostView$ParcelableSparseArray$1'
p6096
sg15
(lp6097
sg17
(lp6098
sg19
(lp6099
sg21
I0
sba(iArchitecture
Entity
p6100
(dp6101
g11
(lp6102
sg13
S'android.appwidget.AppWidgetHostView$ViewApplyListener'
p6103
sg15
(lp6104
sg17
(lp6105
sg19
(lp6106
sg21
I0
sbasg57
(lp6107
g5816
ag5823
ag5830
ag5837
ag5844
ag5851
ag5858
ag5865
ag5872
ag5879
ag5886
ag5893
ag5900
ag5907
ag5914
ag5921
ag5928
ag5935
ag5942
ag5949
ag5956
ag5963
ag5970
ag5977
ag5984
ag5991
ag5998
ag6005
ag6012
ag6019
ag6026
ag6033
ag6040
ag6047
ag6054
ag6061
ag6068
ag6075
ag6082
ag6089
ag6096
ag6103
asg21
I0
sg59
S'1401'
p6108
sba(iArchitecture
Cluster
p6109
(dp6110
g7
(lp6111
(iArchitecture
Entity
p6112
(dp6113
g11
(lp6114
sg13
S'android.app.Notification'
p6115
sg15
(lp6116
sg17
(lp6117
sg19
(lp6118
sg21
I0
sba(iArchitecture
Entity
p6119
(dp6120
g11
(lp6121
sg13
S'android.app.Notification$1'
p6122
sg15
(lp6123
sg17
(lp6124
sg19
(lp6125
sg21
I0
sba(iArchitecture
Entity
p6126
(dp6127
g11
(lp6128
sg13
S'android.app.Notification$Action'
p6129
sg15
(lp6130
sg17
(lp6131
sg19
(lp6132
sg21
I0
sba(iArchitecture
Entity
p6133
(dp6134
g11
(lp6135
sg13
S'android.app.Notification$Action$1'
p6136
sg15
(lp6137
sg17
(lp6138
sg19
(lp6139
sg21
I0
sba(iArchitecture
Entity
p6140
(dp6141
g11
(lp6142
sg13
S'android.app.Notification$Action$Builder'
p6143
sg15
(lp6144
sg17
(lp6145
sg19
(lp6146
sg21
I0
sba(iArchitecture
Entity
p6147
(dp6148
g11
(lp6149
sg13
S'android.app.Notification$Action$Extender'
p6150
sg15
(lp6151
sg17
(lp6152
sg19
(lp6153
sg21
I0
sba(iArchitecture
Entity
p6154
(dp6155
g11
(lp6156
sg13
S'android.app.Notification$Action$WearableExtender'
p6157
sg15
(lp6158
sg17
(lp6159
sg19
(lp6160
sg21
I0
sba(iArchitecture
Entity
p6161
(dp6162
g11
(lp6163
sg13
S'android.app.Notification$BigPictureStyle'
p6164
sg15
(lp6165
sg17
(lp6166
sg19
(lp6167
sg21
I0
sba(iArchitecture
Entity
p6168
(dp6169
g11
(lp6170
sg13
S'android.app.Notification$BigTextStyle'
p6171
sg15
(lp6172
sg17
(lp6173
sg19
(lp6174
sg21
I0
sba(iArchitecture
Entity
p6175
(dp6176
g11
(lp6177
sg13
S'android.app.Notification$Builder'
p6178
sg15
(lp6179
sg17
(lp6180
sg19
(lp6181
sg21
I0
sba(iArchitecture
Entity
p6182
(dp6183
g11
(lp6184
sg13
S'android.app.Notification$BuilderRemoteViews'
p6185
sg15
(lp6186
sg17
(lp6187
sg19
(lp6188
sg21
I0
sba(iArchitecture
Entity
p6189
(dp6190
g11
(lp6191
sg13
S'android.app.Notification$CarExtender'
p6192
sg15
(lp6193
sg17
(lp6194
sg19
(lp6195
sg21
I0
sba(iArchitecture
Entity
p6196
(dp6197
g11
(lp6198
sg13
S'android.app.Notification$CarExtender$Builder'
p6199
sg15
(lp6200
sg17
(lp6201
sg19
(lp6202
sg21
I0
sba(iArchitecture
Entity
p6203
(dp6204
g11
(lp6205
sg13
S'android.app.Notification$CarExtender$UnreadConversation'
p6206
sg15
(lp6207
sg17
(lp6208
sg19
(lp6209
sg21
I0
sba(iArchitecture
Entity
p6210
(dp6211
g11
(lp6212
sg13
S'android.app.Notification$DecoratedCustomViewStyle'
p6213
sg15
(lp6214
sg17
(lp6215
sg19
(lp6216
sg21
I0
sba(iArchitecture
Entity
p6217
(dp6218
g11
(lp6219
sg13
S'android.app.Notification$DecoratedMediaCustomViewStyle'
p6220
sg15
(lp6221
sg17
(lp6222
sg19
(lp6223
sg21
I0
sba(iArchitecture
Entity
p6224
(dp6225
g11
(lp6226
sg13
S'android.app.Notification$Extender'
p6227
sg15
(lp6228
sg17
(lp6229
sg19
(lp6230
sg21
I0
sba(iArchitecture
Entity
p6231
(dp6232
g11
(lp6233
sg13
S'android.app.Notification$InboxStyle'
p6234
sg15
(lp6235
sg17
(lp6236
sg19
(lp6237
sg21
I0
sba(iArchitecture
Entity
p6238
(dp6239
g11
(lp6240
sg13
S'android.app.Notification$MediaStyle'
p6241
sg15
(lp6242
sg17
(lp6243
sg19
(lp6244
sg21
I0
sba(iArchitecture
Entity
p6245
(dp6246
g11
(lp6247
sg13
S'android.app.Notification$MessagingStyle'
p6248
sg15
(lp6249
sg17
(lp6250
sg19
(lp6251
sg21
I0
sba(iArchitecture
Entity
p6252
(dp6253
g11
(lp6254
sg13
S'android.app.Notification$MessagingStyle$Message'
p6255
sg15
(lp6256
sg17
(lp6257
sg19
(lp6258
sg21
I0
sba(iArchitecture
Entity
p6259
(dp6260
g11
(lp6261
sg13
S'android.app.Notification$Style'
p6262
sg15
(lp6263
sg17
(lp6264
sg19
(lp6265
sg21
I0
sba(iArchitecture
Entity
p6266
(dp6267
g11
(lp6268
sg13
S'android.app.Notification$WearableExtender'
p6269
sg15
(lp6270
sg17
(lp6271
sg19
(lp6272
sg21
I0
sba(iArchitecture
Entity
p6273
(dp6274
g11
(lp6275
sg13
S'android.app.Notification$_void_writeToParcel_android_os_Parcel_parcel_int_flags_LambdaImpl0'
p6276
sg15
(lp6277
sg17
(lp6278
sg19
(lp6279
sg21
I0
sba(iArchitecture
Entity
p6280
(dp6281
g11
(lp6282
sg13
S'android.app.StatusBarManager'
p6283
sg15
(lp6284
sg17
(lp6285
sg19
(lp6286
sg21
I0
sba(iArchitecture
Entity
p6287
(dp6288
g11
(lp6289
sg13
S'android.app.UiAutomation'
p6290
sg15
(lp6291
sg17
(lp6292
sg19
(lp6293
sg21
I0
sba(iArchitecture
Entity
p6294
(dp6295
g11
(lp6296
sg13
S'android.app.UiAutomation$AccessibilityEventFilter'
p6297
sg15
(lp6298
sg17
(lp6299
sg19
(lp6300
sg21
I0
sba(iArchitecture
Entity
p6301
(dp6302
g11
(lp6303
sg13
S'android.app.UiAutomation$IAccessibilityServiceClientImpl'
p6304
sg15
(lp6305
sg17
(lp6306
sg19
(lp6307
sg21
I0
sba(iArchitecture
Entity
p6308
(dp6309
g11
(lp6310
sg13
S'android.app.UiAutomation$IAccessibilityServiceClientImpl$1'
p6311
sg15
(lp6312
sg17
(lp6313
sg19
(lp6314
sg21
I0
sba(iArchitecture
Entity
p6315
(dp6316
g11
(lp6317
sg13
S'android.app.UiAutomation$OnAccessibilityEventListener'
p6318
sg15
(lp6319
sg17
(lp6320
sg19
(lp6321
sg21
I0
sba(iArchitecture
Entity
p6322
(dp6323
g11
(lp6324
sg13
S'android.app.assist.AssistStructure'
p6325
sg15
(lp6326
sg17
(lp6327
sg19
(lp6328
sg21
I0
sba(iArchitecture
Entity
p6329
(dp6330
g11
(lp6331
sg13
S'android.app.assist.AssistStructure$1'
p6332
sg15
(lp6333
sg17
(lp6334
sg19
(lp6335
sg21
I0
sba(iArchitecture
Entity
p6336
(dp6337
g11
(lp6338
sg13
S'android.app.assist.AssistStructure$ParcelTransferReader'
p6339
sg15
(lp6340
sg17
(lp6341
sg19
(lp6342
sg21
I0
sba(iArchitecture
Entity
p6343
(dp6344
g11
(lp6345
sg13
S'android.app.assist.AssistStructure$ParcelTransferWriter'
p6346
sg15
(lp6347
sg17
(lp6348
sg19
(lp6349
sg21
I0
sba(iArchitecture
Entity
p6350
(dp6351
g11
(lp6352
sg13
S'android.app.assist.AssistStructure$SendChannel'
p6353
sg15
(lp6354
sg17
(lp6355
sg19
(lp6356
sg21
I0
sba(iArchitecture
Entity
p6357
(dp6358
g11
(lp6359
sg13
S'android.app.assist.AssistStructure$ViewNode'
p6360
sg15
(lp6361
sg17
(lp6362
sg19
(lp6363
sg21
I0
sba(iArchitecture
Entity
p6364
(dp6365
g11
(lp6366
sg13
S'android.app.assist.AssistStructure$ViewNodeBuilder'
p6367
sg15
(lp6368
sg17
(lp6369
sg19
(lp6370
sg21
I0
sba(iArchitecture
Entity
p6371
(dp6372
g11
(lp6373
sg13
S'android.app.assist.AssistStructure$ViewNodeText'
p6374
sg15
(lp6375
sg17
(lp6376
sg19
(lp6377
sg21
I0
sba(iArchitecture
Entity
p6378
(dp6379
g11
(lp6380
sg13
S'android.app.assist.AssistStructure$ViewStackEntry'
p6381
sg15
(lp6382
sg17
(lp6383
sg19
(lp6384
sg21
I0
sba(iArchitecture
Entity
p6385
(dp6386
g11
(lp6387
sg13
S'android.app.assist.AssistStructure$WindowNode'
p6388
sg15
(lp6389
sg17
(lp6390
sg19
(lp6391
sg21
I0
sba(iArchitecture
Entity
p6392
(dp6393
g11
(lp6394
sg13
S'android.app.job.JobParameters'
p6395
sg15
(lp6396
sg17
(lp6397
sg19
(lp6398
sg21
I0
sba(iArchitecture
Entity
p6399
(dp6400
g11
(lp6401
sg13
S'android.app.job.JobParameters$1'
p6402
sg15
(lp6403
sg17
(lp6404
sg19
(lp6405
sg21
I0
sba(iArchitecture
Entity
p6406
(dp6407
g11
(lp6408
sg13
S'android.app.job.JobScheduler'
p6409
sg15
(lp6410
sg17
(lp6411
sg19
(lp6412
sg21
I0
sba(iArchitecture
Entity
p6413
(dp6414
g11
(lp6415
sg13
S'android.app.trust.TrustManager'
p6416
sg15
(lp6417
sg17
(lp6418
sg19
(lp6419
sg21
I0
sba(iArchitecture
Entity
p6420
(dp6421
g11
(lp6422
sg13
S'android.app.trust.TrustManager$1'
p6423
sg15
(lp6424
sg17
(lp6425
sg19
(lp6426
sg21
I0
sba(iArchitecture
Entity
p6427
(dp6428
g11
(lp6429
sg13
S'android.app.trust.TrustManager$2'
p6430
sg15
(lp6431
sg17
(lp6432
sg19
(lp6433
sg21
I0
sba(iArchitecture
Entity
p6434
(dp6435
g11
(lp6436
sg13
S'android.app.trust.TrustManager$TrustListener'
p6437
sg15
(lp6438
sg17
(lp6439
sg19
(lp6440
sg21
I0
sba(iArchitecture
Entity
p6441
(dp6442
g11
(lp6443
sg13
S'android.app.usage.UsageStatsManagerInternal'
p6444
sg15
(lp6445
sg17
(lp6446
sg19
(lp6447
sg21
I0
sba(iArchitecture
Entity
p6448
(dp6449
g11
(lp6450
sg13
S'android.app.usage.UsageStatsManagerInternal$AppIdleStateChangeListener'
p6451
sg15
(lp6452
sg17
(lp6453
sg19
(lp6454
sg21
I0
sbasg57
(lp6455
g6115
ag6122
ag6129
ag6136
ag6143
ag6150
ag6157
ag6164
ag6171
ag6178
ag6185
ag6192
ag6199
ag6206
ag6213
ag6220
ag6227
ag6234
ag6241
ag6248
ag6255
ag6262
ag6269
ag6276
ag6283
ag6290
ag6297
ag6304
ag6311
ag6318
ag6325
ag6332
ag6339
ag6346
ag6353
ag6360
ag6367
ag6374
ag6381
ag6388
ag6395
ag6402
ag6409
ag6416
ag6423
ag6430
ag6437
ag6444
ag6451
asg21
I0
sg59
S'1406'
p6456
sba(iArchitecture
Cluster
p6457
(dp6458
g7
(lp6459
(iArchitecture
Entity
p6460
(dp6461
g11
(lp6462
sg13
S'android.app.usage.NetworkStatsManager'
p6463
sg15
(lp6464
sg17
(lp6465
sg19
(lp6466
sg21
I0
sba(iArchitecture
Entity
p6467
(dp6468
g11
(lp6469
sg13
S'android.app.usage.NetworkStatsManager$CallbackHandler'
p6470
sg15
(lp6471
sg17
(lp6472
sg19
(lp6473
sg21
I0
sba(iArchitecture
Entity
p6474
(dp6475
g11
(lp6476
sg13
S'android.app.usage.NetworkStatsManager$UsageCallback'
p6477
sg15
(lp6478
sg17
(lp6479
sg19
(lp6480
sg21
I0
sba(iArchitecture
Entity
p6481
(dp6482
g11
(lp6483
sg13
S'android.app.usage.UsageStatsManager'
p6484
sg15
(lp6485
sg17
(lp6486
sg19
(lp6487
sg21
I0
sbasg57
(lp6488
g6463
ag6470
ag6477
ag6484
asg21
I0
sg59
S'1409'
p6489
sba(iArchitecture
Cluster
p6490
(dp6491
g7
(lp6492
(iArchitecture
Entity
p6493
(dp6494
g11
(lp6495
sg13
S'android.app.backup.BackupObserver'
p6496
sg15
(lp6497
sg17
(lp6498
sg19
(lp6499
sg21
I0
sbasg57
(lp6500
g6496
asg21
I0
sg59
S'18'
p6501
sba(iArchitecture
Cluster
p6502
(dp6503
g7
(lp6504
(iArchitecture
Entity
p6505
(dp6506
g11
(lp6507
sg13
S'android.app.admin.DeviceAdminReceiver'
p6508
sg15
(lp6509
sg17
(lp6510
sg19
(lp6511
sg21
I0
sbasg57
(lp6512
g6508
asg21
I0
sg59
S'199'
p6513
sba(iArchitecture
Cluster
p6514
(dp6515
g7
(lp6516
(iArchitecture
Entity
p6517
(dp6518
g11
(lp6519
sg13
S'android.app.QueuedWork'
p6520
sg15
(lp6521
sg17
(lp6522
sg19
(lp6523
sg21
I0
sbasg57
(lp6524
g6520
asg21
I0
sg59
S'226'
p6525
sba(iArchitecture
Cluster
p6526
(dp6527
g7
(lp6528
(iArchitecture
Entity
p6529
(dp6530
g11
(lp6531
sg13
S'android.app.FragmentController'
p6532
sg15
(lp6533
sg17
(lp6534
sg19
(lp6535
sg21
I0
sbasg57
(lp6536
g6532
asg21
I0
sg59
S'25'
p6537
sba(iArchitecture
Cluster
p6538
(dp6539
g7
(lp6540
(iArchitecture
Entity
p6541
(dp6542
g11
(lp6543
sg13
S'android.app.ActivityGroup'
p6544
sg15
(lp6545
sg17
(lp6546
sg19
(lp6547
sg21
I0
sbasg57
(lp6548
g6544
asg21
I0
sg59
S'254'
p6549
sba(iArchitecture
Cluster
p6550
(dp6551
g7
(lp6552
(iArchitecture
Entity
p6553
(dp6554
g11
(lp6555
sg13
S'android.app.BroadcastOptions'
p6556
sg15
(lp6557
sg17
(lp6558
sg19
(lp6559
sg21
I0
sbasg57
(lp6560
g6556
asg21
I0
sg59
S'268'
p6561
sba(iArchitecture
Cluster
p6562
(dp6563
g7
(lp6564
(iArchitecture
Entity
p6565
(dp6566
g11
(lp6567
sg13
S'android.appwidget.AppWidgetProvider'
p6568
sg15
(lp6569
sg17
(lp6570
sg19
(lp6571
sg21
I0
sbasg57
(lp6572
g6568
asg21
I0
sg59
S'360'
p6573
sba(iArchitecture
Cluster
p6574
(dp6575
g7
(lp6576
(iArchitecture
Entity
p6577
(dp6578
g11
(lp6579
sg13
S'android.appwidget.AppWidgetManager'
p6580
sg15
(lp6581
sg17
(lp6582
sg19
(lp6583
sg21
I0
sbasg57
(lp6584
g6580
asg21
I0
sg59
S'384'
p6585
sba(iArchitecture
Cluster
p6586
(dp6587
g7
(lp6588
(iArchitecture
Entity
p6589
(dp6590
g11
(lp6591
sg13
S'android.app.ApplicationLoaders'
p6592
sg15
(lp6593
sg17
(lp6594
sg19
(lp6595
sg21
I0
sbasg57
(lp6596
g6592
asg21
I0
sg59
S'404'
p6597
sba(iArchitecture
Cluster
p6598
(dp6599
g7
(lp6600
(iArchitecture
Entity
p6601
(dp6602
g11
(lp6603
sg13
S'android.app.TaskStackBuilder'
p6604
sg15
(lp6605
sg17
(lp6606
sg19
(lp6607
sg21
I0
sbasg57
(lp6608
g6604
asg21
I0
sg59
S'405'
p6609
sba(iArchitecture
Cluster
p6610
(dp6611
g7
(lp6612
(iArchitecture
Entity
p6613
(dp6614
g11
(lp6615
sg13
S'android.app.SynchronousUserSwitchObserver'
p6616
sg15
(lp6617
sg17
(lp6618
sg19
(lp6619
sg21
I0
sbasg57
(lp6620
g6616
asg21
I0
sg59
S'414'
p6621
sba(iArchitecture
Cluster
p6622
(dp6623
g7
(lp6624
(iArchitecture
Entity
p6625
(dp6626
g11
(lp6627
sg13
S'android.app.backup.FullBackupDataOutput'
p6628
sg15
(lp6629
sg17
(lp6630
sg19
(lp6631
sg21
I0
sbasg57
(lp6632
g6628
asg21
I0
sg59
S'430'
p6633
sba(iArchitecture
Cluster
p6634
(dp6635
g7
(lp6636
(iArchitecture
Entity
p6637
(dp6638
g11
(lp6639
sg13
S'android.app.FragmentHostCallback'
p6640
sg15
(lp6641
sg17
(lp6642
sg19
(lp6643
sg21
I0
sbasg57
(lp6644
g6640
asg21
I0
sg59
S'479'
p6645
sba(iArchitecture
Cluster
p6646
(dp6647
g7
(lp6648
(iArchitecture
Entity
p6649
(dp6650
g11
(lp6651
sg13
S'android.app.FragmentManagerNonConfig'
p6652
sg15
(lp6653
sg17
(lp6654
sg19
(lp6655
sg21
I0
sbasg57
(lp6656
g6652
asg21
I0
sg59
S'5'
p6657
sba(iArchitecture
Cluster
p6658
(dp6659
g7
(lp6660
(iArchitecture
Entity
p6661
(dp6662
g11
(lp6663
sg13
S'android.app.AliasActivity'
p6664
sg15
(lp6665
sg17
(lp6666
sg19
(lp6667
sg21
I0
sbasg57
(lp6668
g6664
asg21
I0
sg59
S'50'
p6669
sba(iArchitecture
Cluster
p6670
(dp6671
g7
(lp6672
(iArchitecture
Entity
p6673
(dp6674
g11
(lp6675
sg13
S'android.app.admin.DevicePolicyManager'
p6676
sg15
(lp6677
sg17
(lp6678
sg19
(lp6679
sg21
I0
sbasg57
(lp6680
g6676
asg21
I0
sg59
S'51'
p6681
sba(iArchitecture
Cluster
p6682
(dp6683
g7
(lp6684
(iArchitecture
Entity
p6685
(dp6686
g11
(lp6687
sg13
S'android.app.TimePickerDialog'
p6688
sg15
(lp6689
sg17
(lp6690
sg19
(lp6691
sg21
I0
sba(iArchitecture
Entity
p6692
(dp6693
g11
(lp6694
sg13
S'android.app.TimePickerDialog$OnTimeSetListener'
p6695
sg15
(lp6696
sg17
(lp6697
sg19
(lp6698
sg21
I0
sbasg57
(lp6699
g6688
ag6695
asg21
I0
sg59
S'547'
p6700
sba(iArchitecture
Cluster
p6701
(dp6702
g7
(lp6703
(iArchitecture
Entity
p6704
(dp6705
g11
(lp6706
sg13
S'android.app.ProgressDialog'
p6707
sg15
(lp6708
sg17
(lp6709
sg19
(lp6710
sg21
I0
sba(iArchitecture
Entity
p6711
(dp6712
g11
(lp6713
sg13
S'android.app.ProgressDialog$1'
p6714
sg15
(lp6715
sg17
(lp6716
sg19
(lp6717
sg21
I0
sbasg57
(lp6718
g6707
ag6714
asg21
I0
sg59
S'548'
p6719
sba(iArchitecture
Cluster
p6720
(dp6721
g7
(lp6722
(iArchitecture
Entity
p6723
(dp6724
g11
(lp6725
sg13
S'android.app.assist.AssistContent'
p6726
sg15
(lp6727
sg17
(lp6728
sg19
(lp6729
sg21
I0
sba(iArchitecture
Entity
p6730
(dp6731
g11
(lp6732
sg13
S'android.app.assist.AssistContent$1'
p6733
sg15
(lp6734
sg17
(lp6735
sg19
(lp6736
sg21
I0
sbasg57
(lp6737
g6726
ag6733
asg21
I0
sg59
S'549'
p6738
sba(iArchitecture
Cluster
p6739
(dp6740
g7
(lp6741
(iArchitecture
Entity
p6742
(dp6743
g11
(lp6744
sg13
S'android.app.AlertDialog'
p6745
sg15
(lp6746
sg17
(lp6747
sg19
(lp6748
sg21
I0
sba(iArchitecture
Entity
p6749
(dp6750
g11
(lp6751
sg13
S'android.app.AlertDialog$Builder'
p6752
sg15
(lp6753
sg17
(lp6754
sg19
(lp6755
sg21
I0
sbasg57
(lp6756
g6745
ag6752
asg21
I0
sg59
S'559'
p6757
sba(iArchitecture
Cluster
p6758
(dp6759
g7
(lp6760
(iArchitecture
Entity
p6761
(dp6762
g11
(lp6763
sg13
S'android.app.usage.ConfigurationStats'
p6764
sg15
(lp6765
sg17
(lp6766
sg19
(lp6767
sg21
I0
sba(iArchitecture
Entity
p6768
(dp6769
g11
(lp6770
sg13
S'android.app.usage.ConfigurationStats$1'
p6771
sg15
(lp6772
sg17
(lp6773
sg19
(lp6774
sg21
I0
sbasg57
(lp6775
g6764
ag6771
asg21
I0
sg59
S'620'
p6776
sba(iArchitecture
Cluster
p6777
(dp6778
g7
(lp6779
(iArchitecture
Entity
p6780
(dp6781
g11
(lp6782
sg13
S'android.app.NativeActivity'
p6783
sg15
(lp6784
sg17
(lp6785
sg19
(lp6786
sg21
I0
sba(iArchitecture
Entity
p6787
(dp6788
g11
(lp6789
sg13
S'android.app.NativeActivity$NativeContentView'
p6790
sg15
(lp6791
sg17
(lp6792
sg19
(lp6793
sg21
I0
sbasg57
(lp6794
g6783
ag6790
asg21
I0
sg59
S'622'
p6795
sba(iArchitecture
Cluster
p6796
(dp6797
g7
(lp6798
(iArchitecture
Entity
p6799
(dp6800
g11
(lp6801
sg13
S'android.appwidget.AppWidgetProviderInfo'
p6802
sg15
(lp6803
sg17
(lp6804
sg19
(lp6805
sg21
I0
sba(iArchitecture
Entity
p6806
(dp6807
g11
(lp6808
sg13
S'android.appwidget.AppWidgetProviderInfo$1'
p6809
sg15
(lp6810
sg17
(lp6811
sg19
(lp6812
sg21
I0
sbasg57
(lp6813
g6802
ag6809
asg21
I0
sg59
S'638'
p6814
sba(iArchitecture
Cluster
p6815
(dp6816
g7
(lp6817
(iArchitecture
Entity
p6818
(dp6819
g11
(lp6820
sg13
S'android.app.admin.SystemUpdatePolicy'
p6821
sg15
(lp6822
sg17
(lp6823
sg19
(lp6824
sg21
I0
sba(iArchitecture
Entity
p6825
(dp6826
g11
(lp6827
sg13
S'android.app.admin.SystemUpdatePolicy$1'
p6828
sg15
(lp6829
sg17
(lp6830
sg19
(lp6831
sg21
I0
sbasg57
(lp6832
g6821
ag6828
asg21
I0
sg59
S'663'
p6833
sba(iArchitecture
Cluster
p6834
(dp6835
g7
(lp6836
(iArchitecture
Entity
p6837
(dp6838
g11
(lp6839
sg13
S'android.app.LocalActivityManager'
p6840
sg15
(lp6841
sg17
(lp6842
sg19
(lp6843
sg21
I0
sba(iArchitecture
Entity
p6844
(dp6845
g11
(lp6846
sg13
S'android.app.LocalActivityManager$LocalActivityRecord'
p6847
sg15
(lp6848
sg17
(lp6849
sg19
(lp6850
sg21
I0
sbasg57
(lp6851
g6840
ag6847
asg21
I0
sg59
S'689'
p6852
sba(iArchitecture
Cluster
p6853
(dp6854
g7
(lp6855
(iArchitecture
Entity
p6856
(dp6857
g11
(lp6858
sg13
S'android.app.usage.NetworkStats'
p6859
sg15
(lp6860
sg17
(lp6861
sg19
(lp6862
sg21
I0
sba(iArchitecture
Entity
p6863
(dp6864
g11
(lp6865
sg13
S'android.app.usage.NetworkStats$Bucket'
p6866
sg15
(lp6867
sg17
(lp6868
sg19
(lp6869
sg21
I0
sbasg57
(lp6870
g6859
ag6866
asg21
I0
sg59
S'692'
p6871
sba(iArchitecture
Cluster
p6872
(dp6873
g7
(lp6874
(iArchitecture
Entity
p6875
(dp6876
g11
(lp6877
sg13
S'android.app.ActivityManagerNative'
p6878
sg15
(lp6879
sg17
(lp6880
sg19
(lp6881
sg21
I0
sba(iArchitecture
Entity
p6882
(dp6883
g11
(lp6884
sg13
S'android.app.ActivityManagerNative$1'
p6885
sg15
(lp6886
sg17
(lp6887
sg19
(lp6888
sg21
I0
sbasg57
(lp6889
g6878
ag6885
asg21
I0
sg59
S'708'
p6890
sba(iArchitecture
Cluster
p6891
(dp6892
g7
(lp6893
(iArchitecture
Entity
p6894
(dp6895
g11
(lp6896
sg13
S'android.app.IntentService'
p6897
sg15
(lp6898
sg17
(lp6899
sg19
(lp6900
sg21
I0
sba(iArchitecture
Entity
p6901
(dp6902
g11
(lp6903
sg13
S'android.app.IntentService$ServiceHandler'
p6904
sg15
(lp6905
sg17
(lp6906
sg19
(lp6907
sg21
I0
sbasg57
(lp6908
g6897
ag6904
asg21
I0
sg59
S'780'
p6909
sba(iArchitecture
Cluster
p6910
(dp6911
g7
(lp6912
(iArchitecture
Entity
p6913
(dp6914
g11
(lp6915
sg13
S'android.app.LoaderManager'
p6916
sg15
(lp6917
sg17
(lp6918
sg19
(lp6919
sg21
I0
sba(iArchitecture
Entity
p6920
(dp6921
g11
(lp6922
sg13
S'android.app.LoaderManager$LoaderCallbacks'
p6923
sg15
(lp6924
sg17
(lp6925
sg19
(lp6926
sg21
I0
sbasg57
(lp6927
g6916
ag6923
asg21
I0
sg59
S'798'
p6928
sba(iArchitecture
Cluster
p6929
(dp6930
g7
(lp6931
(iArchitecture
Entity
p6932
(dp6933
g11
(lp6934
sg13
S'android.app.Application'
p6935
sg15
(lp6936
sg17
(lp6937
sg19
(lp6938
sg21
I0
sba(iArchitecture
Entity
p6939
(dp6940
g11
(lp6941
sg13
S'android.app.Application$ActivityLifecycleCallbacks'
p6942
sg15
(lp6943
sg17
(lp6944
sg19
(lp6945
sg21
I0
sba(iArchitecture
Entity
p6946
(dp6947
g11
(lp6948
sg13
S'android.app.Application$OnProvideAssistDataListener'
p6949
sg15
(lp6950
sg17
(lp6951
sg19
(lp6952
sg21
I0
sbasg57
(lp6953
g6935
ag6942
ag6949
asg21
I0
sg59
S'871'
p6954
sba(iArchitecture
Cluster
p6955
(dp6956
g7
(lp6957
(iArchitecture
Entity
p6958
(dp6959
g11
(lp6960
sg13
S'android.app.RemoteInput'
p6961
sg15
(lp6962
sg17
(lp6963
sg19
(lp6964
sg21
I0
sba(iArchitecture
Entity
p6965
(dp6966
g11
(lp6967
sg13
S'android.app.RemoteInput$1'
p6968
sg15
(lp6969
sg17
(lp6970
sg19
(lp6971
sg21
I0
sba(iArchitecture
Entity
p6972
(dp6973
g11
(lp6974
sg13
S'android.app.RemoteInput$Builder'
p6975
sg15
(lp6976
sg17
(lp6977
sg19
(lp6978
sg21
I0
sbasg57
(lp6979
g6961
ag6968
ag6975
asg21
I0
sg59
S'892'
p6980
sba(iArchitecture
Cluster
p6981
(dp6982
g7
(lp6983
(iArchitecture
Entity
p6984
(dp6985
g11
(lp6986
sg13
S'android.app.Presentation'
p6987
sg15
(lp6988
sg17
(lp6989
sg19
(lp6990
sg21
I0
sba(iArchitecture
Entity
p6991
(dp6992
g11
(lp6993
sg13
S'android.app.Presentation$1'
p6994
sg15
(lp6995
sg17
(lp6996
sg19
(lp6997
sg21
I0
sba(iArchitecture
Entity
p6998
(dp6999
g11
(lp7000
sg13
S'android.app.Presentation$2'
p7001
sg15
(lp7002
sg17
(lp7003
sg19
(lp7004
sg21
I0
sba(iArchitecture
Entity
p7005
(dp7006
g11
(lp7007
sg13
S'android.app.Presentation$3'
p7008
sg15
(lp7009
sg17
(lp7010
sg19
(lp7011
sg21
I0
sbasg57
(lp7012
g6987
ag6994
ag7001
ag7008
asg21
I0
sg59
S'894'
p7013
sba(iArchitecture
Cluster
p7014
(dp7015
g7
(lp7016
(iArchitecture
Entity
p7017
(dp7018
g11
(lp7019
sg13
S'android.app.admin.DeviceAdminInfo'
p7020
sg15
(lp7021
sg17
(lp7022
sg19
(lp7023
sg21
I0
sba(iArchitecture
Entity
p7024
(dp7025
g11
(lp7026
sg13
S'android.app.admin.DeviceAdminInfo$1'
p7027
sg15
(lp7028
sg17
(lp7029
sg19
(lp7030
sg21
I0
sba(iArchitecture
Entity
p7031
(dp7032
g11
(lp7033
sg13
S'android.app.admin.DeviceAdminInfo$PolicyInfo'
p7034
sg15
(lp7035
sg17
(lp7036
sg19
(lp7037
sg21
I0
sbasg57
(lp7038
g7020
ag7027
ag7034
asg21
I0
sg59
S'895'
p7039
sba(iArchitecture
Cluster
p7040
(dp7041
g7
(lp7042
(iArchitecture
Entity
p7043
(dp7044
g11
(lp7045
sg13
S'android.app.ResourcesManager'
p7046
sg15
(lp7047
sg17
(lp7048
sg19
(lp7049
sg21
I0
sba(iArchitecture
Entity
p7050
(dp7051
g11
(lp7052
sg13
S'android.app.ResourcesManager$1'
p7053
sg15
(lp7054
sg17
(lp7055
sg19
(lp7056
sg21
I0
sba(iArchitecture
Entity
p7057
(dp7058
g11
(lp7059
sg13
S'android.app.ResourcesManager$ActivityResources'
p7060
sg15
(lp7061
sg17
(lp7062
sg19
(lp7063
sg21
I0
sbasg57
(lp7064
g7046
ag7053
ag7060
asg21
I0
sg59
S'914'
p7065
sba(iArchitecture
Cluster
p7066
(dp7067
g7
(lp7068
(iArchitecture
Entity
p7069
(dp7070
g11
(lp7071
sg13
S'android.app.SharedElementCallback'
p7072
sg15
(lp7073
sg17
(lp7074
sg19
(lp7075
sg21
I0
sba(iArchitecture
Entity
p7076
(dp7077
g11
(lp7078
sg13
S'android.app.SharedElementCallback$1'
p7079
sg15
(lp7080
sg17
(lp7081
sg19
(lp7082
sg21
I0
sba(iArchitecture
Entity
p7083
(dp7084
g11
(lp7085
sg13
S'android.app.SharedElementCallback$OnSharedElementsReadyListener'
p7086
sg15
(lp7087
sg17
(lp7088
sg19
(lp7089
sg21
I0
sbasg57
(lp7090
g7072
ag7079
ag7086
asg21
I0
sg59
S'929'
p7091
sba(iArchitecture
Cluster
p7092
(dp7093
g7
(lp7094
(iArchitecture
Entity
p7095
(dp7096
g11
(lp7097
sg13
S'android.app.NotificationManager'
p7098
sg15
(lp7099
sg17
(lp7100
sg19
(lp7101
sg21
I0
sba(iArchitecture
Entity
p7102
(dp7103
g11
(lp7104
sg13
S'android.app.NotificationManager$Policy'
p7105
sg15
(lp7106
sg17
(lp7107
sg19
(lp7108
sg21
I0
sba(iArchitecture
Entity
p7109
(dp7110
g11
(lp7111
sg13
S'android.app.NotificationManager$Policy$1'
p7112
sg15
(lp7113
sg17
(lp7114
sg19
(lp7115
sg21
I0
sbasg57
(lp7116
g7098
ag7105
ag7112
asg21
I0
sg59
S'940'
p7117
sba(iArchitecture
Cluster
p7118
(dp7119
g7
(lp7120
(iArchitecture
Entity
p7121
(dp7122
g11
(lp7123
sg13
S'android.app.DatePickerDialog'
p7124
sg15
(lp7125
sg17
(lp7126
sg19
(lp7127
sg21
I0
sba(iArchitecture
Entity
p7128
(dp7129
g11
(lp7130
sg13
S'android.app.DatePickerDialog$1'
p7131
sg15
(lp7132
sg17
(lp7133
sg19
(lp7134
sg21
I0
sba(iArchitecture
Entity
p7135
(dp7136
g11
(lp7137
sg13
S'android.app.DatePickerDialog$OnDateSetListener'
p7138
sg15
(lp7139
sg17
(lp7140
sg19
(lp7141
sg21
I0
sbasg57
(lp7142
g7124
ag7131
ag7138
asg21
I0
sg59
S'949'
p7143
sba(iArchitecture
Cluster
p7144
(dp7145
g7
(lp7146
(iArchitecture
Entity
p7147
(dp7148
g11
(lp7149
sg13
S'android.app.ActivityTransitionState'
p7150
sg15
(lp7151
sg17
(lp7152
sg19
(lp7153
sg21
I0
sba(iArchitecture
Entity
p7154
(dp7155
g11
(lp7156
sg13
S'android.app.ActivityTransitionState$1'
p7157
sg15
(lp7158
sg17
(lp7159
sg19
(lp7160
sg21
I0
sba(iArchitecture
Entity
p7161
(dp7162
g11
(lp7163
sg13
S'android.app.ActivityTransitionState$2'
p7164
sg15
(lp7165
sg17
(lp7166
sg19
(lp7167
sg21
I0
sbasg57
(lp7168
g7150
ag7157
ag7164
asg21
I0
sg59
S'971'
p7169
sbasg3454
g3455
sg57
(lp7170
sg3457
I00
sg59
S'7.0.0_r1'
p7171
sba.