(lp0
(iArchitecture
Architecture
p1
(dp2
S'clusters'
p3
(lp4
(iArchitecture
Cluster
p5
(dp6
S'entities'
p7
(lp8
(iArchitecture
Entity
p9
(dp10
S'issue_ids'
p11
(lp12
sS'name'
p13
S'com.android.server.voiceinteraction.VoiceInteractionManagerServiceImpl'
p14
sS'descs'
p15
(lp16
sS'labels'
p17
(lp18
sS'titles'
p19
(lp20
sS'change'
p21
I0
sba(iArchitecture
Entity
p22
(dp23
g11
(lp24
sg13
S'com.android.server.voiceinteraction.VoiceInteractionManagerServiceImpl$1'
p25
sg15
(lp26
sg17
(lp27
sg19
(lp28
sg21
I0
sba(iArchitecture
Entity
p29
(dp30
g11
(lp31
sg13
S'com.android.server.voiceinteraction.VoiceInteractionManagerServiceImpl$2'
p32
sg15
(lp33
sg17
(lp34
sg19
(lp35
sg21
I0
sba(iArchitecture
Entity
p36
(dp37
g11
(lp38
sg13
S'com.android.server.voiceinteraction.VoiceInteractionSessionConnection'
p39
sg15
(lp40
sg17
(lp41
sg19
(lp42
sg21
I0
sba(iArchitecture
Entity
p43
(dp44
g11
(lp45
sg13
S'com.android.server.voiceinteraction.VoiceInteractionSessionConnection$1'
p46
sg15
(lp47
sg17
(lp48
sg19
(lp49
sg21
I0
sba(iArchitecture
Entity
p50
(dp51
g11
(lp52
sg13
S'com.android.server.voiceinteraction.VoiceInteractionSessionConnection$2'
p53
sg15
(lp54
sg17
(lp55
sg19
(lp56
sg21
I0
sba(iArchitecture
Entity
p57
(dp58
g11
(lp59
sg13
S'com.android.server.voiceinteraction.VoiceInteractionSessionConnection$3'
p60
sg15
(lp61
sg17
(lp62
sg19
(lp63
sg21
I0
sba(iArchitecture
Entity
p64
(dp65
g11
(lp66
sg13
S'com.android.server.voiceinteraction.VoiceInteractionSessionConnection$4'
p67
sg15
(lp68
sg17
(lp69
sg19
(lp70
sg21
I0
sba(iArchitecture
Entity
p71
(dp72
g11
(lp73
sg13
S'com.android.server.voiceinteraction.VoiceInteractionSessionConnection$5'
p74
sg15
(lp75
sg17
(lp76
sg19
(lp77
sg21
I0
sba(iArchitecture
Entity
p78
(dp79
g11
(lp80
sg13
S'com.android.server.voiceinteraction.VoiceInteractionSessionConnection$Callback'
p81
sg15
(lp82
sg17
(lp83
sg19
(lp84
sg21
I0
sbasS'classes'
p85
(lp86
g14
ag25
ag32
ag39
ag46
ag53
ag60
ag67
ag74
ag81
asg21
I0
sS'label'
p87
S'1190'
p88
sba(iArchitecture
Cluster
p89
(dp90
g7
(lp91
(iArchitecture
Entity
p92
(dp93
g11
(lp94
sg13
S'com.android.server.voiceinteraction.DatabaseHelper'
p95
sg15
(lp96
sg17
(lp97
sg19
(lp98
sg21
I0
sba(iArchitecture
Entity
p99
(dp100
g11
(lp101
sg13
S'com.android.server.voiceinteraction.DatabaseHelper$SoundModelContract'
p102
sg15
(lp103
sg17
(lp104
sg19
(lp105
sg21
I0
sbasg85
(lp106
g95
ag102
asg21
I0
sg87
S'498'
p107
sba(iArchitecture
Cluster
p108
(dp109
g7
(lp110
(iArchitecture
Entity
p111
(dp112
g11
(lp113
sg13
S'com.android.server.voiceinteraction.VoiceInteractionManagerService'
p114
sg15
(lp115
sg17
(lp116
sg19
(lp117
sg21
I0
sba(iArchitecture
Entity
p118
(dp119
g11
(lp120
sg13
S'com.android.server.voiceinteraction.VoiceInteractionManagerService$1'
p121
sg15
(lp122
sg17
(lp123
sg19
(lp124
sg21
I0
sba(iArchitecture
Entity
p125
(dp126
g11
(lp127
sg13
S'com.android.server.voiceinteraction.VoiceInteractionManagerService$VoiceInteractionManagerServiceStub'
p128
sg15
(lp129
sg17
(lp130
sg19
(lp131
sg21
I0
sba(iArchitecture
Entity
p132
(dp133
g11
(lp134
sg13
S'com.android.server.voiceinteraction.VoiceInteractionManagerService$VoiceInteractionManagerServiceStub$1'
p135
sg15
(lp136
sg17
(lp137
sg19
(lp138
sg21
I0
sba(iArchitecture
Entity
p139
(dp140
g11
(lp141
sg13
S'com.android.server.voiceinteraction.VoiceInteractionManagerService$VoiceInteractionManagerServiceStub$SettingsObserver'
p142
sg15
(lp143
sg17
(lp144
sg19
(lp145
sg21
I0
sbasg85
(lp146
g114
ag121
ag128
ag135
ag142
asg21
I0
sg87
S'930'
p147
sbasS'target_sub'
p148
S'com.android.server.voiceinteraction'
p149
sg85
(lp150
sS'is_component_arch'
p151
I00
sg87
S'6.0.0_r1'
p152
sba(iArchitecture
Architecture
p153
(dp154
g3
(lp155
(iArchitecture
Cluster
p156
(dp157
g7
(lp158
(iArchitecture
Entity
p159
(dp160
g11
(lp161
sg13
S'com.android.server.voiceinteraction.DatabaseHelper'
p162
sg15
(lp163
sg17
(lp164
sg19
(lp165
sg21
I0
sba(iArchitecture
Entity
p166
(dp167
g11
(lp168
sg13
S'com.android.server.voiceinteraction.DatabaseHelper$SoundModelContract'
p169
sg15
(lp170
sg17
(lp171
sg19
(lp172
sg21
I0
sbasg85
(lp173
g162
ag169
asg21
I0
sg87
S'1336'
p174
sba(iArchitecture
Cluster
p175
(dp176
g7
(lp177
(iArchitecture
Entity
p178
(dp179
g11
(lp180
sg13
S'com.android.server.voiceinteraction.VoiceInteractionManagerService'
p181
sg15
(lp182
sg17
(lp183
sg19
(lp184
sg21
I0
sba(iArchitecture
Entity
p185
(dp186
g11
(lp187
sg13
S'com.android.server.voiceinteraction.VoiceInteractionManagerService$1'
p188
sg15
(lp189
sg17
(lp190
sg19
(lp191
sg21
I0
sba(iArchitecture
Entity
p192
(dp193
g11
(lp194
sg13
S'com.android.server.voiceinteraction.VoiceInteractionManagerService$LocalService'
p195
sg15
(lp196
sg17
(lp197
sg19
(lp198
sg21
I0
sba(iArchitecture
Entity
p199
(dp200
g11
(lp201
sg13
S'com.android.server.voiceinteraction.VoiceInteractionManagerService$VoiceInteractionManagerServiceStub'
p202
sg15
(lp203
sg17
(lp204
sg19
(lp205
sg21
I0
sba(iArchitecture
Entity
p206
(dp207
g11
(lp208
sg13
S'com.android.server.voiceinteraction.VoiceInteractionManagerService$VoiceInteractionManagerServiceStub$1'
p209
sg15
(lp210
sg17
(lp211
sg19
(lp212
sg21
I0
sba(iArchitecture
Entity
p213
(dp214
g11
(lp215
sg13
S'com.android.server.voiceinteraction.VoiceInteractionManagerService$VoiceInteractionManagerServiceStub$2'
p216
sg15
(lp217
sg17
(lp218
sg19
(lp219
sg21
I0
sba(iArchitecture
Entity
p220
(dp221
g11
(lp222
sg13
S'com.android.server.voiceinteraction.VoiceInteractionManagerService$VoiceInteractionManagerServiceStub$SettingsObserver'
p223
sg15
(lp224
sg17
(lp225
sg19
(lp226
sg21
I0
sbasg85
(lp227
g181
ag188
ag195
ag202
ag209
ag216
ag223
asg21
I0
sg87
S'1373'
p228
sba(iArchitecture
Cluster
p229
(dp230
g7
(lp231
(iArchitecture
Entity
p232
(dp233
g11
(lp234
sg13
S'com.android.server.voiceinteraction.VoiceInteractionManagerServiceImpl'
p235
sg15
(lp236
sg17
(lp237
sg19
(lp238
sg21
I0
sba(iArchitecture
Entity
p239
(dp240
g11
(lp241
sg13
S'com.android.server.voiceinteraction.VoiceInteractionManagerServiceImpl$1'
p242
sg15
(lp243
sg17
(lp244
sg19
(lp245
sg21
I0
sba(iArchitecture
Entity
p246
(dp247
g11
(lp248
sg13
S'com.android.server.voiceinteraction.VoiceInteractionManagerServiceImpl$2'
p249
sg15
(lp250
sg17
(lp251
sg19
(lp252
sg21
I0
sba(iArchitecture
Entity
p253
(dp254
g11
(lp255
sg13
S'com.android.server.voiceinteraction.VoiceInteractionSessionConnection'
p256
sg15
(lp257
sg17
(lp258
sg19
(lp259
sg21
I0
sba(iArchitecture
Entity
p260
(dp261
g11
(lp262
sg13
S'com.android.server.voiceinteraction.VoiceInteractionSessionConnection$1'
p263
sg15
(lp264
sg17
(lp265
sg19
(lp266
sg21
I0
sba(iArchitecture
Entity
p267
(dp268
g11
(lp269
sg13
S'com.android.server.voiceinteraction.VoiceInteractionSessionConnection$2'
p270
sg15
(lp271
sg17
(lp272
sg19
(lp273
sg21
I0
sba(iArchitecture
Entity
p274
(dp275
g11
(lp276
sg13
S'com.android.server.voiceinteraction.VoiceInteractionSessionConnection$3'
p277
sg15
(lp278
sg17
(lp279
sg19
(lp280
sg21
I0
sba(iArchitecture
Entity
p281
(dp282
g11
(lp283
sg13
S'com.android.server.voiceinteraction.VoiceInteractionSessionConnection$4'
p284
sg15
(lp285
sg17
(lp286
sg19
(lp287
sg21
I0
sba(iArchitecture
Entity
p288
(dp289
g11
(lp290
sg13
S'com.android.server.voiceinteraction.VoiceInteractionSessionConnection$5'
p291
sg15
(lp292
sg17
(lp293
sg19
(lp294
sg21
I0
sba(iArchitecture
Entity
p295
(dp296
g11
(lp297
sg13
S'com.android.server.voiceinteraction.VoiceInteractionSessionConnection$AssistDataForActivity'
p298
sg15
(lp299
sg17
(lp300
sg19
(lp301
sg21
I0
sba(iArchitecture
Entity
p302
(dp303
g11
(lp304
sg13
S'com.android.server.voiceinteraction.VoiceInteractionSessionConnection$Callback'
p305
sg15
(lp306
sg17
(lp307
sg19
(lp308
sg21
I0
sbasg85
(lp309
g235
ag242
ag249
ag256
ag263
ag270
ag277
ag284
ag291
ag298
ag305
asg21
I0
sg87
S'1401'
p310
sbasg148
g149
sg85
(lp311
sg151
I00
sg87
S'7.0.0_r1'
p312
sba.