(lp0
(iArchitecture
Architecture
p1
(dp2
S'clusters'
p3
(lp4
(iArchitecture
Cluster
p5
(dp6
S'entities'
p7
(lp8
(iArchitecture
Entity
p9
(dp10
S'issue_ids'
p11
(lp12
sS'name'
p13
S'android.accessibilityservice.AccessibilityService'
p14
sS'descs'
p15
(lp16
sS'labels'
p17
(lp18
sS'titles'
p19
(lp20
sS'change'
p21
I0
sba(iArchitecture
Entity
p22
(dp23
g11
(lp24
sg13
S'android.accessibilityservice.AccessibilityService$1'
p25
sg15
(lp26
sg17
(lp27
sg19
(lp28
sg21
I0
sba(iArchitecture
Entity
p29
(dp30
g11
(lp31
sg13
S'android.accessibilityservice.AccessibilityService$Callbacks'
p32
sg15
(lp33
sg17
(lp34
sg19
(lp35
sg21
I0
sba(iArchitecture
Entity
p36
(dp37
g11
(lp38
sg13
S'android.accessibilityservice.AccessibilityService$IAccessibilityServiceClientWrapper'
p39
sg15
(lp40
sg17
(lp41
sg19
(lp42
sg21
I0
sba(iArchitecture
Entity
p43
(dp44
g11
(lp45
sg13
S'android.accessibilityservice.AccessibilityServiceInfo'
p46
sg15
(lp47
sg17
(lp48
sg19
(lp49
sg21
I0
sba(iArchitecture
Entity
p50
(dp51
g11
(lp52
sg13
S'android.accessibilityservice.AccessibilityServiceInfo$1'
p53
sg15
(lp54
sg17
(lp55
sg19
(lp56
sg21
I0
sba(iArchitecture
Entity
p57
(dp58
g11
(lp59
sg13
S'android.accessibilityservice.AccessibilityServiceInfo$CapabilityInfo'
p60
sg15
(lp61
sg17
(lp62
sg19
(lp63
sg21
I0
sbasS'classes'
p64
(lp65
g14
ag25
ag32
ag39
ag46
ag53
ag60
asg21
I0
sS'label'
p66
S'1232'
p67
sbasS'target_sub'
p68
S'android.accessibilityservice'
p69
sg64
(lp70
sS'is_component_arch'
p71
I00
sg66
S'6.0.0_r1'
p72
sba(iArchitecture
Architecture
p73
(dp74
g3
(lp75
(iArchitecture
Cluster
p76
(dp77
g7
(lp78
(iArchitecture
Entity
p79
(dp80
g11
(lp81
sg13
S'android.accessibilityservice.GestureDescription'
p82
sg15
(lp83
sg17
(lp84
sg19
(lp85
sg21
I0
sba(iArchitecture
Entity
p86
(dp87
g11
(lp88
sg13
S'android.accessibilityservice.GestureDescription$Builder'
p89
sg15
(lp90
sg17
(lp91
sg19
(lp92
sg21
I0
sba(iArchitecture
Entity
p93
(dp94
g11
(lp95
sg13
S'android.accessibilityservice.GestureDescription$MotionEventGenerator'
p96
sg15
(lp97
sg17
(lp98
sg19
(lp99
sg21
I0
sba(iArchitecture
Entity
p100
(dp101
g11
(lp102
sg13
S'android.accessibilityservice.GestureDescription$StrokeDescription'
p103
sg15
(lp104
sg17
(lp105
sg19
(lp106
sg21
I0
sba(iArchitecture
Entity
p107
(dp108
g11
(lp109
sg13
S'android.accessibilityservice.GestureDescription$TouchPoint'
p110
sg15
(lp111
sg17
(lp112
sg19
(lp113
sg21
I0
sbasg64
(lp114
g82
ag89
ag96
ag103
ag110
asg21
I0
sg66
S'1079'
p115
sba(iArchitecture
Cluster
p116
(dp117
g7
(lp118
(iArchitecture
Entity
p119
(dp120
g11
(lp121
sg13
S'android.accessibilityservice.AccessibilityService'
p122
sg15
(lp123
sg17
(lp124
sg19
(lp125
sg21
I0
sba(iArchitecture
Entity
p126
(dp127
g11
(lp128
sg13
S'android.accessibilityservice.AccessibilityService$1'
p129
sg15
(lp130
sg17
(lp131
sg19
(lp132
sg21
I0
sba(iArchitecture
Entity
p133
(dp134
g11
(lp135
sg13
S'android.accessibilityservice.AccessibilityService$2'
p136
sg15
(lp137
sg17
(lp138
sg19
(lp139
sg21
I0
sba(iArchitecture
Entity
p140
(dp141
g11
(lp142
sg13
S'android.accessibilityservice.AccessibilityService$Callbacks'
p143
sg15
(lp144
sg17
(lp145
sg19
(lp146
sg21
I0
sba(iArchitecture
Entity
p147
(dp148
g11
(lp149
sg13
S'android.accessibilityservice.AccessibilityService$GestureResultCallback'
p150
sg15
(lp151
sg17
(lp152
sg19
(lp153
sg21
I0
sba(iArchitecture
Entity
p154
(dp155
g11
(lp156
sg13
S'android.accessibilityservice.AccessibilityService$GestureResultCallbackInfo'
p157
sg15
(lp158
sg17
(lp159
sg19
(lp160
sg21
I0
sba(iArchitecture
Entity
p161
(dp162
g11
(lp163
sg13
S'android.accessibilityservice.AccessibilityService$IAccessibilityServiceClientWrapper'
p164
sg15
(lp165
sg17
(lp166
sg19
(lp167
sg21
I0
sba(iArchitecture
Entity
p168
(dp169
g11
(lp170
sg13
S'android.accessibilityservice.AccessibilityService$MagnificationController'
p171
sg15
(lp172
sg17
(lp173
sg19
(lp174
sg21
I0
sba(iArchitecture
Entity
p175
(dp176
g11
(lp177
sg13
S'android.accessibilityservice.AccessibilityService$MagnificationController$1'
p178
sg15
(lp179
sg17
(lp180
sg19
(lp181
sg21
I0
sba(iArchitecture
Entity
p182
(dp183
g11
(lp184
sg13
S'android.accessibilityservice.AccessibilityService$MagnificationController$OnMagnificationChangedListener'
p185
sg15
(lp186
sg17
(lp187
sg19
(lp188
sg21
I0
sba(iArchitecture
Entity
p189
(dp190
g11
(lp191
sg13
S'android.accessibilityservice.AccessibilityService$SoftKeyboardController'
p192
sg15
(lp193
sg17
(lp194
sg19
(lp195
sg21
I0
sba(iArchitecture
Entity
p196
(dp197
g11
(lp198
sg13
S'android.accessibilityservice.AccessibilityService$SoftKeyboardController$1'
p199
sg15
(lp200
sg17
(lp201
sg19
(lp202
sg21
I0
sba(iArchitecture
Entity
p203
(dp204
g11
(lp205
sg13
S'android.accessibilityservice.AccessibilityService$SoftKeyboardController$OnShowModeChangedListener'
p206
sg15
(lp207
sg17
(lp208
sg19
(lp209
sg21
I0
sba(iArchitecture
Entity
p210
(dp211
g11
(lp212
sg13
S'android.accessibilityservice.AccessibilityServiceInfo'
p213
sg15
(lp214
sg17
(lp215
sg19
(lp216
sg21
I0
sba(iArchitecture
Entity
p217
(dp218
g11
(lp219
sg13
S'android.accessibilityservice.AccessibilityServiceInfo$1'
p220
sg15
(lp221
sg17
(lp222
sg19
(lp223
sg21
I0
sba(iArchitecture
Entity
p224
(dp225
g11
(lp226
sg13
S'android.accessibilityservice.AccessibilityServiceInfo$CapabilityInfo'
p227
sg15
(lp228
sg17
(lp229
sg19
(lp230
sg21
I0
sbasg64
(lp231
g122
ag129
ag136
ag143
ag150
ag157
ag164
ag171
ag178
ag185
ag192
ag199
ag206
ag213
ag220
ag227
asg21
I0
sg66
S'1406'
p232
sbasg68
g69
sg64
(lp233
sg71
I00
sg66
S'7.0.0_r1'
p234
sba.