(lp0
(iArchitecture
Architecture
p1
(dp2
S'clusters'
p3
(lp4
(iArchitecture
Cluster
p5
(dp6
S'entities'
p7
(lp8
(iArchitecture
Entity
p9
(dp10
S'issue_ids'
p11
(lp12
sS'name'
p13
S'android.location.LocationManager'
p14
sS'descs'
p15
(lp16
sS'labels'
p17
(lp18
sS'titles'
p19
(lp20
sS'change'
p21
I0
sba(iArchitecture
Entity
p22
(dp23
g11
(lp24
sg13
S'android.location.LocationManager$GpsStatusListenerTransport'
p25
sg15
(lp26
sg17
(lp27
sg19
(lp28
sg21
I0
sba(iArchitecture
Entity
p29
(dp30
g11
(lp31
sg13
S'android.location.LocationManager$GpsStatusListenerTransport$1'
p32
sg15
(lp33
sg17
(lp34
sg19
(lp35
sg21
I0
sba(iArchitecture
Entity
p36
(dp37
g11
(lp38
sg13
S'android.location.LocationManager$GpsStatusListenerTransport$Nmea'
p39
sg15
(lp40
sg17
(lp41
sg19
(lp42
sg21
I0
sba(iArchitecture
Entity
p43
(dp44
g11
(lp45
sg13
S'android.location.LocationManager$ListenerTransport'
p46
sg15
(lp47
sg17
(lp48
sg19
(lp49
sg21
I0
sba(iArchitecture
Entity
p50
(dp51
g11
(lp52
sg13
S'android.location.LocationManager$ListenerTransport$1'
p53
sg15
(lp54
sg17
(lp55
sg19
(lp56
sg21
I0
sba(iArchitecture
Entity
p57
(dp58
g11
(lp59
sg13
S'android.location.LocationManager$ListenerTransport$2'
p60
sg15
(lp61
sg17
(lp62
sg19
(lp63
sg21
I0
sbasS'classes'
p64
(lp65
g14
ag25
ag32
ag39
ag46
ag53
ag60
asg21
I0
sS'label'
p66
S'1008'
p67
sba(iArchitecture
Cluster
p68
(dp69
g7
(lp70
(iArchitecture
Entity
p71
(dp72
g11
(lp73
sg13
S'android.location.LocationProvider'
p74
sg15
(lp75
sg17
(lp76
sg19
(lp77
sg21
I0
sbasg64
(lp78
g74
asg21
I0
sg66
S'1147'
p79
sba(iArchitecture
Cluster
p80
(dp81
g7
(lp82
(iArchitecture
Entity
p83
(dp84
g11
(lp85
sg13
S'android.location.LocalListenerHelper'
p86
sg15
(lp87
sg17
(lp88
sg19
(lp89
sg21
I0
sba(iArchitecture
Entity
p90
(dp91
g11
(lp92
sg13
S'android.location.LocalListenerHelper$ListenerOperation'
p93
sg15
(lp94
sg17
(lp95
sg19
(lp96
sg21
I0
sbasg64
(lp97
g86
ag93
asg21
I0
sg66
S'1179'
p98
sba(iArchitecture
Cluster
p99
(dp100
g7
(lp101
(iArchitecture
Entity
p102
(dp103
g11
(lp104
sg13
S'android.location.GpsSatellite'
p105
sg15
(lp106
sg17
(lp107
sg19
(lp108
sg21
I0
sbasg64
(lp109
g105
asg21
I0
sg66
S'119'
p110
sba(iArchitecture
Cluster
p111
(dp112
g7
(lp113
(iArchitecture
Entity
p114
(dp115
g11
(lp116
sg13
S'android.location.CountryListener'
p117
sg15
(lp118
sg17
(lp119
sg19
(lp120
sg21
I0
sbasg64
(lp121
g117
asg21
I0
sg66
S'1223'
p122
sba(iArchitecture
Cluster
p123
(dp124
g7
(lp125
(iArchitecture
Entity
p126
(dp127
g11
(lp128
sg13
S'android.location.LocationListener'
p129
sg15
(lp130
sg17
(lp131
sg19
(lp132
sg21
I0
sbasg64
(lp133
g129
asg21
I0
sg66
S'410'
p134
sba(iArchitecture
Cluster
p135
(dp136
g7
(lp137
(iArchitecture
Entity
p138
(dp139
g11
(lp140
sg13
S'android.location.Geocoder'
p141
sg15
(lp142
sg17
(lp143
sg19
(lp144
sg21
I0
sbasg64
(lp145
g141
asg21
I0
sg66
S'424'
p146
sba(iArchitecture
Cluster
p147
(dp148
g7
(lp149
(iArchitecture
Entity
p150
(dp151
g11
(lp152
sg13
S'android.location.GpsNavigationMessage'
p153
sg15
(lp154
sg17
(lp155
sg19
(lp156
sg21
I0
sba(iArchitecture
Entity
p157
(dp158
g11
(lp159
sg13
S'android.location.GpsNavigationMessage$1'
p160
sg15
(lp161
sg17
(lp162
sg19
(lp163
sg21
I0
sbasg64
(lp164
g153
ag160
asg21
I0
sg66
S'465'
p165
sba(iArchitecture
Cluster
p166
(dp167
g7
(lp168
(iArchitecture
Entity
p169
(dp170
g11
(lp171
sg13
S'android.location.GpsMeasurement'
p172
sg15
(lp173
sg17
(lp174
sg19
(lp175
sg21
I0
sba(iArchitecture
Entity
p176
(dp177
g11
(lp178
sg13
S'android.location.GpsMeasurement$1'
p179
sg15
(lp180
sg17
(lp181
sg19
(lp182
sg21
I0
sbasg64
(lp183
g172
ag179
asg21
I0
sg66
S'525'
p184
sba(iArchitecture
Cluster
p185
(dp186
g7
(lp187
(iArchitecture
Entity
p188
(dp189
g11
(lp190
sg13
S'android.location.Country'
p191
sg15
(lp192
sg17
(lp193
sg19
(lp194
sg21
I0
sba(iArchitecture
Entity
p195
(dp196
g11
(lp197
sg13
S'android.location.Country$1'
p198
sg15
(lp199
sg17
(lp200
sg19
(lp201
sg21
I0
sbasg64
(lp202
g191
ag198
asg21
I0
sg66
S'528'
p203
sba(iArchitecture
Cluster
p204
(dp205
g7
(lp206
(iArchitecture
Entity
p207
(dp208
g11
(lp209
sg13
S'android.location.Address'
p210
sg15
(lp211
sg17
(lp212
sg19
(lp213
sg21
I0
sba(iArchitecture
Entity
p214
(dp215
g11
(lp216
sg13
S'android.location.Address$1'
p217
sg15
(lp218
sg17
(lp219
sg19
(lp220
sg21
I0
sbasg64
(lp221
g210
ag217
asg21
I0
sg66
S'538'
p222
sba(iArchitecture
Cluster
p223
(dp224
g7
(lp225
(iArchitecture
Entity
p226
(dp227
g11
(lp228
sg13
S'android.location.Geofence'
p229
sg15
(lp230
sg17
(lp231
sg19
(lp232
sg21
I0
sba(iArchitecture
Entity
p233
(dp234
g11
(lp235
sg13
S'android.location.Geofence$1'
p236
sg15
(lp237
sg17
(lp238
sg19
(lp239
sg21
I0
sbasg64
(lp240
g229
ag236
asg21
I0
sg66
S'547'
p241
sba(iArchitecture
Cluster
p242
(dp243
g7
(lp244
(iArchitecture
Entity
p245
(dp246
g11
(lp247
sg13
S'android.location.GpsClock'
p248
sg15
(lp249
sg17
(lp250
sg19
(lp251
sg21
I0
sba(iArchitecture
Entity
p252
(dp253
g11
(lp254
sg13
S'android.location.GpsClock$1'
p255
sg15
(lp256
sg17
(lp257
sg19
(lp258
sg21
I0
sbasg64
(lp259
g248
ag255
asg21
I0
sg66
S'598'
p260
sba(iArchitecture
Cluster
p261
(dp262
g7
(lp263
(iArchitecture
Entity
p264
(dp265
g11
(lp266
sg13
S'android.location.Criteria'
p267
sg15
(lp268
sg17
(lp269
sg19
(lp270
sg21
I0
sba(iArchitecture
Entity
p271
(dp272
g11
(lp273
sg13
S'android.location.Criteria$1'
p274
sg15
(lp275
sg17
(lp276
sg19
(lp277
sg21
I0
sbasg64
(lp278
g267
ag274
asg21
I0
sg66
S'609'
p279
sba(iArchitecture
Cluster
p280
(dp281
g7
(lp282
(iArchitecture
Entity
p283
(dp284
g11
(lp285
sg13
S'android.location.Location'
p286
sg15
(lp287
sg17
(lp288
sg19
(lp289
sg21
I0
sba(iArchitecture
Entity
p290
(dp291
g11
(lp292
sg13
S'android.location.Location$1'
p293
sg15
(lp294
sg17
(lp295
sg19
(lp296
sg21
I0
sbasg64
(lp297
g286
ag293
asg21
I0
sg66
S'691'
p298
sba(iArchitecture
Cluster
p299
(dp300
g7
(lp301
(iArchitecture
Entity
p302
(dp303
g11
(lp304
sg13
S'android.location.SettingInjectorService'
p305
sg15
(lp306
sg17
(lp307
sg19
(lp308
sg21
I0
sbasg64
(lp309
g305
asg21
I0
sg66
S'71'
p310
sba(iArchitecture
Cluster
p311
(dp312
g7
(lp313
(iArchitecture
Entity
p314
(dp315
g11
(lp316
sg13
S'android.location.LocationRequest'
p317
sg15
(lp318
sg17
(lp319
sg19
(lp320
sg21
I0
sba(iArchitecture
Entity
p321
(dp322
g11
(lp323
sg13
S'android.location.LocationRequest$1'
p324
sg15
(lp325
sg17
(lp326
sg19
(lp327
sg21
I0
sbasg64
(lp328
g317
ag324
asg21
I0
sg66
S'726'
p329
sba(iArchitecture
Cluster
p330
(dp331
g7
(lp332
(iArchitecture
Entity
p333
(dp334
g11
(lp335
sg13
S'android.location.GeocoderParams'
p336
sg15
(lp337
sg17
(lp338
sg19
(lp339
sg21
I0
sba(iArchitecture
Entity
p340
(dp341
g11
(lp342
sg13
S'android.location.GeocoderParams$1'
p343
sg15
(lp344
sg17
(lp345
sg19
(lp346
sg21
I0
sbasg64
(lp347
g336
ag343
asg21
I0
sg66
S'728'
p348
sba(iArchitecture
Cluster
p349
(dp350
g7
(lp351
(iArchitecture
Entity
p352
(dp353
g11
(lp354
sg13
S'android.location.GpsMeasurementsEvent'
p355
sg15
(lp356
sg17
(lp357
sg19
(lp358
sg21
I0
sba(iArchitecture
Entity
p359
(dp360
g11
(lp361
sg13
S'android.location.GpsMeasurementsEvent$1'
p362
sg15
(lp363
sg17
(lp364
sg19
(lp365
sg21
I0
sba(iArchitecture
Entity
p366
(dp367
g11
(lp368
sg13
S'android.location.GpsMeasurementsEvent$Listener'
p369
sg15
(lp370
sg17
(lp371
sg19
(lp372
sg21
I0
sbasg64
(lp373
g355
ag362
ag369
asg21
I0
sg66
S'810'
p374
sba(iArchitecture
Cluster
p375
(dp376
g7
(lp377
(iArchitecture
Entity
p378
(dp379
g11
(lp380
sg13
S'android.location.GpsNavigationMessageEvent'
p381
sg15
(lp382
sg17
(lp383
sg19
(lp384
sg21
I0
sba(iArchitecture
Entity
p385
(dp386
g11
(lp387
sg13
S'android.location.GpsNavigationMessageEvent$1'
p388
sg15
(lp389
sg17
(lp390
sg19
(lp391
sg21
I0
sba(iArchitecture
Entity
p392
(dp393
g11
(lp394
sg13
S'android.location.GpsNavigationMessageEvent$Listener'
p395
sg15
(lp396
sg17
(lp397
sg19
(lp398
sg21
I0
sbasg64
(lp399
g381
ag388
ag395
asg21
I0
sg66
S'813'
p400
sba(iArchitecture
Cluster
p401
(dp402
g7
(lp403
(iArchitecture
Entity
p404
(dp405
g11
(lp406
sg13
S'android.location.CountryDetector'
p407
sg15
(lp408
sg17
(lp409
sg19
(lp410
sg21
I0
sba(iArchitecture
Entity
p411
(dp412
g11
(lp413
sg13
S'android.location.CountryDetector$ListenerTransport'
p414
sg15
(lp415
sg17
(lp416
sg19
(lp417
sg21
I0
sba(iArchitecture
Entity
p418
(dp419
g11
(lp420
sg13
S'android.location.CountryDetector$ListenerTransport$1'
p421
sg15
(lp422
sg17
(lp423
sg19
(lp424
sg21
I0
sbasg64
(lp425
g407
ag414
ag421
asg21
I0
sg66
S'858'
p426
sba(iArchitecture
Cluster
p427
(dp428
g7
(lp429
(iArchitecture
Entity
p430
(dp431
g11
(lp432
sg13
S'android.location.FusedBatchOptions'
p433
sg15
(lp434
sg17
(lp435
sg19
(lp436
sg21
I0
sba(iArchitecture
Entity
p437
(dp438
g11
(lp439
sg13
S'android.location.FusedBatchOptions$1'
p440
sg15
(lp441
sg17
(lp442
sg19
(lp443
sg21
I0
sba(iArchitecture
Entity
p444
(dp445
g11
(lp446
sg13
S'android.location.FusedBatchOptions$BatchFlags'
p447
sg15
(lp448
sg17
(lp449
sg19
(lp450
sg21
I0
sba(iArchitecture
Entity
p451
(dp452
g11
(lp453
sg13
S'android.location.FusedBatchOptions$SourceTechnologies'
p454
sg15
(lp455
sg17
(lp456
sg19
(lp457
sg21
I0
sbasg64
(lp458
g433
ag440
ag447
ag454
asg21
I0
sg66
S'888'
p459
sba(iArchitecture
Cluster
p460
(dp461
g7
(lp462
(iArchitecture
Entity
p463
(dp464
g11
(lp465
sg13
S'android.location.GpsStatus'
p466
sg15
(lp467
sg17
(lp468
sg19
(lp469
sg21
I0
sba(iArchitecture
Entity
p470
(dp471
g11
(lp472
sg13
S'android.location.GpsStatus$1'
p473
sg15
(lp474
sg17
(lp475
sg19
(lp476
sg21
I0
sba(iArchitecture
Entity
p477
(dp478
g11
(lp479
sg13
S'android.location.GpsStatus$Listener'
p480
sg15
(lp481
sg17
(lp482
sg19
(lp483
sg21
I0
sba(iArchitecture
Entity
p484
(dp485
g11
(lp486
sg13
S'android.location.GpsStatus$NmeaListener'
p487
sg15
(lp488
sg17
(lp489
sg19
(lp490
sg21
I0
sba(iArchitecture
Entity
p491
(dp492
g11
(lp493
sg13
S'android.location.GpsStatus$SatelliteIterator'
p494
sg15
(lp495
sg17
(lp496
sg19
(lp497
sg21
I0
sbasg64
(lp498
g466
ag473
ag480
ag487
ag494
asg21
I0
sg66
S'948'
p499
sbasS'target_sub'
p500
S'android.location'
p501
sg64
(lp502
sS'is_component_arch'
p503
I00
sg66
S'6.0.0_r1'
p504
sba(iArchitecture
Architecture
p505
(dp506
g3
(lp507
(iArchitecture
Cluster
p508
(dp509
g7
(lp510
(iArchitecture
Entity
p511
(dp512
g11
(lp513
sg13
S'android.location.FusedBatchOptions'
p514
sg15
(lp515
sg17
(lp516
sg19
(lp517
sg21
I0
sba(iArchitecture
Entity
p518
(dp519
g11
(lp520
sg13
S'android.location.FusedBatchOptions$1'
p521
sg15
(lp522
sg17
(lp523
sg19
(lp524
sg21
I0
sba(iArchitecture
Entity
p525
(dp526
g11
(lp527
sg13
S'android.location.FusedBatchOptions$BatchFlags'
p528
sg15
(lp529
sg17
(lp530
sg19
(lp531
sg21
I0
sba(iArchitecture
Entity
p532
(dp533
g11
(lp534
sg13
S'android.location.FusedBatchOptions$SourceTechnologies'
p535
sg15
(lp536
sg17
(lp537
sg19
(lp538
sg21
I0
sbasg64
(lp539
g514
ag521
ag528
ag535
asg21
I0
sg66
S'1003'
p540
sba(iArchitecture
Cluster
p541
(dp542
g7
(lp543
(iArchitecture
Entity
p544
(dp545
g11
(lp546
sg13
S'android.location.Location'
p547
sg15
(lp548
sg17
(lp549
sg19
(lp550
sg21
I0
sba(iArchitecture
Entity
p551
(dp552
g11
(lp553
sg13
S'android.location.Location$1'
p554
sg15
(lp555
sg17
(lp556
sg19
(lp557
sg21
I0
sba(iArchitecture
Entity
p558
(dp559
g11
(lp560
sg13
S'android.location.Location$2'
p561
sg15
(lp562
sg17
(lp563
sg19
(lp564
sg21
I0
sba(iArchitecture
Entity
p565
(dp566
g11
(lp567
sg13
S'android.location.Location$BearingDistanceCache'
p568
sg15
(lp569
sg17
(lp570
sg19
(lp571
sg21
I0
sbasg64
(lp572
g547
ag554
ag561
ag568
asg21
I0
sg66
S'1004'
p573
sba(iArchitecture
Cluster
p574
(dp575
g7
(lp576
(iArchitecture
Entity
p577
(dp578
g11
(lp579
sg13
S'android.location.GpsStatus'
p580
sg15
(lp581
sg17
(lp582
sg19
(lp583
sg21
I0
sba(iArchitecture
Entity
p584
(dp585
g11
(lp586
sg13
S'android.location.GpsStatus$1'
p587
sg15
(lp588
sg17
(lp589
sg19
(lp590
sg21
I0
sba(iArchitecture
Entity
p591
(dp592
g11
(lp593
sg13
S'android.location.GpsStatus$Listener'
p594
sg15
(lp595
sg17
(lp596
sg19
(lp597
sg21
I0
sba(iArchitecture
Entity
p598
(dp599
g11
(lp600
sg13
S'android.location.GpsStatus$NmeaListener'
p601
sg15
(lp602
sg17
(lp603
sg19
(lp604
sg21
I0
sba(iArchitecture
Entity
p605
(dp606
g11
(lp607
sg13
S'android.location.GpsStatus$SatelliteIterator'
p608
sg15
(lp609
sg17
(lp610
sg19
(lp611
sg21
I0
sbasg64
(lp612
g580
ag587
ag594
ag601
ag608
asg21
I0
sg66
S'1071'
p613
sba(iArchitecture
Cluster
p614
(dp615
g7
(lp616
(iArchitecture
Entity
p617
(dp618
g11
(lp619
sg13
S'android.location.LocationManager'
p620
sg15
(lp621
sg17
(lp622
sg19
(lp623
sg21
I0
sba(iArchitecture
Entity
p624
(dp625
g11
(lp626
sg13
S'android.location.LocationManager$1'
p627
sg15
(lp628
sg17
(lp629
sg19
(lp630
sg21
I0
sba(iArchitecture
Entity
p631
(dp632
g11
(lp633
sg13
S'android.location.LocationManager$GnssStatusListenerTransport'
p634
sg15
(lp635
sg17
(lp636
sg19
(lp637
sg21
I0
sba(iArchitecture
Entity
p638
(dp639
g11
(lp640
sg13
S'android.location.LocationManager$GnssStatusListenerTransport$1'
p641
sg15
(lp642
sg17
(lp643
sg19
(lp644
sg21
I0
sba(iArchitecture
Entity
p645
(dp646
g11
(lp647
sg13
S'android.location.LocationManager$GnssStatusListenerTransport$2'
p648
sg15
(lp649
sg17
(lp650
sg19
(lp651
sg21
I0
sba(iArchitecture
Entity
p652
(dp653
g11
(lp654
sg13
S'android.location.LocationManager$GnssStatusListenerTransport$3'
p655
sg15
(lp656
sg17
(lp657
sg19
(lp658
sg21
I0
sba(iArchitecture
Entity
p659
(dp660
g11
(lp661
sg13
S'android.location.LocationManager$GnssStatusListenerTransport$4'
p662
sg15
(lp663
sg17
(lp664
sg19
(lp665
sg21
I0
sba(iArchitecture
Entity
p666
(dp667
g11
(lp668
sg13
S'android.location.LocationManager$GnssStatusListenerTransport$GnssHandler'
p669
sg15
(lp670
sg17
(lp671
sg19
(lp672
sg21
I0
sba(iArchitecture
Entity
p673
(dp674
g11
(lp675
sg13
S'android.location.LocationManager$GnssStatusListenerTransport$Nmea'
p676
sg15
(lp677
sg17
(lp678
sg19
(lp679
sg21
I0
sba(iArchitecture
Entity
p680
(dp681
g11
(lp682
sg13
S'android.location.LocationManager$ListenerTransport'
p683
sg15
(lp684
sg17
(lp685
sg19
(lp686
sg21
I0
sba(iArchitecture
Entity
p687
(dp688
g11
(lp689
sg13
S'android.location.LocationManager$ListenerTransport$1'
p690
sg15
(lp691
sg17
(lp692
sg19
(lp693
sg21
I0
sba(iArchitecture
Entity
p694
(dp695
g11
(lp696
sg13
S'android.location.LocationManager$ListenerTransport$2'
p697
sg15
(lp698
sg17
(lp699
sg19
(lp700
sg21
I0
sbasg64
(lp701
g620
ag627
ag634
ag641
ag648
ag655
ag662
ag669
ag676
ag683
ag690
ag697
asg21
I0
sg66
S'1186'
p702
sba(iArchitecture
Cluster
p703
(dp704
g7
(lp705
(iArchitecture
Entity
p706
(dp707
g11
(lp708
sg13
S'android.location.GnssMeasurementCallbackTransport'
p709
sg15
(lp710
sg17
(lp711
sg19
(lp712
sg21
I0
sba(iArchitecture
Entity
p713
(dp714
g11
(lp715
sg13
S'android.location.GnssMeasurementCallbackTransport$ListenerTransport'
p716
sg15
(lp717
sg17
(lp718
sg19
(lp719
sg21
I0
sba(iArchitecture
Entity
p720
(dp721
g11
(lp722
sg13
S'android.location.GnssMeasurementCallbackTransport$ListenerTransport$1'
p723
sg15
(lp724
sg17
(lp725
sg19
(lp726
sg21
I0
sba(iArchitecture
Entity
p727
(dp728
g11
(lp729
sg13
S'android.location.GnssMeasurementCallbackTransport$ListenerTransport$2'
p730
sg15
(lp731
sg17
(lp732
sg19
(lp733
sg21
I0
sba(iArchitecture
Entity
p734
(dp735
g11
(lp736
sg13
S'android.location.GnssNavigationMessageCallbackTransport'
p737
sg15
(lp738
sg17
(lp739
sg19
(lp740
sg21
I0
sba(iArchitecture
Entity
p741
(dp742
g11
(lp743
sg13
S'android.location.GnssNavigationMessageCallbackTransport$ListenerTransport'
p744
sg15
(lp745
sg17
(lp746
sg19
(lp747
sg21
I0
sba(iArchitecture
Entity
p748
(dp749
g11
(lp750
sg13
S'android.location.GnssNavigationMessageCallbackTransport$ListenerTransport$1'
p751
sg15
(lp752
sg17
(lp753
sg19
(lp754
sg21
I0
sba(iArchitecture
Entity
p755
(dp756
g11
(lp757
sg13
S'android.location.GnssNavigationMessageCallbackTransport$ListenerTransport$2'
p758
sg15
(lp759
sg17
(lp760
sg19
(lp761
sg21
I0
sbasg64
(lp762
g709
ag716
ag723
ag730
ag737
ag744
ag751
ag758
asg21
I0
sg66
S'1254'
p763
sba(iArchitecture
Cluster
p764
(dp765
g7
(lp766
(iArchitecture
Entity
p767
(dp768
g11
(lp769
sg13
S'android.location.LocationProvider'
p770
sg15
(lp771
sg17
(lp772
sg19
(lp773
sg21
I0
sbasg64
(lp774
g770
asg21
I0
sg66
S'1288'
p775
sba(iArchitecture
Cluster
p776
(dp777
g7
(lp778
(iArchitecture
Entity
p779
(dp780
g11
(lp781
sg13
S'android.location.GnssMeasurementsEvent'
p782
sg15
(lp783
sg17
(lp784
sg19
(lp785
sg21
I0
sba(iArchitecture
Entity
p786
(dp787
g11
(lp788
sg13
S'android.location.GnssMeasurementsEvent$1'
p789
sg15
(lp790
sg17
(lp791
sg19
(lp792
sg21
I0
sba(iArchitecture
Entity
p793
(dp794
g11
(lp795
sg13
S'android.location.GnssMeasurementsEvent$Callback'
p796
sg15
(lp797
sg17
(lp798
sg19
(lp799
sg21
I0
sba(iArchitecture
Entity
p800
(dp801
g11
(lp802
sg13
S'android.location.GpsMeasurementsEvent'
p803
sg15
(lp804
sg17
(lp805
sg19
(lp806
sg21
I0
sba(iArchitecture
Entity
p807
(dp808
g11
(lp809
sg13
S'android.location.GpsMeasurementsEvent$1'
p810
sg15
(lp811
sg17
(lp812
sg19
(lp813
sg21
I0
sba(iArchitecture
Entity
p814
(dp815
g11
(lp816
sg13
S'android.location.GpsMeasurementsEvent$Listener'
p817
sg15
(lp818
sg17
(lp819
sg19
(lp820
sg21
I0
sbasg64
(lp821
g782
ag789
ag796
ag803
ag810
ag817
asg21
I0
sg66
S'1294'
p822
sba(iArchitecture
Cluster
p823
(dp824
g7
(lp825
(iArchitecture
Entity
p826
(dp827
g11
(lp828
sg13
S'android.location.GnssNavigationMessage'
p829
sg15
(lp830
sg17
(lp831
sg19
(lp832
sg21
I0
sba(iArchitecture
Entity
p833
(dp834
g11
(lp835
sg13
S'android.location.GnssNavigationMessage$1'
p836
sg15
(lp837
sg17
(lp838
sg19
(lp839
sg21
I0
sba(iArchitecture
Entity
p840
(dp841
g11
(lp842
sg13
S'android.location.GnssNavigationMessage$Callback'
p843
sg15
(lp844
sg17
(lp845
sg19
(lp846
sg21
I0
sba(iArchitecture
Entity
p847
(dp848
g11
(lp849
sg13
S'android.location.GpsNavigationMessage'
p850
sg15
(lp851
sg17
(lp852
sg19
(lp853
sg21
I0
sba(iArchitecture
Entity
p854
(dp855
g11
(lp856
sg13
S'android.location.GpsNavigationMessage$1'
p857
sg15
(lp858
sg17
(lp859
sg19
(lp860
sg21
I0
sbasg64
(lp861
g829
ag836
ag843
ag850
ag857
asg21
I0
sg66
S'1305'
p862
sba(iArchitecture
Cluster
p863
(dp864
g7
(lp865
(iArchitecture
Entity
p866
(dp867
g11
(lp868
sg13
S'android.location.CountryListener'
p869
sg15
(lp870
sg17
(lp871
sg19
(lp872
sg21
I0
sbasg64
(lp873
g869
asg21
I0
sg66
S'1330'
p874
sba(iArchitecture
Cluster
p875
(dp876
g7
(lp877
(iArchitecture
Entity
p878
(dp879
g11
(lp880
sg13
S'android.location.GpsSatellite'
p881
sg15
(lp882
sg17
(lp883
sg19
(lp884
sg21
I0
sbasg64
(lp885
g881
asg21
I0
sg66
S'134'
p886
sba(iArchitecture
Cluster
p887
(dp888
g7
(lp889
(iArchitecture
Entity
p890
(dp891
g11
(lp892
sg13
S'android.location.GnssMeasurement'
p893
sg15
(lp894
sg17
(lp895
sg19
(lp896
sg21
I0
sba(iArchitecture
Entity
p897
(dp898
g11
(lp899
sg13
S'android.location.GnssMeasurement$1'
p900
sg15
(lp901
sg17
(lp902
sg19
(lp903
sg21
I0
sba(iArchitecture
Entity
p904
(dp905
g11
(lp906
sg13
S'android.location.GpsMeasurement'
p907
sg15
(lp908
sg17
(lp909
sg19
(lp910
sg21
I0
sba(iArchitecture
Entity
p911
(dp912
g11
(lp913
sg13
S'android.location.GpsMeasurement$1'
p914
sg15
(lp915
sg17
(lp916
sg19
(lp917
sg21
I0
sbasg64
(lp918
g893
ag900
ag907
ag914
asg21
I0
sg66
S'1370'
p919
sba(iArchitecture
Cluster
p920
(dp921
g7
(lp922
(iArchitecture
Entity
p923
(dp924
g11
(lp925
sg13
S'android.location.CountryDetector'
p926
sg15
(lp927
sg17
(lp928
sg19
(lp929
sg21
I0
sba(iArchitecture
Entity
p930
(dp931
g11
(lp932
sg13
S'android.location.CountryDetector$ListenerTransport'
p933
sg15
(lp934
sg17
(lp935
sg19
(lp936
sg21
I0
sba(iArchitecture
Entity
p937
(dp938
g11
(lp939
sg13
S'android.location.CountryDetector$ListenerTransport$1'
p940
sg15
(lp941
sg17
(lp942
sg19
(lp943
sg21
I0
sba(iArchitecture
Entity
p944
(dp945
g11
(lp946
sg13
S'android.location.GpsNavigationMessageEvent'
p947
sg15
(lp948
sg17
(lp949
sg19
(lp950
sg21
I0
sba(iArchitecture
Entity
p951
(dp952
g11
(lp953
sg13
S'android.location.GpsNavigationMessageEvent$1'
p954
sg15
(lp955
sg17
(lp956
sg19
(lp957
sg21
I0
sba(iArchitecture
Entity
p958
(dp959
g11
(lp960
sg13
S'android.location.GpsNavigationMessageEvent$Listener'
p961
sg15
(lp962
sg17
(lp963
sg19
(lp964
sg21
I0
sba(iArchitecture
Entity
p965
(dp966
g11
(lp967
sg13
S'android.location.LocalListenerHelper'
p968
sg15
(lp969
sg17
(lp970
sg19
(lp971
sg21
I0
sba(iArchitecture
Entity
p972
(dp973
g11
(lp974
sg13
S'android.location.LocalListenerHelper$1'
p975
sg15
(lp976
sg17
(lp977
sg19
(lp978
sg21
I0
sba(iArchitecture
Entity
p979
(dp980
g11
(lp981
sg13
S'android.location.LocalListenerHelper$ListenerOperation'
p982
sg15
(lp983
sg17
(lp984
sg19
(lp985
sg21
I0
sbasg64
(lp986
g926
ag933
ag940
ag947
ag954
ag961
ag968
ag975
ag982
asg21
I0
sg66
S'1384'
p987
sba(iArchitecture
Cluster
p988
(dp989
g7
(lp990
(iArchitecture
Entity
p991
(dp992
g11
(lp993
sg13
S'android.location.GeocoderParams'
p994
sg15
(lp995
sg17
(lp996
sg19
(lp997
sg21
I0
sba(iArchitecture
Entity
p998
(dp999
g11
(lp1000
sg13
S'android.location.GeocoderParams$1'
p1001
sg15
(lp1002
sg17
(lp1003
sg19
(lp1004
sg21
I0
sbasg64
(lp1005
g994
ag1001
asg21
I0
sg66
S'1399'
p1006
sba(iArchitecture
Cluster
p1007
(dp1008
g7
(lp1009
(iArchitecture
Entity
p1010
(dp1011
g11
(lp1012
sg13
S'android.location.OnNmeaMessageListener'
p1013
sg15
(lp1014
sg17
(lp1015
sg19
(lp1016
sg21
I0
sbasg64
(lp1017
g1013
asg21
I0
sg66
S'266'
p1018
sba(iArchitecture
Cluster
p1019
(dp1020
g7
(lp1021
(iArchitecture
Entity
p1022
(dp1023
g11
(lp1024
sg13
S'android.location.LocationListener'
p1025
sg15
(lp1026
sg17
(lp1027
sg19
(lp1028
sg21
I0
sbasg64
(lp1029
g1025
asg21
I0
sg66
S'454'
p1030
sba(iArchitecture
Cluster
p1031
(dp1032
g7
(lp1033
(iArchitecture
Entity
p1034
(dp1035
g11
(lp1036
sg13
S'android.location.Geocoder'
p1037
sg15
(lp1038
sg17
(lp1039
sg19
(lp1040
sg21
I0
sbasg64
(lp1041
g1037
asg21
I0
sg66
S'468'
p1042
sba(iArchitecture
Cluster
p1043
(dp1044
g7
(lp1045
(iArchitecture
Entity
p1046
(dp1047
g11
(lp1048
sg13
S'android.location.Country'
p1049
sg15
(lp1050
sg17
(lp1051
sg19
(lp1052
sg21
I0
sba(iArchitecture
Entity
p1053
(dp1054
g11
(lp1055
sg13
S'android.location.Country$1'
p1056
sg15
(lp1057
sg17
(lp1058
sg19
(lp1059
sg21
I0
sbasg64
(lp1060
g1049
ag1056
asg21
I0
sg66
S'588'
p1061
sba(iArchitecture
Cluster
p1062
(dp1063
g7
(lp1064
(iArchitecture
Entity
p1065
(dp1066
g11
(lp1067
sg13
S'android.location.GnssClock'
p1068
sg15
(lp1069
sg17
(lp1070
sg19
(lp1071
sg21
I0
sba(iArchitecture
Entity
p1072
(dp1073
g11
(lp1074
sg13
S'android.location.GnssClock$1'
p1075
sg15
(lp1076
sg17
(lp1077
sg19
(lp1078
sg21
I0
sbasg64
(lp1079
g1068
ag1075
asg21
I0
sg66
S'598'
p1080
sba(iArchitecture
Cluster
p1081
(dp1082
g7
(lp1083
(iArchitecture
Entity
p1084
(dp1085
g11
(lp1086
sg13
S'android.location.Address'
p1087
sg15
(lp1088
sg17
(lp1089
sg19
(lp1090
sg21
I0
sba(iArchitecture
Entity
p1091
(dp1092
g11
(lp1093
sg13
S'android.location.Address$1'
p1094
sg15
(lp1095
sg17
(lp1096
sg19
(lp1097
sg21
I0
sbasg64
(lp1098
g1087
ag1094
asg21
I0
sg66
S'602'
p1099
sba(iArchitecture
Cluster
p1100
(dp1101
g7
(lp1102
(iArchitecture
Entity
p1103
(dp1104
g11
(lp1105
sg13
S'android.location.Geofence'
p1106
sg15
(lp1107
sg17
(lp1108
sg19
(lp1109
sg21
I0
sba(iArchitecture
Entity
p1110
(dp1111
g11
(lp1112
sg13
S'android.location.Geofence$1'
p1113
sg15
(lp1114
sg17
(lp1115
sg19
(lp1116
sg21
I0
sbasg64
(lp1117
g1106
ag1113
asg21
I0
sg66
S'619'
p1118
sba(iArchitecture
Cluster
p1119
(dp1120
g7
(lp1121
(iArchitecture
Entity
p1122
(dp1123
g11
(lp1124
sg13
S'android.location.GpsClock'
p1125
sg15
(lp1126
sg17
(lp1127
sg19
(lp1128
sg21
I0
sba(iArchitecture
Entity
p1129
(dp1130
g11
(lp1131
sg13
S'android.location.GpsClock$1'
p1132
sg15
(lp1133
sg17
(lp1134
sg19
(lp1135
sg21
I0
sbasg64
(lp1136
g1125
ag1132
asg21
I0
sg66
S'682'
p1137
sba(iArchitecture
Cluster
p1138
(dp1139
g7
(lp1140
(iArchitecture
Entity
p1141
(dp1142
g11
(lp1143
sg13
S'android.location.Criteria'
p1144
sg15
(lp1145
sg17
(lp1146
sg19
(lp1147
sg21
I0
sba(iArchitecture
Entity
p1148
(dp1149
g11
(lp1150
sg13
S'android.location.Criteria$1'
p1151
sg15
(lp1152
sg17
(lp1153
sg19
(lp1154
sg21
I0
sbasg64
(lp1155
g1144
ag1151
asg21
I0
sg66
S'693'
p1156
sba(iArchitecture
Cluster
p1157
(dp1158
g7
(lp1159
(iArchitecture
Entity
p1160
(dp1161
g11
(lp1162
sg13
S'android.location.SettingInjectorService'
p1163
sg15
(lp1164
sg17
(lp1165
sg19
(lp1166
sg21
I0
sbasg64
(lp1167
g1163
asg21
I0
sg66
S'78'
p1168
sba(iArchitecture
Cluster
p1169
(dp1170
g7
(lp1171
(iArchitecture
Entity
p1172
(dp1173
g11
(lp1174
sg13
S'android.location.LocationRequest'
p1175
sg15
(lp1176
sg17
(lp1177
sg19
(lp1178
sg21
I0
sba(iArchitecture
Entity
p1179
(dp1180
g11
(lp1181
sg13
S'android.location.LocationRequest$1'
p1182
sg15
(lp1183
sg17
(lp1184
sg19
(lp1185
sg21
I0
sbasg64
(lp1186
g1175
ag1182
asg21
I0
sg66
S'825'
p1187
sbasg500
g501
sg64
(lp1188
sg503
I00
sg66
S'7.0.0_r1'
p1189
sba.