(lp0
(iArchitecture
Architecture
p1
(dp2
S'clusters'
p3
(lp4
(iArchitecture
Cluster
p5
(dp6
S'entities'
p7
(lp8
(iArchitecture
Entity
p9
(dp10
S'issue_ids'
p11
(lp12
sS'name'
p13
S'com.android.server.media.RemoteDisplayProviderProxy'
p14
sS'descs'
p15
(lp16
sS'labels'
p17
(lp18
sS'titles'
p19
(lp20
sS'change'
p21
I0
sba(iArchitecture
Entity
p22
(dp23
g11
(lp24
sg13
S'com.android.server.media.RemoteDisplayProviderProxy$1'
p25
sg15
(lp26
sg17
(lp27
sg19
(lp28
sg21
I0
sba(iArchitecture
Entity
p29
(dp30
g11
(lp31
sg13
S'com.android.server.media.RemoteDisplayProviderProxy$Callback'
p32
sg15
(lp33
sg17
(lp34
sg19
(lp35
sg21
I0
sba(iArchitecture
Entity
p36
(dp37
g11
(lp38
sg13
S'com.android.server.media.RemoteDisplayProviderProxy$Connection'
p39
sg15
(lp40
sg17
(lp41
sg19
(lp42
sg21
I0
sba(iArchitecture
Entity
p43
(dp44
g11
(lp45
sg13
S'com.android.server.media.RemoteDisplayProviderProxy$Connection$1'
p46
sg15
(lp47
sg17
(lp48
sg19
(lp49
sg21
I0
sba(iArchitecture
Entity
p50
(dp51
g11
(lp52
sg13
S'com.android.server.media.RemoteDisplayProviderProxy$Connection$2'
p53
sg15
(lp54
sg17
(lp55
sg19
(lp56
sg21
I0
sba(iArchitecture
Entity
p57
(dp58
g11
(lp59
sg13
S'com.android.server.media.RemoteDisplayProviderProxy$Connection$3'
p60
sg15
(lp61
sg17
(lp62
sg19
(lp63
sg21
I0
sba(iArchitecture
Entity
p64
(dp65
g11
(lp66
sg13
S'com.android.server.media.RemoteDisplayProviderProxy$ProviderCallback'
p67
sg15
(lp68
sg17
(lp69
sg19
(lp70
sg21
I0
sbasS'classes'
p71
(lp72
g14
ag25
ag32
ag39
ag46
ag53
ag60
ag67
asg21
I0
sS'label'
p73
S'1037'
p74
sba(iArchitecture
Cluster
p75
(dp76
g7
(lp77
(iArchitecture
Entity
p78
(dp79
g11
(lp80
sg13
S'com.android.server.media.MediaRouterService'
p81
sg15
(lp82
sg17
(lp83
sg19
(lp84
sg21
I0
sba(iArchitecture
Entity
p85
(dp86
g11
(lp87
sg13
S'com.android.server.media.MediaRouterService$1'
p88
sg15
(lp89
sg17
(lp90
sg19
(lp91
sg21
I0
sba(iArchitecture
Entity
p92
(dp93
g11
(lp94
sg13
S'com.android.server.media.MediaRouterService$ClientRecord'
p95
sg15
(lp96
sg17
(lp97
sg19
(lp98
sg21
I0
sba(iArchitecture
Entity
p99
(dp100
g11
(lp101
sg13
S'com.android.server.media.MediaRouterService$UserHandler'
p102
sg15
(lp103
sg17
(lp104
sg19
(lp105
sg21
I0
sba(iArchitecture
Entity
p106
(dp107
g11
(lp108
sg13
S'com.android.server.media.MediaRouterService$UserHandler$ProviderRecord'
p109
sg15
(lp110
sg17
(lp111
sg19
(lp112
sg21
I0
sba(iArchitecture
Entity
p113
(dp114
g11
(lp115
sg13
S'com.android.server.media.MediaRouterService$UserHandler$RouteRecord'
p116
sg15
(lp117
sg17
(lp118
sg19
(lp119
sg21
I0
sba(iArchitecture
Entity
p120
(dp121
g11
(lp122
sg13
S'com.android.server.media.MediaRouterService$UserRecord'
p123
sg15
(lp124
sg17
(lp125
sg19
(lp126
sg21
I0
sba(iArchitecture
Entity
p127
(dp128
g11
(lp129
sg13
S'com.android.server.media.MediaRouterService$UserRecord$1'
p130
sg15
(lp131
sg17
(lp132
sg19
(lp133
sg21
I0
sbasg71
(lp134
g81
ag88
ag95
ag102
ag109
ag116
ag123
ag130
asg21
I0
sg73
S'1048'
p135
sba(iArchitecture
Cluster
p136
(dp137
g7
(lp138
(iArchitecture
Entity
p139
(dp140
g11
(lp141
sg13
S'com.android.server.media.MediaSessionRecord'
p142
sg15
(lp143
sg17
(lp144
sg19
(lp145
sg21
I0
sba(iArchitecture
Entity
p146
(dp147
g11
(lp148
sg13
S'com.android.server.media.MediaSessionRecord$1'
p149
sg15
(lp150
sg17
(lp151
sg19
(lp152
sg21
I0
sba(iArchitecture
Entity
p153
(dp154
g11
(lp155
sg13
S'com.android.server.media.MediaSessionRecord$2'
p156
sg15
(lp157
sg17
(lp158
sg19
(lp159
sg21
I0
sba(iArchitecture
Entity
p160
(dp161
g11
(lp162
sg13
S'com.android.server.media.MediaSessionRecord$ControllerStub'
p163
sg15
(lp164
sg17
(lp165
sg19
(lp166
sg21
I0
sba(iArchitecture
Entity
p167
(dp168
g11
(lp169
sg13
S'com.android.server.media.MediaSessionRecord$MessageHandler'
p170
sg15
(lp171
sg17
(lp172
sg19
(lp173
sg21
I0
sba(iArchitecture
Entity
p174
(dp175
g11
(lp176
sg13
S'com.android.server.media.MediaSessionRecord$SessionCb'
p177
sg15
(lp178
sg17
(lp179
sg19
(lp180
sg21
I0
sba(iArchitecture
Entity
p181
(dp182
g11
(lp183
sg13
S'com.android.server.media.MediaSessionRecord$SessionStub'
p184
sg15
(lp185
sg17
(lp186
sg19
(lp187
sg21
I0
sbasg71
(lp188
g142
ag149
ag156
ag163
ag170
ag177
ag184
asg21
I0
sg73
S'1246'
p189
sba(iArchitecture
Cluster
p190
(dp191
g7
(lp192
(iArchitecture
Entity
p193
(dp194
g11
(lp195
sg13
S'com.android.server.media.MediaSessionService'
p196
sg15
(lp197
sg17
(lp198
sg19
(lp199
sg21
I0
sba(iArchitecture
Entity
p200
(dp201
g11
(lp202
sg13
S'com.android.server.media.MediaSessionService$MessageHandler'
p203
sg15
(lp204
sg17
(lp205
sg19
(lp206
sg21
I0
sba(iArchitecture
Entity
p207
(dp208
g11
(lp209
sg13
S'com.android.server.media.MediaSessionService$SessionManagerImpl'
p210
sg15
(lp211
sg17
(lp212
sg19
(lp213
sg21
I0
sba(iArchitecture
Entity
p214
(dp215
g11
(lp216
sg13
S'com.android.server.media.MediaSessionService$SessionManagerImpl$1'
p217
sg15
(lp218
sg17
(lp219
sg19
(lp220
sg21
I0
sba(iArchitecture
Entity
p221
(dp222
g11
(lp223
sg13
S'com.android.server.media.MediaSessionService$SessionManagerImpl$KeyEventWakeLockReceiver'
p224
sg15
(lp225
sg17
(lp226
sg19
(lp227
sg21
I0
sba(iArchitecture
Entity
p228
(dp229
g11
(lp230
sg13
S'com.android.server.media.MediaSessionService$SessionsListenerRecord'
p231
sg15
(lp232
sg17
(lp233
sg19
(lp234
sg21
I0
sba(iArchitecture
Entity
p235
(dp236
g11
(lp237
sg13
S'com.android.server.media.MediaSessionService$SettingsObserver'
p238
sg15
(lp239
sg17
(lp240
sg19
(lp241
sg21
I0
sba(iArchitecture
Entity
p242
(dp243
g11
(lp244
sg13
S'com.android.server.media.MediaSessionService$UserRecord'
p245
sg15
(lp246
sg17
(lp247
sg19
(lp248
sg21
I0
sbasg71
(lp249
g196
ag203
ag210
ag217
ag224
ag231
ag238
ag245
asg21
I0
sg73
S'1261'
p250
sba(iArchitecture
Cluster
p251
(dp252
g7
(lp253
(iArchitecture
Entity
p254
(dp255
g11
(lp256
sg13
S'com.android.server.media.MediaSessionStack'
p257
sg15
(lp258
sg17
(lp259
sg19
(lp260
sg21
I0
sbasg71
(lp261
g257
asg21
I0
sg73
S'205'
p262
sbasS'target_sub'
p263
S'com.android.server.media'
p264
sg71
(lp265
sS'is_component_arch'
p266
I00
sg73
S'6.0.0_r1'
p267
sba(iArchitecture
Architecture
p268
(dp269
g3
(lp270
(iArchitecture
Cluster
p271
(dp272
g7
(lp273
(iArchitecture
Entity
p274
(dp275
g11
(lp276
sg13
S'com.android.server.media.RemoteDisplayProviderProxy'
p277
sg15
(lp278
sg17
(lp279
sg19
(lp280
sg21
I0
sba(iArchitecture
Entity
p281
(dp282
g11
(lp283
sg13
S'com.android.server.media.RemoteDisplayProviderProxy$1'
p284
sg15
(lp285
sg17
(lp286
sg19
(lp287
sg21
I0
sba(iArchitecture
Entity
p288
(dp289
g11
(lp290
sg13
S'com.android.server.media.RemoteDisplayProviderProxy$Callback'
p291
sg15
(lp292
sg17
(lp293
sg19
(lp294
sg21
I0
sba(iArchitecture
Entity
p295
(dp296
g11
(lp297
sg13
S'com.android.server.media.RemoteDisplayProviderProxy$Connection'
p298
sg15
(lp299
sg17
(lp300
sg19
(lp301
sg21
I0
sba(iArchitecture
Entity
p302
(dp303
g11
(lp304
sg13
S'com.android.server.media.RemoteDisplayProviderProxy$Connection$1'
p305
sg15
(lp306
sg17
(lp307
sg19
(lp308
sg21
I0
sba(iArchitecture
Entity
p309
(dp310
g11
(lp311
sg13
S'com.android.server.media.RemoteDisplayProviderProxy$Connection$2'
p312
sg15
(lp313
sg17
(lp314
sg19
(lp315
sg21
I0
sba(iArchitecture
Entity
p316
(dp317
g11
(lp318
sg13
S'com.android.server.media.RemoteDisplayProviderProxy$Connection$3'
p319
sg15
(lp320
sg17
(lp321
sg19
(lp322
sg21
I0
sba(iArchitecture
Entity
p323
(dp324
g11
(lp325
sg13
S'com.android.server.media.RemoteDisplayProviderProxy$ProviderCallback'
p326
sg15
(lp327
sg17
(lp328
sg19
(lp329
sg21
I0
sbasg71
(lp330
g277
ag284
ag291
ag298
ag305
ag312
ag319
ag326
asg21
I0
sg73
S'1162'
p331
sba(iArchitecture
Cluster
p332
(dp333
g7
(lp334
(iArchitecture
Entity
p335
(dp336
g11
(lp337
sg13
S'com.android.server.media.MediaRouterService'
p338
sg15
(lp339
sg17
(lp340
sg19
(lp341
sg21
I0
sba(iArchitecture
Entity
p342
(dp343
g11
(lp344
sg13
S'com.android.server.media.MediaRouterService$1'
p345
sg15
(lp346
sg17
(lp347
sg19
(lp348
sg21
I0
sba(iArchitecture
Entity
p349
(dp350
g11
(lp351
sg13
S'com.android.server.media.MediaRouterService$ClientRecord'
p352
sg15
(lp353
sg17
(lp354
sg19
(lp355
sg21
I0
sba(iArchitecture
Entity
p356
(dp357
g11
(lp358
sg13
S'com.android.server.media.MediaRouterService$UserHandler'
p359
sg15
(lp360
sg17
(lp361
sg19
(lp362
sg21
I0
sba(iArchitecture
Entity
p363
(dp364
g11
(lp365
sg13
S'com.android.server.media.MediaRouterService$UserHandler$ProviderRecord'
p366
sg15
(lp367
sg17
(lp368
sg19
(lp369
sg21
I0
sba(iArchitecture
Entity
p370
(dp371
g11
(lp372
sg13
S'com.android.server.media.MediaRouterService$UserHandler$RouteRecord'
p373
sg15
(lp374
sg17
(lp375
sg19
(lp376
sg21
I0
sba(iArchitecture
Entity
p377
(dp378
g11
(lp379
sg13
S'com.android.server.media.MediaRouterService$UserRecord'
p380
sg15
(lp381
sg17
(lp382
sg19
(lp383
sg21
I0
sba(iArchitecture
Entity
p384
(dp385
g11
(lp386
sg13
S'com.android.server.media.MediaRouterService$UserRecord$1'
p387
sg15
(lp388
sg17
(lp389
sg19
(lp390
sg21
I0
sbasg71
(lp391
g338
ag345
ag352
ag359
ag366
ag373
ag380
ag387
asg21
I0
sg73
S'1176'
p392
sba(iArchitecture
Cluster
p393
(dp394
g7
(lp395
(iArchitecture
Entity
p396
(dp397
g11
(lp398
sg13
S'com.android.server.media.MediaSessionRecord'
p399
sg15
(lp400
sg17
(lp401
sg19
(lp402
sg21
I0
sba(iArchitecture
Entity
p403
(dp404
g11
(lp405
sg13
S'com.android.server.media.MediaSessionRecord$1'
p406
sg15
(lp407
sg17
(lp408
sg19
(lp409
sg21
I0
sba(iArchitecture
Entity
p410
(dp411
g11
(lp412
sg13
S'com.android.server.media.MediaSessionRecord$2'
p413
sg15
(lp414
sg17
(lp415
sg19
(lp416
sg21
I0
sba(iArchitecture
Entity
p417
(dp418
g11
(lp419
sg13
S'com.android.server.media.MediaSessionRecord$ControllerStub'
p420
sg15
(lp421
sg17
(lp422
sg19
(lp423
sg21
I0
sba(iArchitecture
Entity
p424
(dp425
g11
(lp426
sg13
S'com.android.server.media.MediaSessionRecord$MessageHandler'
p427
sg15
(lp428
sg17
(lp429
sg19
(lp430
sg21
I0
sba(iArchitecture
Entity
p431
(dp432
g11
(lp433
sg13
S'com.android.server.media.MediaSessionRecord$SessionCb'
p434
sg15
(lp435
sg17
(lp436
sg19
(lp437
sg21
I0
sba(iArchitecture
Entity
p438
(dp439
g11
(lp440
sg13
S'com.android.server.media.MediaSessionRecord$SessionStub'
p441
sg15
(lp442
sg17
(lp443
sg19
(lp444
sg21
I0
sbasg71
(lp445
g399
ag406
ag413
ag420
ag427
ag434
ag441
asg21
I0
sg73
S'1401'
p446
sba(iArchitecture
Cluster
p447
(dp448
g7
(lp449
(iArchitecture
Entity
p450
(dp451
g11
(lp452
sg13
S'com.android.server.media.MediaSessionService'
p453
sg15
(lp454
sg17
(lp455
sg19
(lp456
sg21
I0
sba(iArchitecture
Entity
p457
(dp458
g11
(lp459
sg13
S'com.android.server.media.MediaSessionService$MessageHandler'
p460
sg15
(lp461
sg17
(lp462
sg19
(lp463
sg21
I0
sba(iArchitecture
Entity
p464
(dp465
g11
(lp466
sg13
S'com.android.server.media.MediaSessionService$SessionManagerImpl'
p467
sg15
(lp468
sg17
(lp469
sg19
(lp470
sg21
I0
sba(iArchitecture
Entity
p471
(dp472
g11
(lp473
sg13
S'com.android.server.media.MediaSessionService$SessionManagerImpl$1'
p474
sg15
(lp475
sg17
(lp476
sg19
(lp477
sg21
I0
sba(iArchitecture
Entity
p478
(dp479
g11
(lp480
sg13
S'com.android.server.media.MediaSessionService$SessionManagerImpl$KeyEventWakeLockReceiver'
p481
sg15
(lp482
sg17
(lp483
sg19
(lp484
sg21
I0
sba(iArchitecture
Entity
p485
(dp486
g11
(lp487
sg13
S'com.android.server.media.MediaSessionService$SessionsListenerRecord'
p488
sg15
(lp489
sg17
(lp490
sg19
(lp491
sg21
I0
sba(iArchitecture
Entity
p492
(dp493
g11
(lp494
sg13
S'com.android.server.media.MediaSessionService$SettingsObserver'
p495
sg15
(lp496
sg17
(lp497
sg19
(lp498
sg21
I0
sba(iArchitecture
Entity
p499
(dp500
g11
(lp501
sg13
S'com.android.server.media.MediaSessionService$UserRecord'
p502
sg15
(lp503
sg17
(lp504
sg19
(lp505
sg21
I0
sbasg71
(lp506
g453
ag460
ag467
ag474
ag481
ag488
ag495
ag502
asg21
I0
sg73
S'1408'
p507
sba(iArchitecture
Cluster
p508
(dp509
g7
(lp510
(iArchitecture
Entity
p511
(dp512
g11
(lp513
sg13
S'com.android.server.media.MediaSessionStack'
p514
sg15
(lp515
sg17
(lp516
sg19
(lp517
sg21
I0
sbasg71
(lp518
g514
asg21
I0
sg73
S'228'
p519
sba(iArchitecture
Cluster
p520
(dp521
g7
(lp522
(iArchitecture
Entity
p523
(dp524
g11
(lp525
sg13
S'com.android.server.media.MediaResourceMonitorService'
p526
sg15
(lp527
sg17
(lp528
sg19
(lp529
sg21
I0
sba(iArchitecture
Entity
p530
(dp531
g11
(lp532
sg13
S'com.android.server.media.MediaResourceMonitorService$MediaResourceMonitorImpl'
p533
sg15
(lp534
sg17
(lp535
sg19
(lp536
sg21
I0
sbasg71
(lp537
g526
ag533
asg21
I0
sg73
S'776'
p538
sbasg263
g264
sg71
(lp539
sg266
I00
sg73
S'7.0.0_r1'
p540
sba.