(lp0
(iArchitecture
Architecture
p1
(dp2
S'clusters'
p3
(lp4
(iArchitecture
Cluster
p5
(dp6
S'entities'
p7
(lp8
(iArchitecture
Entity
p9
(dp10
S'issue_ids'
p11
(lp12
sS'name'
p13
S'android.graphics.LinearGradient'
p14
sS'descs'
p15
(lp16
sS'labels'
p17
(lp18
sS'titles'
p19
(lp20
sS'change'
p21
I0
sba(iArchitecture
Entity
p22
(dp23
g11
(lp24
sg13
S'android.graphics.SweepGradient'
p25
sg15
(lp26
sg17
(lp27
sg19
(lp28
sg21
I0
sbasS'classes'
p29
(lp30
g14
ag25
asg21
I0
sS'label'
p31
S'1142'
p32
sba(iArchitecture
Cluster
p33
(dp34
g7
(lp35
(iArchitecture
Entity
p36
(dp37
g11
(lp38
sg13
S'android.graphics.ColorMatrix'
p39
sg15
(lp40
sg17
(lp41
sg19
(lp42
sg21
I0
sbasg29
(lp43
g39
asg21
I0
sg31
S'116'
p44
sba(iArchitecture
Cluster
p45
(dp46
g7
(lp47
(iArchitecture
Entity
p48
(dp49
g11
(lp50
sg13
S'android.graphics.drawable.AnimatedRotateDrawable'
p51
sg15
(lp52
sg17
(lp53
sg19
(lp54
sg21
I0
sba(iArchitecture
Entity
p55
(dp56
g11
(lp57
sg13
S'android.graphics.drawable.AnimatedRotateDrawable$1'
p58
sg15
(lp59
sg17
(lp60
sg19
(lp61
sg21
I0
sba(iArchitecture
Entity
p62
(dp63
g11
(lp64
sg13
S'android.graphics.drawable.AnimatedRotateDrawable$AnimatedRotateState'
p65
sg15
(lp66
sg17
(lp67
sg19
(lp68
sg21
I0
sbasg29
(lp69
g51
ag58
ag65
asg21
I0
sg31
S'1185'
p70
sba(iArchitecture
Cluster
p71
(dp72
g7
(lp73
(iArchitecture
Entity
p74
(dp75
g11
(lp76
sg13
S'android.graphics.Shader'
p77
sg15
(lp78
sg17
(lp79
sg19
(lp80
sg21
I0
sba(iArchitecture
Entity
p81
(dp82
g11
(lp83
sg13
S'android.graphics.Shader$TileMode'
p84
sg15
(lp85
sg17
(lp86
sg19
(lp87
sg21
I0
sbasg29
(lp88
g77
ag84
asg21
I0
sg31
S'1191'
p89
sba(iArchitecture
Cluster
p90
(dp91
g7
(lp92
(iArchitecture
Entity
p93
(dp94
g11
(lp95
sg13
S'android.graphics.Rect'
p96
sg15
(lp97
sg17
(lp98
sg19
(lp99
sg21
I0
sba(iArchitecture
Entity
p100
(dp101
g11
(lp102
sg13
S'android.graphics.Rect$1'
p103
sg15
(lp104
sg17
(lp105
sg19
(lp106
sg21
I0
sba(iArchitecture
Entity
p107
(dp108
g11
(lp109
sg13
S'android.graphics.Rect$UnflattenHelper'
p110
sg15
(lp111
sg17
(lp112
sg19
(lp113
sg21
I0
sba(iArchitecture
Entity
p114
(dp115
g11
(lp116
sg13
S'android.graphics.RectF'
p117
sg15
(lp118
sg17
(lp119
sg19
(lp120
sg21
I0
sba(iArchitecture
Entity
p121
(dp122
g11
(lp123
sg13
S'android.graphics.RectF$1'
p124
sg15
(lp125
sg17
(lp126
sg19
(lp127
sg21
I0
sba(iArchitecture
Entity
p128
(dp129
g11
(lp130
sg13
S'android.graphics.Region'
p131
sg15
(lp132
sg17
(lp133
sg19
(lp134
sg21
I0
sba(iArchitecture
Entity
p135
(dp136
g11
(lp137
sg13
S'android.graphics.Region$1'
p138
sg15
(lp139
sg17
(lp140
sg19
(lp141
sg21
I0
sba(iArchitecture
Entity
p142
(dp143
g11
(lp144
sg13
S'android.graphics.Region$Op'
p145
sg15
(lp146
sg17
(lp147
sg19
(lp148
sg21
I0
sbasg29
(lp149
g96
ag103
ag110
ag117
ag124
ag131
ag138
ag145
asg21
I0
sg31
S'1220'
p150
sba(iArchitecture
Cluster
p151
(dp152
g7
(lp153
(iArchitecture
Entity
p154
(dp155
g11
(lp156
sg13
S'android.graphics.ColorFilter'
p157
sg15
(lp158
sg17
(lp159
sg19
(lp160
sg21
I0
sba(iArchitecture
Entity
p161
(dp162
g11
(lp163
sg13
S'android.graphics.ComposePathEffect'
p164
sg15
(lp165
sg17
(lp166
sg19
(lp167
sg21
I0
sba(iArchitecture
Entity
p168
(dp169
g11
(lp170
sg13
S'android.graphics.CornerPathEffect'
p171
sg15
(lp172
sg17
(lp173
sg19
(lp174
sg21
I0
sba(iArchitecture
Entity
p175
(dp176
g11
(lp177
sg13
S'android.graphics.DiscretePathEffect'
p178
sg15
(lp179
sg17
(lp180
sg19
(lp181
sg21
I0
sba(iArchitecture
Entity
p182
(dp183
g11
(lp184
sg13
S'android.graphics.DrawFilter'
p185
sg15
(lp186
sg17
(lp187
sg19
(lp188
sg21
I0
sba(iArchitecture
Entity
p189
(dp190
g11
(lp191
sg13
S'android.graphics.ImageFormat'
p192
sg15
(lp193
sg17
(lp194
sg19
(lp195
sg21
I0
sba(iArchitecture
Entity
p196
(dp197
g11
(lp198
sg13
S'android.graphics.LayerRasterizer'
p199
sg15
(lp200
sg17
(lp201
sg19
(lp202
sg21
I0
sba(iArchitecture
Entity
p203
(dp204
g11
(lp205
sg13
S'android.graphics.MaskFilter'
p206
sg15
(lp207
sg17
(lp208
sg19
(lp209
sg21
I0
sba(iArchitecture
Entity
p210
(dp211
g11
(lp212
sg13
S'android.graphics.PathEffect'
p213
sg15
(lp214
sg17
(lp215
sg19
(lp216
sg21
I0
sba(iArchitecture
Entity
p217
(dp218
g11
(lp219
sg13
S'android.graphics.PixelXorXfermode'
p220
sg15
(lp221
sg17
(lp222
sg19
(lp223
sg21
I0
sba(iArchitecture
Entity
p224
(dp225
g11
(lp226
sg13
S'android.graphics.Point'
p227
sg15
(lp228
sg17
(lp229
sg19
(lp230
sg21
I0
sba(iArchitecture
Entity
p231
(dp232
g11
(lp233
sg13
S'android.graphics.Point$1'
p234
sg15
(lp235
sg17
(lp236
sg19
(lp237
sg21
I0
sba(iArchitecture
Entity
p238
(dp239
g11
(lp240
sg13
S'android.graphics.PointF'
p241
sg15
(lp242
sg17
(lp243
sg19
(lp244
sg21
I0
sba(iArchitecture
Entity
p245
(dp246
g11
(lp247
sg13
S'android.graphics.PointF$1'
p248
sg15
(lp249
sg17
(lp250
sg19
(lp251
sg21
I0
sba(iArchitecture
Entity
p252
(dp253
g11
(lp254
sg13
S'android.graphics.Rasterizer'
p255
sg15
(lp256
sg17
(lp257
sg19
(lp258
sg21
I0
sba(iArchitecture
Entity
p259
(dp260
g11
(lp261
sg13
S'android.graphics.SumPathEffect'
p262
sg15
(lp263
sg17
(lp264
sg19
(lp265
sg21
I0
sba(iArchitecture
Entity
p266
(dp267
g11
(lp268
sg13
S'android.graphics.Xfermode'
p269
sg15
(lp270
sg17
(lp271
sg19
(lp272
sg21
I0
sba(iArchitecture
Entity
p273
(dp274
g11
(lp275
sg13
S'android.graphics.drawable.Animatable'
p276
sg15
(lp277
sg17
(lp278
sg19
(lp279
sg21
I0
sba(iArchitecture
Entity
p280
(dp281
g11
(lp282
sg13
S'android.graphics.drawable.Animatable2'
p283
sg15
(lp284
sg17
(lp285
sg19
(lp286
sg21
I0
sba(iArchitecture
Entity
p287
(dp288
g11
(lp289
sg13
S'android.graphics.drawable.Animatable2$AnimationCallback'
p290
sg15
(lp291
sg17
(lp292
sg19
(lp293
sg21
I0
sbasg29
(lp294
g157
ag164
ag171
ag178
ag185
ag192
ag199
ag206
ag213
ag220
ag227
ag234
ag241
ag248
ag255
ag262
ag269
ag276
ag283
ag290
asg21
I0
sg31
S'1223'
p295
sba(iArchitecture
Cluster
p296
(dp297
g7
(lp298
(iArchitecture
Entity
p299
(dp300
g11
(lp301
sg13
S'android.graphics.drawable.Drawable'
p302
sg15
(lp303
sg17
(lp304
sg19
(lp305
sg21
I0
sba(iArchitecture
Entity
p306
(dp307
g11
(lp308
sg13
S'android.graphics.drawable.Drawable$Callback'
p309
sg15
(lp310
sg17
(lp311
sg19
(lp312
sg21
I0
sba(iArchitecture
Entity
p313
(dp314
g11
(lp315
sg13
S'android.graphics.drawable.Drawable$ConstantState'
p316
sg15
(lp317
sg17
(lp318
sg19
(lp319
sg21
I0
sbasg29
(lp320
g302
ag309
ag316
asg21
I0
sg31
S'1232'
p321
sba(iArchitecture
Cluster
p322
(dp323
g7
(lp324
(iArchitecture
Entity
p325
(dp326
g11
(lp327
sg13
S'android.graphics.drawable.DrawableContainer'
p328
sg15
(lp329
sg17
(lp330
sg19
(lp331
sg21
I0
sba(iArchitecture
Entity
p332
(dp333
g11
(lp334
sg13
S'android.graphics.drawable.DrawableContainer$1'
p335
sg15
(lp336
sg17
(lp337
sg19
(lp338
sg21
I0
sba(iArchitecture
Entity
p339
(dp340
g11
(lp341
sg13
S'android.graphics.drawable.DrawableContainer$DrawableContainerState'
p342
sg15
(lp343
sg17
(lp344
sg19
(lp345
sg21
I0
sba(iArchitecture
Entity
p346
(dp347
g11
(lp348
sg13
S'android.graphics.drawable.DrawableContainer$DrawableContainerState$ConstantStateFuture'
p349
sg15
(lp350
sg17
(lp351
sg19
(lp352
sg21
I0
sba(iArchitecture
Entity
p353
(dp354
g11
(lp355
sg13
S'android.graphics.drawable.DrawableWrapper'
p356
sg15
(lp357
sg17
(lp358
sg19
(lp359
sg21
I0
sba(iArchitecture
Entity
p360
(dp361
g11
(lp362
sg13
S'android.graphics.drawable.DrawableWrapper$DrawableWrapperState'
p363
sg15
(lp364
sg17
(lp365
sg19
(lp366
sg21
I0
sba(iArchitecture
Entity
p367
(dp368
g11
(lp369
sg13
S'android.graphics.drawable.NinePatchDrawable'
p370
sg15
(lp371
sg17
(lp372
sg19
(lp373
sg21
I0
sba(iArchitecture
Entity
p374
(dp375
g11
(lp376
sg13
S'android.graphics.drawable.NinePatchDrawable$NinePatchState'
p377
sg15
(lp378
sg17
(lp379
sg19
(lp380
sg21
I0
sbasg29
(lp381
g328
ag335
ag342
ag349
ag356
ag363
ag370
ag377
asg21
I0
sg31
S'1235'
p382
sba(iArchitecture
Cluster
p383
(dp384
g7
(lp385
(iArchitecture
Entity
p386
(dp387
g11
(lp388
sg13
S'android.graphics.CanvasProperty'
p389
sg15
(lp390
sg17
(lp391
sg19
(lp392
sg21
I0
sba(iArchitecture
Entity
p393
(dp394
g11
(lp395
sg13
S'android.graphics.PathDashPathEffect'
p396
sg15
(lp397
sg17
(lp398
sg19
(lp399
sg21
I0
sba(iArchitecture
Entity
p400
(dp401
g11
(lp402
sg13
S'android.graphics.PathDashPathEffect$Style'
p403
sg15
(lp404
sg17
(lp405
sg19
(lp406
sg21
I0
sba(iArchitecture
Entity
p407
(dp408
g11
(lp409
sg13
S'android.graphics.TableMaskFilter'
p410
sg15
(lp411
sg17
(lp412
sg19
(lp413
sg21
I0
sba(iArchitecture
Entity
p414
(dp415
g11
(lp416
sg13
S'android.graphics.drawable.PictureDrawable'
p417
sg15
(lp418
sg17
(lp419
sg19
(lp420
sg21
I0
sba(iArchitecture
Entity
p421
(dp422
g11
(lp423
sg13
S'android.graphics.drawable.shapes.PathShape'
p424
sg15
(lp425
sg17
(lp426
sg19
(lp427
sg21
I0
sba(iArchitecture
Entity
p428
(dp429
g11
(lp430
sg13
S'android.graphics.drawable.shapes.Shape'
p431
sg15
(lp432
sg17
(lp433
sg19
(lp434
sg21
I0
sbasg29
(lp435
g389
ag396
ag403
ag410
ag417
ag424
ag431
asg21
I0
sg31
S'1237'
p436
sba(iArchitecture
Cluster
p437
(dp438
g7
(lp439
(iArchitecture
Entity
p440
(dp441
g11
(lp442
sg13
S'android.graphics.PorterDuffXfermode'
p443
sg15
(lp444
sg17
(lp445
sg19
(lp446
sg21
I0
sba(iArchitecture
Entity
p447
(dp448
g11
(lp449
sg13
S'android.graphics.drawable.shapes.ArcShape'
p450
sg15
(lp451
sg17
(lp452
sg19
(lp453
sg21
I0
sba(iArchitecture
Entity
p454
(dp455
g11
(lp456
sg13
S'android.graphics.drawable.shapes.OvalShape'
p457
sg15
(lp458
sg17
(lp459
sg19
(lp460
sg21
I0
sba(iArchitecture
Entity
p461
(dp462
g11
(lp463
sg13
S'android.graphics.drawable.shapes.RectShape'
p464
sg15
(lp465
sg17
(lp466
sg19
(lp467
sg21
I0
sbasg29
(lp468
g443
ag450
ag457
ag464
asg21
I0
sg31
S'1244'
p469
sba(iArchitecture
Cluster
p470
(dp471
g7
(lp472
(iArchitecture
Entity
p473
(dp474
g11
(lp475
sg13
S'android.graphics.DashPathEffect'
p476
sg15
(lp477
sg17
(lp478
sg19
(lp479
sg21
I0
sba(iArchitecture
Entity
p480
(dp481
g11
(lp482
sg13
S'android.graphics.RegionIterator'
p483
sg15
(lp484
sg17
(lp485
sg19
(lp486
sg21
I0
sba(iArchitecture
Entity
p487
(dp488
g11
(lp489
sg13
S'android.graphics.TemporaryBuffer'
p490
sg15
(lp491
sg17
(lp492
sg19
(lp493
sg21
I0
sba(iArchitecture
Entity
p494
(dp495
g11
(lp496
sg13
S'android.graphics.drawable.AnimationDrawable'
p497
sg15
(lp498
sg17
(lp499
sg19
(lp500
sg21
I0
sba(iArchitecture
Entity
p501
(dp502
g11
(lp503
sg13
S'android.graphics.drawable.AnimationDrawable$AnimationState'
p504
sg15
(lp505
sg17
(lp506
sg19
(lp507
sg21
I0
sba(iArchitecture
Entity
p508
(dp509
g11
(lp510
sg13
S'android.graphics.drawable.ClipDrawable'
p511
sg15
(lp512
sg17
(lp513
sg19
(lp514
sg21
I0
sba(iArchitecture
Entity
p515
(dp516
g11
(lp517
sg13
S'android.graphics.drawable.ClipDrawable$ClipState'
p518
sg15
(lp519
sg17
(lp520
sg19
(lp521
sg21
I0
sba(iArchitecture
Entity
p522
(dp523
g11
(lp524
sg13
S'android.graphics.drawable.LevelListDrawable'
p525
sg15
(lp526
sg17
(lp527
sg19
(lp528
sg21
I0
sba(iArchitecture
Entity
p529
(dp530
g11
(lp531
sg13
S'android.graphics.drawable.LevelListDrawable$LevelListState'
p532
sg15
(lp533
sg17
(lp534
sg19
(lp535
sg21
I0
sba(iArchitecture
Entity
p536
(dp537
g11
(lp538
sg13
S'android.graphics.drawable.ScaleDrawable'
p539
sg15
(lp540
sg17
(lp541
sg19
(lp542
sg21
I0
sba(iArchitecture
Entity
p543
(dp544
g11
(lp545
sg13
S'android.graphics.drawable.ScaleDrawable$ScaleState'
p546
sg15
(lp547
sg17
(lp548
sg19
(lp549
sg21
I0
sba(iArchitecture
Entity
p550
(dp551
g11
(lp552
sg13
S'android.graphics.drawable.StateListDrawable'
p553
sg15
(lp554
sg17
(lp555
sg19
(lp556
sg21
I0
sba(iArchitecture
Entity
p557
(dp558
g11
(lp559
sg13
S'android.graphics.drawable.StateListDrawable$StateListState'
p560
sg15
(lp561
sg17
(lp562
sg19
(lp563
sg21
I0
sbasg29
(lp564
g476
ag483
ag490
ag497
ag504
ag511
ag518
ag525
ag532
ag539
ag546
ag553
ag560
asg21
I0
sg31
S'1246'
p565
sba(iArchitecture
Cluster
p566
(dp567
g7
(lp568
(iArchitecture
Entity
p569
(dp570
g11
(lp571
sg13
S'android.graphics.drawable.AnimatedVectorDrawable'
p572
sg15
(lp573
sg17
(lp574
sg19
(lp575
sg21
I0
sba(iArchitecture
Entity
p576
(dp577
g11
(lp578
sg13
S'android.graphics.drawable.AnimatedVectorDrawable$1'
p579
sg15
(lp580
sg17
(lp581
sg19
(lp582
sg21
I0
sba(iArchitecture
Entity
p583
(dp584
g11
(lp585
sg13
S'android.graphics.drawable.AnimatedVectorDrawable$2'
p586
sg15
(lp587
sg17
(lp588
sg19
(lp589
sg21
I0
sba(iArchitecture
Entity
p590
(dp591
g11
(lp592
sg13
S'android.graphics.drawable.AnimatedVectorDrawable$AnimatedVectorDrawableState'
p593
sg15
(lp594
sg17
(lp595
sg19
(lp596
sg21
I0
sba(iArchitecture
Entity
p597
(dp598
g11
(lp599
sg13
S'android.graphics.drawable.AnimatedVectorDrawable$AnimatedVectorDrawableState$PendingAnimator'
p600
sg15
(lp601
sg17
(lp602
sg19
(lp603
sg21
I0
sbasg29
(lp604
g572
ag579
ag586
ag593
ag600
asg21
I0
sg31
S'1253'
p605
sba(iArchitecture
Cluster
p606
(dp607
g7
(lp608
(iArchitecture
Entity
p609
(dp610
g11
(lp611
sg13
S'android.graphics.pdf.PdfEditor'
p612
sg15
(lp613
sg17
(lp614
sg19
(lp615
sg21
I0
sba(iArchitecture
Entity
p616
(dp617
g11
(lp618
sg13
S'android.graphics.pdf.PdfRenderer'
p619
sg15
(lp620
sg17
(lp621
sg19
(lp622
sg21
I0
sba(iArchitecture
Entity
p623
(dp624
g11
(lp625
sg13
S'android.graphics.pdf.PdfRenderer$Page'
p626
sg15
(lp627
sg17
(lp628
sg19
(lp629
sg21
I0
sbasg29
(lp630
g612
ag619
ag626
asg21
I0
sg31
S'1261'
p631
sba(iArchitecture
Cluster
p632
(dp633
g7
(lp634
(iArchitecture
Entity
p635
(dp636
g11
(lp637
sg13
S'android.graphics.AvoidXfermode'
p638
sg15
(lp639
sg17
(lp640
sg19
(lp641
sg21
I0
sba(iArchitecture
Entity
p642
(dp643
g11
(lp644
sg13
S'android.graphics.AvoidXfermode$Mode'
p645
sg15
(lp646
sg17
(lp647
sg19
(lp648
sg21
I0
sba(iArchitecture
Entity
p649
(dp650
g11
(lp651
sg13
S'android.graphics.BlurMaskFilter'
p652
sg15
(lp653
sg17
(lp654
sg19
(lp655
sg21
I0
sba(iArchitecture
Entity
p656
(dp657
g11
(lp658
sg13
S'android.graphics.BlurMaskFilter$Blur'
p659
sg15
(lp660
sg17
(lp661
sg19
(lp662
sg21
I0
sbasg29
(lp663
g638
ag645
ag652
ag659
asg21
I0
sg31
S'1262'
p664
sba(iArchitecture
Cluster
p665
(dp666
g7
(lp667
(iArchitecture
Entity
p668
(dp669
g11
(lp670
sg13
S'android.graphics.BitmapShader'
p671
sg15
(lp672
sg17
(lp673
sg19
(lp674
sg21
I0
sbasg29
(lp675
g671
asg21
I0
sg31
S'128'
p676
sba(iArchitecture
Cluster
p677
(dp678
g7
(lp679
(iArchitecture
Entity
p680
(dp681
g11
(lp682
sg13
S'android.graphics.Insets'
p683
sg15
(lp684
sg17
(lp685
sg19
(lp686
sg21
I0
sbasg29
(lp687
g683
asg21
I0
sg31
S'131'
p688
sba(iArchitecture
Cluster
p689
(dp690
g7
(lp691
(iArchitecture
Entity
p692
(dp693
g11
(lp694
sg13
S'android.graphics.drawable.PaintDrawable'
p695
sg15
(lp696
sg17
(lp697
sg19
(lp698
sg21
I0
sbasg29
(lp699
g695
asg21
I0
sg31
S'144'
p700
sba(iArchitecture
Cluster
p701
(dp702
g7
(lp703
(iArchitecture
Entity
p704
(dp705
g11
(lp706
sg13
S'android.graphics.PorterDuffColorFilter'
p707
sg15
(lp708
sg17
(lp709
sg19
(lp710
sg21
I0
sbasg29
(lp711
g707
asg21
I0
sg31
S'152'
p712
sba(iArchitecture
Cluster
p713
(dp714
g7
(lp715
(iArchitecture
Entity
p716
(dp717
g11
(lp718
sg13
S'android.graphics.YuvImage'
p719
sg15
(lp720
sg17
(lp721
sg19
(lp722
sg21
I0
sbasg29
(lp723
g719
asg21
I0
sg31
S'197'
p724
sba(iArchitecture
Cluster
p725
(dp726
g7
(lp727
(iArchitecture
Entity
p728
(dp729
g11
(lp730
sg13
S'android.graphics.RadialGradient'
p731
sg15
(lp732
sg17
(lp733
sg19
(lp734
sg21
I0
sbasg29
(lp735
g731
asg21
I0
sg31
S'22'
p736
sba(iArchitecture
Cluster
p737
(dp738
g7
(lp739
(iArchitecture
Entity
p740
(dp741
g11
(lp742
sg13
S'android.graphics.FontFamily'
p743
sg15
(lp744
sg17
(lp745
sg19
(lp746
sg21
I0
sbasg29
(lp747
g743
asg21
I0
sg31
S'24'
p748
sba(iArchitecture
Cluster
p749
(dp750
g7
(lp751
(iArchitecture
Entity
p752
(dp753
g11
(lp754
sg13
S'android.graphics.drawable.shapes.RoundRectShape'
p755
sg15
(lp756
sg17
(lp757
sg19
(lp758
sg21
I0
sbasg29
(lp759
g755
asg21
I0
sg31
S'270'
p760
sba(iArchitecture
Cluster
p761
(dp762
g7
(lp763
(iArchitecture
Entity
p764
(dp765
g11
(lp766
sg13
S'android.graphics.EmbossMaskFilter'
p767
sg15
(lp768
sg17
(lp769
sg19
(lp770
sg21
I0
sbasg29
(lp771
g767
asg21
I0
sg31
S'283'
p772
sba(iArchitecture
Cluster
p773
(dp774
g7
(lp775
(iArchitecture
Entity
p776
(dp777
g11
(lp778
sg13
S'android.graphics.ComposeShader'
p779
sg15
(lp780
sg17
(lp781
sg19
(lp782
sg21
I0
sbasg29
(lp783
g779
asg21
I0
sg31
S'297'
p784
sba(iArchitecture
Cluster
p785
(dp786
g7
(lp787
(iArchitecture
Entity
p788
(dp789
g11
(lp790
sg13
S'android.graphics.LightingColorFilter'
p791
sg15
(lp792
sg17
(lp793
sg19
(lp794
sg21
I0
sbasg29
(lp795
g791
asg21
I0
sg31
S'312'
p796
sba(iArchitecture
Cluster
p797
(dp798
g7
(lp799
(iArchitecture
Entity
p800
(dp801
g11
(lp802
sg13
S'android.graphics.Camera'
p803
sg15
(lp804
sg17
(lp805
sg19
(lp806
sg21
I0
sbasg29
(lp807
g803
asg21
I0
sg31
S'319'
p808
sba(iArchitecture
Cluster
p809
(dp810
g7
(lp811
(iArchitecture
Entity
p812
(dp813
g11
(lp814
sg13
S'android.graphics.LargeBitmap'
p815
sg15
(lp816
sg17
(lp817
sg19
(lp818
sg21
I0
sbasg29
(lp819
g815
asg21
I0
sg31
S'320'
p820
sba(iArchitecture
Cluster
p821
(dp822
g7
(lp823
(iArchitecture
Entity
p824
(dp825
g11
(lp826
sg13
S'android.graphics.Outline'
p827
sg15
(lp828
sg17
(lp829
sg19
(lp830
sg21
I0
sbasg29
(lp831
g827
asg21
I0
sg31
S'364'
p832
sba(iArchitecture
Cluster
p833
(dp834
g7
(lp835
(iArchitecture
Entity
p836
(dp837
g11
(lp838
sg13
S'android.graphics.Typeface'
p839
sg15
(lp840
sg17
(lp841
sg19
(lp842
sg21
I0
sbasg29
(lp843
g839
asg21
I0
sg31
S'373'
p844
sba(iArchitecture
Cluster
p845
(dp846
g7
(lp847
(iArchitecture
Entity
p848
(dp849
g11
(lp850
sg13
S'android.graphics.Color'
p851
sg15
(lp852
sg17
(lp853
sg19
(lp854
sg21
I0
sbasg29
(lp855
g851
asg21
I0
sg31
S'406'
p856
sba(iArchitecture
Cluster
p857
(dp858
g7
(lp859
(iArchitecture
Entity
p860
(dp861
g11
(lp862
sg13
S'android.graphics.PixelFormat'
p863
sg15
(lp864
sg17
(lp865
sg19
(lp866
sg21
I0
sbasg29
(lp867
g863
asg21
I0
sg31
S'407'
p868
sba(iArchitecture
Cluster
p869
(dp870
g7
(lp871
(iArchitecture
Entity
p872
(dp873
g11
(lp874
sg13
S'android.graphics.ColorMatrixColorFilter'
p875
sg15
(lp876
sg17
(lp877
sg19
(lp878
sg21
I0
sbasg29
(lp879
g875
asg21
I0
sg31
S'44'
p880
sba(iArchitecture
Cluster
p881
(dp882
g7
(lp883
(iArchitecture
Entity
p884
(dp885
g11
(lp886
sg13
S'android.graphics.PaintFlagsDrawFilter'
p887
sg15
(lp888
sg17
(lp889
sg19
(lp890
sg21
I0
sbasg29
(lp891
g887
asg21
I0
sg31
S'440'
p892
sba(iArchitecture
Cluster
p893
(dp894
g7
(lp895
(iArchitecture
Entity
p896
(dp897
g11
(lp898
sg13
S'android.graphics.Picture'
p899
sg15
(lp900
sg17
(lp901
sg19
(lp902
sg21
I0
sba(iArchitecture
Entity
p903
(dp904
g11
(lp905
sg13
S'android.graphics.Picture$RecordingCanvas'
p906
sg15
(lp907
sg17
(lp908
sg19
(lp909
sg21
I0
sbasg29
(lp910
g899
ag906
asg21
I0
sg31
S'451'
p911
sba(iArchitecture
Cluster
p912
(dp913
g7
(lp914
(iArchitecture
Entity
p915
(dp916
g11
(lp917
sg13
S'android.graphics.drawable.RippleDrawable'
p918
sg15
(lp919
sg17
(lp920
sg19
(lp921
sg21
I0
sba(iArchitecture
Entity
p922
(dp923
g11
(lp924
sg13
S'android.graphics.drawable.RippleDrawable$RippleState'
p925
sg15
(lp926
sg17
(lp927
sg19
(lp928
sg21
I0
sbasg29
(lp929
g918
ag925
asg21
I0
sg31
S'493'
p930
sba(iArchitecture
Cluster
p931
(dp932
g7
(lp933
(iArchitecture
Entity
p934
(dp935
g11
(lp936
sg13
S'android.graphics.drawable.RotateDrawable'
p937
sg15
(lp938
sg17
(lp939
sg19
(lp940
sg21
I0
sba(iArchitecture
Entity
p941
(dp942
g11
(lp943
sg13
S'android.graphics.drawable.RotateDrawable$RotateState'
p944
sg15
(lp945
sg17
(lp946
sg19
(lp947
sg21
I0
sbasg29
(lp948
g937
ag944
asg21
I0
sg31
S'495'
p949
sba(iArchitecture
Cluster
p950
(dp951
g7
(lp952
(iArchitecture
Entity
p953
(dp954
g11
(lp955
sg13
S'android.graphics.drawable.BitmapDrawable'
p956
sg15
(lp957
sg17
(lp958
sg19
(lp959
sg21
I0
sba(iArchitecture
Entity
p960
(dp961
g11
(lp962
sg13
S'android.graphics.drawable.BitmapDrawable$BitmapState'
p963
sg15
(lp964
sg17
(lp965
sg19
(lp966
sg21
I0
sbasg29
(lp967
g956
ag963
asg21
I0
sg31
S'497'
p968
sba(iArchitecture
Cluster
p969
(dp970
g7
(lp971
(iArchitecture
Entity
p972
(dp973
g11
(lp974
sg13
S'android.graphics.drawable.InsetDrawable'
p975
sg15
(lp976
sg17
(lp977
sg19
(lp978
sg21
I0
sba(iArchitecture
Entity
p979
(dp980
g11
(lp981
sg13
S'android.graphics.drawable.InsetDrawable$InsetState'
p982
sg15
(lp983
sg17
(lp984
sg19
(lp985
sg21
I0
sbasg29
(lp986
g975
ag982
asg21
I0
sg31
S'543'
p987
sba(iArchitecture
Cluster
p988
(dp989
g7
(lp990
(iArchitecture
Entity
p991
(dp992
g11
(lp993
sg13
S'android.graphics.PorterDuff'
p994
sg15
(lp995
sg17
(lp996
sg19
(lp997
sg21
I0
sba(iArchitecture
Entity
p998
(dp999
g11
(lp1000
sg13
S'android.graphics.PorterDuff$Mode'
p1001
sg15
(lp1002
sg17
(lp1003
sg19
(lp1004
sg21
I0
sbasg29
(lp1005
g994
ag1001
asg21
I0
sg31
S'545'
p1006
sba(iArchitecture
Cluster
p1007
(dp1008
g7
(lp1009
(iArchitecture
Entity
p1010
(dp1011
g11
(lp1012
sg13
S'android.graphics.drawable.ColorDrawable'
p1013
sg15
(lp1014
sg17
(lp1015
sg19
(lp1016
sg21
I0
sba(iArchitecture
Entity
p1017
(dp1018
g11
(lp1019
sg13
S'android.graphics.drawable.ColorDrawable$ColorState'
p1020
sg15
(lp1021
sg17
(lp1022
sg19
(lp1023
sg21
I0
sbasg29
(lp1024
g1013
ag1020
asg21
I0
sg31
S'564'
p1025
sba(iArchitecture
Cluster
p1026
(dp1027
g7
(lp1028
(iArchitecture
Entity
p1029
(dp1030
g11
(lp1031
sg13
S'android.graphics.BitmapFactory'
p1032
sg15
(lp1033
sg17
(lp1034
sg19
(lp1035
sg21
I0
sba(iArchitecture
Entity
p1036
(dp1037
g11
(lp1038
sg13
S'android.graphics.BitmapFactory$Options'
p1039
sg15
(lp1040
sg17
(lp1041
sg19
(lp1042
sg21
I0
sbasg29
(lp1043
g1032
ag1039
asg21
I0
sg31
S'655'
p1044
sba(iArchitecture
Cluster
p1045
(dp1046
g7
(lp1047
(iArchitecture
Entity
p1048
(dp1049
g11
(lp1050
sg13
S'android.graphics.NinePatch'
p1051
sg15
(lp1052
sg17
(lp1053
sg19
(lp1054
sg21
I0
sba(iArchitecture
Entity
p1055
(dp1056
g11
(lp1057
sg13
S'android.graphics.NinePatch$InsetStruct'
p1058
sg15
(lp1059
sg17
(lp1060
sg19
(lp1061
sg21
I0
sbasg29
(lp1062
g1051
ag1058
asg21
I0
sg31
S'669'
p1063
sba(iArchitecture
Cluster
p1064
(dp1065
g7
(lp1066
(iArchitecture
Entity
p1067
(dp1068
g11
(lp1069
sg13
S'android.graphics.drawable.TransitionDrawable'
p1070
sg15
(lp1071
sg17
(lp1072
sg19
(lp1073
sg21
I0
sba(iArchitecture
Entity
p1074
(dp1075
g11
(lp1076
sg13
S'android.graphics.drawable.TransitionDrawable$TransitionState'
p1077
sg15
(lp1078
sg17
(lp1079
sg19
(lp1080
sg21
I0
sbasg29
(lp1081
g1070
ag1077
asg21
I0
sg31
S'709'
p1082
sba(iArchitecture
Cluster
p1083
(dp1084
g7
(lp1085
(iArchitecture
Entity
p1086
(dp1087
g11
(lp1088
sg13
S'android.graphics.drawable.RippleComponent'
p1089
sg15
(lp1090
sg17
(lp1091
sg19
(lp1092
sg21
I0
sba(iArchitecture
Entity
p1093
(dp1094
g11
(lp1095
sg13
S'android.graphics.drawable.RippleComponent$RenderNodeAnimatorSet'
p1096
sg15
(lp1097
sg17
(lp1098
sg19
(lp1099
sg21
I0
sbasg29
(lp1100
g1089
ag1096
asg21
I0
sg31
S'714'
p1101
sba(iArchitecture
Cluster
p1102
(dp1103
g7
(lp1104
(iArchitecture
Entity
p1105
(dp1106
g11
(lp1107
sg13
S'android.graphics.Interpolator'
p1108
sg15
(lp1109
sg17
(lp1110
sg19
(lp1111
sg21
I0
sba(iArchitecture
Entity
p1112
(dp1113
g11
(lp1114
sg13
S'android.graphics.Interpolator$Result'
p1115
sg15
(lp1116
sg17
(lp1117
sg19
(lp1118
sg21
I0
sbasg29
(lp1119
g1108
ag1115
asg21
I0
sg31
S'735'
p1120
sba(iArchitecture
Cluster
p1121
(dp1122
g7
(lp1123
(iArchitecture
Entity
p1124
(dp1125
g11
(lp1126
sg13
S'android.graphics.BitmapRegionDecoder'
p1127
sg15
(lp1128
sg17
(lp1129
sg19
(lp1130
sg21
I0
sbasg29
(lp1131
g1127
asg21
I0
sg31
S'74'
p1132
sba(iArchitecture
Cluster
p1133
(dp1134
g7
(lp1135
(iArchitecture
Entity
p1136
(dp1137
g11
(lp1138
sg13
S'android.graphics.drawable.GradientDrawable'
p1139
sg15
(lp1140
sg17
(lp1141
sg19
(lp1142
sg21
I0
sba(iArchitecture
Entity
p1143
(dp1144
g11
(lp1145
sg13
S'android.graphics.drawable.GradientDrawable$GradientState'
p1146
sg15
(lp1147
sg17
(lp1148
sg19
(lp1149
sg21
I0
sba(iArchitecture
Entity
p1150
(dp1151
g11
(lp1152
sg13
S'android.graphics.drawable.GradientDrawable$Orientation'
p1153
sg15
(lp1154
sg17
(lp1155
sg19
(lp1156
sg21
I0
sbasg29
(lp1157
g1139
ag1146
ag1153
asg21
I0
sg31
S'751'
p1158
sba(iArchitecture
Cluster
p1159
(dp1160
g7
(lp1161
(iArchitecture
Entity
p1162
(dp1163
g11
(lp1164
sg13
S'android.graphics.Matrix'
p1165
sg15
(lp1166
sg17
(lp1167
sg19
(lp1168
sg21
I0
sba(iArchitecture
Entity
p1169
(dp1170
g11
(lp1171
sg13
S'android.graphics.Matrix$1'
p1172
sg15
(lp1173
sg17
(lp1174
sg19
(lp1175
sg21
I0
sba(iArchitecture
Entity
p1176
(dp1177
g11
(lp1178
sg13
S'android.graphics.Matrix$ScaleToFit'
p1179
sg15
(lp1180
sg17
(lp1181
sg19
(lp1182
sg21
I0
sbasg29
(lp1183
g1165
ag1172
ag1179
asg21
I0
sg31
S'752'
p1184
sba(iArchitecture
Cluster
p1185
(dp1186
g7
(lp1187
(iArchitecture
Entity
p1188
(dp1189
g11
(lp1190
sg13
S'android.graphics.drawable.LayerDrawable'
p1191
sg15
(lp1192
sg17
(lp1193
sg19
(lp1194
sg21
I0
sba(iArchitecture
Entity
p1195
(dp1196
g11
(lp1197
sg13
S'android.graphics.drawable.LayerDrawable$ChildDrawable'
p1198
sg15
(lp1199
sg17
(lp1200
sg19
(lp1201
sg21
I0
sba(iArchitecture
Entity
p1202
(dp1203
g11
(lp1204
sg13
S'android.graphics.drawable.LayerDrawable$LayerState'
p1205
sg15
(lp1206
sg17
(lp1207
sg19
(lp1208
sg21
I0
sbasg29
(lp1209
g1191
ag1198
ag1205
asg21
I0
sg31
S'756'
p1210
sba(iArchitecture
Cluster
p1211
(dp1212
g7
(lp1213
(iArchitecture
Entity
p1214
(dp1215
g11
(lp1216
sg13
S'android.graphics.Movie'
p1217
sg15
(lp1218
sg17
(lp1219
sg19
(lp1220
sg21
I0
sbasg29
(lp1221
g1217
asg21
I0
sg31
S'76'
p1222
sba(iArchitecture
Cluster
p1223
(dp1224
g7
(lp1225
(iArchitecture
Entity
p1226
(dp1227
g11
(lp1228
sg13
S'android.graphics.drawable.ShapeDrawable'
p1229
sg15
(lp1230
sg17
(lp1231
sg19
(lp1232
sg21
I0
sba(iArchitecture
Entity
p1233
(dp1234
g11
(lp1235
sg13
S'android.graphics.drawable.ShapeDrawable$ShaderFactory'
p1236
sg15
(lp1237
sg17
(lp1238
sg19
(lp1239
sg21
I0
sba(iArchitecture
Entity
p1240
(dp1241
g11
(lp1242
sg13
S'android.graphics.drawable.ShapeDrawable$ShapeState'
p1243
sg15
(lp1244
sg17
(lp1245
sg19
(lp1246
sg21
I0
sbasg29
(lp1247
g1229
ag1236
ag1243
asg21
I0
sg31
S'763'
p1248
sba(iArchitecture
Cluster
p1249
(dp1250
g7
(lp1251
(iArchitecture
Entity
p1252
(dp1253
g11
(lp1254
sg13
S'android.graphics.Canvas'
p1255
sg15
(lp1256
sg17
(lp1257
sg19
(lp1258
sg21
I0
sba(iArchitecture
Entity
p1259
(dp1260
g11
(lp1261
sg13
S'android.graphics.Canvas$CanvasFinalizer'
p1262
sg15
(lp1263
sg17
(lp1264
sg19
(lp1265
sg21
I0
sba(iArchitecture
Entity
p1266
(dp1267
g11
(lp1268
sg13
S'android.graphics.Canvas$EdgeType'
p1269
sg15
(lp1270
sg17
(lp1271
sg19
(lp1272
sg21
I0
sba(iArchitecture
Entity
p1273
(dp1274
g11
(lp1275
sg13
S'android.graphics.Canvas$VertexMode'
p1276
sg15
(lp1277
sg17
(lp1278
sg19
(lp1279
sg21
I0
sbasg29
(lp1280
g1255
ag1262
ag1269
ag1276
asg21
I0
sg31
S'852'
p1281
sba(iArchitecture
Cluster
p1282
(dp1283
g7
(lp1284
(iArchitecture
Entity
p1285
(dp1286
g11
(lp1287
sg13
S'android.graphics.Path'
p1288
sg15
(lp1289
sg17
(lp1290
sg19
(lp1291
sg21
I0
sba(iArchitecture
Entity
p1292
(dp1293
g11
(lp1294
sg13
S'android.graphics.Path$Direction'
p1295
sg15
(lp1296
sg17
(lp1297
sg19
(lp1298
sg21
I0
sba(iArchitecture
Entity
p1299
(dp1300
g11
(lp1301
sg13
S'android.graphics.Path$FillType'
p1302
sg15
(lp1303
sg17
(lp1304
sg19
(lp1305
sg21
I0
sba(iArchitecture
Entity
p1306
(dp1307
g11
(lp1308
sg13
S'android.graphics.Path$Op'
p1309
sg15
(lp1310
sg17
(lp1311
sg19
(lp1312
sg21
I0
sbasg29
(lp1313
g1288
ag1295
ag1302
ag1309
asg21
I0
sg31
S'853'
p1314
sba(iArchitecture
Cluster
p1315
(dp1316
g7
(lp1317
(iArchitecture
Entity
p1318
(dp1319
g11
(lp1320
sg13
S'android.graphics.drawable.RippleBackground'
p1321
sg15
(lp1322
sg17
(lp1323
sg19
(lp1324
sg21
I0
sba(iArchitecture
Entity
p1325
(dp1326
g11
(lp1327
sg13
S'android.graphics.drawable.RippleBackground$1'
p1328
sg15
(lp1329
sg17
(lp1330
sg19
(lp1331
sg21
I0
sba(iArchitecture
Entity
p1332
(dp1333
g11
(lp1334
sg13
S'android.graphics.drawable.RippleBackground$BackgroundProperty'
p1335
sg15
(lp1336
sg17
(lp1337
sg19
(lp1338
sg21
I0
sbasg29
(lp1339
g1321
ag1328
ag1335
asg21
I0
sg31
S'855'
p1340
sba(iArchitecture
Cluster
p1341
(dp1342
g7
(lp1343
(iArchitecture
Entity
p1344
(dp1345
g11
(lp1346
sg13
S'android.graphics.SurfaceTexture'
p1347
sg15
(lp1348
sg17
(lp1349
sg19
(lp1350
sg21
I0
sba(iArchitecture
Entity
p1351
(dp1352
g11
(lp1353
sg13
S'android.graphics.SurfaceTexture$1'
p1354
sg15
(lp1355
sg17
(lp1356
sg19
(lp1357
sg21
I0
sba(iArchitecture
Entity
p1358
(dp1359
g11
(lp1360
sg13
S'android.graphics.SurfaceTexture$OnFrameAvailableListener'
p1361
sg15
(lp1362
sg17
(lp1363
sg19
(lp1364
sg21
I0
sba(iArchitecture
Entity
p1365
(dp1366
g11
(lp1367
sg13
S'android.graphics.SurfaceTexture$OutOfResourcesException'
p1368
sg15
(lp1369
sg17
(lp1370
sg19
(lp1371
sg21
I0
sbasg29
(lp1372
g1347
ag1354
ag1361
ag1368
asg21
I0
sg31
S'898'
p1373
sba(iArchitecture
Cluster
p1374
(dp1375
g7
(lp1376
(iArchitecture
Entity
p1377
(dp1378
g11
(lp1379
sg13
S'android.graphics.FontListParser'
p1380
sg15
(lp1381
sg17
(lp1382
sg19
(lp1383
sg21
I0
sba(iArchitecture
Entity
p1384
(dp1385
g11
(lp1386
sg13
S'android.graphics.FontListParser$Alias'
p1387
sg15
(lp1388
sg17
(lp1389
sg19
(lp1390
sg21
I0
sba(iArchitecture
Entity
p1391
(dp1392
g11
(lp1393
sg13
S'android.graphics.FontListParser$Config'
p1394
sg15
(lp1395
sg17
(lp1396
sg19
(lp1397
sg21
I0
sba(iArchitecture
Entity
p1398
(dp1399
g11
(lp1400
sg13
S'android.graphics.FontListParser$Family'
p1401
sg15
(lp1402
sg17
(lp1403
sg19
(lp1404
sg21
I0
sba(iArchitecture
Entity
p1405
(dp1406
g11
(lp1407
sg13
S'android.graphics.FontListParser$Font'
p1408
sg15
(lp1409
sg17
(lp1410
sg19
(lp1411
sg21
I0
sbasg29
(lp1412
g1380
ag1387
ag1394
ag1401
ag1408
asg21
I0
sg31
S'922'
p1413
sba(iArchitecture
Cluster
p1414
(dp1415
g7
(lp1416
(iArchitecture
Entity
p1417
(dp1418
g11
(lp1419
sg13
S'android.graphics.Bitmap'
p1420
sg15
(lp1421
sg17
(lp1422
sg19
(lp1423
sg21
I0
sba(iArchitecture
Entity
p1424
(dp1425
g11
(lp1426
sg13
S'android.graphics.Bitmap$1'
p1427
sg15
(lp1428
sg17
(lp1429
sg19
(lp1430
sg21
I0
sba(iArchitecture
Entity
p1431
(dp1432
g11
(lp1433
sg13
S'android.graphics.Bitmap$BitmapFinalizer'
p1434
sg15
(lp1435
sg17
(lp1436
sg19
(lp1437
sg21
I0
sba(iArchitecture
Entity
p1438
(dp1439
g11
(lp1440
sg13
S'android.graphics.Bitmap$CompressFormat'
p1441
sg15
(lp1442
sg17
(lp1443
sg19
(lp1444
sg21
I0
sba(iArchitecture
Entity
p1445
(dp1446
g11
(lp1447
sg13
S'android.graphics.Bitmap$Config'
p1448
sg15
(lp1449
sg17
(lp1450
sg19
(lp1451
sg21
I0
sbasg29
(lp1452
g1420
ag1427
ag1434
ag1441
ag1448
asg21
I0
sg31
S'934'
p1453
sba(iArchitecture
Cluster
p1454
(dp1455
g7
(lp1456
(iArchitecture
Entity
p1457
(dp1458
g11
(lp1459
sg13
S'android.graphics.pdf.PdfDocument'
p1460
sg15
(lp1461
sg17
(lp1462
sg19
(lp1463
sg21
I0
sba(iArchitecture
Entity
p1464
(dp1465
g11
(lp1466
sg13
S'android.graphics.pdf.PdfDocument$Page'
p1467
sg15
(lp1468
sg17
(lp1469
sg19
(lp1470
sg21
I0
sba(iArchitecture
Entity
p1471
(dp1472
g11
(lp1473
sg13
S'android.graphics.pdf.PdfDocument$PageInfo'
p1474
sg15
(lp1475
sg17
(lp1476
sg19
(lp1477
sg21
I0
sba(iArchitecture
Entity
p1478
(dp1479
g11
(lp1480
sg13
S'android.graphics.pdf.PdfDocument$PageInfo$Builder'
p1481
sg15
(lp1482
sg17
(lp1483
sg19
(lp1484
sg21
I0
sba(iArchitecture
Entity
p1485
(dp1486
g11
(lp1487
sg13
S'android.graphics.pdf.PdfDocument$PdfCanvas'
p1488
sg15
(lp1489
sg17
(lp1490
sg19
(lp1491
sg21
I0
sbasg29
(lp1492
g1460
ag1467
ag1474
ag1481
ag1488
asg21
I0
sg31
S'936'
p1493
sba(iArchitecture
Cluster
p1494
(dp1495
g7
(lp1496
(iArchitecture
Entity
p1497
(dp1498
g11
(lp1499
sg13
S'android.graphics.drawable.VectorDrawable'
p1500
sg15
(lp1501
sg17
(lp1502
sg19
(lp1503
sg21
I0
sba(iArchitecture
Entity
p1504
(dp1505
g11
(lp1506
sg13
S'android.graphics.drawable.VectorDrawable$VClipPath'
p1507
sg15
(lp1508
sg17
(lp1509
sg19
(lp1510
sg21
I0
sba(iArchitecture
Entity
p1511
(dp1512
g11
(lp1513
sg13
S'android.graphics.drawable.VectorDrawable$VFullPath'
p1514
sg15
(lp1515
sg17
(lp1516
sg19
(lp1517
sg21
I0
sba(iArchitecture
Entity
p1518
(dp1519
g11
(lp1520
sg13
S'android.graphics.drawable.VectorDrawable$VGroup'
p1521
sg15
(lp1522
sg17
(lp1523
sg19
(lp1524
sg21
I0
sba(iArchitecture
Entity
p1525
(dp1526
g11
(lp1527
sg13
S'android.graphics.drawable.VectorDrawable$VPath'
p1528
sg15
(lp1529
sg17
(lp1530
sg19
(lp1531
sg21
I0
sba(iArchitecture
Entity
p1532
(dp1533
g11
(lp1534
sg13
S'android.graphics.drawable.VectorDrawable$VPathRenderer'
p1535
sg15
(lp1536
sg17
(lp1537
sg19
(lp1538
sg21
I0
sba(iArchitecture
Entity
p1539
(dp1540
g11
(lp1541
sg13
S'android.graphics.drawable.VectorDrawable$VectorDrawableState'
p1542
sg15
(lp1543
sg17
(lp1544
sg19
(lp1545
sg21
I0
sbasg29
(lp1546
g1500
ag1507
ag1514
ag1521
ag1528
ag1535
ag1542
asg21
I0
sg31
S'981'
p1547
sba(iArchitecture
Cluster
p1548
(dp1549
g7
(lp1550
(iArchitecture
Entity
p1551
(dp1552
g11
(lp1553
sg13
S'android.graphics.drawable.AnimatedStateListDrawable'
p1554
sg15
(lp1555
sg17
(lp1556
sg19
(lp1557
sg21
I0
sba(iArchitecture
Entity
p1558
(dp1559
g11
(lp1560
sg13
S'android.graphics.drawable.AnimatedStateListDrawable$AnimatableTransition'
p1561
sg15
(lp1562
sg17
(lp1563
sg19
(lp1564
sg21
I0
sba(iArchitecture
Entity
p1565
(dp1566
g11
(lp1567
sg13
S'android.graphics.drawable.AnimatedStateListDrawable$AnimatedStateListState'
p1568
sg15
(lp1569
sg17
(lp1570
sg19
(lp1571
sg21
I0
sba(iArchitecture
Entity
p1572
(dp1573
g11
(lp1574
sg13
S'android.graphics.drawable.AnimatedStateListDrawable$AnimatedVectorDrawableTransition'
p1575
sg15
(lp1576
sg17
(lp1577
sg19
(lp1578
sg21
I0
sba(iArchitecture
Entity
p1579
(dp1580
g11
(lp1581
sg13
S'android.graphics.drawable.AnimatedStateListDrawable$AnimationDrawableTransition'
p1582
sg15
(lp1583
sg17
(lp1584
sg19
(lp1585
sg21
I0
sba(iArchitecture
Entity
p1586
(dp1587
g11
(lp1588
sg13
S'android.graphics.drawable.AnimatedStateListDrawable$FrameInterpolator'
p1589
sg15
(lp1590
sg17
(lp1591
sg19
(lp1592
sg21
I0
sba(iArchitecture
Entity
p1593
(dp1594
g11
(lp1595
sg13
S'android.graphics.drawable.AnimatedStateListDrawable$Transition'
p1596
sg15
(lp1597
sg17
(lp1598
sg19
(lp1599
sg21
I0
sbasg29
(lp1600
g1554
ag1561
ag1568
ag1575
ag1582
ag1589
ag1596
asg21
I0
sg31
S'989'
p1601
sba(iArchitecture
Cluster
p1602
(dp1603
g7
(lp1604
(iArchitecture
Entity
p1605
(dp1606
g11
(lp1607
sg13
S'android.graphics.Paint'
p1608
sg15
(lp1609
sg17
(lp1610
sg19
(lp1611
sg21
I0
sba(iArchitecture
Entity
p1612
(dp1613
g11
(lp1614
sg13
S'android.graphics.Paint$Align'
p1615
sg15
(lp1616
sg17
(lp1617
sg19
(lp1618
sg21
I0
sba(iArchitecture
Entity
p1619
(dp1620
g11
(lp1621
sg13
S'android.graphics.Paint$Cap'
p1622
sg15
(lp1623
sg17
(lp1624
sg19
(lp1625
sg21
I0
sba(iArchitecture
Entity
p1626
(dp1627
g11
(lp1628
sg13
S'android.graphics.Paint$FontMetrics'
p1629
sg15
(lp1630
sg17
(lp1631
sg19
(lp1632
sg21
I0
sba(iArchitecture
Entity
p1633
(dp1634
g11
(lp1635
sg13
S'android.graphics.Paint$FontMetricsInt'
p1636
sg15
(lp1637
sg17
(lp1638
sg19
(lp1639
sg21
I0
sba(iArchitecture
Entity
p1640
(dp1641
g11
(lp1642
sg13
S'android.graphics.Paint$Join'
p1643
sg15
(lp1644
sg17
(lp1645
sg19
(lp1646
sg21
I0
sba(iArchitecture
Entity
p1647
(dp1648
g11
(lp1649
sg13
S'android.graphics.Paint$Style'
p1650
sg15
(lp1651
sg17
(lp1652
sg19
(lp1653
sg21
I0
sbasg29
(lp1654
g1608
ag1615
ag1622
ag1629
ag1636
ag1643
ag1650
asg21
I0
sg31
S'997'
p1655
sba(iArchitecture
Cluster
p1656
(dp1657
g7
(lp1658
(iArchitecture
Entity
p1659
(dp1660
g11
(lp1661
sg13
S'android.graphics.drawable.RippleForeground'
p1662
sg15
(lp1663
sg17
(lp1664
sg19
(lp1665
sg21
I0
sba(iArchitecture
Entity
p1666
(dp1667
g11
(lp1668
sg13
S'android.graphics.drawable.RippleForeground$1'
p1669
sg15
(lp1670
sg17
(lp1671
sg19
(lp1672
sg21
I0
sba(iArchitecture
Entity
p1673
(dp1674
g11
(lp1675
sg13
S'android.graphics.drawable.RippleForeground$2'
p1676
sg15
(lp1677
sg17
(lp1678
sg19
(lp1679
sg21
I0
sba(iArchitecture
Entity
p1680
(dp1681
g11
(lp1682
sg13
S'android.graphics.drawable.RippleForeground$3'
p1683
sg15
(lp1684
sg17
(lp1685
sg19
(lp1686
sg21
I0
sba(iArchitecture
Entity
p1687
(dp1688
g11
(lp1689
sg13
S'android.graphics.drawable.RippleForeground$4'
p1690
sg15
(lp1691
sg17
(lp1692
sg19
(lp1693
sg21
I0
sba(iArchitecture
Entity
p1694
(dp1695
g11
(lp1696
sg13
S'android.graphics.drawable.RippleForeground$LogDecelerateInterpolator'
p1697
sg15
(lp1698
sg17
(lp1699
sg19
(lp1700
sg21
I0
sbasg29
(lp1701
g1662
ag1669
ag1676
ag1683
ag1690
ag1697
asg21
I0
sg31
S'999'
p1702
sbasS'target_sub'
p1703
S'android.graphics'
p1704
sg29
(lp1705
sS'is_component_arch'
p1706
I00
sg31
S'6.0.0_r1'
p1707
sba(iArchitecture
Architecture
p1708
(dp1709
g3
(lp1710
(iArchitecture
Cluster
p1711
(dp1712
g7
(lp1713
(iArchitecture
Entity
p1714
(dp1715
g11
(lp1716
sg13
S'android.graphics.SurfaceTexture'
p1717
sg15
(lp1718
sg17
(lp1719
sg19
(lp1720
sg21
I0
sba(iArchitecture
Entity
p1721
(dp1722
g11
(lp1723
sg13
S'android.graphics.SurfaceTexture$1'
p1724
sg15
(lp1725
sg17
(lp1726
sg19
(lp1727
sg21
I0
sba(iArchitecture
Entity
p1728
(dp1729
g11
(lp1730
sg13
S'android.graphics.SurfaceTexture$OnFrameAvailableListener'
p1731
sg15
(lp1732
sg17
(lp1733
sg19
(lp1734
sg21
I0
sba(iArchitecture
Entity
p1735
(dp1736
g11
(lp1737
sg13
S'android.graphics.SurfaceTexture$OutOfResourcesException'
p1738
sg15
(lp1739
sg17
(lp1740
sg19
(lp1741
sg21
I0
sbasg29
(lp1742
g1717
ag1724
ag1731
ag1738
asg21
I0
sg31
S'1014'
p1743
sba(iArchitecture
Cluster
p1744
(dp1745
g7
(lp1746
(iArchitecture
Entity
p1747
(dp1748
g11
(lp1749
sg13
S'android.graphics.pdf.PdfDocument'
p1750
sg15
(lp1751
sg17
(lp1752
sg19
(lp1753
sg21
I0
sba(iArchitecture
Entity
p1754
(dp1755
g11
(lp1756
sg13
S'android.graphics.pdf.PdfDocument$Page'
p1757
sg15
(lp1758
sg17
(lp1759
sg19
(lp1760
sg21
I0
sba(iArchitecture
Entity
p1761
(dp1762
g11
(lp1763
sg13
S'android.graphics.pdf.PdfDocument$PageInfo'
p1764
sg15
(lp1765
sg17
(lp1766
sg19
(lp1767
sg21
I0
sba(iArchitecture
Entity
p1768
(dp1769
g11
(lp1770
sg13
S'android.graphics.pdf.PdfDocument$PageInfo$Builder'
p1771
sg15
(lp1772
sg17
(lp1773
sg19
(lp1774
sg21
I0
sba(iArchitecture
Entity
p1775
(dp1776
g11
(lp1777
sg13
S'android.graphics.pdf.PdfDocument$PdfCanvas'
p1778
sg15
(lp1779
sg17
(lp1780
sg19
(lp1781
sg21
I0
sbasg29
(lp1782
g1750
ag1757
ag1764
ag1771
ag1778
asg21
I0
sg31
S'1054'
p1783
sba(iArchitecture
Cluster
p1784
(dp1785
g7
(lp1786
(iArchitecture
Entity
p1787
(dp1788
g11
(lp1789
sg13
S'android.graphics.drawable.AnimatedStateListDrawable'
p1790
sg15
(lp1791
sg17
(lp1792
sg19
(lp1793
sg21
I0
sba(iArchitecture
Entity
p1794
(dp1795
g11
(lp1796
sg13
S'android.graphics.drawable.AnimatedStateListDrawable$AnimatableTransition'
p1797
sg15
(lp1798
sg17
(lp1799
sg19
(lp1800
sg21
I0
sba(iArchitecture
Entity
p1801
(dp1802
g11
(lp1803
sg13
S'android.graphics.drawable.AnimatedStateListDrawable$AnimatedStateListState'
p1804
sg15
(lp1805
sg17
(lp1806
sg19
(lp1807
sg21
I0
sba(iArchitecture
Entity
p1808
(dp1809
g11
(lp1810
sg13
S'android.graphics.drawable.AnimatedStateListDrawable$AnimatedVectorDrawableTransition'
p1811
sg15
(lp1812
sg17
(lp1813
sg19
(lp1814
sg21
I0
sba(iArchitecture
Entity
p1815
(dp1816
g11
(lp1817
sg13
S'android.graphics.drawable.AnimatedStateListDrawable$AnimationDrawableTransition'
p1818
sg15
(lp1819
sg17
(lp1820
sg19
(lp1821
sg21
I0
sba(iArchitecture
Entity
p1822
(dp1823
g11
(lp1824
sg13
S'android.graphics.drawable.AnimatedStateListDrawable$FrameInterpolator'
p1825
sg15
(lp1826
sg17
(lp1827
sg19
(lp1828
sg21
I0
sba(iArchitecture
Entity
p1829
(dp1830
g11
(lp1831
sg13
S'android.graphics.drawable.AnimatedStateListDrawable$Transition'
p1832
sg15
(lp1833
sg17
(lp1834
sg19
(lp1835
sg21
I0
sbasg29
(lp1836
g1790
ag1797
ag1804
ag1811
ag1818
ag1825
ag1832
asg21
I0
sg31
S'1116'
p1837
sba(iArchitecture
Cluster
p1838
(dp1839
g7
(lp1840
(iArchitecture
Entity
p1841
(dp1842
g11
(lp1843
sg13
S'android.graphics.FontListParser'
p1844
sg15
(lp1845
sg17
(lp1846
sg19
(lp1847
sg21
I0
sba(iArchitecture
Entity
p1848
(dp1849
g11
(lp1850
sg13
S'android.graphics.FontListParser$Alias'
p1851
sg15
(lp1852
sg17
(lp1853
sg19
(lp1854
sg21
I0
sba(iArchitecture
Entity
p1855
(dp1856
g11
(lp1857
sg13
S'android.graphics.FontListParser$Axis'
p1858
sg15
(lp1859
sg17
(lp1860
sg19
(lp1861
sg21
I0
sba(iArchitecture
Entity
p1862
(dp1863
g11
(lp1864
sg13
S'android.graphics.FontListParser$Config'
p1865
sg15
(lp1866
sg17
(lp1867
sg19
(lp1868
sg21
I0
sba(iArchitecture
Entity
p1869
(dp1870
g11
(lp1871
sg13
S'android.graphics.FontListParser$Family'
p1872
sg15
(lp1873
sg17
(lp1874
sg19
(lp1875
sg21
I0
sba(iArchitecture
Entity
p1876
(dp1877
g11
(lp1878
sg13
S'android.graphics.FontListParser$Font'
p1879
sg15
(lp1880
sg17
(lp1881
sg19
(lp1882
sg21
I0
sbasg29
(lp1883
g1844
ag1851
ag1858
ag1865
ag1872
ag1879
asg21
I0
sg31
S'1121'
p1884
sba(iArchitecture
Cluster
p1885
(dp1886
g7
(lp1887
(iArchitecture
Entity
p1888
(dp1889
g11
(lp1890
sg13
S'android.graphics.drawable.RippleForeground'
p1891
sg15
(lp1892
sg17
(lp1893
sg19
(lp1894
sg21
I0
sba(iArchitecture
Entity
p1895
(dp1896
g11
(lp1897
sg13
S'android.graphics.drawable.RippleForeground$1'
p1898
sg15
(lp1899
sg17
(lp1900
sg19
(lp1901
sg21
I0
sba(iArchitecture
Entity
p1902
(dp1903
g11
(lp1904
sg13
S'android.graphics.drawable.RippleForeground$2'
p1905
sg15
(lp1906
sg17
(lp1907
sg19
(lp1908
sg21
I0
sba(iArchitecture
Entity
p1909
(dp1910
g11
(lp1911
sg13
S'android.graphics.drawable.RippleForeground$3'
p1912
sg15
(lp1913
sg17
(lp1914
sg19
(lp1915
sg21
I0
sba(iArchitecture
Entity
p1916
(dp1917
g11
(lp1918
sg13
S'android.graphics.drawable.RippleForeground$4'
p1919
sg15
(lp1920
sg17
(lp1921
sg19
(lp1922
sg21
I0
sba(iArchitecture
Entity
p1923
(dp1924
g11
(lp1925
sg13
S'android.graphics.drawable.RippleForeground$LogDecelerateInterpolator'
p1926
sg15
(lp1927
sg17
(lp1928
sg19
(lp1929
sg21
I0
sbasg29
(lp1930
g1891
ag1898
ag1905
ag1912
ag1919
ag1926
asg21
I0
sg31
S'1126'
p1931
sba(iArchitecture
Cluster
p1932
(dp1933
g7
(lp1934
(iArchitecture
Entity
p1935
(dp1936
g11
(lp1937
sg13
S'android.graphics.Paint'
p1938
sg15
(lp1939
sg17
(lp1940
sg19
(lp1941
sg21
I0
sba(iArchitecture
Entity
p1942
(dp1943
g11
(lp1944
sg13
S'android.graphics.Paint$Align'
p1945
sg15
(lp1946
sg17
(lp1947
sg19
(lp1948
sg21
I0
sba(iArchitecture
Entity
p1949
(dp1950
g11
(lp1951
sg13
S'android.graphics.Paint$Cap'
p1952
sg15
(lp1953
sg17
(lp1954
sg19
(lp1955
sg21
I0
sba(iArchitecture
Entity
p1956
(dp1957
g11
(lp1958
sg13
S'android.graphics.Paint$FontMetrics'
p1959
sg15
(lp1960
sg17
(lp1961
sg19
(lp1962
sg21
I0
sba(iArchitecture
Entity
p1963
(dp1964
g11
(lp1965
sg13
S'android.graphics.Paint$FontMetricsInt'
p1966
sg15
(lp1967
sg17
(lp1968
sg19
(lp1969
sg21
I0
sba(iArchitecture
Entity
p1970
(dp1971
g11
(lp1972
sg13
S'android.graphics.Paint$Join'
p1973
sg15
(lp1974
sg17
(lp1975
sg19
(lp1976
sg21
I0
sba(iArchitecture
Entity
p1977
(dp1978
g11
(lp1979
sg13
S'android.graphics.Paint$NoImagePreloadHolder'
p1980
sg15
(lp1981
sg17
(lp1982
sg19
(lp1983
sg21
I0
sba(iArchitecture
Entity
p1984
(dp1985
g11
(lp1986
sg13
S'android.graphics.Paint$Style'
p1987
sg15
(lp1988
sg17
(lp1989
sg19
(lp1990
sg21
I0
sbasg29
(lp1991
g1938
ag1945
ag1952
ag1959
ag1966
ag1973
ag1980
ag1987
asg21
I0
sg31
S'1173'
p1992
sba(iArchitecture
Cluster
p1993
(dp1994
g7
(lp1995
(iArchitecture
Entity
p1996
(dp1997
g11
(lp1998
sg13
S'android.graphics.drawable.VectorDrawable'
p1999
sg15
(lp2000
sg17
(lp2001
sg19
(lp2002
sg21
I0
sba(iArchitecture
Entity
p2003
(dp2004
g11
(lp2005
sg13
S'android.graphics.drawable.VectorDrawable$VClipPath'
p2006
sg15
(lp2007
sg17
(lp2008
sg19
(lp2009
sg21
I0
sba(iArchitecture
Entity
p2010
(dp2011
g11
(lp2012
sg13
S'android.graphics.drawable.VectorDrawable$VFullPath'
p2013
sg15
(lp2014
sg17
(lp2015
sg19
(lp2016
sg21
I0
sba(iArchitecture
Entity
p2017
(dp2018
g11
(lp2019
sg13
S'android.graphics.drawable.VectorDrawable$VFullPath$1'
p2020
sg15
(lp2021
sg17
(lp2022
sg19
(lp2023
sg21
I0
sba(iArchitecture
Entity
p2024
(dp2025
g11
(lp2026
sg13
S'android.graphics.drawable.VectorDrawable$VGroup'
p2027
sg15
(lp2028
sg17
(lp2029
sg19
(lp2030
sg21
I0
sba(iArchitecture
Entity
p2031
(dp2032
g11
(lp2033
sg13
S'android.graphics.drawable.VectorDrawable$VGroup$1'
p2034
sg15
(lp2035
sg17
(lp2036
sg19
(lp2037
sg21
I0
sba(iArchitecture
Entity
p2038
(dp2039
g11
(lp2040
sg13
S'android.graphics.drawable.VectorDrawable$VObject'
p2041
sg15
(lp2042
sg17
(lp2043
sg19
(lp2044
sg21
I0
sba(iArchitecture
Entity
p2045
(dp2046
g11
(lp2047
sg13
S'android.graphics.drawable.VectorDrawable$VPath'
p2048
sg15
(lp2049
sg17
(lp2050
sg19
(lp2051
sg21
I0
sba(iArchitecture
Entity
p2052
(dp2053
g11
(lp2054
sg13
S'android.graphics.drawable.VectorDrawable$VectorDrawableState'
p2055
sg15
(lp2056
sg17
(lp2057
sg19
(lp2058
sg21
I0
sbasg29
(lp2059
g1999
ag2006
ag2013
ag2020
ag2027
ag2034
ag2041
ag2048
ag2055
asg21
I0
sg31
S'1185'
p2060
sba(iArchitecture
Cluster
p2061
(dp2062
g7
(lp2063
(iArchitecture
Entity
p2064
(dp2065
g11
(lp2066
sg13
S'android.graphics.LinearGradient'
p2067
sg15
(lp2068
sg17
(lp2069
sg19
(lp2070
sg21
I0
sba(iArchitecture
Entity
p2071
(dp2072
g11
(lp2073
sg13
S'android.graphics.SweepGradient'
p2074
sg15
(lp2075
sg17
(lp2076
sg19
(lp2077
sg21
I0
sbasg29
(lp2078
g2067
ag2074
asg21
I0
sg31
S'1283'
p2079
sba(iArchitecture
Cluster
p2080
(dp2081
g7
(lp2082
(iArchitecture
Entity
p2083
(dp2084
g11
(lp2085
sg13
S'android.graphics.drawable.shapes.PathShape'
p2086
sg15
(lp2087
sg17
(lp2088
sg19
(lp2089
sg21
I0
sba(iArchitecture
Entity
p2090
(dp2091
g11
(lp2092
sg13
S'android.graphics.drawable.shapes.Shape'
p2093
sg15
(lp2094
sg17
(lp2095
sg19
(lp2096
sg21
I0
sbasg29
(lp2097
g2086
ag2093
asg21
I0
sg31
S'1304'
p2098
sba(iArchitecture
Cluster
p2099
(dp2100
g7
(lp2101
(iArchitecture
Entity
p2102
(dp2103
g11
(lp2104
sg13
S'android.graphics.ColorMatrix'
p2105
sg15
(lp2106
sg17
(lp2107
sg19
(lp2108
sg21
I0
sbasg29
(lp2109
g2105
asg21
I0
sg31
S'131'
p2110
sba(iArchitecture
Cluster
p2111
(dp2112
g7
(lp2113
(iArchitecture
Entity
p2114
(dp2115
g11
(lp2116
sg13
S'android.graphics.CanvasProperty'
p2117
sg15
(lp2118
sg17
(lp2119
sg19
(lp2120
sg21
I0
sba(iArchitecture
Entity
p2121
(dp2122
g11
(lp2123
sg13
S'android.graphics.ColorFilter'
p2124
sg15
(lp2125
sg17
(lp2126
sg19
(lp2127
sg21
I0
sba(iArchitecture
Entity
p2128
(dp2129
g11
(lp2130
sg13
S'android.graphics.ComposePathEffect'
p2131
sg15
(lp2132
sg17
(lp2133
sg19
(lp2134
sg21
I0
sba(iArchitecture
Entity
p2135
(dp2136
g11
(lp2137
sg13
S'android.graphics.CornerPathEffect'
p2138
sg15
(lp2139
sg17
(lp2140
sg19
(lp2141
sg21
I0
sba(iArchitecture
Entity
p2142
(dp2143
g11
(lp2144
sg13
S'android.graphics.DashPathEffect'
p2145
sg15
(lp2146
sg17
(lp2147
sg19
(lp2148
sg21
I0
sba(iArchitecture
Entity
p2149
(dp2150
g11
(lp2151
sg13
S'android.graphics.DiscretePathEffect'
p2152
sg15
(lp2153
sg17
(lp2154
sg19
(lp2155
sg21
I0
sba(iArchitecture
Entity
p2156
(dp2157
g11
(lp2158
sg13
S'android.graphics.DrawFilter'
p2159
sg15
(lp2160
sg17
(lp2161
sg19
(lp2162
sg21
I0
sba(iArchitecture
Entity
p2163
(dp2164
g11
(lp2165
sg13
S'android.graphics.LayerRasterizer'
p2166
sg15
(lp2167
sg17
(lp2168
sg19
(lp2169
sg21
I0
sba(iArchitecture
Entity
p2170
(dp2171
g11
(lp2172
sg13
S'android.graphics.MaskFilter'
p2173
sg15
(lp2174
sg17
(lp2175
sg19
(lp2176
sg21
I0
sba(iArchitecture
Entity
p2177
(dp2178
g11
(lp2179
sg13
S'android.graphics.PathEffect'
p2180
sg15
(lp2181
sg17
(lp2182
sg19
(lp2183
sg21
I0
sba(iArchitecture
Entity
p2184
(dp2185
g11
(lp2186
sg13
S'android.graphics.PixelXorXfermode'
p2187
sg15
(lp2188
sg17
(lp2189
sg19
(lp2190
sg21
I0
sba(iArchitecture
Entity
p2191
(dp2192
g11
(lp2193
sg13
S'android.graphics.Point'
p2194
sg15
(lp2195
sg17
(lp2196
sg19
(lp2197
sg21
I0
sba(iArchitecture
Entity
p2198
(dp2199
g11
(lp2200
sg13
S'android.graphics.Point$1'
p2201
sg15
(lp2202
sg17
(lp2203
sg19
(lp2204
sg21
I0
sba(iArchitecture
Entity
p2205
(dp2206
g11
(lp2207
sg13
S'android.graphics.PointF'
p2208
sg15
(lp2209
sg17
(lp2210
sg19
(lp2211
sg21
I0
sba(iArchitecture
Entity
p2212
(dp2213
g11
(lp2214
sg13
S'android.graphics.PointF$1'
p2215
sg15
(lp2216
sg17
(lp2217
sg19
(lp2218
sg21
I0
sba(iArchitecture
Entity
p2219
(dp2220
g11
(lp2221
sg13
S'android.graphics.Rasterizer'
p2222
sg15
(lp2223
sg17
(lp2224
sg19
(lp2225
sg21
I0
sba(iArchitecture
Entity
p2226
(dp2227
g11
(lp2228
sg13
S'android.graphics.RegionIterator'
p2229
sg15
(lp2230
sg17
(lp2231
sg19
(lp2232
sg21
I0
sba(iArchitecture
Entity
p2233
(dp2234
g11
(lp2235
sg13
S'android.graphics.SumPathEffect'
p2236
sg15
(lp2237
sg17
(lp2238
sg19
(lp2239
sg21
I0
sba(iArchitecture
Entity
p2240
(dp2241
g11
(lp2242
sg13
S'android.graphics.Xfermode'
p2243
sg15
(lp2244
sg17
(lp2245
sg19
(lp2246
sg21
I0
sba(iArchitecture
Entity
p2247
(dp2248
g11
(lp2249
sg13
S'android.graphics.drawable.Animatable'
p2250
sg15
(lp2251
sg17
(lp2252
sg19
(lp2253
sg21
I0
sba(iArchitecture
Entity
p2254
(dp2255
g11
(lp2256
sg13
S'android.graphics.drawable.Animatable2'
p2257
sg15
(lp2258
sg17
(lp2259
sg19
(lp2260
sg21
I0
sba(iArchitecture
Entity
p2261
(dp2262
g11
(lp2263
sg13
S'android.graphics.drawable.Animatable2$AnimationCallback'
p2264
sg15
(lp2265
sg17
(lp2266
sg19
(lp2267
sg21
I0
sba(iArchitecture
Entity
p2268
(dp2269
g11
(lp2270
sg13
S'android.graphics.drawable.AnimationDrawable'
p2271
sg15
(lp2272
sg17
(lp2273
sg19
(lp2274
sg21
I0
sba(iArchitecture
Entity
p2275
(dp2276
g11
(lp2277
sg13
S'android.graphics.drawable.AnimationDrawable$AnimationState'
p2278
sg15
(lp2279
sg17
(lp2280
sg19
(lp2281
sg21
I0
sba(iArchitecture
Entity
p2282
(dp2283
g11
(lp2284
sg13
S'android.graphics.drawable.ClipDrawable'
p2285
sg15
(lp2286
sg17
(lp2287
sg19
(lp2288
sg21
I0
sba(iArchitecture
Entity
p2289
(dp2290
g11
(lp2291
sg13
S'android.graphics.drawable.ClipDrawable$ClipState'
p2292
sg15
(lp2293
sg17
(lp2294
sg19
(lp2295
sg21
I0
sba(iArchitecture
Entity
p2296
(dp2297
g11
(lp2298
sg13
S'android.graphics.drawable.LevelListDrawable'
p2299
sg15
(lp2300
sg17
(lp2301
sg19
(lp2302
sg21
I0
sba(iArchitecture
Entity
p2303
(dp2304
g11
(lp2305
sg13
S'android.graphics.drawable.LevelListDrawable$LevelListState'
p2306
sg15
(lp2307
sg17
(lp2308
sg19
(lp2309
sg21
I0
sba(iArchitecture
Entity
p2310
(dp2311
g11
(lp2312
sg13
S'android.graphics.drawable.ScaleDrawable'
p2313
sg15
(lp2314
sg17
(lp2315
sg19
(lp2316
sg21
I0
sba(iArchitecture
Entity
p2317
(dp2318
g11
(lp2319
sg13
S'android.graphics.drawable.ScaleDrawable$ScaleState'
p2320
sg15
(lp2321
sg17
(lp2322
sg19
(lp2323
sg21
I0
sba(iArchitecture
Entity
p2324
(dp2325
g11
(lp2326
sg13
S'android.graphics.drawable.StateListDrawable'
p2327
sg15
(lp2328
sg17
(lp2329
sg19
(lp2330
sg21
I0
sba(iArchitecture
Entity
p2331
(dp2332
g11
(lp2333
sg13
S'android.graphics.drawable.StateListDrawable$StateListState'
p2334
sg15
(lp2335
sg17
(lp2336
sg19
(lp2337
sg21
I0
sbasg29
(lp2338
g2117
ag2124
ag2131
ag2138
ag2145
ag2152
ag2159
ag2166
ag2173
ag2180
ag2187
ag2194
ag2201
ag2208
ag2215
ag2222
ag2229
ag2236
ag2243
ag2250
ag2257
ag2264
ag2271
ag2278
ag2285
ag2292
ag2299
ag2306
ag2313
ag2320
ag2327
ag2334
asg21
I0
sg31
S'1330'
p2339
sba(iArchitecture
Cluster
p2340
(dp2341
g7
(lp2342
(iArchitecture
Entity
p2343
(dp2344
g11
(lp2345
sg13
S'android.graphics.TemporaryBuffer'
p2346
sg15
(lp2347
sg17
(lp2348
sg19
(lp2349
sg21
I0
sbasg29
(lp2350
g2346
asg21
I0
sg31
S'1331'
p2351
sba(iArchitecture
Cluster
p2352
(dp2353
g7
(lp2354
(iArchitecture
Entity
p2355
(dp2356
g11
(lp2357
sg13
S'android.graphics.Shader'
p2358
sg15
(lp2359
sg17
(lp2360
sg19
(lp2361
sg21
I0
sba(iArchitecture
Entity
p2362
(dp2363
g11
(lp2364
sg13
S'android.graphics.Shader$TileMode'
p2365
sg15
(lp2366
sg17
(lp2367
sg19
(lp2368
sg21
I0
sbasg29
(lp2369
g2358
ag2365
asg21
I0
sg31
S'1344'
p2370
sba(iArchitecture
Cluster
p2371
(dp2372
g7
(lp2373
(iArchitecture
Entity
p2374
(dp2375
g11
(lp2376
sg13
S'android.graphics.Rect'
p2377
sg15
(lp2378
sg17
(lp2379
sg19
(lp2380
sg21
I0
sba(iArchitecture
Entity
p2381
(dp2382
g11
(lp2383
sg13
S'android.graphics.Rect$1'
p2384
sg15
(lp2385
sg17
(lp2386
sg19
(lp2387
sg21
I0
sba(iArchitecture
Entity
p2388
(dp2389
g11
(lp2390
sg13
S'android.graphics.Rect$UnflattenHelper'
p2391
sg15
(lp2392
sg17
(lp2393
sg19
(lp2394
sg21
I0
sba(iArchitecture
Entity
p2395
(dp2396
g11
(lp2397
sg13
S'android.graphics.RectF'
p2398
sg15
(lp2399
sg17
(lp2400
sg19
(lp2401
sg21
I0
sba(iArchitecture
Entity
p2402
(dp2403
g11
(lp2404
sg13
S'android.graphics.RectF$1'
p2405
sg15
(lp2406
sg17
(lp2407
sg19
(lp2408
sg21
I0
sba(iArchitecture
Entity
p2409
(dp2410
g11
(lp2411
sg13
S'android.graphics.Region'
p2412
sg15
(lp2413
sg17
(lp2414
sg19
(lp2415
sg21
I0
sba(iArchitecture
Entity
p2416
(dp2417
g11
(lp2418
sg13
S'android.graphics.Region$1'
p2419
sg15
(lp2420
sg17
(lp2421
sg19
(lp2422
sg21
I0
sba(iArchitecture
Entity
p2423
(dp2424
g11
(lp2425
sg13
S'android.graphics.Region$Op'
p2426
sg15
(lp2427
sg17
(lp2428
sg19
(lp2429
sg21
I0
sbasg29
(lp2430
g2377
ag2384
ag2391
ag2398
ag2405
ag2412
ag2419
ag2426
asg21
I0
sg31
S'1368'
p2431
sba(iArchitecture
Cluster
p2432
(dp2433
g7
(lp2434
(iArchitecture
Entity
p2435
(dp2436
g11
(lp2437
sg13
S'android.graphics.PorterDuffXfermode'
p2438
sg15
(lp2439
sg17
(lp2440
sg19
(lp2441
sg21
I0
sba(iArchitecture
Entity
p2442
(dp2443
g11
(lp2444
sg13
S'android.graphics.drawable.shapes.ArcShape'
p2445
sg15
(lp2446
sg17
(lp2447
sg19
(lp2448
sg21
I0
sba(iArchitecture
Entity
p2449
(dp2450
g11
(lp2451
sg13
S'android.graphics.drawable.shapes.OvalShape'
p2452
sg15
(lp2453
sg17
(lp2454
sg19
(lp2455
sg21
I0
sba(iArchitecture
Entity
p2456
(dp2457
g11
(lp2458
sg13
S'android.graphics.drawable.shapes.RectShape'
p2459
sg15
(lp2460
sg17
(lp2461
sg19
(lp2462
sg21
I0
sbasg29
(lp2463
g2438
ag2445
ag2452
ag2459
asg21
I0
sg31
S'1382'
p2464
sba(iArchitecture
Cluster
p2465
(dp2466
g7
(lp2467
(iArchitecture
Entity
p2468
(dp2469
g11
(lp2470
sg13
S'android.graphics.AvoidXfermode'
p2471
sg15
(lp2472
sg17
(lp2473
sg19
(lp2474
sg21
I0
sba(iArchitecture
Entity
p2475
(dp2476
g11
(lp2477
sg13
S'android.graphics.AvoidXfermode$Mode'
p2478
sg15
(lp2479
sg17
(lp2480
sg19
(lp2481
sg21
I0
sba(iArchitecture
Entity
p2482
(dp2483
g11
(lp2484
sg13
S'android.graphics.BlurMaskFilter'
p2485
sg15
(lp2486
sg17
(lp2487
sg19
(lp2488
sg21
I0
sba(iArchitecture
Entity
p2489
(dp2490
g11
(lp2491
sg13
S'android.graphics.BlurMaskFilter$Blur'
p2492
sg15
(lp2493
sg17
(lp2494
sg19
(lp2495
sg21
I0
sba(iArchitecture
Entity
p2496
(dp2497
g11
(lp2498
sg13
S'android.graphics.PathDashPathEffect'
p2499
sg15
(lp2500
sg17
(lp2501
sg19
(lp2502
sg21
I0
sba(iArchitecture
Entity
p2503
(dp2504
g11
(lp2505
sg13
S'android.graphics.PathDashPathEffect$Style'
p2506
sg15
(lp2507
sg17
(lp2508
sg19
(lp2509
sg21
I0
sba(iArchitecture
Entity
p2510
(dp2511
g11
(lp2512
sg13
S'android.graphics.TableMaskFilter'
p2513
sg15
(lp2514
sg17
(lp2515
sg19
(lp2516
sg21
I0
sba(iArchitecture
Entity
p2517
(dp2518
g11
(lp2519
sg13
S'android.graphics.drawable.PictureDrawable'
p2520
sg15
(lp2521
sg17
(lp2522
sg19
(lp2523
sg21
I0
sbasg29
(lp2524
g2471
ag2478
ag2485
ag2492
ag2499
ag2506
ag2513
ag2520
asg21
I0
sg31
S'1384'
p2525
sba(iArchitecture
Cluster
p2526
(dp2527
g7
(lp2528
(iArchitecture
Entity
p2529
(dp2530
g11
(lp2531
sg13
S'android.graphics.drawable.DrawableContainer'
p2532
sg15
(lp2533
sg17
(lp2534
sg19
(lp2535
sg21
I0
sba(iArchitecture
Entity
p2536
(dp2537
g11
(lp2538
sg13
S'android.graphics.drawable.DrawableContainer$1'
p2539
sg15
(lp2540
sg17
(lp2541
sg19
(lp2542
sg21
I0
sba(iArchitecture
Entity
p2543
(dp2544
g11
(lp2545
sg13
S'android.graphics.drawable.DrawableContainer$BlockInvalidateCallback'
p2546
sg15
(lp2547
sg17
(lp2548
sg19
(lp2549
sg21
I0
sba(iArchitecture
Entity
p2550
(dp2551
g11
(lp2552
sg13
S'android.graphics.drawable.DrawableContainer$DrawableContainerState'
p2553
sg15
(lp2554
sg17
(lp2555
sg19
(lp2556
sg21
I0
sba(iArchitecture
Entity
p2557
(dp2558
g11
(lp2559
sg13
S'android.graphics.drawable.DrawableWrapper'
p2560
sg15
(lp2561
sg17
(lp2562
sg19
(lp2563
sg21
I0
sba(iArchitecture
Entity
p2564
(dp2565
g11
(lp2566
sg13
S'android.graphics.drawable.DrawableWrapper$DrawableWrapperState'
p2567
sg15
(lp2568
sg17
(lp2569
sg19
(lp2570
sg21
I0
sba(iArchitecture
Entity
p2571
(dp2572
g11
(lp2573
sg13
S'android.graphics.drawable.NinePatchDrawable'
p2574
sg15
(lp2575
sg17
(lp2576
sg19
(lp2577
sg21
I0
sba(iArchitecture
Entity
p2578
(dp2579
g11
(lp2580
sg13
S'android.graphics.drawable.NinePatchDrawable$NinePatchState'
p2581
sg15
(lp2582
sg17
(lp2583
sg19
(lp2584
sg21
I0
sbasg29
(lp2585
g2532
ag2539
ag2546
ag2553
ag2560
ag2567
ag2574
ag2581
asg21
I0
sg31
S'1388'
p2586
sba(iArchitecture
Cluster
p2587
(dp2588
g7
(lp2589
(iArchitecture
Entity
p2590
(dp2591
g11
(lp2592
sg13
S'android.graphics.drawable.AnimatedRotateDrawable'
p2593
sg15
(lp2594
sg17
(lp2595
sg19
(lp2596
sg21
I0
sba(iArchitecture
Entity
p2597
(dp2598
g11
(lp2599
sg13
S'android.graphics.drawable.AnimatedRotateDrawable$1'
p2600
sg15
(lp2601
sg17
(lp2602
sg19
(lp2603
sg21
I0
sba(iArchitecture
Entity
p2604
(dp2605
g11
(lp2606
sg13
S'android.graphics.drawable.AnimatedRotateDrawable$AnimatedRotateState'
p2607
sg15
(lp2608
sg17
(lp2609
sg19
(lp2610
sg21
I0
sba(iArchitecture
Entity
p2611
(dp2612
g11
(lp2613
sg13
S'android.graphics.drawable.DrawableInflater'
p2614
sg15
(lp2615
sg17
(lp2616
sg19
(lp2617
sg21
I0
sbasg29
(lp2618
g2593
ag2600
ag2607
ag2614
asg21
I0
sg31
S'1398'
p2619
sba(iArchitecture
Cluster
p2620
(dp2621
g7
(lp2622
(iArchitecture
Entity
p2623
(dp2624
g11
(lp2625
sg13
S'android.graphics.drawable.AnimatedVectorDrawable'
p2626
sg15
(lp2627
sg17
(lp2628
sg19
(lp2629
sg21
I0
sba(iArchitecture
Entity
p2630
(dp2631
g11
(lp2632
sg13
S'android.graphics.drawable.AnimatedVectorDrawable$1'
p2633
sg15
(lp2634
sg17
(lp2635
sg19
(lp2636
sg21
I0
sba(iArchitecture
Entity
p2637
(dp2638
g11
(lp2639
sg13
S'android.graphics.drawable.AnimatedVectorDrawable$2'
p2640
sg15
(lp2641
sg17
(lp2642
sg19
(lp2643
sg21
I0
sba(iArchitecture
Entity
p2644
(dp2645
g11
(lp2646
sg13
S'android.graphics.drawable.AnimatedVectorDrawable$AnimatedVectorDrawableState'
p2647
sg15
(lp2648
sg17
(lp2649
sg19
(lp2650
sg21
I0
sba(iArchitecture
Entity
p2651
(dp2652
g11
(lp2653
sg13
S'android.graphics.drawable.AnimatedVectorDrawable$AnimatedVectorDrawableState$PendingAnimator'
p2654
sg15
(lp2655
sg17
(lp2656
sg19
(lp2657
sg21
I0
sba(iArchitecture
Entity
p2658
(dp2659
g11
(lp2660
sg13
S'android.graphics.drawable.AnimatedVectorDrawable$VectorDrawableAnimator'
p2661
sg15
(lp2662
sg17
(lp2663
sg19
(lp2664
sg21
I0
sba(iArchitecture
Entity
p2665
(dp2666
g11
(lp2667
sg13
S'android.graphics.drawable.AnimatedVectorDrawable$VectorDrawableAnimatorRT'
p2668
sg15
(lp2669
sg17
(lp2670
sg19
(lp2671
sg21
I0
sba(iArchitecture
Entity
p2672
(dp2673
g11
(lp2674
sg13
S'android.graphics.drawable.AnimatedVectorDrawable$VectorDrawableAnimatorUI'
p2675
sg15
(lp2676
sg17
(lp2677
sg19
(lp2678
sg21
I0
sba(iArchitecture
Entity
p2679
(dp2680
g11
(lp2681
sg13
S'android.graphics.drawable.Drawable'
p2682
sg15
(lp2683
sg17
(lp2684
sg19
(lp2685
sg21
I0
sba(iArchitecture
Entity
p2686
(dp2687
g11
(lp2688
sg13
S'android.graphics.drawable.Drawable$Callback'
p2689
sg15
(lp2690
sg17
(lp2691
sg19
(lp2692
sg21
I0
sba(iArchitecture
Entity
p2693
(dp2694
g11
(lp2695
sg13
S'android.graphics.drawable.Drawable$ConstantState'
p2696
sg15
(lp2697
sg17
(lp2698
sg19
(lp2699
sg21
I0
sba(iArchitecture
Entity
p2700
(dp2701
g11
(lp2702
sg13
S'android.graphics.pdf.PdfEditor'
p2703
sg15
(lp2704
sg17
(lp2705
sg19
(lp2706
sg21
I0
sba(iArchitecture
Entity
p2707
(dp2708
g11
(lp2709
sg13
S'android.graphics.pdf.PdfRenderer'
p2710
sg15
(lp2711
sg17
(lp2712
sg19
(lp2713
sg21
I0
sba(iArchitecture
Entity
p2714
(dp2715
g11
(lp2716
sg13
S'android.graphics.pdf.PdfRenderer$Page'
p2717
sg15
(lp2718
sg17
(lp2719
sg19
(lp2720
sg21
I0
sbasg29
(lp2721
g2626
ag2633
ag2640
ag2647
ag2654
ag2661
ag2668
ag2675
ag2682
ag2689
ag2696
ag2703
ag2710
ag2717
asg21
I0
sg31
S'1401'
p2722
sba(iArchitecture
Cluster
p2723
(dp2724
g7
(lp2725
(iArchitecture
Entity
p2726
(dp2727
g11
(lp2728
sg13
S'android.graphics.ImageFormat'
p2729
sg15
(lp2730
sg17
(lp2731
sg19
(lp2732
sg21
I0
sbasg29
(lp2733
g2729
asg21
I0
sg31
S'1406'
p2734
sba(iArchitecture
Cluster
p2735
(dp2736
g7
(lp2737
(iArchitecture
Entity
p2738
(dp2739
g11
(lp2740
sg13
S'android.graphics.BitmapShader'
p2741
sg15
(lp2742
sg17
(lp2743
sg19
(lp2744
sg21
I0
sbasg29
(lp2745
g2741
asg21
I0
sg31
S'142'
p2746
sba(iArchitecture
Cluster
p2747
(dp2748
g7
(lp2749
(iArchitecture
Entity
p2750
(dp2751
g11
(lp2752
sg13
S'android.graphics.Insets'
p2753
sg15
(lp2754
sg17
(lp2755
sg19
(lp2756
sg21
I0
sbasg29
(lp2757
g2753
asg21
I0
sg31
S'145'
p2758
sba(iArchitecture
Cluster
p2759
(dp2760
g7
(lp2761
(iArchitecture
Entity
p2762
(dp2763
g11
(lp2764
sg13
S'android.graphics.drawable.PaintDrawable'
p2765
sg15
(lp2766
sg17
(lp2767
sg19
(lp2768
sg21
I0
sbasg29
(lp2769
g2765
asg21
I0
sg31
S'159'
p2770
sba(iArchitecture
Cluster
p2771
(dp2772
g7
(lp2773
(iArchitecture
Entity
p2774
(dp2775
g11
(lp2776
sg13
S'android.graphics.PorterDuffColorFilter'
p2777
sg15
(lp2778
sg17
(lp2779
sg19
(lp2780
sg21
I0
sbasg29
(lp2781
g2777
asg21
I0
sg31
S'168'
p2782
sba(iArchitecture
Cluster
p2783
(dp2784
g7
(lp2785
(iArchitecture
Entity
p2786
(dp2787
g11
(lp2788
sg13
S'android.graphics.YuvImage'
p2789
sg15
(lp2790
sg17
(lp2791
sg19
(lp2792
sg21
I0
sbasg29
(lp2793
g2789
asg21
I0
sg31
S'221'
p2794
sba(iArchitecture
Cluster
p2795
(dp2796
g7
(lp2797
(iArchitecture
Entity
p2798
(dp2799
g11
(lp2800
sg13
S'android.graphics.RadialGradient'
p2801
sg15
(lp2802
sg17
(lp2803
sg19
(lp2804
sg21
I0
sbasg29
(lp2805
g2801
asg21
I0
sg31
S'29'
p2806
sba(iArchitecture
Cluster
p2807
(dp2808
g7
(lp2809
(iArchitecture
Entity
p2810
(dp2811
g11
(lp2812
sg13
S'android.graphics.drawable.shapes.RoundRectShape'
p2813
sg15
(lp2814
sg17
(lp2815
sg19
(lp2816
sg21
I0
sbasg29
(lp2817
g2813
asg21
I0
sg31
S'299'
p2818
sba(iArchitecture
Cluster
p2819
(dp2820
g7
(lp2821
(iArchitecture
Entity
p2822
(dp2823
g11
(lp2824
sg13
S'android.graphics.FontFamily'
p2825
sg15
(lp2826
sg17
(lp2827
sg19
(lp2828
sg21
I0
sbasg29
(lp2829
g2825
asg21
I0
sg31
S'31'
p2830
sba(iArchitecture
Cluster
p2831
(dp2832
g7
(lp2833
(iArchitecture
Entity
p2834
(dp2835
g11
(lp2836
sg13
S'android.graphics.EmbossMaskFilter'
p2837
sg15
(lp2838
sg17
(lp2839
sg19
(lp2840
sg21
I0
sbasg29
(lp2841
g2837
asg21
I0
sg31
S'311'
p2842
sba(iArchitecture
Cluster
p2843
(dp2844
g7
(lp2845
(iArchitecture
Entity
p2846
(dp2847
g11
(lp2848
sg13
S'android.graphics.ComposeShader'
p2849
sg15
(lp2850
sg17
(lp2851
sg19
(lp2852
sg21
I0
sbasg29
(lp2853
g2849
asg21
I0
sg31
S'327'
p2854
sba(iArchitecture
Cluster
p2855
(dp2856
g7
(lp2857
(iArchitecture
Entity
p2858
(dp2859
g11
(lp2860
sg13
S'android.graphics.LightingColorFilter'
p2861
sg15
(lp2862
sg17
(lp2863
sg19
(lp2864
sg21
I0
sbasg29
(lp2865
g2861
asg21
I0
sg31
S'344'
p2866
sba(iArchitecture
Cluster
p2867
(dp2868
g7
(lp2869
(iArchitecture
Entity
p2870
(dp2871
g11
(lp2872
sg13
S'android.graphics.Camera'
p2873
sg15
(lp2874
sg17
(lp2875
sg19
(lp2876
sg21
I0
sbasg29
(lp2877
g2873
asg21
I0
sg31
S'350'
p2878
sba(iArchitecture
Cluster
p2879
(dp2880
g7
(lp2881
(iArchitecture
Entity
p2882
(dp2883
g11
(lp2884
sg13
S'android.graphics.LargeBitmap'
p2885
sg15
(lp2886
sg17
(lp2887
sg19
(lp2888
sg21
I0
sbasg29
(lp2889
g2885
asg21
I0
sg31
S'351'
p2890
sba(iArchitecture
Cluster
p2891
(dp2892
g7
(lp2893
(iArchitecture
Entity
p2894
(dp2895
g11
(lp2896
sg13
S'android.graphics.Outline'
p2897
sg15
(lp2898
sg17
(lp2899
sg19
(lp2900
sg21
I0
sbasg29
(lp2901
g2897
asg21
I0
sg31
S'400'
p2902
sba(iArchitecture
Cluster
p2903
(dp2904
g7
(lp2905
(iArchitecture
Entity
p2906
(dp2907
g11
(lp2908
sg13
S'android.graphics.Typeface'
p2909
sg15
(lp2910
sg17
(lp2911
sg19
(lp2912
sg21
I0
sbasg29
(lp2913
g2909
asg21
I0
sg31
S'409'
p2914
sba(iArchitecture
Cluster
p2915
(dp2916
g7
(lp2917
(iArchitecture
Entity
p2918
(dp2919
g11
(lp2920
sg13
S'android.graphics.Color'
p2921
sg15
(lp2922
sg17
(lp2923
sg19
(lp2924
sg21
I0
sbasg29
(lp2925
g2921
asg21
I0
sg31
S'447'
p2926
sba(iArchitecture
Cluster
p2927
(dp2928
g7
(lp2929
(iArchitecture
Entity
p2930
(dp2931
g11
(lp2932
sg13
S'android.graphics.PixelFormat'
p2933
sg15
(lp2934
sg17
(lp2935
sg19
(lp2936
sg21
I0
sbasg29
(lp2937
g2933
asg21
I0
sg31
S'450'
p2938
sba(iArchitecture
Cluster
p2939
(dp2940
g7
(lp2941
(iArchitecture
Entity
p2942
(dp2943
g11
(lp2944
sg13
S'android.graphics.PaintFlagsDrawFilter'
p2945
sg15
(lp2946
sg17
(lp2947
sg19
(lp2948
sg21
I0
sbasg29
(lp2949
g2945
asg21
I0
sg31
S'485'
p2950
sba(iArchitecture
Cluster
p2951
(dp2952
g7
(lp2953
(iArchitecture
Entity
p2954
(dp2955
g11
(lp2956
sg13
S'android.graphics.Picture'
p2957
sg15
(lp2958
sg17
(lp2959
sg19
(lp2960
sg21
I0
sba(iArchitecture
Entity
p2961
(dp2962
g11
(lp2963
sg13
S'android.graphics.Picture$RecordingCanvas'
p2964
sg15
(lp2965
sg17
(lp2966
sg19
(lp2967
sg21
I0
sbasg29
(lp2968
g2957
ag2964
asg21
I0
sg31
S'501'
p2969
sba(iArchitecture
Cluster
p2970
(dp2971
g7
(lp2972
(iArchitecture
Entity
p2973
(dp2974
g11
(lp2975
sg13
S'android.graphics.ColorMatrixColorFilter'
p2976
sg15
(lp2977
sg17
(lp2978
sg19
(lp2979
sg21
I0
sbasg29
(lp2980
g2976
asg21
I0
sg31
S'52'
p2981
sba(iArchitecture
Cluster
p2982
(dp2983
g7
(lp2984
(iArchitecture
Entity
p2985
(dp2986
g11
(lp2987
sg13
S'android.graphics.drawable.RippleDrawable'
p2988
sg15
(lp2989
sg17
(lp2990
sg19
(lp2991
sg21
I0
sba(iArchitecture
Entity
p2992
(dp2993
g11
(lp2994
sg13
S'android.graphics.drawable.RippleDrawable$RippleState'
p2995
sg15
(lp2996
sg17
(lp2997
sg19
(lp2998
sg21
I0
sbasg29
(lp2999
g2988
ag2995
asg21
I0
sg31
S'550'
p3000
sba(iArchitecture
Cluster
p3001
(dp3002
g7
(lp3003
(iArchitecture
Entity
p3004
(dp3005
g11
(lp3006
sg13
S'android.graphics.drawable.RotateDrawable'
p3007
sg15
(lp3008
sg17
(lp3009
sg19
(lp3010
sg21
I0
sba(iArchitecture
Entity
p3011
(dp3012
g11
(lp3013
sg13
S'android.graphics.drawable.RotateDrawable$RotateState'
p3014
sg15
(lp3015
sg17
(lp3016
sg19
(lp3017
sg21
I0
sbasg29
(lp3018
g3007
ag3014
asg21
I0
sg31
S'555'
p3019
sba(iArchitecture
Cluster
p3020
(dp3021
g7
(lp3022
(iArchitecture
Entity
p3023
(dp3024
g11
(lp3025
sg13
S'android.graphics.drawable.BitmapDrawable'
p3026
sg15
(lp3027
sg17
(lp3028
sg19
(lp3029
sg21
I0
sba(iArchitecture
Entity
p3030
(dp3031
g11
(lp3032
sg13
S'android.graphics.drawable.BitmapDrawable$BitmapState'
p3033
sg15
(lp3034
sg17
(lp3035
sg19
(lp3036
sg21
I0
sbasg29
(lp3037
g3026
ag3033
asg21
I0
sg31
S'557'
p3038
sba(iArchitecture
Cluster
p3039
(dp3040
g7
(lp3041
(iArchitecture
Entity
p3042
(dp3043
g11
(lp3044
sg13
S'android.graphics.drawable.InsetDrawable'
p3045
sg15
(lp3046
sg17
(lp3047
sg19
(lp3048
sg21
I0
sba(iArchitecture
Entity
p3049
(dp3050
g11
(lp3051
sg13
S'android.graphics.drawable.InsetDrawable$InsetState'
p3052
sg15
(lp3053
sg17
(lp3054
sg19
(lp3055
sg21
I0
sbasg29
(lp3056
g3045
ag3052
asg21
I0
sg31
S'609'
p3057
sba(iArchitecture
Cluster
p3058
(dp3059
g7
(lp3060
(iArchitecture
Entity
p3061
(dp3062
g11
(lp3063
sg13
S'android.graphics.PorterDuff'
p3064
sg15
(lp3065
sg17
(lp3066
sg19
(lp3067
sg21
I0
sba(iArchitecture
Entity
p3068
(dp3069
g11
(lp3070
sg13
S'android.graphics.PorterDuff$Mode'
p3071
sg15
(lp3072
sg17
(lp3073
sg19
(lp3074
sg21
I0
sbasg29
(lp3075
g3064
ag3071
asg21
I0
sg31
S'617'
p3076
sba(iArchitecture
Cluster
p3077
(dp3078
g7
(lp3079
(iArchitecture
Entity
p3080
(dp3081
g11
(lp3082
sg13
S'android.graphics.drawable.ColorDrawable'
p3083
sg15
(lp3084
sg17
(lp3085
sg19
(lp3086
sg21
I0
sba(iArchitecture
Entity
p3087
(dp3088
g11
(lp3089
sg13
S'android.graphics.drawable.ColorDrawable$ColorState'
p3090
sg15
(lp3091
sg17
(lp3092
sg19
(lp3093
sg21
I0
sbasg29
(lp3094
g3083
ag3090
asg21
I0
sg31
S'641'
p3095
sba(iArchitecture
Cluster
p3096
(dp3097
g7
(lp3098
(iArchitecture
Entity
p3099
(dp3100
g11
(lp3101
sg13
S'android.graphics.BitmapFactory'
p3102
sg15
(lp3103
sg17
(lp3104
sg19
(lp3105
sg21
I0
sba(iArchitecture
Entity
p3106
(dp3107
g11
(lp3108
sg13
S'android.graphics.BitmapFactory$Options'
p3109
sg15
(lp3110
sg17
(lp3111
sg19
(lp3112
sg21
I0
sbasg29
(lp3113
g3102
ag3109
asg21
I0
sg31
S'743'
p3114
sba(iArchitecture
Cluster
p3115
(dp3116
g7
(lp3117
(iArchitecture
Entity
p3118
(dp3119
g11
(lp3120
sg13
S'android.graphics.NinePatch'
p3121
sg15
(lp3122
sg17
(lp3123
sg19
(lp3124
sg21
I0
sba(iArchitecture
Entity
p3125
(dp3126
g11
(lp3127
sg13
S'android.graphics.NinePatch$InsetStruct'
p3128
sg15
(lp3129
sg17
(lp3130
sg19
(lp3131
sg21
I0
sbasg29
(lp3132
g3121
ag3128
asg21
I0
sg31
S'760'
p3133
sba(iArchitecture
Cluster
p3134
(dp3135
g7
(lp3136
(iArchitecture
Entity
p3137
(dp3138
g11
(lp3139
sg13
S'android.graphics.drawable.TransitionDrawable'
p3140
sg15
(lp3141
sg17
(lp3142
sg19
(lp3143
sg21
I0
sba(iArchitecture
Entity
p3144
(dp3145
g11
(lp3146
sg13
S'android.graphics.drawable.TransitionDrawable$TransitionState'
p3147
sg15
(lp3148
sg17
(lp3149
sg19
(lp3150
sg21
I0
sbasg29
(lp3151
g3140
ag3147
asg21
I0
sg31
S'804'
p3152
sba(iArchitecture
Cluster
p3153
(dp3154
g7
(lp3155
(iArchitecture
Entity
p3156
(dp3157
g11
(lp3158
sg13
S'android.graphics.drawable.RippleComponent'
p3159
sg15
(lp3160
sg17
(lp3161
sg19
(lp3162
sg21
I0
sba(iArchitecture
Entity
p3163
(dp3164
g11
(lp3165
sg13
S'android.graphics.drawable.RippleComponent$RenderNodeAnimatorSet'
p3166
sg15
(lp3167
sg17
(lp3168
sg19
(lp3169
sg21
I0
sbasg29
(lp3170
g3159
ag3166
asg21
I0
sg31
S'810'
p3171
sba(iArchitecture
Cluster
p3172
(dp3173
g7
(lp3174
(iArchitecture
Entity
p3175
(dp3176
g11
(lp3177
sg13
S'android.graphics.BitmapRegionDecoder'
p3178
sg15
(lp3179
sg17
(lp3180
sg19
(lp3181
sg21
I0
sbasg29
(lp3182
g3178
asg21
I0
sg31
S'82'
p3183
sba(iArchitecture
Cluster
p3184
(dp3185
g7
(lp3186
(iArchitecture
Entity
p3187
(dp3188
g11
(lp3189
sg13
S'android.graphics.Interpolator'
p3190
sg15
(lp3191
sg17
(lp3192
sg19
(lp3193
sg21
I0
sba(iArchitecture
Entity
p3194
(dp3195
g11
(lp3196
sg13
S'android.graphics.Interpolator$Result'
p3197
sg15
(lp3198
sg17
(lp3199
sg19
(lp3200
sg21
I0
sbasg29
(lp3201
g3190
ag3197
asg21
I0
sg31
S'833'
p3202
sba(iArchitecture
Cluster
p3203
(dp3204
g7
(lp3205
(iArchitecture
Entity
p3206
(dp3207
g11
(lp3208
sg13
S'android.graphics.Movie'
p3209
sg15
(lp3210
sg17
(lp3211
sg19
(lp3212
sg21
I0
sbasg29
(lp3213
g3209
asg21
I0
sg31
S'84'
p3214
sba(iArchitecture
Cluster
p3215
(dp3216
g7
(lp3217
(iArchitecture
Entity
p3218
(dp3219
g11
(lp3220
sg13
S'android.graphics.drawable.GradientDrawable'
p3221
sg15
(lp3222
sg17
(lp3223
sg19
(lp3224
sg21
I0
sba(iArchitecture
Entity
p3225
(dp3226
g11
(lp3227
sg13
S'android.graphics.drawable.GradientDrawable$GradientState'
p3228
sg15
(lp3229
sg17
(lp3230
sg19
(lp3231
sg21
I0
sba(iArchitecture
Entity
p3232
(dp3233
g11
(lp3234
sg13
S'android.graphics.drawable.GradientDrawable$Orientation'
p3235
sg15
(lp3236
sg17
(lp3237
sg19
(lp3238
sg21
I0
sbasg29
(lp3239
g3221
ag3228
ag3235
asg21
I0
sg31
S'854'
p3240
sba(iArchitecture
Cluster
p3241
(dp3242
g7
(lp3243
(iArchitecture
Entity
p3244
(dp3245
g11
(lp3246
sg13
S'android.graphics.Matrix'
p3247
sg15
(lp3248
sg17
(lp3249
sg19
(lp3250
sg21
I0
sba(iArchitecture
Entity
p3251
(dp3252
g11
(lp3253
sg13
S'android.graphics.Matrix$1'
p3254
sg15
(lp3255
sg17
(lp3256
sg19
(lp3257
sg21
I0
sba(iArchitecture
Entity
p3258
(dp3259
g11
(lp3260
sg13
S'android.graphics.Matrix$ScaleToFit'
p3261
sg15
(lp3262
sg17
(lp3263
sg19
(lp3264
sg21
I0
sbasg29
(lp3265
g3247
ag3254
ag3261
asg21
I0
sg31
S'856'
p3266
sba(iArchitecture
Cluster
p3267
(dp3268
g7
(lp3269
(iArchitecture
Entity
p3270
(dp3271
g11
(lp3272
sg13
S'android.graphics.drawable.LayerDrawable'
p3273
sg15
(lp3274
sg17
(lp3275
sg19
(lp3276
sg21
I0
sba(iArchitecture
Entity
p3277
(dp3278
g11
(lp3279
sg13
S'android.graphics.drawable.LayerDrawable$ChildDrawable'
p3280
sg15
(lp3281
sg17
(lp3282
sg19
(lp3283
sg21
I0
sba(iArchitecture
Entity
p3284
(dp3285
g11
(lp3286
sg13
S'android.graphics.drawable.LayerDrawable$LayerState'
p3287
sg15
(lp3288
sg17
(lp3289
sg19
(lp3290
sg21
I0
sbasg29
(lp3291
g3273
ag3280
ag3287
asg21
I0
sg31
S'858'
p3292
sba(iArchitecture
Cluster
p3293
(dp3294
g7
(lp3295
(iArchitecture
Entity
p3296
(dp3297
g11
(lp3298
sg13
S'android.graphics.drawable.ShapeDrawable'
p3299
sg15
(lp3300
sg17
(lp3301
sg19
(lp3302
sg21
I0
sba(iArchitecture
Entity
p3303
(dp3304
g11
(lp3305
sg13
S'android.graphics.drawable.ShapeDrawable$ShaderFactory'
p3306
sg15
(lp3307
sg17
(lp3308
sg19
(lp3309
sg21
I0
sba(iArchitecture
Entity
p3310
(dp3311
g11
(lp3312
sg13
S'android.graphics.drawable.ShapeDrawable$ShapeState'
p3313
sg15
(lp3314
sg17
(lp3315
sg19
(lp3316
sg21
I0
sbasg29
(lp3317
g3299
ag3306
ag3313
asg21
I0
sg31
S'863'
p3318
sba(iArchitecture
Cluster
p3319
(dp3320
g7
(lp3321
(iArchitecture
Entity
p3322
(dp3323
g11
(lp3324
sg13
S'android.graphics.Canvas'
p3325
sg15
(lp3326
sg17
(lp3327
sg19
(lp3328
sg21
I0
sba(iArchitecture
Entity
p3329
(dp3330
g11
(lp3331
sg13
S'android.graphics.Canvas$EdgeType'
p3332
sg15
(lp3333
sg17
(lp3334
sg19
(lp3335
sg21
I0
sba(iArchitecture
Entity
p3336
(dp3337
g11
(lp3338
sg13
S'android.graphics.Canvas$NoImagePreloadHolder'
p3339
sg15
(lp3340
sg17
(lp3341
sg19
(lp3342
sg21
I0
sba(iArchitecture
Entity
p3343
(dp3344
g11
(lp3345
sg13
S'android.graphics.Canvas$VertexMode'
p3346
sg15
(lp3347
sg17
(lp3348
sg19
(lp3349
sg21
I0
sbasg29
(lp3350
g3325
ag3332
ag3339
ag3346
asg21
I0
sg31
S'947'
p3351
sba(iArchitecture
Cluster
p3352
(dp3353
g7
(lp3354
(iArchitecture
Entity
p3355
(dp3356
g11
(lp3357
sg13
S'android.graphics.Path'
p3358
sg15
(lp3359
sg17
(lp3360
sg19
(lp3361
sg21
I0
sba(iArchitecture
Entity
p3362
(dp3363
g11
(lp3364
sg13
S'android.graphics.Path$Direction'
p3365
sg15
(lp3366
sg17
(lp3367
sg19
(lp3368
sg21
I0
sba(iArchitecture
Entity
p3369
(dp3370
g11
(lp3371
sg13
S'android.graphics.Path$FillType'
p3372
sg15
(lp3373
sg17
(lp3374
sg19
(lp3375
sg21
I0
sba(iArchitecture
Entity
p3376
(dp3377
g11
(lp3378
sg13
S'android.graphics.Path$Op'
p3379
sg15
(lp3380
sg17
(lp3381
sg19
(lp3382
sg21
I0
sbasg29
(lp3383
g3358
ag3365
ag3372
ag3379
asg21
I0
sg31
S'957'
p3384
sba(iArchitecture
Cluster
p3385
(dp3386
g7
(lp3387
(iArchitecture
Entity
p3388
(dp3389
g11
(lp3390
sg13
S'android.graphics.drawable.RippleBackground'
p3391
sg15
(lp3392
sg17
(lp3393
sg19
(lp3394
sg21
I0
sba(iArchitecture
Entity
p3395
(dp3396
g11
(lp3397
sg13
S'android.graphics.drawable.RippleBackground$1'
p3398
sg15
(lp3399
sg17
(lp3400
sg19
(lp3401
sg21
I0
sba(iArchitecture
Entity
p3402
(dp3403
g11
(lp3404
sg13
S'android.graphics.drawable.RippleBackground$BackgroundProperty'
p3405
sg15
(lp3406
sg17
(lp3407
sg19
(lp3408
sg21
I0
sbasg29
(lp3409
g3391
ag3398
ag3405
asg21
I0
sg31
S'959'
p3410
sba(iArchitecture
Cluster
p3411
(dp3412
g7
(lp3413
(iArchitecture
Entity
p3414
(dp3415
g11
(lp3416
sg13
S'android.graphics.Bitmap'
p3417
sg15
(lp3418
sg17
(lp3419
sg19
(lp3420
sg21
I0
sba(iArchitecture
Entity
p3421
(dp3422
g11
(lp3423
sg13
S'android.graphics.Bitmap$1'
p3424
sg15
(lp3425
sg17
(lp3426
sg19
(lp3427
sg21
I0
sba(iArchitecture
Entity
p3428
(dp3429
g11
(lp3430
sg13
S'android.graphics.Bitmap$CompressFormat'
p3431
sg15
(lp3432
sg17
(lp3433
sg19
(lp3434
sg21
I0
sba(iArchitecture
Entity
p3435
(dp3436
g11
(lp3437
sg13
S'android.graphics.Bitmap$Config'
p3438
sg15
(lp3439
sg17
(lp3440
sg19
(lp3441
sg21
I0
sbasg29
(lp3442
g3417
ag3424
ag3431
ag3438
asg21
I0
sg31
S'967'
p3443
sbasg1703
g1704
sg29
(lp3444
sg1706
I00
sg31
S'7.0.0_r1'
p3445
sba.