(lp0
(iArchitecture
Architecture
p1
(dp2
S'clusters'
p3
(lp4
(iArchitecture
Cluster
p5
(dp6
S'entities'
p7
(lp8
(iArchitecture
Entity
p9
(dp10
S'issue_ids'
p11
(lp12
sS'name'
p13
S'com.android.server.fingerprint.FingerprintService'
p14
sS'descs'
p15
(lp16
sS'labels'
p17
(lp18
sS'titles'
p19
(lp20
sS'change'
p21
I0
sba(iArchitecture
Entity
p22
(dp23
g11
(lp24
sg13
S'com.android.server.fingerprint.FingerprintService$1'
p25
sg15
(lp26
sg17
(lp27
sg19
(lp28
sg21
I0
sba(iArchitecture
Entity
p29
(dp30
g11
(lp31
sg13
S'com.android.server.fingerprint.FingerprintService$2'
p32
sg15
(lp33
sg17
(lp34
sg19
(lp35
sg21
I0
sba(iArchitecture
Entity
p36
(dp37
g11
(lp38
sg13
S'com.android.server.fingerprint.FingerprintService$3'
p39
sg15
(lp40
sg17
(lp41
sg19
(lp42
sg21
I0
sba(iArchitecture
Entity
p43
(dp44
g11
(lp45
sg13
S'com.android.server.fingerprint.FingerprintService$4'
p46
sg15
(lp47
sg17
(lp48
sg19
(lp49
sg21
I0
sba(iArchitecture
Entity
p50
(dp51
g11
(lp52
sg13
S'com.android.server.fingerprint.FingerprintService$ClientMonitor'
p53
sg15
(lp54
sg17
(lp55
sg19
(lp56
sg21
I0
sba(iArchitecture
Entity
p57
(dp58
g11
(lp59
sg13
S'com.android.server.fingerprint.FingerprintService$FingerprintServiceWrapper'
p60
sg15
(lp61
sg17
(lp62
sg19
(lp63
sg21
I0
sba(iArchitecture
Entity
p64
(dp65
g11
(lp66
sg13
S'com.android.server.fingerprint.FingerprintService$FingerprintServiceWrapper$1'
p67
sg15
(lp68
sg17
(lp69
sg19
(lp70
sg21
I0
sba(iArchitecture
Entity
p71
(dp72
g11
(lp73
sg13
S'com.android.server.fingerprint.FingerprintService$FingerprintServiceWrapper$2'
p74
sg15
(lp75
sg17
(lp76
sg19
(lp77
sg21
I0
sba(iArchitecture
Entity
p78
(dp79
g11
(lp80
sg13
S'com.android.server.fingerprint.FingerprintService$FingerprintServiceWrapper$3'
p81
sg15
(lp82
sg17
(lp83
sg19
(lp84
sg21
I0
sba(iArchitecture
Entity
p85
(dp86
g11
(lp87
sg13
S'com.android.server.fingerprint.FingerprintService$FingerprintServiceWrapper$4'
p88
sg15
(lp89
sg17
(lp90
sg19
(lp91
sg21
I0
sba(iArchitecture
Entity
p92
(dp93
g11
(lp94
sg13
S'com.android.server.fingerprint.FingerprintService$FingerprintServiceWrapper$5'
p95
sg15
(lp96
sg17
(lp97
sg19
(lp98
sg21
I0
sba(iArchitecture
Entity
p99
(dp100
g11
(lp101
sg13
S'com.android.server.fingerprint.FingerprintService$FingerprintServiceWrapper$6'
p102
sg15
(lp103
sg17
(lp104
sg19
(lp105
sg21
I0
sbasS'classes'
p106
(lp107
g14
ag25
ag32
ag39
ag46
ag53
ag60
ag67
ag74
ag81
ag88
ag95
ag102
asg21
I0
sS'label'
p108
S'1077'
p109
sba(iArchitecture
Cluster
p110
(dp111
g7
(lp112
(iArchitecture
Entity
p113
(dp114
g11
(lp115
sg13
S'android.telephony.DataConnectionRealTimeInfo'
p116
sg15
(lp117
sg17
(lp118
sg19
(lp119
sg21
I0
sba(iArchitecture
Entity
p120
(dp121
g11
(lp122
sg13
S'android.telephony.DataConnectionRealTimeInfo$1'
p123
sg15
(lp124
sg17
(lp125
sg19
(lp126
sg21
I0
sba(iArchitecture
Entity
p127
(dp128
g11
(lp129
sg13
S'com.android.internal.net.LegacyVpnInfo'
p130
sg15
(lp131
sg17
(lp132
sg19
(lp133
sg21
I0
sba(iArchitecture
Entity
p134
(dp135
g11
(lp136
sg13
S'com.android.internal.net.LegacyVpnInfo$1'
p137
sg15
(lp138
sg17
(lp139
sg19
(lp140
sg21
I0
sba(iArchitecture
Entity
p141
(dp142
g11
(lp143
sg13
S'com.android.server.am.BackupRecord'
p144
sg15
(lp145
sg17
(lp146
sg19
(lp147
sg21
I0
sbasg106
(lp148
g116
ag123
ag130
ag137
ag144
asg21
I0
sg108
S'1177'
p149
sba(iArchitecture
Cluster
p150
(dp151
g7
(lp152
(iArchitecture
Entity
p153
(dp154
g11
(lp155
sg13
S'android.app.admin.DeviceAdminReceiver'
p156
sg15
(lp157
sg17
(lp158
sg19
(lp159
sg21
I0
sbasg106
(lp160
g156
asg21
I0
sg108
S'177'
p161
sba(iArchitecture
Cluster
p162
(dp163
g7
(lp164
(iArchitecture
Entity
p165
(dp166
g11
(lp167
sg13
S'android.hardware.camera2.legacy.LegacyRequest'
p168
sg15
(lp169
sg17
(lp170
sg19
(lp171
sg21
I0
sbasg106
(lp172
g168
asg21
I0
sg108
S'277'
p173
sba(iArchitecture
Cluster
p174
(dp175
g7
(lp176
(iArchitecture
Entity
p177
(dp178
g11
(lp179
sg13
S'android.mtp.MtpDevice'
p180
sg15
(lp181
sg17
(lp182
sg19
(lp183
sg21
I0
sbasg106
(lp184
g180
asg21
I0
sg108
S'377'
p185
sba(iArchitecture
Cluster
p186
(dp187
g7
(lp188
(iArchitecture
Entity
p189
(dp190
g11
(lp191
sg13
S'android.hardware.camera2.marshal.impl.MarshalQueryableArray'
p192
sg15
(lp193
sg17
(lp194
sg19
(lp195
sg21
I0
sba(iArchitecture
Entity
p196
(dp197
g11
(lp198
sg13
S'android.hardware.camera2.marshal.impl.MarshalQueryableArray$MarshalerArray'
p199
sg15
(lp200
sg17
(lp201
sg19
(lp202
sg21
I0
sbasg106
(lp203
g192
ag199
asg21
I0
sg108
S'477'
p204
sba(iArchitecture
Cluster
p205
(dp206
g7
(lp207
(iArchitecture
Entity
p208
(dp209
g11
(lp210
sg13
S'com.android.server.wm.WindowStateAnimator'
p211
sg15
(lp212
sg17
(lp213
sg19
(lp214
sg21
I0
sba(iArchitecture
Entity
p215
(dp216
g11
(lp217
sg13
S'com.android.server.wm.WindowStateAnimator$SurfaceTrace'
p218
sg15
(lp219
sg17
(lp220
sg19
(lp221
sg21
I0
sbasg106
(lp222
g211
ag218
asg21
I0
sg108
S'577'
p223
sba(iArchitecture
Cluster
p224
(dp225
g7
(lp226
(iArchitecture
Entity
p227
(dp228
g11
(lp229
sg13
S'com.android.internal.os.TransferPipe'
p230
sg15
(lp231
sg17
(lp232
sg19
(lp233
sg21
I0
sba(iArchitecture
Entity
p234
(dp235
g11
(lp236
sg13
S'com.android.internal.os.TransferPipe$Caller'
p237
sg15
(lp238
sg17
(lp239
sg19
(lp240
sg21
I0
sbasg106
(lp241
g230
ag237
asg21
I0
sg108
S'677'
p242
sba(iArchitecture
Cluster
p243
(dp244
g7
(lp245
(iArchitecture
Entity
p246
(dp247
g11
(lp248
sg13
S'com.android.server.ConsumerIrService'
p249
sg15
(lp250
sg17
(lp251
sg19
(lp252
sg21
I0
sbasg106
(lp253
g249
asg21
I0
sg108
S'77'
p254
sba(iArchitecture
Cluster
p255
(dp256
g7
(lp257
(iArchitecture
Entity
p258
(dp259
g11
(lp260
sg13
S'com.android.internal.os.ProcessCpuTracker'
p261
sg15
(lp262
sg17
(lp263
sg19
(lp264
sg21
I0
sba(iArchitecture
Entity
p265
(dp266
g11
(lp267
sg13
S'com.android.internal.os.ProcessCpuTracker$1'
p268
sg15
(lp269
sg17
(lp270
sg19
(lp271
sg21
I0
sba(iArchitecture
Entity
p272
(dp273
g11
(lp274
sg13
S'com.android.internal.os.ProcessCpuTracker$Stats'
p275
sg15
(lp276
sg17
(lp277
sg19
(lp278
sg21
I0
sbasg106
(lp279
g261
ag268
ag275
asg21
I0
sg108
S'770'
p280
sba(iArchitecture
Cluster
p281
(dp282
g7
(lp283
(iArchitecture
Entity
p284
(dp285
g11
(lp286
sg13
S'android.inputmethodservice.IInputMethodWrapper'
p287
sg15
(lp288
sg17
(lp289
sg19
(lp290
sg21
I0
sba(iArchitecture
Entity
p291
(dp292
g11
(lp293
sg13
S'android.inputmethodservice.IInputMethodWrapper$InputMethodSessionCallbackWrapper'
p294
sg15
(lp295
sg17
(lp296
sg19
(lp297
sg21
I0
sba(iArchitecture
Entity
p298
(dp299
g11
(lp300
sg13
S'android.inputmethodservice.IInputMethodWrapper$Notifier'
p301
sg15
(lp302
sg17
(lp303
sg19
(lp304
sg21
I0
sbasg106
(lp305
g287
ag294
ag301
asg21
I0
sg108
S'771'
p306
sba(iArchitecture
Cluster
p307
(dp308
g7
(lp309
(iArchitecture
Entity
p310
(dp311
g11
(lp312
sg13
S'android.app.Application'
p313
sg15
(lp314
sg17
(lp315
sg19
(lp316
sg21
I0
sba(iArchitecture
Entity
p317
(dp318
g11
(lp319
sg13
S'android.app.Application$ActivityLifecycleCallbacks'
p320
sg15
(lp321
sg17
(lp322
sg19
(lp323
sg21
I0
sba(iArchitecture
Entity
p324
(dp325
g11
(lp326
sg13
S'android.app.Application$OnProvideAssistDataListener'
p327
sg15
(lp328
sg17
(lp329
sg19
(lp330
sg21
I0
sbasg106
(lp331
g313
ag320
ag327
asg21
I0
sg108
S'772'
p332
sba(iArchitecture
Cluster
p333
(dp334
g7
(lp335
(iArchitecture
Entity
p336
(dp337
g11
(lp338
sg13
S'android.database.ContentObserver'
p339
sg15
(lp340
sg17
(lp341
sg19
(lp342
sg21
I0
sba(iArchitecture
Entity
p343
(dp344
g11
(lp345
sg13
S'android.database.ContentObserver$NotificationRunnable'
p346
sg15
(lp347
sg17
(lp348
sg19
(lp349
sg21
I0
sba(iArchitecture
Entity
p350
(dp351
g11
(lp352
sg13
S'android.database.ContentObserver$Transport'
p353
sg15
(lp354
sg17
(lp355
sg19
(lp356
sg21
I0
sbasg106
(lp357
g339
ag346
ag353
asg21
I0
sg108
S'773'
p358
sba(iArchitecture
Cluster
p359
(dp360
g7
(lp361
(iArchitecture
Entity
p362
(dp363
g11
(lp364
sg13
S'android.content.res.ColorStateList'
p365
sg15
(lp366
sg17
(lp367
sg19
(lp368
sg21
I0
sba(iArchitecture
Entity
p369
(dp370
g11
(lp371
sg13
S'android.content.res.ColorStateList$1'
p372
sg15
(lp373
sg17
(lp374
sg19
(lp375
sg21
I0
sba(iArchitecture
Entity
p376
(dp377
g11
(lp378
sg13
S'android.content.res.ColorStateList$ColorStateListFactory'
p379
sg15
(lp380
sg17
(lp381
sg19
(lp382
sg21
I0
sbasg106
(lp383
g365
ag372
ag379
asg21
I0
sg108
S'774'
p384
sba(iArchitecture
Cluster
p385
(dp386
g7
(lp387
(iArchitecture
Entity
p388
(dp389
g11
(lp390
sg13
S'android.widget.SpellChecker'
p391
sg15
(lp392
sg17
(lp393
sg19
(lp394
sg21
I0
sba(iArchitecture
Entity
p395
(dp396
g11
(lp397
sg13
S'android.widget.SpellChecker$1'
p398
sg15
(lp399
sg17
(lp400
sg19
(lp401
sg21
I0
sba(iArchitecture
Entity
p402
(dp403
g11
(lp404
sg13
S'android.widget.SpellChecker$SpellParser'
p405
sg15
(lp406
sg17
(lp407
sg19
(lp408
sg21
I0
sbasg106
(lp409
g391
ag398
ag405
asg21
I0
sg108
S'775'
p410
sba(iArchitecture
Cluster
p411
(dp412
g7
(lp413
(iArchitecture
Entity
p414
(dp415
g11
(lp416
sg13
S'android.media.tv.TvInputHardwareInfo'
p417
sg15
(lp418
sg17
(lp419
sg19
(lp420
sg21
I0
sba(iArchitecture
Entity
p421
(dp422
g11
(lp423
sg13
S'android.media.tv.TvInputHardwareInfo$1'
p424
sg15
(lp425
sg17
(lp426
sg19
(lp427
sg21
I0
sba(iArchitecture
Entity
p428
(dp429
g11
(lp430
sg13
S'android.media.tv.TvInputHardwareInfo$Builder'
p431
sg15
(lp432
sg17
(lp433
sg19
(lp434
sg21
I0
sbasg106
(lp435
g417
ag424
ag431
asg21
I0
sg108
S'776'
p436
sba(iArchitecture
Cluster
p437
(dp438
g7
(lp439
(iArchitecture
Entity
p440
(dp441
g11
(lp442
sg13
S'com.android.server.location.LocationBasedCountryDetector'
p443
sg15
(lp444
sg17
(lp445
sg19
(lp446
sg21
I0
sba(iArchitecture
Entity
p447
(dp448
g11
(lp449
sg13
S'com.android.server.location.LocationBasedCountryDetector$1'
p450
sg15
(lp451
sg17
(lp452
sg19
(lp453
sg21
I0
sba(iArchitecture
Entity
p454
(dp455
g11
(lp456
sg13
S'com.android.server.location.LocationBasedCountryDetector$2'
p457
sg15
(lp458
sg17
(lp459
sg19
(lp460
sg21
I0
sba(iArchitecture
Entity
p461
(dp462
g11
(lp463
sg13
S'com.android.server.location.LocationBasedCountryDetector$3'
p464
sg15
(lp465
sg17
(lp466
sg19
(lp467
sg21
I0
sbasg106
(lp468
g443
ag450
ag457
ag464
asg21
I0
sg108
S'777'
p469
sba(iArchitecture
Cluster
p470
(dp471
g7
(lp472
(iArchitecture
Entity
p473
(dp474
g11
(lp475
sg13
S'android.widget.Chronometer'
p476
sg15
(lp477
sg17
(lp478
sg19
(lp479
sg21
I0
sba(iArchitecture
Entity
p480
(dp481
g11
(lp482
sg13
S'android.widget.Chronometer$1'
p483
sg15
(lp484
sg17
(lp485
sg19
(lp486
sg21
I0
sba(iArchitecture
Entity
p487
(dp488
g11
(lp489
sg13
S'android.widget.Chronometer$OnChronometerTickListener'
p490
sg15
(lp491
sg17
(lp492
sg19
(lp493
sg21
I0
sbasg106
(lp494
g476
ag483
ag490
asg21
I0
sg108
S'778'
p495
sba(iArchitecture
Cluster
p496
(dp497
g7
(lp498
(iArchitecture
Entity
p499
(dp500
g11
(lp501
sg13
S'android.os.CommonTimeConfig'
p502
sg15
(lp503
sg17
(lp504
sg19
(lp505
sg21
I0
sba(iArchitecture
Entity
p506
(dp507
g11
(lp508
sg13
S'android.os.CommonTimeConfig$1'
p509
sg15
(lp510
sg17
(lp511
sg19
(lp512
sg21
I0
sba(iArchitecture
Entity
p513
(dp514
g11
(lp515
sg13
S'android.os.CommonTimeConfig$OnServerDiedListener'
p516
sg15
(lp517
sg17
(lp518
sg19
(lp519
sg21
I0
sbasg106
(lp520
g502
ag509
ag516
asg21
I0
sg108
S'779'
p521
sba(iArchitecture
Cluster
p522
(dp523
g7
(lp524
(iArchitecture
Entity
p525
(dp526
g11
(lp527
sg13
S'android.hardware.display.DisplayManagerInternal'
p528
sg15
(lp529
sg17
(lp530
sg19
(lp531
sg21
I0
sba(iArchitecture
Entity
p532
(dp533
g11
(lp534
sg13
S'android.hardware.display.DisplayManagerInternal$DisplayPowerCallbacks'
p535
sg15
(lp536
sg17
(lp537
sg19
(lp538
sg21
I0
sba(iArchitecture
Entity
p539
(dp540
g11
(lp541
sg13
S'android.hardware.display.DisplayManagerInternal$DisplayPowerRequest'
p542
sg15
(lp543
sg17
(lp544
sg19
(lp545
sg21
I0
sba(iArchitecture
Entity
p546
(dp547
g11
(lp548
sg13
S'android.hardware.display.DisplayManagerInternal$DisplayTransactionListener'
p549
sg15
(lp550
sg17
(lp551
sg19
(lp552
sg21
I0
sbasg106
(lp553
g528
ag535
ag542
ag549
asg21
I0
sg108
S'877'
p554
sba(iArchitecture
Cluster
p555
(dp556
g7
(lp557
(iArchitecture
Entity
p558
(dp559
g11
(lp560
sg13
S'com.android.server.firewall.IntentFirewall'
p561
sg15
(lp562
sg17
(lp563
sg19
(lp564
sg21
I0
sba(iArchitecture
Entity
p565
(dp566
g11
(lp567
sg13
S'com.android.server.firewall.IntentFirewall$AMSInterface'
p568
sg15
(lp569
sg17
(lp570
sg19
(lp571
sg21
I0
sba(iArchitecture
Entity
p572
(dp573
g11
(lp574
sg13
S'com.android.server.firewall.IntentFirewall$FirewallHandler'
p575
sg15
(lp576
sg17
(lp577
sg19
(lp578
sg21
I0
sba(iArchitecture
Entity
p579
(dp580
g11
(lp581
sg13
S'com.android.server.firewall.IntentFirewall$FirewallIntentFilter'
p582
sg15
(lp583
sg17
(lp584
sg19
(lp585
sg21
I0
sba(iArchitecture
Entity
p586
(dp587
g11
(lp588
sg13
S'com.android.server.firewall.IntentFirewall$FirewallIntentResolver'
p589
sg15
(lp590
sg17
(lp591
sg19
(lp592
sg21
I0
sba(iArchitecture
Entity
p593
(dp594
g11
(lp595
sg13
S'com.android.server.firewall.IntentFirewall$Rule'
p596
sg15
(lp597
sg17
(lp598
sg19
(lp599
sg21
I0
sba(iArchitecture
Entity
p600
(dp601
g11
(lp602
sg13
S'com.android.server.firewall.IntentFirewall$RuleObserver'
p603
sg15
(lp604
sg17
(lp605
sg19
(lp606
sg21
I0
sbasg106
(lp607
g561
ag568
ag575
ag582
ag589
ag596
ag603
asg21
I0
sg108
S'977'
p608
sbasS'target_sub'
p609
S'77'
p610
sg106
(lp611
sS'is_component_arch'
p612
I01
sg108
S'6.0.0_r1'
p613
sba.