(lp0
(iArchitecture
Architecture
p1
(dp2
S'clusters'
p3
(lp4
(iArchitecture
Cluster
p5
(dp6
S'entities'
p7
(lp8
(iArchitecture
Entity
p9
(dp10
S'issue_ids'
p11
(lp12
sS'name'
p13
S'com.android.server.VibratorService'
p14
sS'descs'
p15
(lp16
sS'labels'
p17
(lp18
sS'titles'
p19
(lp20
sS'change'
p21
I0
sba(iArchitecture
Entity
p22
(dp23
g11
(lp24
sg13
S'com.android.server.VibratorService$1'
p25
sg15
(lp26
sg17
(lp27
sg19
(lp28
sg21
I0
sba(iArchitecture
Entity
p29
(dp30
g11
(lp31
sg13
S'com.android.server.VibratorService$2'
p32
sg15
(lp33
sg17
(lp34
sg19
(lp35
sg21
I0
sba(iArchitecture
Entity
p36
(dp37
g11
(lp38
sg13
S'com.android.server.VibratorService$3'
p39
sg15
(lp40
sg17
(lp41
sg19
(lp42
sg21
I0
sba(iArchitecture
Entity
p43
(dp44
g11
(lp45
sg13
S'com.android.server.VibratorService$4'
p46
sg15
(lp47
sg17
(lp48
sg19
(lp49
sg21
I0
sba(iArchitecture
Entity
p50
(dp51
g11
(lp52
sg13
S'com.android.server.VibratorService$SettingsObserver'
p53
sg15
(lp54
sg17
(lp55
sg19
(lp56
sg21
I0
sba(iArchitecture
Entity
p57
(dp58
g11
(lp59
sg13
S'com.android.server.VibratorService$VibrateThread'
p60
sg15
(lp61
sg17
(lp62
sg19
(lp63
sg21
I0
sba(iArchitecture
Entity
p64
(dp65
g11
(lp66
sg13
S'com.android.server.VibratorService$Vibration'
p67
sg15
(lp68
sg17
(lp69
sg19
(lp70
sg21
I0
sba(iArchitecture
Entity
p71
(dp72
g11
(lp73
sg13
S'com.android.server.VibratorService$VibrationInfo'
p74
sg15
(lp75
sg17
(lp76
sg19
(lp77
sg21
I0
sbasS'classes'
p78
(lp79
g14
ag25
ag32
ag39
ag46
ag53
ag60
ag67
ag74
asg21
I0
sS'label'
p80
S'1064'
p81
sba(iArchitecture
Cluster
p82
(dp83
g7
(lp84
(iArchitecture
Entity
p85
(dp86
g11
(lp87
sg13
S'android.database.sqlite.SQLiteDatabaseConfiguration'
p88
sg15
(lp89
sg17
(lp90
sg19
(lp91
sg21
I0
sba(iArchitecture
Entity
p92
(dp93
g11
(lp94
sg13
S'android.speech.tts.Voice'
p95
sg15
(lp96
sg17
(lp97
sg19
(lp98
sg21
I0
sba(iArchitecture
Entity
p99
(dp100
g11
(lp101
sg13
S'android.speech.tts.Voice$1'
p102
sg15
(lp103
sg17
(lp104
sg19
(lp105
sg21
I0
sbasg78
(lp106
g88
ag95
ag102
asg21
I0
sg80
S'1164'
p107
sba(iArchitecture
Cluster
p108
(dp109
g7
(lp110
(iArchitecture
Entity
p111
(dp112
g11
(lp113
sg13
S'android.filterfw.FilterFunctionEnvironment'
p114
sg15
(lp115
sg17
(lp116
sg19
(lp117
sg21
I0
sba(iArchitecture
Entity
p118
(dp119
g11
(lp120
sg13
S'android.filterfw.core.FieldPort'
p121
sg15
(lp122
sg17
(lp123
sg19
(lp124
sg21
I0
sba(iArchitecture
Entity
p125
(dp126
g11
(lp127
sg13
S'android.filterfw.core.FilterFunction'
p128
sg15
(lp129
sg17
(lp130
sg19
(lp131
sg21
I0
sba(iArchitecture
Entity
p132
(dp133
g11
(lp134
sg13
S'android.filterfw.core.FilterFunction$FrameHolderPort'
p135
sg15
(lp136
sg17
(lp137
sg19
(lp138
sg21
I0
sba(iArchitecture
Entity
p139
(dp140
g11
(lp141
sg13
S'android.filterfw.core.FilterPort'
p142
sg15
(lp143
sg17
(lp144
sg19
(lp145
sg21
I0
sba(iArchitecture
Entity
p146
(dp147
g11
(lp148
sg13
S'android.filterfw.core.FrameManager'
p149
sg15
(lp150
sg17
(lp151
sg19
(lp152
sg21
I0
sba(iArchitecture
Entity
p153
(dp154
g11
(lp155
sg13
S'android.filterfw.core.SimpleFrameManager'
p156
sg15
(lp157
sg17
(lp158
sg19
(lp159
sg21
I0
sba(iArchitecture
Entity
p160
(dp161
g11
(lp162
sg13
S'android.filterfw.core.StreamPort'
p163
sg15
(lp164
sg17
(lp165
sg19
(lp166
sg21
I0
sba(iArchitecture
Entity
p167
(dp168
g11
(lp169
sg13
S'android.filterpacks.base.CallbackFilter'
p170
sg15
(lp171
sg17
(lp172
sg19
(lp173
sg21
I0
sba(iArchitecture
Entity
p174
(dp175
g11
(lp176
sg13
S'android.filterpacks.base.CallbackFilter$CallbackRunnable'
p177
sg15
(lp178
sg17
(lp179
sg19
(lp180
sg21
I0
sba(iArchitecture
Entity
p181
(dp182
g11
(lp183
sg13
S'android.filterpacks.base.FrameFetch'
p184
sg15
(lp185
sg17
(lp186
sg19
(lp187
sg21
I0
sba(iArchitecture
Entity
p188
(dp189
g11
(lp190
sg13
S'android.filterpacks.base.FrameSource'
p191
sg15
(lp192
sg17
(lp193
sg19
(lp194
sg21
I0
sba(iArchitecture
Entity
p195
(dp196
g11
(lp197
sg13
S'android.filterpacks.base.GLTextureSource'
p198
sg15
(lp199
sg17
(lp200
sg19
(lp201
sg21
I0
sba(iArchitecture
Entity
p202
(dp203
g11
(lp204
sg13
S'android.filterpacks.base.GLTextureTarget'
p205
sg15
(lp206
sg17
(lp207
sg19
(lp208
sg21
I0
sba(iArchitecture
Entity
p209
(dp210
g11
(lp211
sg13
S'android.filterpacks.base.ObjectSource'
p212
sg15
(lp213
sg17
(lp214
sg19
(lp215
sg21
I0
sba(iArchitecture
Entity
p216
(dp217
g11
(lp218
sg13
S'android.filterpacks.base.RetargetFilter'
p219
sg15
(lp220
sg17
(lp221
sg19
(lp222
sg21
I0
sba(iArchitecture
Entity
p223
(dp224
g11
(lp225
sg13
S'android.filterpacks.imageproc.BitmapOverlayFilter'
p226
sg15
(lp227
sg17
(lp228
sg19
(lp229
sg21
I0
sba(iArchitecture
Entity
p230
(dp231
g11
(lp232
sg13
S'android.filterpacks.imageproc.BitmapSource'
p233
sg15
(lp234
sg17
(lp235
sg19
(lp236
sg21
I0
sba(iArchitecture
Entity
p237
(dp238
g11
(lp239
sg13
S'android.filterpacks.imageproc.BlackWhiteFilter'
p240
sg15
(lp241
sg17
(lp242
sg19
(lp243
sg21
I0
sba(iArchitecture
Entity
p244
(dp245
g11
(lp246
sg13
S'android.filterpacks.imageproc.ColorTemperatureFilter'
p247
sg15
(lp248
sg17
(lp249
sg19
(lp250
sg21
I0
sba(iArchitecture
Entity
p251
(dp252
g11
(lp253
sg13
S'android.filterpacks.imageproc.CropFilter'
p254
sg15
(lp255
sg17
(lp256
sg19
(lp257
sg21
I0
sba(iArchitecture
Entity
p258
(dp259
g11
(lp260
sg13
S'android.filterpacks.imageproc.CropRectFilter'
p261
sg15
(lp262
sg17
(lp263
sg19
(lp264
sg21
I0
sba(iArchitecture
Entity
p265
(dp266
g11
(lp267
sg13
S'android.filterpacks.imageproc.CrossProcessFilter'
p268
sg15
(lp269
sg17
(lp270
sg19
(lp271
sg21
I0
sba(iArchitecture
Entity
p272
(dp273
g11
(lp274
sg13
S'android.filterpacks.imageproc.DocumentaryFilter'
p275
sg15
(lp276
sg17
(lp277
sg19
(lp278
sg21
I0
sba(iArchitecture
Entity
p279
(dp280
g11
(lp281
sg13
S'android.filterpacks.imageproc.DrawOverlayFilter'
p282
sg15
(lp283
sg17
(lp284
sg19
(lp285
sg21
I0
sba(iArchitecture
Entity
p286
(dp287
g11
(lp288
sg13
S'android.filterpacks.imageproc.DrawRectFilter'
p289
sg15
(lp290
sg17
(lp291
sg19
(lp292
sg21
I0
sba(iArchitecture
Entity
p293
(dp294
g11
(lp295
sg13
S'android.filterpacks.imageproc.DuotoneFilter'
p296
sg15
(lp297
sg17
(lp298
sg19
(lp299
sg21
I0
sba(iArchitecture
Entity
p300
(dp301
g11
(lp302
sg13
S'android.filterpacks.imageproc.FillLightFilter'
p303
sg15
(lp304
sg17
(lp305
sg19
(lp306
sg21
I0
sba(iArchitecture
Entity
p307
(dp308
g11
(lp309
sg13
S'android.filterpacks.imageproc.FisheyeFilter'
p310
sg15
(lp311
sg17
(lp312
sg19
(lp313
sg21
I0
sba(iArchitecture
Entity
p314
(dp315
g11
(lp316
sg13
S'android.filterpacks.imageproc.FixedRotationFilter'
p317
sg15
(lp318
sg17
(lp319
sg19
(lp320
sg21
I0
sba(iArchitecture
Entity
p321
(dp322
g11
(lp323
sg13
S'android.filterpacks.imageproc.FlipFilter'
p324
sg15
(lp325
sg17
(lp326
sg19
(lp327
sg21
I0
sba(iArchitecture
Entity
p328
(dp329
g11
(lp330
sg13
S'android.filterpacks.imageproc.GrainFilter'
p331
sg15
(lp332
sg17
(lp333
sg19
(lp334
sg21
I0
sba(iArchitecture
Entity
p335
(dp336
g11
(lp337
sg13
S'android.filterpacks.imageproc.ImageCombineFilter'
p338
sg15
(lp339
sg17
(lp340
sg19
(lp341
sg21
I0
sba(iArchitecture
Entity
p342
(dp343
g11
(lp344
sg13
S'android.filterpacks.imageproc.ImageSlicer'
p345
sg15
(lp346
sg17
(lp347
sg19
(lp348
sg21
I0
sba(iArchitecture
Entity
p349
(dp350
g11
(lp351
sg13
S'android.filterpacks.imageproc.ImageStitcher'
p352
sg15
(lp353
sg17
(lp354
sg19
(lp355
sg21
I0
sba(iArchitecture
Entity
p356
(dp357
g11
(lp358
sg13
S'android.filterpacks.imageproc.LomoishFilter'
p359
sg15
(lp360
sg17
(lp361
sg19
(lp362
sg21
I0
sba(iArchitecture
Entity
p363
(dp364
g11
(lp365
sg13
S'android.filterpacks.imageproc.NegativeFilter'
p366
sg15
(lp367
sg17
(lp368
sg19
(lp369
sg21
I0
sba(iArchitecture
Entity
p370
(dp371
g11
(lp372
sg13
S'android.filterpacks.imageproc.PosterizeFilter'
p373
sg15
(lp374
sg17
(lp375
sg19
(lp376
sg21
I0
sba(iArchitecture
Entity
p377
(dp378
g11
(lp379
sg13
S'android.filterpacks.imageproc.RedEyeFilter'
p380
sg15
(lp381
sg17
(lp382
sg19
(lp383
sg21
I0
sba(iArchitecture
Entity
p384
(dp385
g11
(lp386
sg13
S'android.filterpacks.imageproc.ResizeFilter'
p387
sg15
(lp388
sg17
(lp389
sg19
(lp390
sg21
I0
sba(iArchitecture
Entity
p391
(dp392
g11
(lp393
sg13
S'android.filterpacks.imageproc.RotateFilter'
p394
sg15
(lp395
sg17
(lp396
sg19
(lp397
sg21
I0
sba(iArchitecture
Entity
p398
(dp399
g11
(lp400
sg13
S'android.filterpacks.imageproc.SaturateFilter'
p401
sg15
(lp402
sg17
(lp403
sg19
(lp404
sg21
I0
sba(iArchitecture
Entity
p405
(dp406
g11
(lp407
sg13
S'android.filterpacks.imageproc.SepiaFilter'
p408
sg15
(lp409
sg17
(lp410
sg19
(lp411
sg21
I0
sba(iArchitecture
Entity
p412
(dp413
g11
(lp414
sg13
S'android.filterpacks.imageproc.SharpenFilter'
p415
sg15
(lp416
sg17
(lp417
sg19
(lp418
sg21
I0
sba(iArchitecture
Entity
p419
(dp420
g11
(lp421
sg13
S'android.filterpacks.imageproc.SimpleImageFilter'
p422
sg15
(lp423
sg17
(lp424
sg19
(lp425
sg21
I0
sba(iArchitecture
Entity
p426
(dp427
g11
(lp428
sg13
S'android.filterpacks.imageproc.StraightenFilter'
p429
sg15
(lp430
sg17
(lp431
sg19
(lp432
sg21
I0
sba(iArchitecture
Entity
p433
(dp434
g11
(lp435
sg13
S'android.filterpacks.imageproc.TintFilter'
p436
sg15
(lp437
sg17
(lp438
sg19
(lp439
sg21
I0
sba(iArchitecture
Entity
p440
(dp441
g11
(lp442
sg13
S'android.filterpacks.imageproc.ToGrayFilter'
p443
sg15
(lp444
sg17
(lp445
sg19
(lp446
sg21
I0
sba(iArchitecture
Entity
p447
(dp448
g11
(lp449
sg13
S'android.filterpacks.imageproc.ToPackedGrayFilter'
p450
sg15
(lp451
sg17
(lp452
sg19
(lp453
sg21
I0
sba(iArchitecture
Entity
p454
(dp455
g11
(lp456
sg13
S'android.filterpacks.imageproc.ToRGBAFilter'
p457
sg15
(lp458
sg17
(lp459
sg19
(lp460
sg21
I0
sba(iArchitecture
Entity
p461
(dp462
g11
(lp463
sg13
S'android.filterpacks.imageproc.ToRGBFilter'
p464
sg15
(lp465
sg17
(lp466
sg19
(lp467
sg21
I0
sba(iArchitecture
Entity
p468
(dp469
g11
(lp470
sg13
S'android.filterpacks.imageproc.VignetteFilter'
p471
sg15
(lp472
sg17
(lp473
sg19
(lp474
sg21
I0
sba(iArchitecture
Entity
p475
(dp476
g11
(lp477
sg13
S'android.filterpacks.numeric.SinWaveFilter'
p478
sg15
(lp479
sg17
(lp480
sg19
(lp481
sg21
I0
sba(iArchitecture
Entity
p482
(dp483
g11
(lp484
sg13
S'android.filterpacks.performance.ThroughputFilter'
p485
sg15
(lp486
sg17
(lp487
sg19
(lp488
sg21
I0
sba(iArchitecture
Entity
p489
(dp490
g11
(lp491
sg13
S'android.filterpacks.text.StringSource'
p492
sg15
(lp493
sg17
(lp494
sg19
(lp495
sg21
I0
sba(iArchitecture
Entity
p496
(dp497
g11
(lp498
sg13
S'android.media.effect.FilterEffect'
p499
sg15
(lp500
sg17
(lp501
sg19
(lp502
sg21
I0
sba(iArchitecture
Entity
p503
(dp504
g11
(lp505
sg13
S'android.media.effect.SingleFilterEffect'
p506
sg15
(lp507
sg17
(lp508
sg19
(lp509
sg21
I0
sba(iArchitecture
Entity
p510
(dp511
g11
(lp512
sg13
S'android.media.effect.SizeChangeEffect'
p513
sg15
(lp514
sg17
(lp515
sg19
(lp516
sg21
I0
sba(iArchitecture
Entity
p517
(dp518
g11
(lp519
sg13
S'android.media.effect.effects.IdentityEffect'
p520
sg15
(lp521
sg17
(lp522
sg19
(lp523
sg21
I0
sbasg78
(lp524
g114
ag121
ag128
ag135
ag142
ag149
ag156
ag163
ag170
ag177
ag184
ag191
ag198
ag205
ag212
ag219
ag226
ag233
ag240
ag247
ag254
ag261
ag268
ag275
ag282
ag289
ag296
ag303
ag310
ag317
ag324
ag331
ag338
ag345
ag352
ag359
ag366
ag373
ag380
ag387
ag394
ag401
ag408
ag415
ag422
ag429
ag436
ag443
ag450
ag457
ag464
ag471
ag478
ag485
ag492
ag499
ag506
ag513
ag520
asg21
I0
sg80
S'1264'
p525
sba(iArchitecture
Cluster
p526
(dp527
g7
(lp528
(iArchitecture
Entity
p529
(dp530
g11
(lp531
sg13
S'com.android.server.backup.AccountSyncSettingsBackupHelper'
p532
sg15
(lp533
sg17
(lp534
sg19
(lp535
sg21
I0
sbasg78
(lp536
g532
asg21
I0
sg80
S'164'
p537
sba(iArchitecture
Cluster
p538
(dp539
g7
(lp540
(iArchitecture
Entity
p541
(dp542
g11
(lp543
sg13
S'android.text.style.ImageSpan'
p544
sg15
(lp545
sg17
(lp546
sg19
(lp547
sg21
I0
sbasg78
(lp548
g544
asg21
I0
sg80
S'264'
p549
sba(iArchitecture
Cluster
p550
(dp551
g7
(lp552
(iArchitecture
Entity
p553
(dp554
g11
(lp555
sg13
S'android.graphics.Outline'
p556
sg15
(lp557
sg17
(lp558
sg19
(lp559
sg21
I0
sbasg78
(lp560
g556
asg21
I0
sg80
S'364'
p561
sba(iArchitecture
Cluster
p562
(dp563
g7
(lp564
(iArchitecture
Entity
p565
(dp566
g11
(lp567
sg13
S'com.android.server.job.controllers.AppIdleController'
p568
sg15
(lp569
sg17
(lp570
sg19
(lp571
sg21
I0
sba(iArchitecture
Entity
p572
(dp573
g11
(lp574
sg13
S'com.android.server.job.controllers.AppIdleController$AppIdleStateChangeListener'
p575
sg15
(lp576
sg17
(lp577
sg19
(lp578
sg21
I0
sbasg78
(lp579
g568
ag575
asg21
I0
sg80
S'464'
p580
sba(iArchitecture
Cluster
p581
(dp582
g7
(lp583
(iArchitecture
Entity
p584
(dp585
g11
(lp586
sg13
S'android.graphics.drawable.ColorDrawable'
p587
sg15
(lp588
sg17
(lp589
sg19
(lp590
sg21
I0
sba(iArchitecture
Entity
p591
(dp592
g11
(lp593
sg13
S'android.graphics.drawable.ColorDrawable$ColorState'
p594
sg15
(lp595
sg17
(lp596
sg19
(lp597
sg21
I0
sbasg78
(lp598
g587
ag594
asg21
I0
sg80
S'564'
p599
sba(iArchitecture
Cluster
p600
(dp601
g7
(lp602
(iArchitecture
Entity
p603
(dp604
g11
(lp605
sg13
S'android.media.ExifInterface'
p606
sg15
(lp607
sg17
(lp608
sg19
(lp609
sg21
I0
sbasg78
(lp610
g606
asg21
I0
sg80
S'64'
p611
sba(iArchitecture
Cluster
p612
(dp613
g7
(lp614
(iArchitecture
Entity
p615
(dp616
g11
(lp617
sg13
S'android.view.textservice.SpellCheckerSubtype'
p618
sg15
(lp619
sg17
(lp620
sg19
(lp621
sg21
I0
sba(iArchitecture
Entity
p622
(dp623
g11
(lp624
sg13
S'android.view.textservice.SpellCheckerSubtype$1'
p625
sg15
(lp626
sg17
(lp627
sg19
(lp628
sg21
I0
sbasg78
(lp629
g618
ag625
asg21
I0
sg80
S'640'
p630
sba(iArchitecture
Cluster
p631
(dp632
g7
(lp633
(iArchitecture
Entity
p634
(dp635
g11
(lp636
sg13
S'android.view.PointerIcon'
p637
sg15
(lp638
sg17
(lp639
sg19
(lp640
sg21
I0
sba(iArchitecture
Entity
p641
(dp642
g11
(lp643
sg13
S'android.view.PointerIcon$1'
p644
sg15
(lp645
sg17
(lp646
sg19
(lp647
sg21
I0
sbasg78
(lp648
g637
ag644
asg21
I0
sg80
S'641'
p649
sba(iArchitecture
Cluster
p650
(dp651
g7
(lp652
(iArchitecture
Entity
p653
(dp654
g11
(lp655
sg13
S'com.android.internal.telephony.IccCardConstants'
p656
sg15
(lp657
sg17
(lp658
sg19
(lp659
sg21
I0
sba(iArchitecture
Entity
p660
(dp661
g11
(lp662
sg13
S'com.android.internal.telephony.IccCardConstants$State'
p663
sg15
(lp664
sg17
(lp665
sg19
(lp666
sg21
I0
sbasg78
(lp667
g656
ag663
asg21
I0
sg80
S'642'
p668
sba(iArchitecture
Cluster
p669
(dp670
g7
(lp671
(iArchitecture
Entity
p672
(dp673
g11
(lp674
sg13
S'com.android.internal.telephony.CellNetworkScanResult'
p675
sg15
(lp676
sg17
(lp677
sg19
(lp678
sg21
I0
sba(iArchitecture
Entity
p679
(dp680
g11
(lp681
sg13
S'com.android.internal.telephony.CellNetworkScanResult$1'
p682
sg15
(lp683
sg17
(lp684
sg19
(lp685
sg21
I0
sbasg78
(lp686
g675
ag682
asg21
I0
sg80
S'643'
p687
sba(iArchitecture
Cluster
p688
(dp689
g7
(lp690
(iArchitecture
Entity
p691
(dp692
g11
(lp693
sg13
S'android.hardware.camera2.dispatch.HandlerDispatcher'
p694
sg15
(lp695
sg17
(lp696
sg19
(lp697
sg21
I0
sba(iArchitecture
Entity
p698
(dp699
g11
(lp700
sg13
S'android.hardware.camera2.dispatch.HandlerDispatcher$1'
p701
sg15
(lp702
sg17
(lp703
sg19
(lp704
sg21
I0
sbasg78
(lp705
g694
ag701
asg21
I0
sg80
S'644'
p706
sba(iArchitecture
Cluster
p707
(dp708
g7
(lp709
(iArchitecture
Entity
p710
(dp711
g11
(lp712
sg13
S'android.hardware.camera2.marshal.impl.MarshalQueryableColorSpaceTransform'
p713
sg15
(lp714
sg17
(lp715
sg19
(lp716
sg21
I0
sba(iArchitecture
Entity
p717
(dp718
g11
(lp719
sg13
S'android.hardware.camera2.marshal.impl.MarshalQueryableColorSpaceTransform$MarshalerColorSpaceTransform'
p720
sg15
(lp721
sg17
(lp722
sg19
(lp723
sg21
I0
sbasg78
(lp724
g713
ag720
asg21
I0
sg80
S'645'
p725
sba(iArchitecture
Cluster
p726
(dp727
g7
(lp728
(iArchitecture
Entity
p729
(dp730
g11
(lp731
sg13
S'android.security.keymaster.OperationResult'
p732
sg15
(lp733
sg17
(lp734
sg19
(lp735
sg21
I0
sba(iArchitecture
Entity
p736
(dp737
g11
(lp738
sg13
S'android.security.keymaster.OperationResult$1'
p739
sg15
(lp740
sg17
(lp741
sg19
(lp742
sg21
I0
sbasg78
(lp743
g732
ag739
asg21
I0
sg80
S'646'
p744
sba(iArchitecture
Cluster
p745
(dp746
g7
(lp747
(iArchitecture
Entity
p748
(dp749
g11
(lp750
sg13
S'android.telecom.ConnectionRequest'
p751
sg15
(lp752
sg17
(lp753
sg19
(lp754
sg21
I0
sba(iArchitecture
Entity
p755
(dp756
g11
(lp757
sg13
S'android.telecom.ConnectionRequest$1'
p758
sg15
(lp759
sg17
(lp760
sg19
(lp761
sg21
I0
sbasg78
(lp762
g751
ag758
asg21
I0
sg80
S'647'
p763
sba(iArchitecture
Cluster
p764
(dp765
g7
(lp766
(iArchitecture
Entity
p767
(dp768
g11
(lp769
sg13
S'android.bluetooth.BluetoothHealthAppConfiguration'
p770
sg15
(lp771
sg17
(lp772
sg19
(lp773
sg21
I0
sba(iArchitecture
Entity
p774
(dp775
g11
(lp776
sg13
S'android.bluetooth.BluetoothHealthAppConfiguration$1'
p777
sg15
(lp778
sg17
(lp779
sg19
(lp780
sg21
I0
sbasg78
(lp781
g770
ag777
asg21
I0
sg80
S'648'
p782
sba(iArchitecture
Cluster
p783
(dp784
g7
(lp785
(iArchitecture
Entity
p786
(dp787
g11
(lp788
sg13
S'com.android.internal.alsa.AlsaCardsParser'
p789
sg15
(lp790
sg17
(lp791
sg19
(lp792
sg21
I0
sba(iArchitecture
Entity
p793
(dp794
g11
(lp795
sg13
S'com.android.internal.alsa.AlsaCardsParser$AlsaCardRecord'
p796
sg15
(lp797
sg17
(lp798
sg19
(lp799
sg21
I0
sbasg78
(lp800
g789
ag796
asg21
I0
sg80
S'649'
p801
sba(iArchitecture
Cluster
p802
(dp803
g7
(lp804
(iArchitecture
Entity
p805
(dp806
g11
(lp807
sg13
S'android.media.Rating'
p808
sg15
(lp809
sg17
(lp810
sg19
(lp811
sg21
I0
sba(iArchitecture
Entity
p812
(dp813
g11
(lp814
sg13
S'android.media.Rating$1'
p815
sg15
(lp816
sg17
(lp817
sg19
(lp818
sg21
I0
sbasg78
(lp819
g808
ag815
asg21
I0
sg80
S'664'
p820
sba(iArchitecture
Cluster
p821
(dp822
g7
(lp823
(iArchitecture
Entity
p824
(dp825
g11
(lp826
sg13
S'android.annotation.RequiresPermission'
p827
sg15
(lp828
sg17
(lp829
sg19
(lp830
sg21
I0
sba(iArchitecture
Entity
p831
(dp832
g11
(lp833
sg13
S'android.annotation.RequiresPermission$Read'
p834
sg15
(lp835
sg17
(lp836
sg19
(lp837
sg21
I0
sba(iArchitecture
Entity
p838
(dp839
g11
(lp840
sg13
S'android.annotation.RequiresPermission$Write'
p841
sg15
(lp842
sg17
(lp843
sg19
(lp844
sg21
I0
sbasg78
(lp845
g827
ag834
ag841
asg21
I0
sg80
S'764'
p846
sba(iArchitecture
Cluster
p847
(dp848
g7
(lp849
(iArchitecture
Entity
p850
(dp851
g11
(lp852
sg13
S'android.media.AudioSystem'
p853
sg15
(lp854
sg17
(lp855
sg19
(lp856
sg21
I0
sba(iArchitecture
Entity
p857
(dp858
g11
(lp859
sg13
S'android.media.AudioSystem$DynamicPolicyCallback'
p860
sg15
(lp861
sg17
(lp862
sg19
(lp863
sg21
I0
sba(iArchitecture
Entity
p864
(dp865
g11
(lp866
sg13
S'android.media.AudioSystem$ErrorCallback'
p867
sg15
(lp868
sg17
(lp869
sg19
(lp870
sg21
I0
sbasg78
(lp871
g853
ag860
ag867
asg21
I0
sg80
S'864'
p872
sba(iArchitecture
Cluster
p873
(dp874
g7
(lp875
(iArchitecture
Entity
p876
(dp877
g11
(lp878
sg13
S'android.media.RemoteDisplay'
p879
sg15
(lp880
sg17
(lp881
sg19
(lp882
sg21
I0
sba(iArchitecture
Entity
p883
(dp884
g11
(lp885
sg13
S'android.media.RemoteDisplay$1'
p886
sg15
(lp887
sg17
(lp888
sg19
(lp889
sg21
I0
sba(iArchitecture
Entity
p890
(dp891
g11
(lp892
sg13
S'android.media.RemoteDisplay$2'
p893
sg15
(lp894
sg17
(lp895
sg19
(lp896
sg21
I0
sba(iArchitecture
Entity
p897
(dp898
g11
(lp899
sg13
S'android.media.RemoteDisplay$3'
p900
sg15
(lp901
sg17
(lp902
sg19
(lp903
sg21
I0
sba(iArchitecture
Entity
p904
(dp905
g11
(lp906
sg13
S'android.media.RemoteDisplay$Listener'
p907
sg15
(lp908
sg17
(lp909
sg19
(lp910
sg21
I0
sbasg78
(lp911
g879
ag886
ag893
ag900
ag907
asg21
I0
sg80
S'964'
p912
sbasS'target_sub'
p913
S'64'
p914
sg78
(lp915
sS'is_component_arch'
p916
I01
sg80
S'6.0.0_r1'
p917
sba.