(lp0
(iArchitecture
Architecture
p1
(dp2
S'clusters'
p3
(lp4
(iArchitecture
Cluster
p5
(dp6
S'entities'
p7
(lp8
(iArchitecture
Entity
p9
(dp10
S'issue_ids'
p11
(lp12
sS'name'
p13
S'android.renderscript.ScriptIntrinsic3DLUT'
p14
sS'descs'
p15
(lp16
sS'labels'
p17
(lp18
sS'titles'
p19
(lp20
sS'change'
p21
I0
sba(iArchitecture
Entity
p22
(dp23
g11
(lp24
sg13
S'android.renderscript.ScriptIntrinsicBlur'
p25
sg15
(lp26
sg17
(lp27
sg19
(lp28
sg21
I0
sba(iArchitecture
Entity
p29
(dp30
g11
(lp31
sg13
S'android.renderscript.ScriptIntrinsicConvolve3x3'
p32
sg15
(lp33
sg17
(lp34
sg19
(lp35
sg21
I0
sba(iArchitecture
Entity
p36
(dp37
g11
(lp38
sg13
S'android.renderscript.ScriptIntrinsicConvolve5x5'
p39
sg15
(lp40
sg17
(lp41
sg19
(lp42
sg21
I0
sba(iArchitecture
Entity
p43
(dp44
g11
(lp45
sg13
S'android.renderscript.ScriptIntrinsicHistogram'
p46
sg15
(lp47
sg17
(lp48
sg19
(lp49
sg21
I0
sba(iArchitecture
Entity
p50
(dp51
g11
(lp52
sg13
S'android.renderscript.ScriptIntrinsicLUT'
p53
sg15
(lp54
sg17
(lp55
sg19
(lp56
sg21
I0
sba(iArchitecture
Entity
p57
(dp58
g11
(lp59
sg13
S'android.renderscript.ScriptIntrinsicResize'
p60
sg15
(lp61
sg17
(lp62
sg19
(lp63
sg21
I0
sba(iArchitecture
Entity
p64
(dp65
g11
(lp66
sg13
S'android.renderscript.ScriptIntrinsicYuvToRGB'
p67
sg15
(lp68
sg17
(lp69
sg19
(lp70
sg21
I0
sbasS'classes'
p71
(lp72
g14
ag25
ag32
ag39
ag46
ag53
ag60
ag67
asg21
I0
sS'label'
p73
S'1119'
p74
sba(iArchitecture
Cluster
p75
(dp76
g7
(lp77
(iArchitecture
Entity
p78
(dp79
g11
(lp80
sg13
S'android.location.GpsSatellite'
p81
sg15
(lp82
sg17
(lp83
sg19
(lp84
sg21
I0
sbasg71
(lp85
g81
asg21
I0
sg73
S'119'
p86
sba(iArchitecture
Cluster
p87
(dp88
g7
(lp89
(iArchitecture
Entity
p90
(dp91
g11
(lp92
sg13
S'android.app.backup.BackupAgent'
p93
sg15
(lp94
sg17
(lp95
sg19
(lp96
sg21
I0
sba(iArchitecture
Entity
p97
(dp98
g11
(lp99
sg13
S'android.app.backup.BackupAgent$BackupServiceBinder'
p100
sg15
(lp101
sg17
(lp102
sg19
(lp103
sg21
I0
sba(iArchitecture
Entity
p104
(dp105
g11
(lp106
sg13
S'android.app.backup.BackupAgent$FailRunnable'
p107
sg15
(lp108
sg17
(lp109
sg19
(lp110
sg21
I0
sba(iArchitecture
Entity
p111
(dp112
g11
(lp113
sg13
S'android.app.backup.BackupAgent$SharedPrefsSynchronizer'
p114
sg15
(lp115
sg17
(lp116
sg19
(lp117
sg21
I0
sba(iArchitecture
Entity
p118
(dp119
g11
(lp120
sg13
S'android.app.backup.BackupManager'
p121
sg15
(lp122
sg17
(lp123
sg19
(lp124
sg21
I0
sba(iArchitecture
Entity
p125
(dp126
g11
(lp127
sg13
S'android.app.backup.BackupTransport'
p128
sg15
(lp129
sg17
(lp130
sg19
(lp131
sg21
I0
sba(iArchitecture
Entity
p132
(dp133
g11
(lp134
sg13
S'android.app.backup.BackupTransport$TransportImpl'
p135
sg15
(lp136
sg17
(lp137
sg19
(lp138
sg21
I0
sba(iArchitecture
Entity
p139
(dp140
g11
(lp141
sg13
S'android.app.backup.FullBackup'
p142
sg15
(lp143
sg17
(lp144
sg19
(lp145
sg21
I0
sba(iArchitecture
Entity
p146
(dp147
g11
(lp148
sg13
S'android.app.backup.FullBackup$BackupScheme'
p149
sg15
(lp150
sg17
(lp151
sg19
(lp152
sg21
I0
sba(iArchitecture
Entity
p153
(dp154
g11
(lp155
sg13
S'android.app.backup.RestoreSession'
p156
sg15
(lp157
sg17
(lp158
sg19
(lp159
sg21
I0
sba(iArchitecture
Entity
p160
(dp161
g11
(lp162
sg13
S'android.app.backup.RestoreSession$RestoreObserverWrapper'
p163
sg15
(lp164
sg17
(lp165
sg19
(lp166
sg21
I0
sba(iArchitecture
Entity
p167
(dp168
g11
(lp169
sg13
S'android.app.backup.RestoreSession$RestoreObserverWrapper$1'
p170
sg15
(lp171
sg17
(lp172
sg19
(lp173
sg21
I0
sba(iArchitecture
Entity
p174
(dp175
g11
(lp176
sg13
S'android.content.pm.PackageInstaller'
p177
sg15
(lp178
sg17
(lp179
sg19
(lp180
sg21
I0
sba(iArchitecture
Entity
p181
(dp182
g11
(lp183
sg13
S'android.content.pm.PackageInstaller$Session'
p184
sg15
(lp185
sg17
(lp186
sg19
(lp187
sg21
I0
sba(iArchitecture
Entity
p188
(dp189
g11
(lp190
sg13
S'android.content.pm.PackageInstaller$SessionCallback'
p191
sg15
(lp192
sg17
(lp193
sg19
(lp194
sg21
I0
sba(iArchitecture
Entity
p195
(dp196
g11
(lp197
sg13
S'android.content.pm.PackageInstaller$SessionCallbackDelegate'
p198
sg15
(lp199
sg17
(lp200
sg19
(lp201
sg21
I0
sba(iArchitecture
Entity
p202
(dp203
g11
(lp204
sg13
S'android.content.pm.PackageInstaller$SessionInfo'
p205
sg15
(lp206
sg17
(lp207
sg19
(lp208
sg21
I0
sba(iArchitecture
Entity
p209
(dp210
g11
(lp211
sg13
S'android.content.pm.PackageInstaller$SessionInfo$1'
p212
sg15
(lp213
sg17
(lp214
sg19
(lp215
sg21
I0
sba(iArchitecture
Entity
p216
(dp217
g11
(lp218
sg13
S'android.content.pm.PackageInstaller$SessionParams'
p219
sg15
(lp220
sg17
(lp221
sg19
(lp222
sg21
I0
sba(iArchitecture
Entity
p223
(dp224
g11
(lp225
sg13
S'android.content.pm.PackageInstaller$SessionParams$1'
p226
sg15
(lp227
sg17
(lp228
sg19
(lp229
sg21
I0
sba(iArchitecture
Entity
p230
(dp231
g11
(lp232
sg13
S'android.content.pm.RegisteredServicesCache'
p233
sg15
(lp234
sg17
(lp235
sg19
(lp236
sg21
I0
sba(iArchitecture
Entity
p237
(dp238
g11
(lp239
sg13
S'android.content.pm.RegisteredServicesCache$1'
p240
sg15
(lp241
sg17
(lp242
sg19
(lp243
sg21
I0
sba(iArchitecture
Entity
p244
(dp245
g11
(lp246
sg13
S'android.content.pm.RegisteredServicesCache$2'
p247
sg15
(lp248
sg17
(lp249
sg19
(lp250
sg21
I0
sba(iArchitecture
Entity
p251
(dp252
g11
(lp253
sg13
S'android.content.pm.RegisteredServicesCache$3'
p254
sg15
(lp255
sg17
(lp256
sg19
(lp257
sg21
I0
sba(iArchitecture
Entity
p258
(dp259
g11
(lp260
sg13
S'android.content.pm.RegisteredServicesCache$4'
p261
sg15
(lp262
sg17
(lp263
sg19
(lp264
sg21
I0
sba(iArchitecture
Entity
p265
(dp266
g11
(lp267
sg13
S'android.content.pm.RegisteredServicesCache$ServiceInfo'
p268
sg15
(lp269
sg17
(lp270
sg19
(lp271
sg21
I0
sba(iArchitecture
Entity
p272
(dp273
g11
(lp274
sg13
S'android.content.pm.RegisteredServicesCache$UserServices'
p275
sg15
(lp276
sg17
(lp277
sg19
(lp278
sg21
I0
sba(iArchitecture
Entity
p279
(dp280
g11
(lp281
sg13
S'com.android.internal.backup.LocalTransport'
p282
sg15
(lp283
sg17
(lp284
sg19
(lp285
sg21
I0
sba(iArchitecture
Entity
p286
(dp287
g11
(lp288
sg13
S'com.android.internal.backup.LocalTransport$DecodedFilename'
p289
sg15
(lp290
sg17
(lp291
sg19
(lp292
sg21
I0
sba(iArchitecture
Entity
p293
(dp294
g11
(lp295
sg13
S'com.android.server.ServiceWatcher'
p296
sg15
(lp297
sg17
(lp298
sg19
(lp299
sg21
I0
sba(iArchitecture
Entity
p300
(dp301
g11
(lp302
sg13
S'com.android.server.ServiceWatcher$1'
p303
sg15
(lp304
sg17
(lp305
sg19
(lp306
sg21
I0
sba(iArchitecture
Entity
p307
(dp308
g11
(lp309
sg13
S'com.android.server.ServiceWatcher$2'
p310
sg15
(lp311
sg17
(lp312
sg19
(lp313
sg21
I0
sba(iArchitecture
Entity
p314
(dp315
g11
(lp316
sg13
S'com.android.server.connectivity.PermissionMonitor'
p317
sg15
(lp318
sg17
(lp319
sg19
(lp320
sg21
I0
sba(iArchitecture
Entity
p321
(dp322
g11
(lp323
sg13
S'com.android.server.connectivity.PermissionMonitor$1'
p324
sg15
(lp325
sg17
(lp326
sg19
(lp327
sg21
I0
sba(iArchitecture
Entity
p328
(dp329
g11
(lp330
sg13
S'com.android.server.pm.PackageInstallerService'
p331
sg15
(lp332
sg17
(lp333
sg19
(lp334
sg21
I0
sba(iArchitecture
Entity
p335
(dp336
g11
(lp337
sg13
S'com.android.server.pm.PackageInstallerService$1'
p338
sg15
(lp339
sg17
(lp340
sg19
(lp341
sg21
I0
sba(iArchitecture
Entity
p342
(dp343
g11
(lp344
sg13
S'com.android.server.pm.PackageInstallerService$2'
p345
sg15
(lp346
sg17
(lp347
sg19
(lp348
sg21
I0
sba(iArchitecture
Entity
p349
(dp350
g11
(lp351
sg13
S'com.android.server.pm.PackageInstallerService$Callbacks'
p352
sg15
(lp353
sg17
(lp354
sg19
(lp355
sg21
I0
sba(iArchitecture
Entity
p356
(dp357
g11
(lp358
sg13
S'com.android.server.pm.PackageInstallerService$InternalCallback'
p359
sg15
(lp360
sg17
(lp361
sg19
(lp362
sg21
I0
sba(iArchitecture
Entity
p363
(dp364
g11
(lp365
sg13
S'com.android.server.pm.PackageInstallerService$InternalCallback$1'
p366
sg15
(lp367
sg17
(lp368
sg19
(lp369
sg21
I0
sba(iArchitecture
Entity
p370
(dp371
g11
(lp372
sg13
S'com.android.server.pm.PackageInstallerService$PackageDeleteObserverAdapter'
p373
sg15
(lp374
sg17
(lp375
sg19
(lp376
sg21
I0
sba(iArchitecture
Entity
p377
(dp378
g11
(lp379
sg13
S'com.android.server.pm.PackageInstallerService$PackageInstallObserverAdapter'
p380
sg15
(lp381
sg17
(lp382
sg19
(lp383
sg21
I0
sba(iArchitecture
Entity
p384
(dp385
g11
(lp386
sg13
S'com.android.server.voiceinteraction.VoiceInteractionManagerServiceImpl'
p387
sg15
(lp388
sg17
(lp389
sg19
(lp390
sg21
I0
sba(iArchitecture
Entity
p391
(dp392
g11
(lp393
sg13
S'com.android.server.voiceinteraction.VoiceInteractionManagerServiceImpl$1'
p394
sg15
(lp395
sg17
(lp396
sg19
(lp397
sg21
I0
sba(iArchitecture
Entity
p398
(dp399
g11
(lp400
sg13
S'com.android.server.voiceinteraction.VoiceInteractionManagerServiceImpl$2'
p401
sg15
(lp402
sg17
(lp403
sg19
(lp404
sg21
I0
sba(iArchitecture
Entity
p405
(dp406
g11
(lp407
sg13
S'com.android.server.voiceinteraction.VoiceInteractionSessionConnection'
p408
sg15
(lp409
sg17
(lp410
sg19
(lp411
sg21
I0
sba(iArchitecture
Entity
p412
(dp413
g11
(lp414
sg13
S'com.android.server.voiceinteraction.VoiceInteractionSessionConnection$1'
p415
sg15
(lp416
sg17
(lp417
sg19
(lp418
sg21
I0
sba(iArchitecture
Entity
p419
(dp420
g11
(lp421
sg13
S'com.android.server.voiceinteraction.VoiceInteractionSessionConnection$2'
p422
sg15
(lp423
sg17
(lp424
sg19
(lp425
sg21
I0
sba(iArchitecture
Entity
p426
(dp427
g11
(lp428
sg13
S'com.android.server.voiceinteraction.VoiceInteractionSessionConnection$3'
p429
sg15
(lp430
sg17
(lp431
sg19
(lp432
sg21
I0
sba(iArchitecture
Entity
p433
(dp434
g11
(lp435
sg13
S'com.android.server.voiceinteraction.VoiceInteractionSessionConnection$4'
p436
sg15
(lp437
sg17
(lp438
sg19
(lp439
sg21
I0
sba(iArchitecture
Entity
p440
(dp441
g11
(lp442
sg13
S'com.android.server.voiceinteraction.VoiceInteractionSessionConnection$5'
p443
sg15
(lp444
sg17
(lp445
sg19
(lp446
sg21
I0
sba(iArchitecture
Entity
p447
(dp448
g11
(lp449
sg13
S'com.android.server.voiceinteraction.VoiceInteractionSessionConnection$Callback'
p450
sg15
(lp451
sg17
(lp452
sg19
(lp453
sg21
I0
sbasg71
(lp454
g93
ag100
ag107
ag114
ag121
ag128
ag135
ag142
ag149
ag156
ag163
ag170
ag177
ag184
ag191
ag198
ag205
ag212
ag219
ag226
ag233
ag240
ag247
ag254
ag261
ag268
ag275
ag282
ag289
ag296
ag303
ag310
ag317
ag324
ag331
ag338
ag345
ag352
ag359
ag366
ag373
ag380
ag387
ag394
ag401
ag408
ag415
ag422
ag429
ag436
ag443
ag450
asg21
I0
sg73
S'1190'
p455
sba(iArchitecture
Cluster
p456
(dp457
g7
(lp458
(iArchitecture
Entity
p459
(dp460
g11
(lp461
sg13
S'android.graphics.Shader'
p462
sg15
(lp463
sg17
(lp464
sg19
(lp465
sg21
I0
sba(iArchitecture
Entity
p466
(dp467
g11
(lp468
sg13
S'android.graphics.Shader$TileMode'
p469
sg15
(lp470
sg17
(lp471
sg19
(lp472
sg21
I0
sba(iArchitecture
Entity
p473
(dp474
g11
(lp475
sg13
S'com.android.internal.util.UserIcons'
p476
sg15
(lp477
sg17
(lp478
sg19
(lp479
sg21
I0
sbasg71
(lp480
g462
ag469
ag476
asg21
I0
sg73
S'1191'
p481
sba(iArchitecture
Cluster
p482
(dp483
g7
(lp484
(iArchitecture
Entity
p485
(dp486
g11
(lp487
sg13
S'android.media.audiopolicy.AudioMix'
p488
sg15
(lp489
sg17
(lp490
sg19
(lp491
sg21
I0
sba(iArchitecture
Entity
p492
(dp493
g11
(lp494
sg13
S'android.media.audiopolicy.AudioMix$Builder'
p495
sg15
(lp496
sg17
(lp497
sg19
(lp498
sg21
I0
sba(iArchitecture
Entity
p499
(dp500
g11
(lp501
sg13
S'android.media.audiopolicy.AudioPolicyConfig'
p502
sg15
(lp503
sg17
(lp504
sg19
(lp505
sg21
I0
sba(iArchitecture
Entity
p506
(dp507
g11
(lp508
sg13
S'android.media.audiopolicy.AudioPolicyConfig$1'
p509
sg15
(lp510
sg17
(lp511
sg19
(lp512
sg21
I0
sbasg71
(lp513
g488
ag495
ag502
ag509
asg21
I0
sg73
S'1192'
p514
sba(iArchitecture
Cluster
p515
(dp516
g7
(lp517
(iArchitecture
Entity
p518
(dp519
g11
(lp520
sg13
S'android.view.ContextMenu'
p521
sg15
(lp522
sg17
(lp523
sg19
(lp524
sg21
I0
sba(iArchitecture
Entity
p525
(dp526
g11
(lp527
sg13
S'android.view.ContextMenu$ContextMenuInfo'
p528
sg15
(lp529
sg17
(lp530
sg19
(lp531
sg21
I0
sba(iArchitecture
Entity
p532
(dp533
g11
(lp534
sg13
S'android.view.SubMenu'
p535
sg15
(lp536
sg17
(lp537
sg19
(lp538
sg21
I0
sba(iArchitecture
Entity
p539
(dp540
g11
(lp541
sg13
S'com.android.internal.view.menu.MenuDialogHelper'
p542
sg15
(lp543
sg17
(lp544
sg19
(lp545
sg21
I0
sba(iArchitecture
Entity
p546
(dp547
g11
(lp548
sg13
S'com.android.internal.view.menu.MenuView'
p549
sg15
(lp550
sg17
(lp551
sg19
(lp552
sg21
I0
sba(iArchitecture
Entity
p553
(dp554
g11
(lp555
sg13
S'com.android.internal.view.menu.MenuView$ItemView'
p556
sg15
(lp557
sg17
(lp558
sg19
(lp559
sg21
I0
sba(iArchitecture
Entity
p560
(dp561
g11
(lp562
sg13
S'com.android.internal.view.menu.SubMenuBuilder'
p563
sg15
(lp564
sg17
(lp565
sg19
(lp566
sg21
I0
sbasg71
(lp567
g521
ag528
ag535
ag542
ag549
ag556
ag563
asg21
I0
sg73
S'1193'
p568
sba(iArchitecture
Cluster
p569
(dp570
g7
(lp571
(iArchitecture
Entity
p572
(dp573
g11
(lp574
sg13
S'android.transition.CircularPropagation'
p575
sg15
(lp576
sg17
(lp577
sg19
(lp578
sg21
I0
sba(iArchitecture
Entity
p579
(dp580
g11
(lp581
sg13
S'android.transition.Explode'
p582
sg15
(lp583
sg17
(lp584
sg19
(lp585
sg21
I0
sba(iArchitecture
Entity
p586
(dp587
g11
(lp588
sg13
S'android.transition.SidePropagation'
p589
sg15
(lp590
sg17
(lp591
sg19
(lp592
sg21
I0
sbasg71
(lp593
g575
ag582
ag589
asg21
I0
sg73
S'1194'
p594
sba(iArchitecture
Cluster
p595
(dp596
g7
(lp597
(iArchitecture
Entity
p598
(dp599
g11
(lp600
sg13
S'android.telephony.CellIdentityGsm'
p601
sg15
(lp602
sg17
(lp603
sg19
(lp604
sg21
I0
sba(iArchitecture
Entity
p605
(dp606
g11
(lp607
sg13
S'android.telephony.CellIdentityGsm$1'
p608
sg15
(lp609
sg17
(lp610
sg19
(lp611
sg21
I0
sba(iArchitecture
Entity
p612
(dp613
g11
(lp614
sg13
S'android.telephony.CellIdentityWcdma'
p615
sg15
(lp616
sg17
(lp617
sg19
(lp618
sg21
I0
sba(iArchitecture
Entity
p619
(dp620
g11
(lp621
sg13
S'android.telephony.CellIdentityWcdma$1'
p622
sg15
(lp623
sg17
(lp624
sg19
(lp625
sg21
I0
sbasg71
(lp626
g601
ag608
ag615
ag622
asg21
I0
sg73
S'1195'
p627
sba(iArchitecture
Cluster
p628
(dp629
g7
(lp630
(iArchitecture
Entity
p631
(dp632
g11
(lp633
sg13
S'android.provider.Browser'
p634
sg15
(lp635
sg17
(lp636
sg19
(lp637
sg21
I0
sba(iArchitecture
Entity
p638
(dp639
g11
(lp640
sg13
S'android.provider.Browser$BookmarkColumns'
p641
sg15
(lp642
sg17
(lp643
sg19
(lp644
sg21
I0
sba(iArchitecture
Entity
p645
(dp646
g11
(lp647
sg13
S'android.provider.Browser$SearchColumns'
p648
sg15
(lp649
sg17
(lp650
sg19
(lp651
sg21
I0
sba(iArchitecture
Entity
p652
(dp653
g11
(lp654
sg13
S'android.provider.BrowserContract'
p655
sg15
(lp656
sg17
(lp657
sg19
(lp658
sg21
I0
sba(iArchitecture
Entity
p659
(dp660
g11
(lp661
sg13
S'android.provider.BrowserContract$Accounts'
p662
sg15
(lp663
sg17
(lp664
sg19
(lp665
sg21
I0
sba(iArchitecture
Entity
p666
(dp667
g11
(lp668
sg13
S'android.provider.BrowserContract$BaseSyncColumns'
p669
sg15
(lp670
sg17
(lp671
sg19
(lp672
sg21
I0
sba(iArchitecture
Entity
p673
(dp674
g11
(lp675
sg13
S'android.provider.BrowserContract$Bookmarks'
p676
sg15
(lp677
sg17
(lp678
sg19
(lp679
sg21
I0
sba(iArchitecture
Entity
p680
(dp681
g11
(lp682
sg13
S'android.provider.BrowserContract$ChromeSyncColumns'
p683
sg15
(lp684
sg17
(lp685
sg19
(lp686
sg21
I0
sba(iArchitecture
Entity
p687
(dp688
g11
(lp689
sg13
S'android.provider.BrowserContract$Combined'
p690
sg15
(lp691
sg17
(lp692
sg19
(lp693
sg21
I0
sba(iArchitecture
Entity
p694
(dp695
g11
(lp696
sg13
S'android.provider.BrowserContract$CommonColumns'
p697
sg15
(lp698
sg17
(lp699
sg19
(lp700
sg21
I0
sba(iArchitecture
Entity
p701
(dp702
g11
(lp703
sg13
S'android.provider.BrowserContract$History'
p704
sg15
(lp705
sg17
(lp706
sg19
(lp707
sg21
I0
sba(iArchitecture
Entity
p708
(dp709
g11
(lp710
sg13
S'android.provider.BrowserContract$HistoryColumns'
p711
sg15
(lp712
sg17
(lp713
sg19
(lp714
sg21
I0
sba(iArchitecture
Entity
p715
(dp716
g11
(lp717
sg13
S'android.provider.BrowserContract$ImageColumns'
p718
sg15
(lp719
sg17
(lp720
sg19
(lp721
sg21
I0
sba(iArchitecture
Entity
p722
(dp723
g11
(lp724
sg13
S'android.provider.BrowserContract$ImageMappingColumns'
p725
sg15
(lp726
sg17
(lp727
sg19
(lp728
sg21
I0
sba(iArchitecture
Entity
p729
(dp730
g11
(lp731
sg13
S'android.provider.BrowserContract$ImageMappings'
p732
sg15
(lp733
sg17
(lp734
sg19
(lp735
sg21
I0
sba(iArchitecture
Entity
p736
(dp737
g11
(lp738
sg13
S'android.provider.BrowserContract$Images'
p739
sg15
(lp740
sg17
(lp741
sg19
(lp742
sg21
I0
sba(iArchitecture
Entity
p743
(dp744
g11
(lp745
sg13
S'android.provider.BrowserContract$Searches'
p746
sg15
(lp747
sg17
(lp748
sg19
(lp749
sg21
I0
sba(iArchitecture
Entity
p750
(dp751
g11
(lp752
sg13
S'android.provider.BrowserContract$Settings'
p753
sg15
(lp754
sg17
(lp755
sg19
(lp756
sg21
I0
sba(iArchitecture
Entity
p757
(dp758
g11
(lp759
sg13
S'android.provider.BrowserContract$SyncColumns'
p760
sg15
(lp761
sg17
(lp762
sg19
(lp763
sg21
I0
sba(iArchitecture
Entity
p764
(dp765
g11
(lp766
sg13
S'android.provider.BrowserContract$SyncState'
p767
sg15
(lp768
sg17
(lp769
sg19
(lp770
sg21
I0
sbasg71
(lp771
g634
ag641
ag648
ag655
ag662
ag669
ag676
ag683
ag690
ag697
ag704
ag711
ag718
ag725
ag732
ag739
ag746
ag753
ag760
ag767
asg21
I0
sg73
S'1196'
p772
sba(iArchitecture
Cluster
p773
(dp774
g7
(lp775
(iArchitecture
Entity
p776
(dp777
g11
(lp778
sg13
S'android.content.res.ResourcesKey'
p779
sg15
(lp780
sg17
(lp781
sg19
(lp782
sg21
I0
sba(iArchitecture
Entity
p783
(dp784
g11
(lp785
sg13
S'android.webkit.FindActionModeCallback'
p786
sg15
(lp787
sg17
(lp788
sg19
(lp789
sg21
I0
sba(iArchitecture
Entity
p790
(dp791
g11
(lp792
sg13
S'android.webkit.FindActionModeCallback$NoAction'
p793
sg15
(lp794
sg17
(lp795
sg19
(lp796
sg21
I0
sbasg71
(lp797
g779
ag786
ag793
asg21
I0
sg73
S'1197'
p798
sba(iArchitecture
Cluster
p799
(dp800
g7
(lp801
(iArchitecture
Entity
p802
(dp803
g11
(lp804
sg13
S'android.net.wifi.p2p.WifiP2pWfdInfo'
p805
sg15
(lp806
sg17
(lp807
sg19
(lp808
sg21
I0
sba(iArchitecture
Entity
p809
(dp810
g11
(lp811
sg13
S'android.net.wifi.p2p.WifiP2pWfdInfo$1'
p812
sg15
(lp813
sg17
(lp814
sg19
(lp815
sg21
I0
sba(iArchitecture
Entity
p816
(dp817
g11
(lp818
sg13
S'android.webkit.WebViewDelegate'
p819
sg15
(lp820
sg17
(lp821
sg19
(lp822
sg21
I0
sba(iArchitecture
Entity
p823
(dp824
g11
(lp825
sg13
S'android.webkit.WebViewDelegate$1'
p826
sg15
(lp827
sg17
(lp828
sg19
(lp829
sg21
I0
sba(iArchitecture
Entity
p830
(dp831
g11
(lp832
sg13
S'android.webkit.WebViewDelegate$OnTraceEnabledChangeListener'
p833
sg15
(lp834
sg17
(lp835
sg19
(lp836
sg21
I0
sba(iArchitecture
Entity
p837
(dp838
g11
(lp839
sg13
S'com.android.server.am.CompatModeDialog'
p840
sg15
(lp841
sg17
(lp842
sg19
(lp843
sg21
I0
sba(iArchitecture
Entity
p844
(dp845
g11
(lp846
sg13
S'com.android.server.am.CompatModeDialog$1'
p847
sg15
(lp848
sg17
(lp849
sg19
(lp850
sg21
I0
sba(iArchitecture
Entity
p851
(dp852
g11
(lp853
sg13
S'com.android.server.am.CompatModeDialog$2'
p854
sg15
(lp855
sg17
(lp856
sg19
(lp857
sg21
I0
sbasg71
(lp858
g805
ag812
ag819
ag826
ag833
ag840
ag847
ag854
asg21
I0
sg73
S'1198'
p859
sba(iArchitecture
Cluster
p860
(dp861
g7
(lp862
(iArchitecture
Entity
p863
(dp864
g11
(lp865
sg13
S'android.app.trust.TrustManager'
p866
sg15
(lp867
sg17
(lp868
sg19
(lp869
sg21
I0
sba(iArchitecture
Entity
p870
(dp871
g11
(lp872
sg13
S'android.app.trust.TrustManager$1'
p873
sg15
(lp874
sg17
(lp875
sg19
(lp876
sg21
I0
sba(iArchitecture
Entity
p877
(dp878
g11
(lp879
sg13
S'android.app.trust.TrustManager$2'
p880
sg15
(lp881
sg17
(lp882
sg19
(lp883
sg21
I0
sba(iArchitecture
Entity
p884
(dp885
g11
(lp886
sg13
S'android.app.trust.TrustManager$TrustListener'
p887
sg15
(lp888
sg17
(lp889
sg19
(lp890
sg21
I0
sba(iArchitecture
Entity
p891
(dp892
g11
(lp893
sg13
S'android.app.usage.UsageStatsManagerInternal'
p894
sg15
(lp895
sg17
(lp896
sg19
(lp897
sg21
I0
sba(iArchitecture
Entity
p898
(dp899
g11
(lp900
sg13
S'android.app.usage.UsageStatsManagerInternal$AppIdleStateChangeListener'
p901
sg15
(lp902
sg17
(lp903
sg19
(lp904
sg21
I0
sbasg71
(lp905
g866
ag873
ag880
ag887
ag894
ag901
asg21
I0
sg73
S'1199'
p906
sbasS'target_sub'
p907
S'119'
p908
sg71
(lp909
sS'is_component_arch'
p910
I01
sg73
S'6.0.0_r1'
p911
sba.