(lp0
(iArchitecture
Architecture
p1
(dp2
S'clusters'
p3
(lp4
(iArchitecture
Cluster
p5
(dp6
S'entities'
p7
(lp8
(iArchitecture
Entity
p9
(dp10
S'issue_ids'
p11
(lp12
sS'name'
p13
S'com.android.server.firewall.StringFilter'
p14
sS'descs'
p15
(lp16
sS'labels'
p17
(lp18
sS'titles'
p19
(lp20
sS'change'
p21
I0
sba(iArchitecture
Entity
p22
(dp23
g11
(lp24
sg13
S'com.android.server.firewall.StringFilter$1'
p25
sg15
(lp26
sg17
(lp27
sg19
(lp28
sg21
I0
sba(iArchitecture
Entity
p29
(dp30
g11
(lp31
sg13
S'com.android.server.firewall.StringFilter$10'
p32
sg15
(lp33
sg17
(lp34
sg19
(lp35
sg21
I0
sba(iArchitecture
Entity
p36
(dp37
g11
(lp38
sg13
S'com.android.server.firewall.StringFilter$2'
p39
sg15
(lp40
sg17
(lp41
sg19
(lp42
sg21
I0
sba(iArchitecture
Entity
p43
(dp44
g11
(lp45
sg13
S'com.android.server.firewall.StringFilter$3'
p46
sg15
(lp47
sg17
(lp48
sg19
(lp49
sg21
I0
sba(iArchitecture
Entity
p50
(dp51
g11
(lp52
sg13
S'com.android.server.firewall.StringFilter$4'
p53
sg15
(lp54
sg17
(lp55
sg19
(lp56
sg21
I0
sba(iArchitecture
Entity
p57
(dp58
g11
(lp59
sg13
S'com.android.server.firewall.StringFilter$5'
p60
sg15
(lp61
sg17
(lp62
sg19
(lp63
sg21
I0
sba(iArchitecture
Entity
p64
(dp65
g11
(lp66
sg13
S'com.android.server.firewall.StringFilter$6'
p67
sg15
(lp68
sg17
(lp69
sg19
(lp70
sg21
I0
sba(iArchitecture
Entity
p71
(dp72
g11
(lp73
sg13
S'com.android.server.firewall.StringFilter$7'
p74
sg15
(lp75
sg17
(lp76
sg19
(lp77
sg21
I0
sba(iArchitecture
Entity
p78
(dp79
g11
(lp80
sg13
S'com.android.server.firewall.StringFilter$8'
p81
sg15
(lp82
sg17
(lp83
sg19
(lp84
sg21
I0
sba(iArchitecture
Entity
p85
(dp86
g11
(lp87
sg13
S'com.android.server.firewall.StringFilter$9'
p88
sg15
(lp89
sg17
(lp90
sg19
(lp91
sg21
I0
sba(iArchitecture
Entity
p92
(dp93
g11
(lp94
sg13
S'com.android.server.firewall.StringFilter$ContainsFilter'
p95
sg15
(lp96
sg17
(lp97
sg19
(lp98
sg21
I0
sba(iArchitecture
Entity
p99
(dp100
g11
(lp101
sg13
S'com.android.server.firewall.StringFilter$EqualsFilter'
p102
sg15
(lp103
sg17
(lp104
sg19
(lp105
sg21
I0
sba(iArchitecture
Entity
p106
(dp107
g11
(lp108
sg13
S'com.android.server.firewall.StringFilter$IsNullFilter'
p109
sg15
(lp110
sg17
(lp111
sg19
(lp112
sg21
I0
sba(iArchitecture
Entity
p113
(dp114
g11
(lp115
sg13
S'com.android.server.firewall.StringFilter$PatternStringFilter'
p116
sg15
(lp117
sg17
(lp118
sg19
(lp119
sg21
I0
sba(iArchitecture
Entity
p120
(dp121
g11
(lp122
sg13
S'com.android.server.firewall.StringFilter$RegexFilter'
p123
sg15
(lp124
sg17
(lp125
sg19
(lp126
sg21
I0
sba(iArchitecture
Entity
p127
(dp128
g11
(lp129
sg13
S'com.android.server.firewall.StringFilter$StartsWithFilter'
p130
sg15
(lp131
sg17
(lp132
sg19
(lp133
sg21
I0
sba(iArchitecture
Entity
p134
(dp135
g11
(lp136
sg13
S'com.android.server.firewall.StringFilter$ValueProvider'
p137
sg15
(lp138
sg17
(lp139
sg19
(lp140
sg21
I0
sbasS'classes'
p141
(lp142
g14
ag25
ag32
ag39
ag46
ag53
ag60
ag67
ag74
ag81
ag88
ag95
ag102
ag109
ag116
ag123
ag130
ag137
asg21
I0
sS'label'
p143
S'1092'
p144
sba(iArchitecture
Cluster
p145
(dp146
g7
(lp147
(iArchitecture
Entity
p148
(dp149
g11
(lp150
sg13
S'android.media.audiopolicy.AudioMix'
p151
sg15
(lp152
sg17
(lp153
sg19
(lp154
sg21
I0
sba(iArchitecture
Entity
p155
(dp156
g11
(lp157
sg13
S'android.media.audiopolicy.AudioMix$Builder'
p158
sg15
(lp159
sg17
(lp160
sg19
(lp161
sg21
I0
sba(iArchitecture
Entity
p162
(dp163
g11
(lp164
sg13
S'android.media.audiopolicy.AudioPolicyConfig'
p165
sg15
(lp166
sg17
(lp167
sg19
(lp168
sg21
I0
sba(iArchitecture
Entity
p169
(dp170
g11
(lp171
sg13
S'android.media.audiopolicy.AudioPolicyConfig$1'
p172
sg15
(lp173
sg17
(lp174
sg19
(lp175
sg21
I0
sbasg141
(lp176
g151
ag158
ag165
ag172
asg21
I0
sg143
S'1192'
p177
sba(iArchitecture
Cluster
p178
(dp179
g7
(lp180
(iArchitecture
Entity
p181
(dp182
g11
(lp183
sg13
S'android.bluetooth.BluetoothGattCharacteristic'
p184
sg15
(lp185
sg17
(lp186
sg19
(lp187
sg21
I0
sbasg141
(lp188
g184
asg21
I0
sg143
S'192'
p189
sba(iArchitecture
Cluster
p190
(dp191
g7
(lp192
(iArchitecture
Entity
p193
(dp194
g11
(lp195
sg13
S'android.security.keymaster.KeymasterDefs'
p196
sg15
(lp197
sg17
(lp198
sg19
(lp199
sg21
I0
sbasg141
(lp200
g196
asg21
I0
sg143
S'292'
p201
sba(iArchitecture
Cluster
p202
(dp203
g7
(lp204
(iArchitecture
Entity
p205
(dp206
g11
(lp207
sg13
S'android.app.backup.FullBackupDataOutput'
p208
sg15
(lp209
sg17
(lp210
sg19
(lp211
sg21
I0
sbasg141
(lp212
g208
asg21
I0
sg143
S'392'
p213
sba(iArchitecture
Cluster
p214
(dp215
g7
(lp216
(iArchitecture
Entity
p217
(dp218
g11
(lp219
sg13
S'com.android.server.job.controllers.IdleController'
p220
sg15
(lp221
sg17
(lp222
sg19
(lp223
sg21
I0
sba(iArchitecture
Entity
p224
(dp225
g11
(lp226
sg13
S'com.android.server.job.controllers.IdleController$IdlenessTracker'
p227
sg15
(lp228
sg17
(lp229
sg19
(lp230
sg21
I0
sbasg141
(lp231
g220
ag227
asg21
I0
sg143
S'492'
p232
sba(iArchitecture
Cluster
p233
(dp234
g7
(lp235
(iArchitecture
Entity
p236
(dp237
g11
(lp238
sg13
S'android.net.InterfaceConfiguration'
p239
sg15
(lp240
sg17
(lp241
sg19
(lp242
sg21
I0
sba(iArchitecture
Entity
p243
(dp244
g11
(lp245
sg13
S'android.net.InterfaceConfiguration$1'
p246
sg15
(lp247
sg17
(lp248
sg19
(lp249
sg21
I0
sbasg141
(lp250
g239
ag246
asg21
I0
sg143
S'592'
p251
sba(iArchitecture
Cluster
p252
(dp253
g7
(lp254
(iArchitecture
Entity
p255
(dp256
g11
(lp257
sg13
S'android.text.format.Time'
p258
sg15
(lp259
sg17
(lp260
sg19
(lp261
sg21
I0
sba(iArchitecture
Entity
p262
(dp263
g11
(lp264
sg13
S'android.text.format.Time$TimeCalculator'
p265
sg15
(lp266
sg17
(lp267
sg19
(lp268
sg21
I0
sbasg141
(lp269
g258
ag265
asg21
I0
sg143
S'692'
p270
sba(iArchitecture
Cluster
p271
(dp272
g7
(lp273
(iArchitecture
Entity
p274
(dp275
g11
(lp276
sg13
S'android.widget.SimpleMonthView'
p277
sg15
(lp278
sg17
(lp279
sg19
(lp280
sg21
I0
sba(iArchitecture
Entity
p281
(dp282
g11
(lp283
sg13
S'android.widget.SimpleMonthView$MonthViewTouchHelper'
p284
sg15
(lp285
sg17
(lp286
sg19
(lp287
sg21
I0
sba(iArchitecture
Entity
p288
(dp289
g11
(lp290
sg13
S'android.widget.SimpleMonthView$OnDayClickListener'
p291
sg15
(lp292
sg17
(lp293
sg19
(lp294
sg21
I0
sbasg141
(lp295
g277
ag284
ag291
asg21
I0
sg143
S'792'
p296
sba(iArchitecture
Cluster
p297
(dp298
g7
(lp299
(iArchitecture
Entity
p300
(dp301
g11
(lp302
sg13
S'android.database.sqlite.SQLiteConnectionPool'
p303
sg15
(lp304
sg17
(lp305
sg19
(lp306
sg21
I0
sba(iArchitecture
Entity
p307
(dp308
g11
(lp309
sg13
S'android.database.sqlite.SQLiteConnectionPool$1'
p310
sg15
(lp311
sg17
(lp312
sg19
(lp313
sg21
I0
sba(iArchitecture
Entity
p314
(dp315
g11
(lp316
sg13
S'android.database.sqlite.SQLiteConnectionPool$AcquiredConnectionStatus'
p317
sg15
(lp318
sg17
(lp319
sg19
(lp320
sg21
I0
sba(iArchitecture
Entity
p321
(dp322
g11
(lp323
sg13
S'android.database.sqlite.SQLiteConnectionPool$ConnectionWaiter'
p324
sg15
(lp325
sg17
(lp326
sg19
(lp327
sg21
I0
sbasg141
(lp328
g303
ag310
ag317
ag324
asg21
I0
sg143
S'892'
p329
sba(iArchitecture
Cluster
p330
(dp331
g7
(lp332
(iArchitecture
Entity
p333
(dp334
g11
(lp335
sg13
S'com.android.internal.os.KernelCpuSpeedReader'
p336
sg15
(lp337
sg17
(lp338
sg19
(lp339
sg21
I0
sbasg141
(lp340
g336
asg21
I0
sg143
S'92'
p341
sba(iArchitecture
Cluster
p342
(dp343
g7
(lp344
(iArchitecture
Entity
p345
(dp346
g11
(lp347
sg13
S'android.bluetooth.le.BluetoothLeAdvertiser'
p348
sg15
(lp349
sg17
(lp350
sg19
(lp351
sg21
I0
sba(iArchitecture
Entity
p352
(dp353
g11
(lp354
sg13
S'android.bluetooth.le.BluetoothLeAdvertiser$1'
p355
sg15
(lp356
sg17
(lp357
sg19
(lp358
sg21
I0
sba(iArchitecture
Entity
p359
(dp360
g11
(lp361
sg13
S'android.bluetooth.le.BluetoothLeAdvertiser$2'
p362
sg15
(lp363
sg17
(lp364
sg19
(lp365
sg21
I0
sba(iArchitecture
Entity
p366
(dp367
g11
(lp368
sg13
S'android.bluetooth.le.BluetoothLeAdvertiser$AdvertiseCallbackWrapper'
p369
sg15
(lp370
sg17
(lp371
sg19
(lp372
sg21
I0
sbasg141
(lp373
g348
ag355
ag362
ag369
asg21
I0
sg143
S'920'
p374
sba(iArchitecture
Cluster
p375
(dp376
g7
(lp377
(iArchitecture
Entity
p378
(dp379
g11
(lp380
sg13
S'android.net.IpConfiguration'
p381
sg15
(lp382
sg17
(lp383
sg19
(lp384
sg21
I0
sba(iArchitecture
Entity
p385
(dp386
g11
(lp387
sg13
S'android.net.IpConfiguration$1'
p388
sg15
(lp389
sg17
(lp390
sg19
(lp391
sg21
I0
sba(iArchitecture
Entity
p392
(dp393
g11
(lp394
sg13
S'android.net.IpConfiguration$IpAssignment'
p395
sg15
(lp396
sg17
(lp397
sg19
(lp398
sg21
I0
sba(iArchitecture
Entity
p399
(dp400
g11
(lp401
sg13
S'android.net.IpConfiguration$ProxySettings'
p402
sg15
(lp403
sg17
(lp404
sg19
(lp405
sg21
I0
sbasg141
(lp406
g381
ag388
ag395
ag402
asg21
I0
sg143
S'921'
p407
sba(iArchitecture
Cluster
p408
(dp409
g7
(lp410
(iArchitecture
Entity
p411
(dp412
g11
(lp413
sg13
S'android.graphics.FontListParser'
p414
sg15
(lp415
sg17
(lp416
sg19
(lp417
sg21
I0
sba(iArchitecture
Entity
p418
(dp419
g11
(lp420
sg13
S'android.graphics.FontListParser$Alias'
p421
sg15
(lp422
sg17
(lp423
sg19
(lp424
sg21
I0
sba(iArchitecture
Entity
p425
(dp426
g11
(lp427
sg13
S'android.graphics.FontListParser$Config'
p428
sg15
(lp429
sg17
(lp430
sg19
(lp431
sg21
I0
sba(iArchitecture
Entity
p432
(dp433
g11
(lp434
sg13
S'android.graphics.FontListParser$Family'
p435
sg15
(lp436
sg17
(lp437
sg19
(lp438
sg21
I0
sba(iArchitecture
Entity
p439
(dp440
g11
(lp441
sg13
S'android.graphics.FontListParser$Font'
p442
sg15
(lp443
sg17
(lp444
sg19
(lp445
sg21
I0
sbasg141
(lp446
g414
ag421
ag428
ag435
ag442
asg21
I0
sg143
S'922'
p447
sba(iArchitecture
Cluster
p448
(dp449
g7
(lp450
(iArchitecture
Entity
p451
(dp452
g11
(lp453
sg13
S'android.widget.FastScroller'
p454
sg15
(lp455
sg17
(lp456
sg19
(lp457
sg21
I0
sba(iArchitecture
Entity
p458
(dp459
g11
(lp460
sg13
S'android.widget.FastScroller$1'
p461
sg15
(lp462
sg17
(lp463
sg19
(lp464
sg21
I0
sba(iArchitecture
Entity
p465
(dp466
g11
(lp467
sg13
S'android.widget.FastScroller$2'
p468
sg15
(lp469
sg17
(lp470
sg19
(lp471
sg21
I0
sba(iArchitecture
Entity
p472
(dp473
g11
(lp474
sg13
S'android.widget.FastScroller$3'
p475
sg15
(lp476
sg17
(lp477
sg19
(lp478
sg21
I0
sba(iArchitecture
Entity
p479
(dp480
g11
(lp481
sg13
S'android.widget.FastScroller$4'
p482
sg15
(lp483
sg17
(lp484
sg19
(lp485
sg21
I0
sba(iArchitecture
Entity
p486
(dp487
g11
(lp488
sg13
S'android.widget.FastScroller$5'
p489
sg15
(lp490
sg17
(lp491
sg19
(lp492
sg21
I0
sba(iArchitecture
Entity
p493
(dp494
g11
(lp495
sg13
S'android.widget.FastScroller$6'
p496
sg15
(lp497
sg17
(lp498
sg19
(lp499
sg21
I0
sbasg141
(lp500
g454
ag461
ag468
ag475
ag482
ag489
ag496
asg21
I0
sg143
S'923'
p501
sba(iArchitecture
Cluster
p502
(dp503
g7
(lp504
(iArchitecture
Entity
p505
(dp506
g11
(lp507
sg13
S'android.media.SoundPool'
p508
sg15
(lp509
sg17
(lp510
sg19
(lp511
sg21
I0
sba(iArchitecture
Entity
p512
(dp513
g11
(lp514
sg13
S'android.media.SoundPool$1'
p515
sg15
(lp516
sg17
(lp517
sg19
(lp518
sg21
I0
sba(iArchitecture
Entity
p519
(dp520
g11
(lp521
sg13
S'android.media.SoundPool$Builder'
p522
sg15
(lp523
sg17
(lp524
sg19
(lp525
sg21
I0
sba(iArchitecture
Entity
p526
(dp527
g11
(lp528
sg13
S'android.media.SoundPool$EventHandler'
p529
sg15
(lp530
sg17
(lp531
sg19
(lp532
sg21
I0
sba(iArchitecture
Entity
p533
(dp534
g11
(lp535
sg13
S'android.media.SoundPool$OnLoadCompleteListener'
p536
sg15
(lp537
sg17
(lp538
sg19
(lp539
sg21
I0
sbasg141
(lp540
g508
ag515
ag522
ag529
ag536
asg21
I0
sg143
S'924'
p541
sba(iArchitecture
Cluster
p542
(dp543
g7
(lp544
(iArchitecture
Entity
p545
(dp546
g11
(lp547
sg13
S'com.android.internal.widget.SlidingTab'
p548
sg15
(lp549
sg17
(lp550
sg19
(lp551
sg21
I0
sba(iArchitecture
Entity
p552
(dp553
g11
(lp554
sg13
S'com.android.internal.widget.SlidingTab$1'
p555
sg15
(lp556
sg17
(lp557
sg19
(lp558
sg21
I0
sba(iArchitecture
Entity
p559
(dp560
g11
(lp561
sg13
S'com.android.internal.widget.SlidingTab$2'
p562
sg15
(lp563
sg17
(lp564
sg19
(lp565
sg21
I0
sba(iArchitecture
Entity
p566
(dp567
g11
(lp568
sg13
S'com.android.internal.widget.SlidingTab$OnTriggerListener'
p569
sg15
(lp570
sg17
(lp571
sg19
(lp572
sg21
I0
sba(iArchitecture
Entity
p573
(dp574
g11
(lp575
sg13
S'com.android.internal.widget.SlidingTab$Slider'
p576
sg15
(lp577
sg17
(lp578
sg19
(lp579
sg21
I0
sbasg141
(lp580
g548
ag555
ag562
ag569
ag576
asg21
I0
sg143
S'925'
p581
sba(iArchitecture
Cluster
p582
(dp583
g7
(lp584
(iArchitecture
Entity
p585
(dp586
g11
(lp587
sg13
S'android.speech.SpeechRecognizer'
p588
sg15
(lp589
sg17
(lp590
sg19
(lp591
sg21
I0
sba(iArchitecture
Entity
p592
(dp593
g11
(lp594
sg13
S'android.speech.SpeechRecognizer$1'
p595
sg15
(lp596
sg17
(lp597
sg19
(lp598
sg21
I0
sba(iArchitecture
Entity
p599
(dp600
g11
(lp601
sg13
S'android.speech.SpeechRecognizer$Connection'
p602
sg15
(lp603
sg17
(lp604
sg19
(lp605
sg21
I0
sba(iArchitecture
Entity
p606
(dp607
g11
(lp608
sg13
S'android.speech.SpeechRecognizer$InternalListener'
p609
sg15
(lp610
sg17
(lp611
sg19
(lp612
sg21
I0
sba(iArchitecture
Entity
p613
(dp614
g11
(lp615
sg13
S'android.speech.SpeechRecognizer$InternalListener$1'
p616
sg15
(lp617
sg17
(lp618
sg19
(lp619
sg21
I0
sbasg141
(lp620
g588
ag595
ag602
ag609
ag616
asg21
I0
sg143
S'926'
p621
sba(iArchitecture
Cluster
p622
(dp623
g7
(lp624
(iArchitecture
Entity
p625
(dp626
g11
(lp627
sg13
S'android.widget.ExpandableListConnector'
p628
sg15
(lp629
sg17
(lp630
sg19
(lp631
sg21
I0
sba(iArchitecture
Entity
p632
(dp633
g11
(lp634
sg13
S'android.widget.ExpandableListConnector$GroupMetadata'
p635
sg15
(lp636
sg17
(lp637
sg19
(lp638
sg21
I0
sba(iArchitecture
Entity
p639
(dp640
g11
(lp641
sg13
S'android.widget.ExpandableListConnector$GroupMetadata$1'
p642
sg15
(lp643
sg17
(lp644
sg19
(lp645
sg21
I0
sba(iArchitecture
Entity
p646
(dp647
g11
(lp648
sg13
S'android.widget.ExpandableListConnector$MyDataSetObserver'
p649
sg15
(lp650
sg17
(lp651
sg19
(lp652
sg21
I0
sba(iArchitecture
Entity
p653
(dp654
g11
(lp655
sg13
S'android.widget.ExpandableListConnector$PositionMetadata'
p656
sg15
(lp657
sg17
(lp658
sg19
(lp659
sg21
I0
sbasg141
(lp660
g628
ag635
ag642
ag649
ag656
asg21
I0
sg143
S'927'
p661
sba(iArchitecture
Cluster
p662
(dp663
g7
(lp664
(iArchitecture
Entity
p665
(dp666
g11
(lp667
sg13
S'com.android.internal.location.GpsNetInitiatedHandler'
p668
sg15
(lp669
sg17
(lp670
sg19
(lp671
sg21
I0
sba(iArchitecture
Entity
p672
(dp673
g11
(lp674
sg13
S'com.android.internal.location.GpsNetInitiatedHandler$1'
p675
sg15
(lp676
sg17
(lp677
sg19
(lp678
sg21
I0
sba(iArchitecture
Entity
p679
(dp680
g11
(lp681
sg13
S'com.android.internal.location.GpsNetInitiatedHandler$2'
p682
sg15
(lp683
sg17
(lp684
sg19
(lp685
sg21
I0
sba(iArchitecture
Entity
p686
(dp687
g11
(lp688
sg13
S'com.android.internal.location.GpsNetInitiatedHandler$GpsNiNotification'
p689
sg15
(lp690
sg17
(lp691
sg19
(lp692
sg21
I0
sba(iArchitecture
Entity
p693
(dp694
g11
(lp695
sg13
S'com.android.internal.location.GpsNetInitiatedHandler$GpsNiResponse'
p696
sg15
(lp697
sg17
(lp698
sg19
(lp699
sg21
I0
sbasg141
(lp700
g668
ag675
ag682
ag689
ag696
asg21
I0
sg143
S'928'
p701
sba(iArchitecture
Cluster
p702
(dp703
g7
(lp704
(iArchitecture
Entity
p705
(dp706
g11
(lp707
sg13
S'android.telecom.RemoteConnectionService'
p708
sg15
(lp709
sg17
(lp710
sg19
(lp711
sg21
I0
sba(iArchitecture
Entity
p712
(dp713
g11
(lp714
sg13
S'android.telecom.RemoteConnectionService$1'
p715
sg15
(lp716
sg17
(lp717
sg19
(lp718
sg21
I0
sba(iArchitecture
Entity
p719
(dp720
g11
(lp721
sg13
S'android.telecom.RemoteConnectionService$1$1'
p722
sg15
(lp723
sg17
(lp724
sg19
(lp725
sg21
I0
sba(iArchitecture
Entity
p726
(dp727
g11
(lp728
sg13
S'android.telecom.RemoteConnectionService$2'
p729
sg15
(lp730
sg17
(lp731
sg19
(lp732
sg21
I0
sba(iArchitecture
Entity
p733
(dp734
g11
(lp735
sg13
S'android.telecom.RemoteConnectionService$3'
p736
sg15
(lp737
sg17
(lp738
sg19
(lp739
sg21
I0
sbasg141
(lp740
g708
ag715
ag722
ag729
ag736
asg21
I0
sg143
S'929'
p741
sba(iArchitecture
Cluster
p742
(dp743
g7
(lp744
(iArchitecture
Entity
p745
(dp746
g11
(lp747
sg13
S'com.android.server.NativeDaemonConnector'
p748
sg15
(lp749
sg17
(lp750
sg19
(lp751
sg21
I0
sba(iArchitecture
Entity
p752
(dp753
g11
(lp754
sg13
S'com.android.server.NativeDaemonConnector$Command'
p755
sg15
(lp756
sg17
(lp757
sg19
(lp758
sg21
I0
sba(iArchitecture
Entity
p759
(dp760
g11
(lp761
sg13
S'com.android.server.NativeDaemonConnector$NativeDaemonArgumentException'
p762
sg15
(lp763
sg17
(lp764
sg19
(lp765
sg21
I0
sba(iArchitecture
Entity
p766
(dp767
g11
(lp768
sg13
S'com.android.server.NativeDaemonConnector$NativeDaemonFailureException'
p769
sg15
(lp770
sg17
(lp771
sg19
(lp772
sg21
I0
sba(iArchitecture
Entity
p773
(dp774
g11
(lp775
sg13
S'com.android.server.NativeDaemonConnector$ResponseQueue'
p776
sg15
(lp777
sg17
(lp778
sg19
(lp779
sg21
I0
sba(iArchitecture
Entity
p780
(dp781
g11
(lp782
sg13
S'com.android.server.NativeDaemonConnector$ResponseQueue$PendingCmd'
p783
sg15
(lp784
sg17
(lp785
sg19
(lp786
sg21
I0
sba(iArchitecture
Entity
p787
(dp788
g11
(lp789
sg13
S'com.android.server.NativeDaemonConnector$SensitiveArg'
p790
sg15
(lp791
sg17
(lp792
sg19
(lp793
sg21
I0
sbasg141
(lp794
g748
ag755
ag762
ag769
ag776
ag783
ag790
asg21
I0
sg143
S'992'
p795
sbasS'target_sub'
p796
S'92'
p797
sg141
(lp798
sS'is_component_arch'
p799
I01
sg143
S'6.0.0_r1'
p800
sba.