(lp0
(iArchitecture
Architecture
p1
(dp2
S'clusters'
p3
(lp4
(iArchitecture
Cluster
p5
(dp6
S'entities'
p7
(lp8
(iArchitecture
Entity
p9
(dp10
S'issue_ids'
p11
(lp12
sS'name'
p13
S'com.android.server.wm.AccessibilityController'
p14
sS'descs'
p15
(lp16
sS'labels'
p17
(lp18
sS'titles'
p19
(lp20
sS'change'
p21
I0
sba(iArchitecture
Entity
p22
(dp23
g11
(lp24
sg13
S'com.android.server.wm.AccessibilityController$DisplayMagnifier'
p25
sg15
(lp26
sg17
(lp27
sg19
(lp28
sg21
I0
sba(iArchitecture
Entity
p29
(dp30
g11
(lp31
sg13
S'com.android.server.wm.AccessibilityController$DisplayMagnifier$MagnifiedViewport'
p32
sg15
(lp33
sg17
(lp34
sg19
(lp35
sg21
I0
sba(iArchitecture
Entity
p36
(dp37
g11
(lp38
sg13
S'com.android.server.wm.AccessibilityController$DisplayMagnifier$MagnifiedViewport$ViewportWindow'
p39
sg15
(lp40
sg17
(lp41
sg19
(lp42
sg21
I0
sba(iArchitecture
Entity
p43
(dp44
g11
(lp45
sg13
S'com.android.server.wm.AccessibilityController$DisplayMagnifier$MagnifiedViewport$ViewportWindow$AnimationController'
p46
sg15
(lp47
sg17
(lp48
sg19
(lp49
sg21
I0
sba(iArchitecture
Entity
p50
(dp51
g11
(lp52
sg13
S'com.android.server.wm.AccessibilityController$DisplayMagnifier$MyHandler'
p53
sg15
(lp54
sg17
(lp55
sg19
(lp56
sg21
I0
sba(iArchitecture
Entity
p57
(dp58
g11
(lp59
sg13
S'com.android.server.wm.AccessibilityController$WindowsForAccessibilityObserver'
p60
sg15
(lp61
sg17
(lp62
sg19
(lp63
sg21
I0
sba(iArchitecture
Entity
p64
(dp65
g11
(lp66
sg13
S'com.android.server.wm.AccessibilityController$WindowsForAccessibilityObserver$MyHandler'
p67
sg15
(lp68
sg17
(lp69
sg19
(lp70
sg21
I0
sbasS'classes'
p71
(lp72
g14
ag25
ag32
ag39
ag46
ag53
ag60
ag67
asg21
I0
sS'label'
p73
S'1022'
p74
sba(iArchitecture
Cluster
p75
(dp76
g7
(lp77
(iArchitecture
Entity
p78
(dp79
g11
(lp80
sg13
S'com.android.server.input.InputWindowHandle'
p81
sg15
(lp82
sg17
(lp83
sg19
(lp84
sg21
I0
sba(iArchitecture
Entity
p85
(dp86
g11
(lp87
sg13
S'com.android.server.wm.InputConsumerImpl'
p88
sg15
(lp89
sg17
(lp90
sg19
(lp91
sg21
I0
sbasg71
(lp92
g81
ag88
asg21
I0
sg73
S'1122'
p93
sba(iArchitecture
Cluster
p94
(dp95
g7
(lp96
(iArchitecture
Entity
p97
(dp98
g11
(lp99
sg13
S'android.filterfw.core.VertexFrame'
p100
sg15
(lp101
sg17
(lp102
sg19
(lp103
sg21
I0
sbasg71
(lp104
g100
asg21
I0
sg73
S'122'
p105
sba(iArchitecture
Cluster
p106
(dp107
g7
(lp108
(iArchitecture
Entity
p109
(dp110
g11
(lp111
sg13
S'android.app.WallpaperManager'
p112
sg15
(lp113
sg17
(lp114
sg19
(lp115
sg21
I0
sba(iArchitecture
Entity
p116
(dp117
g11
(lp118
sg13
S'android.app.WallpaperManager$FastBitmapDrawable'
p119
sg15
(lp120
sg17
(lp121
sg19
(lp122
sg21
I0
sba(iArchitecture
Entity
p123
(dp124
g11
(lp125
sg13
S'android.app.WallpaperManager$Globals'
p126
sg15
(lp127
sg17
(lp128
sg19
(lp129
sg21
I0
sba(iArchitecture
Entity
p130
(dp131
g11
(lp132
sg13
S'android.graphics.Rect'
p133
sg15
(lp134
sg17
(lp135
sg19
(lp136
sg21
I0
sba(iArchitecture
Entity
p137
(dp138
g11
(lp139
sg13
S'android.graphics.Rect$1'
p140
sg15
(lp141
sg17
(lp142
sg19
(lp143
sg21
I0
sba(iArchitecture
Entity
p144
(dp145
g11
(lp146
sg13
S'android.graphics.Rect$UnflattenHelper'
p147
sg15
(lp148
sg17
(lp149
sg19
(lp150
sg21
I0
sba(iArchitecture
Entity
p151
(dp152
g11
(lp153
sg13
S'android.graphics.RectF'
p154
sg15
(lp155
sg17
(lp156
sg19
(lp157
sg21
I0
sba(iArchitecture
Entity
p158
(dp159
g11
(lp160
sg13
S'android.graphics.RectF$1'
p161
sg15
(lp162
sg17
(lp163
sg19
(lp164
sg21
I0
sba(iArchitecture
Entity
p165
(dp166
g11
(lp167
sg13
S'android.graphics.Region'
p168
sg15
(lp169
sg17
(lp170
sg19
(lp171
sg21
I0
sba(iArchitecture
Entity
p172
(dp173
g11
(lp174
sg13
S'android.graphics.Region$1'
p175
sg15
(lp176
sg17
(lp177
sg19
(lp178
sg21
I0
sba(iArchitecture
Entity
p179
(dp180
g11
(lp181
sg13
S'android.graphics.Region$Op'
p182
sg15
(lp183
sg17
(lp184
sg19
(lp185
sg21
I0
sba(iArchitecture
Entity
p186
(dp187
g11
(lp188
sg13
S'com.android.server.wallpaper.WallpaperManagerService'
p189
sg15
(lp190
sg17
(lp191
sg19
(lp192
sg21
I0
sba(iArchitecture
Entity
p193
(dp194
g11
(lp195
sg13
S'com.android.server.wallpaper.WallpaperManagerService$1'
p196
sg15
(lp197
sg17
(lp198
sg19
(lp199
sg21
I0
sba(iArchitecture
Entity
p200
(dp201
g11
(lp202
sg13
S'com.android.server.wallpaper.WallpaperManagerService$2'
p203
sg15
(lp204
sg17
(lp205
sg19
(lp206
sg21
I0
sba(iArchitecture
Entity
p207
(dp208
g11
(lp209
sg13
S'com.android.server.wallpaper.WallpaperManagerService$MyPackageMonitor'
p210
sg15
(lp211
sg17
(lp212
sg19
(lp213
sg21
I0
sba(iArchitecture
Entity
p214
(dp215
g11
(lp216
sg13
S'com.android.server.wallpaper.WallpaperManagerService$WallpaperConnection'
p217
sg15
(lp218
sg17
(lp219
sg19
(lp220
sg21
I0
sba(iArchitecture
Entity
p221
(dp222
g11
(lp223
sg13
S'com.android.server.wallpaper.WallpaperManagerService$WallpaperData'
p224
sg15
(lp225
sg17
(lp226
sg19
(lp227
sg21
I0
sba(iArchitecture
Entity
p228
(dp229
g11
(lp230
sg13
S'com.android.server.wallpaper.WallpaperManagerService$WallpaperObserver'
p231
sg15
(lp232
sg17
(lp233
sg19
(lp234
sg21
I0
sbasg71
(lp235
g112
ag119
ag126
ag133
ag140
ag147
ag154
ag161
ag168
ag175
ag182
ag189
ag196
ag203
ag210
ag217
ag224
ag231
asg21
I0
sg73
S'1220'
p236
sba(iArchitecture
Cluster
p237
(dp238
g7
(lp239
(iArchitecture
Entity
p240
(dp241
g11
(lp242
sg13
S'android.hardware.radio.RadioManager'
p243
sg15
(lp244
sg17
(lp245
sg19
(lp246
sg21
I0
sba(iArchitecture
Entity
p247
(dp248
g11
(lp249
sg13
S'android.hardware.radio.RadioManager$AmBandConfig'
p250
sg15
(lp251
sg17
(lp252
sg19
(lp253
sg21
I0
sba(iArchitecture
Entity
p254
(dp255
g11
(lp256
sg13
S'android.hardware.radio.RadioManager$AmBandConfig$1'
p257
sg15
(lp258
sg17
(lp259
sg19
(lp260
sg21
I0
sba(iArchitecture
Entity
p261
(dp262
g11
(lp263
sg13
S'android.hardware.radio.RadioManager$AmBandConfig$Builder'
p264
sg15
(lp265
sg17
(lp266
sg19
(lp267
sg21
I0
sba(iArchitecture
Entity
p268
(dp269
g11
(lp270
sg13
S'android.hardware.radio.RadioManager$AmBandDescriptor'
p271
sg15
(lp272
sg17
(lp273
sg19
(lp274
sg21
I0
sba(iArchitecture
Entity
p275
(dp276
g11
(lp277
sg13
S'android.hardware.radio.RadioManager$AmBandDescriptor$1'
p278
sg15
(lp279
sg17
(lp280
sg19
(lp281
sg21
I0
sba(iArchitecture
Entity
p282
(dp283
g11
(lp284
sg13
S'android.hardware.radio.RadioManager$BandConfig'
p285
sg15
(lp286
sg17
(lp287
sg19
(lp288
sg21
I0
sba(iArchitecture
Entity
p289
(dp290
g11
(lp291
sg13
S'android.hardware.radio.RadioManager$BandConfig$1'
p292
sg15
(lp293
sg17
(lp294
sg19
(lp295
sg21
I0
sba(iArchitecture
Entity
p296
(dp297
g11
(lp298
sg13
S'android.hardware.radio.RadioManager$BandDescriptor'
p299
sg15
(lp300
sg17
(lp301
sg19
(lp302
sg21
I0
sba(iArchitecture
Entity
p303
(dp304
g11
(lp305
sg13
S'android.hardware.radio.RadioManager$BandDescriptor$1'
p306
sg15
(lp307
sg17
(lp308
sg19
(lp309
sg21
I0
sba(iArchitecture
Entity
p310
(dp311
g11
(lp312
sg13
S'android.hardware.radio.RadioManager$FmBandConfig'
p313
sg15
(lp314
sg17
(lp315
sg19
(lp316
sg21
I0
sba(iArchitecture
Entity
p317
(dp318
g11
(lp319
sg13
S'android.hardware.radio.RadioManager$FmBandConfig$1'
p320
sg15
(lp321
sg17
(lp322
sg19
(lp323
sg21
I0
sba(iArchitecture
Entity
p324
(dp325
g11
(lp326
sg13
S'android.hardware.radio.RadioManager$FmBandConfig$Builder'
p327
sg15
(lp328
sg17
(lp329
sg19
(lp330
sg21
I0
sba(iArchitecture
Entity
p331
(dp332
g11
(lp333
sg13
S'android.hardware.radio.RadioManager$FmBandDescriptor'
p334
sg15
(lp335
sg17
(lp336
sg19
(lp337
sg21
I0
sba(iArchitecture
Entity
p338
(dp339
g11
(lp340
sg13
S'android.hardware.radio.RadioManager$FmBandDescriptor$1'
p341
sg15
(lp342
sg17
(lp343
sg19
(lp344
sg21
I0
sba(iArchitecture
Entity
p345
(dp346
g11
(lp347
sg13
S'android.hardware.radio.RadioManager$ModuleProperties'
p348
sg15
(lp349
sg17
(lp350
sg19
(lp351
sg21
I0
sba(iArchitecture
Entity
p352
(dp353
g11
(lp354
sg13
S'android.hardware.radio.RadioManager$ModuleProperties$1'
p355
sg15
(lp356
sg17
(lp357
sg19
(lp358
sg21
I0
sba(iArchitecture
Entity
p359
(dp360
g11
(lp361
sg13
S'android.hardware.radio.RadioManager$ProgramInfo'
p362
sg15
(lp363
sg17
(lp364
sg19
(lp365
sg21
I0
sba(iArchitecture
Entity
p366
(dp367
g11
(lp368
sg13
S'android.hardware.radio.RadioManager$ProgramInfo$1'
p369
sg15
(lp370
sg17
(lp371
sg19
(lp372
sg21
I0
sba(iArchitecture
Entity
p373
(dp374
g11
(lp375
sg13
S'android.view.inputmethod.CursorAnchorInfo'
p376
sg15
(lp377
sg17
(lp378
sg19
(lp379
sg21
I0
sba(iArchitecture
Entity
p380
(dp381
g11
(lp382
sg13
S'android.view.inputmethod.CursorAnchorInfo$1'
p383
sg15
(lp384
sg17
(lp385
sg19
(lp386
sg21
I0
sba(iArchitecture
Entity
p387
(dp388
g11
(lp389
sg13
S'android.view.inputmethod.CursorAnchorInfo$Builder'
p390
sg15
(lp391
sg17
(lp392
sg19
(lp393
sg21
I0
sbasg71
(lp394
g243
ag250
ag257
ag264
ag271
ag278
ag285
ag292
ag299
ag306
ag313
ag320
ag327
ag334
ag341
ag348
ag355
ag362
ag369
ag376
ag383
ag390
asg21
I0
sg73
S'1221'
p395
sba(iArchitecture
Cluster
p396
(dp397
g7
(lp398
(iArchitecture
Entity
p399
(dp400
g11
(lp401
sg13
S'android.view.animation.AccelerateInterpolator'
p402
sg15
(lp403
sg17
(lp404
sg19
(lp405
sg21
I0
sba(iArchitecture
Entity
p406
(dp407
g11
(lp408
sg13
S'android.view.animation.AnticipateInterpolator'
p409
sg15
(lp410
sg17
(lp411
sg19
(lp412
sg21
I0
sba(iArchitecture
Entity
p413
(dp414
g11
(lp415
sg13
S'android.view.animation.AnticipateOvershootInterpolator'
p416
sg15
(lp417
sg17
(lp418
sg19
(lp419
sg21
I0
sba(iArchitecture
Entity
p420
(dp421
g11
(lp422
sg13
S'android.view.animation.CycleInterpolator'
p423
sg15
(lp424
sg17
(lp425
sg19
(lp426
sg21
I0
sba(iArchitecture
Entity
p427
(dp428
g11
(lp429
sg13
S'android.view.animation.DecelerateInterpolator'
p430
sg15
(lp431
sg17
(lp432
sg19
(lp433
sg21
I0
sba(iArchitecture
Entity
p434
(dp435
g11
(lp436
sg13
S'android.view.animation.OvershootInterpolator'
p437
sg15
(lp438
sg17
(lp439
sg19
(lp440
sg21
I0
sba(iArchitecture
Entity
p441
(dp442
g11
(lp443
sg13
S'android.webkit.PluginStub'
p444
sg15
(lp445
sg17
(lp446
sg19
(lp447
sg21
I0
sba(iArchitecture
Entity
p448
(dp449
g11
(lp450
sg13
S'android.widget.ImageSwitcher'
p451
sg15
(lp452
sg17
(lp453
sg19
(lp454
sg21
I0
sba(iArchitecture
Entity
p455
(dp456
g11
(lp457
sg13
S'android.widget.TextSwitcher'
p458
sg15
(lp459
sg17
(lp460
sg19
(lp461
sg21
I0
sba(iArchitecture
Entity
p462
(dp463
g11
(lp464
sg13
S'android.widget.ViewSwitcher'
p465
sg15
(lp466
sg17
(lp467
sg19
(lp468
sg21
I0
sba(iArchitecture
Entity
p469
(dp470
g11
(lp471
sg13
S'android.widget.ViewSwitcher$ViewFactory'
p472
sg15
(lp473
sg17
(lp474
sg19
(lp475
sg21
I0
sba(iArchitecture
Entity
p476
(dp477
g11
(lp478
sg13
S'com.google.android.util.SmileyResources'
p479
sg15
(lp480
sg17
(lp481
sg19
(lp482
sg21
I0
sbasg71
(lp483
g402
ag409
ag416
ag423
ag430
ag437
ag444
ag451
ag458
ag465
ag472
ag479
asg21
I0
sg73
S'1222'
p484
sba(iArchitecture
Cluster
p485
(dp486
g7
(lp487
(iArchitecture
Entity
p488
(dp489
g11
(lp490
sg13
S'android.accounts.AccountManagerCallback'
p491
sg15
(lp492
sg17
(lp493
sg19
(lp494
sg21
I0
sba(iArchitecture
Entity
p495
(dp496
g11
(lp497
sg13
S'android.accounts.AccountsException'
p498
sg15
(lp499
sg17
(lp500
sg19
(lp501
sg21
I0
sba(iArchitecture
Entity
p502
(dp503
g11
(lp504
sg13
S'android.accounts.AuthenticatorException'
p505
sg15
(lp506
sg17
(lp507
sg19
(lp508
sg21
I0
sba(iArchitecture
Entity
p509
(dp510
g11
(lp511
sg13
S'android.accounts.CantAddAccountActivity'
p512
sg15
(lp513
sg17
(lp514
sg19
(lp515
sg21
I0
sba(iArchitecture
Entity
p516
(dp517
g11
(lp518
sg13
S'android.accounts.ChooseAccountActivity'
p519
sg15
(lp520
sg17
(lp521
sg19
(lp522
sg21
I0
sba(iArchitecture
Entity
p523
(dp524
g11
(lp525
sg13
S'android.accounts.ChooseAccountActivity$1'
p526
sg15
(lp527
sg17
(lp528
sg19
(lp529
sg21
I0
sba(iArchitecture
Entity
p530
(dp531
g11
(lp532
sg13
S'android.accounts.ChooseAccountActivity$AccountArrayAdapter'
p533
sg15
(lp534
sg17
(lp535
sg19
(lp536
sg21
I0
sba(iArchitecture
Entity
p537
(dp538
g11
(lp539
sg13
S'android.accounts.ChooseAccountActivity$AccountInfo'
p540
sg15
(lp541
sg17
(lp542
sg19
(lp543
sg21
I0
sba(iArchitecture
Entity
p544
(dp545
g11
(lp546
sg13
S'android.accounts.ChooseAccountActivity$ViewHolder'
p547
sg15
(lp548
sg17
(lp549
sg19
(lp550
sg21
I0
sba(iArchitecture
Entity
p551
(dp552
g11
(lp553
sg13
S'android.accounts.ChooseAccountTypeActivity'
p554
sg15
(lp555
sg17
(lp556
sg19
(lp557
sg21
I0
sba(iArchitecture
Entity
p558
(dp559
g11
(lp560
sg13
S'android.accounts.ChooseAccountTypeActivity$1'
p561
sg15
(lp562
sg17
(lp563
sg19
(lp564
sg21
I0
sba(iArchitecture
Entity
p565
(dp566
g11
(lp567
sg13
S'android.accounts.ChooseAccountTypeActivity$AccountArrayAdapter'
p568
sg15
(lp569
sg17
(lp570
sg19
(lp571
sg21
I0
sba(iArchitecture
Entity
p572
(dp573
g11
(lp574
sg13
S'android.accounts.ChooseAccountTypeActivity$AuthInfo'
p575
sg15
(lp576
sg17
(lp577
sg19
(lp578
sg21
I0
sba(iArchitecture
Entity
p579
(dp580
g11
(lp581
sg13
S'android.accounts.ChooseAccountTypeActivity$ViewHolder'
p582
sg15
(lp583
sg17
(lp584
sg19
(lp585
sg21
I0
sba(iArchitecture
Entity
p586
(dp587
g11
(lp588
sg13
S'android.accounts.GrantCredentialsPermissionActivity'
p589
sg15
(lp590
sg17
(lp591
sg19
(lp592
sg21
I0
sba(iArchitecture
Entity
p593
(dp594
g11
(lp595
sg13
S'android.accounts.GrantCredentialsPermissionActivity$1'
p596
sg15
(lp597
sg17
(lp598
sg19
(lp599
sg21
I0
sba(iArchitecture
Entity
p600
(dp601
g11
(lp602
sg13
S'android.accounts.GrantCredentialsPermissionActivity$1$1'
p603
sg15
(lp604
sg17
(lp605
sg19
(lp606
sg21
I0
sba(iArchitecture
Entity
p607
(dp608
g11
(lp609
sg13
S'android.accounts.NetworkErrorException'
p610
sg15
(lp611
sg17
(lp612
sg19
(lp613
sg21
I0
sba(iArchitecture
Entity
p614
(dp615
g11
(lp616
sg13
S'android.accounts.OnAccountsUpdateListener'
p617
sg15
(lp618
sg17
(lp619
sg19
(lp620
sg21
I0
sba(iArchitecture
Entity
p621
(dp622
g11
(lp623
sg13
S'android.accounts.OperationCanceledException'
p624
sg15
(lp625
sg17
(lp626
sg19
(lp627
sg21
I0
sba(iArchitecture
Entity
p628
(dp629
g11
(lp630
sg13
S'android.animation.AnimatorListenerAdapter'
p631
sg15
(lp632
sg17
(lp633
sg19
(lp634
sg21
I0
sba(iArchitecture
Entity
p635
(dp636
g11
(lp637
sg13
S'android.animation.Keyframes'
p638
sg15
(lp639
sg17
(lp640
sg19
(lp641
sg21
I0
sba(iArchitecture
Entity
p642
(dp643
g11
(lp644
sg13
S'android.animation.Keyframes$FloatKeyframes'
p645
sg15
(lp646
sg17
(lp647
sg19
(lp648
sg21
I0
sba(iArchitecture
Entity
p649
(dp650
g11
(lp651
sg13
S'android.animation.Keyframes$IntKeyframes'
p652
sg15
(lp653
sg17
(lp654
sg19
(lp655
sg21
I0
sba(iArchitecture
Entity
p656
(dp657
g11
(lp658
sg13
S'android.animation.TimeInterpolator'
p659
sg15
(lp660
sg17
(lp661
sg19
(lp662
sg21
I0
sba(iArchitecture
Entity
p663
(dp664
g11
(lp665
sg13
S'android.animation.TypeConverter'
p666
sg15
(lp667
sg17
(lp668
sg19
(lp669
sg21
I0
sba(iArchitecture
Entity
p670
(dp671
g11
(lp672
sg13
S'android.annotation.AnimRes'
p673
sg15
(lp674
sg17
(lp675
sg19
(lp676
sg21
I0
sba(iArchitecture
Entity
p677
(dp678
g11
(lp679
sg13
S'android.annotation.AnimatorRes'
p680
sg15
(lp681
sg17
(lp682
sg19
(lp683
sg21
I0
sba(iArchitecture
Entity
p684
(dp685
g11
(lp686
sg13
S'android.annotation.AnyRes'
p687
sg15
(lp688
sg17
(lp689
sg19
(lp690
sg21
I0
sba(iArchitecture
Entity
p691
(dp692
g11
(lp693
sg13
S'android.annotation.ArrayRes'
p694
sg15
(lp695
sg17
(lp696
sg19
(lp697
sg21
I0
sba(iArchitecture
Entity
p698
(dp699
g11
(lp700
sg13
S'android.annotation.AttrRes'
p701
sg15
(lp702
sg17
(lp703
sg19
(lp704
sg21
I0
sba(iArchitecture
Entity
p705
(dp706
g11
(lp707
sg13
S'android.annotation.BinderThread'
p708
sg15
(lp709
sg17
(lp710
sg19
(lp711
sg21
I0
sba(iArchitecture
Entity
p712
(dp713
g11
(lp714
sg13
S'android.annotation.BoolRes'
p715
sg15
(lp716
sg17
(lp717
sg19
(lp718
sg21
I0
sba(iArchitecture
Entity
p719
(dp720
g11
(lp721
sg13
S'android.annotation.CallSuper'
p722
sg15
(lp723
sg17
(lp724
sg19
(lp725
sg21
I0
sba(iArchitecture
Entity
p726
(dp727
g11
(lp728
sg13
S'android.annotation.ColorInt'
p729
sg15
(lp730
sg17
(lp731
sg19
(lp732
sg21
I0
sba(iArchitecture
Entity
p733
(dp734
g11
(lp735
sg13
S'android.annotation.ColorRes'
p736
sg15
(lp737
sg17
(lp738
sg19
(lp739
sg21
I0
sba(iArchitecture
Entity
p740
(dp741
g11
(lp742
sg13
S'android.annotation.DimenRes'
p743
sg15
(lp744
sg17
(lp745
sg19
(lp746
sg21
I0
sba(iArchitecture
Entity
p747
(dp748
g11
(lp749
sg13
S'android.annotation.DrawableRes'
p750
sg15
(lp751
sg17
(lp752
sg19
(lp753
sg21
I0
sba(iArchitecture
Entity
p754
(dp755
g11
(lp756
sg13
S'android.annotation.FractionRes'
p757
sg15
(lp758
sg17
(lp759
sg19
(lp760
sg21
I0
sba(iArchitecture
Entity
p761
(dp762
g11
(lp763
sg13
S'android.annotation.IdRes'
p764
sg15
(lp765
sg17
(lp766
sg19
(lp767
sg21
I0
sba(iArchitecture
Entity
p768
(dp769
g11
(lp770
sg13
S'android.annotation.IntRange'
p771
sg15
(lp772
sg17
(lp773
sg19
(lp774
sg21
I0
sba(iArchitecture
Entity
p775
(dp776
g11
(lp777
sg13
S'android.annotation.IntegerRes'
p778
sg15
(lp779
sg17
(lp780
sg19
(lp781
sg21
I0
sba(iArchitecture
Entity
p782
(dp783
g11
(lp784
sg13
S'android.annotation.InterpolatorRes'
p785
sg15
(lp786
sg17
(lp787
sg19
(lp788
sg21
I0
sba(iArchitecture
Entity
p789
(dp790
g11
(lp791
sg13
S'android.annotation.LayoutRes'
p792
sg15
(lp793
sg17
(lp794
sg19
(lp795
sg21
I0
sba(iArchitecture
Entity
p796
(dp797
g11
(lp798
sg13
S'android.annotation.MenuRes'
p799
sg15
(lp800
sg17
(lp801
sg19
(lp802
sg21
I0
sba(iArchitecture
Entity
p803
(dp804
g11
(lp805
sg13
S'android.annotation.NonNull'
p806
sg15
(lp807
sg17
(lp808
sg19
(lp809
sg21
I0
sba(iArchitecture
Entity
p810
(dp811
g11
(lp812
sg13
S'android.annotation.Nullable'
p813
sg15
(lp814
sg17
(lp815
sg19
(lp816
sg21
I0
sba(iArchitecture
Entity
p817
(dp818
g11
(lp819
sg13
S'android.annotation.PluralsRes'
p820
sg15
(lp821
sg17
(lp822
sg19
(lp823
sg21
I0
sba(iArchitecture
Entity
p824
(dp825
g11
(lp826
sg13
S'android.annotation.RawRes'
p827
sg15
(lp828
sg17
(lp829
sg19
(lp830
sg21
I0
sba(iArchitecture
Entity
p831
(dp832
g11
(lp833
sg13
S'android.annotation.SdkConstant'
p834
sg15
(lp835
sg17
(lp836
sg19
(lp837
sg21
I0
sba(iArchitecture
Entity
p838
(dp839
g11
(lp840
sg13
S'android.annotation.SdkConstant$SdkConstantType'
p841
sg15
(lp842
sg17
(lp843
sg19
(lp844
sg21
I0
sba(iArchitecture
Entity
p845
(dp846
g11
(lp847
sg13
S'android.annotation.Size'
p848
sg15
(lp849
sg17
(lp850
sg19
(lp851
sg21
I0
sba(iArchitecture
Entity
p852
(dp853
g11
(lp854
sg13
S'android.annotation.StringDef'
p855
sg15
(lp856
sg17
(lp857
sg19
(lp858
sg21
I0
sba(iArchitecture
Entity
p859
(dp860
g11
(lp861
sg13
S'android.annotation.StringRes'
p862
sg15
(lp863
sg17
(lp864
sg19
(lp865
sg21
I0
sba(iArchitecture
Entity
p866
(dp867
g11
(lp868
sg13
S'android.annotation.StyleRes'
p869
sg15
(lp870
sg17
(lp871
sg19
(lp872
sg21
I0
sba(iArchitecture
Entity
p873
(dp874
g11
(lp875
sg13
S'android.annotation.StyleableRes'
p876
sg15
(lp877
sg17
(lp878
sg19
(lp879
sg21
I0
sba(iArchitecture
Entity
p880
(dp881
g11
(lp882
sg13
S'android.annotation.SuppressLint'
p883
sg15
(lp884
sg17
(lp885
sg19
(lp886
sg21
I0
sba(iArchitecture
Entity
p887
(dp888
g11
(lp889
sg13
S'android.annotation.SystemApi'
p890
sg15
(lp891
sg17
(lp892
sg19
(lp893
sg21
I0
sba(iArchitecture
Entity
p894
(dp895
g11
(lp896
sg13
S'android.annotation.TargetApi'
p897
sg15
(lp898
sg17
(lp899
sg19
(lp900
sg21
I0
sba(iArchitecture
Entity
p901
(dp902
g11
(lp903
sg13
S'android.annotation.TransitionRes'
p904
sg15
(lp905
sg17
(lp906
sg19
(lp907
sg21
I0
sba(iArchitecture
Entity
p908
(dp909
g11
(lp910
sg13
S'android.annotation.Widget'
p911
sg15
(lp912
sg17
(lp913
sg19
(lp914
sg21
I0
sba(iArchitecture
Entity
p915
(dp916
g11
(lp917
sg13
S'android.annotation.WorkerThread'
p918
sg15
(lp919
sg17
(lp920
sg19
(lp921
sg21
I0
sba(iArchitecture
Entity
p922
(dp923
g11
(lp924
sg13
S'android.annotation.XmlRes'
p925
sg15
(lp926
sg17
(lp927
sg19
(lp928
sg21
I0
sba(iArchitecture
Entity
p929
(dp930
g11
(lp931
sg13
S'android.app.OnActivityPausedListener'
p932
sg15
(lp933
sg17
(lp934
sg19
(lp935
sg21
I0
sba(iArchitecture
Entity
p936
(dp937
g11
(lp938
sg13
S'android.app.PackageDeleteObserver'
p939
sg15
(lp940
sg17
(lp941
sg19
(lp942
sg21
I0
sba(iArchitecture
Entity
p943
(dp944
g11
(lp945
sg13
S'android.app.PackageDeleteObserver$1'
p946
sg15
(lp947
sg17
(lp948
sg19
(lp949
sg21
I0
sba(iArchitecture
Entity
p950
(dp951
g11
(lp952
sg13
S'android.app.backup.FullBackupAgent'
p953
sg15
(lp954
sg17
(lp955
sg19
(lp956
sg21
I0
sba(iArchitecture
Entity
p957
(dp958
g11
(lp959
sg13
S'android.app.backup.RestoreObserver'
p960
sg15
(lp961
sg17
(lp962
sg19
(lp963
sg21
I0
sba(iArchitecture
Entity
p964
(dp965
g11
(lp966
sg13
S'android.appwidget.AppWidgetHost'
p967
sg15
(lp968
sg17
(lp969
sg19
(lp970
sg21
I0
sba(iArchitecture
Entity
p971
(dp972
g11
(lp973
sg13
S'android.appwidget.AppWidgetHost$Callbacks'
p974
sg15
(lp975
sg17
(lp976
sg19
(lp977
sg21
I0
sba(iArchitecture
Entity
p978
(dp979
g11
(lp980
sg13
S'android.appwidget.AppWidgetHost$UpdateHandler'
p981
sg15
(lp982
sg17
(lp983
sg19
(lp984
sg21
I0
sba(iArchitecture
Entity
p985
(dp986
g11
(lp987
sg13
S'android.appwidget.AppWidgetHostView'
p988
sg15
(lp989
sg17
(lp990
sg19
(lp991
sg21
I0
sba(iArchitecture
Entity
p992
(dp993
g11
(lp994
sg13
S'android.appwidget.AppWidgetHostView$1'
p995
sg15
(lp996
sg17
(lp997
sg19
(lp998
sg21
I0
sba(iArchitecture
Entity
p999
(dp1000
g11
(lp1001
sg13
S'android.appwidget.AppWidgetHostView$ParcelableSparseArray'
p1002
sg15
(lp1003
sg17
(lp1004
sg19
(lp1005
sg21
I0
sba(iArchitecture
Entity
p1006
(dp1007
g11
(lp1008
sg13
S'android.appwidget.AppWidgetHostView$ParcelableSparseArray$1'
p1009
sg15
(lp1010
sg17
(lp1011
sg19
(lp1012
sg21
I0
sba(iArchitecture
Entity
p1013
(dp1014
g11
(lp1015
sg13
S'android.content.ActivityNotFoundException'
p1016
sg15
(lp1017
sg17
(lp1018
sg19
(lp1019
sg21
I0
sba(iArchitecture
Entity
p1020
(dp1021
g11
(lp1022
sg13
S'android.content.EntityIterator'
p1023
sg15
(lp1024
sg17
(lp1025
sg19
(lp1026
sg21
I0
sba(iArchitecture
Entity
p1027
(dp1028
g11
(lp1029
sg13
S'android.content.ReceiverCallNotAllowedException'
p1030
sg15
(lp1031
sg17
(lp1032
sg19
(lp1033
sg21
I0
sba(iArchitecture
Entity
p1034
(dp1035
g11
(lp1036
sg13
S'android.content.SyncStatusObserver'
p1037
sg15
(lp1038
sg17
(lp1039
sg19
(lp1040
sg21
I0
sba(iArchitecture
Entity
p1041
(dp1042
g11
(lp1043
sg13
S'android.content.pm.PackageCleanItem'
p1044
sg15
(lp1045
sg17
(lp1046
sg19
(lp1047
sg21
I0
sba(iArchitecture
Entity
p1048
(dp1049
g11
(lp1050
sg13
S'android.content.pm.PackageCleanItem$1'
p1051
sg15
(lp1052
sg17
(lp1053
sg19
(lp1054
sg21
I0
sba(iArchitecture
Entity
p1055
(dp1056
g11
(lp1057
sg13
S'android.content.pm.ParceledListSlice'
p1058
sg15
(lp1059
sg17
(lp1060
sg19
(lp1061
sg21
I0
sba(iArchitecture
Entity
p1062
(dp1063
g11
(lp1064
sg13
S'android.content.pm.ParceledListSlice$1'
p1065
sg15
(lp1066
sg17
(lp1067
sg19
(lp1068
sg21
I0
sba(iArchitecture
Entity
p1069
(dp1070
g11
(lp1071
sg13
S'android.content.pm.ParceledListSlice$2'
p1072
sg15
(lp1073
sg17
(lp1074
sg19
(lp1075
sg21
I0
sba(iArchitecture
Entity
p1076
(dp1077
g11
(lp1078
sg13
S'android.content.pm.PathPermission'
p1079
sg15
(lp1080
sg17
(lp1081
sg19
(lp1082
sg21
I0
sba(iArchitecture
Entity
p1083
(dp1084
g11
(lp1085
sg13
S'android.content.pm.PathPermission$1'
p1086
sg15
(lp1087
sg17
(lp1088
sg19
(lp1089
sg21
I0
sba(iArchitecture
Entity
p1090
(dp1091
g11
(lp1092
sg13
S'android.content.pm.RegisteredServicesCacheListener'
p1093
sg15
(lp1094
sg17
(lp1095
sg19
(lp1096
sg21
I0
sba(iArchitecture
Entity
p1097
(dp1098
g11
(lp1099
sg13
S'android.content.pm.XmlSerializerAndParser'
p1100
sg15
(lp1101
sg17
(lp1102
sg19
(lp1103
sg21
I0
sba(iArchitecture
Entity
p1104
(dp1105
g11
(lp1106
sg13
S'android.content.res.ObbInfo'
p1107
sg15
(lp1108
sg17
(lp1109
sg19
(lp1110
sg21
I0
sba(iArchitecture
Entity
p1111
(dp1112
g11
(lp1113
sg13
S'android.content.res.ObbInfo$1'
p1114
sg15
(lp1115
sg17
(lp1116
sg19
(lp1117
sg21
I0
sba(iArchitecture
Entity
p1118
(dp1119
g11
(lp1120
sg13
S'android.content.res.XmlResourceParser'
p1121
sg15
(lp1122
sg17
(lp1123
sg19
(lp1124
sg21
I0
sba(iArchitecture
Entity
p1125
(dp1126
g11
(lp1127
sg13
S'android.database.BulkCursorDescriptor'
p1128
sg15
(lp1129
sg17
(lp1130
sg19
(lp1131
sg21
I0
sba(iArchitecture
Entity
p1132
(dp1133
g11
(lp1134
sg13
S'android.database.BulkCursorDescriptor$1'
p1135
sg15
(lp1136
sg17
(lp1137
sg19
(lp1138
sg21
I0
sba(iArchitecture
Entity
p1139
(dp1140
g11
(lp1141
sg13
S'android.database.CharArrayBuffer'
p1142
sg15
(lp1143
sg17
(lp1144
sg19
(lp1145
sg21
I0
sba(iArchitecture
Entity
p1146
(dp1147
g11
(lp1148
sg13
S'android.database.CursorIndexOutOfBoundsException'
p1149
sg15
(lp1150
sg17
(lp1151
sg19
(lp1152
sg21
I0
sba(iArchitecture
Entity
p1153
(dp1154
g11
(lp1155
sg13
S'android.database.CursorWindowAllocationException'
p1156
sg15
(lp1157
sg17
(lp1158
sg19
(lp1159
sg21
I0
sba(iArchitecture
Entity
p1160
(dp1161
g11
(lp1162
sg13
S'android.database.DataSetObserver'
p1163
sg15
(lp1164
sg17
(lp1165
sg19
(lp1166
sg21
I0
sba(iArchitecture
Entity
p1167
(dp1168
g11
(lp1169
sg13
S'android.database.DatabaseErrorHandler'
p1170
sg15
(lp1171
sg17
(lp1172
sg19
(lp1173
sg21
I0
sba(iArchitecture
Entity
p1174
(dp1175
g11
(lp1176
sg13
S'android.database.SQLException'
p1177
sg15
(lp1178
sg17
(lp1179
sg19
(lp1180
sg21
I0
sba(iArchitecture
Entity
p1181
(dp1182
g11
(lp1183
sg13
S'android.database.StaleDataException'
p1184
sg15
(lp1185
sg17
(lp1186
sg19
(lp1187
sg21
I0
sba(iArchitecture
Entity
p1188
(dp1189
g11
(lp1190
sg13
S'android.database.sqlite.DatabaseObjectNotClosedException'
p1191
sg15
(lp1192
sg17
(lp1193
sg19
(lp1194
sg21
I0
sba(iArchitecture
Entity
p1195
(dp1196
g11
(lp1197
sg13
S'android.database.sqlite.SQLiteAbortException'
p1198
sg15
(lp1199
sg17
(lp1200
sg19
(lp1201
sg21
I0
sba(iArchitecture
Entity
p1202
(dp1203
g11
(lp1204
sg13
S'android.database.sqlite.SQLiteAccessPermException'
p1205
sg15
(lp1206
sg17
(lp1207
sg19
(lp1208
sg21
I0
sba(iArchitecture
Entity
p1209
(dp1210
g11
(lp1211
sg13
S'android.database.sqlite.SQLiteBindOrColumnIndexOutOfRangeException'
p1212
sg15
(lp1213
sg17
(lp1214
sg19
(lp1215
sg21
I0
sba(iArchitecture
Entity
p1216
(dp1217
g11
(lp1218
sg13
S'android.database.sqlite.SQLiteBlobTooBigException'
p1219
sg15
(lp1220
sg17
(lp1221
sg19
(lp1222
sg21
I0
sba(iArchitecture
Entity
p1223
(dp1224
g11
(lp1225
sg13
S'android.database.sqlite.SQLiteCantOpenDatabaseException'
p1226
sg15
(lp1227
sg17
(lp1228
sg19
(lp1229
sg21
I0
sba(iArchitecture
Entity
p1230
(dp1231
g11
(lp1232
sg13
S'android.database.sqlite.SQLiteConstraintException'
p1233
sg15
(lp1234
sg17
(lp1235
sg19
(lp1236
sg21
I0
sba(iArchitecture
Entity
p1237
(dp1238
g11
(lp1239
sg13
S'android.database.sqlite.SQLiteCustomFunction'
p1240
sg15
(lp1241
sg17
(lp1242
sg19
(lp1243
sg21
I0
sba(iArchitecture
Entity
p1244
(dp1245
g11
(lp1246
sg13
S'android.database.sqlite.SQLiteDatabaseCorruptException'
p1247
sg15
(lp1248
sg17
(lp1249
sg19
(lp1250
sg21
I0
sba(iArchitecture
Entity
p1251
(dp1252
g11
(lp1253
sg13
S'android.database.sqlite.SQLiteDatabaseLockedException'
p1254
sg15
(lp1255
sg17
(lp1256
sg19
(lp1257
sg21
I0
sba(iArchitecture
Entity
p1258
(dp1259
g11
(lp1260
sg13
S'android.database.sqlite.SQLiteDatatypeMismatchException'
p1261
sg15
(lp1262
sg17
(lp1263
sg19
(lp1264
sg21
I0
sba(iArchitecture
Entity
p1265
(dp1266
g11
(lp1267
sg13
S'android.database.sqlite.SQLiteDiskIOException'
p1268
sg15
(lp1269
sg17
(lp1270
sg19
(lp1271
sg21
I0
sba(iArchitecture
Entity
p1272
(dp1273
g11
(lp1274
sg13
S'android.database.sqlite.SQLiteDoneException'
p1275
sg15
(lp1276
sg17
(lp1277
sg19
(lp1278
sg21
I0
sba(iArchitecture
Entity
p1279
(dp1280
g11
(lp1281
sg13
S'android.database.sqlite.SQLiteException'
p1282
sg15
(lp1283
sg17
(lp1284
sg19
(lp1285
sg21
I0
sba(iArchitecture
Entity
p1286
(dp1287
g11
(lp1288
sg13
S'android.database.sqlite.SQLiteFullException'
p1289
sg15
(lp1290
sg17
(lp1291
sg19
(lp1292
sg21
I0
sba(iArchitecture
Entity
p1293
(dp1294
g11
(lp1295
sg13
S'android.database.sqlite.SQLiteMisuseException'
p1296
sg15
(lp1297
sg17
(lp1298
sg19
(lp1299
sg21
I0
sba(iArchitecture
Entity
p1300
(dp1301
g11
(lp1302
sg13
S'android.database.sqlite.SQLiteOutOfMemoryException'
p1303
sg15
(lp1304
sg17
(lp1305
sg19
(lp1306
sg21
I0
sba(iArchitecture
Entity
p1307
(dp1308
g11
(lp1309
sg13
S'android.database.sqlite.SQLiteReadOnlyDatabaseException'
p1310
sg15
(lp1311
sg17
(lp1312
sg19
(lp1313
sg21
I0
sba(iArchitecture
Entity
p1314
(dp1315
g11
(lp1316
sg13
S'android.database.sqlite.SQLiteStatementInfo'
p1317
sg15
(lp1318
sg17
(lp1319
sg19
(lp1320
sg21
I0
sba(iArchitecture
Entity
p1321
(dp1322
g11
(lp1323
sg13
S'android.database.sqlite.SQLiteTableLockedException'
p1324
sg15
(lp1325
sg17
(lp1326
sg19
(lp1327
sg21
I0
sba(iArchitecture
Entity
p1328
(dp1329
g11
(lp1330
sg13
S'android.database.sqlite.SQLiteTransactionListener'
p1331
sg15
(lp1332
sg17
(lp1333
sg19
(lp1334
sg21
I0
sba(iArchitecture
Entity
p1335
(dp1336
g11
(lp1337
sg13
S'android.filterfw.core.GenerateFieldPort'
p1338
sg15
(lp1339
sg17
(lp1340
sg19
(lp1341
sg21
I0
sba(iArchitecture
Entity
p1342
(dp1343
g11
(lp1344
sg13
S'android.filterfw.core.GenerateFinalPort'
p1345
sg15
(lp1346
sg17
(lp1347
sg19
(lp1348
sg21
I0
sba(iArchitecture
Entity
p1349
(dp1350
g11
(lp1351
sg13
S'android.filterfw.core.GenerateProgramPort'
p1352
sg15
(lp1353
sg17
(lp1354
sg19
(lp1355
sg21
I0
sba(iArchitecture
Entity
p1356
(dp1357
g11
(lp1358
sg13
S'android.filterfw.core.GenerateProgramPorts'
p1359
sg15
(lp1360
sg17
(lp1361
sg19
(lp1362
sg21
I0
sba(iArchitecture
Entity
p1363
(dp1364
g11
(lp1365
sg13
S'android.filterfw.core.MutableFrameFormat'
p1366
sg15
(lp1367
sg17
(lp1368
sg19
(lp1369
sg21
I0
sba(iArchitecture
Entity
p1370
(dp1371
g11
(lp1372
sg13
S'android.filterfw.core.NativeAllocatorTag'
p1373
sg15
(lp1374
sg17
(lp1375
sg19
(lp1376
sg21
I0
sba(iArchitecture
Entity
p1377
(dp1378
g11
(lp1379
sg13
S'android.filterfw.core.ProgramPort'
p1380
sg15
(lp1381
sg17
(lp1382
sg19
(lp1383
sg21
I0
sba(iArchitecture
Entity
p1384
(dp1385
g11
(lp1386
sg13
S'android.filterfw.core.ProtocolException'
p1387
sg15
(lp1388
sg17
(lp1389
sg19
(lp1390
sg21
I0
sba(iArchitecture
Entity
p1391
(dp1392
g11
(lp1393
sg13
S'android.filterfw.core.Scheduler'
p1394
sg15
(lp1395
sg17
(lp1396
sg19
(lp1397
sg21
I0
sba(iArchitecture
Entity
p1398
(dp1399
g11
(lp1400
sg13
S'android.filterfw.core.SimpleScheduler'
p1401
sg15
(lp1402
sg17
(lp1403
sg19
(lp1404
sg21
I0
sba(iArchitecture
Entity
p1405
(dp1406
g11
(lp1407
sg13
S'android.filterfw.geometry.Quad'
p1408
sg15
(lp1409
sg17
(lp1410
sg19
(lp1411
sg21
I0
sba(iArchitecture
Entity
p1412
(dp1413
g11
(lp1414
sg13
S'android.filterfw.io.GraphIOException'
p1415
sg15
(lp1416
sg17
(lp1417
sg19
(lp1418
sg21
I0
sba(iArchitecture
Entity
p1419
(dp1420
g11
(lp1421
sg13
S'android.filterpacks.base.FrameStore'
p1422
sg15
(lp1423
sg17
(lp1424
sg19
(lp1425
sg21
I0
sba(iArchitecture
Entity
p1426
(dp1427
g11
(lp1428
sg13
S'android.filterpacks.base.NullFilter'
p1429
sg15
(lp1430
sg17
(lp1431
sg19
(lp1432
sg21
I0
sba(iArchitecture
Entity
p1433
(dp1434
g11
(lp1435
sg13
S'android.gesture.GestureConstants'
p1436
sg15
(lp1437
sg17
(lp1438
sg19
(lp1439
sg21
I0
sba(iArchitecture
Entity
p1440
(dp1441
g11
(lp1442
sg13
S'android.gesture.Learner'
p1443
sg15
(lp1444
sg17
(lp1445
sg19
(lp1446
sg21
I0
sba(iArchitecture
Entity
p1447
(dp1448
g11
(lp1449
sg13
S'android.gesture.Prediction'
p1450
sg15
(lp1451
sg17
(lp1452
sg19
(lp1453
sg21
I0
sba(iArchitecture
Entity
p1454
(dp1455
g11
(lp1456
sg13
S'android.graphics.ColorFilter'
p1457
sg15
(lp1458
sg17
(lp1459
sg19
(lp1460
sg21
I0
sba(iArchitecture
Entity
p1461
(dp1462
g11
(lp1463
sg13
S'android.graphics.ComposePathEffect'
p1464
sg15
(lp1465
sg17
(lp1466
sg19
(lp1467
sg21
I0
sba(iArchitecture
Entity
p1468
(dp1469
g11
(lp1470
sg13
S'android.graphics.CornerPathEffect'
p1471
sg15
(lp1472
sg17
(lp1473
sg19
(lp1474
sg21
I0
sba(iArchitecture
Entity
p1475
(dp1476
g11
(lp1477
sg13
S'android.graphics.DiscretePathEffect'
p1478
sg15
(lp1479
sg17
(lp1480
sg19
(lp1481
sg21
I0
sba(iArchitecture
Entity
p1482
(dp1483
g11
(lp1484
sg13
S'android.graphics.DrawFilter'
p1485
sg15
(lp1486
sg17
(lp1487
sg19
(lp1488
sg21
I0
sba(iArchitecture
Entity
p1489
(dp1490
g11
(lp1491
sg13
S'android.graphics.ImageFormat'
p1492
sg15
(lp1493
sg17
(lp1494
sg19
(lp1495
sg21
I0
sba(iArchitecture
Entity
p1496
(dp1497
g11
(lp1498
sg13
S'android.graphics.LayerRasterizer'
p1499
sg15
(lp1500
sg17
(lp1501
sg19
(lp1502
sg21
I0
sba(iArchitecture
Entity
p1503
(dp1504
g11
(lp1505
sg13
S'android.graphics.MaskFilter'
p1506
sg15
(lp1507
sg17
(lp1508
sg19
(lp1509
sg21
I0
sba(iArchitecture
Entity
p1510
(dp1511
g11
(lp1512
sg13
S'android.graphics.PathEffect'
p1513
sg15
(lp1514
sg17
(lp1515
sg19
(lp1516
sg21
I0
sba(iArchitecture
Entity
p1517
(dp1518
g11
(lp1519
sg13
S'android.graphics.PixelXorXfermode'
p1520
sg15
(lp1521
sg17
(lp1522
sg19
(lp1523
sg21
I0
sba(iArchitecture
Entity
p1524
(dp1525
g11
(lp1526
sg13
S'android.graphics.Point'
p1527
sg15
(lp1528
sg17
(lp1529
sg19
(lp1530
sg21
I0
sba(iArchitecture
Entity
p1531
(dp1532
g11
(lp1533
sg13
S'android.graphics.Point$1'
p1534
sg15
(lp1535
sg17
(lp1536
sg19
(lp1537
sg21
I0
sba(iArchitecture
Entity
p1538
(dp1539
g11
(lp1540
sg13
S'android.graphics.PointF'
p1541
sg15
(lp1542
sg17
(lp1543
sg19
(lp1544
sg21
I0
sba(iArchitecture
Entity
p1545
(dp1546
g11
(lp1547
sg13
S'android.graphics.PointF$1'
p1548
sg15
(lp1549
sg17
(lp1550
sg19
(lp1551
sg21
I0
sba(iArchitecture
Entity
p1552
(dp1553
g11
(lp1554
sg13
S'android.graphics.Rasterizer'
p1555
sg15
(lp1556
sg17
(lp1557
sg19
(lp1558
sg21
I0
sba(iArchitecture
Entity
p1559
(dp1560
g11
(lp1561
sg13
S'android.graphics.SumPathEffect'
p1562
sg15
(lp1563
sg17
(lp1564
sg19
(lp1565
sg21
I0
sba(iArchitecture
Entity
p1566
(dp1567
g11
(lp1568
sg13
S'android.graphics.Xfermode'
p1569
sg15
(lp1570
sg17
(lp1571
sg19
(lp1572
sg21
I0
sba(iArchitecture
Entity
p1573
(dp1574
g11
(lp1575
sg13
S'android.graphics.drawable.Animatable'
p1576
sg15
(lp1577
sg17
(lp1578
sg19
(lp1579
sg21
I0
sba(iArchitecture
Entity
p1580
(dp1581
g11
(lp1582
sg13
S'android.graphics.drawable.Animatable2'
p1583
sg15
(lp1584
sg17
(lp1585
sg19
(lp1586
sg21
I0
sba(iArchitecture
Entity
p1587
(dp1588
g11
(lp1589
sg13
S'android.graphics.drawable.Animatable2$AnimationCallback'
p1590
sg15
(lp1591
sg17
(lp1592
sg19
(lp1593
sg21
I0
sba(iArchitecture
Entity
p1594
(dp1595
g11
(lp1596
sg13
S'android.hardware.Camera'
p1597
sg15
(lp1598
sg17
(lp1599
sg19
(lp1600
sg21
I0
sba(iArchitecture
Entity
p1601
(dp1602
g11
(lp1603
sg13
S'android.hardware.Camera$Area'
p1604
sg15
(lp1605
sg17
(lp1606
sg19
(lp1607
sg21
I0
sba(iArchitecture
Entity
p1608
(dp1609
g11
(lp1610
sg13
S'android.hardware.Camera$AutoFocusCallback'
p1611
sg15
(lp1612
sg17
(lp1613
sg19
(lp1614
sg21
I0
sba(iArchitecture
Entity
p1615
(dp1616
g11
(lp1617
sg13
S'android.hardware.Camera$AutoFocusMoveCallback'
p1618
sg15
(lp1619
sg17
(lp1620
sg19
(lp1621
sg21
I0
sba(iArchitecture
Entity
p1622
(dp1623
g11
(lp1624
sg13
S'android.hardware.Camera$CameraInfo'
p1625
sg15
(lp1626
sg17
(lp1627
sg19
(lp1628
sg21
I0
sba(iArchitecture
Entity
p1629
(dp1630
g11
(lp1631
sg13
S'android.hardware.Camera$ErrorCallback'
p1632
sg15
(lp1633
sg17
(lp1634
sg19
(lp1635
sg21
I0
sba(iArchitecture
Entity
p1636
(dp1637
g11
(lp1638
sg13
S'android.hardware.Camera$EventHandler'
p1639
sg15
(lp1640
sg17
(lp1641
sg19
(lp1642
sg21
I0
sba(iArchitecture
Entity
p1643
(dp1644
g11
(lp1645
sg13
S'android.hardware.Camera$Face'
p1646
sg15
(lp1647
sg17
(lp1648
sg19
(lp1649
sg21
I0
sba(iArchitecture
Entity
p1650
(dp1651
g11
(lp1652
sg13
S'android.hardware.Camera$FaceDetectionListener'
p1653
sg15
(lp1654
sg17
(lp1655
sg19
(lp1656
sg21
I0
sba(iArchitecture
Entity
p1657
(dp1658
g11
(lp1659
sg13
S'android.hardware.Camera$OnZoomChangeListener'
p1660
sg15
(lp1661
sg17
(lp1662
sg19
(lp1663
sg21
I0
sba(iArchitecture
Entity
p1664
(dp1665
g11
(lp1666
sg13
S'android.hardware.Camera$Parameters'
p1667
sg15
(lp1668
sg17
(lp1669
sg19
(lp1670
sg21
I0
sba(iArchitecture
Entity
p1671
(dp1672
g11
(lp1673
sg13
S'android.hardware.Camera$PictureCallback'
p1674
sg15
(lp1675
sg17
(lp1676
sg19
(lp1677
sg21
I0
sba(iArchitecture
Entity
p1678
(dp1679
g11
(lp1680
sg13
S'android.hardware.Camera$PreviewCallback'
p1681
sg15
(lp1682
sg17
(lp1683
sg19
(lp1684
sg21
I0
sba(iArchitecture
Entity
p1685
(dp1686
g11
(lp1687
sg13
S'android.hardware.Camera$ShutterCallback'
p1688
sg15
(lp1689
sg17
(lp1690
sg19
(lp1691
sg21
I0
sba(iArchitecture
Entity
p1692
(dp1693
g11
(lp1694
sg13
S'android.hardware.Camera$Size'
p1695
sg15
(lp1696
sg17
(lp1697
sg19
(lp1698
sg21
I0
sba(iArchitecture
Entity
p1699
(dp1700
g11
(lp1701
sg13
S'android.hardware.camera2.CameraCaptureSession'
p1702
sg15
(lp1703
sg17
(lp1704
sg19
(lp1705
sg21
I0
sba(iArchitecture
Entity
p1706
(dp1707
g11
(lp1708
sg13
S'android.hardware.camera2.CameraCaptureSession$CaptureCallback'
p1709
sg15
(lp1710
sg17
(lp1711
sg19
(lp1712
sg21
I0
sba(iArchitecture
Entity
p1713
(dp1714
g11
(lp1715
sg13
S'android.hardware.camera2.CameraCaptureSession$CaptureListener'
p1716
sg15
(lp1717
sg17
(lp1718
sg19
(lp1719
sg21
I0
sba(iArchitecture
Entity
p1720
(dp1721
g11
(lp1722
sg13
S'android.hardware.camera2.CameraCaptureSession$StateCallback'
p1723
sg15
(lp1724
sg17
(lp1725
sg19
(lp1726
sg21
I0
sba(iArchitecture
Entity
p1727
(dp1728
g11
(lp1729
sg13
S'android.hardware.camera2.CameraCaptureSession$StateListener'
p1730
sg15
(lp1731
sg17
(lp1732
sg19
(lp1733
sg21
I0
sba(iArchitecture
Entity
p1734
(dp1735
g11
(lp1736
sg13
S'android.hardware.camera2.CameraCharacteristics'
p1737
sg15
(lp1738
sg17
(lp1739
sg19
(lp1740
sg21
I0
sba(iArchitecture
Entity
p1741
(dp1742
g11
(lp1743
sg13
S'android.hardware.camera2.CameraCharacteristics$1'
p1744
sg15
(lp1745
sg17
(lp1746
sg19
(lp1747
sg21
I0
sba(iArchitecture
Entity
p1748
(dp1749
g11
(lp1750
sg13
S'android.hardware.camera2.CameraCharacteristics$2'
p1751
sg15
(lp1752
sg17
(lp1753
sg19
(lp1754
sg21
I0
sba(iArchitecture
Entity
p1755
(dp1756
g11
(lp1757
sg13
S'android.hardware.camera2.CameraCharacteristics$3'
p1758
sg15
(lp1759
sg17
(lp1760
sg19
(lp1761
sg21
I0
sba(iArchitecture
Entity
p1762
(dp1763
g11
(lp1764
sg13
S'android.hardware.camera2.CameraCharacteristics$4'
p1765
sg15
(lp1766
sg17
(lp1767
sg19
(lp1768
sg21
I0
sba(iArchitecture
Entity
p1769
(dp1770
g11
(lp1771
sg13
S'android.hardware.camera2.CameraCharacteristics$Key'
p1772
sg15
(lp1773
sg17
(lp1774
sg19
(lp1775
sg21
I0
sba(iArchitecture
Entity
p1776
(dp1777
g11
(lp1778
sg13
S'android.hardware.camera2.CameraDevice'
p1779
sg15
(lp1780
sg17
(lp1781
sg19
(lp1782
sg21
I0
sba(iArchitecture
Entity
p1783
(dp1784
g11
(lp1785
sg13
S'android.hardware.camera2.CameraDevice$StateCallback'
p1786
sg15
(lp1787
sg17
(lp1788
sg19
(lp1789
sg21
I0
sba(iArchitecture
Entity
p1790
(dp1791
g11
(lp1792
sg13
S'android.hardware.camera2.CameraDevice$StateListener'
p1793
sg15
(lp1794
sg17
(lp1795
sg19
(lp1796
sg21
I0
sba(iArchitecture
Entity
p1797
(dp1798
g11
(lp1799
sg13
S'android.hardware.camera2.CameraMetadata'
p1800
sg15
(lp1801
sg17
(lp1802
sg19
(lp1803
sg21
I0
sba(iArchitecture
Entity
p1804
(dp1805
g11
(lp1806
sg13
S'android.hardware.camera2.CaptureRequest'
p1807
sg15
(lp1808
sg17
(lp1809
sg19
(lp1810
sg21
I0
sba(iArchitecture
Entity
p1811
(dp1812
g11
(lp1813
sg13
S'android.hardware.camera2.CaptureRequest$1'
p1814
sg15
(lp1815
sg17
(lp1816
sg19
(lp1817
sg21
I0
sba(iArchitecture
Entity
p1818
(dp1819
g11
(lp1820
sg13
S'android.hardware.camera2.CaptureRequest$2'
p1821
sg15
(lp1822
sg17
(lp1823
sg19
(lp1824
sg21
I0
sba(iArchitecture
Entity
p1825
(dp1826
g11
(lp1827
sg13
S'android.hardware.camera2.CaptureRequest$Builder'
p1828
sg15
(lp1829
sg17
(lp1830
sg19
(lp1831
sg21
I0
sba(iArchitecture
Entity
p1832
(dp1833
g11
(lp1834
sg13
S'android.hardware.camera2.CaptureRequest$Key'
p1835
sg15
(lp1836
sg17
(lp1837
sg19
(lp1838
sg21
I0
sba(iArchitecture
Entity
p1839
(dp1840
g11
(lp1841
sg13
S'android.hardware.camera2.CaptureResult'
p1842
sg15
(lp1843
sg17
(lp1844
sg19
(lp1845
sg21
I0
sba(iArchitecture
Entity
p1846
(dp1847
g11
(lp1848
sg13
S'android.hardware.camera2.CaptureResult$1'
p1849
sg15
(lp1850
sg17
(lp1851
sg19
(lp1852
sg21
I0
sba(iArchitecture
Entity
p1853
(dp1854
g11
(lp1855
sg13
S'android.hardware.camera2.CaptureResult$2'
p1856
sg15
(lp1857
sg17
(lp1858
sg19
(lp1859
sg21
I0
sba(iArchitecture
Entity
p1860
(dp1861
g11
(lp1862
sg13
S'android.hardware.camera2.CaptureResult$3'
p1863
sg15
(lp1864
sg17
(lp1865
sg19
(lp1866
sg21
I0
sba(iArchitecture
Entity
p1867
(dp1868
g11
(lp1869
sg13
S'android.hardware.camera2.CaptureResult$Key'
p1870
sg15
(lp1871
sg17
(lp1872
sg19
(lp1873
sg21
I0
sba(iArchitecture
Entity
p1874
(dp1875
g11
(lp1876
sg13
S'android.hardware.camera2.dispatch.Dispatchable'
p1877
sg15
(lp1878
sg17
(lp1879
sg19
(lp1880
sg21
I0
sba(iArchitecture
Entity
p1881
(dp1882
g11
(lp1883
sg13
S'android.hardware.camera2.dispatch.InvokeDispatcher'
p1884
sg15
(lp1885
sg17
(lp1886
sg19
(lp1887
sg21
I0
sba(iArchitecture
Entity
p1888
(dp1889
g11
(lp1890
sg13
S'android.hardware.camera2.dispatch.NullDispatcher'
p1891
sg15
(lp1892
sg17
(lp1893
sg19
(lp1894
sg21
I0
sba(iArchitecture
Entity
p1895
(dp1896
g11
(lp1897
sg13
S'android.hardware.camera2.impl.CameraCaptureSessionImpl'
p1898
sg15
(lp1899
sg17
(lp1900
sg19
(lp1901
sg21
I0
sba(iArchitecture
Entity
p1902
(dp1903
g11
(lp1904
sg13
S'android.hardware.camera2.impl.CameraCaptureSessionImpl$1'
p1905
sg15
(lp1906
sg17
(lp1907
sg19
(lp1908
sg21
I0
sba(iArchitecture
Entity
p1909
(dp1910
g11
(lp1911
sg13
S'android.hardware.camera2.impl.CameraCaptureSessionImpl$2'
p1912
sg15
(lp1913
sg17
(lp1914
sg19
(lp1915
sg21
I0
sba(iArchitecture
Entity
p1916
(dp1917
g11
(lp1918
sg13
S'android.hardware.camera2.impl.CameraCaptureSessionImpl$AbortDrainListener'
p1919
sg15
(lp1920
sg17
(lp1921
sg19
(lp1922
sg21
I0
sba(iArchitecture
Entity
p1923
(dp1924
g11
(lp1925
sg13
S'android.hardware.camera2.impl.CameraCaptureSessionImpl$IdleDrainListener'
p1926
sg15
(lp1927
sg17
(lp1928
sg19
(lp1929
sg21
I0
sba(iArchitecture
Entity
p1930
(dp1931
g11
(lp1932
sg13
S'android.hardware.camera2.impl.CameraCaptureSessionImpl$SequenceDrainListener'
p1933
sg15
(lp1934
sg17
(lp1935
sg19
(lp1936
sg21
I0
sba(iArchitecture
Entity
p1937
(dp1938
g11
(lp1939
sg13
S'android.hardware.camera2.impl.CameraConstrainedHighSpeedCaptureSessionImpl'
p1940
sg15
(lp1941
sg17
(lp1942
sg19
(lp1943
sg21
I0
sba(iArchitecture
Entity
p1944
(dp1945
g11
(lp1946
sg13
S'android.hardware.camera2.impl.CameraConstrainedHighSpeedCaptureSessionImpl$WrapperCallback'
p1947
sg15
(lp1948
sg17
(lp1949
sg19
(lp1950
sg21
I0
sba(iArchitecture
Entity
p1951
(dp1952
g11
(lp1953
sg13
S'android.hardware.camera2.impl.CameraDeviceImpl'
p1954
sg15
(lp1955
sg17
(lp1956
sg19
(lp1957
sg21
I0
sba(iArchitecture
Entity
p1958
(dp1959
g11
(lp1960
sg13
S'android.hardware.camera2.impl.CameraDeviceImpl$1'
p1961
sg15
(lp1962
sg17
(lp1963
sg19
(lp1964
sg21
I0
sba(iArchitecture
Entity
p1965
(dp1966
g11
(lp1967
sg13
S'android.hardware.camera2.impl.CameraDeviceImpl$10'
p1968
sg15
(lp1969
sg17
(lp1970
sg19
(lp1971
sg21
I0
sba(iArchitecture
Entity
p1972
(dp1973
g11
(lp1974
sg13
S'android.hardware.camera2.impl.CameraDeviceImpl$2'
p1975
sg15
(lp1976
sg17
(lp1977
sg19
(lp1978
sg21
I0
sba(iArchitecture
Entity
p1979
(dp1980
g11
(lp1981
sg13
S'android.hardware.camera2.impl.CameraDeviceImpl$3'
p1982
sg15
(lp1983
sg17
(lp1984
sg19
(lp1985
sg21
I0
sba(iArchitecture
Entity
p1986
(dp1987
g11
(lp1988
sg13
S'android.hardware.camera2.impl.CameraDeviceImpl$4'
p1989
sg15
(lp1990
sg17
(lp1991
sg19
(lp1992
sg21
I0
sba(iArchitecture
Entity
p1993
(dp1994
g11
(lp1995
sg13
S'android.hardware.camera2.impl.CameraDeviceImpl$5'
p1996
sg15
(lp1997
sg17
(lp1998
sg19
(lp1999
sg21
I0
sba(iArchitecture
Entity
p2000
(dp2001
g11
(lp2002
sg13
S'android.hardware.camera2.impl.CameraDeviceImpl$6'
p2003
sg15
(lp2004
sg17
(lp2005
sg19
(lp2006
sg21
I0
sba(iArchitecture
Entity
p2007
(dp2008
g11
(lp2009
sg13
S'android.hardware.camera2.impl.CameraDeviceImpl$7'
p2010
sg15
(lp2011
sg17
(lp2012
sg19
(lp2013
sg21
I0
sba(iArchitecture
Entity
p2014
(dp2015
g11
(lp2016
sg13
S'android.hardware.camera2.impl.CameraDeviceImpl$8'
p2017
sg15
(lp2018
sg17
(lp2019
sg19
(lp2020
sg21
I0
sba(iArchitecture
Entity
p2021
(dp2022
g11
(lp2023
sg13
S'android.hardware.camera2.impl.CameraDeviceImpl$9'
p2024
sg15
(lp2025
sg17
(lp2026
sg19
(lp2027
sg21
I0
sba(iArchitecture
Entity
p2028
(dp2029
g11
(lp2030
sg13
S'android.hardware.camera2.impl.CameraDeviceImpl$CameraDeviceCallbacks'
p2031
sg15
(lp2032
sg17
(lp2033
sg19
(lp2034
sg21
I0
sba(iArchitecture
Entity
p2035
(dp2036
g11
(lp2037
sg13
S'android.hardware.camera2.impl.CameraDeviceImpl$CameraDeviceCallbacks$1'
p2038
sg15
(lp2039
sg17
(lp2040
sg19
(lp2041
sg21
I0
sba(iArchitecture
Entity
p2042
(dp2043
g11
(lp2044
sg13
S'android.hardware.camera2.impl.CameraDeviceImpl$CameraDeviceCallbacks$2'
p2045
sg15
(lp2046
sg17
(lp2047
sg19
(lp2048
sg21
I0
sba(iArchitecture
Entity
p2049
(dp2050
g11
(lp2051
sg13
S'android.hardware.camera2.impl.CameraDeviceImpl$CameraDeviceCallbacks$3'
p2052
sg15
(lp2053
sg17
(lp2054
sg19
(lp2055
sg21
I0
sba(iArchitecture
Entity
p2056
(dp2057
g11
(lp2058
sg13
S'android.hardware.camera2.impl.CameraDeviceImpl$CameraDeviceCallbacks$4'
p2059
sg15
(lp2060
sg17
(lp2061
sg19
(lp2062
sg21
I0
sba(iArchitecture
Entity
p2063
(dp2064
g11
(lp2065
sg13
S'android.hardware.camera2.impl.CameraDeviceImpl$CameraDeviceCallbacks$5'
p2066
sg15
(lp2067
sg17
(lp2068
sg19
(lp2069
sg21
I0
sba(iArchitecture
Entity
p2070
(dp2071
g11
(lp2072
sg13
S'android.hardware.camera2.impl.CameraDeviceImpl$CaptureCallback'
p2073
sg15
(lp2074
sg17
(lp2075
sg19
(lp2076
sg21
I0
sba(iArchitecture
Entity
p2077
(dp2078
g11
(lp2079
sg13
S'android.hardware.camera2.impl.CameraDeviceImpl$CaptureCallbackHolder'
p2080
sg15
(lp2081
sg17
(lp2082
sg19
(lp2083
sg21
I0
sba(iArchitecture
Entity
p2084
(dp2085
g11
(lp2086
sg13
S'android.hardware.camera2.impl.CameraDeviceImpl$FrameNumberTracker'
p2087
sg15
(lp2088
sg17
(lp2089
sg19
(lp2090
sg21
I0
sba(iArchitecture
Entity
p2091
(dp2092
g11
(lp2093
sg13
S'android.hardware.camera2.impl.CameraDeviceImpl$RequestLastFrameNumbersHolder'
p2094
sg15
(lp2095
sg17
(lp2096
sg19
(lp2097
sg21
I0
sba(iArchitecture
Entity
p2098
(dp2099
g11
(lp2100
sg13
S'android.hardware.camera2.impl.CameraDeviceImpl$StateCallbackKK'
p2101
sg15
(lp2102
sg17
(lp2103
sg19
(lp2104
sg21
I0
sba(iArchitecture
Entity
p2105
(dp2106
g11
(lp2107
sg13
S'android.hardware.camera2.impl.PublicKey'
p2108
sg15
(lp2109
sg17
(lp2110
sg19
(lp2111
sg21
I0
sba(iArchitecture
Entity
p2112
(dp2113
g11
(lp2114
sg13
S'android.hardware.camera2.impl.SyntheticKey'
p2115
sg15
(lp2116
sg17
(lp2117
sg19
(lp2118
sg21
I0
sba(iArchitecture
Entity
p2119
(dp2120
g11
(lp2121
sg13
S'android.hardware.camera2.legacy.CameraDeviceUserShim'
p2122
sg15
(lp2123
sg17
(lp2124
sg19
(lp2125
sg21
I0
sba(iArchitecture
Entity
p2126
(dp2127
g11
(lp2128
sg13
S'android.hardware.camera2.legacy.CameraDeviceUserShim$CameraCallbackThread'
p2129
sg15
(lp2130
sg17
(lp2131
sg19
(lp2132
sg21
I0
sba(iArchitecture
Entity
p2133
(dp2134
g11
(lp2135
sg13
S'android.hardware.camera2.legacy.CameraDeviceUserShim$CameraCallbackThread$CallbackHandler'
p2136
sg15
(lp2137
sg17
(lp2138
sg19
(lp2139
sg21
I0
sba(iArchitecture
Entity
p2140
(dp2141
g11
(lp2142
sg13
S'android.hardware.camera2.legacy.CameraDeviceUserShim$CameraLooper'
p2143
sg15
(lp2144
sg17
(lp2145
sg19
(lp2146
sg21
I0
sba(iArchitecture
Entity
p2147
(dp2148
g11
(lp2149
sg13
S'android.hardware.camera2.legacy.LegacyCameraDevice'
p2150
sg15
(lp2151
sg17
(lp2152
sg19
(lp2153
sg21
I0
sba(iArchitecture
Entity
p2154
(dp2155
g11
(lp2156
sg13
S'android.hardware.camera2.legacy.LegacyCameraDevice$1'
p2157
sg15
(lp2158
sg17
(lp2159
sg19
(lp2160
sg21
I0
sba(iArchitecture
Entity
p2161
(dp2162
g11
(lp2163
sg13
S'android.hardware.camera2.legacy.LegacyCameraDevice$1$1'
p2164
sg15
(lp2165
sg17
(lp2166
sg19
(lp2167
sg21
I0
sba(iArchitecture
Entity
p2168
(dp2169
g11
(lp2170
sg13
S'android.hardware.camera2.legacy.LegacyCameraDevice$1$2'
p2171
sg15
(lp2172
sg17
(lp2173
sg19
(lp2174
sg21
I0
sba(iArchitecture
Entity
p2175
(dp2176
g11
(lp2177
sg13
S'android.hardware.camera2.legacy.LegacyCameraDevice$1$3'
p2178
sg15
(lp2179
sg17
(lp2180
sg19
(lp2181
sg21
I0
sba(iArchitecture
Entity
p2182
(dp2183
g11
(lp2184
sg13
S'android.hardware.camera2.legacy.LegacyCameraDevice$1$4'
p2185
sg15
(lp2186
sg17
(lp2187
sg19
(lp2188
sg21
I0
sba(iArchitecture
Entity
p2189
(dp2190
g11
(lp2191
sg13
S'android.hardware.camera2.legacy.LegacyMetadataMapper'
p2192
sg15
(lp2193
sg17
(lp2194
sg19
(lp2195
sg21
I0
sba(iArchitecture
Entity
p2196
(dp2197
g11
(lp2198
sg13
S'android.hardware.camera2.legacy.LegacyRequestMapper'
p2199
sg15
(lp2200
sg17
(lp2201
sg19
(lp2202
sg21
I0
sba(iArchitecture
Entity
p2203
(dp2204
g11
(lp2205
sg13
S'android.hardware.camera2.legacy.LegacyResultMapper'
p2206
sg15
(lp2207
sg17
(lp2208
sg19
(lp2209
sg21
I0
sba(iArchitecture
Entity
p2210
(dp2211
g11
(lp2212
sg13
S'android.hardware.camera2.legacy.ParameterUtils'
p2213
sg15
(lp2214
sg17
(lp2215
sg19
(lp2216
sg21
I0
sba(iArchitecture
Entity
p2217
(dp2218
g11
(lp2219
sg13
S'android.hardware.camera2.legacy.ParameterUtils$MeteringData'
p2220
sg15
(lp2221
sg17
(lp2222
sg19
(lp2223
sg21
I0
sba(iArchitecture
Entity
p2224
(dp2225
g11
(lp2226
sg13
S'android.hardware.camera2.legacy.ParameterUtils$WeightedRectangle'
p2227
sg15
(lp2228
sg17
(lp2229
sg19
(lp2230
sg21
I0
sba(iArchitecture
Entity
p2231
(dp2232
g11
(lp2233
sg13
S'android.hardware.camera2.legacy.ParameterUtils$ZoomData'
p2234
sg15
(lp2235
sg17
(lp2236
sg19
(lp2237
sg21
I0
sba(iArchitecture
Entity
p2238
(dp2239
g11
(lp2240
sg13
S'android.hardware.camera2.legacy.RequestThreadManager'
p2241
sg15
(lp2242
sg17
(lp2243
sg19
(lp2244
sg21
I0
sba(iArchitecture
Entity
p2245
(dp2246
g11
(lp2247
sg13
S'android.hardware.camera2.legacy.RequestThreadManager$1'
p2248
sg15
(lp2249
sg17
(lp2250
sg19
(lp2251
sg21
I0
sba(iArchitecture
Entity
p2252
(dp2253
g11
(lp2254
sg13
S'android.hardware.camera2.legacy.RequestThreadManager$2'
p2255
sg15
(lp2256
sg17
(lp2257
sg19
(lp2258
sg21
I0
sba(iArchitecture
Entity
p2259
(dp2260
g11
(lp2261
sg13
S'android.hardware.camera2.legacy.RequestThreadManager$3'
p2262
sg15
(lp2263
sg17
(lp2264
sg19
(lp2265
sg21
I0
sba(iArchitecture
Entity
p2266
(dp2267
g11
(lp2268
sg13
S'android.hardware.camera2.legacy.RequestThreadManager$4'
p2269
sg15
(lp2270
sg17
(lp2271
sg19
(lp2272
sg21
I0
sba(iArchitecture
Entity
p2273
(dp2274
g11
(lp2275
sg13
S'android.hardware.camera2.legacy.RequestThreadManager$5'
p2276
sg15
(lp2277
sg17
(lp2278
sg19
(lp2279
sg21
I0
sba(iArchitecture
Entity
p2280
(dp2281
g11
(lp2282
sg13
S'android.hardware.camera2.legacy.RequestThreadManager$ConfigureHolder'
p2283
sg15
(lp2284
sg17
(lp2285
sg19
(lp2286
sg21
I0
sba(iArchitecture
Entity
p2287
(dp2288
g11
(lp2289
sg13
S'android.hardware.camera2.legacy.RequestThreadManager$FpsCounter'
p2290
sg15
(lp2291
sg17
(lp2292
sg19
(lp2293
sg21
I0
sba(iArchitecture
Entity
p2294
(dp2295
g11
(lp2296
sg13
S'android.hardware.camera2.marshal.MarshalQueryable'
p2297
sg15
(lp2298
sg17
(lp2299
sg19
(lp2300
sg21
I0
sba(iArchitecture
Entity
p2301
(dp2302
g11
(lp2303
sg13
S'android.hardware.camera2.marshal.Marshaler'
p2304
sg15
(lp2305
sg17
(lp2306
sg19
(lp2307
sg21
I0
sba(iArchitecture
Entity
p2308
(dp2309
g11
(lp2310
sg13
S'android.hardware.camera2.marshal.impl.MarshalQueryableBoolean'
p2311
sg15
(lp2312
sg17
(lp2313
sg19
(lp2314
sg21
I0
sba(iArchitecture
Entity
p2315
(dp2316
g11
(lp2317
sg13
S'android.hardware.camera2.marshal.impl.MarshalQueryableBoolean$MarshalerBoolean'
p2318
sg15
(lp2319
sg17
(lp2320
sg19
(lp2321
sg21
I0
sba(iArchitecture
Entity
p2322
(dp2323
g11
(lp2324
sg13
S'android.hardware.camera2.marshal.impl.MarshalQueryableEnum'
p2325
sg15
(lp2326
sg17
(lp2327
sg19
(lp2328
sg21
I0
sba(iArchitecture
Entity
p2329
(dp2330
g11
(lp2331
sg13
S'android.hardware.camera2.marshal.impl.MarshalQueryableEnum$MarshalerEnum'
p2332
sg15
(lp2333
sg17
(lp2334
sg19
(lp2335
sg21
I0
sba(iArchitecture
Entity
p2336
(dp2337
g11
(lp2338
sg13
S'android.hardware.camera2.marshal.impl.MarshalQueryableNativeByteToInteger'
p2339
sg15
(lp2340
sg17
(lp2341
sg19
(lp2342
sg21
I0
sba(iArchitecture
Entity
p2343
(dp2344
g11
(lp2345
sg13
S'android.hardware.camera2.marshal.impl.MarshalQueryableNativeByteToInteger$MarshalerNativeByteToInteger'
p2346
sg15
(lp2347
sg17
(lp2348
sg19
(lp2349
sg21
I0
sba(iArchitecture
Entity
p2350
(dp2351
g11
(lp2352
sg13
S'android.hardware.camera2.marshal.impl.MarshalQueryablePair'
p2353
sg15
(lp2354
sg17
(lp2355
sg19
(lp2356
sg21
I0
sba(iArchitecture
Entity
p2357
(dp2358
g11
(lp2359
sg13
S'android.hardware.camera2.marshal.impl.MarshalQueryablePair$MarshalerPair'
p2360
sg15
(lp2361
sg17
(lp2362
sg19
(lp2363
sg21
I0
sba(iArchitecture
Entity
p2364
(dp2365
g11
(lp2366
sg13
S'android.hardware.camera2.marshal.impl.MarshalQueryableRange'
p2367
sg15
(lp2368
sg17
(lp2369
sg19
(lp2370
sg21
I0
sba(iArchitecture
Entity
p2371
(dp2372
g11
(lp2373
sg13
S'android.hardware.camera2.marshal.impl.MarshalQueryableRange$MarshalerRange'
p2374
sg15
(lp2375
sg17
(lp2376
sg19
(lp2377
sg21
I0
sba(iArchitecture
Entity
p2378
(dp2379
g11
(lp2380
sg13
S'android.hardware.camera2.marshal.impl.MarshalQueryableRect'
p2381
sg15
(lp2382
sg17
(lp2383
sg19
(lp2384
sg21
I0
sba(iArchitecture
Entity
p2385
(dp2386
g11
(lp2387
sg13
S'android.hardware.camera2.marshal.impl.MarshalQueryableRect$MarshalerRect'
p2388
sg15
(lp2389
sg17
(lp2390
sg19
(lp2391
sg21
I0
sba(iArchitecture
Entity
p2392
(dp2393
g11
(lp2394
sg13
S'android.hardware.camera2.marshal.impl.MarshalQueryableSize'
p2395
sg15
(lp2396
sg17
(lp2397
sg19
(lp2398
sg21
I0
sba(iArchitecture
Entity
p2399
(dp2400
g11
(lp2401
sg13
S'android.hardware.camera2.marshal.impl.MarshalQueryableSize$MarshalerSize'
p2402
sg15
(lp2403
sg17
(lp2404
sg19
(lp2405
sg21
I0
sba(iArchitecture
Entity
p2406
(dp2407
g11
(lp2408
sg13
S'android.hardware.camera2.marshal.impl.MarshalQueryableSizeF'
p2409
sg15
(lp2410
sg17
(lp2411
sg19
(lp2412
sg21
I0
sba(iArchitecture
Entity
p2413
(dp2414
g11
(lp2415
sg13
S'android.hardware.camera2.marshal.impl.MarshalQueryableSizeF$MarshalerSizeF'
p2416
sg15
(lp2417
sg17
(lp2418
sg19
(lp2419
sg21
I0
sba(iArchitecture
Entity
p2420
(dp2421
g11
(lp2422
sg13
S'android.hardware.camera2.marshal.impl.MarshalQueryableString'
p2423
sg15
(lp2424
sg17
(lp2425
sg19
(lp2426
sg21
I0
sba(iArchitecture
Entity
p2427
(dp2428
g11
(lp2429
sg13
S'android.hardware.camera2.marshal.impl.MarshalQueryableString$MarshalerString'
p2430
sg15
(lp2431
sg17
(lp2432
sg19
(lp2433
sg21
I0
sba(iArchitecture
Entity
p2434
(dp2435
g11
(lp2436
sg13
S'android.hardware.camera2.params.OutputConfiguration'
p2437
sg15
(lp2438
sg17
(lp2439
sg19
(lp2440
sg21
I0
sba(iArchitecture
Entity
p2441
(dp2442
g11
(lp2443
sg13
S'android.hardware.camera2.params.OutputConfiguration$1'
p2444
sg15
(lp2445
sg17
(lp2446
sg19
(lp2447
sg21
I0
sba(iArchitecture
Entity
p2448
(dp2449
g11
(lp2450
sg13
S'android.hardware.camera2.params.StreamConfigurationMap'
p2451
sg15
(lp2452
sg17
(lp2453
sg19
(lp2454
sg21
I0
sba(iArchitecture
Entity
p2455
(dp2456
g11
(lp2457
sg13
S'android.hardware.camera2.utils.LongParcelable'
p2458
sg15
(lp2459
sg17
(lp2460
sg19
(lp2461
sg21
I0
sba(iArchitecture
Entity
p2462
(dp2463
g11
(lp2464
sg13
S'android.hardware.camera2.utils.LongParcelable$1'
p2465
sg15
(lp2466
sg17
(lp2467
sg19
(lp2468
sg21
I0
sba(iArchitecture
Entity
p2469
(dp2470
g11
(lp2471
sg13
S'android.hardware.camera2.utils.UncheckedThrow'
p2472
sg15
(lp2473
sg17
(lp2474
sg19
(lp2475
sg21
I0
sba(iArchitecture
Entity
p2476
(dp2477
g11
(lp2478
sg13
S'android.hardware.fingerprint.Fingerprint'
p2479
sg15
(lp2480
sg17
(lp2481
sg19
(lp2482
sg21
I0
sba(iArchitecture
Entity
p2483
(dp2484
g11
(lp2485
sg13
S'android.hardware.fingerprint.Fingerprint$1'
p2486
sg15
(lp2487
sg17
(lp2488
sg19
(lp2489
sg21
I0
sba(iArchitecture
Entity
p2490
(dp2491
g11
(lp2492
sg13
S'android.inputmethodservice.ExtractButton'
p2493
sg15
(lp2494
sg17
(lp2495
sg19
(lp2496
sg21
I0
sba(iArchitecture
Entity
p2497
(dp2498
g11
(lp2499
sg13
S'android.inputmethodservice.ExtractEditLayout'
p2500
sg15
(lp2501
sg17
(lp2502
sg19
(lp2503
sg21
I0
sba(iArchitecture
Entity
p2504
(dp2505
g11
(lp2506
sg13
S'android.location.CountryListener'
p2507
sg15
(lp2508
sg17
(lp2509
sg19
(lp2510
sg21
I0
sba(iArchitecture
Entity
p2511
(dp2512
g11
(lp2513
sg13
S'android.media.DeniedByServerException'
p2514
sg15
(lp2515
sg17
(lp2516
sg19
(lp2517
sg21
I0
sba(iArchitecture
Entity
p2518
(dp2519
g11
(lp2520
sg13
S'android.media.Image'
p2521
sg15
(lp2522
sg17
(lp2523
sg19
(lp2524
sg21
I0
sba(iArchitecture
Entity
p2525
(dp2526
g11
(lp2527
sg13
S'android.media.Image$Plane'
p2528
sg15
(lp2529
sg17
(lp2530
sg19
(lp2531
sg21
I0
sba(iArchitecture
Entity
p2532
(dp2533
g11
(lp2534
sg13
S'android.media.ImageReader'
p2535
sg15
(lp2536
sg17
(lp2537
sg19
(lp2538
sg21
I0
sba(iArchitecture
Entity
p2539
(dp2540
g11
(lp2541
sg13
S'android.media.ImageReader$ListenerHandler'
p2542
sg15
(lp2543
sg17
(lp2544
sg19
(lp2545
sg21
I0
sba(iArchitecture
Entity
p2546
(dp2547
g11
(lp2548
sg13
S'android.media.ImageReader$OnImageAvailableListener'
p2549
sg15
(lp2550
sg17
(lp2551
sg19
(lp2552
sg21
I0
sba(iArchitecture
Entity
p2553
(dp2554
g11
(lp2555
sg13
S'android.media.ImageReader$SurfaceImage'
p2556
sg15
(lp2557
sg17
(lp2558
sg19
(lp2559
sg21
I0
sba(iArchitecture
Entity
p2560
(dp2561
g11
(lp2562
sg13
S'android.media.ImageReader$SurfaceImage$SurfacePlane'
p2563
sg15
(lp2564
sg17
(lp2565
sg19
(lp2566
sg21
I0
sba(iArchitecture
Entity
p2567
(dp2568
g11
(lp2569
sg13
S'android.media.ImageWriter'
p2570
sg15
(lp2571
sg17
(lp2572
sg19
(lp2573
sg21
I0
sba(iArchitecture
Entity
p2574
(dp2575
g11
(lp2576
sg13
S'android.media.ImageWriter$ListenerHandler'
p2577
sg15
(lp2578
sg17
(lp2579
sg19
(lp2580
sg21
I0
sba(iArchitecture
Entity
p2581
(dp2582
g11
(lp2583
sg13
S'android.media.ImageWriter$OnImageReleasedListener'
p2584
sg15
(lp2585
sg17
(lp2586
sg19
(lp2587
sg21
I0
sba(iArchitecture
Entity
p2588
(dp2589
g11
(lp2590
sg13
S'android.media.ImageWriter$WriterSurfaceImage'
p2591
sg15
(lp2592
sg17
(lp2593
sg19
(lp2594
sg21
I0
sba(iArchitecture
Entity
p2595
(dp2596
g11
(lp2597
sg13
S'android.media.ImageWriter$WriterSurfaceImage$SurfacePlane'
p2598
sg15
(lp2599
sg17
(lp2600
sg19
(lp2601
sg21
I0
sba(iArchitecture
Entity
p2602
(dp2603
g11
(lp2604
sg13
S'android.media.MediaCryptoException'
p2605
sg15
(lp2606
sg17
(lp2607
sg19
(lp2608
sg21
I0
sba(iArchitecture
Entity
p2609
(dp2610
g11
(lp2611
sg13
S'android.media.MediaDataSource'
p2612
sg15
(lp2613
sg17
(lp2614
sg19
(lp2615
sg21
I0
sba(iArchitecture
Entity
p2616
(dp2617
g11
(lp2618
sg13
S'android.media.MediaDrmException'
p2619
sg15
(lp2620
sg17
(lp2621
sg19
(lp2622
sg21
I0
sba(iArchitecture
Entity
p2623
(dp2624
g11
(lp2625
sg13
S'android.media.MediaDrmResetException'
p2626
sg15
(lp2627
sg17
(lp2628
sg19
(lp2629
sg21
I0
sba(iArchitecture
Entity
p2630
(dp2631
g11
(lp2632
sg13
S'android.media.MediaScannerClient'
p2633
sg15
(lp2634
sg17
(lp2635
sg19
(lp2636
sg21
I0
sba(iArchitecture
Entity
p2637
(dp2638
g11
(lp2639
sg13
S'android.media.NotProvisionedException'
p2640
sg15
(lp2641
sg17
(lp2642
sg19
(lp2643
sg21
I0
sba(iArchitecture
Entity
p2644
(dp2645
g11
(lp2646
sg13
S'android.media.ResourceBusyException'
p2647
sg15
(lp2648
sg17
(lp2649
sg19
(lp2650
sg21
I0
sba(iArchitecture
Entity
p2651
(dp2652
g11
(lp2653
sg13
S'android.media.SubtitleData'
p2654
sg15
(lp2655
sg17
(lp2656
sg19
(lp2657
sg21
I0
sba(iArchitecture
Entity
p2658
(dp2659
g11
(lp2660
sg13
S'android.media.UnsupportedSchemeException'
p2661
sg15
(lp2662
sg17
(lp2663
sg19
(lp2664
sg21
I0
sba(iArchitecture
Entity
p2665
(dp2666
g11
(lp2667
sg13
S'android.net.ParseException'
p2668
sg15
(lp2669
sg17
(lp2670
sg19
(lp2671
sg21
I0
sba(iArchitecture
Entity
p2672
(dp2673
g11
(lp2674
sg13
S'android.net.netlink.StructNlMsgErr'
p2675
sg15
(lp2676
sg17
(lp2677
sg19
(lp2678
sg21
I0
sba(iArchitecture
Entity
p2679
(dp2680
g11
(lp2681
sg13
S'android.net.wifi.p2p.WifiP2pGroup'
p2682
sg15
(lp2683
sg17
(lp2684
sg19
(lp2685
sg21
I0
sba(iArchitecture
Entity
p2686
(dp2687
g11
(lp2688
sg13
S'android.net.wifi.p2p.WifiP2pGroup$1'
p2689
sg15
(lp2690
sg17
(lp2691
sg19
(lp2692
sg21
I0
sba(iArchitecture
Entity
p2693
(dp2694
g11
(lp2695
sg13
S'android.nfc.FormatException'
p2696
sg15
(lp2697
sg17
(lp2698
sg19
(lp2699
sg21
I0
sba(iArchitecture
Entity
p2700
(dp2701
g11
(lp2702
sg13
S'android.nfc.TagLostException'
p2703
sg15
(lp2704
sg17
(lp2705
sg19
(lp2706
sg21
I0
sba(iArchitecture
Entity
p2707
(dp2708
g11
(lp2709
sg13
S'android.opengl.GLWallpaperService'
p2710
sg15
(lp2711
sg17
(lp2712
sg19
(lp2713
sg21
I0
sba(iArchitecture
Entity
p2714
(dp2715
g11
(lp2716
sg13
S'android.os.AsyncResult'
p2717
sg15
(lp2718
sg17
(lp2719
sg19
(lp2720
sg21
I0
sba(iArchitecture
Entity
p2721
(dp2722
g11
(lp2723
sg13
S'android.os.BadParcelableException'
p2724
sg15
(lp2725
sg17
(lp2726
sg19
(lp2727
sg21
I0
sba(iArchitecture
Entity
p2728
(dp2729
g11
(lp2730
sg13
S'android.os.BatteryManagerInternal'
p2731
sg15
(lp2732
sg17
(lp2733
sg19
(lp2734
sg21
I0
sba(iArchitecture
Entity
p2735
(dp2736
g11
(lp2737
sg13
S'android.os.BatteryProperty'
p2738
sg15
(lp2739
sg17
(lp2740
sg19
(lp2741
sg21
I0
sba(iArchitecture
Entity
p2742
(dp2743
g11
(lp2744
sg13
S'android.os.BatteryProperty$1'
p2745
sg15
(lp2746
sg17
(lp2747
sg19
(lp2748
sg21
I0
sba(iArchitecture
Entity
p2749
(dp2750
g11
(lp2751
sg13
S'android.os.DeadObjectException'
p2752
sg15
(lp2753
sg17
(lp2754
sg19
(lp2755
sg21
I0
sba(iArchitecture
Entity
p2756
(dp2757
g11
(lp2758
sg13
S'android.os.FactoryTest'
p2759
sg15
(lp2760
sg17
(lp2761
sg19
(lp2762
sg21
I0
sba(iArchitecture
Entity
p2763
(dp2764
g11
(lp2765
sg13
S'android.os.IInterface'
p2766
sg15
(lp2767
sg17
(lp2768
sg19
(lp2769
sg21
I0
sba(iArchitecture
Entity
p2770
(dp2771
g11
(lp2772
sg13
S'android.os.NetworkOnMainThreadException'
p2773
sg15
(lp2774
sg17
(lp2775
sg19
(lp2776
sg21
I0
sba(iArchitecture
Entity
p2777
(dp2778
g11
(lp2779
sg13
S'android.os.OperationCanceledException'
p2780
sg15
(lp2781
sg17
(lp2782
sg19
(lp2783
sg21
I0
sba(iArchitecture
Entity
p2784
(dp2785
g11
(lp2786
sg13
S'android.os.ParcelFormatException'
p2787
sg15
(lp2788
sg17
(lp2789
sg19
(lp2790
sg21
I0
sba(iArchitecture
Entity
p2791
(dp2792
g11
(lp2793
sg13
S'android.os.ParcelableParcel'
p2794
sg15
(lp2795
sg17
(lp2796
sg19
(lp2797
sg21
I0
sba(iArchitecture
Entity
p2798
(dp2799
g11
(lp2800
sg13
S'android.os.ParcelableParcel$1'
p2801
sg15
(lp2802
sg17
(lp2803
sg19
(lp2804
sg21
I0
sba(iArchitecture
Entity
p2805
(dp2806
g11
(lp2807
sg13
S'android.os.PooledStringReader'
p2808
sg15
(lp2809
sg17
(lp2810
sg19
(lp2811
sg21
I0
sba(iArchitecture
Entity
p2812
(dp2813
g11
(lp2814
sg13
S'android.os.PooledStringWriter'
p2815
sg15
(lp2816
sg17
(lp2817
sg19
(lp2818
sg21
I0
sba(iArchitecture
Entity
p2819
(dp2820
g11
(lp2821
sg13
S'android.os.RemoteException'
p2822
sg15
(lp2823
sg17
(lp2824
sg19
(lp2825
sg21
I0
sba(iArchitecture
Entity
p2826
(dp2827
g11
(lp2828
sg13
S'android.os.RemoteMailException'
p2829
sg15
(lp2830
sg17
(lp2831
sg19
(lp2832
sg21
I0
sba(iArchitecture
Entity
p2833
(dp2834
g11
(lp2835
sg13
S'android.os.ResultReceiver'
p2836
sg15
(lp2837
sg17
(lp2838
sg19
(lp2839
sg21
I0
sba(iArchitecture
Entity
p2840
(dp2841
g11
(lp2842
sg13
S'android.os.ResultReceiver$1'
p2843
sg15
(lp2844
sg17
(lp2845
sg19
(lp2846
sg21
I0
sba(iArchitecture
Entity
p2847
(dp2848
g11
(lp2849
sg13
S'android.os.ResultReceiver$MyResultReceiver'
p2850
sg15
(lp2851
sg17
(lp2852
sg19
(lp2853
sg21
I0
sba(iArchitecture
Entity
p2854
(dp2855
g11
(lp2856
sg13
S'android.os.ResultReceiver$MyRunnable'
p2857
sg15
(lp2858
sg17
(lp2859
sg19
(lp2860
sg21
I0
sba(iArchitecture
Entity
p2861
(dp2862
g11
(lp2863
sg13
S'android.preference.CheckBoxPreference'
p2864
sg15
(lp2865
sg17
(lp2866
sg19
(lp2867
sg21
I0
sba(iArchitecture
Entity
p2868
(dp2869
g11
(lp2870
sg13
S'android.preference.DialogPreference'
p2871
sg15
(lp2872
sg17
(lp2873
sg19
(lp2874
sg21
I0
sba(iArchitecture
Entity
p2875
(dp2876
g11
(lp2877
sg13
S'android.preference.DialogPreference$SavedState'
p2878
sg15
(lp2879
sg17
(lp2880
sg19
(lp2881
sg21
I0
sba(iArchitecture
Entity
p2882
(dp2883
g11
(lp2884
sg13
S'android.preference.DialogPreference$SavedState$1'
p2885
sg15
(lp2886
sg17
(lp2887
sg19
(lp2888
sg21
I0
sba(iArchitecture
Entity
p2889
(dp2890
g11
(lp2891
sg13
S'android.preference.EditTextPreference'
p2892
sg15
(lp2893
sg17
(lp2894
sg19
(lp2895
sg21
I0
sba(iArchitecture
Entity
p2896
(dp2897
g11
(lp2898
sg13
S'android.preference.EditTextPreference$SavedState'
p2899
sg15
(lp2900
sg17
(lp2901
sg19
(lp2902
sg21
I0
sba(iArchitecture
Entity
p2903
(dp2904
g11
(lp2905
sg13
S'android.preference.EditTextPreference$SavedState$1'
p2906
sg15
(lp2907
sg17
(lp2908
sg19
(lp2909
sg21
I0
sba(iArchitecture
Entity
p2910
(dp2911
g11
(lp2912
sg13
S'android.preference.SeekBarDialogPreference'
p2913
sg15
(lp2914
sg17
(lp2915
sg19
(lp2916
sg21
I0
sba(iArchitecture
Entity
p2917
(dp2918
g11
(lp2919
sg13
S'android.preference.TwoStatePreference'
p2920
sg15
(lp2921
sg17
(lp2922
sg19
(lp2923
sg21
I0
sba(iArchitecture
Entity
p2924
(dp2925
g11
(lp2926
sg13
S'android.preference.TwoStatePreference$SavedState'
p2927
sg15
(lp2928
sg17
(lp2929
sg19
(lp2930
sg21
I0
sba(iArchitecture
Entity
p2931
(dp2932
g11
(lp2933
sg13
S'android.preference.TwoStatePreference$SavedState$1'
p2934
sg15
(lp2935
sg17
(lp2936
sg19
(lp2937
sg21
I0
sba(iArchitecture
Entity
p2938
(dp2939
g11
(lp2940
sg13
S'android.preference.VolumePreference'
p2941
sg15
(lp2942
sg17
(lp2943
sg19
(lp2944
sg21
I0
sba(iArchitecture
Entity
p2945
(dp2946
g11
(lp2947
sg13
S'android.preference.VolumePreference$SavedState'
p2948
sg15
(lp2949
sg17
(lp2950
sg19
(lp2951
sg21
I0
sba(iArchitecture
Entity
p2952
(dp2953
g11
(lp2954
sg13
S'android.preference.VolumePreference$SavedState$1'
p2955
sg15
(lp2956
sg17
(lp2957
sg19
(lp2958
sg21
I0
sba(iArchitecture
Entity
p2959
(dp2960
g11
(lp2961
sg13
S'android.preference.VolumePreference$VolumeStore'
p2962
sg15
(lp2963
sg17
(lp2964
sg19
(lp2965
sg21
I0
sba(iArchitecture
Entity
p2966
(dp2967
g11
(lp2968
sg13
S'android.print.PrintJobId'
p2969
sg15
(lp2970
sg17
(lp2971
sg19
(lp2972
sg21
I0
sba(iArchitecture
Entity
p2973
(dp2974
g11
(lp2975
sg13
S'android.print.PrintJobId$1'
p2976
sg15
(lp2977
sg17
(lp2978
sg19
(lp2979
sg21
I0
sba(iArchitecture
Entity
p2980
(dp2981
g11
(lp2982
sg13
S'android.print.PrinterId'
p2983
sg15
(lp2984
sg17
(lp2985
sg19
(lp2986
sg21
I0
sba(iArchitecture
Entity
p2987
(dp2988
g11
(lp2989
sg13
S'android.print.PrinterId$1'
p2990
sg15
(lp2991
sg17
(lp2992
sg19
(lp2993
sg21
I0
sba(iArchitecture
Entity
p2994
(dp2995
g11
(lp2996
sg13
S'android.printservice.PrintDocument'
p2997
sg15
(lp2998
sg17
(lp2999
sg19
(lp3000
sg21
I0
sba(iArchitecture
Entity
p3001
(dp3002
g11
(lp3003
sg13
S'android.provider.BaseColumns'
p3004
sg15
(lp3005
sg17
(lp3006
sg19
(lp3007
sg21
I0
sba(iArchitecture
Entity
p3008
(dp3009
g11
(lp3010
sg13
S'android.provider.OpenableColumns'
p3011
sg15
(lp3012
sg17
(lp3013
sg19
(lp3014
sg21
I0
sba(iArchitecture
Entity
p3015
(dp3016
g11
(lp3017
sg13
S'android.renderscript.RSDriverException'
p3018
sg15
(lp3019
sg17
(lp3020
sg19
(lp3021
sg21
I0
sba(iArchitecture
Entity
p3022
(dp3023
g11
(lp3024
sg13
S'android.renderscript.RSIllegalArgumentException'
p3025
sg15
(lp3026
sg17
(lp3027
sg19
(lp3028
sg21
I0
sba(iArchitecture
Entity
p3029
(dp3030
g11
(lp3031
sg13
S'android.renderscript.RSInvalidStateException'
p3032
sg15
(lp3033
sg17
(lp3034
sg19
(lp3035
sg21
I0
sba(iArchitecture
Entity
p3036
(dp3037
g11
(lp3038
sg13
S'android.renderscript.RSRuntimeException'
p3039
sg15
(lp3040
sg17
(lp3041
sg19
(lp3042
sg21
I0
sba(iArchitecture
Entity
p3043
(dp3044
g11
(lp3045
sg13
S'android.renderscript.RenderScriptCacheDir'
p3046
sg15
(lp3047
sg17
(lp3048
sg19
(lp3049
sg21
I0
sba(iArchitecture
Entity
p3050
(dp3051
g11
(lp3052
sg13
S'android.renderscript.ScriptIntrinsic'
p3053
sg15
(lp3054
sg17
(lp3055
sg19
(lp3056
sg21
I0
sba(iArchitecture
Entity
p3057
(dp3058
g11
(lp3059
sg13
S'android.sax.ElementListener'
p3060
sg15
(lp3061
sg17
(lp3062
sg19
(lp3063
sg21
I0
sba(iArchitecture
Entity
p3064
(dp3065
g11
(lp3066
sg13
S'android.sax.EndElementListener'
p3067
sg15
(lp3068
sg17
(lp3069
sg19
(lp3070
sg21
I0
sba(iArchitecture
Entity
p3071
(dp3072
g11
(lp3073
sg13
S'android.sax.EndTextElementListener'
p3074
sg15
(lp3075
sg17
(lp3076
sg19
(lp3077
sg21
I0
sba(iArchitecture
Entity
p3078
(dp3079
g11
(lp3080
sg13
S'android.sax.StartElementListener'
p3081
sg15
(lp3082
sg17
(lp3083
sg19
(lp3084
sg21
I0
sba(iArchitecture
Entity
p3085
(dp3086
g11
(lp3087
sg13
S'android.sax.TextElementListener'
p3088
sg15
(lp3089
sg17
(lp3090
sg19
(lp3091
sg21
I0
sba(iArchitecture
Entity
p3092
(dp3093
g11
(lp3094
sg13
S'android.security.KeyChainAliasCallback'
p3095
sg15
(lp3096
sg17
(lp3097
sg19
(lp3098
sg21
I0
sba(iArchitecture
Entity
p3099
(dp3100
g11
(lp3101
sg13
S'android.security.keystore.AndroidKeyStoreECPrivateKey'
p3102
sg15
(lp3103
sg17
(lp3104
sg19
(lp3105
sg21
I0
sba(iArchitecture
Entity
p3106
(dp3107
g11
(lp3108
sg13
S'android.security.keystore.AndroidKeyStoreECPublicKey'
p3109
sg15
(lp3110
sg17
(lp3111
sg19
(lp3112
sg21
I0
sba(iArchitecture
Entity
p3113
(dp3114
g11
(lp3115
sg13
S'android.security.keystore.AndroidKeyStorePrivateKey'
p3116
sg15
(lp3117
sg17
(lp3118
sg19
(lp3119
sg21
I0
sba(iArchitecture
Entity
p3120
(dp3121
g11
(lp3122
sg13
S'android.security.keystore.AndroidKeyStorePublicKey'
p3123
sg15
(lp3124
sg17
(lp3125
sg19
(lp3126
sg21
I0
sba(iArchitecture
Entity
p3127
(dp3128
g11
(lp3129
sg13
S'android.security.keystore.AndroidKeyStoreSecretKey'
p3130
sg15
(lp3131
sg17
(lp3132
sg19
(lp3133
sg21
I0
sba(iArchitecture
Entity
p3134
(dp3135
g11
(lp3136
sg13
S'android.security.keystore.KeyStoreCryptoOperation'
p3137
sg15
(lp3138
sg17
(lp3139
sg19
(lp3140
sg21
I0
sba(iArchitecture
Entity
p3141
(dp3142
g11
(lp3143
sg13
S'android.security.keystore.Utils'
p3144
sg15
(lp3145
sg17
(lp3146
sg19
(lp3147
sg21
I0
sba(iArchitecture
Entity
p3148
(dp3149
g11
(lp3150
sg13
S'android.telecom.CallbackRecord'
p3151
sg15
(lp3152
sg17
(lp3153
sg19
(lp3154
sg21
I0
sba(iArchitecture
Entity
p3155
(dp3156
g11
(lp3157
sg13
S'android.telecom.Conferenceable'
p3158
sg15
(lp3159
sg17
(lp3160
sg19
(lp3161
sg21
I0
sba(iArchitecture
Entity
p3162
(dp3163
g11
(lp3164
sg13
S'android.telecom.Response'
p3165
sg15
(lp3166
sg17
(lp3167
sg19
(lp3168
sg21
I0
sba(iArchitecture
Entity
p3169
(dp3170
g11
(lp3171
sg13
S'android.test.FlakyTest'
p3172
sg15
(lp3173
sg17
(lp3174
sg19
(lp3175
sg21
I0
sba(iArchitecture
Entity
p3176
(dp3177
g11
(lp3178
sg13
S'android.test.RepetitiveTest'
p3179
sg15
(lp3180
sg17
(lp3181
sg19
(lp3182
sg21
I0
sba(iArchitecture
Entity
p3183
(dp3184
g11
(lp3185
sg13
S'android.test.UiThreadTest'
p3186
sg15
(lp3187
sg17
(lp3188
sg19
(lp3189
sg21
I0
sba(iArchitecture
Entity
p3190
(dp3191
g11
(lp3192
sg13
S'android.test.suitebuilder.annotation.LargeTest'
p3193
sg15
(lp3194
sg17
(lp3195
sg19
(lp3196
sg21
I0
sba(iArchitecture
Entity
p3197
(dp3198
g11
(lp3199
sg13
S'android.test.suitebuilder.annotation.MediumTest'
p3200
sg15
(lp3201
sg17
(lp3202
sg19
(lp3203
sg21
I0
sba(iArchitecture
Entity
p3204
(dp3205
g11
(lp3206
sg13
S'android.test.suitebuilder.annotation.SmallTest'
p3207
sg15
(lp3208
sg17
(lp3209
sg19
(lp3210
sg21
I0
sba(iArchitecture
Entity
p3211
(dp3212
g11
(lp3213
sg13
S'android.test.suitebuilder.annotation.Smoke'
p3214
sg15
(lp3215
sg17
(lp3216
sg19
(lp3217
sg21
I0
sba(iArchitecture
Entity
p3218
(dp3219
g11
(lp3220
sg13
S'android.test.suitebuilder.annotation.Suppress'
p3221
sg15
(lp3222
sg17
(lp3223
sg19
(lp3224
sg21
I0
sba(iArchitecture
Entity
p3225
(dp3226
g11
(lp3227
sg13
S'android.text.Annotation'
p3228
sg15
(lp3229
sg17
(lp3230
sg19
(lp3231
sg21
I0
sba(iArchitecture
Entity
p3232
(dp3233
g11
(lp3234
sg13
S'android.text.ClipboardManager'
p3235
sg15
(lp3236
sg17
(lp3237
sg19
(lp3238
sg21
I0
sba(iArchitecture
Entity
p3239
(dp3240
g11
(lp3241
sg13
S'android.text.GetChars'
p3242
sg15
(lp3243
sg17
(lp3244
sg19
(lp3245
sg21
I0
sba(iArchitecture
Entity
p3246
(dp3247
g11
(lp3248
sg13
S'android.text.NoCopySpan'
p3249
sg15
(lp3250
sg17
(lp3251
sg19
(lp3252
sg21
I0
sba(iArchitecture
Entity
p3253
(dp3254
g11
(lp3255
sg13
S'android.text.NoCopySpan$Concrete'
p3256
sg15
(lp3257
sg17
(lp3258
sg19
(lp3259
sg21
I0
sba(iArchitecture
Entity
p3260
(dp3261
g11
(lp3262
sg13
S'android.text.ParcelableSpan'
p3263
sg15
(lp3264
sg17
(lp3265
sg19
(lp3266
sg21
I0
sba(iArchitecture
Entity
p3267
(dp3268
g11
(lp3269
sg13
S'android.text.Spannable'
p3270
sg15
(lp3271
sg17
(lp3272
sg19
(lp3273
sg21
I0
sba(iArchitecture
Entity
p3274
(dp3275
g11
(lp3276
sg13
S'android.text.Spannable$Factory'
p3277
sg15
(lp3278
sg17
(lp3279
sg19
(lp3280
sg21
I0
sba(iArchitecture
Entity
p3281
(dp3282
g11
(lp3283
sg13
S'android.text.SpannableString'
p3284
sg15
(lp3285
sg17
(lp3286
sg19
(lp3287
sg21
I0
sba(iArchitecture
Entity
p3288
(dp3289
g11
(lp3290
sg13
S'android.text.TextDirectionHeuristic'
p3291
sg15
(lp3292
sg17
(lp3293
sg19
(lp3294
sg21
I0
sba(iArchitecture
Entity
p3295
(dp3296
g11
(lp3297
sg13
S'android.text.method.CharacterPickerDialog'
p3298
sg15
(lp3299
sg17
(lp3300
sg19
(lp3301
sg21
I0
sba(iArchitecture
Entity
p3302
(dp3303
g11
(lp3304
sg13
S'android.text.method.CharacterPickerDialog$OptionsAdapter'
p3305
sg15
(lp3306
sg17
(lp3307
sg19
(lp3308
sg21
I0
sba(iArchitecture
Entity
p3309
(dp3310
g11
(lp3311
sg13
S'android.text.method.HideReturnsTransformationMethod'
p3312
sg15
(lp3313
sg17
(lp3314
sg19
(lp3315
sg21
I0
sba(iArchitecture
Entity
p3316
(dp3317
g11
(lp3318
sg13
S'android.text.method.SingleLineTransformationMethod'
p3319
sg15
(lp3320
sg17
(lp3321
sg19
(lp3322
sg21
I0
sba(iArchitecture
Entity
p3323
(dp3324
g11
(lp3325
sg13
S'android.text.method.TransformationMethod'
p3326
sg15
(lp3327
sg17
(lp3328
sg19
(lp3329
sg21
I0
sba(iArchitecture
Entity
p3330
(dp3331
g11
(lp3332
sg13
S'android.text.method.TransformationMethod2'
p3333
sg15
(lp3334
sg17
(lp3335
sg19
(lp3336
sg21
I0
sba(iArchitecture
Entity
p3337
(dp3338
g11
(lp3339
sg13
S'android.text.style.AbsoluteSizeSpan'
p3340
sg15
(lp3341
sg17
(lp3342
sg19
(lp3343
sg21
I0
sba(iArchitecture
Entity
p3344
(dp3345
g11
(lp3346
sg13
S'android.text.style.AlignmentSpan'
p3347
sg15
(lp3348
sg17
(lp3349
sg19
(lp3350
sg21
I0
sba(iArchitecture
Entity
p3351
(dp3352
g11
(lp3353
sg13
S'android.text.style.AlignmentSpan$Standard'
p3354
sg15
(lp3355
sg17
(lp3356
sg19
(lp3357
sg21
I0
sba(iArchitecture
Entity
p3358
(dp3359
g11
(lp3360
sg13
S'android.text.style.BackgroundColorSpan'
p3361
sg15
(lp3362
sg17
(lp3363
sg19
(lp3364
sg21
I0
sba(iArchitecture
Entity
p3365
(dp3366
g11
(lp3367
sg13
S'android.text.style.ClickableSpan'
p3368
sg15
(lp3369
sg17
(lp3370
sg19
(lp3371
sg21
I0
sba(iArchitecture
Entity
p3372
(dp3373
g11
(lp3374
sg13
S'android.text.style.ForegroundColorSpan'
p3375
sg15
(lp3376
sg17
(lp3377
sg19
(lp3378
sg21
I0
sba(iArchitecture
Entity
p3379
(dp3380
g11
(lp3381
sg13
S'android.text.style.LineBackgroundSpan'
p3382
sg15
(lp3383
sg17
(lp3384
sg19
(lp3385
sg21
I0
sba(iArchitecture
Entity
p3386
(dp3387
g11
(lp3388
sg13
S'android.text.style.LineHeightSpan'
p3389
sg15
(lp3390
sg17
(lp3391
sg19
(lp3392
sg21
I0
sba(iArchitecture
Entity
p3393
(dp3394
g11
(lp3395
sg13
S'android.text.style.LineHeightSpan$WithDensity'
p3396
sg15
(lp3397
sg17
(lp3398
sg19
(lp3399
sg21
I0
sba(iArchitecture
Entity
p3400
(dp3401
g11
(lp3402
sg13
S'android.text.style.MaskFilterSpan'
p3403
sg15
(lp3404
sg17
(lp3405
sg19
(lp3406
sg21
I0
sba(iArchitecture
Entity
p3407
(dp3408
g11
(lp3409
sg13
S'android.text.style.ParagraphStyle'
p3410
sg15
(lp3411
sg17
(lp3412
sg19
(lp3413
sg21
I0
sba(iArchitecture
Entity
p3414
(dp3415
g11
(lp3416
sg13
S'android.text.style.QuoteSpan'
p3417
sg15
(lp3418
sg17
(lp3419
sg19
(lp3420
sg21
I0
sba(iArchitecture
Entity
p3421
(dp3422
g11
(lp3423
sg13
S'android.text.style.RelativeSizeSpan'
p3424
sg15
(lp3425
sg17
(lp3426
sg19
(lp3427
sg21
I0
sba(iArchitecture
Entity
p3428
(dp3429
g11
(lp3430
sg13
S'android.text.style.ReplacementSpan'
p3431
sg15
(lp3432
sg17
(lp3433
sg19
(lp3434
sg21
I0
sba(iArchitecture
Entity
p3435
(dp3436
g11
(lp3437
sg13
S'android.text.style.ScaleXSpan'
p3438
sg15
(lp3439
sg17
(lp3440
sg19
(lp3441
sg21
I0
sba(iArchitecture
Entity
p3442
(dp3443
g11
(lp3444
sg13
S'android.text.style.SpellCheckSpan'
p3445
sg15
(lp3446
sg17
(lp3447
sg19
(lp3448
sg21
I0
sba(iArchitecture
Entity
p3449
(dp3450
g11
(lp3451
sg13
S'android.text.style.StrikethroughSpan'
p3452
sg15
(lp3453
sg17
(lp3454
sg19
(lp3455
sg21
I0
sba(iArchitecture
Entity
p3456
(dp3457
g11
(lp3458
sg13
S'android.text.style.StyleSpan'
p3459
sg15
(lp3460
sg17
(lp3461
sg19
(lp3462
sg21
I0
sba(iArchitecture
Entity
p3463
(dp3464
g11
(lp3465
sg13
S'android.text.style.SubscriptSpan'
p3466
sg15
(lp3467
sg17
(lp3468
sg19
(lp3469
sg21
I0
sba(iArchitecture
Entity
p3470
(dp3471
g11
(lp3472
sg13
S'android.text.style.SuggestionRangeSpan'
p3473
sg15
(lp3474
sg17
(lp3475
sg19
(lp3476
sg21
I0
sba(iArchitecture
Entity
p3477
(dp3478
g11
(lp3479
sg13
S'android.text.style.SuperscriptSpan'
p3480
sg15
(lp3481
sg17
(lp3482
sg19
(lp3483
sg21
I0
sba(iArchitecture
Entity
p3484
(dp3485
g11
(lp3486
sg13
S'android.text.style.TypefaceSpan'
p3487
sg15
(lp3488
sg17
(lp3489
sg19
(lp3490
sg21
I0
sba(iArchitecture
Entity
p3491
(dp3492
g11
(lp3493
sg13
S'android.text.style.UnderlineSpan'
p3494
sg15
(lp3495
sg17
(lp3496
sg19
(lp3497
sg21
I0
sba(iArchitecture
Entity
p3498
(dp3499
g11
(lp3500
sg13
S'android.text.style.UpdateAppearance'
p3501
sg15
(lp3502
sg17
(lp3503
sg19
(lp3504
sg21
I0
sba(iArchitecture
Entity
p3505
(dp3506
g11
(lp3507
sg13
S'android.text.style.UpdateLayout'
p3508
sg15
(lp3509
sg17
(lp3510
sg19
(lp3511
sg21
I0
sba(iArchitecture
Entity
p3512
(dp3513
g11
(lp3514
sg13
S'android.text.style.WrapTogetherSpan'
p3515
sg15
(lp3516
sg17
(lp3517
sg19
(lp3518
sg21
I0
sba(iArchitecture
Entity
p3519
(dp3520
g11
(lp3521
sg13
S'android.util.AndroidException'
p3522
sg15
(lp3523
sg17
(lp3524
sg19
(lp3525
sg21
I0
sba(iArchitecture
Entity
p3526
(dp3527
g11
(lp3528
sg13
S'android.util.AndroidRuntimeException'
p3529
sg15
(lp3530
sg17
(lp3531
sg19
(lp3532
sg21
I0
sba(iArchitecture
Entity
p3533
(dp3534
g11
(lp3535
sg13
S'android.util.Base64DataException'
p3536
sg15
(lp3537
sg17
(lp3538
sg19
(lp3539
sg21
I0
sba(iArchitecture
Entity
p3540
(dp3541
g11
(lp3542
sg13
S'android.util.Config'
p3543
sg15
(lp3544
sg17
(lp3545
sg19
(lp3546
sg21
I0
sba(iArchitecture
Entity
p3547
(dp3548
g11
(lp3549
sg13
S'android.util.ContainerHelpers'
p3550
sg15
(lp3551
sg17
(lp3552
sg19
(lp3553
sg21
I0
sba(iArchitecture
Entity
p3554
(dp3555
g11
(lp3556
sg13
S'android.util.EventLogTags'
p3557
sg15
(lp3558
sg17
(lp3559
sg19
(lp3560
sg21
I0
sba(iArchitecture
Entity
p3561
(dp3562
g11
(lp3563
sg13
S'android.util.EventLogTags$Description'
p3564
sg15
(lp3565
sg17
(lp3566
sg19
(lp3567
sg21
I0
sba(iArchitecture
Entity
p3568
(dp3569
g11
(lp3570
sg13
S'android.util.ExceptionUtils'
p3571
sg15
(lp3572
sg17
(lp3573
sg19
(lp3574
sg21
I0
sba(iArchitecture
Entity
p3575
(dp3576
g11
(lp3577
sg13
S'android.util.FloatProperty'
p3578
sg15
(lp3579
sg17
(lp3580
sg19
(lp3581
sg21
I0
sba(iArchitecture
Entity
p3582
(dp3583
g11
(lp3584
sg13
S'android.util.IntProperty'
p3585
sg15
(lp3586
sg17
(lp3587
sg19
(lp3588
sg21
I0
sba(iArchitecture
Entity
p3589
(dp3590
g11
(lp3591
sg13
S'android.util.JsonScope'
p3592
sg15
(lp3593
sg17
(lp3594
sg19
(lp3595
sg21
I0
sba(iArchitecture
Entity
p3596
(dp3597
g11
(lp3598
sg13
S'android.util.LayoutDirection'
p3599
sg15
(lp3600
sg17
(lp3601
sg19
(lp3602
sg21
I0
sba(iArchitecture
Entity
p3603
(dp3604
g11
(lp3605
sg13
S'android.util.MalformedJsonException'
p3606
sg15
(lp3607
sg17
(lp3608
sg19
(lp3609
sg21
I0
sba(iArchitecture
Entity
p3610
(dp3611
g11
(lp3612
sg13
S'android.util.NoSuchPropertyException'
p3613
sg15
(lp3614
sg17
(lp3615
sg19
(lp3616
sg21
I0
sba(iArchitecture
Entity
p3617
(dp3618
g11
(lp3619
sg13
S'android.util.Pair'
p3620
sg15
(lp3621
sg17
(lp3622
sg19
(lp3623
sg21
I0
sba(iArchitecture
Entity
p3624
(dp3625
g11
(lp3626
sg13
S'android.util.PrefixPrinter'
p3627
sg15
(lp3628
sg17
(lp3629
sg19
(lp3630
sg21
I0
sba(iArchitecture
Entity
p3631
(dp3632
g11
(lp3633
sg13
S'android.util.Printer'
p3634
sg15
(lp3635
sg17
(lp3636
sg19
(lp3637
sg21
I0
sba(iArchitecture
Entity
p3638
(dp3639
g11
(lp3640
sg13
S'android.util.Singleton'
p3641
sg15
(lp3642
sg17
(lp3643
sg19
(lp3644
sg21
I0
sba(iArchitecture
Entity
p3645
(dp3646
g11
(lp3647
sg13
S'android.util.SuperNotCalledException'
p3648
sg15
(lp3649
sg17
(lp3650
sg19
(lp3651
sg21
I0
sba(iArchitecture
Entity
p3652
(dp3653
g11
(lp3654
sg13
S'android.util.TimeFormatException'
p3655
sg15
(lp3656
sg17
(lp3657
sg19
(lp3658
sg21
I0
sba(iArchitecture
Entity
p3659
(dp3660
g11
(lp3661
sg13
S'android.view.ActionProvider'
p3662
sg15
(lp3663
sg17
(lp3664
sg19
(lp3665
sg21
I0
sba(iArchitecture
Entity
p3666
(dp3667
g11
(lp3668
sg13
S'android.view.ActionProvider$SubUiVisibilityListener'
p3669
sg15
(lp3670
sg17
(lp3671
sg19
(lp3672
sg21
I0
sba(iArchitecture
Entity
p3673
(dp3674
g11
(lp3675
sg13
S'android.view.ActionProvider$VisibilityListener'
p3676
sg15
(lp3677
sg17
(lp3678
sg19
(lp3679
sg21
I0
sba(iArchitecture
Entity
p3680
(dp3681
g11
(lp3682
sg13
S'android.view.Display'
p3683
sg15
(lp3684
sg17
(lp3685
sg19
(lp3686
sg21
I0
sba(iArchitecture
Entity
p3687
(dp3688
g11
(lp3689
sg13
S'android.view.Display$Mode'
p3690
sg15
(lp3691
sg17
(lp3692
sg19
(lp3693
sg21
I0
sba(iArchitecture
Entity
p3694
(dp3695
g11
(lp3696
sg13
S'android.view.Display$Mode$1'
p3697
sg15
(lp3698
sg17
(lp3699
sg19
(lp3700
sg21
I0
sba(iArchitecture
Entity
p3701
(dp3702
g11
(lp3703
sg13
S'android.view.DisplayInfo'
p3704
sg15
(lp3705
sg17
(lp3706
sg19
(lp3707
sg21
I0
sba(iArchitecture
Entity
p3708
(dp3709
g11
(lp3710
sg13
S'android.view.DisplayInfo$1'
p3711
sg15
(lp3712
sg17
(lp3713
sg19
(lp3714
sg21
I0
sba(iArchitecture
Entity
p3715
(dp3716
g11
(lp3717
sg13
S'android.view.FallbackEventHandler'
p3718
sg15
(lp3719
sg17
(lp3720
sg19
(lp3721
sg21
I0
sba(iArchitecture
Entity
p3722
(dp3723
g11
(lp3724
sg13
S'android.view.InflateException'
p3725
sg15
(lp3726
sg17
(lp3727
sg19
(lp3728
sg21
I0
sba(iArchitecture
Entity
p3729
(dp3730
g11
(lp3731
sg13
S'android.view.Menu'
p3732
sg15
(lp3733
sg17
(lp3734
sg19
(lp3735
sg21
I0
sba(iArchitecture
Entity
p3736
(dp3737
g11
(lp3738
sg13
S'android.view.MenuInflater'
p3739
sg15
(lp3740
sg17
(lp3741
sg19
(lp3742
sg21
I0
sba(iArchitecture
Entity
p3743
(dp3744
g11
(lp3745
sg13
S'android.view.MenuInflater$InflatedOnMenuItemClickListener'
p3746
sg15
(lp3747
sg17
(lp3748
sg19
(lp3749
sg21
I0
sba(iArchitecture
Entity
p3750
(dp3751
g11
(lp3752
sg13
S'android.view.MenuInflater$MenuState'
p3753
sg15
(lp3754
sg17
(lp3755
sg19
(lp3756
sg21
I0
sba(iArchitecture
Entity
p3757
(dp3758
g11
(lp3759
sg13
S'android.view.MenuItem'
p3760
sg15
(lp3761
sg17
(lp3762
sg19
(lp3763
sg21
I0
sba(iArchitecture
Entity
p3764
(dp3765
g11
(lp3766
sg13
S'android.view.MenuItem$OnActionExpandListener'
p3767
sg15
(lp3768
sg17
(lp3769
sg19
(lp3770
sg21
I0
sba(iArchitecture
Entity
p3771
(dp3772
g11
(lp3773
sg13
S'android.view.MenuItem$OnMenuItemClickListener'
p3774
sg15
(lp3775
sg17
(lp3776
sg19
(lp3777
sg21
I0
sba(iArchitecture
Entity
p3778
(dp3779
g11
(lp3780
sg13
S'android.view.RemotableViewMethod'
p3781
sg15
(lp3782
sg17
(lp3783
sg19
(lp3784
sg21
I0
sba(iArchitecture
Entity
p3785
(dp3786
g11
(lp3787
sg13
S'android.view.Surface'
p3788
sg15
(lp3789
sg17
(lp3790
sg19
(lp3791
sg21
I0
sba(iArchitecture
Entity
p3792
(dp3793
g11
(lp3794
sg13
S'android.view.Surface$1'
p3795
sg15
(lp3796
sg17
(lp3797
sg19
(lp3798
sg21
I0
sba(iArchitecture
Entity
p3799
(dp3800
g11
(lp3801
sg13
S'android.view.Surface$CompatibleCanvas'
p3802
sg15
(lp3803
sg17
(lp3804
sg19
(lp3805
sg21
I0
sba(iArchitecture
Entity
p3806
(dp3807
g11
(lp3808
sg13
S'android.view.Surface$HwuiContext'
p3809
sg15
(lp3810
sg17
(lp3811
sg19
(lp3812
sg21
I0
sba(iArchitecture
Entity
p3813
(dp3814
g11
(lp3815
sg13
S'android.view.Surface$OutOfResourcesException'
p3816
sg15
(lp3817
sg17
(lp3818
sg19
(lp3819
sg21
I0
sba(iArchitecture
Entity
p3820
(dp3821
g11
(lp3822
sg13
S'android.view.SurfaceControl'
p3823
sg15
(lp3824
sg17
(lp3825
sg19
(lp3826
sg21
I0
sba(iArchitecture
Entity
p3827
(dp3828
g11
(lp3829
sg13
S'android.view.SurfaceControl$PhysicalDisplayInfo'
p3830
sg15
(lp3831
sg17
(lp3832
sg19
(lp3833
sg21
I0
sba(iArchitecture
Entity
p3834
(dp3835
g11
(lp3836
sg13
S'android.view.SurfaceHolder'
p3837
sg15
(lp3838
sg17
(lp3839
sg19
(lp3840
sg21
I0
sba(iArchitecture
Entity
p3841
(dp3842
g11
(lp3843
sg13
S'android.view.SurfaceHolder$BadSurfaceTypeException'
p3844
sg15
(lp3845
sg17
(lp3846
sg19
(lp3847
sg21
I0
sba(iArchitecture
Entity
p3848
(dp3849
g11
(lp3850
sg13
S'android.view.SurfaceHolder$Callback'
p3851
sg15
(lp3852
sg17
(lp3853
sg19
(lp3854
sg21
I0
sba(iArchitecture
Entity
p3855
(dp3856
g11
(lp3857
sg13
S'android.view.SurfaceHolder$Callback2'
p3858
sg15
(lp3859
sg17
(lp3860
sg19
(lp3861
sg21
I0
sba(iArchitecture
Entity
p3862
(dp3863
g11
(lp3864
sg13
S'android.view.SurfaceSession'
p3865
sg15
(lp3866
sg17
(lp3867
sg19
(lp3868
sg21
I0
sba(iArchitecture
Entity
p3869
(dp3870
g11
(lp3871
sg13
S'android.view.SurfaceView'
p3872
sg15
(lp3873
sg17
(lp3874
sg19
(lp3875
sg21
I0
sba(iArchitecture
Entity
p3876
(dp3877
g11
(lp3878
sg13
S'android.view.SurfaceView$1'
p3879
sg15
(lp3880
sg17
(lp3881
sg19
(lp3882
sg21
I0
sba(iArchitecture
Entity
p3883
(dp3884
g11
(lp3885
sg13
S'android.view.SurfaceView$2'
p3886
sg15
(lp3887
sg17
(lp3888
sg19
(lp3889
sg21
I0
sba(iArchitecture
Entity
p3890
(dp3891
g11
(lp3892
sg13
S'android.view.SurfaceView$3'
p3893
sg15
(lp3894
sg17
(lp3895
sg19
(lp3896
sg21
I0
sba(iArchitecture
Entity
p3897
(dp3898
g11
(lp3899
sg13
S'android.view.SurfaceView$4'
p3900
sg15
(lp3901
sg17
(lp3902
sg19
(lp3903
sg21
I0
sba(iArchitecture
Entity
p3904
(dp3905
g11
(lp3906
sg13
S'android.view.SurfaceView$MyWindow'
p3907
sg15
(lp3908
sg17
(lp3909
sg19
(lp3910
sg21
I0
sba(iArchitecture
Entity
p3911
(dp3912
g11
(lp3913
sg13
S'android.view.animation.AccelerateDecelerateInterpolator'
p3914
sg15
(lp3915
sg17
(lp3916
sg19
(lp3917
sg21
I0
sba(iArchitecture
Entity
p3918
(dp3919
g11
(lp3920
sg13
S'android.view.animation.BaseInterpolator'
p3921
sg15
(lp3922
sg17
(lp3923
sg19
(lp3924
sg21
I0
sba(iArchitecture
Entity
p3925
(dp3926
g11
(lp3927
sg13
S'android.view.animation.BounceInterpolator'
p3928
sg15
(lp3929
sg17
(lp3930
sg19
(lp3931
sg21
I0
sba(iArchitecture
Entity
p3932
(dp3933
g11
(lp3934
sg13
S'android.view.animation.Interpolator'
p3935
sg15
(lp3936
sg17
(lp3937
sg19
(lp3938
sg21
I0
sba(iArchitecture
Entity
p3939
(dp3940
g11
(lp3941
sg13
S'android.view.animation.LinearInterpolator'
p3942
sg15
(lp3943
sg17
(lp3944
sg19
(lp3945
sg21
I0
sba(iArchitecture
Entity
p3946
(dp3947
g11
(lp3948
sg13
S'android.view.inputmethod.CompletionInfo'
p3949
sg15
(lp3950
sg17
(lp3951
sg19
(lp3952
sg21
I0
sba(iArchitecture
Entity
p3953
(dp3954
g11
(lp3955
sg13
S'android.view.inputmethod.CompletionInfo$1'
p3956
sg15
(lp3957
sg17
(lp3958
sg19
(lp3959
sg21
I0
sba(iArchitecture
Entity
p3960
(dp3961
g11
(lp3962
sg13
S'android.view.inputmethod.ExtractedTextRequest'
p3963
sg15
(lp3964
sg17
(lp3965
sg19
(lp3966
sg21
I0
sba(iArchitecture
Entity
p3967
(dp3968
g11
(lp3969
sg13
S'android.view.inputmethod.ExtractedTextRequest$1'
p3970
sg15
(lp3971
sg17
(lp3972
sg19
(lp3973
sg21
I0
sba(iArchitecture
Entity
p3974
(dp3975
g11
(lp3976
sg13
S'android.webkit.DownloadListener'
p3977
sg15
(lp3978
sg17
(lp3979
sg19
(lp3980
sg21
I0
sba(iArchitecture
Entity
p3981
(dp3982
g11
(lp3983
sg13
S'android.webkit.JavascriptInterface'
p3984
sg15
(lp3985
sg17
(lp3986
sg19
(lp3987
sg21
I0
sba(iArchitecture
Entity
p3988
(dp3989
g11
(lp3990
sg13
S'android.webkit.JsPromptResult'
p3991
sg15
(lp3992
sg17
(lp3993
sg19
(lp3994
sg21
I0
sba(iArchitecture
Entity
p3995
(dp3996
g11
(lp3997
sg13
S'android.webkit.JsResult'
p3998
sg15
(lp3999
sg17
(lp4000
sg19
(lp4001
sg21
I0
sba(iArchitecture
Entity
p4002
(dp4003
g11
(lp4004
sg13
S'android.webkit.JsResult$ResultReceiver'
p4005
sg15
(lp4006
sg17
(lp4007
sg19
(lp4008
sg21
I0
sba(iArchitecture
Entity
p4009
(dp4010
g11
(lp4011
sg13
S'android.webkit.SslErrorHandler'
p4012
sg15
(lp4013
sg17
(lp4014
sg19
(lp4015
sg21
I0
sba(iArchitecture
Entity
p4016
(dp4017
g11
(lp4018
sg13
S'android.webkit.ValueCallback'
p4019
sg15
(lp4020
sg17
(lp4021
sg19
(lp4022
sg21
I0
sba(iArchitecture
Entity
p4023
(dp4024
g11
(lp4025
sg13
S'android.widget.ActionMenuPresenter'
p4026
sg15
(lp4027
sg17
(lp4028
sg19
(lp4029
sg21
I0
sba(iArchitecture
Entity
p4030
(dp4031
g11
(lp4032
sg13
S'android.widget.ActionMenuPresenter$1'
p4033
sg15
(lp4034
sg17
(lp4035
sg19
(lp4036
sg21
I0
sba(iArchitecture
Entity
p4037
(dp4038
g11
(lp4039
sg13
S'android.widget.ActionMenuPresenter$2'
p4040
sg15
(lp4041
sg17
(lp4042
sg19
(lp4043
sg21
I0
sba(iArchitecture
Entity
p4044
(dp4045
g11
(lp4046
sg13
S'android.widget.ActionMenuPresenter$3'
p4047
sg15
(lp4048
sg17
(lp4049
sg19
(lp4050
sg21
I0
sba(iArchitecture
Entity
p4051
(dp4052
g11
(lp4053
sg13
S'android.widget.ActionMenuPresenter$4'
p4054
sg15
(lp4055
sg17
(lp4056
sg19
(lp4057
sg21
I0
sba(iArchitecture
Entity
p4058
(dp4059
g11
(lp4060
sg13
S'android.widget.ActionMenuPresenter$5'
p4061
sg15
(lp4062
sg17
(lp4063
sg19
(lp4064
sg21
I0
sba(iArchitecture
Entity
p4065
(dp4066
g11
(lp4067
sg13
S'android.widget.ActionMenuPresenter$ActionButtonSubmenu'
p4068
sg15
(lp4069
sg17
(lp4070
sg19
(lp4071
sg21
I0
sba(iArchitecture
Entity
p4072
(dp4073
g11
(lp4074
sg13
S'android.widget.ActionMenuPresenter$ActionMenuPopupCallback'
p4075
sg15
(lp4076
sg17
(lp4077
sg19
(lp4078
sg21
I0
sba(iArchitecture
Entity
p4079
(dp4080
g11
(lp4081
sg13
S'android.widget.ActionMenuPresenter$ItemAnimationInfo'
p4082
sg15
(lp4083
sg17
(lp4084
sg19
(lp4085
sg21
I0
sba(iArchitecture
Entity
p4086
(dp4087
g11
(lp4088
sg13
S'android.widget.ActionMenuPresenter$MenuItemLayoutInfo'
p4089
sg15
(lp4090
sg17
(lp4091
sg19
(lp4092
sg21
I0
sba(iArchitecture
Entity
p4093
(dp4094
g11
(lp4095
sg13
S'android.widget.ActionMenuPresenter$OpenOverflowRunnable'
p4096
sg15
(lp4097
sg17
(lp4098
sg19
(lp4099
sg21
I0
sba(iArchitecture
Entity
p4100
(dp4101
g11
(lp4102
sg13
S'android.widget.ActionMenuPresenter$OverflowMenuButton'
p4103
sg15
(lp4104
sg17
(lp4105
sg19
(lp4106
sg21
I0
sba(iArchitecture
Entity
p4107
(dp4108
g11
(lp4109
sg13
S'android.widget.ActionMenuPresenter$OverflowMenuButton$1'
p4110
sg15
(lp4111
sg17
(lp4112
sg19
(lp4113
sg21
I0
sba(iArchitecture
Entity
p4114
(dp4115
g11
(lp4116
sg13
S'android.widget.ActionMenuPresenter$OverflowPopup'
p4117
sg15
(lp4118
sg17
(lp4119
sg19
(lp4120
sg21
I0
sba(iArchitecture
Entity
p4121
(dp4122
g11
(lp4123
sg13
S'android.widget.ActionMenuPresenter$PopupPresenterCallback'
p4124
sg15
(lp4125
sg17
(lp4126
sg19
(lp4127
sg21
I0
sba(iArchitecture
Entity
p4128
(dp4129
g11
(lp4130
sg13
S'android.widget.ActionMenuPresenter$SavedState'
p4131
sg15
(lp4132
sg17
(lp4133
sg19
(lp4134
sg21
I0
sba(iArchitecture
Entity
p4135
(dp4136
g11
(lp4137
sg13
S'android.widget.ActionMenuPresenter$SavedState$1'
p4138
sg15
(lp4139
sg17
(lp4140
sg19
(lp4141
sg21
I0
sba(iArchitecture
Entity
p4142
(dp4143
g11
(lp4144
sg13
S'android.widget.Adapter'
p4145
sg15
(lp4146
sg17
(lp4147
sg19
(lp4148
sg21
I0
sba(iArchitecture
Entity
p4149
(dp4150
g11
(lp4151
sg13
S'android.widget.AdapterView'
p4152
sg15
(lp4153
sg17
(lp4154
sg19
(lp4155
sg21
I0
sba(iArchitecture
Entity
p4156
(dp4157
g11
(lp4158
sg13
S'android.widget.AdapterView$AdapterContextMenuInfo'
p4159
sg15
(lp4160
sg17
(lp4161
sg19
(lp4162
sg21
I0
sba(iArchitecture
Entity
p4163
(dp4164
g11
(lp4165
sg13
S'android.widget.AdapterView$AdapterDataSetObserver'
p4166
sg15
(lp4167
sg17
(lp4168
sg19
(lp4169
sg21
I0
sba(iArchitecture
Entity
p4170
(dp4171
g11
(lp4172
sg13
S'android.widget.AdapterView$OnItemClickListener'
p4173
sg15
(lp4174
sg17
(lp4175
sg19
(lp4176
sg21
I0
sba(iArchitecture
Entity
p4177
(dp4178
g11
(lp4179
sg13
S'android.widget.AdapterView$OnItemLongClickListener'
p4180
sg15
(lp4181
sg17
(lp4182
sg19
(lp4183
sg21
I0
sba(iArchitecture
Entity
p4184
(dp4185
g11
(lp4186
sg13
S'android.widget.AdapterView$OnItemSelectedListener'
p4187
sg15
(lp4188
sg17
(lp4189
sg19
(lp4190
sg21
I0
sba(iArchitecture
Entity
p4191
(dp4192
g11
(lp4193
sg13
S'android.widget.AdapterView$SelectionNotifier'
p4194
sg15
(lp4195
sg17
(lp4196
sg19
(lp4197
sg21
I0
sba(iArchitecture
Entity
p4198
(dp4199
g11
(lp4200
sg13
S'android.widget.Advanceable'
p4201
sg15
(lp4202
sg17
(lp4203
sg19
(lp4204
sg21
I0
sba(iArchitecture
Entity
p4205
(dp4206
g11
(lp4207
sg13
S'android.widget.AppSecurityPermissions'
p4208
sg15
(lp4209
sg17
(lp4210
sg19
(lp4211
sg21
I0
sba(iArchitecture
Entity
p4212
(dp4213
g11
(lp4214
sg13
S'android.widget.AppSecurityPermissions$MyPermissionGroupInfo'
p4215
sg15
(lp4216
sg17
(lp4217
sg19
(lp4218
sg21
I0
sba(iArchitecture
Entity
p4219
(dp4220
g11
(lp4221
sg13
S'android.widget.AppSecurityPermissions$MyPermissionInfo'
p4222
sg15
(lp4223
sg17
(lp4224
sg19
(lp4225
sg21
I0
sba(iArchitecture
Entity
p4226
(dp4227
g11
(lp4228
sg13
S'android.widget.AppSecurityPermissions$PermissionGroupInfoComparator'
p4229
sg15
(lp4230
sg17
(lp4231
sg19
(lp4232
sg21
I0
sba(iArchitecture
Entity
p4233
(dp4234
g11
(lp4235
sg13
S'android.widget.AppSecurityPermissions$PermissionInfoComparator'
p4236
sg15
(lp4237
sg17
(lp4238
sg19
(lp4239
sg21
I0
sba(iArchitecture
Entity
p4240
(dp4241
g11
(lp4242
sg13
S'android.widget.AppSecurityPermissions$PermissionItemView'
p4243
sg15
(lp4244
sg17
(lp4245
sg19
(lp4246
sg21
I0
sba(iArchitecture
Entity
p4247
(dp4248
g11
(lp4249
sg13
S'android.widget.AppSecurityPermissions$PermissionItemView$1'
p4250
sg15
(lp4251
sg17
(lp4252
sg19
(lp4253
sg21
I0
sba(iArchitecture
Entity
p4254
(dp4255
g11
(lp4256
sg13
S'android.widget.Button'
p4257
sg15
(lp4258
sg17
(lp4259
sg19
(lp4260
sg21
I0
sba(iArchitecture
Entity
p4261
(dp4262
g11
(lp4263
sg13
S'android.widget.CheckBox'
p4264
sg15
(lp4265
sg17
(lp4266
sg19
(lp4267
sg21
I0
sba(iArchitecture
Entity
p4268
(dp4269
g11
(lp4270
sg13
S'android.widget.Checkable'
p4271
sg15
(lp4272
sg17
(lp4273
sg19
(lp4274
sg21
I0
sba(iArchitecture
Entity
p4275
(dp4276
g11
(lp4277
sg13
S'android.widget.DatePickerController'
p4278
sg15
(lp4279
sg17
(lp4280
sg19
(lp4281
sg21
I0
sba(iArchitecture
Entity
p4282
(dp4283
g11
(lp4284
sg13
S'android.widget.EditText'
p4285
sg15
(lp4286
sg17
(lp4287
sg19
(lp4288
sg21
I0
sba(iArchitecture
Entity
p4289
(dp4290
g11
(lp4291
sg13
S'android.widget.FilterQueryProvider'
p4292
sg15
(lp4293
sg17
(lp4294
sg19
(lp4295
sg21
I0
sba(iArchitecture
Entity
p4296
(dp4297
g11
(lp4298
sg13
S'android.widget.Gallery'
p4299
sg15
(lp4300
sg17
(lp4301
sg19
(lp4302
sg21
I0
sba(iArchitecture
Entity
p4303
(dp4304
g11
(lp4305
sg13
S'android.widget.Gallery$1'
p4306
sg15
(lp4307
sg17
(lp4308
sg19
(lp4309
sg21
I0
sba(iArchitecture
Entity
p4310
(dp4311
g11
(lp4312
sg13
S'android.widget.Gallery$2'
p4313
sg15
(lp4314
sg17
(lp4315
sg19
(lp4316
sg21
I0
sba(iArchitecture
Entity
p4317
(dp4318
g11
(lp4319
sg13
S'android.widget.Gallery$FlingRunnable'
p4320
sg15
(lp4321
sg17
(lp4322
sg19
(lp4323
sg21
I0
sba(iArchitecture
Entity
p4324
(dp4325
g11
(lp4326
sg13
S'android.widget.Gallery$LayoutParams'
p4327
sg15
(lp4328
sg17
(lp4329
sg19
(lp4330
sg21
I0
sba(iArchitecture
Entity
p4331
(dp4332
g11
(lp4333
sg13
S'android.widget.ImageButton'
p4334
sg15
(lp4335
sg17
(lp4336
sg19
(lp4337
sg21
I0
sba(iArchitecture
Entity
p4338
(dp4339
g11
(lp4340
sg13
S'android.widget.OnDateChangedListener'
p4341
sg15
(lp4342
sg17
(lp4343
sg19
(lp4344
sg21
I0
sba(iArchitecture
Entity
p4345
(dp4346
g11
(lp4347
sg13
S'android.widget.Space'
p4348
sg15
(lp4349
sg17
(lp4350
sg19
(lp4351
sg21
I0
sba(iArchitecture
Entity
p4352
(dp4353
g11
(lp4354
sg13
S'android.widget.TwoLineListItem'
p4355
sg15
(lp4356
sg17
(lp4357
sg19
(lp4358
sg21
I0
sba(iArchitecture
Entity
p4359
(dp4360
g11
(lp4361
sg13
S'android.widget.WrapperListAdapter'
p4362
sg15
(lp4363
sg17
(lp4364
sg19
(lp4365
sg21
I0
sba(iArchitecture
Entity
p4366
(dp4367
g11
(lp4368
sg13
S'com.android.internal.alsa.LineTokenizer'
p4369
sg15
(lp4370
sg17
(lp4371
sg19
(lp4372
sg21
I0
sba(iArchitecture
Entity
p4373
(dp4374
g11
(lp4375
sg13
S'com.android.internal.annotations.GuardedBy'
p4376
sg15
(lp4377
sg17
(lp4378
sg19
(lp4379
sg21
I0
sba(iArchitecture
Entity
p4380
(dp4381
g11
(lp4382
sg13
S'com.android.internal.annotations.Immutable'
p4383
sg15
(lp4384
sg17
(lp4385
sg19
(lp4386
sg21
I0
sba(iArchitecture
Entity
p4387
(dp4388
g11
(lp4389
sg13
S'com.android.internal.annotations.VisibleForTesting'
p4390
sg15
(lp4391
sg17
(lp4392
sg19
(lp4393
sg21
I0
sba(iArchitecture
Entity
p4394
(dp4395
g11
(lp4396
sg13
S'com.android.internal.annotations.VisibleForTesting$Visibility'
p4397
sg15
(lp4398
sg17
(lp4399
sg19
(lp4400
sg21
I0
sba(iArchitecture
Entity
p4401
(dp4402
g11
(lp4403
sg13
S'com.android.internal.app.AlertController'
p4404
sg15
(lp4405
sg17
(lp4406
sg19
(lp4407
sg21
I0
sba(iArchitecture
Entity
p4408
(dp4409
g11
(lp4410
sg13
S'com.android.internal.app.AlertController$1'
p4411
sg15
(lp4412
sg17
(lp4413
sg19
(lp4414
sg21
I0
sba(iArchitecture
Entity
p4415
(dp4416
g11
(lp4417
sg13
S'com.android.internal.app.AlertController$2'
p4418
sg15
(lp4419
sg17
(lp4420
sg19
(lp4421
sg21
I0
sba(iArchitecture
Entity
p4422
(dp4423
g11
(lp4424
sg13
S'com.android.internal.app.AlertController$AlertParams'
p4425
sg15
(lp4426
sg17
(lp4427
sg19
(lp4428
sg21
I0
sba(iArchitecture
Entity
p4429
(dp4430
g11
(lp4431
sg13
S'com.android.internal.app.AlertController$AlertParams$1'
p4432
sg15
(lp4433
sg17
(lp4434
sg19
(lp4435
sg21
I0
sba(iArchitecture
Entity
p4436
(dp4437
g11
(lp4438
sg13
S'com.android.internal.app.AlertController$AlertParams$2'
p4439
sg15
(lp4440
sg17
(lp4441
sg19
(lp4442
sg21
I0
sba(iArchitecture
Entity
p4443
(dp4444
g11
(lp4445
sg13
S'com.android.internal.app.AlertController$AlertParams$3'
p4446
sg15
(lp4447
sg17
(lp4448
sg19
(lp4449
sg21
I0
sba(iArchitecture
Entity
p4450
(dp4451
g11
(lp4452
sg13
S'com.android.internal.app.AlertController$AlertParams$4'
p4453
sg15
(lp4454
sg17
(lp4455
sg19
(lp4456
sg21
I0
sba(iArchitecture
Entity
p4457
(dp4458
g11
(lp4459
sg13
S'com.android.internal.app.AlertController$AlertParams$OnPrepareListViewListener'
p4460
sg15
(lp4461
sg17
(lp4462
sg19
(lp4463
sg21
I0
sba(iArchitecture
Entity
p4464
(dp4465
g11
(lp4466
sg13
S'com.android.internal.app.AlertController$ButtonHandler'
p4467
sg15
(lp4468
sg17
(lp4469
sg19
(lp4470
sg21
I0
sba(iArchitecture
Entity
p4471
(dp4472
g11
(lp4473
sg13
S'com.android.internal.app.AlertController$CheckedItemAdapter'
p4474
sg15
(lp4475
sg17
(lp4476
sg19
(lp4477
sg21
I0
sba(iArchitecture
Entity
p4478
(dp4479
g11
(lp4480
sg13
S'com.android.internal.app.AlertController$RecycleListView'
p4481
sg15
(lp4482
sg17
(lp4483
sg19
(lp4484
sg21
I0
sba(iArchitecture
Entity
p4485
(dp4486
g11
(lp4487
sg13
S'com.android.internal.backup.LocalTransportService'
p4488
sg15
(lp4489
sg17
(lp4490
sg19
(lp4491
sg21
I0
sba(iArchitecture
Entity
p4492
(dp4493
g11
(lp4494
sg13
S'com.android.internal.logging.AndroidConfig'
p4495
sg15
(lp4496
sg17
(lp4497
sg19
(lp4498
sg21
I0
sba(iArchitecture
Entity
p4499
(dp4500
g11
(lp4501
sg13
S'com.android.internal.os.AndroidPrintStream'
p4502
sg15
(lp4503
sg17
(lp4504
sg19
(lp4505
sg21
I0
sba(iArchitecture
Entity
p4506
(dp4507
g11
(lp4508
sg13
S'com.android.internal.os.KernelWakelockStats'
p4509
sg15
(lp4510
sg17
(lp4511
sg19
(lp4512
sg21
I0
sba(iArchitecture
Entity
p4513
(dp4514
g11
(lp4515
sg13
S'com.android.internal.os.KernelWakelockStats$Entry'
p4516
sg15
(lp4517
sg17
(lp4518
sg19
(lp4519
sg21
I0
sba(iArchitecture
Entity
p4520
(dp4521
g11
(lp4522
sg13
S'com.android.internal.os.ZygoteSecurityException'
p4523
sg15
(lp4524
sg17
(lp4525
sg19
(lp4526
sg21
I0
sba(iArchitecture
Entity
p4527
(dp4528
g11
(lp4529
sg13
S'com.android.internal.policy.PhoneLayoutInflater'
p4530
sg15
(lp4531
sg17
(lp4532
sg19
(lp4533
sg21
I0
sba(iArchitecture
Entity
p4534
(dp4535
g11
(lp4536
sg13
S'com.android.internal.preference.YesNoPreference'
p4537
sg15
(lp4538
sg17
(lp4539
sg19
(lp4540
sg21
I0
sba(iArchitecture
Entity
p4541
(dp4542
g11
(lp4543
sg13
S'com.android.internal.preference.YesNoPreference$SavedState'
p4544
sg15
(lp4545
sg17
(lp4546
sg19
(lp4547
sg21
I0
sba(iArchitecture
Entity
p4548
(dp4549
g11
(lp4550
sg13
S'com.android.internal.preference.YesNoPreference$SavedState$1'
p4551
sg15
(lp4552
sg17
(lp4553
sg19
(lp4554
sg21
I0
sba(iArchitecture
Entity
p4555
(dp4556
g11
(lp4557
sg13
S'com.android.internal.telephony.CallInfo'
p4558
sg15
(lp4559
sg17
(lp4560
sg19
(lp4561
sg21
I0
sba(iArchitecture
Entity
p4562
(dp4563
g11
(lp4564
sg13
S'com.android.internal.telephony.CallInfo$1'
p4565
sg15
(lp4566
sg17
(lp4567
sg19
(lp4568
sg21
I0
sba(iArchitecture
Entity
p4569
(dp4570
g11
(lp4571
sg13
S'com.android.internal.telephony.DcParamObject'
p4572
sg15
(lp4573
sg17
(lp4574
sg19
(lp4575
sg21
I0
sba(iArchitecture
Entity
p4576
(dp4577
g11
(lp4578
sg13
S'com.android.internal.telephony.DcParamObject$1'
p4579
sg15
(lp4580
sg17
(lp4581
sg19
(lp4582
sg21
I0
sba(iArchitecture
Entity
p4583
(dp4584
g11
(lp4585
sg13
S'com.android.internal.telephony.DctConstants'
p4586
sg15
(lp4587
sg17
(lp4588
sg19
(lp4589
sg21
I0
sba(iArchitecture
Entity
p4590
(dp4591
g11
(lp4592
sg13
S'com.android.internal.telephony.DctConstants$Activity'
p4593
sg15
(lp4594
sg17
(lp4595
sg19
(lp4596
sg21
I0
sba(iArchitecture
Entity
p4597
(dp4598
g11
(lp4599
sg13
S'com.android.internal.telephony.DctConstants$State'
p4600
sg15
(lp4601
sg17
(lp4602
sg19
(lp4603
sg21
I0
sba(iArchitecture
Entity
p4604
(dp4605
g11
(lp4606
sg13
S'com.android.internal.telephony.EncodeException'
p4607
sg15
(lp4608
sg17
(lp4609
sg19
(lp4610
sg21
I0
sba(iArchitecture
Entity
p4611
(dp4612
g11
(lp4613
sg13
S'com.android.internal.telephony.SmsRawData'
p4614
sg15
(lp4615
sg17
(lp4616
sg19
(lp4617
sg21
I0
sba(iArchitecture
Entity
p4618
(dp4619
g11
(lp4620
sg13
S'com.android.internal.telephony.SmsRawData$1'
p4621
sg15
(lp4622
sg17
(lp4623
sg19
(lp4624
sg21
I0
sba(iArchitecture
Entity
p4625
(dp4626
g11
(lp4627
sg13
S'com.android.internal.transition.TransitionConstants'
p4628
sg15
(lp4629
sg17
(lp4630
sg19
(lp4631
sg21
I0
sba(iArchitecture
Entity
p4632
(dp4633
g11
(lp4634
sg13
S'com.android.internal.util.FastMath'
p4635
sg15
(lp4636
sg17
(lp4637
sg19
(lp4638
sg21
I0
sba(iArchitecture
Entity
p4639
(dp4640
g11
(lp4641
sg13
S'com.android.internal.util.LocalLog'
p4642
sg15
(lp4643
sg17
(lp4644
sg19
(lp4645
sg21
I0
sba(iArchitecture
Entity
p4646
(dp4647
g11
(lp4648
sg13
S'com.android.internal.util.Predicate'
p4649
sg15
(lp4650
sg17
(lp4651
sg19
(lp4652
sg21
I0
sba(iArchitecture
Entity
p4653
(dp4654
g11
(lp4655
sg13
S'com.android.internal.util.State'
p4656
sg15
(lp4657
sg17
(lp4658
sg19
(lp4659
sg21
I0
sba(iArchitecture
Entity
p4660
(dp4661
g11
(lp4662
sg13
S'com.android.internal.util.VirtualRefBasePtr'
p4663
sg15
(lp4664
sg17
(lp4665
sg19
(lp4666
sg21
I0
sba(iArchitecture
Entity
p4667
(dp4668
g11
(lp4669
sg13
S'com.android.internal.view.RootViewSurfaceTaker'
p4670
sg15
(lp4671
sg17
(lp4672
sg19
(lp4673
sg21
I0
sba(iArchitecture
Entity
p4674
(dp4675
g11
(lp4676
sg13
S'com.android.internal.view.StandaloneActionMode'
p4677
sg15
(lp4678
sg17
(lp4679
sg19
(lp4680
sg21
I0
sba(iArchitecture
Entity
p4681
(dp4682
g11
(lp4683
sg13
S'com.android.internal.view.animation.HasNativeInterpolator'
p4684
sg15
(lp4685
sg17
(lp4686
sg19
(lp4687
sg21
I0
sba(iArchitecture
Entity
p4688
(dp4689
g11
(lp4690
sg13
S'com.android.internal.view.animation.NativeInterpolatorFactory'
p4691
sg15
(lp4692
sg17
(lp4693
sg19
(lp4694
sg21
I0
sba(iArchitecture
Entity
p4695
(dp4696
g11
(lp4697
sg13
S'com.android.internal.view.animation.NativeInterpolatorFactoryHelper'
p4698
sg15
(lp4699
sg17
(lp4700
sg19
(lp4701
sg21
I0
sba(iArchitecture
Entity
p4702
(dp4703
g11
(lp4704
sg13
S'com.android.internal.view.menu.ActionMenu'
p4705
sg15
(lp4706
sg17
(lp4707
sg19
(lp4708
sg21
I0
sba(iArchitecture
Entity
p4709
(dp4710
g11
(lp4711
sg13
S'com.android.internal.view.menu.ActionMenuItem'
p4712
sg15
(lp4713
sg17
(lp4714
sg19
(lp4715
sg21
I0
sba(iArchitecture
Entity
p4716
(dp4717
g11
(lp4718
sg13
S'com.android.internal.view.menu.ActionMenuItemView'
p4719
sg15
(lp4720
sg17
(lp4721
sg19
(lp4722
sg21
I0
sba(iArchitecture
Entity
p4723
(dp4724
g11
(lp4725
sg13
S'com.android.internal.view.menu.ActionMenuItemView$ActionMenuItemForwardingListener'
p4726
sg15
(lp4727
sg17
(lp4728
sg19
(lp4729
sg21
I0
sba(iArchitecture
Entity
p4730
(dp4731
g11
(lp4732
sg13
S'com.android.internal.view.menu.ActionMenuItemView$PopupCallback'
p4733
sg15
(lp4734
sg17
(lp4735
sg19
(lp4736
sg21
I0
sba(iArchitecture
Entity
p4737
(dp4738
g11
(lp4739
sg13
S'com.android.internal.view.menu.BaseMenuPresenter'
p4740
sg15
(lp4741
sg17
(lp4742
sg19
(lp4743
sg21
I0
sba(iArchitecture
Entity
p4744
(dp4745
g11
(lp4746
sg13
S'com.android.internal.view.menu.ContextMenuBuilder'
p4747
sg15
(lp4748
sg17
(lp4749
sg19
(lp4750
sg21
I0
sba(iArchitecture
Entity
p4751
(dp4752
g11
(lp4753
sg13
S'com.android.internal.view.menu.ExpandedMenuView'
p4754
sg15
(lp4755
sg17
(lp4756
sg19
(lp4757
sg21
I0
sba(iArchitecture
Entity
p4758
(dp4759
g11
(lp4760
sg13
S'com.android.internal.view.menu.IconMenuItemView'
p4761
sg15
(lp4762
sg17
(lp4763
sg19
(lp4764
sg21
I0
sba(iArchitecture
Entity
p4765
(dp4766
g11
(lp4767
sg13
S'com.android.internal.view.menu.IconMenuPresenter'
p4768
sg15
(lp4769
sg17
(lp4770
sg19
(lp4771
sg21
I0
sba(iArchitecture
Entity
p4772
(dp4773
g11
(lp4774
sg13
S'com.android.internal.view.menu.IconMenuPresenter$SubMenuPresenterCallback'
p4775
sg15
(lp4776
sg17
(lp4777
sg19
(lp4778
sg21
I0
sba(iArchitecture
Entity
p4779
(dp4780
g11
(lp4781
sg13
S'com.android.internal.view.menu.ListMenuItemView'
p4782
sg15
(lp4783
sg17
(lp4784
sg19
(lp4785
sg21
I0
sba(iArchitecture
Entity
p4786
(dp4787
g11
(lp4788
sg13
S'com.android.internal.view.menu.ListMenuPresenter'
p4789
sg15
(lp4790
sg17
(lp4791
sg19
(lp4792
sg21
I0
sba(iArchitecture
Entity
p4793
(dp4794
g11
(lp4795
sg13
S'com.android.internal.view.menu.ListMenuPresenter$MenuAdapter'
p4796
sg15
(lp4797
sg17
(lp4798
sg19
(lp4799
sg21
I0
sba(iArchitecture
Entity
p4800
(dp4801
g11
(lp4802
sg13
S'com.android.internal.view.menu.MenuBuilder'
p4803
sg15
(lp4804
sg17
(lp4805
sg19
(lp4806
sg21
I0
sba(iArchitecture
Entity
p4807
(dp4808
g11
(lp4809
sg13
S'com.android.internal.view.menu.MenuBuilder$Callback'
p4810
sg15
(lp4811
sg17
(lp4812
sg19
(lp4813
sg21
I0
sba(iArchitecture
Entity
p4814
(dp4815
g11
(lp4816
sg13
S'com.android.internal.view.menu.MenuBuilder$ItemInvoker'
p4817
sg15
(lp4818
sg17
(lp4819
sg19
(lp4820
sg21
I0
sba(iArchitecture
Entity
p4821
(dp4822
g11
(lp4823
sg13
S'com.android.internal.view.menu.MenuItemImpl'
p4824
sg15
(lp4825
sg17
(lp4826
sg19
(lp4827
sg21
I0
sba(iArchitecture
Entity
p4828
(dp4829
g11
(lp4830
sg13
S'com.android.internal.view.menu.MenuItemImpl$1'
p4831
sg15
(lp4832
sg17
(lp4833
sg19
(lp4834
sg21
I0
sba(iArchitecture
Entity
p4835
(dp4836
g11
(lp4837
sg13
S'com.android.internal.view.menu.MenuPresenter'
p4838
sg15
(lp4839
sg17
(lp4840
sg19
(lp4841
sg21
I0
sba(iArchitecture
Entity
p4842
(dp4843
g11
(lp4844
sg13
S'com.android.internal.view.menu.MenuPresenter$Callback'
p4845
sg15
(lp4846
sg17
(lp4847
sg19
(lp4848
sg21
I0
sba(iArchitecture
Entity
p4849
(dp4850
g11
(lp4851
sg13
S'com.android.internal.widget.AbsActionBarView'
p4852
sg15
(lp4853
sg17
(lp4854
sg19
(lp4855
sg21
I0
sba(iArchitecture
Entity
p4856
(dp4857
g11
(lp4858
sg13
S'com.android.internal.widget.AbsActionBarView$1'
p4859
sg15
(lp4860
sg17
(lp4861
sg19
(lp4862
sg21
I0
sba(iArchitecture
Entity
p4863
(dp4864
g11
(lp4865
sg13
S'com.android.internal.widget.AbsActionBarView$VisibilityAnimListener'
p4866
sg15
(lp4867
sg17
(lp4868
sg19
(lp4869
sg21
I0
sba(iArchitecture
Entity
p4870
(dp4871
g11
(lp4872
sg13
S'com.android.internal.widget.AccountItemView'
p4873
sg15
(lp4874
sg17
(lp4875
sg19
(lp4876
sg21
I0
sba(iArchitecture
Entity
p4877
(dp4878
g11
(lp4879
sg13
S'com.android.internal.widget.DecorToolbar'
p4880
sg15
(lp4881
sg17
(lp4882
sg19
(lp4883
sg21
I0
sba(iArchitecture
Entity
p4884
(dp4885
g11
(lp4886
sg13
S'com.android.internal.widget.DialogTitle'
p4887
sg15
(lp4888
sg17
(lp4889
sg19
(lp4890
sg21
I0
sba(iArchitecture
Entity
p4891
(dp4892
g11
(lp4893
sg13
S'com.android.internal.widget.FloatingToolbar'
p4894
sg15
(lp4895
sg17
(lp4896
sg19
(lp4897
sg21
I0
sba(iArchitecture
Entity
p4898
(dp4899
g11
(lp4900
sg13
S'com.android.internal.widget.FloatingToolbar$1'
p4901
sg15
(lp4902
sg17
(lp4903
sg19
(lp4904
sg21
I0
sba(iArchitecture
Entity
p4905
(dp4906
g11
(lp4907
sg13
S'com.android.internal.widget.FloatingToolbar$2'
p4908
sg15
(lp4909
sg17
(lp4910
sg19
(lp4911
sg21
I0
sba(iArchitecture
Entity
p4912
(dp4913
g11
(lp4914
sg13
S'com.android.internal.widget.FloatingToolbar$FloatingToolbarMainPanel'
p4915
sg15
(lp4916
sg17
(lp4917
sg19
(lp4918
sg21
I0
sba(iArchitecture
Entity
p4919
(dp4920
g11
(lp4921
sg13
S'com.android.internal.widget.FloatingToolbar$FloatingToolbarMainPanel$1'
p4922
sg15
(lp4923
sg17
(lp4924
sg19
(lp4925
sg21
I0
sba(iArchitecture
Entity
p4926
(dp4927
g11
(lp4928
sg13
S'com.android.internal.widget.FloatingToolbar$FloatingToolbarMainPanel$2'
p4929
sg15
(lp4930
sg17
(lp4931
sg19
(lp4932
sg21
I0
sba(iArchitecture
Entity
p4933
(dp4934
g11
(lp4935
sg13
S'com.android.internal.widget.FloatingToolbar$FloatingToolbarOverflowPanel'
p4936
sg15
(lp4937
sg17
(lp4938
sg19
(lp4939
sg21
I0
sba(iArchitecture
Entity
p4940
(dp4941
g11
(lp4942
sg13
S'com.android.internal.widget.FloatingToolbar$FloatingToolbarOverflowPanel$1'
p4943
sg15
(lp4944
sg17
(lp4945
sg19
(lp4946
sg21
I0
sba(iArchitecture
Entity
p4947
(dp4948
g11
(lp4949
sg13
S'com.android.internal.widget.FloatingToolbar$FloatingToolbarOverflowPanel$2'
p4950
sg15
(lp4951
sg17
(lp4952
sg19
(lp4953
sg21
I0
sba(iArchitecture
Entity
p4954
(dp4955
g11
(lp4956
sg13
S'com.android.internal.widget.FloatingToolbar$FloatingToolbarOverflowPanel$3'
p4957
sg15
(lp4958
sg17
(lp4959
sg19
(lp4960
sg21
I0
sba(iArchitecture
Entity
p4961
(dp4962
g11
(lp4963
sg13
S'com.android.internal.widget.FloatingToolbar$FloatingToolbarPopup'
p4964
sg15
(lp4965
sg17
(lp4966
sg19
(lp4967
sg21
I0
sba(iArchitecture
Entity
p4968
(dp4969
g11
(lp4970
sg13
S'com.android.internal.widget.FloatingToolbar$FloatingToolbarPopup$1'
p4971
sg15
(lp4972
sg17
(lp4973
sg19
(lp4974
sg21
I0
sba(iArchitecture
Entity
p4975
(dp4976
g11
(lp4977
sg13
S'com.android.internal.widget.FloatingToolbar$FloatingToolbarPopup$10'
p4978
sg15
(lp4979
sg17
(lp4980
sg19
(lp4981
sg21
I0
sba(iArchitecture
Entity
p4982
(dp4983
g11
(lp4984
sg13
S'com.android.internal.widget.FloatingToolbar$FloatingToolbarPopup$11'
p4985
sg15
(lp4986
sg17
(lp4987
sg19
(lp4988
sg21
I0
sba(iArchitecture
Entity
p4989
(dp4990
g11
(lp4991
sg13
S'com.android.internal.widget.FloatingToolbar$FloatingToolbarPopup$2'
p4992
sg15
(lp4993
sg17
(lp4994
sg19
(lp4995
sg21
I0
sba(iArchitecture
Entity
p4996
(dp4997
g11
(lp4998
sg13
S'com.android.internal.widget.FloatingToolbar$FloatingToolbarPopup$3'
p4999
sg15
(lp5000
sg17
(lp5001
sg19
(lp5002
sg21
I0
sba(iArchitecture
Entity
p5003
(dp5004
g11
(lp5005
sg13
S'com.android.internal.widget.FloatingToolbar$FloatingToolbarPopup$4'
p5006
sg15
(lp5007
sg17
(lp5008
sg19
(lp5009
sg21
I0
sba(iArchitecture
Entity
p5010
(dp5011
g11
(lp5012
sg13
S'com.android.internal.widget.FloatingToolbar$FloatingToolbarPopup$5'
p5013
sg15
(lp5014
sg17
(lp5015
sg19
(lp5016
sg21
I0
sba(iArchitecture
Entity
p5017
(dp5018
g11
(lp5019
sg13
S'com.android.internal.widget.FloatingToolbar$FloatingToolbarPopup$6'
p5020
sg15
(lp5021
sg17
(lp5022
sg19
(lp5023
sg21
I0
sba(iArchitecture
Entity
p5024
(dp5025
g11
(lp5026
sg13
S'com.android.internal.widget.FloatingToolbar$FloatingToolbarPopup$7'
p5027
sg15
(lp5028
sg17
(lp5029
sg19
(lp5030
sg21
I0
sba(iArchitecture
Entity
p5031
(dp5032
g11
(lp5033
sg13
S'com.android.internal.widget.FloatingToolbar$FloatingToolbarPopup$8'
p5034
sg15
(lp5035
sg17
(lp5036
sg19
(lp5037
sg21
I0
sba(iArchitecture
Entity
p5038
(dp5039
g11
(lp5040
sg13
S'com.android.internal.widget.FloatingToolbar$FloatingToolbarPopup$9'
p5041
sg15
(lp5042
sg17
(lp5043
sg19
(lp5044
sg21
I0
sba(iArchitecture
Entity
p5045
(dp5046
g11
(lp5047
sg13
S'com.android.internal.widget.FloatingToolbar$ViewFader'
p5048
sg15
(lp5049
sg17
(lp5050
sg19
(lp5051
sg21
I0
sba(iArchitecture
Entity
p5052
(dp5053
g11
(lp5054
sg13
S'com.android.internal.widget.LockScreenWidgetInterface'
p5055
sg15
(lp5056
sg17
(lp5057
sg19
(lp5058
sg21
I0
sba(iArchitecture
Entity
p5059
(dp5060
g11
(lp5061
sg13
S'com.android.server.BrickReceiver'
p5062
sg15
(lp5063
sg17
(lp5064
sg19
(lp5065
sg21
I0
sba(iArchitecture
Entity
p5066
(dp5067
g11
(lp5068
sg13
S'com.android.server.INativeDaemonConnectorCallbacks'
p5069
sg15
(lp5070
sg17
(lp5071
sg19
(lp5072
sg21
I0
sba(iArchitecture
Entity
p5073
(dp5074
g11
(lp5075
sg13
S'com.android.server.LocalServices'
p5076
sg15
(lp5077
sg17
(lp5078
sg19
(lp5079
sg21
I0
sba(iArchitecture
Entity
p5080
(dp5081
g11
(lp5082
sg13
S'com.android.server.NativeDaemonTimeoutException'
p5083
sg15
(lp5084
sg17
(lp5085
sg19
(lp5086
sg21
I0
sba(iArchitecture
Entity
p5087
(dp5088
g11
(lp5089
sg13
S'com.android.server.ServiceThread'
p5090
sg15
(lp5091
sg17
(lp5092
sg19
(lp5093
sg21
I0
sba(iArchitecture
Entity
p5094
(dp5095
g11
(lp5096
sg13
S'com.android.server.WidgetBackupProvider'
p5097
sg15
(lp5098
sg17
(lp5099
sg19
(lp5100
sg21
I0
sba(iArchitecture
Entity
p5101
(dp5102
g11
(lp5103
sg13
S'com.android.server.am.ActivityResult'
p5104
sg15
(lp5105
sg17
(lp5106
sg19
(lp5107
sg21
I0
sba(iArchitecture
Entity
p5108
(dp5109
g11
(lp5110
sg13
S'com.android.server.am.AppErrorResult'
p5111
sg15
(lp5112
sg17
(lp5113
sg19
(lp5114
sg21
I0
sba(iArchitecture
Entity
p5115
(dp5116
g11
(lp5117
sg13
S'com.android.server.am.LaunchWarningWindow'
p5118
sg15
(lp5119
sg17
(lp5120
sg19
(lp5121
sg21
I0
sba(iArchitecture
Entity
p5122
(dp5123
g11
(lp5124
sg13
S'com.android.server.display.DisplayBlanker'
p5125
sg15
(lp5126
sg17
(lp5127
sg19
(lp5128
sg21
I0
sba(iArchitecture
Entity
p5129
(dp5130
g11
(lp5131
sg13
S'com.android.server.display.DisplayDeviceInfo'
p5132
sg15
(lp5133
sg17
(lp5134
sg19
(lp5135
sg21
I0
sba(iArchitecture
Entity
p5136
(dp5137
g11
(lp5138
sg13
S'com.android.server.display.DisplayManagerService'
p5139
sg15
(lp5140
sg17
(lp5141
sg19
(lp5142
sg21
I0
sba(iArchitecture
Entity
p5143
(dp5144
g11
(lp5145
sg13
S'com.android.server.display.DisplayManagerService$BinderService'
p5146
sg15
(lp5147
sg17
(lp5148
sg19
(lp5149
sg21
I0
sba(iArchitecture
Entity
p5150
(dp5151
g11
(lp5152
sg13
S'com.android.server.display.DisplayManagerService$CallbackRecord'
p5153
sg15
(lp5154
sg17
(lp5155
sg19
(lp5156
sg21
I0
sba(iArchitecture
Entity
p5157
(dp5158
g11
(lp5159
sg13
S'com.android.server.display.DisplayManagerService$DisplayAdapterListener'
p5160
sg15
(lp5161
sg17
(lp5162
sg19
(lp5163
sg21
I0
sba(iArchitecture
Entity
p5164
(dp5165
g11
(lp5166
sg13
S'com.android.server.display.DisplayManagerService$DisplayManagerHandler'
p5167
sg15
(lp5168
sg17
(lp5169
sg19
(lp5170
sg21
I0
sba(iArchitecture
Entity
p5171
(dp5172
g11
(lp5173
sg13
S'com.android.server.display.DisplayManagerService$LocalService'
p5174
sg15
(lp5175
sg17
(lp5176
sg19
(lp5177
sg21
I0
sba(iArchitecture
Entity
p5178
(dp5179
g11
(lp5180
sg13
S'com.android.server.display.DisplayManagerService$LocalService$1'
p5181
sg15
(lp5182
sg17
(lp5183
sg19
(lp5184
sg21
I0
sba(iArchitecture
Entity
p5185
(dp5186
g11
(lp5187
sg13
S'com.android.server.display.DisplayManagerService$SyncRoot'
p5188
sg15
(lp5189
sg17
(lp5190
sg19
(lp5191
sg21
I0
sba(iArchitecture
Entity
p5192
(dp5193
g11
(lp5194
sg13
S'com.android.server.firewall.FilterFactory'
p5195
sg15
(lp5196
sg17
(lp5197
sg19
(lp5198
sg21
I0
sba(iArchitecture
Entity
p5199
(dp5200
g11
(lp5201
sg13
S'com.android.server.firewall.FilterList'
p5202
sg15
(lp5203
sg17
(lp5204
sg19
(lp5205
sg21
I0
sba(iArchitecture
Entity
p5206
(dp5207
g11
(lp5208
sg13
S'com.android.server.hdmi.HdmiAnnotations'
p5209
sg15
(lp5210
sg17
(lp5211
sg19
(lp5212
sg21
I0
sba(iArchitecture
Entity
p5213
(dp5214
g11
(lp5215
sg13
S'com.android.server.hdmi.HdmiAnnotations$IoThreadOnly'
p5216
sg15
(lp5217
sg17
(lp5218
sg19
(lp5219
sg21
I0
sba(iArchitecture
Entity
p5220
(dp5221
g11
(lp5222
sg13
S'com.android.server.hdmi.HdmiAnnotations$ServiceThreadOnly'
p5223
sg15
(lp5224
sg17
(lp5225
sg19
(lp5226
sg21
I0
sba(iArchitecture
Entity
p5227
(dp5228
g11
(lp5229
sg13
S'com.android.server.job.JobCompletedListener'
p5230
sg15
(lp5231
sg17
(lp5232
sg19
(lp5233
sg21
I0
sba(iArchitecture
Entity
p5234
(dp5235
g11
(lp5236
sg13
S'com.android.server.job.StateChangedListener'
p5237
sg15
(lp5238
sg17
(lp5239
sg19
(lp5240
sg21
I0
sba(iArchitecture
Entity
p5241
(dp5242
g11
(lp5243
sg13
S'com.android.server.lights.LightsManager'
p5244
sg15
(lp5245
sg17
(lp5246
sg19
(lp5247
sg21
I0
sba(iArchitecture
Entity
p5248
(dp5249
g11
(lp5250
sg13
S'com.android.server.location.LocationProviderInterface'
p5251
sg15
(lp5252
sg17
(lp5253
sg19
(lp5254
sg21
I0
sba(iArchitecture
Entity
p5255
(dp5256
g11
(lp5257
sg13
S'com.android.server.notification.NotificationManagerInternal'
p5258
sg15
(lp5259
sg17
(lp5260
sg19
(lp5261
sg21
I0
sba(iArchitecture
Entity
p5262
(dp5263
g11
(lp5264
sg13
S'com.android.server.notification.PropConfig'
p5265
sg15
(lp5266
sg17
(lp5267
sg19
(lp5268
sg21
I0
sba(iArchitecture
Entity
p5269
(dp5270
g11
(lp5271
sg13
S'com.android.server.pm.IntentFilterVerificationResponse'
p5272
sg15
(lp5273
sg17
(lp5274
sg19
(lp5275
sg21
I0
sba(iArchitecture
Entity
p5276
(dp5277
g11
(lp5278
sg13
S'com.android.server.pm.PackageVerificationResponse'
p5279
sg15
(lp5280
sg17
(lp5281
sg19
(lp5282
sg21
I0
sba(iArchitecture
Entity
p5283
(dp5284
g11
(lp5285
sg13
S'com.android.server.pm.PersistentPreferredIntentResolver'
p5286
sg15
(lp5287
sg17
(lp5288
sg19
(lp5289
sg21
I0
sba(iArchitecture
Entity
p5290
(dp5291
g11
(lp5292
sg13
S'com.android.server.pm.PreferredIntentResolver'
p5293
sg15
(lp5294
sg17
(lp5295
sg19
(lp5296
sg21
I0
sba(iArchitecture
Entity
p5297
(dp5298
g11
(lp5299
sg13
S'com.android.server.policy.LogDecelerateInterpolator'
p5300
sg15
(lp5301
sg17
(lp5302
sg19
(lp5303
sg21
I0
sba(iArchitecture
Entity
p5304
(dp5305
g11
(lp5306
sg13
S'com.android.server.power.ScreenOnBlocker'
p5307
sg15
(lp5308
sg17
(lp5309
sg19
(lp5310
sg21
I0
sba(iArchitecture
Entity
p5311
(dp5312
g11
(lp5313
sg13
S'com.android.server.power.SuspendBlocker'
p5314
sg15
(lp5315
sg17
(lp5316
sg19
(lp5317
sg21
I0
sba(iArchitecture
Entity
p5318
(dp5319
g11
(lp5320
sg13
S'com.android.server.storage.DeviceStorageMonitorInternal'
p5321
sg15
(lp5322
sg17
(lp5323
sg19
(lp5324
sg21
I0
sba(iArchitecture
Entity
p5325
(dp5326
g11
(lp5327
sg13
S'com.android.server.twilight.TwilightListener'
p5328
sg15
(lp5329
sg17
(lp5330
sg19
(lp5331
sg21
I0
sba(iArchitecture
Entity
p5332
(dp5333
g11
(lp5334
sg13
S'com.android.server.updates.CarrierProvisioningUrlsInstallReceiver'
p5335
sg15
(lp5336
sg17
(lp5337
sg19
(lp5338
sg21
I0
sba(iArchitecture
Entity
p5339
(dp5340
g11
(lp5341
sg13
S'com.android.server.updates.CertPinInstallReceiver'
p5342
sg15
(lp5343
sg17
(lp5344
sg19
(lp5345
sg21
I0
sba(iArchitecture
Entity
p5346
(dp5347
g11
(lp5348
sg13
S'com.android.server.updates.IntentFirewallInstallReceiver'
p5349
sg15
(lp5350
sg17
(lp5351
sg19
(lp5352
sg21
I0
sba(iArchitecture
Entity
p5353
(dp5354
g11
(lp5355
sg13
S'com.android.server.updates.SmsShortCodesInstallReceiver'
p5356
sg15
(lp5357
sg17
(lp5358
sg19
(lp5359
sg21
I0
sba(iArchitecture
Entity
p5360
(dp5361
g11
(lp5362
sg13
S'com.android.server.wm.StartingData'
p5363
sg15
(lp5364
sg17
(lp5365
sg19
(lp5366
sg21
I0
sba(iArchitecture
Entity
p5367
(dp5368
g11
(lp5369
sg13
S'com.android.server.wm.WindowAnimator'
p5370
sg15
(lp5371
sg17
(lp5372
sg19
(lp5373
sg21
I0
sba(iArchitecture
Entity
p5374
(dp5375
g11
(lp5376
sg13
S'com.android.server.wm.WindowAnimator$1'
p5377
sg15
(lp5378
sg17
(lp5379
sg19
(lp5380
sg21
I0
sba(iArchitecture
Entity
p5381
(dp5382
g11
(lp5383
sg13
S'com.android.server.wm.WindowAnimator$DisplayContentsAnimator'
p5384
sg15
(lp5385
sg17
(lp5386
sg19
(lp5387
sg21
I0
sba(iArchitecture
Entity
p5388
(dp5389
g11
(lp5390
sg13
S'com.android.server.wm.WindowList'
p5391
sg15
(lp5392
sg17
(lp5393
sg19
(lp5394
sg21
I0
sba(iArchitecture
Entity
p5395
(dp5396
g11
(lp5397
sg13
S'com.google.android.collect.Maps'
p5398
sg15
(lp5399
sg17
(lp5400
sg19
(lp5401
sg21
I0
sba(iArchitecture
Entity
p5402
(dp5403
g11
(lp5404
sg13
S'com.google.android.util.Procedure'
p5405
sg15
(lp5406
sg17
(lp5407
sg19
(lp5408
sg21
I0
sba(iArchitecture
Entity
p5409
(dp5410
g11
(lp5411
sg13
S'com.google.android.util.SmileyParser'
p5412
sg15
(lp5413
sg17
(lp5414
sg19
(lp5415
sg21
I0
sba(iArchitecture
Entity
p5416
(dp5417
g11
(lp5418
sg13
S'javax.microedition.khronos.egl.EGL'
p5419
sg15
(lp5420
sg17
(lp5421
sg19
(lp5422
sg21
I0
sba(iArchitecture
Entity
p5423
(dp5424
g11
(lp5425
sg13
S'javax.microedition.khronos.egl.EGL11'
p5426
sg15
(lp5427
sg17
(lp5428
sg19
(lp5429
sg21
I0
sba(iArchitecture
Entity
p5430
(dp5431
g11
(lp5432
sg13
S'javax.microedition.khronos.egl.EGLConfig'
p5433
sg15
(lp5434
sg17
(lp5435
sg19
(lp5436
sg21
I0
sba(iArchitecture
Entity
p5437
(dp5438
g11
(lp5439
sg13
S'javax.microedition.khronos.egl.EGLContext'
p5440
sg15
(lp5441
sg17
(lp5442
sg19
(lp5443
sg21
I0
sba(iArchitecture
Entity
p5444
(dp5445
g11
(lp5446
sg13
S'javax.microedition.khronos.egl.EGLDisplay'
p5447
sg15
(lp5448
sg17
(lp5449
sg19
(lp5450
sg21
I0
sba(iArchitecture
Entity
p5451
(dp5452
g11
(lp5453
sg13
S'javax.microedition.khronos.egl.EGLSurface'
p5454
sg15
(lp5455
sg17
(lp5456
sg19
(lp5457
sg21
I0
sba(iArchitecture
Entity
p5458
(dp5459
g11
(lp5460
sg13
S'javax.microedition.khronos.opengles.GL'
p5461
sg15
(lp5462
sg17
(lp5463
sg19
(lp5464
sg21
I0
sba(iArchitecture
Entity
p5465
(dp5466
g11
(lp5467
sg13
S'org.apache.http.conn.ConnectTimeoutException'
p5468
sg15
(lp5469
sg17
(lp5470
sg19
(lp5471
sg21
I0
sba(iArchitecture
Entity
p5472
(dp5473
g11
(lp5474
sg13
S'org.apache.http.conn.scheme.HostNameResolver'
p5475
sg15
(lp5476
sg17
(lp5477
sg19
(lp5478
sg21
I0
sba(iArchitecture
Entity
p5479
(dp5480
g11
(lp5481
sg13
S'org.apache.http.conn.ssl.AllowAllHostnameVerifier'
p5482
sg15
(lp5483
sg17
(lp5484
sg19
(lp5485
sg21
I0
sba(iArchitecture
Entity
p5486
(dp5487
g11
(lp5488
sg13
S'org.apache.http.conn.ssl.BrowserCompatHostnameVerifier'
p5489
sg15
(lp5490
sg17
(lp5491
sg19
(lp5492
sg21
I0
sba(iArchitecture
Entity
p5493
(dp5494
g11
(lp5495
sg13
S'org.apache.http.conn.ssl.StrictHostnameVerifier'
p5496
sg15
(lp5497
sg17
(lp5498
sg19
(lp5499
sg21
I0
sbasg71
(lp5500
g491
ag498
ag505
ag512
ag519
ag526
ag533
ag540
ag547
ag554
ag561
ag568
ag575
ag582
ag589
ag596
ag603
ag610
ag617
ag624
ag631
ag638
ag645
ag652
ag659
ag666
ag673
ag680
ag687
ag694
ag701
ag708
ag715
ag722
ag729
ag736
ag743
ag750
ag757
ag764
ag771
ag778
ag785
ag792
ag799
ag806
ag813
ag820
ag827
ag834
ag841
ag848
ag855
ag862
ag869
ag876
ag883
ag890
ag897
ag904
ag911
ag918
ag925
ag932
ag939
ag946
ag953
ag960
ag967
ag974
ag981
ag988
ag995
ag1002
ag1009
ag1016
ag1023
ag1030
ag1037
ag1044
ag1051
ag1058
ag1065
ag1072
ag1079
ag1086
ag1093
ag1100
ag1107
ag1114
ag1121
ag1128
ag1135
ag1142
ag1149
ag1156
ag1163
ag1170
ag1177
ag1184
ag1191
ag1198
ag1205
ag1212
ag1219
ag1226
ag1233
ag1240
ag1247
ag1254
ag1261
ag1268
ag1275
ag1282
ag1289
ag1296
ag1303
ag1310
ag1317
ag1324
ag1331
ag1338
ag1345
ag1352
ag1359
ag1366
ag1373
ag1380
ag1387
ag1394
ag1401
ag1408
ag1415
ag1422
ag1429
ag1436
ag1443
ag1450
ag1457
ag1464
ag1471
ag1478
ag1485
ag1492
ag1499
ag1506
ag1513
ag1520
ag1527
ag1534
ag1541
ag1548
ag1555
ag1562
ag1569
ag1576
ag1583
ag1590
ag1597
ag1604
ag1611
ag1618
ag1625
ag1632
ag1639
ag1646
ag1653
ag1660
ag1667
ag1674
ag1681
ag1688
ag1695
ag1702
ag1709
ag1716
ag1723
ag1730
ag1737
ag1744
ag1751
ag1758
ag1765
ag1772
ag1779
ag1786
ag1793
ag1800
ag1807
ag1814
ag1821
ag1828
ag1835
ag1842
ag1849
ag1856
ag1863
ag1870
ag1877
ag1884
ag1891
ag1898
ag1905
ag1912
ag1919
ag1926
ag1933
ag1940
ag1947
ag1954
ag1961
ag1968
ag1975
ag1982
ag1989
ag1996
ag2003
ag2010
ag2017
ag2024
ag2031
ag2038
ag2045
ag2052
ag2059
ag2066
ag2073
ag2080
ag2087
ag2094
ag2101
ag2108
ag2115
ag2122
ag2129
ag2136
ag2143
ag2150
ag2157
ag2164
ag2171
ag2178
ag2185
ag2192
ag2199
ag2206
ag2213
ag2220
ag2227
ag2234
ag2241
ag2248
ag2255
ag2262
ag2269
ag2276
ag2283
ag2290
ag2297
ag2304
ag2311
ag2318
ag2325
ag2332
ag2339
ag2346
ag2353
ag2360
ag2367
ag2374
ag2381
ag2388
ag2395
ag2402
ag2409
ag2416
ag2423
ag2430
ag2437
ag2444
ag2451
ag2458
ag2465
ag2472
ag2479
ag2486
ag2493
ag2500
ag2507
ag2514
ag2521
ag2528
ag2535
ag2542
ag2549
ag2556
ag2563
ag2570
ag2577
ag2584
ag2591
ag2598
ag2605
ag2612
ag2619
ag2626
ag2633
ag2640
ag2647
ag2654
ag2661
ag2668
ag2675
ag2682
ag2689
ag2696
ag2703
ag2710
ag2717
ag2724
ag2731
ag2738
ag2745
ag2752
ag2759
ag2766
ag2773
ag2780
ag2787
ag2794
ag2801
ag2808
ag2815
ag2822
ag2829
ag2836
ag2843
ag2850
ag2857
ag2864
ag2871
ag2878
ag2885
ag2892
ag2899
ag2906
ag2913
ag2920
ag2927
ag2934
ag2941
ag2948
ag2955
ag2962
ag2969
ag2976
ag2983
ag2990
ag2997
ag3004
ag3011
ag3018
ag3025
ag3032
ag3039
ag3046
ag3053
ag3060
ag3067
ag3074
ag3081
ag3088
ag3095
ag3102
ag3109
ag3116
ag3123
ag3130
ag3137
ag3144
ag3151
ag3158
ag3165
ag3172
ag3179
ag3186
ag3193
ag3200
ag3207
ag3214
ag3221
ag3228
ag3235
ag3242
ag3249
ag3256
ag3263
ag3270
ag3277
ag3284
ag3291
ag3298
ag3305
ag3312
ag3319
ag3326
ag3333
ag3340
ag3347
ag3354
ag3361
ag3368
ag3375
ag3382
ag3389
ag3396
ag3403
ag3410
ag3417
ag3424
ag3431
ag3438
ag3445
ag3452
ag3459
ag3466
ag3473
ag3480
ag3487
ag3494
ag3501
ag3508
ag3515
ag3522
ag3529
ag3536
ag3543
ag3550
ag3557
ag3564
ag3571
ag3578
ag3585
ag3592
ag3599
ag3606
ag3613
ag3620
ag3627
ag3634
ag3641
ag3648
ag3655
ag3662
ag3669
ag3676
ag3683
ag3690
ag3697
ag3704
ag3711
ag3718
ag3725
ag3732
ag3739
ag3746
ag3753
ag3760
ag3767
ag3774
ag3781
ag3788
ag3795
ag3802
ag3809
ag3816
ag3823
ag3830
ag3837
ag3844
ag3851
ag3858
ag3865
ag3872
ag3879
ag3886
ag3893
ag3900
ag3907
ag3914
ag3921
ag3928
ag3935
ag3942
ag3949
ag3956
ag3963
ag3970
ag3977
ag3984
ag3991
ag3998
ag4005
ag4012
ag4019
ag4026
ag4033
ag4040
ag4047
ag4054
ag4061
ag4068
ag4075
ag4082
ag4089
ag4096
ag4103
ag4110
ag4117
ag4124
ag4131
ag4138
ag4145
ag4152
ag4159
ag4166
ag4173
ag4180
ag4187
ag4194
ag4201
ag4208
ag4215
ag4222
ag4229
ag4236
ag4243
ag4250
ag4257
ag4264
ag4271
ag4278
ag4285
ag4292
ag4299
ag4306
ag4313
ag4320
ag4327
ag4334
ag4341
ag4348
ag4355
ag4362
ag4369
ag4376
ag4383
ag4390
ag4397
ag4404
ag4411
ag4418
ag4425
ag4432
ag4439
ag4446
ag4453
ag4460
ag4467
ag4474
ag4481
ag4488
ag4495
ag4502
ag4509
ag4516
ag4523
ag4530
ag4537
ag4544
ag4551
ag4558
ag4565
ag4572
ag4579
ag4586
ag4593
ag4600
ag4607
ag4614
ag4621
ag4628
ag4635
ag4642
ag4649
ag4656
ag4663
ag4670
ag4677
ag4684
ag4691
ag4698
ag4705
ag4712
ag4719
ag4726
ag4733
ag4740
ag4747
ag4754
ag4761
ag4768
ag4775
ag4782
ag4789
ag4796
ag4803
ag4810
ag4817
ag4824
ag4831
ag4838
ag4845
ag4852
ag4859
ag4866
ag4873
ag4880
ag4887
ag4894
ag4901
ag4908
ag4915
ag4922
ag4929
ag4936
ag4943
ag4950
ag4957
ag4964
ag4971
ag4978
ag4985
ag4992
ag4999
ag5006
ag5013
ag5020
ag5027
ag5034
ag5041
ag5048
ag5055
ag5062
ag5069
ag5076
ag5083
ag5090
ag5097
ag5104
ag5111
ag5118
ag5125
ag5132
ag5139
ag5146
ag5153
ag5160
ag5167
ag5174
ag5181
ag5188
ag5195
ag5202
ag5209
ag5216
ag5223
ag5230
ag5237
ag5244
ag5251
ag5258
ag5265
ag5272
ag5279
ag5286
ag5293
ag5300
ag5307
ag5314
ag5321
ag5328
ag5335
ag5342
ag5349
ag5356
ag5363
ag5370
ag5377
ag5384
ag5391
ag5398
ag5405
ag5412
ag5419
ag5426
ag5433
ag5440
ag5447
ag5454
ag5461
ag5468
ag5475
ag5482
ag5489
ag5496
asg21
I0
sg73
S'1223'
p5501
sba(iArchitecture
Cluster
p5502
(dp5503
g7
(lp5504
(iArchitecture
Entity
p5505
(dp5506
g11
(lp5507
sg13
S'android.hardware.CameraInfo'
p5508
sg15
(lp5509
sg17
(lp5510
sg19
(lp5511
sg21
I0
sba(iArchitecture
Entity
p5512
(dp5513
g11
(lp5514
sg13
S'android.hardware.CameraInfo$1'
p5515
sg15
(lp5516
sg17
(lp5517
sg19
(lp5518
sg21
I0
sba(iArchitecture
Entity
p5519
(dp5520
g11
(lp5521
sg13
S'android.hardware.camera2.impl.GetCommand'
p5522
sg15
(lp5523
sg17
(lp5524
sg19
(lp5525
sg21
I0
sba(iArchitecture
Entity
p5526
(dp5527
g11
(lp5528
sg13
S'android.opengl.EGLConfig'
p5529
sg15
(lp5530
sg17
(lp5531
sg19
(lp5532
sg21
I0
sba(iArchitecture
Entity
p5533
(dp5534
g11
(lp5535
sg13
S'android.security.keymaster.KeymasterBlob'
p5536
sg15
(lp5537
sg17
(lp5538
sg19
(lp5539
sg21
I0
sba(iArchitecture
Entity
p5540
(dp5541
g11
(lp5542
sg13
S'android.security.keymaster.KeymasterBlob$1'
p5543
sg15
(lp5544
sg17
(lp5545
sg19
(lp5546
sg21
I0
sba(iArchitecture
Entity
p5547
(dp5548
g11
(lp5549
sg13
S'android.security.keymaster.KeymasterBlobArgument'
p5550
sg15
(lp5551
sg17
(lp5552
sg19
(lp5553
sg21
I0
sba(iArchitecture
Entity
p5554
(dp5555
g11
(lp5556
sg13
S'android.security.keymaster.KeymasterBooleanArgument'
p5557
sg15
(lp5558
sg17
(lp5559
sg19
(lp5560
sg21
I0
sba(iArchitecture
Entity
p5561
(dp5562
g11
(lp5563
sg13
S'android.security.keymaster.KeymasterDateArgument'
p5564
sg15
(lp5565
sg17
(lp5566
sg19
(lp5567
sg21
I0
sba(iArchitecture
Entity
p5568
(dp5569
g11
(lp5570
sg13
S'android.security.keymaster.KeymasterIntArgument'
p5571
sg15
(lp5572
sg17
(lp5573
sg19
(lp5574
sg21
I0
sba(iArchitecture
Entity
p5575
(dp5576
g11
(lp5577
sg13
S'android.security.keymaster.KeymasterLongArgument'
p5578
sg15
(lp5579
sg17
(lp5580
sg19
(lp5581
sg21
I0
sba(iArchitecture
Entity
p5582
(dp5583
g11
(lp5584
sg13
S'com.android.internal.os.BackgroundThread'
p5585
sg15
(lp5586
sg17
(lp5587
sg19
(lp5588
sg21
I0
sba(iArchitecture
Entity
p5589
(dp5590
g11
(lp5591
sg13
S'com.android.internal.view.WindowManagerPolicyThread'
p5592
sg15
(lp5593
sg17
(lp5594
sg19
(lp5595
sg21
I0
sba(iArchitecture
Entity
p5596
(dp5597
g11
(lp5598
sg13
S'com.android.server.DisplayThread'
p5599
sg15
(lp5600
sg17
(lp5601
sg19
(lp5602
sg21
I0
sba(iArchitecture
Entity
p5603
(dp5604
g11
(lp5605
sg13
S'com.android.server.FgThread'
p5606
sg15
(lp5607
sg17
(lp5608
sg19
(lp5609
sg21
I0
sba(iArchitecture
Entity
p5610
(dp5611
g11
(lp5612
sg13
S'com.android.server.IoThread'
p5613
sg15
(lp5614
sg17
(lp5615
sg19
(lp5616
sg21
I0
sba(iArchitecture
Entity
p5617
(dp5618
g11
(lp5619
sg13
S'com.android.server.UiThread'
p5620
sg15
(lp5621
sg17
(lp5622
sg19
(lp5623
sg21
I0
sba(iArchitecture
Entity
p5624
(dp5625
g11
(lp5626
sg13
S'com.android.server.os.SchedulingPolicyService'
p5627
sg15
(lp5628
sg17
(lp5629
sg19
(lp5630
sg21
I0
sba(iArchitecture
Entity
p5631
(dp5632
g11
(lp5633
sg13
S'com.google.android.gles_jni.EGLConfigImpl'
p5634
sg15
(lp5635
sg17
(lp5636
sg19
(lp5637
sg21
I0
sbasg71
(lp5638
g5508
ag5515
ag5522
ag5529
ag5536
ag5543
ag5550
ag5557
ag5564
ag5571
ag5578
ag5585
ag5592
ag5599
ag5606
ag5613
ag5620
ag5627
ag5634
asg21
I0
sg73
S'1224'
p5639
sba(iArchitecture
Cluster
p5640
(dp5641
g7
(lp5642
(iArchitecture
Entity
p5643
(dp5644
g11
(lp5645
sg13
S'android.webkit.GeolocationPermissions'
p5646
sg15
(lp5647
sg17
(lp5648
sg19
(lp5649
sg21
I0
sba(iArchitecture
Entity
p5650
(dp5651
g11
(lp5652
sg13
S'android.webkit.GeolocationPermissions$Callback'
p5653
sg15
(lp5654
sg17
(lp5655
sg19
(lp5656
sg21
I0
sba(iArchitecture
Entity
p5657
(dp5658
g11
(lp5659
sg13
S'android.webkit.WebStorage'
p5660
sg15
(lp5661
sg17
(lp5662
sg19
(lp5663
sg21
I0
sba(iArchitecture
Entity
p5664
(dp5665
g11
(lp5666
sg13
S'android.webkit.WebStorage$Origin'
p5667
sg15
(lp5668
sg17
(lp5669
sg19
(lp5670
sg21
I0
sba(iArchitecture
Entity
p5671
(dp5672
g11
(lp5673
sg13
S'android.webkit.WebStorage$QuotaUpdater'
p5674
sg15
(lp5675
sg17
(lp5676
sg19
(lp5677
sg21
I0
sba(iArchitecture
Entity
p5678
(dp5679
g11
(lp5680
sg13
S'android.webkit.WebViewFactoryProvider'
p5681
sg15
(lp5682
sg17
(lp5683
sg19
(lp5684
sg21
I0
sba(iArchitecture
Entity
p5685
(dp5686
g11
(lp5687
sg13
S'android.webkit.WebViewFactoryProvider$Statics'
p5688
sg15
(lp5689
sg17
(lp5690
sg19
(lp5691
sg21
I0
sbasg71
(lp5692
g5646
ag5653
ag5660
ag5667
ag5674
ag5681
ag5688
asg21
I0
sg73
S'1225'
p5693
sba(iArchitecture
Cluster
p5694
(dp5695
g7
(lp5696
(iArchitecture
Entity
p5697
(dp5698
g11
(lp5699
sg13
S'android.transition.Transition'
p5700
sg15
(lp5701
sg17
(lp5702
sg19
(lp5703
sg21
I0
sba(iArchitecture
Entity
p5704
(dp5705
g11
(lp5706
sg13
S'android.transition.Transition$1'
p5707
sg15
(lp5708
sg17
(lp5709
sg19
(lp5710
sg21
I0
sba(iArchitecture
Entity
p5711
(dp5712
g11
(lp5713
sg13
S'android.transition.Transition$2'
p5714
sg15
(lp5715
sg17
(lp5716
sg19
(lp5717
sg21
I0
sba(iArchitecture
Entity
p5718
(dp5719
g11
(lp5720
sg13
S'android.transition.Transition$3'
p5721
sg15
(lp5722
sg17
(lp5723
sg19
(lp5724
sg21
I0
sba(iArchitecture
Entity
p5725
(dp5726
g11
(lp5727
sg13
S'android.transition.Transition$AnimationInfo'
p5728
sg15
(lp5729
sg17
(lp5730
sg19
(lp5731
sg21
I0
sba(iArchitecture
Entity
p5732
(dp5733
g11
(lp5734
sg13
S'android.transition.Transition$ArrayListManager'
p5735
sg15
(lp5736
sg17
(lp5737
sg19
(lp5738
sg21
I0
sba(iArchitecture
Entity
p5739
(dp5740
g11
(lp5741
sg13
S'android.transition.Transition$EpicenterCallback'
p5742
sg15
(lp5743
sg17
(lp5744
sg19
(lp5745
sg21
I0
sba(iArchitecture
Entity
p5746
(dp5747
g11
(lp5748
sg13
S'android.transition.Transition$TransitionListener'
p5749
sg15
(lp5750
sg17
(lp5751
sg19
(lp5752
sg21
I0
sba(iArchitecture
Entity
p5753
(dp5754
g11
(lp5755
sg13
S'android.transition.Transition$TransitionListenerAdapter'
p5756
sg15
(lp5757
sg17
(lp5758
sg19
(lp5759
sg21
I0
sba(iArchitecture
Entity
p5760
(dp5761
g11
(lp5762
sg13
S'android.transition.TransitionSet'
p5763
sg15
(lp5764
sg17
(lp5765
sg19
(lp5766
sg21
I0
sba(iArchitecture
Entity
p5767
(dp5768
g11
(lp5769
sg13
S'android.transition.TransitionSet$1'
p5770
sg15
(lp5771
sg17
(lp5772
sg19
(lp5773
sg21
I0
sba(iArchitecture
Entity
p5774
(dp5775
g11
(lp5776
sg13
S'android.transition.TransitionSet$TransitionSetListener'
p5777
sg15
(lp5778
sg17
(lp5779
sg19
(lp5780
sg21
I0
sbasg71
(lp5781
g5700
ag5707
ag5714
ag5721
ag5728
ag5735
ag5742
ag5749
ag5756
ag5763
ag5770
ag5777
asg21
I0
sg73
S'1226'
p5782
sba(iArchitecture
Cluster
p5783
(dp5784
g7
(lp5785
(iArchitecture
Entity
p5786
(dp5787
g11
(lp5788
sg13
S'android.net.RouteInfo'
p5789
sg15
(lp5790
sg17
(lp5791
sg19
(lp5792
sg21
I0
sba(iArchitecture
Entity
p5793
(dp5794
g11
(lp5795
sg13
S'android.net.RouteInfo$1'
p5796
sg15
(lp5797
sg17
(lp5798
sg19
(lp5799
sg21
I0
sba(iArchitecture
Entity
p5800
(dp5801
g11
(lp5802
sg13
S'android.net.StaticIpConfiguration'
p5803
sg15
(lp5804
sg17
(lp5805
sg19
(lp5806
sg21
I0
sba(iArchitecture
Entity
p5807
(dp5808
g11
(lp5809
sg13
S'android.net.StaticIpConfiguration$1'
p5810
sg15
(lp5811
sg17
(lp5812
sg19
(lp5813
sg21
I0
sbasg71
(lp5814
g5789
ag5796
ag5803
ag5810
asg21
I0
sg73
S'1227'
p5815
sba(iArchitecture
Cluster
p5816
(dp5817
g7
(lp5818
(iArchitecture
Entity
p5819
(dp5820
g11
(lp5821
sg13
S'android.app.Service'
p5822
sg15
(lp5823
sg17
(lp5824
sg19
(lp5825
sg21
I0
sba(iArchitecture
Entity
p5826
(dp5827
g11
(lp5828
sg13
S'android.service.voice.VoiceInteractionService'
p5829
sg15
(lp5830
sg17
(lp5831
sg19
(lp5832
sg21
I0
sba(iArchitecture
Entity
p5833
(dp5834
g11
(lp5835
sg13
S'android.service.voice.VoiceInteractionService$1'
p5836
sg15
(lp5837
sg17
(lp5838
sg19
(lp5839
sg21
I0
sba(iArchitecture
Entity
p5840
(dp5841
g11
(lp5842
sg13
S'android.service.voice.VoiceInteractionService$MyHandler'
p5843
sg15
(lp5844
sg17
(lp5845
sg19
(lp5846
sg21
I0
sbasg71
(lp5847
g5822
ag5829
ag5836
ag5843
asg21
I0
sg73
S'1228'
p5848
sba(iArchitecture
Cluster
p5849
(dp5850
g7
(lp5851
(iArchitecture
Entity
p5852
(dp5853
g11
(lp5854
sg13
S'android.sax.Element'
p5855
sg15
(lp5856
sg17
(lp5857
sg19
(lp5858
sg21
I0
sba(iArchitecture
Entity
p5859
(dp5860
g11
(lp5861
sg13
S'android.widget.ExpandableListPosition'
p5862
sg15
(lp5863
sg17
(lp5864
sg19
(lp5865
sg21
I0
sbasg71
(lp5866
g5855
ag5862
asg21
I0
sg73
S'1229'
p5867
sba(iArchitecture
Cluster
p5868
(dp5869
g7
(lp5870
(iArchitecture
Entity
p5871
(dp5872
g11
(lp5873
sg13
S'android.graphics.RadialGradient'
p5874
sg15
(lp5875
sg17
(lp5876
sg19
(lp5877
sg21
I0
sbasg71
(lp5878
g5874
asg21
I0
sg73
S'22'
p5879
sba(iArchitecture
Cluster
p5880
(dp5881
g7
(lp5882
(iArchitecture
Entity
p5883
(dp5884
g11
(lp5885
sg13
S'android.filterpacks.performance.Throughput'
p5886
sg15
(lp5887
sg17
(lp5888
sg19
(lp5889
sg21
I0
sbasg71
(lp5890
g5886
asg21
I0
sg73
S'220'
p5891
sba(iArchitecture
Cluster
p5892
(dp5893
g7
(lp5894
(iArchitecture
Entity
p5895
(dp5896
g11
(lp5897
sg13
S'android.renderscript.ScriptIntrinsicBLAS'
p5898
sg15
(lp5899
sg17
(lp5900
sg19
(lp5901
sg21
I0
sbasg71
(lp5902
g5898
asg21
I0
sg73
S'221'
p5903
sba(iArchitecture
Cluster
p5904
(dp5905
g7
(lp5906
(iArchitecture
Entity
p5907
(dp5908
g11
(lp5909
sg13
S'android.speech.tts.PlaybackQueueItem'
p5910
sg15
(lp5911
sg17
(lp5912
sg19
(lp5913
sg21
I0
sbasg71
(lp5914
g5910
asg21
I0
sg73
S'222'
p5915
sba(iArchitecture
Cluster
p5916
(dp5917
g7
(lp5918
(iArchitecture
Entity
p5919
(dp5920
g11
(lp5921
sg13
S'com.android.internal.util.MemInfoReader'
p5922
sg15
(lp5923
sg17
(lp5924
sg19
(lp5925
sg21
I0
sbasg71
(lp5926
g5922
asg21
I0
sg73
S'223'
p5927
sba(iArchitecture
Cluster
p5928
(dp5929
g7
(lp5930
(iArchitecture
Entity
p5931
(dp5932
g11
(lp5933
sg13
S'com.android.internal.widget.WeightedLinearLayout'
p5934
sg15
(lp5935
sg17
(lp5936
sg19
(lp5937
sg21
I0
sbasg71
(lp5938
g5934
asg21
I0
sg73
S'224'
p5939
sba(iArchitecture
Cluster
p5940
(dp5941
g7
(lp5942
(iArchitecture
Entity
p5943
(dp5944
g11
(lp5945
sg13
S'android.os.SystemClock'
p5946
sg15
(lp5947
sg17
(lp5948
sg19
(lp5949
sg21
I0
sbasg71
(lp5950
g5946
asg21
I0
sg73
S'225'
p5951
sba(iArchitecture
Cluster
p5952
(dp5953
g7
(lp5954
(iArchitecture
Entity
p5955
(dp5956
g11
(lp5957
sg13
S'android.opengl.GLErrorWrapper'
p5958
sg15
(lp5959
sg17
(lp5960
sg19
(lp5961
sg21
I0
sbasg71
(lp5962
g5958
asg21
I0
sg73
S'226'
p5963
sba(iArchitecture
Cluster
p5964
(dp5965
g7
(lp5966
(iArchitecture
Entity
p5967
(dp5968
g11
(lp5969
sg13
S'android.content.res.TypedArray'
p5970
sg15
(lp5971
sg17
(lp5972
sg19
(lp5973
sg21
I0
sbasg71
(lp5974
g5970
asg21
I0
sg73
S'227'
p5975
sba(iArchitecture
Cluster
p5976
(dp5977
g7
(lp5978
(iArchitecture
Entity
p5979
(dp5980
g11
(lp5981
sg13
S'android.content.DefaultDataHandler'
p5982
sg15
(lp5983
sg17
(lp5984
sg19
(lp5985
sg21
I0
sbasg71
(lp5986
g5982
asg21
I0
sg73
S'228'
p5987
sba(iArchitecture
Cluster
p5988
(dp5989
g7
(lp5990
(iArchitecture
Entity
p5991
(dp5992
g11
(lp5993
sg13
S'com.android.internal.view.animation.FallbackLUTInterpolator'
p5994
sg15
(lp5995
sg17
(lp5996
sg19
(lp5997
sg21
I0
sbasg71
(lp5998
g5994
asg21
I0
sg73
S'229'
p5999
sba(iArchitecture
Cluster
p6000
(dp6001
g7
(lp6002
(iArchitecture
Entity
p6003
(dp6004
g11
(lp6005
sg13
S'com.android.server.am.ConnectionRecord'
p6006
sg15
(lp6007
sg17
(lp6008
sg19
(lp6009
sg21
I0
sbasg71
(lp6010
g6006
asg21
I0
sg73
S'322'
p6011
sba(iArchitecture
Cluster
p6012
(dp6013
g7
(lp6014
(iArchitecture
Entity
p6015
(dp6016
g11
(lp6017
sg13
S'android.security.keystore.KeyPermanentlyInvalidatedException'
p6018
sg15
(lp6019
sg17
(lp6020
sg19
(lp6021
sg21
I0
sbasg71
(lp6022
g6018
asg21
I0
sg73
S'422'
p6023
sba(iArchitecture
Cluster
p6024
(dp6025
g7
(lp6026
(iArchitecture
Entity
p6027
(dp6028
g11
(lp6029
sg13
S'android.telephony.SubscriptionInfo'
p6030
sg15
(lp6031
sg17
(lp6032
sg19
(lp6033
sg21
I0
sba(iArchitecture
Entity
p6034
(dp6035
g11
(lp6036
sg13
S'android.telephony.SubscriptionInfo$1'
p6037
sg15
(lp6038
sg17
(lp6039
sg19
(lp6040
sg21
I0
sbasg71
(lp6041
g6030
ag6037
asg21
I0
sg73
S'522'
p6042
sba(iArchitecture
Cluster
p6043
(dp6044
g7
(lp6045
(iArchitecture
Entity
p6046
(dp6047
g11
(lp6048
sg13
S'android.nfc.BeamShareData'
p6049
sg15
(lp6050
sg17
(lp6051
sg19
(lp6052
sg21
I0
sba(iArchitecture
Entity
p6053
(dp6054
g11
(lp6055
sg13
S'android.nfc.BeamShareData$1'
p6056
sg15
(lp6057
sg17
(lp6058
sg19
(lp6059
sg21
I0
sbasg71
(lp6060
g6049
ag6056
asg21
I0
sg73
S'622'
p6061
sba(iArchitecture
Cluster
p6062
(dp6063
g7
(lp6064
(iArchitecture
Entity
p6065
(dp6066
g11
(lp6067
sg13
S'com.android.server.am.RecentTasks'
p6068
sg15
(lp6069
sg17
(lp6070
sg19
(lp6071
sg21
I0
sba(iArchitecture
Entity
p6072
(dp6073
g11
(lp6074
sg13
S'com.android.server.am.RecentTasks$1'
p6075
sg15
(lp6076
sg17
(lp6077
sg19
(lp6078
sg21
I0
sbasg71
(lp6079
g6068
ag6075
asg21
I0
sg73
S'722'
p6080
sba(iArchitecture
Cluster
p6081
(dp6082
g7
(lp6083
(iArchitecture
Entity
p6084
(dp6085
g11
(lp6086
sg13
S'android.print.PrinterInfo'
p6087
sg15
(lp6088
sg17
(lp6089
sg19
(lp6090
sg21
I0
sba(iArchitecture
Entity
p6091
(dp6092
g11
(lp6093
sg13
S'android.print.PrinterInfo$1'
p6094
sg15
(lp6095
sg17
(lp6096
sg19
(lp6097
sg21
I0
sba(iArchitecture
Entity
p6098
(dp6099
g11
(lp6100
sg13
S'android.print.PrinterInfo$Builder'
p6101
sg15
(lp6102
sg17
(lp6103
sg19
(lp6104
sg21
I0
sbasg71
(lp6105
g6087
ag6094
ag6101
asg21
I0
sg73
S'822'
p6106
sba(iArchitecture
Cluster
p6107
(dp6108
g7
(lp6109
(iArchitecture
Entity
p6110
(dp6111
g11
(lp6112
sg13
S'android.graphics.FontListParser'
p6113
sg15
(lp6114
sg17
(lp6115
sg19
(lp6116
sg21
I0
sba(iArchitecture
Entity
p6117
(dp6118
g11
(lp6119
sg13
S'android.graphics.FontListParser$Alias'
p6120
sg15
(lp6121
sg17
(lp6122
sg19
(lp6123
sg21
I0
sba(iArchitecture
Entity
p6124
(dp6125
g11
(lp6126
sg13
S'android.graphics.FontListParser$Config'
p6127
sg15
(lp6128
sg17
(lp6129
sg19
(lp6130
sg21
I0
sba(iArchitecture
Entity
p6131
(dp6132
g11
(lp6133
sg13
S'android.graphics.FontListParser$Family'
p6134
sg15
(lp6135
sg17
(lp6136
sg19
(lp6137
sg21
I0
sba(iArchitecture
Entity
p6138
(dp6139
g11
(lp6140
sg13
S'android.graphics.FontListParser$Font'
p6141
sg15
(lp6142
sg17
(lp6143
sg19
(lp6144
sg21
I0
sbasg71
(lp6145
g6113
ag6120
ag6127
ag6134
ag6141
asg21
I0
sg73
S'922'
p6146
sbasS'target_sub'
p6147
S'22'
p6148
sg71
(lp6149
sS'is_component_arch'
p6150
I01
sg73
S'6.0.0_r1'
p6151
sba.