(lp0
(iArchitecture
Architecture
p1
(dp2
S'clusters'
p3
(lp4
(iArchitecture
Cluster
p5
(dp6
S'entities'
p7
(lp8
(iArchitecture
Entity
p9
(dp10
S'issue_ids'
p11
(lp12
sS'name'
p13
S'com.android.server.location.GpsXtraDownloader'
p14
sS'descs'
p15
(lp16
sS'labels'
p17
(lp18
sS'titles'
p19
(lp20
sS'change'
p21
I0
sbasS'classes'
p22
(lp23
g14
asg21
I0
sS'label'
p24
S'104'
p25
sba(iArchitecture
Cluster
p26
(dp27
g7
(lp28
(iArchitecture
Entity
p29
(dp30
g11
(lp31
sg13
S'com.android.server.content.SyncStorageEngine'
p32
sg15
(lp33
sg17
(lp34
sg19
(lp35
sg21
I0
sba(iArchitecture
Entity
p36
(dp37
g11
(lp38
sg13
S'com.android.server.content.SyncStorageEngine$AccountInfo'
p39
sg15
(lp40
sg17
(lp41
sg19
(lp42
sg21
I0
sba(iArchitecture
Entity
p43
(dp44
g11
(lp45
sg13
S'com.android.server.content.SyncStorageEngine$AuthorityInfo'
p46
sg15
(lp47
sg17
(lp48
sg19
(lp49
sg21
I0
sba(iArchitecture
Entity
p50
(dp51
g11
(lp52
sg13
S'com.android.server.content.SyncStorageEngine$DayStats'
p53
sg15
(lp54
sg17
(lp55
sg19
(lp56
sg21
I0
sba(iArchitecture
Entity
p57
(dp58
g11
(lp59
sg13
S'com.android.server.content.SyncStorageEngine$EndPoint'
p60
sg15
(lp61
sg17
(lp62
sg19
(lp63
sg21
I0
sba(iArchitecture
Entity
p64
(dp65
g11
(lp66
sg13
S'com.android.server.content.SyncStorageEngine$OnSyncRequestListener'
p67
sg15
(lp68
sg17
(lp69
sg19
(lp70
sg21
I0
sba(iArchitecture
Entity
p71
(dp72
g11
(lp73
sg13
S'com.android.server.content.SyncStorageEngine$PendingOperation'
p74
sg15
(lp75
sg17
(lp76
sg19
(lp77
sg21
I0
sba(iArchitecture
Entity
p78
(dp79
g11
(lp80
sg13
S'com.android.server.content.SyncStorageEngine$SyncHistoryItem'
p81
sg15
(lp82
sg17
(lp83
sg19
(lp84
sg21
I0
sbasg22
(lp85
g32
ag39
ag46
ag53
ag60
ag67
ag74
ag81
asg21
I0
sg24
S'1040'
p86
sba(iArchitecture
Cluster
p87
(dp88
g7
(lp89
(iArchitecture
Entity
p90
(dp91
g11
(lp92
sg13
S'android.transition.ChangeText'
p93
sg15
(lp94
sg17
(lp95
sg19
(lp96
sg21
I0
sba(iArchitecture
Entity
p97
(dp98
g11
(lp99
sg13
S'android.transition.ChangeText$1'
p100
sg15
(lp101
sg17
(lp102
sg19
(lp103
sg21
I0
sba(iArchitecture
Entity
p104
(dp105
g11
(lp106
sg13
S'android.transition.ChangeText$2'
p107
sg15
(lp108
sg17
(lp109
sg19
(lp110
sg21
I0
sba(iArchitecture
Entity
p111
(dp112
g11
(lp113
sg13
S'android.transition.ChangeText$3'
p114
sg15
(lp115
sg17
(lp116
sg19
(lp117
sg21
I0
sba(iArchitecture
Entity
p118
(dp119
g11
(lp120
sg13
S'android.transition.ChangeText$4'
p121
sg15
(lp122
sg17
(lp123
sg19
(lp124
sg21
I0
sba(iArchitecture
Entity
p125
(dp126
g11
(lp127
sg13
S'android.transition.ChangeText$5'
p128
sg15
(lp129
sg17
(lp130
sg19
(lp131
sg21
I0
sba(iArchitecture
Entity
p132
(dp133
g11
(lp134
sg13
S'android.transition.ChangeText$6'
p135
sg15
(lp136
sg17
(lp137
sg19
(lp138
sg21
I0
sbasg22
(lp139
g93
ag100
ag107
ag114
ag121
ag128
ag135
asg21
I0
sg24
S'1041'
p140
sba(iArchitecture
Cluster
p141
(dp142
g7
(lp143
(iArchitecture
Entity
p144
(dp145
g11
(lp146
sg13
S'android.app.ActivityView'
p147
sg15
(lp148
sg17
(lp149
sg19
(lp150
sg21
I0
sba(iArchitecture
Entity
p151
(dp152
g11
(lp153
sg13
S'android.app.ActivityView$1'
p154
sg15
(lp155
sg17
(lp156
sg19
(lp157
sg21
I0
sba(iArchitecture
Entity
p158
(dp159
g11
(lp160
sg13
S'android.app.ActivityView$ActivityContainerCallback'
p161
sg15
(lp162
sg17
(lp163
sg19
(lp164
sg21
I0
sba(iArchitecture
Entity
p165
(dp166
g11
(lp167
sg13
S'android.app.ActivityView$ActivityContainerCallback$1'
p168
sg15
(lp169
sg17
(lp170
sg19
(lp171
sg21
I0
sba(iArchitecture
Entity
p172
(dp173
g11
(lp174
sg13
S'android.app.ActivityView$ActivityContainerWrapper'
p175
sg15
(lp176
sg17
(lp177
sg19
(lp178
sg21
I0
sba(iArchitecture
Entity
p179
(dp180
g11
(lp181
sg13
S'android.app.ActivityView$ActivityViewCallback'
p182
sg15
(lp183
sg17
(lp184
sg19
(lp185
sg21
I0
sba(iArchitecture
Entity
p186
(dp187
g11
(lp188
sg13
S'android.app.ActivityView$ActivityViewSurfaceTextureListener'
p189
sg15
(lp190
sg17
(lp191
sg19
(lp192
sg21
I0
sbasg22
(lp193
g147
ag154
ag161
ag168
ag175
ag182
ag189
asg21
I0
sg24
S'1042'
p194
sba(iArchitecture
Cluster
p195
(dp196
g7
(lp197
(iArchitecture
Entity
p198
(dp199
g11
(lp200
sg13
S'android.view.textservice.SpellCheckerSession'
p201
sg15
(lp202
sg17
(lp203
sg19
(lp204
sg21
I0
sba(iArchitecture
Entity
p205
(dp206
g11
(lp207
sg13
S'android.view.textservice.SpellCheckerSession$1'
p208
sg15
(lp209
sg17
(lp210
sg19
(lp211
sg21
I0
sba(iArchitecture
Entity
p212
(dp213
g11
(lp214
sg13
S'android.view.textservice.SpellCheckerSession$InternalListener'
p215
sg15
(lp216
sg17
(lp217
sg19
(lp218
sg21
I0
sba(iArchitecture
Entity
p219
(dp220
g11
(lp221
sg13
S'android.view.textservice.SpellCheckerSession$SpellCheckerSessionListener'
p222
sg15
(lp223
sg17
(lp224
sg19
(lp225
sg21
I0
sba(iArchitecture
Entity
p226
(dp227
g11
(lp228
sg13
S'android.view.textservice.SpellCheckerSession$SpellCheckerSessionListenerImpl'
p229
sg15
(lp230
sg17
(lp231
sg19
(lp232
sg21
I0
sba(iArchitecture
Entity
p233
(dp234
g11
(lp235
sg13
S'android.view.textservice.SpellCheckerSession$SpellCheckerSessionListenerImpl$1'
p236
sg15
(lp237
sg17
(lp238
sg19
(lp239
sg21
I0
sba(iArchitecture
Entity
p240
(dp241
g11
(lp242
sg13
S'android.view.textservice.SpellCheckerSession$SpellCheckerSessionListenerImpl$SpellCheckerParams'
p243
sg15
(lp244
sg17
(lp245
sg19
(lp246
sg21
I0
sbasg22
(lp247
g201
ag208
ag215
ag222
ag229
ag236
ag243
asg21
I0
sg24
S'1043'
p248
sba(iArchitecture
Cluster
p249
(dp250
g7
(lp251
(iArchitecture
Entity
p252
(dp253
g11
(lp254
sg13
S'android.media.tv.TvContract'
p255
sg15
(lp256
sg17
(lp257
sg19
(lp258
sg21
I0
sba(iArchitecture
Entity
p259
(dp260
g11
(lp261
sg13
S'android.media.tv.TvContract$BaseTvColumns'
p262
sg15
(lp263
sg17
(lp264
sg19
(lp265
sg21
I0
sba(iArchitecture
Entity
p266
(dp267
g11
(lp268
sg13
S'android.media.tv.TvContract$Channels'
p269
sg15
(lp270
sg17
(lp271
sg19
(lp272
sg21
I0
sba(iArchitecture
Entity
p273
(dp274
g11
(lp275
sg13
S'android.media.tv.TvContract$Channels$Logo'
p276
sg15
(lp277
sg17
(lp278
sg19
(lp279
sg21
I0
sba(iArchitecture
Entity
p280
(dp281
g11
(lp282
sg13
S'android.media.tv.TvContract$Programs'
p283
sg15
(lp284
sg17
(lp285
sg19
(lp286
sg21
I0
sba(iArchitecture
Entity
p287
(dp288
g11
(lp289
sg13
S'android.media.tv.TvContract$Programs$Genres'
p290
sg15
(lp291
sg17
(lp292
sg19
(lp293
sg21
I0
sba(iArchitecture
Entity
p294
(dp295
g11
(lp296
sg13
S'android.media.tv.TvContract$WatchedPrograms'
p297
sg15
(lp298
sg17
(lp299
sg19
(lp300
sg21
I0
sbasg22
(lp301
g255
ag262
ag269
ag276
ag283
ag290
ag297
asg21
I0
sg24
S'1044'
p302
sba(iArchitecture
Cluster
p303
(dp304
g7
(lp305
(iArchitecture
Entity
p306
(dp307
g11
(lp308
sg13
S'android.animation.PathKeyframes'
p309
sg15
(lp310
sg17
(lp311
sg19
(lp312
sg21
I0
sba(iArchitecture
Entity
p313
(dp314
g11
(lp315
sg13
S'android.animation.PathKeyframes$1'
p316
sg15
(lp317
sg17
(lp318
sg19
(lp319
sg21
I0
sba(iArchitecture
Entity
p320
(dp321
g11
(lp322
sg13
S'android.animation.PathKeyframes$2'
p323
sg15
(lp324
sg17
(lp325
sg19
(lp326
sg21
I0
sba(iArchitecture
Entity
p327
(dp328
g11
(lp329
sg13
S'android.animation.PathKeyframes$3'
p330
sg15
(lp331
sg17
(lp332
sg19
(lp333
sg21
I0
sba(iArchitecture
Entity
p334
(dp335
g11
(lp336
sg13
S'android.animation.PathKeyframes$4'
p337
sg15
(lp338
sg17
(lp339
sg19
(lp340
sg21
I0
sba(iArchitecture
Entity
p341
(dp342
g11
(lp343
sg13
S'android.animation.PathKeyframes$FloatKeyframesBase'
p344
sg15
(lp345
sg17
(lp346
sg19
(lp347
sg21
I0
sba(iArchitecture
Entity
p348
(dp349
g11
(lp350
sg13
S'android.animation.PathKeyframes$IntKeyframesBase'
p351
sg15
(lp352
sg17
(lp353
sg19
(lp354
sg21
I0
sba(iArchitecture
Entity
p355
(dp356
g11
(lp357
sg13
S'android.animation.PathKeyframes$SimpleKeyframes'
p358
sg15
(lp359
sg17
(lp360
sg19
(lp361
sg21
I0
sbasg22
(lp362
g309
ag316
ag323
ag330
ag337
ag344
ag351
ag358
asg21
I0
sg24
S'1045'
p363
sba(iArchitecture
Cluster
p364
(dp365
g7
(lp366
(iArchitecture
Entity
p367
(dp368
g11
(lp369
sg13
S'com.android.server.notification.NotificationUsageStats'
p370
sg15
(lp371
sg17
(lp372
sg19
(lp373
sg21
I0
sba(iArchitecture
Entity
p374
(dp375
g11
(lp376
sg13
S'com.android.server.notification.NotificationUsageStats$1'
p377
sg15
(lp378
sg17
(lp379
sg19
(lp380
sg21
I0
sba(iArchitecture
Entity
p381
(dp382
g11
(lp383
sg13
S'com.android.server.notification.NotificationUsageStats$Aggregate'
p384
sg15
(lp385
sg17
(lp386
sg19
(lp387
sg21
I0
sba(iArchitecture
Entity
p388
(dp389
g11
(lp390
sg13
S'com.android.server.notification.NotificationUsageStats$AggregatedStats'
p391
sg15
(lp392
sg17
(lp393
sg19
(lp394
sg21
I0
sba(iArchitecture
Entity
p395
(dp396
g11
(lp397
sg13
S'com.android.server.notification.NotificationUsageStats$SQLiteLog'
p398
sg15
(lp399
sg17
(lp400
sg19
(lp401
sg21
I0
sba(iArchitecture
Entity
p402
(dp403
g11
(lp404
sg13
S'com.android.server.notification.NotificationUsageStats$SQLiteLog$1'
p405
sg15
(lp406
sg17
(lp407
sg19
(lp408
sg21
I0
sba(iArchitecture
Entity
p409
(dp410
g11
(lp411
sg13
S'com.android.server.notification.NotificationUsageStats$SQLiteLog$2'
p412
sg15
(lp413
sg17
(lp414
sg19
(lp415
sg21
I0
sba(iArchitecture
Entity
p416
(dp417
g11
(lp418
sg13
S'com.android.server.notification.NotificationUsageStats$SingleNotificationStats'
p419
sg15
(lp420
sg17
(lp421
sg19
(lp422
sg21
I0
sbasg22
(lp423
g370
ag377
ag384
ag391
ag398
ag405
ag412
ag419
asg21
I0
sg24
S'1046'
p424
sba(iArchitecture
Cluster
p425
(dp426
g7
(lp427
(iArchitecture
Entity
p428
(dp429
g11
(lp430
sg13
S'android.app.SharedPreferencesImpl'
p431
sg15
(lp432
sg17
(lp433
sg19
(lp434
sg21
I0
sba(iArchitecture
Entity
p435
(dp436
g11
(lp437
sg13
S'android.app.SharedPreferencesImpl$1'
p438
sg15
(lp439
sg17
(lp440
sg19
(lp441
sg21
I0
sba(iArchitecture
Entity
p442
(dp443
g11
(lp444
sg13
S'android.app.SharedPreferencesImpl$2'
p445
sg15
(lp446
sg17
(lp447
sg19
(lp448
sg21
I0
sba(iArchitecture
Entity
p449
(dp450
g11
(lp451
sg13
S'android.app.SharedPreferencesImpl$EditorImpl'
p452
sg15
(lp453
sg17
(lp454
sg19
(lp455
sg21
I0
sba(iArchitecture
Entity
p456
(dp457
g11
(lp458
sg13
S'android.app.SharedPreferencesImpl$EditorImpl$1'
p459
sg15
(lp460
sg17
(lp461
sg19
(lp462
sg21
I0
sba(iArchitecture
Entity
p463
(dp464
g11
(lp465
sg13
S'android.app.SharedPreferencesImpl$EditorImpl$2'
p466
sg15
(lp467
sg17
(lp468
sg19
(lp469
sg21
I0
sba(iArchitecture
Entity
p470
(dp471
g11
(lp472
sg13
S'android.app.SharedPreferencesImpl$EditorImpl$3'
p473
sg15
(lp474
sg17
(lp475
sg19
(lp476
sg21
I0
sba(iArchitecture
Entity
p477
(dp478
g11
(lp479
sg13
S'android.app.SharedPreferencesImpl$MemoryCommitResult'
p480
sg15
(lp481
sg17
(lp482
sg19
(lp483
sg21
I0
sbasg22
(lp484
g431
ag438
ag445
ag452
ag459
ag466
ag473
ag480
asg21
I0
sg24
S'1047'
p485
sba(iArchitecture
Cluster
p486
(dp487
g7
(lp488
(iArchitecture
Entity
p489
(dp490
g11
(lp491
sg13
S'com.android.server.media.MediaRouterService'
p492
sg15
(lp493
sg17
(lp494
sg19
(lp495
sg21
I0
sba(iArchitecture
Entity
p496
(dp497
g11
(lp498
sg13
S'com.android.server.media.MediaRouterService$1'
p499
sg15
(lp500
sg17
(lp501
sg19
(lp502
sg21
I0
sba(iArchitecture
Entity
p503
(dp504
g11
(lp505
sg13
S'com.android.server.media.MediaRouterService$ClientRecord'
p506
sg15
(lp507
sg17
(lp508
sg19
(lp509
sg21
I0
sba(iArchitecture
Entity
p510
(dp511
g11
(lp512
sg13
S'com.android.server.media.MediaRouterService$UserHandler'
p513
sg15
(lp514
sg17
(lp515
sg19
(lp516
sg21
I0
sba(iArchitecture
Entity
p517
(dp518
g11
(lp519
sg13
S'com.android.server.media.MediaRouterService$UserHandler$ProviderRecord'
p520
sg15
(lp521
sg17
(lp522
sg19
(lp523
sg21
I0
sba(iArchitecture
Entity
p524
(dp525
g11
(lp526
sg13
S'com.android.server.media.MediaRouterService$UserHandler$RouteRecord'
p527
sg15
(lp528
sg17
(lp529
sg19
(lp530
sg21
I0
sba(iArchitecture
Entity
p531
(dp532
g11
(lp533
sg13
S'com.android.server.media.MediaRouterService$UserRecord'
p534
sg15
(lp535
sg17
(lp536
sg19
(lp537
sg21
I0
sba(iArchitecture
Entity
p538
(dp539
g11
(lp540
sg13
S'com.android.server.media.MediaRouterService$UserRecord$1'
p541
sg15
(lp542
sg17
(lp543
sg19
(lp544
sg21
I0
sbasg22
(lp545
g492
ag499
ag506
ag513
ag520
ag527
ag534
ag541
asg21
I0
sg24
S'1048'
p546
sba(iArchitecture
Cluster
p547
(dp548
g7
(lp549
(iArchitecture
Entity
p550
(dp551
g11
(lp552
sg13
S'com.android.server.accessibility.TouchExplorer'
p553
sg15
(lp554
sg17
(lp555
sg19
(lp556
sg21
I0
sba(iArchitecture
Entity
p557
(dp558
g11
(lp559
sg13
S'com.android.server.accessibility.TouchExplorer$DoubleTapDetector'
p560
sg15
(lp561
sg17
(lp562
sg19
(lp563
sg21
I0
sba(iArchitecture
Entity
p564
(dp565
g11
(lp566
sg13
S'com.android.server.accessibility.TouchExplorer$ExitGestureDetectionModeDelayed'
p567
sg15
(lp568
sg17
(lp569
sg19
(lp570
sg21
I0
sba(iArchitecture
Entity
p571
(dp572
g11
(lp573
sg13
S'com.android.server.accessibility.TouchExplorer$InjectedPointerTracker'
p574
sg15
(lp575
sg17
(lp576
sg19
(lp577
sg21
I0
sba(iArchitecture
Entity
p578
(dp579
g11
(lp580
sg13
S'com.android.server.accessibility.TouchExplorer$PerformLongPressDelayed'
p581
sg15
(lp582
sg17
(lp583
sg19
(lp584
sg21
I0
sba(iArchitecture
Entity
p585
(dp586
g11
(lp587
sg13
S'com.android.server.accessibility.TouchExplorer$ReceivedPointerTracker'
p588
sg15
(lp589
sg17
(lp590
sg19
(lp591
sg21
I0
sba(iArchitecture
Entity
p592
(dp593
g11
(lp594
sg13
S'com.android.server.accessibility.TouchExplorer$SendAccessibilityEventDelayed'
p595
sg15
(lp596
sg17
(lp597
sg19
(lp598
sg21
I0
sba(iArchitecture
Entity
p599
(dp600
g11
(lp601
sg13
S'com.android.server.accessibility.TouchExplorer$SendHoverEnterAndMoveDelayed'
p602
sg15
(lp603
sg17
(lp604
sg19
(lp605
sg21
I0
sba(iArchitecture
Entity
p606
(dp607
g11
(lp608
sg13
S'com.android.server.accessibility.TouchExplorer$SendHoverExitDelayed'
p609
sg15
(lp610
sg17
(lp611
sg19
(lp612
sg21
I0
sbasg22
(lp613
g553
ag560
ag567
ag574
ag581
ag588
ag595
ag602
ag609
asg21
I0
sg24
S'1049'
p614
sba(iArchitecture
Cluster
p615
(dp616
g7
(lp617
(iArchitecture
Entity
p618
(dp619
g11
(lp620
sg13
S'android.widget.OverScroller'
p621
sg15
(lp622
sg17
(lp623
sg19
(lp624
sg21
I0
sba(iArchitecture
Entity
p625
(dp626
g11
(lp627
sg13
S'android.widget.OverScroller$SplineOverScroller'
p628
sg15
(lp629
sg17
(lp630
sg19
(lp631
sg21
I0
sba(iArchitecture
Entity
p632
(dp633
g11
(lp634
sg13
S'android.widget.Scroller'
p635
sg15
(lp636
sg17
(lp637
sg19
(lp638
sg21
I0
sba(iArchitecture
Entity
p639
(dp640
g11
(lp641
sg13
S'android.widget.Scroller$ViscousFluidInterpolator'
p642
sg15
(lp643
sg17
(lp644
sg19
(lp645
sg21
I0
sbasg22
(lp646
g621
ag628
ag635
ag642
asg21
I0
sg24
S'1104'
p647
sbasS'target_sub'
p648
S'104'
p649
sg22
(lp650
sS'is_component_arch'
p651
I01
sg24
S'6.0.0_r1'
p652
sba.