(lp0
(iArchitecture
Architecture
p1
(dp2
S'clusters'
p3
(lp4
(iArchitecture
Cluster
p5
(dp6
S'entities'
p7
(lp8
(iArchitecture
Entity
p9
(dp10
S'issue_ids'
p11
(lp12
sS'name'
p13
S'android.widget.ActivityChooserView'
p14
sS'descs'
p15
(lp16
sS'labels'
p17
(lp18
sS'titles'
p19
(lp20
sS'change'
p21
I0
sba(iArchitecture
Entity
p22
(dp23
g11
(lp24
sg13
S'android.widget.ActivityChooserView$1'
p25
sg15
(lp26
sg17
(lp27
sg19
(lp28
sg21
I0
sba(iArchitecture
Entity
p29
(dp30
g11
(lp31
sg13
S'android.widget.ActivityChooserView$2'
p32
sg15
(lp33
sg17
(lp34
sg19
(lp35
sg21
I0
sba(iArchitecture
Entity
p36
(dp37
g11
(lp38
sg13
S'android.widget.ActivityChooserView$3'
p39
sg15
(lp40
sg17
(lp41
sg19
(lp42
sg21
I0
sba(iArchitecture
Entity
p43
(dp44
g11
(lp45
sg13
S'android.widget.ActivityChooserView$4'
p46
sg15
(lp47
sg17
(lp48
sg19
(lp49
sg21
I0
sba(iArchitecture
Entity
p50
(dp51
g11
(lp52
sg13
S'android.widget.ActivityChooserView$5'
p53
sg15
(lp54
sg17
(lp55
sg19
(lp56
sg21
I0
sba(iArchitecture
Entity
p57
(dp58
g11
(lp59
sg13
S'android.widget.ActivityChooserView$ActivityChooserViewAdapter'
p60
sg15
(lp61
sg17
(lp62
sg19
(lp63
sg21
I0
sba(iArchitecture
Entity
p64
(dp65
g11
(lp66
sg13
S'android.widget.ActivityChooserView$Callbacks'
p67
sg15
(lp68
sg17
(lp69
sg19
(lp70
sg21
I0
sbasS'classes'
p71
(lp72
g14
ag25
ag32
ag39
ag46
ag53
ag60
ag67
asg21
I0
sS'label'
p73
S'1021'
p74
sba(iArchitecture
Cluster
p75
(dp76
g7
(lp77
(iArchitecture
Entity
p78
(dp79
g11
(lp80
sg13
S'android.media.browse.MediaBrowser'
p81
sg15
(lp82
sg17
(lp83
sg19
(lp84
sg21
I0
sba(iArchitecture
Entity
p85
(dp86
g11
(lp87
sg13
S'android.media.browse.MediaBrowser$1'
p88
sg15
(lp89
sg17
(lp90
sg19
(lp91
sg21
I0
sba(iArchitecture
Entity
p92
(dp93
g11
(lp94
sg13
S'android.media.browse.MediaBrowser$2'
p95
sg15
(lp96
sg17
(lp97
sg19
(lp98
sg21
I0
sba(iArchitecture
Entity
p99
(dp100
g11
(lp101
sg13
S'android.media.browse.MediaBrowser$3'
p102
sg15
(lp103
sg17
(lp104
sg19
(lp105
sg21
I0
sba(iArchitecture
Entity
p106
(dp107
g11
(lp108
sg13
S'android.media.browse.MediaBrowser$4'
p109
sg15
(lp110
sg17
(lp111
sg19
(lp112
sg21
I0
sba(iArchitecture
Entity
p113
(dp114
g11
(lp115
sg13
S'android.media.browse.MediaBrowser$5'
p116
sg15
(lp117
sg17
(lp118
sg19
(lp119
sg21
I0
sba(iArchitecture
Entity
p120
(dp121
g11
(lp122
sg13
S'android.media.browse.MediaBrowser$6'
p123
sg15
(lp124
sg17
(lp125
sg19
(lp126
sg21
I0
sba(iArchitecture
Entity
p127
(dp128
g11
(lp129
sg13
S'android.media.browse.MediaBrowser$7'
p130
sg15
(lp131
sg17
(lp132
sg19
(lp133
sg21
I0
sba(iArchitecture
Entity
p134
(dp135
g11
(lp136
sg13
S'android.media.browse.MediaBrowser$ConnectionCallback'
p137
sg15
(lp138
sg17
(lp139
sg19
(lp140
sg21
I0
sba(iArchitecture
Entity
p141
(dp142
g11
(lp143
sg13
S'android.media.browse.MediaBrowser$ItemCallback'
p144
sg15
(lp145
sg17
(lp146
sg19
(lp147
sg21
I0
sba(iArchitecture
Entity
p148
(dp149
g11
(lp150
sg13
S'android.media.browse.MediaBrowser$MediaItem'
p151
sg15
(lp152
sg17
(lp153
sg19
(lp154
sg21
I0
sba(iArchitecture
Entity
p155
(dp156
g11
(lp157
sg13
S'android.media.browse.MediaBrowser$MediaItem$1'
p158
sg15
(lp159
sg17
(lp160
sg19
(lp161
sg21
I0
sba(iArchitecture
Entity
p162
(dp163
g11
(lp164
sg13
S'android.media.browse.MediaBrowser$MediaServiceConnection'
p165
sg15
(lp166
sg17
(lp167
sg19
(lp168
sg21
I0
sba(iArchitecture
Entity
p169
(dp170
g11
(lp171
sg13
S'android.media.browse.MediaBrowser$ServiceCallbacks'
p172
sg15
(lp173
sg17
(lp174
sg19
(lp175
sg21
I0
sba(iArchitecture
Entity
p176
(dp177
g11
(lp178
sg13
S'android.media.browse.MediaBrowser$Subscription'
p179
sg15
(lp180
sg17
(lp181
sg19
(lp182
sg21
I0
sba(iArchitecture
Entity
p183
(dp184
g11
(lp185
sg13
S'android.media.browse.MediaBrowser$SubscriptionCallback'
p186
sg15
(lp187
sg17
(lp188
sg19
(lp189
sg21
I0
sba(iArchitecture
Entity
p190
(dp191
g11
(lp192
sg13
S'android.service.media.MediaBrowserService'
p193
sg15
(lp194
sg17
(lp195
sg19
(lp196
sg21
I0
sba(iArchitecture
Entity
p197
(dp198
g11
(lp199
sg13
S'android.service.media.MediaBrowserService$1'
p200
sg15
(lp201
sg17
(lp202
sg19
(lp203
sg21
I0
sba(iArchitecture
Entity
p204
(dp205
g11
(lp206
sg13
S'android.service.media.MediaBrowserService$2'
p207
sg15
(lp208
sg17
(lp209
sg19
(lp210
sg21
I0
sba(iArchitecture
Entity
p211
(dp212
g11
(lp213
sg13
S'android.service.media.MediaBrowserService$3'
p214
sg15
(lp215
sg17
(lp216
sg19
(lp217
sg21
I0
sba(iArchitecture
Entity
p218
(dp219
g11
(lp220
sg13
S'android.service.media.MediaBrowserService$4'
p221
sg15
(lp222
sg17
(lp223
sg19
(lp224
sg21
I0
sba(iArchitecture
Entity
p225
(dp226
g11
(lp227
sg13
S'android.service.media.MediaBrowserService$BrowserRoot'
p228
sg15
(lp229
sg17
(lp230
sg19
(lp231
sg21
I0
sba(iArchitecture
Entity
p232
(dp233
g11
(lp234
sg13
S'android.service.media.MediaBrowserService$ConnectionRecord'
p235
sg15
(lp236
sg17
(lp237
sg19
(lp238
sg21
I0
sba(iArchitecture
Entity
p239
(dp240
g11
(lp241
sg13
S'android.service.media.MediaBrowserService$Result'
p242
sg15
(lp243
sg17
(lp244
sg19
(lp245
sg21
I0
sba(iArchitecture
Entity
p246
(dp247
g11
(lp248
sg13
S'android.service.media.MediaBrowserService$ServiceBinder'
p249
sg15
(lp250
sg17
(lp251
sg19
(lp252
sg21
I0
sba(iArchitecture
Entity
p253
(dp254
g11
(lp255
sg13
S'android.service.media.MediaBrowserService$ServiceBinder$1'
p256
sg15
(lp257
sg17
(lp258
sg19
(lp259
sg21
I0
sba(iArchitecture
Entity
p260
(dp261
g11
(lp262
sg13
S'android.service.media.MediaBrowserService$ServiceBinder$2'
p263
sg15
(lp264
sg17
(lp265
sg19
(lp266
sg21
I0
sba(iArchitecture
Entity
p267
(dp268
g11
(lp269
sg13
S'android.service.media.MediaBrowserService$ServiceBinder$3'
p270
sg15
(lp271
sg17
(lp272
sg19
(lp273
sg21
I0
sba(iArchitecture
Entity
p274
(dp275
g11
(lp276
sg13
S'android.service.media.MediaBrowserService$ServiceBinder$4'
p277
sg15
(lp278
sg17
(lp279
sg19
(lp280
sg21
I0
sba(iArchitecture
Entity
p281
(dp282
g11
(lp283
sg13
S'android.service.media.MediaBrowserService$ServiceBinder$5'
p284
sg15
(lp285
sg17
(lp286
sg19
(lp287
sg21
I0
sbasg71
(lp288
g81
ag88
ag95
ag102
ag109
ag116
ag123
ag130
ag137
ag144
ag151
ag158
ag165
ag172
ag179
ag186
ag193
ag200
ag207
ag214
ag221
ag228
ag235
ag242
ag249
ag256
ag263
ag270
ag277
ag284
asg21
I0
sg73
S'1121'
p289
sba(iArchitecture
Cluster
p290
(dp291
g7
(lp292
(iArchitecture
Entity
p293
(dp294
g11
(lp295
sg13
S'android.hardware.input.InputManagerInternal'
p296
sg15
(lp297
sg17
(lp298
sg19
(lp299
sg21
I0
sbasg71
(lp300
g296
asg21
I0
sg73
S'121'
p301
sba(iArchitecture
Cluster
p302
(dp303
g7
(lp304
(iArchitecture
Entity
p305
(dp306
g11
(lp307
sg13
S'android.hardware.input.KeyboardLayout'
p308
sg15
(lp309
sg17
(lp310
sg19
(lp311
sg21
I0
sba(iArchitecture
Entity
p312
(dp313
g11
(lp314
sg13
S'android.hardware.input.KeyboardLayout$1'
p315
sg15
(lp316
sg17
(lp317
sg19
(lp318
sg21
I0
sba(iArchitecture
Entity
p319
(dp320
g11
(lp321
sg13
S'android.media.projection.MediaProjectionManager'
p322
sg15
(lp323
sg17
(lp324
sg19
(lp325
sg21
I0
sba(iArchitecture
Entity
p326
(dp327
g11
(lp328
sg13
S'android.media.projection.MediaProjectionManager$Callback'
p329
sg15
(lp330
sg17
(lp331
sg19
(lp332
sg21
I0
sba(iArchitecture
Entity
p333
(dp334
g11
(lp335
sg13
S'android.media.projection.MediaProjectionManager$CallbackDelegate'
p336
sg15
(lp337
sg17
(lp338
sg19
(lp339
sg21
I0
sba(iArchitecture
Entity
p340
(dp341
g11
(lp342
sg13
S'android.media.projection.MediaProjectionManager$CallbackDelegate$1'
p343
sg15
(lp344
sg17
(lp345
sg19
(lp346
sg21
I0
sba(iArchitecture
Entity
p347
(dp348
g11
(lp349
sg13
S'android.media.projection.MediaProjectionManager$CallbackDelegate$2'
p350
sg15
(lp351
sg17
(lp352
sg19
(lp353
sg21
I0
sba(iArchitecture
Entity
p354
(dp355
g11
(lp356
sg13
S'android.view.textservice.SpellCheckerInfo'
p357
sg15
(lp358
sg17
(lp359
sg19
(lp360
sg21
I0
sba(iArchitecture
Entity
p361
(dp362
g11
(lp363
sg13
S'android.view.textservice.SpellCheckerInfo$1'
p364
sg15
(lp365
sg17
(lp366
sg19
(lp367
sg21
I0
sbasg71
(lp368
g308
ag315
ag322
ag329
ag336
ag343
ag350
ag357
ag364
asg21
I0
sg73
S'1210'
p369
sba(iArchitecture
Cluster
p370
(dp371
g7
(lp372
(iArchitecture
Entity
p373
(dp374
g11
(lp375
sg13
S'android.telephony.CellIdentityCdma'
p376
sg15
(lp377
sg17
(lp378
sg19
(lp379
sg21
I0
sba(iArchitecture
Entity
p380
(dp381
g11
(lp382
sg13
S'android.telephony.CellIdentityCdma$1'
p383
sg15
(lp384
sg17
(lp385
sg19
(lp386
sg21
I0
sba(iArchitecture
Entity
p387
(dp388
g11
(lp389
sg13
S'android.telephony.cdma.CdmaCellLocation'
p390
sg15
(lp391
sg17
(lp392
sg19
(lp393
sg21
I0
sbasg71
(lp394
g376
ag383
ag390
asg21
I0
sg73
S'1211'
p395
sba(iArchitecture
Cluster
p396
(dp397
g7
(lp398
(iArchitecture
Entity
p399
(dp400
g11
(lp401
sg13
S'android.content.res.XmlBlock'
p402
sg15
(lp403
sg17
(lp404
sg19
(lp405
sg21
I0
sba(iArchitecture
Entity
p406
(dp407
g11
(lp408
sg13
S'android.content.res.XmlBlock$Parser'
p409
sg15
(lp410
sg17
(lp411
sg19
(lp412
sg21
I0
sba(iArchitecture
Entity
p413
(dp414
g11
(lp415
sg13
S'com.android.server.usage.UsageStatsXmlV1'
p416
sg15
(lp417
sg17
(lp418
sg19
(lp419
sg21
I0
sbasg71
(lp420
g402
ag409
ag416
asg21
I0
sg73
S'1212'
p421
sba(iArchitecture
Cluster
p422
(dp423
g7
(lp424
(iArchitecture
Entity
p425
(dp426
g11
(lp427
sg13
S'android.content.pm.MacAuthenticatedInputStream'
p428
sg15
(lp429
sg17
(lp430
sg19
(lp431
sg21
I0
sba(iArchitecture
Entity
p432
(dp433
g11
(lp434
sg13
S'com.android.server.RandomBlock'
p435
sg15
(lp436
sg17
(lp437
sg19
(lp438
sg21
I0
sbasg71
(lp439
g428
ag435
asg21
I0
sg73
S'1213'
p440
sba(iArchitecture
Cluster
p441
(dp442
g7
(lp443
(iArchitecture
Entity
p444
(dp445
g11
(lp446
sg13
S'android.app.MediaRouteActionProvider'
p447
sg15
(lp448
sg17
(lp449
sg19
(lp450
sg21
I0
sba(iArchitecture
Entity
p451
(dp452
g11
(lp453
sg13
S'android.app.MediaRouteActionProvider$MediaRouterCallback'
p454
sg15
(lp455
sg17
(lp456
sg19
(lp457
sg21
I0
sba(iArchitecture
Entity
p458
(dp459
g11
(lp460
sg13
S'android.app.MediaRouteButton'
p461
sg15
(lp462
sg17
(lp463
sg19
(lp464
sg21
I0
sba(iArchitecture
Entity
p465
(dp466
g11
(lp467
sg13
S'android.app.MediaRouteButton$MediaRouterCallback'
p468
sg15
(lp469
sg17
(lp470
sg19
(lp471
sg21
I0
sba(iArchitecture
Entity
p472
(dp473
g11
(lp474
sg13
S'android.media.JetPlayer'
p475
sg15
(lp476
sg17
(lp477
sg19
(lp478
sg21
I0
sba(iArchitecture
Entity
p479
(dp480
g11
(lp481
sg13
S'android.media.JetPlayer$NativeEventHandler'
p482
sg15
(lp483
sg17
(lp484
sg19
(lp485
sg21
I0
sba(iArchitecture
Entity
p486
(dp487
g11
(lp488
sg13
S'android.media.JetPlayer$OnJetEventListener'
p489
sg15
(lp490
sg17
(lp491
sg19
(lp492
sg21
I0
sba(iArchitecture
Entity
p493
(dp494
g11
(lp495
sg13
S'android.media.MediaRouter'
p496
sg15
(lp497
sg17
(lp498
sg19
(lp499
sg21
I0
sba(iArchitecture
Entity
p500
(dp501
g11
(lp502
sg13
S'android.media.MediaRouter$Callback'
p503
sg15
(lp504
sg17
(lp505
sg19
(lp506
sg21
I0
sba(iArchitecture
Entity
p507
(dp508
g11
(lp509
sg13
S'android.media.MediaRouter$CallbackInfo'
p510
sg15
(lp511
sg17
(lp512
sg19
(lp513
sg21
I0
sba(iArchitecture
Entity
p514
(dp515
g11
(lp516
sg13
S'android.media.MediaRouter$RouteCategory'
p517
sg15
(lp518
sg17
(lp519
sg19
(lp520
sg21
I0
sba(iArchitecture
Entity
p521
(dp522
g11
(lp523
sg13
S'android.media.MediaRouter$RouteGroup'
p524
sg15
(lp525
sg17
(lp526
sg19
(lp527
sg21
I0
sba(iArchitecture
Entity
p528
(dp529
g11
(lp530
sg13
S'android.media.MediaRouter$RouteInfo'
p531
sg15
(lp532
sg17
(lp533
sg19
(lp534
sg21
I0
sba(iArchitecture
Entity
p535
(dp536
g11
(lp537
sg13
S'android.media.MediaRouter$RouteInfo$1'
p538
sg15
(lp539
sg17
(lp540
sg19
(lp541
sg21
I0
sba(iArchitecture
Entity
p542
(dp543
g11
(lp544
sg13
S'android.media.MediaRouter$RouteInfo$1$1'
p545
sg15
(lp546
sg17
(lp547
sg19
(lp548
sg21
I0
sba(iArchitecture
Entity
p549
(dp550
g11
(lp551
sg13
S'android.media.MediaRouter$SimpleCallback'
p552
sg15
(lp553
sg17
(lp554
sg19
(lp555
sg21
I0
sba(iArchitecture
Entity
p556
(dp557
g11
(lp558
sg13
S'android.media.MediaRouter$Static'
p559
sg15
(lp560
sg17
(lp561
sg19
(lp562
sg21
I0
sba(iArchitecture
Entity
p563
(dp564
g11
(lp565
sg13
S'android.media.MediaRouter$Static$1'
p566
sg15
(lp567
sg17
(lp568
sg19
(lp569
sg21
I0
sba(iArchitecture
Entity
p570
(dp571
g11
(lp572
sg13
S'android.media.MediaRouter$Static$1$1'
p573
sg15
(lp574
sg17
(lp575
sg19
(lp576
sg21
I0
sba(iArchitecture
Entity
p577
(dp578
g11
(lp579
sg13
S'android.media.MediaRouter$Static$Client'
p580
sg15
(lp581
sg17
(lp582
sg19
(lp583
sg21
I0
sba(iArchitecture
Entity
p584
(dp585
g11
(lp586
sg13
S'android.media.MediaRouter$Static$Client$1'
p587
sg15
(lp588
sg17
(lp589
sg19
(lp590
sg21
I0
sba(iArchitecture
Entity
p591
(dp592
g11
(lp593
sg13
S'android.media.MediaRouter$UserRouteInfo'
p594
sg15
(lp595
sg17
(lp596
sg19
(lp597
sg21
I0
sba(iArchitecture
Entity
p598
(dp599
g11
(lp600
sg13
S'android.media.MediaRouter$UserRouteInfo$SessionVolumeProvider'
p601
sg15
(lp602
sg17
(lp603
sg19
(lp604
sg21
I0
sba(iArchitecture
Entity
p605
(dp606
g11
(lp607
sg13
S'android.media.MediaRouter$UserRouteInfo$SessionVolumeProvider$1'
p608
sg15
(lp609
sg17
(lp610
sg19
(lp611
sg21
I0
sba(iArchitecture
Entity
p612
(dp613
g11
(lp614
sg13
S'android.media.MediaRouter$UserRouteInfo$SessionVolumeProvider$2'
p615
sg15
(lp616
sg17
(lp617
sg19
(lp618
sg21
I0
sba(iArchitecture
Entity
p619
(dp620
g11
(lp621
sg13
S'android.media.MediaRouter$VolumeCallback'
p622
sg15
(lp623
sg17
(lp624
sg19
(lp625
sg21
I0
sba(iArchitecture
Entity
p626
(dp627
g11
(lp628
sg13
S'android.media.MediaRouter$VolumeCallbackInfo'
p629
sg15
(lp630
sg17
(lp631
sg19
(lp632
sg21
I0
sba(iArchitecture
Entity
p633
(dp634
g11
(lp635
sg13
S'android.media.MediaRouter$VolumeChangeReceiver'
p636
sg15
(lp637
sg17
(lp638
sg19
(lp639
sg21
I0
sba(iArchitecture
Entity
p640
(dp641
g11
(lp642
sg13
S'android.media.MediaRouter$WifiDisplayStatusChangedReceiver'
p643
sg15
(lp644
sg17
(lp645
sg19
(lp646
sg21
I0
sba(iArchitecture
Entity
p647
(dp648
g11
(lp649
sg13
S'com.android.internal.app.MediaRouteChooserDialog'
p650
sg15
(lp651
sg17
(lp652
sg19
(lp653
sg21
I0
sba(iArchitecture
Entity
p654
(dp655
g11
(lp656
sg13
S'com.android.internal.app.MediaRouteChooserDialog$MediaRouterCallback'
p657
sg15
(lp658
sg17
(lp659
sg19
(lp660
sg21
I0
sba(iArchitecture
Entity
p661
(dp662
g11
(lp663
sg13
S'com.android.internal.app.MediaRouteChooserDialog$RouteAdapter'
p664
sg15
(lp665
sg17
(lp666
sg19
(lp667
sg21
I0
sba(iArchitecture
Entity
p668
(dp669
g11
(lp670
sg13
S'com.android.internal.app.MediaRouteChooserDialog$RouteComparator'
p671
sg15
(lp672
sg17
(lp673
sg19
(lp674
sg21
I0
sba(iArchitecture
Entity
p675
(dp676
g11
(lp677
sg13
S'com.android.internal.app.MediaRouteControllerDialog'
p678
sg15
(lp679
sg17
(lp680
sg19
(lp681
sg21
I0
sba(iArchitecture
Entity
p682
(dp683
g11
(lp684
sg13
S'com.android.internal.app.MediaRouteControllerDialog$1'
p685
sg15
(lp686
sg17
(lp687
sg19
(lp688
sg21
I0
sba(iArchitecture
Entity
p689
(dp690
g11
(lp691
sg13
S'com.android.internal.app.MediaRouteControllerDialog$1$1'
p692
sg15
(lp693
sg17
(lp694
sg19
(lp695
sg21
I0
sba(iArchitecture
Entity
p696
(dp697
g11
(lp698
sg13
S'com.android.internal.app.MediaRouteControllerDialog$2'
p699
sg15
(lp700
sg17
(lp701
sg19
(lp702
sg21
I0
sba(iArchitecture
Entity
p703
(dp704
g11
(lp705
sg13
S'com.android.internal.app.MediaRouteControllerDialog$MediaRouterCallback'
p706
sg15
(lp707
sg17
(lp708
sg19
(lp709
sg21
I0
sbasg71
(lp710
g447
ag454
ag461
ag468
ag475
ag482
ag489
ag496
ag503
ag510
ag517
ag524
ag531
ag538
ag545
ag552
ag559
ag566
ag573
ag580
ag587
ag594
ag601
ag608
ag615
ag622
ag629
ag636
ag643
ag650
ag657
ag664
ag671
ag678
ag685
ag692
ag699
ag706
asg21
I0
sg73
S'1214'
p711
sba(iArchitecture
Cluster
p712
(dp713
g7
(lp714
(iArchitecture
Entity
p715
(dp716
g11
(lp717
sg13
S'android.drm.DrmSupportInfo'
p718
sg15
(lp719
sg17
(lp720
sg19
(lp721
sg21
I0
sba(iArchitecture
Entity
p722
(dp723
g11
(lp724
sg13
S'android.net.LocalServerSocket'
p725
sg15
(lp726
sg17
(lp727
sg19
(lp728
sg21
I0
sba(iArchitecture
Entity
p729
(dp730
g11
(lp731
sg13
S'android.net.LocalSocketAddress'
p732
sg15
(lp733
sg17
(lp734
sg19
(lp735
sg21
I0
sba(iArchitecture
Entity
p736
(dp737
g11
(lp738
sg13
S'android.net.LocalSocketAddress$Namespace'
p739
sg15
(lp740
sg17
(lp741
sg19
(lp742
sg21
I0
sbasg71
(lp743
g718
ag725
ag732
ag739
asg21
I0
sg73
S'1215'
p744
sba(iArchitecture
Cluster
p745
(dp746
g7
(lp747
(iArchitecture
Entity
p748
(dp749
g11
(lp750
sg13
S'android.database.MergeCursor'
p751
sg15
(lp752
sg17
(lp753
sg19
(lp754
sg21
I0
sba(iArchitecture
Entity
p755
(dp756
g11
(lp757
sg13
S'android.database.MergeCursor$1'
p758
sg15
(lp759
sg17
(lp760
sg19
(lp761
sg21
I0
sba(iArchitecture
Entity
p762
(dp763
g11
(lp764
sg13
S'com.android.internal.database.SortCursor'
p765
sg15
(lp766
sg17
(lp767
sg19
(lp768
sg21
I0
sba(iArchitecture
Entity
p769
(dp770
g11
(lp771
sg13
S'com.android.internal.database.SortCursor$1'
p772
sg15
(lp773
sg17
(lp774
sg19
(lp775
sg21
I0
sba(iArchitecture
Entity
p776
(dp777
g11
(lp778
sg13
S'com.android.internal.logging.MetricsLogger'
p779
sg15
(lp780
sg17
(lp781
sg19
(lp782
sg21
I0
sbasg71
(lp783
g751
ag758
ag765
ag772
ag779
asg21
I0
sg73
S'1216'
p784
sba(iArchitecture
Cluster
p785
(dp786
g7
(lp787
(iArchitecture
Entity
p788
(dp789
g11
(lp790
sg13
S'android.telecom.InCallService'
p791
sg15
(lp792
sg17
(lp793
sg19
(lp794
sg21
I0
sba(iArchitecture
Entity
p795
(dp796
g11
(lp797
sg13
S'android.telecom.InCallService$1'
p798
sg15
(lp799
sg17
(lp800
sg19
(lp801
sg21
I0
sba(iArchitecture
Entity
p802
(dp803
g11
(lp804
sg13
S'android.telecom.InCallService$2'
p805
sg15
(lp806
sg17
(lp807
sg19
(lp808
sg21
I0
sba(iArchitecture
Entity
p809
(dp810
g11
(lp811
sg13
S'android.telecom.InCallService$InCallServiceBinder'
p812
sg15
(lp813
sg17
(lp814
sg19
(lp815
sg21
I0
sba(iArchitecture
Entity
p816
(dp817
g11
(lp818
sg13
S'android.telecom.InCallService$VideoCall'
p819
sg15
(lp820
sg17
(lp821
sg19
(lp822
sg21
I0
sba(iArchitecture
Entity
p823
(dp824
g11
(lp825
sg13
S'android.telecom.InCallService$VideoCall$Callback'
p826
sg15
(lp827
sg17
(lp828
sg19
(lp829
sg21
I0
sba(iArchitecture
Entity
p830
(dp831
g11
(lp832
sg13
S'android.telecom.VideoCallImpl'
p833
sg15
(lp834
sg17
(lp835
sg19
(lp836
sg21
I0
sba(iArchitecture
Entity
p837
(dp838
g11
(lp839
sg13
S'android.telecom.VideoCallImpl$1'
p840
sg15
(lp841
sg17
(lp842
sg19
(lp843
sg21
I0
sba(iArchitecture
Entity
p844
(dp845
g11
(lp846
sg13
S'android.telecom.VideoCallImpl$MessageHandler'
p847
sg15
(lp848
sg17
(lp849
sg19
(lp850
sg21
I0
sba(iArchitecture
Entity
p851
(dp852
g11
(lp853
sg13
S'android.telecom.VideoCallImpl$VideoCallListenerBinder'
p854
sg15
(lp855
sg17
(lp856
sg19
(lp857
sg21
I0
sbasg71
(lp858
g791
ag798
ag805
ag812
ag819
ag826
ag833
ag840
ag847
ag854
asg21
I0
sg73
S'1217'
p859
sba(iArchitecture
Cluster
p860
(dp861
g7
(lp862
(iArchitecture
Entity
p863
(dp864
g11
(lp865
sg13
S'android.net.NetworkCapabilities'
p866
sg15
(lp867
sg17
(lp868
sg19
(lp869
sg21
I0
sba(iArchitecture
Entity
p870
(dp871
g11
(lp872
sg13
S'android.net.NetworkCapabilities$1'
p873
sg15
(lp874
sg17
(lp875
sg19
(lp876
sg21
I0
sba(iArchitecture
Entity
p877
(dp878
g11
(lp879
sg13
S'android.net.NetworkFactory'
p880
sg15
(lp881
sg17
(lp882
sg19
(lp883
sg21
I0
sba(iArchitecture
Entity
p884
(dp885
g11
(lp886
sg13
S'android.net.NetworkFactory$NetworkRequestInfo'
p887
sg15
(lp888
sg17
(lp889
sg19
(lp890
sg21
I0
sba(iArchitecture
Entity
p891
(dp892
g11
(lp893
sg13
S'android.net.NetworkRequest'
p894
sg15
(lp895
sg17
(lp896
sg19
(lp897
sg21
I0
sba(iArchitecture
Entity
p898
(dp899
g11
(lp900
sg13
S'android.net.NetworkRequest$1'
p901
sg15
(lp902
sg17
(lp903
sg19
(lp904
sg21
I0
sba(iArchitecture
Entity
p905
(dp906
g11
(lp907
sg13
S'android.net.NetworkRequest$Builder'
p908
sg15
(lp909
sg17
(lp910
sg19
(lp911
sg21
I0
sbasg71
(lp912
g866
ag873
ag880
ag887
ag894
ag901
ag908
asg21
I0
sg73
S'1218'
p913
sba(iArchitecture
Cluster
p914
(dp915
g7
(lp916
(iArchitecture
Entity
p917
(dp918
g11
(lp919
sg13
S'android.net.IpPrefix'
p920
sg15
(lp921
sg17
(lp922
sg19
(lp923
sg21
I0
sba(iArchitecture
Entity
p924
(dp925
g11
(lp926
sg13
S'android.net.IpPrefix$1'
p927
sg15
(lp928
sg17
(lp929
sg19
(lp930
sg21
I0
sba(iArchitecture
Entity
p931
(dp932
g11
(lp933
sg13
S'android.net.NetworkUtils'
p934
sg15
(lp935
sg17
(lp936
sg19
(lp937
sg21
I0
sba(iArchitecture
Entity
p938
(dp939
g11
(lp940
sg13
S'android.net.VpnService'
p941
sg15
(lp942
sg17
(lp943
sg19
(lp944
sg21
I0
sba(iArchitecture
Entity
p945
(dp946
g11
(lp947
sg13
S'android.net.VpnService$Builder'
p948
sg15
(lp949
sg17
(lp950
sg19
(lp951
sg21
I0
sba(iArchitecture
Entity
p952
(dp953
g11
(lp954
sg13
S'android.net.VpnService$Callback'
p955
sg15
(lp956
sg17
(lp957
sg19
(lp958
sg21
I0
sba(iArchitecture
Entity
p959
(dp960
g11
(lp961
sg13
S'com.android.server.connectivity.NetworkDiagnostics'
p962
sg15
(lp963
sg17
(lp964
sg19
(lp965
sg21
I0
sba(iArchitecture
Entity
p966
(dp967
g11
(lp968
sg13
S'com.android.server.connectivity.NetworkDiagnostics$DnsResponseCode'
p969
sg15
(lp970
sg17
(lp971
sg19
(lp972
sg21
I0
sba(iArchitecture
Entity
p973
(dp974
g11
(lp975
sg13
S'com.android.server.connectivity.NetworkDiagnostics$DnsUdpCheck'
p976
sg15
(lp977
sg17
(lp978
sg19
(lp979
sg21
I0
sba(iArchitecture
Entity
p980
(dp981
g11
(lp982
sg13
S'com.android.server.connectivity.NetworkDiagnostics$IcmpCheck'
p983
sg15
(lp984
sg17
(lp985
sg19
(lp986
sg21
I0
sba(iArchitecture
Entity
p987
(dp988
g11
(lp989
sg13
S'com.android.server.connectivity.NetworkDiagnostics$Measurement'
p990
sg15
(lp991
sg17
(lp992
sg19
(lp993
sg21
I0
sba(iArchitecture
Entity
p994
(dp995
g11
(lp996
sg13
S'com.android.server.connectivity.NetworkDiagnostics$SimpleSocketCheck'
p997
sg15
(lp998
sg17
(lp999
sg19
(lp1000
sg21
I0
sbasg71
(lp1001
g920
ag927
ag934
ag941
ag948
ag955
ag962
ag969
ag976
ag983
ag990
ag997
asg21
I0
sg73
S'1219'
p1002
sba(iArchitecture
Cluster
p1003
(dp1004
g7
(lp1005
(iArchitecture
Entity
p1006
(dp1007
g11
(lp1008
sg13
S'android.hardware.radio.RadioManager'
p1009
sg15
(lp1010
sg17
(lp1011
sg19
(lp1012
sg21
I0
sba(iArchitecture
Entity
p1013
(dp1014
g11
(lp1015
sg13
S'android.hardware.radio.RadioManager$AmBandConfig'
p1016
sg15
(lp1017
sg17
(lp1018
sg19
(lp1019
sg21
I0
sba(iArchitecture
Entity
p1020
(dp1021
g11
(lp1022
sg13
S'android.hardware.radio.RadioManager$AmBandConfig$1'
p1023
sg15
(lp1024
sg17
(lp1025
sg19
(lp1026
sg21
I0
sba(iArchitecture
Entity
p1027
(dp1028
g11
(lp1029
sg13
S'android.hardware.radio.RadioManager$AmBandConfig$Builder'
p1030
sg15
(lp1031
sg17
(lp1032
sg19
(lp1033
sg21
I0
sba(iArchitecture
Entity
p1034
(dp1035
g11
(lp1036
sg13
S'android.hardware.radio.RadioManager$AmBandDescriptor'
p1037
sg15
(lp1038
sg17
(lp1039
sg19
(lp1040
sg21
I0
sba(iArchitecture
Entity
p1041
(dp1042
g11
(lp1043
sg13
S'android.hardware.radio.RadioManager$AmBandDescriptor$1'
p1044
sg15
(lp1045
sg17
(lp1046
sg19
(lp1047
sg21
I0
sba(iArchitecture
Entity
p1048
(dp1049
g11
(lp1050
sg13
S'android.hardware.radio.RadioManager$BandConfig'
p1051
sg15
(lp1052
sg17
(lp1053
sg19
(lp1054
sg21
I0
sba(iArchitecture
Entity
p1055
(dp1056
g11
(lp1057
sg13
S'android.hardware.radio.RadioManager$BandConfig$1'
p1058
sg15
(lp1059
sg17
(lp1060
sg19
(lp1061
sg21
I0
sba(iArchitecture
Entity
p1062
(dp1063
g11
(lp1064
sg13
S'android.hardware.radio.RadioManager$BandDescriptor'
p1065
sg15
(lp1066
sg17
(lp1067
sg19
(lp1068
sg21
I0
sba(iArchitecture
Entity
p1069
(dp1070
g11
(lp1071
sg13
S'android.hardware.radio.RadioManager$BandDescriptor$1'
p1072
sg15
(lp1073
sg17
(lp1074
sg19
(lp1075
sg21
I0
sba(iArchitecture
Entity
p1076
(dp1077
g11
(lp1078
sg13
S'android.hardware.radio.RadioManager$FmBandConfig'
p1079
sg15
(lp1080
sg17
(lp1081
sg19
(lp1082
sg21
I0
sba(iArchitecture
Entity
p1083
(dp1084
g11
(lp1085
sg13
S'android.hardware.radio.RadioManager$FmBandConfig$1'
p1086
sg15
(lp1087
sg17
(lp1088
sg19
(lp1089
sg21
I0
sba(iArchitecture
Entity
p1090
(dp1091
g11
(lp1092
sg13
S'android.hardware.radio.RadioManager$FmBandConfig$Builder'
p1093
sg15
(lp1094
sg17
(lp1095
sg19
(lp1096
sg21
I0
sba(iArchitecture
Entity
p1097
(dp1098
g11
(lp1099
sg13
S'android.hardware.radio.RadioManager$FmBandDescriptor'
p1100
sg15
(lp1101
sg17
(lp1102
sg19
(lp1103
sg21
I0
sba(iArchitecture
Entity
p1104
(dp1105
g11
(lp1106
sg13
S'android.hardware.radio.RadioManager$FmBandDescriptor$1'
p1107
sg15
(lp1108
sg17
(lp1109
sg19
(lp1110
sg21
I0
sba(iArchitecture
Entity
p1111
(dp1112
g11
(lp1113
sg13
S'android.hardware.radio.RadioManager$ModuleProperties'
p1114
sg15
(lp1115
sg17
(lp1116
sg19
(lp1117
sg21
I0
sba(iArchitecture
Entity
p1118
(dp1119
g11
(lp1120
sg13
S'android.hardware.radio.RadioManager$ModuleProperties$1'
p1121
sg15
(lp1122
sg17
(lp1123
sg19
(lp1124
sg21
I0
sba(iArchitecture
Entity
p1125
(dp1126
g11
(lp1127
sg13
S'android.hardware.radio.RadioManager$ProgramInfo'
p1128
sg15
(lp1129
sg17
(lp1130
sg19
(lp1131
sg21
I0
sba(iArchitecture
Entity
p1132
(dp1133
g11
(lp1134
sg13
S'android.hardware.radio.RadioManager$ProgramInfo$1'
p1135
sg15
(lp1136
sg17
(lp1137
sg19
(lp1138
sg21
I0
sba(iArchitecture
Entity
p1139
(dp1140
g11
(lp1141
sg13
S'android.view.inputmethod.CursorAnchorInfo'
p1142
sg15
(lp1143
sg17
(lp1144
sg19
(lp1145
sg21
I0
sba(iArchitecture
Entity
p1146
(dp1147
g11
(lp1148
sg13
S'android.view.inputmethod.CursorAnchorInfo$1'
p1149
sg15
(lp1150
sg17
(lp1151
sg19
(lp1152
sg21
I0
sba(iArchitecture
Entity
p1153
(dp1154
g11
(lp1155
sg13
S'android.view.inputmethod.CursorAnchorInfo$Builder'
p1156
sg15
(lp1157
sg17
(lp1158
sg19
(lp1159
sg21
I0
sbasg71
(lp1160
g1009
ag1016
ag1023
ag1030
ag1037
ag1044
ag1051
ag1058
ag1065
ag1072
ag1079
ag1086
ag1093
ag1100
ag1107
ag1114
ag1121
ag1128
ag1135
ag1142
ag1149
ag1156
asg21
I0
sg73
S'1221'
p1161
sba(iArchitecture
Cluster
p1162
(dp1163
g7
(lp1164
(iArchitecture
Entity
p1165
(dp1166
g11
(lp1167
sg13
S'com.android.internal.net.NetworkStatsFactory'
p1168
sg15
(lp1169
sg17
(lp1170
sg19
(lp1171
sg21
I0
sbasg71
(lp1172
g1168
asg21
I0
sg73
S'21'
p1173
sba(iArchitecture
Cluster
p1174
(dp1175
g7
(lp1176
(iArchitecture
Entity
p1177
(dp1178
g11
(lp1179
sg13
S'android.media.AudioPatch'
p1180
sg15
(lp1181
sg17
(lp1182
sg19
(lp1183
sg21
I0
sbasg71
(lp1184
g1180
asg21
I0
sg73
S'210'
p1185
sba(iArchitecture
Cluster
p1186
(dp1187
g7
(lp1188
(iArchitecture
Entity
p1189
(dp1190
g11
(lp1191
sg13
S'com.android.internal.os.PowerProfile'
p1192
sg15
(lp1193
sg17
(lp1194
sg19
(lp1195
sg21
I0
sbasg71
(lp1196
g1192
asg21
I0
sg73
S'211'
p1197
sba(iArchitecture
Cluster
p1198
(dp1199
g7
(lp1200
(iArchitecture
Entity
p1201
(dp1202
g11
(lp1203
sg13
S'android.transition.PatternPathMotion'
p1204
sg15
(lp1205
sg17
(lp1206
sg19
(lp1207
sg21
I0
sbasg71
(lp1208
g1204
asg21
I0
sg73
S'212'
p1209
sba(iArchitecture
Cluster
p1210
(dp1211
g7
(lp1212
(iArchitecture
Entity
p1213
(dp1214
g11
(lp1215
sg13
S'com.android.server.policy.IconUtilities'
p1216
sg15
(lp1217
sg17
(lp1218
sg19
(lp1219
sg21
I0
sbasg71
(lp1220
g1216
asg21
I0
sg73
S'213'
p1221
sba(iArchitecture
Cluster
p1222
(dp1223
g7
(lp1224
(iArchitecture
Entity
p1225
(dp1226
g11
(lp1227
sg13
S'android.os.StatFs'
p1228
sg15
(lp1229
sg17
(lp1230
sg19
(lp1231
sg21
I0
sbasg71
(lp1232
g1228
asg21
I0
sg73
S'214'
p1233
sba(iArchitecture
Cluster
p1234
(dp1235
g7
(lp1236
(iArchitecture
Entity
p1237
(dp1238
g11
(lp1239
sg13
S'android.opengl.GLUtils'
p1240
sg15
(lp1241
sg17
(lp1242
sg19
(lp1243
sg21
I0
sbasg71
(lp1244
g1240
asg21
I0
sg73
S'215'
p1245
sba(iArchitecture
Cluster
p1246
(dp1247
g7
(lp1248
(iArchitecture
Entity
p1249
(dp1250
g11
(lp1251
sg13
S'com.android.server.AppWidgetBackupBridge'
p1252
sg15
(lp1253
sg17
(lp1254
sg19
(lp1255
sg21
I0
sbasg71
(lp1256
g1252
asg21
I0
sg73
S'216'
p1257
sba(iArchitecture
Cluster
p1258
(dp1259
g7
(lp1260
(iArchitecture
Entity
p1261
(dp1262
g11
(lp1263
sg13
S'android.preference.PreferenceCategory'
p1264
sg15
(lp1265
sg17
(lp1266
sg19
(lp1267
sg21
I0
sbasg71
(lp1268
g1264
asg21
I0
sg73
S'217'
p1269
sba(iArchitecture
Cluster
p1270
(dp1271
g7
(lp1272
(iArchitecture
Entity
p1273
(dp1274
g11
(lp1275
sg13
S'android.security.Credentials'
p1276
sg15
(lp1277
sg17
(lp1278
sg19
(lp1279
sg21
I0
sbasg71
(lp1280
g1276
asg21
I0
sg73
S'218'
p1281
sba(iArchitecture
Cluster
p1282
(dp1283
g7
(lp1284
(iArchitecture
Entity
p1285
(dp1286
g11
(lp1287
sg13
S'com.android.internal.app.AssistUtils'
p1288
sg15
(lp1289
sg17
(lp1290
sg19
(lp1291
sg21
I0
sbasg71
(lp1292
g1288
asg21
I0
sg73
S'219'
p1293
sba(iArchitecture
Cluster
p1294
(dp1295
g7
(lp1296
(iArchitecture
Entity
p1297
(dp1298
g11
(lp1299
sg13
S'android.renderscript.ScriptIntrinsicBLAS'
p1300
sg15
(lp1301
sg17
(lp1302
sg19
(lp1303
sg21
I0
sbasg71
(lp1304
g1300
asg21
I0
sg73
S'221'
p1305
sba(iArchitecture
Cluster
p1306
(dp1307
g7
(lp1308
(iArchitecture
Entity
p1309
(dp1310
g11
(lp1311
sg13
S'android.hardware.camera2.legacy.RequestQueue'
p1312
sg15
(lp1313
sg17
(lp1314
sg19
(lp1315
sg21
I0
sbasg71
(lp1316
g1312
asg21
I0
sg73
S'321'
p1317
sba(iArchitecture
Cluster
p1318
(dp1319
g7
(lp1320
(iArchitecture
Entity
p1321
(dp1322
g11
(lp1323
sg13
S'android.test.InstrumentationTestSuite'
p1324
sg15
(lp1325
sg17
(lp1326
sg19
(lp1327
sg21
I0
sbasg71
(lp1328
g1324
asg21
I0
sg73
S'421'
p1329
sba(iArchitecture
Cluster
p1330
(dp1331
g7
(lp1332
(iArchitecture
Entity
p1333
(dp1334
g11
(lp1335
sg13
S'android.net.LinkQualityInfo'
p1336
sg15
(lp1337
sg17
(lp1338
sg19
(lp1339
sg21
I0
sba(iArchitecture
Entity
p1340
(dp1341
g11
(lp1342
sg13
S'android.net.LinkQualityInfo$1'
p1343
sg15
(lp1344
sg17
(lp1345
sg19
(lp1346
sg21
I0
sbasg71
(lp1347
g1336
ag1343
asg21
I0
sg73
S'521'
p1348
sba(iArchitecture
Cluster
p1349
(dp1350
g7
(lp1351
(iArchitecture
Entity
p1352
(dp1353
g11
(lp1354
sg13
S'com.android.internal.view.InputConnectionWrapper'
p1355
sg15
(lp1356
sg17
(lp1357
sg19
(lp1358
sg21
I0
sba(iArchitecture
Entity
p1359
(dp1360
g11
(lp1361
sg13
S'com.android.internal.view.InputConnectionWrapper$InputContextCallback'
p1362
sg15
(lp1363
sg17
(lp1364
sg19
(lp1365
sg21
I0
sbasg71
(lp1366
g1355
ag1362
asg21
I0
sg73
S'621'
p1367
sba(iArchitecture
Cluster
p1368
(dp1369
g7
(lp1370
(iArchitecture
Entity
p1371
(dp1372
g11
(lp1373
sg13
S'android.net.LinkAddress'
p1374
sg15
(lp1375
sg17
(lp1376
sg19
(lp1377
sg21
I0
sba(iArchitecture
Entity
p1378
(dp1379
g11
(lp1380
sg13
S'android.net.LinkAddress$1'
p1381
sg15
(lp1382
sg17
(lp1383
sg19
(lp1384
sg21
I0
sbasg71
(lp1385
g1374
ag1381
asg21
I0
sg73
S'721'
p1386
sba(iArchitecture
Cluster
p1387
(dp1388
g7
(lp1389
(iArchitecture
Entity
p1390
(dp1391
g11
(lp1392
sg13
S'android.hardware.camera2.utils.CloseableLock'
p1393
sg15
(lp1394
sg17
(lp1395
sg19
(lp1396
sg21
I0
sba(iArchitecture
Entity
p1397
(dp1398
g11
(lp1399
sg13
S'android.hardware.camera2.utils.CloseableLock$1'
p1400
sg15
(lp1401
sg17
(lp1402
sg19
(lp1403
sg21
I0
sba(iArchitecture
Entity
p1404
(dp1405
g11
(lp1406
sg13
S'android.hardware.camera2.utils.CloseableLock$ScopedLock'
p1407
sg15
(lp1408
sg17
(lp1409
sg19
(lp1410
sg21
I0
sbasg71
(lp1411
g1393
ag1400
ag1407
asg21
I0
sg73
S'821'
p1412
sba(iArchitecture
Cluster
p1413
(dp1414
g7
(lp1415
(iArchitecture
Entity
p1416
(dp1417
g11
(lp1418
sg13
S'android.net.IpConfiguration'
p1419
sg15
(lp1420
sg17
(lp1421
sg19
(lp1422
sg21
I0
sba(iArchitecture
Entity
p1423
(dp1424
g11
(lp1425
sg13
S'android.net.IpConfiguration$1'
p1426
sg15
(lp1427
sg17
(lp1428
sg19
(lp1429
sg21
I0
sba(iArchitecture
Entity
p1430
(dp1431
g11
(lp1432
sg13
S'android.net.IpConfiguration$IpAssignment'
p1433
sg15
(lp1434
sg17
(lp1435
sg19
(lp1436
sg21
I0
sba(iArchitecture
Entity
p1437
(dp1438
g11
(lp1439
sg13
S'android.net.IpConfiguration$ProxySettings'
p1440
sg15
(lp1441
sg17
(lp1442
sg19
(lp1443
sg21
I0
sbasg71
(lp1444
g1419
ag1426
ag1433
ag1440
asg21
I0
sg73
S'921'
p1445
sbasS'target_sub'
p1446
S'21'
p1447
sg71
(lp1448
sS'is_component_arch'
p1449
I01
sg73
S'6.0.0_r1'
p1450
sba.