(lp0
(iArchitecture
Architecture
p1
(dp2
S'clusters'
p3
(lp4
(iArchitecture
Cluster
p5
(dp6
S'entities'
p7
(lp8
(iArchitecture
Entity
p9
(dp10
S'issue_ids'
p11
(lp12
sS'name'
p13
S'android.transition.ChangeText'
p14
sS'descs'
p15
(lp16
sS'labels'
p17
(lp18
sS'titles'
p19
(lp20
sS'change'
p21
I0
sba(iArchitecture
Entity
p22
(dp23
g11
(lp24
sg13
S'android.transition.ChangeText$1'
p25
sg15
(lp26
sg17
(lp27
sg19
(lp28
sg21
I0
sba(iArchitecture
Entity
p29
(dp30
g11
(lp31
sg13
S'android.transition.ChangeText$2'
p32
sg15
(lp33
sg17
(lp34
sg19
(lp35
sg21
I0
sba(iArchitecture
Entity
p36
(dp37
g11
(lp38
sg13
S'android.transition.ChangeText$3'
p39
sg15
(lp40
sg17
(lp41
sg19
(lp42
sg21
I0
sba(iArchitecture
Entity
p43
(dp44
g11
(lp45
sg13
S'android.transition.ChangeText$4'
p46
sg15
(lp47
sg17
(lp48
sg19
(lp49
sg21
I0
sba(iArchitecture
Entity
p50
(dp51
g11
(lp52
sg13
S'android.transition.ChangeText$5'
p53
sg15
(lp54
sg17
(lp55
sg19
(lp56
sg21
I0
sba(iArchitecture
Entity
p57
(dp58
g11
(lp59
sg13
S'android.transition.ChangeText$6'
p60
sg15
(lp61
sg17
(lp62
sg19
(lp63
sg21
I0
sbasS'classes'
p64
(lp65
g14
ag25
ag32
ag39
ag46
ag53
ag60
asg21
I0
sS'label'
p66
S'1041'
p67
sba(iArchitecture
Cluster
p68
(dp69
g7
(lp70
(iArchitecture
Entity
p71
(dp72
g11
(lp73
sg13
S'android.os.ServiceManager'
p74
sg15
(lp75
sg17
(lp76
sg19
(lp77
sg21
I0
sba(iArchitecture
Entity
p78
(dp79
g11
(lp80
sg13
S'android.os.ServiceManagerNative'
p81
sg15
(lp82
sg17
(lp83
sg19
(lp84
sg21
I0
sbasg64
(lp85
g74
ag81
asg21
I0
sg66
S'1141'
p86
sba(iArchitecture
Cluster
p87
(dp88
g7
(lp89
(iArchitecture
Entity
p90
(dp91
g11
(lp92
sg13
S'android.accounts.AccountAuthenticatorActivity'
p93
sg15
(lp94
sg17
(lp95
sg19
(lp96
sg21
I0
sba(iArchitecture
Entity
p97
(dp98
g11
(lp99
sg13
S'android.accounts.AccountAuthenticatorResponse'
p100
sg15
(lp101
sg17
(lp102
sg19
(lp103
sg21
I0
sba(iArchitecture
Entity
p104
(dp105
g11
(lp106
sg13
S'android.accounts.AccountAuthenticatorResponse$1'
p107
sg15
(lp108
sg17
(lp109
sg19
(lp110
sg21
I0
sba(iArchitecture
Entity
p111
(dp112
g11
(lp113
sg13
S'android.accounts.AccountManagerResponse'
p114
sg15
(lp115
sg17
(lp116
sg19
(lp117
sg21
I0
sba(iArchitecture
Entity
p118
(dp119
g11
(lp120
sg13
S'android.accounts.AccountManagerResponse$1'
p121
sg15
(lp122
sg17
(lp123
sg19
(lp124
sg21
I0
sba(iArchitecture
Entity
p125
(dp126
g11
(lp127
sg13
S'android.hardware.location.GeofenceHardwareMonitorEvent'
p128
sg15
(lp129
sg17
(lp130
sg19
(lp131
sg21
I0
sba(iArchitecture
Entity
p132
(dp133
g11
(lp134
sg13
S'android.hardware.location.GeofenceHardwareMonitorEvent$1'
p135
sg15
(lp136
sg17
(lp137
sg19
(lp138
sg21
I0
sba(iArchitecture
Entity
p139
(dp140
g11
(lp141
sg13
S'android.telecom.AuthenticatorService'
p142
sg15
(lp143
sg17
(lp144
sg19
(lp145
sg21
I0
sba(iArchitecture
Entity
p146
(dp147
g11
(lp148
sg13
S'android.telecom.AuthenticatorService$Authenticator'
p149
sg15
(lp150
sg17
(lp151
sg19
(lp152
sg21
I0
sba(iArchitecture
Entity
p153
(dp154
g11
(lp155
sg13
S'com.android.internal.widget.VerifyCredentialResponse'
p156
sg15
(lp157
sg17
(lp158
sg19
(lp159
sg21
I0
sba(iArchitecture
Entity
p160
(dp161
g11
(lp162
sg13
S'com.android.internal.widget.VerifyCredentialResponse$1'
p163
sg15
(lp164
sg17
(lp165
sg19
(lp166
sg21
I0
sbasg64
(lp167
g93
ag100
ag107
ag114
ag121
ag128
ag135
ag142
ag149
ag156
ag163
asg21
I0
sg66
S'1241'
p168
sba(iArchitecture
Cluster
p169
(dp170
g7
(lp171
(iArchitecture
Entity
p172
(dp173
g11
(lp174
sg13
S'android.widget.RemoteViewsListAdapter'
p175
sg15
(lp176
sg17
(lp177
sg19
(lp178
sg21
I0
sbasg64
(lp179
g175
asg21
I0
sg66
S'141'
p180
sba(iArchitecture
Cluster
p181
(dp182
g7
(lp183
(iArchitecture
Entity
p184
(dp185
g11
(lp186
sg13
S'android.app.BroadcastOptions'
p187
sg15
(lp188
sg17
(lp189
sg19
(lp190
sg21
I0
sbasg64
(lp191
g187
asg21
I0
sg66
S'241'
p192
sba(iArchitecture
Cluster
p193
(dp194
g7
(lp195
(iArchitecture
Entity
p196
(dp197
g11
(lp198
sg13
S'android.net.netlink.NetlinkConstants'
p199
sg15
(lp200
sg17
(lp201
sg19
(lp202
sg21
I0
sbasg64
(lp203
g199
asg21
I0
sg66
S'341'
p204
sba(iArchitecture
Cluster
p205
(dp206
g7
(lp207
(iArchitecture
Entity
p208
(dp209
g11
(lp210
sg13
S'android.widget.RtlSpacingHelper'
p211
sg15
(lp212
sg17
(lp213
sg19
(lp214
sg21
I0
sbasg64
(lp215
g211
asg21
I0
sg66
S'41'
p216
sba(iArchitecture
Cluster
p217
(dp218
g7
(lp219
(iArchitecture
Entity
p220
(dp221
g11
(lp222
sg13
S'android.location.LocationListener'
p223
sg15
(lp224
sg17
(lp225
sg19
(lp226
sg21
I0
sbasg64
(lp227
g223
asg21
I0
sg66
S'410'
p228
sba(iArchitecture
Cluster
p229
(dp230
g7
(lp231
(iArchitecture
Entity
p232
(dp233
g11
(lp234
sg13
S'android.database.sqlite.SQLiteOpenHelper'
p235
sg15
(lp236
sg17
(lp237
sg19
(lp238
sg21
I0
sbasg64
(lp239
g235
asg21
I0
sg66
S'411'
p240
sba(iArchitecture
Cluster
p241
(dp242
g7
(lp243
(iArchitecture
Entity
p244
(dp245
g11
(lp246
sg13
S'android.text.TextLine'
p247
sg15
(lp248
sg17
(lp249
sg19
(lp250
sg21
I0
sbasg64
(lp251
g247
asg21
I0
sg66
S'412'
p252
sba(iArchitecture
Cluster
p253
(dp254
g7
(lp255
(iArchitecture
Entity
p256
(dp257
g11
(lp258
sg13
S'android.text.format.DateFormat'
p259
sg15
(lp260
sg17
(lp261
sg19
(lp262
sg21
I0
sbasg64
(lp263
g259
asg21
I0
sg66
S'413'
p264
sba(iArchitecture
Cluster
p265
(dp266
g7
(lp267
(iArchitecture
Entity
p268
(dp269
g11
(lp270
sg13
S'android.telephony.SmsMessage'
p271
sg15
(lp272
sg17
(lp273
sg19
(lp274
sg21
I0
sbasg64
(lp275
g271
asg21
I0
sg66
S'414'
p276
sba(iArchitecture
Cluster
p277
(dp278
g7
(lp279
(iArchitecture
Entity
p280
(dp281
g11
(lp282
sg13
S'com.android.server.accessibility.GestureUtils'
p283
sg15
(lp284
sg17
(lp285
sg19
(lp286
sg21
I0
sbasg64
(lp287
g283
asg21
I0
sg66
S'415'
p288
sba(iArchitecture
Cluster
p289
(dp290
g7
(lp291
(iArchitecture
Entity
p292
(dp293
g11
(lp294
sg13
S'android.media.midi.MidiPortImpl'
p295
sg15
(lp296
sg17
(lp297
sg19
(lp298
sg21
I0
sbasg64
(lp299
g295
asg21
I0
sg66
S'416'
p300
sba(iArchitecture
Cluster
p301
(dp302
g7
(lp303
(iArchitecture
Entity
p304
(dp305
g11
(lp306
sg13
S'android.provider.SearchIndexableResource'
p307
sg15
(lp308
sg17
(lp309
sg19
(lp310
sg21
I0
sbasg64
(lp311
g307
asg21
I0
sg66
S'417'
p312
sba(iArchitecture
Cluster
p313
(dp314
g7
(lp315
(iArchitecture
Entity
p316
(dp317
g11
(lp318
sg13
S'android.telephony.CellSignalStrength'
p319
sg15
(lp320
sg17
(lp321
sg19
(lp322
sg21
I0
sbasg64
(lp323
g319
asg21
I0
sg66
S'418'
p324
sba(iArchitecture
Cluster
p325
(dp326
g7
(lp327
(iArchitecture
Entity
p328
(dp329
g11
(lp330
sg13
S'android.renderscript.ScriptIntrinsicBlend'
p331
sg15
(lp332
sg17
(lp333
sg19
(lp334
sg21
I0
sbasg64
(lp335
g331
asg21
I0
sg66
S'419'
p336
sba(iArchitecture
Cluster
p337
(dp338
g7
(lp339
(iArchitecture
Entity
p340
(dp341
g11
(lp342
sg13
S'android.telephony.PhoneNumberFormattingTextWatcher'
p343
sg15
(lp344
sg17
(lp345
sg19
(lp346
sg21
I0
sbasg64
(lp347
g343
asg21
I0
sg66
S'441'
p348
sba(iArchitecture
Cluster
p349
(dp350
g7
(lp351
(iArchitecture
Entity
p352
(dp353
g11
(lp354
sg13
S'android.net.CaptivePortal'
p355
sg15
(lp356
sg17
(lp357
sg19
(lp358
sg21
I0
sba(iArchitecture
Entity
p359
(dp360
g11
(lp361
sg13
S'android.net.CaptivePortal$1'
p362
sg15
(lp363
sg17
(lp364
sg19
(lp365
sg21
I0
sbasg64
(lp366
g355
ag362
asg21
I0
sg66
S'541'
p367
sba(iArchitecture
Cluster
p368
(dp369
g7
(lp370
(iArchitecture
Entity
p371
(dp372
g11
(lp373
sg13
S'android.view.PointerIcon'
p374
sg15
(lp375
sg17
(lp376
sg19
(lp377
sg21
I0
sba(iArchitecture
Entity
p378
(dp379
g11
(lp380
sg13
S'android.view.PointerIcon$1'
p381
sg15
(lp382
sg17
(lp383
sg19
(lp384
sg21
I0
sbasg64
(lp385
g374
ag381
asg21
I0
sg66
S'641'
p386
sba(iArchitecture
Cluster
p387
(dp388
g7
(lp389
(iArchitecture
Entity
p390
(dp391
g11
(lp392
sg13
S'android.view.TextureView'
p393
sg15
(lp394
sg17
(lp395
sg19
(lp396
sg21
I0
sba(iArchitecture
Entity
p397
(dp398
g11
(lp399
sg13
S'android.view.TextureView$1'
p400
sg15
(lp401
sg17
(lp402
sg19
(lp403
sg21
I0
sba(iArchitecture
Entity
p404
(dp405
g11
(lp406
sg13
S'android.view.TextureView$SurfaceTextureListener'
p407
sg15
(lp408
sg17
(lp409
sg19
(lp410
sg21
I0
sbasg64
(lp411
g393
ag400
ag407
asg21
I0
sg66
S'741'
p412
sba(iArchitecture
Cluster
p413
(dp414
g7
(lp415
(iArchitecture
Entity
p416
(dp417
g11
(lp418
sg13
S'com.android.internal.app.DumpHeapActivity'
p419
sg15
(lp420
sg17
(lp421
sg19
(lp422
sg21
I0
sba(iArchitecture
Entity
p423
(dp424
g11
(lp425
sg13
S'com.android.internal.app.DumpHeapActivity$1'
p426
sg15
(lp427
sg17
(lp428
sg19
(lp429
sg21
I0
sba(iArchitecture
Entity
p430
(dp431
g11
(lp432
sg13
S'com.android.internal.app.DumpHeapActivity$2'
p433
sg15
(lp434
sg17
(lp435
sg19
(lp436
sg21
I0
sbasg64
(lp437
g419
ag426
ag433
asg21
I0
sg66
S'841'
p438
sba(iArchitecture
Cluster
p439
(dp440
g7
(lp441
(iArchitecture
Entity
p442
(dp443
g11
(lp444
sg13
S'android.os.storage.StorageManager'
p445
sg15
(lp446
sg17
(lp447
sg19
(lp448
sg21
I0
sba(iArchitecture
Entity
p449
(dp450
g11
(lp451
sg13
S'android.os.storage.StorageManager$ObbActionListener'
p452
sg15
(lp453
sg17
(lp454
sg19
(lp455
sg21
I0
sba(iArchitecture
Entity
p456
(dp457
g11
(lp458
sg13
S'android.os.storage.StorageManager$ObbListenerDelegate'
p459
sg15
(lp460
sg17
(lp461
sg19
(lp462
sg21
I0
sba(iArchitecture
Entity
p463
(dp464
g11
(lp465
sg13
S'android.os.storage.StorageManager$ObbListenerDelegate$1'
p466
sg15
(lp467
sg17
(lp468
sg19
(lp469
sg21
I0
sba(iArchitecture
Entity
p470
(dp471
g11
(lp472
sg13
S'android.os.storage.StorageManager$StorageEventListenerDelegate'
p473
sg15
(lp474
sg17
(lp475
sg19
(lp476
sg21
I0
sbasg64
(lp477
g445
ag452
ag459
ag466
ag473
asg21
I0
sg66
S'941'
p478
sbasS'target_sub'
p479
S'41'
p480
sg64
(lp481
sS'is_component_arch'
p482
I01
sg66
S'6.0.0_r1'
p483
sba.