(lp0
(iArchitecture
Architecture
p1
(dp2
S'clusters'
p3
(lp4
(iArchitecture
Cluster
p5
(dp6
S'entities'
p7
(lp8
(iArchitecture
Entity
p9
(dp10
S'issue_ids'
p11
(lp12
sS'name'
p13
S'android.hardware.camera2.impl.CameraMetadataNative'
p14
sS'descs'
p15
(lp16
sS'labels'
p17
(lp18
sS'titles'
p19
(lp20
sS'change'
p21
I0
sba(iArchitecture
Entity
p22
(dp23
g11
(lp24
sg13
S'android.hardware.camera2.impl.CameraMetadataNative$1'
p25
sg15
(lp26
sg17
(lp27
sg19
(lp28
sg21
I0
sba(iArchitecture
Entity
p29
(dp30
g11
(lp31
sg13
S'android.hardware.camera2.impl.CameraMetadataNative$10'
p32
sg15
(lp33
sg17
(lp34
sg19
(lp35
sg21
I0
sba(iArchitecture
Entity
p36
(dp37
g11
(lp38
sg13
S'android.hardware.camera2.impl.CameraMetadataNative$11'
p39
sg15
(lp40
sg17
(lp41
sg19
(lp42
sg21
I0
sba(iArchitecture
Entity
p43
(dp44
g11
(lp45
sg13
S'android.hardware.camera2.impl.CameraMetadataNative$12'
p46
sg15
(lp47
sg17
(lp48
sg19
(lp49
sg21
I0
sba(iArchitecture
Entity
p50
(dp51
g11
(lp52
sg13
S'android.hardware.camera2.impl.CameraMetadataNative$13'
p53
sg15
(lp54
sg17
(lp55
sg19
(lp56
sg21
I0
sba(iArchitecture
Entity
p57
(dp58
g11
(lp59
sg13
S'android.hardware.camera2.impl.CameraMetadataNative$14'
p60
sg15
(lp61
sg17
(lp62
sg19
(lp63
sg21
I0
sba(iArchitecture
Entity
p64
(dp65
g11
(lp66
sg13
S'android.hardware.camera2.impl.CameraMetadataNative$15'
p67
sg15
(lp68
sg17
(lp69
sg19
(lp70
sg21
I0
sba(iArchitecture
Entity
p71
(dp72
g11
(lp73
sg13
S'android.hardware.camera2.impl.CameraMetadataNative$16'
p74
sg15
(lp75
sg17
(lp76
sg19
(lp77
sg21
I0
sba(iArchitecture
Entity
p78
(dp79
g11
(lp80
sg13
S'android.hardware.camera2.impl.CameraMetadataNative$17'
p81
sg15
(lp82
sg17
(lp83
sg19
(lp84
sg21
I0
sba(iArchitecture
Entity
p85
(dp86
g11
(lp87
sg13
S'android.hardware.camera2.impl.CameraMetadataNative$18'
p88
sg15
(lp89
sg17
(lp90
sg19
(lp91
sg21
I0
sba(iArchitecture
Entity
p92
(dp93
g11
(lp94
sg13
S'android.hardware.camera2.impl.CameraMetadataNative$19'
p95
sg15
(lp96
sg17
(lp97
sg19
(lp98
sg21
I0
sba(iArchitecture
Entity
p99
(dp100
g11
(lp101
sg13
S'android.hardware.camera2.impl.CameraMetadataNative$2'
p102
sg15
(lp103
sg17
(lp104
sg19
(lp105
sg21
I0
sba(iArchitecture
Entity
p106
(dp107
g11
(lp108
sg13
S'android.hardware.camera2.impl.CameraMetadataNative$3'
p109
sg15
(lp110
sg17
(lp111
sg19
(lp112
sg21
I0
sba(iArchitecture
Entity
p113
(dp114
g11
(lp115
sg13
S'android.hardware.camera2.impl.CameraMetadataNative$4'
p116
sg15
(lp117
sg17
(lp118
sg19
(lp119
sg21
I0
sba(iArchitecture
Entity
p120
(dp121
g11
(lp122
sg13
S'android.hardware.camera2.impl.CameraMetadataNative$5'
p123
sg15
(lp124
sg17
(lp125
sg19
(lp126
sg21
I0
sba(iArchitecture
Entity
p127
(dp128
g11
(lp129
sg13
S'android.hardware.camera2.impl.CameraMetadataNative$6'
p130
sg15
(lp131
sg17
(lp132
sg19
(lp133
sg21
I0
sba(iArchitecture
Entity
p134
(dp135
g11
(lp136
sg13
S'android.hardware.camera2.impl.CameraMetadataNative$7'
p137
sg15
(lp138
sg17
(lp139
sg19
(lp140
sg21
I0
sba(iArchitecture
Entity
p141
(dp142
g11
(lp143
sg13
S'android.hardware.camera2.impl.CameraMetadataNative$8'
p144
sg15
(lp145
sg17
(lp146
sg19
(lp147
sg21
I0
sba(iArchitecture
Entity
p148
(dp149
g11
(lp150
sg13
S'android.hardware.camera2.impl.CameraMetadataNative$9'
p151
sg15
(lp152
sg17
(lp153
sg19
(lp154
sg21
I0
sba(iArchitecture
Entity
p155
(dp156
g11
(lp157
sg13
S'android.hardware.camera2.impl.CameraMetadataNative$Key'
p158
sg15
(lp159
sg17
(lp160
sg19
(lp161
sg21
I0
sbasS'classes'
p162
(lp163
g14
ag25
ag32
ag39
ag46
ag53
ag60
ag67
ag74
ag81
ag88
ag95
ag102
ag109
ag116
ag123
ag130
ag137
ag144
ag151
ag158
asg21
I0
sS'label'
p164
S'1086'
p165
sba(iArchitecture
Cluster
p166
(dp167
g7
(lp168
(iArchitecture
Entity
p169
(dp170
g11
(lp171
sg13
S'android.content.SyncAdapterType'
p172
sg15
(lp173
sg17
(lp174
sg19
(lp175
sg21
I0
sba(iArchitecture
Entity
p176
(dp177
g11
(lp178
sg13
S'android.content.SyncAdapterType$1'
p179
sg15
(lp180
sg17
(lp181
sg19
(lp182
sg21
I0
sba(iArchitecture
Entity
p183
(dp184
g11
(lp185
sg13
S'android.content.SyncAdaptersCache'
p186
sg15
(lp187
sg17
(lp188
sg19
(lp189
sg21
I0
sba(iArchitecture
Entity
p190
(dp191
g11
(lp192
sg13
S'android.content.SyncAdaptersCache$MySerializer'
p193
sg15
(lp194
sg17
(lp195
sg19
(lp196
sg21
I0
sbasg162
(lp197
g172
ag179
ag186
ag193
asg21
I0
sg164
S'1186'
p198
sba(iArchitecture
Cluster
p199
(dp200
g7
(lp201
(iArchitecture
Entity
p202
(dp203
g11
(lp204
sg13
S'android.text.Hyphenator'
p205
sg15
(lp206
sg17
(lp207
sg19
(lp208
sg21
I0
sbasg162
(lp209
g205
asg21
I0
sg164
S'186'
p210
sba(iArchitecture
Cluster
p211
(dp212
g7
(lp213
(iArchitecture
Entity
p214
(dp215
g11
(lp216
sg13
S'com.android.server.hdmi.HdmiLogger'
p217
sg15
(lp218
sg17
(lp219
sg19
(lp220
sg21
I0
sbasg162
(lp221
g217
asg21
I0
sg164
S'286'
p222
sba(iArchitecture
Cluster
p223
(dp224
g7
(lp225
(iArchitecture
Entity
p226
(dp227
g11
(lp228
sg13
S'com.android.server.fingerprint.FingerprintUtils'
p229
sg15
(lp230
sg17
(lp231
sg19
(lp232
sg21
I0
sbasg162
(lp233
g229
asg21
I0
sg164
S'386'
p234
sba(iArchitecture
Cluster
p235
(dp236
g7
(lp237
(iArchitecture
Entity
p238
(dp239
g11
(lp240
sg13
S'com.android.server.policy.SystemGesturesPointerEventListener'
p241
sg15
(lp242
sg17
(lp243
sg19
(lp244
sg21
I0
sba(iArchitecture
Entity
p245
(dp246
g11
(lp247
sg13
S'com.android.server.policy.SystemGesturesPointerEventListener$Callbacks'
p248
sg15
(lp249
sg17
(lp250
sg19
(lp251
sg21
I0
sbasg162
(lp252
g241
ag248
asg21
I0
sg164
S'486'
p253
sba(iArchitecture
Cluster
p254
(dp255
g7
(lp256
(iArchitecture
Entity
p257
(dp258
g11
(lp259
sg13
S'android.speech.tts.UtteranceProgressListener'
p260
sg15
(lp261
sg17
(lp262
sg19
(lp263
sg21
I0
sba(iArchitecture
Entity
p264
(dp265
g11
(lp266
sg13
S'android.speech.tts.UtteranceProgressListener$1'
p267
sg15
(lp268
sg17
(lp269
sg19
(lp270
sg21
I0
sbasg162
(lp271
g260
ag267
asg21
I0
sg164
S'586'
p272
sba(iArchitecture
Cluster
p273
(dp274
g7
(lp275
(iArchitecture
Entity
p276
(dp277
g11
(lp278
sg13
S'android.os.BatteryProperties'
p279
sg15
(lp280
sg17
(lp281
sg19
(lp282
sg21
I0
sba(iArchitecture
Entity
p283
(dp284
g11
(lp285
sg13
S'android.os.BatteryProperties$1'
p286
sg15
(lp287
sg17
(lp288
sg19
(lp289
sg21
I0
sbasg162
(lp290
g279
ag286
asg21
I0
sg164
S'686'
p291
sba(iArchitecture
Cluster
p292
(dp293
g7
(lp294
(iArchitecture
Entity
p295
(dp296
g11
(lp297
sg13
S'android.telecom.PhoneAccount'
p298
sg15
(lp299
sg17
(lp300
sg19
(lp301
sg21
I0
sba(iArchitecture
Entity
p302
(dp303
g11
(lp304
sg13
S'android.telecom.PhoneAccount$1'
p305
sg15
(lp306
sg17
(lp307
sg19
(lp308
sg21
I0
sba(iArchitecture
Entity
p309
(dp310
g11
(lp311
sg13
S'android.telecom.PhoneAccount$Builder'
p312
sg15
(lp313
sg17
(lp314
sg19
(lp315
sg21
I0
sbasg162
(lp316
g298
ag305
ag312
asg21
I0
sg164
S'786'
p317
sba(iArchitecture
Cluster
p318
(dp319
g7
(lp320
(iArchitecture
Entity
p321
(dp322
g11
(lp323
sg13
S'com.android.server.pm.Installer'
p324
sg15
(lp325
sg17
(lp326
sg19
(lp327
sg21
I0
sbasg162
(lp328
g324
asg21
I0
sg164
S'86'
p329
sba(iArchitecture
Cluster
p330
(dp331
g7
(lp332
(iArchitecture
Entity
p333
(dp334
g11
(lp335
sg13
S'android.net.wifi.WpsResult'
p336
sg15
(lp337
sg17
(lp338
sg19
(lp339
sg21
I0
sba(iArchitecture
Entity
p340
(dp341
g11
(lp342
sg13
S'android.net.wifi.WpsResult$1'
p343
sg15
(lp344
sg17
(lp345
sg19
(lp346
sg21
I0
sba(iArchitecture
Entity
p347
(dp348
g11
(lp349
sg13
S'android.net.wifi.WpsResult$Status'
p350
sg15
(lp351
sg17
(lp352
sg19
(lp353
sg21
I0
sbasg162
(lp354
g336
ag343
ag350
asg21
I0
sg164
S'860'
p355
sba(iArchitecture
Cluster
p356
(dp357
g7
(lp358
(iArchitecture
Entity
p359
(dp360
g11
(lp361
sg13
S'com.android.internal.app.NetInitiatedActivity'
p362
sg15
(lp363
sg17
(lp364
sg19
(lp365
sg21
I0
sba(iArchitecture
Entity
p366
(dp367
g11
(lp368
sg13
S'com.android.internal.app.NetInitiatedActivity$1'
p369
sg15
(lp370
sg17
(lp371
sg19
(lp372
sg21
I0
sba(iArchitecture
Entity
p373
(dp374
g11
(lp375
sg13
S'com.android.internal.app.NetInitiatedActivity$2'
p376
sg15
(lp377
sg17
(lp378
sg19
(lp379
sg21
I0
sbasg162
(lp380
g362
ag369
ag376
asg21
I0
sg164
S'861'
p381
sba(iArchitecture
Cluster
p382
(dp383
g7
(lp384
(iArchitecture
Entity
p385
(dp386
g11
(lp387
sg13
S'com.android.server.job.JobStore'
p388
sg15
(lp389
sg17
(lp390
sg19
(lp391
sg21
I0
sba(iArchitecture
Entity
p392
(dp393
g11
(lp394
sg13
S'com.android.server.job.JobStore$ReadJobMapFromDiskRunnable'
p395
sg15
(lp396
sg17
(lp397
sg19
(lp398
sg21
I0
sba(iArchitecture
Entity
p399
(dp400
g11
(lp401
sg13
S'com.android.server.job.JobStore$WriteJobsMapToDiskRunnable'
p402
sg15
(lp403
sg17
(lp404
sg19
(lp405
sg21
I0
sbasg162
(lp406
g388
ag395
ag402
asg21
I0
sg164
S'862'
p407
sba(iArchitecture
Cluster
p408
(dp409
g7
(lp410
(iArchitecture
Entity
p411
(dp412
g11
(lp413
sg13
S'com.android.server.pm.PermissionsState'
p414
sg15
(lp415
sg17
(lp416
sg19
(lp417
sg21
I0
sba(iArchitecture
Entity
p418
(dp419
g11
(lp420
sg13
S'com.android.server.pm.PermissionsState$PermissionData'
p421
sg15
(lp422
sg17
(lp423
sg19
(lp424
sg21
I0
sba(iArchitecture
Entity
p425
(dp426
g11
(lp427
sg13
S'com.android.server.pm.PermissionsState$PermissionState'
p428
sg15
(lp429
sg17
(lp430
sg19
(lp431
sg21
I0
sbasg162
(lp432
g414
ag421
ag428
asg21
I0
sg164
S'863'
p433
sba(iArchitecture
Cluster
p434
(dp435
g7
(lp436
(iArchitecture
Entity
p437
(dp438
g11
(lp439
sg13
S'android.media.AudioSystem'
p440
sg15
(lp441
sg17
(lp442
sg19
(lp443
sg21
I0
sba(iArchitecture
Entity
p444
(dp445
g11
(lp446
sg13
S'android.media.AudioSystem$DynamicPolicyCallback'
p447
sg15
(lp448
sg17
(lp449
sg19
(lp450
sg21
I0
sba(iArchitecture
Entity
p451
(dp452
g11
(lp453
sg13
S'android.media.AudioSystem$ErrorCallback'
p454
sg15
(lp455
sg17
(lp456
sg19
(lp457
sg21
I0
sbasg162
(lp458
g440
ag447
ag454
asg21
I0
sg164
S'864'
p459
sba(iArchitecture
Cluster
p460
(dp461
g7
(lp462
(iArchitecture
Entity
p463
(dp464
g11
(lp465
sg13
S'com.android.server.NetworkManagementSocketTagger'
p466
sg15
(lp467
sg17
(lp468
sg19
(lp469
sg21
I0
sba(iArchitecture
Entity
p470
(dp471
g11
(lp472
sg13
S'com.android.server.NetworkManagementSocketTagger$1'
p473
sg15
(lp474
sg17
(lp475
sg19
(lp476
sg21
I0
sba(iArchitecture
Entity
p477
(dp478
g11
(lp479
sg13
S'com.android.server.NetworkManagementSocketTagger$SocketTags'
p480
sg15
(lp481
sg17
(lp482
sg19
(lp483
sg21
I0
sbasg162
(lp484
g466
ag473
ag480
asg21
I0
sg164
S'865'
p485
sba(iArchitecture
Cluster
p486
(dp487
g7
(lp488
(iArchitecture
Entity
p489
(dp490
g11
(lp491
sg13
S'android.media.DecoderCapabilities'
p492
sg15
(lp493
sg17
(lp494
sg19
(lp495
sg21
I0
sba(iArchitecture
Entity
p496
(dp497
g11
(lp498
sg13
S'android.media.DecoderCapabilities$AudioDecoder'
p499
sg15
(lp500
sg17
(lp501
sg19
(lp502
sg21
I0
sba(iArchitecture
Entity
p503
(dp504
g11
(lp505
sg13
S'android.media.DecoderCapabilities$VideoDecoder'
p506
sg15
(lp507
sg17
(lp508
sg19
(lp509
sg21
I0
sbasg162
(lp510
g492
ag499
ag506
asg21
I0
sg164
S'866'
p511
sba(iArchitecture
Cluster
p512
(dp513
g7
(lp514
(iArchitecture
Entity
p515
(dp516
g11
(lp517
sg13
S'android.view.InputQueue'
p518
sg15
(lp519
sg17
(lp520
sg19
(lp521
sg21
I0
sba(iArchitecture
Entity
p522
(dp523
g11
(lp524
sg13
S'android.view.InputQueue$ActiveInputEvent'
p525
sg15
(lp526
sg17
(lp527
sg19
(lp528
sg21
I0
sba(iArchitecture
Entity
p529
(dp530
g11
(lp531
sg13
S'android.view.InputQueue$Callback'
p532
sg15
(lp533
sg17
(lp534
sg19
(lp535
sg21
I0
sba(iArchitecture
Entity
p536
(dp537
g11
(lp538
sg13
S'android.view.InputQueue$FinishedInputEventCallback'
p539
sg15
(lp540
sg17
(lp541
sg19
(lp542
sg21
I0
sbasg162
(lp543
g518
ag525
ag532
ag539
asg21
I0
sg164
S'867'
p544
sba(iArchitecture
Cluster
p545
(dp546
g7
(lp547
(iArchitecture
Entity
p548
(dp549
g11
(lp550
sg13
S'android.view.InputDevice'
p551
sg15
(lp552
sg17
(lp553
sg19
(lp554
sg21
I0
sba(iArchitecture
Entity
p555
(dp556
g11
(lp557
sg13
S'android.view.InputDevice$1'
p558
sg15
(lp559
sg17
(lp560
sg19
(lp561
sg21
I0
sba(iArchitecture
Entity
p562
(dp563
g11
(lp564
sg13
S'android.view.InputDevice$MotionRange'
p565
sg15
(lp566
sg17
(lp567
sg19
(lp568
sg21
I0
sbasg162
(lp569
g551
ag558
ag565
asg21
I0
sg164
S'868'
p570
sba(iArchitecture
Cluster
p571
(dp572
g7
(lp573
(iArchitecture
Entity
p574
(dp575
g11
(lp576
sg13
S'android.inputmethodservice.AbstractInputMethodService'
p577
sg15
(lp578
sg17
(lp579
sg19
(lp580
sg21
I0
sba(iArchitecture
Entity
p581
(dp582
g11
(lp583
sg13
S'android.inputmethodservice.AbstractInputMethodService$AbstractInputMethodImpl'
p584
sg15
(lp585
sg17
(lp586
sg19
(lp587
sg21
I0
sba(iArchitecture
Entity
p588
(dp589
g11
(lp590
sg13
S'android.inputmethodservice.AbstractInputMethodService$AbstractInputMethodSessionImpl'
p591
sg15
(lp592
sg17
(lp593
sg19
(lp594
sg21
I0
sbasg162
(lp595
g577
ag584
ag591
asg21
I0
sg164
S'869'
p596
sba(iArchitecture
Cluster
p597
(dp598
g7
(lp599
(iArchitecture
Entity
p600
(dp601
g11
(lp602
sg13
S'android.telephony.PhoneStateListener'
p603
sg15
(lp604
sg17
(lp605
sg19
(lp606
sg21
I0
sba(iArchitecture
Entity
p607
(dp608
g11
(lp609
sg13
S'android.telephony.PhoneStateListener$1'
p610
sg15
(lp611
sg17
(lp612
sg19
(lp613
sg21
I0
sba(iArchitecture
Entity
p614
(dp615
g11
(lp616
sg13
S'android.telephony.PhoneStateListener$2'
p617
sg15
(lp618
sg17
(lp619
sg19
(lp620
sg21
I0
sbasg162
(lp621
g603
ag610
ag617
asg21
I0
sg164
S'886'
p622
sba(iArchitecture
Cluster
p623
(dp624
g7
(lp625
(iArchitecture
Entity
p626
(dp627
g11
(lp628
sg13
S'android.widget.ZoomButtonsController'
p629
sg15
(lp630
sg17
(lp631
sg19
(lp632
sg21
I0
sba(iArchitecture
Entity
p633
(dp634
g11
(lp635
sg13
S'android.widget.ZoomButtonsController$1'
p636
sg15
(lp637
sg17
(lp638
sg19
(lp639
sg21
I0
sba(iArchitecture
Entity
p640
(dp641
g11
(lp642
sg13
S'android.widget.ZoomButtonsController$2'
p643
sg15
(lp644
sg17
(lp645
sg19
(lp646
sg21
I0
sba(iArchitecture
Entity
p647
(dp648
g11
(lp649
sg13
S'android.widget.ZoomButtonsController$3'
p650
sg15
(lp651
sg17
(lp652
sg19
(lp653
sg21
I0
sba(iArchitecture
Entity
p654
(dp655
g11
(lp656
sg13
S'android.widget.ZoomButtonsController$4'
p657
sg15
(lp658
sg17
(lp659
sg19
(lp660
sg21
I0
sba(iArchitecture
Entity
p661
(dp662
g11
(lp663
sg13
S'android.widget.ZoomButtonsController$5'
p664
sg15
(lp665
sg17
(lp666
sg19
(lp667
sg21
I0
sba(iArchitecture
Entity
p668
(dp669
g11
(lp670
sg13
S'android.widget.ZoomButtonsController$Container'
p671
sg15
(lp672
sg17
(lp673
sg19
(lp674
sg21
I0
sba(iArchitecture
Entity
p675
(dp676
g11
(lp677
sg13
S'android.widget.ZoomButtonsController$OnZoomListener'
p678
sg15
(lp679
sg17
(lp680
sg19
(lp681
sg21
I0
sbasg162
(lp682
g629
ag636
ag643
ag650
ag657
ag664
ag671
ag678
asg21
I0
sg164
S'986'
p683
sbasS'target_sub'
p684
S'86'
p685
sg162
(lp686
sS'is_component_arch'
p687
I01
sg164
S'6.0.0_r1'
p688
sba.