(lp0
(iArchitecture
Architecture
p1
(dp2
S'clusters'
p3
(lp4
(iArchitecture
Cluster
p5
(dp6
S'entities'
p7
(lp8
(iArchitecture
Entity
p9
(dp10
S'issue_ids'
p11
(lp12
sS'name'
p13
S'android.hardware.fingerprint.FingerprintManager'
p14
sS'descs'
p15
(lp16
sS'labels'
p17
(lp18
sS'titles'
p19
(lp20
sS'change'
p21
I0
sba(iArchitecture
Entity
p22
(dp23
g11
(lp24
sg13
S'android.hardware.fingerprint.FingerprintManager$1'
p25
sg15
(lp26
sg17
(lp27
sg19
(lp28
sg21
I0
sba(iArchitecture
Entity
p29
(dp30
g11
(lp31
sg13
S'android.hardware.fingerprint.FingerprintManager$AuthenticationCallback'
p32
sg15
(lp33
sg17
(lp34
sg19
(lp35
sg21
I0
sba(iArchitecture
Entity
p36
(dp37
g11
(lp38
sg13
S'android.hardware.fingerprint.FingerprintManager$AuthenticationResult'
p39
sg15
(lp40
sg17
(lp41
sg19
(lp42
sg21
I0
sba(iArchitecture
Entity
p43
(dp44
g11
(lp45
sg13
S'android.hardware.fingerprint.FingerprintManager$CryptoObject'
p46
sg15
(lp47
sg17
(lp48
sg19
(lp49
sg21
I0
sba(iArchitecture
Entity
p50
(dp51
g11
(lp52
sg13
S'android.hardware.fingerprint.FingerprintManager$EnrollmentCallback'
p53
sg15
(lp54
sg17
(lp55
sg19
(lp56
sg21
I0
sba(iArchitecture
Entity
p57
(dp58
g11
(lp59
sg13
S'android.hardware.fingerprint.FingerprintManager$MyHandler'
p60
sg15
(lp61
sg17
(lp62
sg19
(lp63
sg21
I0
sba(iArchitecture
Entity
p64
(dp65
g11
(lp66
sg13
S'android.hardware.fingerprint.FingerprintManager$OnAuthenticationCancelListener'
p67
sg15
(lp68
sg17
(lp69
sg19
(lp70
sg21
I0
sba(iArchitecture
Entity
p71
(dp72
g11
(lp73
sg13
S'android.hardware.fingerprint.FingerprintManager$OnEnrollCancelListener'
p74
sg15
(lp75
sg17
(lp76
sg19
(lp77
sg21
I0
sba(iArchitecture
Entity
p78
(dp79
g11
(lp80
sg13
S'android.hardware.fingerprint.FingerprintManager$RemovalCallback'
p81
sg15
(lp82
sg17
(lp83
sg19
(lp84
sg21
I0
sbasS'classes'
p85
(lp86
g14
ag25
ag32
ag39
ag46
ag53
ag60
ag67
ag74
ag81
asg21
I0
sS'label'
p87
S'1067'
p88
sba(iArchitecture
Cluster
p89
(dp90
g7
(lp91
(iArchitecture
Entity
p92
(dp93
g11
(lp94
sg13
S'android.net.dhcp.DhcpClient'
p95
sg15
(lp96
sg17
(lp97
sg19
(lp98
sg21
I0
sba(iArchitecture
Entity
p99
(dp100
g11
(lp101
sg13
S'android.net.dhcp.DhcpClient$1'
p102
sg15
(lp103
sg17
(lp104
sg19
(lp105
sg21
I0
sba(iArchitecture
Entity
p106
(dp107
g11
(lp108
sg13
S'android.net.dhcp.DhcpClient$DhcpBoundState'
p109
sg15
(lp110
sg17
(lp111
sg19
(lp112
sg21
I0
sba(iArchitecture
Entity
p113
(dp114
g11
(lp115
sg13
S'android.net.dhcp.DhcpClient$DhcpHaveAddressState'
p116
sg15
(lp117
sg17
(lp118
sg19
(lp119
sg21
I0
sba(iArchitecture
Entity
p120
(dp121
g11
(lp122
sg13
S'android.net.dhcp.DhcpClient$DhcpInitRebootState'
p123
sg15
(lp124
sg17
(lp125
sg19
(lp126
sg21
I0
sba(iArchitecture
Entity
p127
(dp128
g11
(lp129
sg13
S'android.net.dhcp.DhcpClient$DhcpInitState'
p130
sg15
(lp131
sg17
(lp132
sg19
(lp133
sg21
I0
sba(iArchitecture
Entity
p134
(dp135
g11
(lp136
sg13
S'android.net.dhcp.DhcpClient$DhcpRebindingState'
p137
sg15
(lp138
sg17
(lp139
sg19
(lp140
sg21
I0
sba(iArchitecture
Entity
p141
(dp142
g11
(lp143
sg13
S'android.net.dhcp.DhcpClient$DhcpRebootingState'
p144
sg15
(lp145
sg17
(lp146
sg19
(lp147
sg21
I0
sba(iArchitecture
Entity
p148
(dp149
g11
(lp150
sg13
S'android.net.dhcp.DhcpClient$DhcpRenewingState'
p151
sg15
(lp152
sg17
(lp153
sg19
(lp154
sg21
I0
sba(iArchitecture
Entity
p155
(dp156
g11
(lp157
sg13
S'android.net.dhcp.DhcpClient$DhcpRequestingState'
p158
sg15
(lp159
sg17
(lp160
sg19
(lp161
sg21
I0
sba(iArchitecture
Entity
p162
(dp163
g11
(lp164
sg13
S'android.net.dhcp.DhcpClient$DhcpSelectingState'
p165
sg15
(lp166
sg17
(lp167
sg19
(lp168
sg21
I0
sba(iArchitecture
Entity
p169
(dp170
g11
(lp171
sg13
S'android.net.dhcp.DhcpClient$DhcpState'
p172
sg15
(lp173
sg17
(lp174
sg19
(lp175
sg21
I0
sba(iArchitecture
Entity
p176
(dp177
g11
(lp178
sg13
S'android.net.dhcp.DhcpClient$LoggingState'
p179
sg15
(lp180
sg17
(lp181
sg19
(lp182
sg21
I0
sba(iArchitecture
Entity
p183
(dp184
g11
(lp185
sg13
S'android.net.dhcp.DhcpClient$PacketRetransmittingState'
p186
sg15
(lp187
sg17
(lp188
sg19
(lp189
sg21
I0
sba(iArchitecture
Entity
p190
(dp191
g11
(lp192
sg13
S'android.net.dhcp.DhcpClient$ReceiveThread'
p193
sg15
(lp194
sg17
(lp195
sg19
(lp196
sg21
I0
sba(iArchitecture
Entity
p197
(dp198
g11
(lp199
sg13
S'android.net.dhcp.DhcpClient$StoppedState'
p200
sg15
(lp201
sg17
(lp202
sg19
(lp203
sg21
I0
sba(iArchitecture
Entity
p204
(dp205
g11
(lp206
sg13
S'android.net.dhcp.DhcpClient$WaitBeforeOtherState'
p207
sg15
(lp208
sg17
(lp209
sg19
(lp210
sg21
I0
sba(iArchitecture
Entity
p211
(dp212
g11
(lp213
sg13
S'android.net.dhcp.DhcpClient$WaitBeforeRenewalState'
p214
sg15
(lp215
sg17
(lp216
sg19
(lp217
sg21
I0
sba(iArchitecture
Entity
p218
(dp219
g11
(lp220
sg13
S'android.net.dhcp.DhcpClient$WaitBeforeStartState'
p221
sg15
(lp222
sg17
(lp223
sg19
(lp224
sg21
I0
sba(iArchitecture
Entity
p225
(dp226
g11
(lp227
sg13
S'android.net.dhcp.DhcpPacket'
p228
sg15
(lp229
sg17
(lp230
sg19
(lp231
sg21
I0
sbasg85
(lp232
g95
ag102
ag109
ag116
ag123
ag130
ag137
ag144
ag151
ag158
ag165
ag172
ag179
ag186
ag193
ag200
ag207
ag214
ag221
ag228
asg21
I0
sg87
S'1167'
p233
sba(iArchitecture
Cluster
p234
(dp235
g7
(lp236
(iArchitecture
Entity
p237
(dp238
g11
(lp239
sg13
S'com.android.internal.util.GrowingArrayUtils'
p240
sg15
(lp241
sg17
(lp242
sg19
(lp243
sg21
I0
sbasg85
(lp244
g240
asg21
I0
sg87
S'167'
p245
sba(iArchitecture
Cluster
p246
(dp247
g7
(lp248
(iArchitecture
Entity
p249
(dp250
g11
(lp251
sg13
S'android.database.CrossProcessCursor'
p252
sg15
(lp253
sg17
(lp254
sg19
(lp255
sg21
I0
sbasg85
(lp256
g252
asg21
I0
sg87
S'267'
p257
sba(iArchitecture
Cluster
p258
(dp259
g7
(lp260
(iArchitecture
Entity
p261
(dp262
g11
(lp263
sg13
S'android.media.audiofx.AcousticEchoCanceler'
p264
sg15
(lp265
sg17
(lp266
sg19
(lp267
sg21
I0
sbasg85
(lp268
g264
asg21
I0
sg87
S'367'
p269
sba(iArchitecture
Cluster
p270
(dp271
g7
(lp272
(iArchitecture
Entity
p273
(dp274
g11
(lp275
sg13
S'android.view.InputEventConsistencyVerifier'
p276
sg15
(lp277
sg17
(lp278
sg19
(lp279
sg21
I0
sba(iArchitecture
Entity
p280
(dp281
g11
(lp282
sg13
S'android.view.InputEventConsistencyVerifier$KeyState'
p283
sg15
(lp284
sg17
(lp285
sg19
(lp286
sg21
I0
sbasg85
(lp287
g276
ag283
asg21
I0
sg87
S'467'
p288
sba(iArchitecture
Cluster
p289
(dp290
g7
(lp291
(iArchitecture
Entity
p292
(dp293
g11
(lp294
sg13
S'android.filterfw.GraphEnvironment'
p295
sg15
(lp296
sg17
(lp297
sg19
(lp298
sg21
I0
sba(iArchitecture
Entity
p299
(dp300
g11
(lp301
sg13
S'android.filterfw.GraphEnvironment$GraphHandle'
p302
sg15
(lp303
sg17
(lp304
sg19
(lp305
sg21
I0
sbasg85
(lp306
g295
ag302
asg21
I0
sg87
S'567'
p307
sba(iArchitecture
Cluster
p308
(dp309
g7
(lp310
(iArchitecture
Entity
p311
(dp312
g11
(lp313
sg13
S'android.os.UserHandle'
p314
sg15
(lp315
sg17
(lp316
sg19
(lp317
sg21
I0
sba(iArchitecture
Entity
p318
(dp319
g11
(lp320
sg13
S'android.os.UserHandle$1'
p321
sg15
(lp322
sg17
(lp323
sg19
(lp324
sg21
I0
sbasg85
(lp325
g314
ag321
asg21
I0
sg87
S'667'
p326
sba(iArchitecture
Cluster
p327
(dp328
g7
(lp329
(iArchitecture
Entity
p330
(dp331
g11
(lp332
sg13
S'android.text.SpannableStringBuilder'
p333
sg15
(lp334
sg17
(lp335
sg19
(lp336
sg21
I0
sbasg85
(lp337
g333
asg21
I0
sg87
S'67'
p338
sba(iArchitecture
Cluster
p339
(dp340
g7
(lp341
(iArchitecture
Entity
p342
(dp343
g11
(lp344
sg13
S'android.media.MediaActionSound'
p345
sg15
(lp346
sg17
(lp347
sg19
(lp348
sg21
I0
sba(iArchitecture
Entity
p349
(dp350
g11
(lp351
sg13
S'android.media.MediaActionSound$1'
p352
sg15
(lp353
sg17
(lp354
sg19
(lp355
sg21
I0
sbasg85
(lp356
g345
ag352
asg21
I0
sg87
S'670'
p357
sba(iArchitecture
Cluster
p358
(dp359
g7
(lp360
(iArchitecture
Entity
p361
(dp362
g11
(lp363
sg13
S'android.content.pm.PackageStats'
p364
sg15
(lp365
sg17
(lp366
sg19
(lp367
sg21
I0
sba(iArchitecture
Entity
p368
(dp369
g11
(lp370
sg13
S'android.content.pm.PackageStats$1'
p371
sg15
(lp372
sg17
(lp373
sg19
(lp374
sg21
I0
sbasg85
(lp375
g364
ag371
asg21
I0
sg87
S'671'
p376
sba(iArchitecture
Cluster
p377
(dp378
g7
(lp379
(iArchitecture
Entity
p380
(dp381
g11
(lp382
sg13
S'android.view.ViewStub'
p383
sg15
(lp384
sg17
(lp385
sg19
(lp386
sg21
I0
sba(iArchitecture
Entity
p387
(dp388
g11
(lp389
sg13
S'android.view.ViewStub$OnInflateListener'
p390
sg15
(lp391
sg17
(lp392
sg19
(lp393
sg21
I0
sbasg85
(lp394
g383
ag390
asg21
I0
sg87
S'672'
p395
sba(iArchitecture
Cluster
p396
(dp397
g7
(lp398
(iArchitecture
Entity
p399
(dp400
g11
(lp401
sg13
S'android.bluetooth.le.ScanResult'
p402
sg15
(lp403
sg17
(lp404
sg19
(lp405
sg21
I0
sba(iArchitecture
Entity
p406
(dp407
g11
(lp408
sg13
S'android.bluetooth.le.ScanResult$1'
p409
sg15
(lp410
sg17
(lp411
sg19
(lp412
sg21
I0
sbasg85
(lp413
g402
ag409
asg21
I0
sg87
S'673'
p414
sba(iArchitecture
Cluster
p415
(dp416
g7
(lp417
(iArchitecture
Entity
p418
(dp419
g11
(lp420
sg13
S'android.telephony.CellIdentityLte'
p421
sg15
(lp422
sg17
(lp423
sg19
(lp424
sg21
I0
sba(iArchitecture
Entity
p425
(dp426
g11
(lp427
sg13
S'android.telephony.CellIdentityLte$1'
p428
sg15
(lp429
sg17
(lp430
sg19
(lp431
sg21
I0
sbasg85
(lp432
g421
ag428
asg21
I0
sg87
S'674'
p433
sba(iArchitecture
Cluster
p434
(dp435
g7
(lp436
(iArchitecture
Entity
p437
(dp438
g11
(lp439
sg13
S'android.inputmethodservice.SoftInputWindow'
p440
sg15
(lp441
sg17
(lp442
sg19
(lp443
sg21
I0
sba(iArchitecture
Entity
p444
(dp445
g11
(lp446
sg13
S'android.inputmethodservice.SoftInputWindow$Callback'
p447
sg15
(lp448
sg17
(lp449
sg19
(lp450
sg21
I0
sbasg85
(lp451
g440
ag447
asg21
I0
sg87
S'675'
p452
sba(iArchitecture
Cluster
p453
(dp454
g7
(lp455
(iArchitecture
Entity
p456
(dp457
g11
(lp458
sg13
S'com.android.server.SystemConfig'
p459
sg15
(lp460
sg17
(lp461
sg19
(lp462
sg21
I0
sba(iArchitecture
Entity
p463
(dp464
g11
(lp465
sg13
S'com.android.server.SystemConfig$PermissionEntry'
p466
sg15
(lp467
sg17
(lp468
sg19
(lp469
sg21
I0
sbasg85
(lp470
g459
ag466
asg21
I0
sg87
S'676'
p471
sba(iArchitecture
Cluster
p472
(dp473
g7
(lp474
(iArchitecture
Entity
p475
(dp476
g11
(lp477
sg13
S'com.android.internal.os.TransferPipe'
p478
sg15
(lp479
sg17
(lp480
sg19
(lp481
sg21
I0
sba(iArchitecture
Entity
p482
(dp483
g11
(lp484
sg13
S'com.android.internal.os.TransferPipe$Caller'
p485
sg15
(lp486
sg17
(lp487
sg19
(lp488
sg21
I0
sbasg85
(lp489
g478
ag485
asg21
I0
sg87
S'677'
p490
sba(iArchitecture
Cluster
p491
(dp492
g7
(lp493
(iArchitecture
Entity
p494
(dp495
g11
(lp496
sg13
S'com.android.server.search.Searchables'
p497
sg15
(lp498
sg17
(lp499
sg19
(lp500
sg21
I0
sba(iArchitecture
Entity
p501
(dp502
g11
(lp503
sg13
S'com.android.server.search.Searchables$1'
p504
sg15
(lp505
sg17
(lp506
sg19
(lp507
sg21
I0
sbasg85
(lp508
g497
ag504
asg21
I0
sg87
S'678'
p509
sba(iArchitecture
Cluster
p510
(dp511
g7
(lp512
(iArchitecture
Entity
p513
(dp514
g11
(lp515
sg13
S'android.content.pm.InstrumentationInfo'
p516
sg15
(lp517
sg17
(lp518
sg19
(lp519
sg21
I0
sba(iArchitecture
Entity
p520
(dp521
g11
(lp522
sg13
S'android.content.pm.InstrumentationInfo$1'
p523
sg15
(lp524
sg17
(lp525
sg19
(lp526
sg21
I0
sbasg85
(lp527
g516
ag523
asg21
I0
sg87
S'679'
p528
sba(iArchitecture
Cluster
p529
(dp530
g7
(lp531
(iArchitecture
Entity
p532
(dp533
g11
(lp534
sg13
S'com.android.server.net.DelayedDiskWrite'
p535
sg15
(lp536
sg17
(lp537
sg19
(lp538
sg21
I0
sba(iArchitecture
Entity
p539
(dp540
g11
(lp541
sg13
S'com.android.server.net.DelayedDiskWrite$1'
p542
sg15
(lp543
sg17
(lp544
sg19
(lp545
sg21
I0
sba(iArchitecture
Entity
p546
(dp547
g11
(lp548
sg13
S'com.android.server.net.DelayedDiskWrite$Writer'
p549
sg15
(lp550
sg17
(lp551
sg19
(lp552
sg21
I0
sbasg85
(lp553
g535
ag542
ag549
asg21
I0
sg87
S'767'
p554
sba(iArchitecture
Cluster
p555
(dp556
g7
(lp557
(iArchitecture
Entity
p558
(dp559
g11
(lp560
sg13
S'android.view.InputQueue'
p561
sg15
(lp562
sg17
(lp563
sg19
(lp564
sg21
I0
sba(iArchitecture
Entity
p565
(dp566
g11
(lp567
sg13
S'android.view.InputQueue$ActiveInputEvent'
p568
sg15
(lp569
sg17
(lp570
sg19
(lp571
sg21
I0
sba(iArchitecture
Entity
p572
(dp573
g11
(lp574
sg13
S'android.view.InputQueue$Callback'
p575
sg15
(lp576
sg17
(lp577
sg19
(lp578
sg21
I0
sba(iArchitecture
Entity
p579
(dp580
g11
(lp581
sg13
S'android.view.InputQueue$FinishedInputEventCallback'
p582
sg15
(lp583
sg17
(lp584
sg19
(lp585
sg21
I0
sbasg85
(lp586
g561
ag568
ag575
ag582
asg21
I0
sg87
S'867'
p587
sba(iArchitecture
Cluster
p588
(dp589
g7
(lp590
(iArchitecture
Entity
p591
(dp592
g11
(lp593
sg13
S'com.android.server.hdmi.HdmiCecStandbyModeHandler'
p594
sg15
(lp595
sg17
(lp596
sg19
(lp597
sg21
I0
sba(iArchitecture
Entity
p598
(dp599
g11
(lp600
sg13
S'com.android.server.hdmi.HdmiCecStandbyModeHandler$Aborter'
p601
sg15
(lp602
sg17
(lp603
sg19
(lp604
sg21
I0
sba(iArchitecture
Entity
p605
(dp606
g11
(lp607
sg13
S'com.android.server.hdmi.HdmiCecStandbyModeHandler$AutoOnHandler'
p608
sg15
(lp609
sg17
(lp610
sg19
(lp611
sg21
I0
sba(iArchitecture
Entity
p612
(dp613
g11
(lp614
sg13
S'com.android.server.hdmi.HdmiCecStandbyModeHandler$Bypasser'
p615
sg15
(lp616
sg17
(lp617
sg19
(lp618
sg21
I0
sba(iArchitecture
Entity
p619
(dp620
g11
(lp621
sg13
S'com.android.server.hdmi.HdmiCecStandbyModeHandler$Bystander'
p622
sg15
(lp623
sg17
(lp624
sg19
(lp625
sg21
I0
sba(iArchitecture
Entity
p626
(dp627
g11
(lp628
sg13
S'com.android.server.hdmi.HdmiCecStandbyModeHandler$CecMessageHandler'
p629
sg15
(lp630
sg17
(lp631
sg19
(lp632
sg21
I0
sba(iArchitecture
Entity
p633
(dp634
g11
(lp635
sg13
S'com.android.server.hdmi.HdmiCecStandbyModeHandler$UserControlProcessedHandler'
p636
sg15
(lp637
sg17
(lp638
sg19
(lp639
sg21
I0
sbasg85
(lp640
g594
ag601
ag608
ag615
ag622
ag629
ag636
asg21
I0
sg87
S'967'
p641
sbasS'target_sub'
p642
S'67'
p643
sg85
(lp644
sS'is_component_arch'
p645
I01
sg87
S'6.0.0_r1'
p646
sba.