(lp0
(iArchitecture
Architecture
p1
(dp2
S'clusters'
p3
(lp4
(iArchitecture
Cluster
p5
(dp6
S'entities'
p7
(lp8
(iArchitecture
Entity
p9
(dp10
S'issue_ids'
p11
(lp12
sS'name'
p13
S'android.media.SyncParams'
p14
sS'descs'
p15
(lp16
sS'labels'
p17
(lp18
sS'titles'
p19
(lp20
sS'change'
p21
I0
sbasS'classes'
p22
(lp23
g14
asg21
I0
sS'label'
p24
S'111'
p25
sba(iArchitecture
Cluster
p26
(dp27
g7
(lp28
(iArchitecture
Entity
p29
(dp30
g11
(lp31
sg13
S'android.renderscript.Byte2'
p32
sg15
(lp33
sg17
(lp34
sg19
(lp35
sg21
I0
sba(iArchitecture
Entity
p36
(dp37
g11
(lp38
sg13
S'android.renderscript.Byte3'
p39
sg15
(lp40
sg17
(lp41
sg19
(lp42
sg21
I0
sba(iArchitecture
Entity
p43
(dp44
g11
(lp45
sg13
S'android.renderscript.Byte4'
p46
sg15
(lp47
sg17
(lp48
sg19
(lp49
sg21
I0
sba(iArchitecture
Entity
p50
(dp51
g11
(lp52
sg13
S'android.renderscript.Double2'
p53
sg15
(lp54
sg17
(lp55
sg19
(lp56
sg21
I0
sba(iArchitecture
Entity
p57
(dp58
g11
(lp59
sg13
S'android.renderscript.Double3'
p60
sg15
(lp61
sg17
(lp62
sg19
(lp63
sg21
I0
sba(iArchitecture
Entity
p64
(dp65
g11
(lp66
sg13
S'android.renderscript.Double4'
p67
sg15
(lp68
sg17
(lp69
sg19
(lp70
sg21
I0
sba(iArchitecture
Entity
p71
(dp72
g11
(lp73
sg13
S'android.renderscript.Float2'
p74
sg15
(lp75
sg17
(lp76
sg19
(lp77
sg21
I0
sba(iArchitecture
Entity
p78
(dp79
g11
(lp80
sg13
S'android.renderscript.Float3'
p81
sg15
(lp82
sg17
(lp83
sg19
(lp84
sg21
I0
sba(iArchitecture
Entity
p85
(dp86
g11
(lp87
sg13
S'android.renderscript.Float4'
p88
sg15
(lp89
sg17
(lp90
sg19
(lp91
sg21
I0
sba(iArchitecture
Entity
p92
(dp93
g11
(lp94
sg13
S'android.renderscript.Int2'
p95
sg15
(lp96
sg17
(lp97
sg19
(lp98
sg21
I0
sba(iArchitecture
Entity
p99
(dp100
g11
(lp101
sg13
S'android.renderscript.Int3'
p102
sg15
(lp103
sg17
(lp104
sg19
(lp105
sg21
I0
sba(iArchitecture
Entity
p106
(dp107
g11
(lp108
sg13
S'android.renderscript.Int4'
p109
sg15
(lp110
sg17
(lp111
sg19
(lp112
sg21
I0
sba(iArchitecture
Entity
p113
(dp114
g11
(lp115
sg13
S'android.renderscript.Long2'
p116
sg15
(lp117
sg17
(lp118
sg19
(lp119
sg21
I0
sba(iArchitecture
Entity
p120
(dp121
g11
(lp122
sg13
S'android.renderscript.Long3'
p123
sg15
(lp124
sg17
(lp125
sg19
(lp126
sg21
I0
sba(iArchitecture
Entity
p127
(dp128
g11
(lp129
sg13
S'android.renderscript.Long4'
p130
sg15
(lp131
sg17
(lp132
sg19
(lp133
sg21
I0
sba(iArchitecture
Entity
p134
(dp135
g11
(lp136
sg13
S'android.renderscript.Short2'
p137
sg15
(lp138
sg17
(lp139
sg19
(lp140
sg21
I0
sba(iArchitecture
Entity
p141
(dp142
g11
(lp143
sg13
S'android.renderscript.Short3'
p144
sg15
(lp145
sg17
(lp146
sg19
(lp147
sg21
I0
sba(iArchitecture
Entity
p148
(dp149
g11
(lp150
sg13
S'android.renderscript.Short4'
p151
sg15
(lp152
sg17
(lp153
sg19
(lp154
sg21
I0
sbasg22
(lp155
g32
ag39
ag46
ag53
ag60
ag67
ag74
ag81
ag88
ag95
ag102
ag109
ag116
ag123
ag130
ag137
ag144
ag151
asg21
I0
sg24
S'1110'
p156
sba(iArchitecture
Cluster
p157
(dp158
g7
(lp159
(iArchitecture
Entity
p160
(dp161
g11
(lp162
sg13
S'android.os.BatteryStats'
p163
sg15
(lp164
sg17
(lp165
sg19
(lp166
sg21
I0
sba(iArchitecture
Entity
p167
(dp168
g11
(lp169
sg13
S'android.os.BatteryStats$1'
p170
sg15
(lp171
sg17
(lp172
sg19
(lp173
sg21
I0
sba(iArchitecture
Entity
p174
(dp175
g11
(lp176
sg13
S'android.os.BatteryStats$BitDescription'
p177
sg15
(lp178
sg17
(lp179
sg19
(lp180
sg21
I0
sba(iArchitecture
Entity
p181
(dp182
g11
(lp183
sg13
S'android.os.BatteryStats$Counter'
p184
sg15
(lp185
sg17
(lp186
sg19
(lp187
sg21
I0
sba(iArchitecture
Entity
p188
(dp189
g11
(lp190
sg13
S'android.os.BatteryStats$DailyItem'
p191
sg15
(lp192
sg17
(lp193
sg19
(lp194
sg21
I0
sba(iArchitecture
Entity
p195
(dp196
g11
(lp197
sg13
S'android.os.BatteryStats$HistoryEventTracker'
p198
sg15
(lp199
sg17
(lp200
sg19
(lp201
sg21
I0
sba(iArchitecture
Entity
p202
(dp203
g11
(lp204
sg13
S'android.os.BatteryStats$HistoryItem'
p205
sg15
(lp206
sg17
(lp207
sg19
(lp208
sg21
I0
sba(iArchitecture
Entity
p209
(dp210
g11
(lp211
sg13
S'android.os.BatteryStats$HistoryPrinter'
p212
sg15
(lp213
sg17
(lp214
sg19
(lp215
sg21
I0
sba(iArchitecture
Entity
p216
(dp217
g11
(lp218
sg13
S'android.os.BatteryStats$HistoryStepDetails'
p219
sg15
(lp220
sg17
(lp221
sg19
(lp222
sg21
I0
sba(iArchitecture
Entity
p223
(dp224
g11
(lp225
sg13
S'android.os.BatteryStats$HistoryTag'
p226
sg15
(lp227
sg17
(lp228
sg19
(lp229
sg21
I0
sba(iArchitecture
Entity
p230
(dp231
g11
(lp232
sg13
S'android.os.BatteryStats$LevelStepTracker'
p233
sg15
(lp234
sg17
(lp235
sg19
(lp236
sg21
I0
sba(iArchitecture
Entity
p237
(dp238
g11
(lp239
sg13
S'android.os.BatteryStats$LongCounter'
p240
sg15
(lp241
sg17
(lp242
sg19
(lp243
sg21
I0
sba(iArchitecture
Entity
p244
(dp245
g11
(lp246
sg13
S'android.os.BatteryStats$PackageChange'
p247
sg15
(lp248
sg17
(lp249
sg19
(lp250
sg21
I0
sba(iArchitecture
Entity
p251
(dp252
g11
(lp253
sg13
S'android.os.BatteryStats$Timer'
p254
sg15
(lp255
sg17
(lp256
sg19
(lp257
sg21
I0
sba(iArchitecture
Entity
p258
(dp259
g11
(lp260
sg13
S'android.os.BatteryStats$TimerEntry'
p261
sg15
(lp262
sg17
(lp263
sg19
(lp264
sg21
I0
sba(iArchitecture
Entity
p265
(dp266
g11
(lp267
sg13
S'android.os.BatteryStats$Uid'
p268
sg15
(lp269
sg17
(lp270
sg19
(lp271
sg21
I0
sba(iArchitecture
Entity
p272
(dp273
g11
(lp274
sg13
S'android.os.BatteryStats$Uid$Pid'
p275
sg15
(lp276
sg17
(lp277
sg19
(lp278
sg21
I0
sba(iArchitecture
Entity
p279
(dp280
g11
(lp281
sg13
S'android.os.BatteryStats$Uid$Pkg'
p282
sg15
(lp283
sg17
(lp284
sg19
(lp285
sg21
I0
sba(iArchitecture
Entity
p286
(dp287
g11
(lp288
sg13
S'android.os.BatteryStats$Uid$Pkg$Serv'
p289
sg15
(lp290
sg17
(lp291
sg19
(lp292
sg21
I0
sba(iArchitecture
Entity
p293
(dp294
g11
(lp295
sg13
S'android.os.BatteryStats$Uid$Proc'
p296
sg15
(lp297
sg17
(lp298
sg19
(lp299
sg21
I0
sba(iArchitecture
Entity
p300
(dp301
g11
(lp302
sg13
S'android.os.BatteryStats$Uid$Proc$ExcessivePower'
p303
sg15
(lp304
sg17
(lp305
sg19
(lp306
sg21
I0
sba(iArchitecture
Entity
p307
(dp308
g11
(lp309
sg13
S'android.os.BatteryStats$Uid$Sensor'
p310
sg15
(lp311
sg17
(lp312
sg19
(lp313
sg21
I0
sba(iArchitecture
Entity
p314
(dp315
g11
(lp316
sg13
S'android.os.BatteryStats$Uid$Wakelock'
p317
sg15
(lp318
sg17
(lp319
sg19
(lp320
sg21
I0
sba(iArchitecture
Entity
p321
(dp322
g11
(lp323
sg13
S'com.android.internal.os.BatteryStatsImpl'
p324
sg15
(lp325
sg17
(lp326
sg19
(lp327
sg21
I0
sba(iArchitecture
Entity
p328
(dp329
g11
(lp330
sg13
S'com.android.internal.os.BatteryStatsImpl$1'
p331
sg15
(lp332
sg17
(lp333
sg19
(lp334
sg21
I0
sba(iArchitecture
Entity
p335
(dp336
g11
(lp337
sg13
S'com.android.internal.os.BatteryStatsImpl$2'
p338
sg15
(lp339
sg17
(lp340
sg19
(lp341
sg21
I0
sba(iArchitecture
Entity
p342
(dp343
g11
(lp344
sg13
S'com.android.internal.os.BatteryStatsImpl$3'
p345
sg15
(lp346
sg17
(lp347
sg19
(lp348
sg21
I0
sba(iArchitecture
Entity
p349
(dp350
g11
(lp351
sg13
S'com.android.internal.os.BatteryStatsImpl$4'
p352
sg15
(lp353
sg17
(lp354
sg19
(lp355
sg21
I0
sba(iArchitecture
Entity
p356
(dp357
g11
(lp358
sg13
S'com.android.internal.os.BatteryStatsImpl$5'
p359
sg15
(lp360
sg17
(lp361
sg19
(lp362
sg21
I0
sba(iArchitecture
Entity
p363
(dp364
g11
(lp365
sg13
S'com.android.internal.os.BatteryStatsImpl$BatchTimer'
p366
sg15
(lp367
sg17
(lp368
sg19
(lp369
sg21
I0
sba(iArchitecture
Entity
p370
(dp371
g11
(lp372
sg13
S'com.android.internal.os.BatteryStatsImpl$BatteryCallback'
p373
sg15
(lp374
sg17
(lp375
sg19
(lp376
sg21
I0
sba(iArchitecture
Entity
p377
(dp378
g11
(lp379
sg13
S'com.android.internal.os.BatteryStatsImpl$Counter'
p380
sg15
(lp381
sg17
(lp382
sg19
(lp383
sg21
I0
sba(iArchitecture
Entity
p384
(dp385
g11
(lp386
sg13
S'com.android.internal.os.BatteryStatsImpl$ExternalStatsSync'
p387
sg15
(lp388
sg17
(lp389
sg19
(lp390
sg21
I0
sba(iArchitecture
Entity
p391
(dp392
g11
(lp393
sg13
S'com.android.internal.os.BatteryStatsImpl$LongSamplingCounter'
p394
sg15
(lp395
sg17
(lp396
sg19
(lp397
sg21
I0
sba(iArchitecture
Entity
p398
(dp399
g11
(lp400
sg13
S'com.android.internal.os.BatteryStatsImpl$MyHandler'
p401
sg15
(lp402
sg17
(lp403
sg19
(lp404
sg21
I0
sba(iArchitecture
Entity
p405
(dp406
g11
(lp407
sg13
S'com.android.internal.os.BatteryStatsImpl$OverflowArrayMap'
p408
sg15
(lp409
sg17
(lp410
sg19
(lp411
sg21
I0
sba(iArchitecture
Entity
p412
(dp413
g11
(lp414
sg13
S'com.android.internal.os.BatteryStatsImpl$SamplingTimer'
p415
sg15
(lp416
sg17
(lp417
sg19
(lp418
sg21
I0
sba(iArchitecture
Entity
p419
(dp420
g11
(lp421
sg13
S'com.android.internal.os.BatteryStatsImpl$StopwatchTimer'
p422
sg15
(lp423
sg17
(lp424
sg19
(lp425
sg21
I0
sba(iArchitecture
Entity
p426
(dp427
g11
(lp428
sg13
S'com.android.internal.os.BatteryStatsImpl$TimeBase'
p429
sg15
(lp430
sg17
(lp431
sg19
(lp432
sg21
I0
sba(iArchitecture
Entity
p433
(dp434
g11
(lp435
sg13
S'com.android.internal.os.BatteryStatsImpl$TimeBaseObs'
p436
sg15
(lp437
sg17
(lp438
sg19
(lp439
sg21
I0
sba(iArchitecture
Entity
p440
(dp441
g11
(lp442
sg13
S'com.android.internal.os.BatteryStatsImpl$Timer'
p443
sg15
(lp444
sg17
(lp445
sg19
(lp446
sg21
I0
sba(iArchitecture
Entity
p447
(dp448
g11
(lp449
sg13
S'com.android.internal.os.BatteryStatsImpl$Uid'
p450
sg15
(lp451
sg17
(lp452
sg19
(lp453
sg21
I0
sba(iArchitecture
Entity
p454
(dp455
g11
(lp456
sg13
S'com.android.internal.os.BatteryStatsImpl$Uid$1'
p457
sg15
(lp458
sg17
(lp459
sg19
(lp460
sg21
I0
sba(iArchitecture
Entity
p461
(dp462
g11
(lp463
sg13
S'com.android.internal.os.BatteryStatsImpl$Uid$2'
p464
sg15
(lp465
sg17
(lp466
sg19
(lp467
sg21
I0
sba(iArchitecture
Entity
p468
(dp469
g11
(lp470
sg13
S'com.android.internal.os.BatteryStatsImpl$Uid$3'
p471
sg15
(lp472
sg17
(lp473
sg19
(lp474
sg21
I0
sba(iArchitecture
Entity
p475
(dp476
g11
(lp477
sg13
S'com.android.internal.os.BatteryStatsImpl$Uid$Pkg'
p478
sg15
(lp479
sg17
(lp480
sg19
(lp481
sg21
I0
sba(iArchitecture
Entity
p482
(dp483
g11
(lp484
sg13
S'com.android.internal.os.BatteryStatsImpl$Uid$Pkg$Serv'
p485
sg15
(lp486
sg17
(lp487
sg19
(lp488
sg21
I0
sba(iArchitecture
Entity
p489
(dp490
g11
(lp491
sg13
S'com.android.internal.os.BatteryStatsImpl$Uid$Proc'
p492
sg15
(lp493
sg17
(lp494
sg19
(lp495
sg21
I0
sba(iArchitecture
Entity
p496
(dp497
g11
(lp498
sg13
S'com.android.internal.os.BatteryStatsImpl$Uid$Sensor'
p499
sg15
(lp500
sg17
(lp501
sg19
(lp502
sg21
I0
sba(iArchitecture
Entity
p503
(dp504
g11
(lp505
sg13
S'com.android.internal.os.BatteryStatsImpl$Uid$Wakelock'
p506
sg15
(lp507
sg17
(lp508
sg19
(lp509
sg21
I0
sbasg22
(lp510
g163
ag170
ag177
ag184
ag191
ag198
ag205
ag212
ag219
ag226
ag233
ag240
ag247
ag254
ag261
ag268
ag275
ag282
ag289
ag296
ag303
ag310
ag317
ag324
ag331
ag338
ag345
ag352
ag359
ag366
ag373
ag380
ag387
ag394
ag401
ag408
ag415
ag422
ag429
ag436
ag443
ag450
ag457
ag464
ag471
ag478
ag485
ag492
ag499
ag506
asg21
I0
sg24
S'1111'
p511
sba(iArchitecture
Cluster
p512
(dp513
g7
(lp514
(iArchitecture
Entity
p515
(dp516
g11
(lp517
sg13
S'android.nfc.cardemulation.HostApduService'
p518
sg15
(lp519
sg17
(lp520
sg19
(lp521
sg21
I0
sba(iArchitecture
Entity
p522
(dp523
g11
(lp524
sg13
S'android.nfc.cardemulation.HostApduService$MsgHandler'
p525
sg15
(lp526
sg17
(lp527
sg19
(lp528
sg21
I0
sba(iArchitecture
Entity
p529
(dp530
g11
(lp531
sg13
S'android.nfc.cardemulation.OffHostApduService'
p532
sg15
(lp533
sg17
(lp534
sg19
(lp535
sg21
I0
sbasg22
(lp536
g518
ag525
ag532
asg21
I0
sg24
S'1112'
p537
sba(iArchitecture
Cluster
p538
(dp539
g7
(lp540
(iArchitecture
Entity
p541
(dp542
g11
(lp543
sg13
S'android.filterfw.core.AsyncRunner'
p544
sg15
(lp545
sg17
(lp546
sg19
(lp547
sg21
I0
sba(iArchitecture
Entity
p548
(dp549
g11
(lp550
sg13
S'android.filterfw.core.AsyncRunner$AsyncRunnerTask'
p551
sg15
(lp552
sg17
(lp553
sg19
(lp554
sg21
I0
sba(iArchitecture
Entity
p555
(dp556
g11
(lp557
sg13
S'android.filterfw.core.AsyncRunner$RunnerResult'
p558
sg15
(lp559
sg17
(lp560
sg19
(lp561
sg21
I0
sba(iArchitecture
Entity
p562
(dp563
g11
(lp564
sg13
S'android.filterfw.core.SyncRunner'
p565
sg15
(lp566
sg17
(lp567
sg19
(lp568
sg21
I0
sba(iArchitecture
Entity
p569
(dp570
g11
(lp571
sg13
S'android.filterfw.core.SyncRunner$1'
p572
sg15
(lp573
sg17
(lp574
sg19
(lp575
sg21
I0
sbasg22
(lp576
g544
ag551
ag558
ag565
ag572
asg21
I0
sg24
S'1113'
p577
sba(iArchitecture
Cluster
p578
(dp579
g7
(lp580
(iArchitecture
Entity
p581
(dp582
g11
(lp583
sg13
S'android.net.dhcp.DhcpAckPacket'
p584
sg15
(lp585
sg17
(lp586
sg19
(lp587
sg21
I0
sba(iArchitecture
Entity
p588
(dp589
g11
(lp590
sg13
S'android.net.dhcp.DhcpDeclinePacket'
p591
sg15
(lp592
sg17
(lp593
sg19
(lp594
sg21
I0
sba(iArchitecture
Entity
p595
(dp596
g11
(lp597
sg13
S'android.net.dhcp.DhcpDiscoverPacket'
p598
sg15
(lp599
sg17
(lp600
sg19
(lp601
sg21
I0
sba(iArchitecture
Entity
p602
(dp603
g11
(lp604
sg13
S'android.net.dhcp.DhcpInformPacket'
p605
sg15
(lp606
sg17
(lp607
sg19
(lp608
sg21
I0
sba(iArchitecture
Entity
p609
(dp610
g11
(lp611
sg13
S'android.net.dhcp.DhcpNakPacket'
p612
sg15
(lp613
sg17
(lp614
sg19
(lp615
sg21
I0
sba(iArchitecture
Entity
p616
(dp617
g11
(lp618
sg13
S'android.net.dhcp.DhcpOfferPacket'
p619
sg15
(lp620
sg17
(lp621
sg19
(lp622
sg21
I0
sba(iArchitecture
Entity
p623
(dp624
g11
(lp625
sg13
S'android.net.dhcp.DhcpRequestPacket'
p626
sg15
(lp627
sg17
(lp628
sg19
(lp629
sg21
I0
sbasg22
(lp630
g584
ag591
ag598
ag605
ag612
ag619
ag626
asg21
I0
sg24
S'1114'
p631
sba(iArchitecture
Cluster
p632
(dp633
g7
(lp634
(iArchitecture
Entity
p635
(dp636
g11
(lp637
sg13
S'com.android.server.location.MockProvider'
p638
sg15
(lp639
sg17
(lp640
sg19
(lp641
sg21
I0
sba(iArchitecture
Entity
p642
(dp643
g11
(lp644
sg13
S'com.android.server.location.PassiveProvider'
p645
sg15
(lp646
sg17
(lp647
sg19
(lp648
sg21
I0
sbasg22
(lp649
g638
ag645
asg21
I0
sg24
S'1115'
p650
sba(iArchitecture
Cluster
p651
(dp652
g7
(lp653
(iArchitecture
Entity
p654
(dp655
g11
(lp656
sg13
S'android.telephony.CellSignalStrengthGsm'
p657
sg15
(lp658
sg17
(lp659
sg19
(lp660
sg21
I0
sba(iArchitecture
Entity
p661
(dp662
g11
(lp663
sg13
S'android.telephony.CellSignalStrengthGsm$1'
p664
sg15
(lp665
sg17
(lp666
sg19
(lp667
sg21
I0
sba(iArchitecture
Entity
p668
(dp669
g11
(lp670
sg13
S'android.telephony.CellSignalStrengthWcdma'
p671
sg15
(lp672
sg17
(lp673
sg19
(lp674
sg21
I0
sba(iArchitecture
Entity
p675
(dp676
g11
(lp677
sg13
S'android.telephony.CellSignalStrengthWcdma$1'
p678
sg15
(lp679
sg17
(lp680
sg19
(lp681
sg21
I0
sbasg22
(lp682
g657
ag664
ag671
ag678
asg21
I0
sg24
S'1116'
p683
sba(iArchitecture
Cluster
p684
(dp685
g7
(lp686
(iArchitecture
Entity
p687
(dp688
g11
(lp689
sg13
S'android.media.AudioGain'
p690
sg15
(lp691
sg17
(lp692
sg19
(lp693
sg21
I0
sba(iArchitecture
Entity
p694
(dp695
g11
(lp696
sg13
S'android.media.AudioGainConfig'
p697
sg15
(lp698
sg17
(lp699
sg19
(lp700
sg21
I0
sbasg22
(lp701
g690
ag697
asg21
I0
sg24
S'1117'
p702
sba(iArchitecture
Cluster
p703
(dp704
g7
(lp705
(iArchitecture
Entity
p706
(dp707
g11
(lp708
sg13
S'android.transition.ChangeImageTransform'
p709
sg15
(lp710
sg17
(lp711
sg19
(lp712
sg21
I0
sba(iArchitecture
Entity
p713
(dp714
g11
(lp715
sg13
S'android.transition.ChangeImageTransform$1'
p716
sg15
(lp717
sg17
(lp718
sg19
(lp719
sg21
I0
sba(iArchitecture
Entity
p720
(dp721
g11
(lp722
sg13
S'android.transition.ChangeImageTransform$2'
p723
sg15
(lp724
sg17
(lp725
sg19
(lp726
sg21
I0
sba(iArchitecture
Entity
p727
(dp728
g11
(lp729
sg13
S'android.transition.TransitionUtils'
p730
sg15
(lp731
sg17
(lp732
sg19
(lp733
sg21
I0
sba(iArchitecture
Entity
p734
(dp735
g11
(lp736
sg13
S'android.transition.TransitionUtils$MatrixEvaluator'
p737
sg15
(lp738
sg17
(lp739
sg19
(lp740
sg21
I0
sbasg22
(lp741
g709
ag716
ag723
ag730
ag737
asg21
I0
sg24
S'1118'
p742
sba(iArchitecture
Cluster
p743
(dp744
g7
(lp745
(iArchitecture
Entity
p746
(dp747
g11
(lp748
sg13
S'android.renderscript.ScriptIntrinsic3DLUT'
p749
sg15
(lp750
sg17
(lp751
sg19
(lp752
sg21
I0
sba(iArchitecture
Entity
p753
(dp754
g11
(lp755
sg13
S'android.renderscript.ScriptIntrinsicBlur'
p756
sg15
(lp757
sg17
(lp758
sg19
(lp759
sg21
I0
sba(iArchitecture
Entity
p760
(dp761
g11
(lp762
sg13
S'android.renderscript.ScriptIntrinsicConvolve3x3'
p763
sg15
(lp764
sg17
(lp765
sg19
(lp766
sg21
I0
sba(iArchitecture
Entity
p767
(dp768
g11
(lp769
sg13
S'android.renderscript.ScriptIntrinsicConvolve5x5'
p770
sg15
(lp771
sg17
(lp772
sg19
(lp773
sg21
I0
sba(iArchitecture
Entity
p774
(dp775
g11
(lp776
sg13
S'android.renderscript.ScriptIntrinsicHistogram'
p777
sg15
(lp778
sg17
(lp779
sg19
(lp780
sg21
I0
sba(iArchitecture
Entity
p781
(dp782
g11
(lp783
sg13
S'android.renderscript.ScriptIntrinsicLUT'
p784
sg15
(lp785
sg17
(lp786
sg19
(lp787
sg21
I0
sba(iArchitecture
Entity
p788
(dp789
g11
(lp790
sg13
S'android.renderscript.ScriptIntrinsicResize'
p791
sg15
(lp792
sg17
(lp793
sg19
(lp794
sg21
I0
sba(iArchitecture
Entity
p795
(dp796
g11
(lp797
sg13
S'android.renderscript.ScriptIntrinsicYuvToRGB'
p798
sg15
(lp799
sg17
(lp800
sg19
(lp801
sg21
I0
sbasg22
(lp802
g749
ag756
ag763
ag770
ag777
ag784
ag791
ag798
asg21
I0
sg24
S'1119'
p803
sbasS'target_sub'
p804
S'111'
p805
sg22
(lp806
sS'is_component_arch'
p807
I01
sg24
S'6.0.0_r1'
p808
sba.