(lp0
(iArchitecture
Architecture
p1
(dp2
S'clusters'
p3
(lp4
(iArchitecture
Cluster
p5
(dp6
S'entities'
p7
(lp8
(iArchitecture
Entity
p9
(dp10
S'issue_ids'
p11
(lp12
sS'name'
p13
S'android.net.http.X509TrustManagerExtensions'
p14
sS'descs'
p15
(lp16
sS'labels'
p17
(lp18
sS'titles'
p19
(lp20
sS'change'
p21
I0
sbasS'classes'
p22
(lp23
g14
asg21
I0
sS'label'
p24
S'101'
p25
sba(iArchitecture
Cluster
p26
(dp27
g7
(lp28
(iArchitecture
Entity
p29
(dp30
g11
(lp31
sg13
S'com.android.internal.inputmethod.InputMethodSubtypeSwitchingController'
p32
sg15
(lp33
sg17
(lp34
sg19
(lp35
sg21
I0
sba(iArchitecture
Entity
p36
(dp37
g11
(lp38
sg13
S'com.android.internal.inputmethod.InputMethodSubtypeSwitchingController$ControllerImpl'
p39
sg15
(lp40
sg17
(lp41
sg19
(lp42
sg21
I0
sba(iArchitecture
Entity
p43
(dp44
g11
(lp45
sg13
S'com.android.internal.inputmethod.InputMethodSubtypeSwitchingController$DynamicRotationList'
p46
sg15
(lp47
sg17
(lp48
sg19
(lp49
sg21
I0
sba(iArchitecture
Entity
p50
(dp51
g11
(lp52
sg13
S'com.android.internal.inputmethod.InputMethodSubtypeSwitchingController$ImeSubtypeListItem'
p53
sg15
(lp54
sg17
(lp55
sg19
(lp56
sg21
I0
sba(iArchitecture
Entity
p57
(dp58
g11
(lp59
sg13
S'com.android.internal.inputmethod.InputMethodSubtypeSwitchingController$InputMethodAndSubtypeList'
p60
sg15
(lp61
sg17
(lp62
sg19
(lp63
sg21
I0
sba(iArchitecture
Entity
p64
(dp65
g11
(lp66
sg13
S'com.android.internal.inputmethod.InputMethodSubtypeSwitchingController$InputMethodAndSubtypeList$1'
p67
sg15
(lp68
sg17
(lp69
sg19
(lp70
sg21
I0
sba(iArchitecture
Entity
p71
(dp72
g11
(lp73
sg13
S'com.android.internal.inputmethod.InputMethodSubtypeSwitchingController$StaticRotationList'
p74
sg15
(lp75
sg17
(lp76
sg19
(lp77
sg21
I0
sbasg22
(lp78
g32
ag39
ag46
ag53
ag60
ag67
ag74
asg21
I0
sg24
S'1010'
p79
sba(iArchitecture
Cluster
p80
(dp81
g7
(lp82
(iArchitecture
Entity
p83
(dp84
g11
(lp85
sg13
S'android.filterfw.io.TextGraphReader'
p86
sg15
(lp87
sg17
(lp88
sg19
(lp89
sg21
I0
sba(iArchitecture
Entity
p90
(dp91
g11
(lp92
sg13
S'android.filterfw.io.TextGraphReader$AddLibraryCommand'
p93
sg15
(lp94
sg17
(lp95
sg19
(lp96
sg21
I0
sba(iArchitecture
Entity
p97
(dp98
g11
(lp99
sg13
S'android.filterfw.io.TextGraphReader$AllocateFilterCommand'
p100
sg15
(lp101
sg17
(lp102
sg19
(lp103
sg21
I0
sba(iArchitecture
Entity
p104
(dp105
g11
(lp106
sg13
S'android.filterfw.io.TextGraphReader$Command'
p107
sg15
(lp108
sg17
(lp109
sg19
(lp110
sg21
I0
sba(iArchitecture
Entity
p111
(dp112
g11
(lp113
sg13
S'android.filterfw.io.TextGraphReader$ConnectCommand'
p114
sg15
(lp115
sg17
(lp116
sg19
(lp117
sg21
I0
sba(iArchitecture
Entity
p118
(dp119
g11
(lp120
sg13
S'android.filterfw.io.TextGraphReader$ImportPackageCommand'
p121
sg15
(lp122
sg17
(lp123
sg19
(lp124
sg21
I0
sba(iArchitecture
Entity
p125
(dp126
g11
(lp127
sg13
S'android.filterfw.io.TextGraphReader$InitFilterCommand'
p128
sg15
(lp129
sg17
(lp130
sg19
(lp131
sg21
I0
sbasg22
(lp132
g86
ag93
ag100
ag107
ag114
ag121
ag128
asg21
I0
sg24
S'1011'
p133
sba(iArchitecture
Cluster
p134
(dp135
g7
(lp136
(iArchitecture
Entity
p137
(dp138
g11
(lp139
sg13
S'android.widget.Filter'
p140
sg15
(lp141
sg17
(lp142
sg19
(lp143
sg21
I0
sba(iArchitecture
Entity
p144
(dp145
g11
(lp146
sg13
S'android.widget.Filter$Delayer'
p147
sg15
(lp148
sg17
(lp149
sg19
(lp150
sg21
I0
sba(iArchitecture
Entity
p151
(dp152
g11
(lp153
sg13
S'android.widget.Filter$FilterListener'
p154
sg15
(lp155
sg17
(lp156
sg19
(lp157
sg21
I0
sba(iArchitecture
Entity
p158
(dp159
g11
(lp160
sg13
S'android.widget.Filter$FilterResults'
p161
sg15
(lp162
sg17
(lp163
sg19
(lp164
sg21
I0
sba(iArchitecture
Entity
p165
(dp166
g11
(lp167
sg13
S'android.widget.Filter$RequestArguments'
p168
sg15
(lp169
sg17
(lp170
sg19
(lp171
sg21
I0
sba(iArchitecture
Entity
p172
(dp173
g11
(lp174
sg13
S'android.widget.Filter$RequestHandler'
p175
sg15
(lp176
sg17
(lp177
sg19
(lp178
sg21
I0
sba(iArchitecture
Entity
p179
(dp180
g11
(lp181
sg13
S'android.widget.Filter$ResultsHandler'
p182
sg15
(lp183
sg17
(lp184
sg19
(lp185
sg21
I0
sbasg22
(lp186
g140
ag147
ag154
ag161
ag168
ag175
ag182
asg21
I0
sg24
S'1012'
p187
sba(iArchitecture
Cluster
p188
(dp189
g7
(lp190
(iArchitecture
Entity
p191
(dp192
g11
(lp193
sg13
S'android.renderscript.Mesh'
p194
sg15
(lp195
sg17
(lp196
sg19
(lp197
sg21
I0
sba(iArchitecture
Entity
p198
(dp199
g11
(lp200
sg13
S'android.renderscript.Mesh$AllocationBuilder'
p201
sg15
(lp202
sg17
(lp203
sg19
(lp204
sg21
I0
sba(iArchitecture
Entity
p205
(dp206
g11
(lp207
sg13
S'android.renderscript.Mesh$AllocationBuilder$Entry'
p208
sg15
(lp209
sg17
(lp210
sg19
(lp211
sg21
I0
sba(iArchitecture
Entity
p212
(dp213
g11
(lp214
sg13
S'android.renderscript.Mesh$Builder'
p215
sg15
(lp216
sg17
(lp217
sg19
(lp218
sg21
I0
sba(iArchitecture
Entity
p219
(dp220
g11
(lp221
sg13
S'android.renderscript.Mesh$Builder$Entry'
p222
sg15
(lp223
sg17
(lp224
sg19
(lp225
sg21
I0
sba(iArchitecture
Entity
p226
(dp227
g11
(lp228
sg13
S'android.renderscript.Mesh$Primitive'
p229
sg15
(lp230
sg17
(lp231
sg19
(lp232
sg21
I0
sba(iArchitecture
Entity
p233
(dp234
g11
(lp235
sg13
S'android.renderscript.Mesh$TriangleMeshBuilder'
p236
sg15
(lp237
sg17
(lp238
sg19
(lp239
sg21
I0
sbasg22
(lp240
g194
ag201
ag208
ag215
ag222
ag229
ag236
asg21
I0
sg24
S'1013'
p241
sba(iArchitecture
Cluster
p242
(dp243
g7
(lp244
(iArchitecture
Entity
p245
(dp246
g11
(lp247
sg13
S'android.view.Choreographer'
p248
sg15
(lp249
sg17
(lp250
sg19
(lp251
sg21
I0
sba(iArchitecture
Entity
p252
(dp253
g11
(lp254
sg13
S'android.view.Choreographer$1'
p255
sg15
(lp256
sg17
(lp257
sg19
(lp258
sg21
I0
sba(iArchitecture
Entity
p259
(dp260
g11
(lp261
sg13
S'android.view.Choreographer$2'
p262
sg15
(lp263
sg17
(lp264
sg19
(lp265
sg21
I0
sba(iArchitecture
Entity
p266
(dp267
g11
(lp268
sg13
S'android.view.Choreographer$CallbackQueue'
p269
sg15
(lp270
sg17
(lp271
sg19
(lp272
sg21
I0
sba(iArchitecture
Entity
p273
(dp274
g11
(lp275
sg13
S'android.view.Choreographer$CallbackRecord'
p276
sg15
(lp277
sg17
(lp278
sg19
(lp279
sg21
I0
sba(iArchitecture
Entity
p280
(dp281
g11
(lp282
sg13
S'android.view.Choreographer$FrameCallback'
p283
sg15
(lp284
sg17
(lp285
sg19
(lp286
sg21
I0
sba(iArchitecture
Entity
p287
(dp288
g11
(lp289
sg13
S'android.view.Choreographer$FrameDisplayEventReceiver'
p290
sg15
(lp291
sg17
(lp292
sg19
(lp293
sg21
I0
sba(iArchitecture
Entity
p294
(dp295
g11
(lp296
sg13
S'android.view.Choreographer$FrameHandler'
p297
sg15
(lp298
sg17
(lp299
sg19
(lp300
sg21
I0
sbasg22
(lp301
g248
ag255
ag262
ag269
ag276
ag283
ag290
ag297
asg21
I0
sg24
S'1014'
p302
sba(iArchitecture
Cluster
p303
(dp304
g7
(lp305
(iArchitecture
Entity
p306
(dp307
g11
(lp308
sg13
S'android.service.textservice.SpellCheckerService'
p309
sg15
(lp310
sg17
(lp311
sg19
(lp312
sg21
I0
sba(iArchitecture
Entity
p313
(dp314
g11
(lp315
sg13
S'android.service.textservice.SpellCheckerService$InternalISpellCheckerSession'
p316
sg15
(lp317
sg17
(lp318
sg19
(lp319
sg21
I0
sba(iArchitecture
Entity
p320
(dp321
g11
(lp322
sg13
S'android.service.textservice.SpellCheckerService$SentenceLevelAdapter'
p323
sg15
(lp324
sg17
(lp325
sg19
(lp326
sg21
I0
sba(iArchitecture
Entity
p327
(dp328
g11
(lp329
sg13
S'android.service.textservice.SpellCheckerService$SentenceLevelAdapter$SentenceTextInfoParams'
p330
sg15
(lp331
sg17
(lp332
sg19
(lp333
sg21
I0
sba(iArchitecture
Entity
p334
(dp335
g11
(lp336
sg13
S'android.service.textservice.SpellCheckerService$SentenceLevelAdapter$SentenceWordItem'
p337
sg15
(lp338
sg17
(lp339
sg19
(lp340
sg21
I0
sba(iArchitecture
Entity
p341
(dp342
g11
(lp343
sg13
S'android.service.textservice.SpellCheckerService$Session'
p344
sg15
(lp345
sg17
(lp346
sg19
(lp347
sg21
I0
sba(iArchitecture
Entity
p348
(dp349
g11
(lp350
sg13
S'android.service.textservice.SpellCheckerService$SpellCheckerServiceBinder'
p351
sg15
(lp352
sg17
(lp353
sg19
(lp354
sg21
I0
sbasg22
(lp355
g309
ag316
ag323
ag330
ag337
ag344
ag351
asg21
I0
sg24
S'1015'
p356
sba(iArchitecture
Cluster
p357
(dp358
g7
(lp359
(iArchitecture
Entity
p360
(dp361
g11
(lp362
sg13
S'android.view.GestureDetector'
p363
sg15
(lp364
sg17
(lp365
sg19
(lp366
sg21
I0
sba(iArchitecture
Entity
p367
(dp368
g11
(lp369
sg13
S'android.view.GestureDetector$GestureHandler'
p370
sg15
(lp371
sg17
(lp372
sg19
(lp373
sg21
I0
sba(iArchitecture
Entity
p374
(dp375
g11
(lp376
sg13
S'android.view.GestureDetector$OnContextClickListener'
p377
sg15
(lp378
sg17
(lp379
sg19
(lp380
sg21
I0
sba(iArchitecture
Entity
p381
(dp382
g11
(lp383
sg13
S'android.view.GestureDetector$OnDoubleTapListener'
p384
sg15
(lp385
sg17
(lp386
sg19
(lp387
sg21
I0
sba(iArchitecture
Entity
p388
(dp389
g11
(lp390
sg13
S'android.view.GestureDetector$OnGestureListener'
p391
sg15
(lp392
sg17
(lp393
sg19
(lp394
sg21
I0
sba(iArchitecture
Entity
p395
(dp396
g11
(lp397
sg13
S'android.view.GestureDetector$SimpleOnGestureListener'
p398
sg15
(lp399
sg17
(lp400
sg19
(lp401
sg21
I0
sbasg22
(lp402
g363
ag370
ag377
ag384
ag391
ag398
asg21
I0
sg24
S'1016'
p403
sba(iArchitecture
Cluster
p404
(dp405
g7
(lp406
(iArchitecture
Entity
p407
(dp408
g11
(lp409
sg13
S'android.media.MediaCodecInfo'
p410
sg15
(lp411
sg17
(lp412
sg19
(lp413
sg21
I0
sba(iArchitecture
Entity
p414
(dp415
g11
(lp416
sg13
S'android.media.MediaCodecInfo$AudioCapabilities'
p417
sg15
(lp418
sg17
(lp419
sg19
(lp420
sg21
I0
sba(iArchitecture
Entity
p421
(dp422
g11
(lp423
sg13
S'android.media.MediaCodecInfo$CodecCapabilities'
p424
sg15
(lp425
sg17
(lp426
sg19
(lp427
sg21
I0
sba(iArchitecture
Entity
p428
(dp429
g11
(lp430
sg13
S'android.media.MediaCodecInfo$CodecProfileLevel'
p431
sg15
(lp432
sg17
(lp433
sg19
(lp434
sg21
I0
sba(iArchitecture
Entity
p435
(dp436
g11
(lp437
sg13
S'android.media.MediaCodecInfo$EncoderCapabilities'
p438
sg15
(lp439
sg17
(lp440
sg19
(lp441
sg21
I0
sba(iArchitecture
Entity
p442
(dp443
g11
(lp444
sg13
S'android.media.MediaCodecInfo$Feature'
p445
sg15
(lp446
sg17
(lp447
sg19
(lp448
sg21
I0
sba(iArchitecture
Entity
p449
(dp450
g11
(lp451
sg13
S'android.media.MediaCodecInfo$VideoCapabilities'
p452
sg15
(lp453
sg17
(lp454
sg19
(lp455
sg21
I0
sbasg22
(lp456
g410
ag417
ag424
ag431
ag438
ag445
ag452
asg21
I0
sg24
S'1017'
p457
sba(iArchitecture
Cluster
p458
(dp459
g7
(lp460
(iArchitecture
Entity
p461
(dp462
g11
(lp463
sg13
S'com.android.server.Watchdog'
p464
sg15
(lp465
sg17
(lp466
sg19
(lp467
sg21
I0
sba(iArchitecture
Entity
p468
(dp469
g11
(lp470
sg13
S'com.android.server.Watchdog$1'
p471
sg15
(lp472
sg17
(lp473
sg19
(lp474
sg21
I0
sba(iArchitecture
Entity
p475
(dp476
g11
(lp477
sg13
S'com.android.server.Watchdog$BinderThreadMonitor'
p478
sg15
(lp479
sg17
(lp480
sg19
(lp481
sg21
I0
sba(iArchitecture
Entity
p482
(dp483
g11
(lp484
sg13
S'com.android.server.Watchdog$HandlerChecker'
p485
sg15
(lp486
sg17
(lp487
sg19
(lp488
sg21
I0
sba(iArchitecture
Entity
p489
(dp490
g11
(lp491
sg13
S'com.android.server.Watchdog$Monitor'
p492
sg15
(lp493
sg17
(lp494
sg19
(lp495
sg21
I0
sba(iArchitecture
Entity
p496
(dp497
g11
(lp498
sg13
S'com.android.server.Watchdog$RebootRequestReceiver'
p499
sg15
(lp500
sg17
(lp501
sg19
(lp502
sg21
I0
sbasg22
(lp503
g464
ag471
ag478
ag485
ag492
ag499
asg21
I0
sg24
S'1018'
p504
sba(iArchitecture
Cluster
p505
(dp506
g7
(lp507
(iArchitecture
Entity
p508
(dp509
g11
(lp510
sg13
S'android.preference.Preference'
p511
sg15
(lp512
sg17
(lp513
sg19
(lp514
sg21
I0
sba(iArchitecture
Entity
p515
(dp516
g11
(lp517
sg13
S'android.preference.Preference$BaseSavedState'
p518
sg15
(lp519
sg17
(lp520
sg19
(lp521
sg21
I0
sba(iArchitecture
Entity
p522
(dp523
g11
(lp524
sg13
S'android.preference.Preference$BaseSavedState$1'
p525
sg15
(lp526
sg17
(lp527
sg19
(lp528
sg21
I0
sba(iArchitecture
Entity
p529
(dp530
g11
(lp531
sg13
S'android.preference.Preference$OnPreferenceChangeInternalListener'
p532
sg15
(lp533
sg17
(lp534
sg19
(lp535
sg21
I0
sba(iArchitecture
Entity
p536
(dp537
g11
(lp538
sg13
S'android.preference.Preference$OnPreferenceChangeListener'
p539
sg15
(lp540
sg17
(lp541
sg19
(lp542
sg21
I0
sba(iArchitecture
Entity
p543
(dp544
g11
(lp545
sg13
S'android.preference.Preference$OnPreferenceClickListener'
p546
sg15
(lp547
sg17
(lp548
sg19
(lp549
sg21
I0
sbasg22
(lp550
g511
ag518
ag525
ag532
ag539
ag546
asg21
I0
sg24
S'1019'
p551
sba(iArchitecture
Cluster
p552
(dp553
g7
(lp554
(iArchitecture
Entity
p555
(dp556
g11
(lp557
sg13
S'android.view.animation.TranslateXAnimation'
p558
sg15
(lp559
sg17
(lp560
sg19
(lp561
sg21
I0
sba(iArchitecture
Entity
p562
(dp563
g11
(lp564
sg13
S'android.view.animation.TranslateYAnimation'
p565
sg15
(lp566
sg17
(lp567
sg19
(lp568
sg21
I0
sbasg22
(lp569
g558
ag565
asg21
I0
sg24
S'1101'
p570
sbasS'target_sub'
p571
S'101'
p572
sg22
(lp573
sS'is_component_arch'
p574
I01
sg24
S'6.0.0_r1'
p575
sba.