(lp0
(iArchitecture
Architecture
p1
(dp2
S'clusters'
p3
(lp4
(iArchitecture
Cluster
p5
(dp6
S'entities'
p7
(lp8
(iArchitecture
Entity
p9
(dp10
S'issue_ids'
p11
(lp12
sS'name'
p13
S'android.service.textservice.SpellCheckerService'
p14
sS'descs'
p15
(lp16
sS'labels'
p17
(lp18
sS'titles'
p19
(lp20
sS'change'
p21
I0
sba(iArchitecture
Entity
p22
(dp23
g11
(lp24
sg13
S'android.service.textservice.SpellCheckerService$InternalISpellCheckerSession'
p25
sg15
(lp26
sg17
(lp27
sg19
(lp28
sg21
I0
sba(iArchitecture
Entity
p29
(dp30
g11
(lp31
sg13
S'android.service.textservice.SpellCheckerService$SentenceLevelAdapter'
p32
sg15
(lp33
sg17
(lp34
sg19
(lp35
sg21
I0
sba(iArchitecture
Entity
p36
(dp37
g11
(lp38
sg13
S'android.service.textservice.SpellCheckerService$SentenceLevelAdapter$SentenceTextInfoParams'
p39
sg15
(lp40
sg17
(lp41
sg19
(lp42
sg21
I0
sba(iArchitecture
Entity
p43
(dp44
g11
(lp45
sg13
S'android.service.textservice.SpellCheckerService$SentenceLevelAdapter$SentenceWordItem'
p46
sg15
(lp47
sg17
(lp48
sg19
(lp49
sg21
I0
sba(iArchitecture
Entity
p50
(dp51
g11
(lp52
sg13
S'android.service.textservice.SpellCheckerService$Session'
p53
sg15
(lp54
sg17
(lp55
sg19
(lp56
sg21
I0
sba(iArchitecture
Entity
p57
(dp58
g11
(lp59
sg13
S'android.service.textservice.SpellCheckerService$SpellCheckerServiceBinder'
p60
sg15
(lp61
sg17
(lp62
sg19
(lp63
sg21
I0
sbasS'classes'
p64
(lp65
g14
ag25
ag32
ag39
ag46
ag53
ag60
asg21
I0
sS'label'
p66
S'1015'
p67
sba(iArchitecture
Cluster
p68
(dp69
g7
(lp70
(iArchitecture
Entity
p71
(dp72
g11
(lp73
sg13
S'com.android.server.location.MockProvider'
p74
sg15
(lp75
sg17
(lp76
sg19
(lp77
sg21
I0
sba(iArchitecture
Entity
p78
(dp79
g11
(lp80
sg13
S'com.android.server.location.PassiveProvider'
p81
sg15
(lp82
sg17
(lp83
sg19
(lp84
sg21
I0
sbasg64
(lp85
g74
ag81
asg21
I0
sg66
S'1115'
p86
sba(iArchitecture
Cluster
p87
(dp88
g7
(lp89
(iArchitecture
Entity
p90
(dp91
g11
(lp92
sg13
S'android.media.ImageUtils'
p93
sg15
(lp94
sg17
(lp95
sg19
(lp96
sg21
I0
sbasg64
(lp97
g93
asg21
I0
sg66
S'115'
p98
sba(iArchitecture
Cluster
p99
(dp100
g7
(lp101
(iArchitecture
Entity
p102
(dp103
g11
(lp104
sg13
S'com.android.server.display.WifiDisplayAdapter'
p105
sg15
(lp106
sg17
(lp107
sg19
(lp108
sg21
I0
sba(iArchitecture
Entity
p109
(dp110
g11
(lp111
sg13
S'com.android.server.display.WifiDisplayAdapter$1'
p112
sg15
(lp113
sg17
(lp114
sg19
(lp115
sg21
I0
sba(iArchitecture
Entity
p116
(dp117
g11
(lp118
sg13
S'com.android.server.display.WifiDisplayAdapter$2'
p119
sg15
(lp120
sg17
(lp121
sg19
(lp122
sg21
I0
sba(iArchitecture
Entity
p123
(dp124
g11
(lp125
sg13
S'com.android.server.display.WifiDisplayAdapter$3'
p126
sg15
(lp127
sg17
(lp128
sg19
(lp129
sg21
I0
sba(iArchitecture
Entity
p130
(dp131
g11
(lp132
sg13
S'com.android.server.display.WifiDisplayAdapter$4'
p133
sg15
(lp134
sg17
(lp135
sg19
(lp136
sg21
I0
sba(iArchitecture
Entity
p137
(dp138
g11
(lp139
sg13
S'com.android.server.display.WifiDisplayAdapter$5'
p140
sg15
(lp141
sg17
(lp142
sg19
(lp143
sg21
I0
sba(iArchitecture
Entity
p144
(dp145
g11
(lp146
sg13
S'com.android.server.display.WifiDisplayAdapter$6'
p147
sg15
(lp148
sg17
(lp149
sg19
(lp150
sg21
I0
sba(iArchitecture
Entity
p151
(dp152
g11
(lp153
sg13
S'com.android.server.display.WifiDisplayAdapter$7'
p154
sg15
(lp155
sg17
(lp156
sg19
(lp157
sg21
I0
sba(iArchitecture
Entity
p158
(dp159
g11
(lp160
sg13
S'com.android.server.display.WifiDisplayAdapter$8'
p161
sg15
(lp162
sg17
(lp163
sg19
(lp164
sg21
I0
sba(iArchitecture
Entity
p165
(dp166
g11
(lp167
sg13
S'com.android.server.display.WifiDisplayAdapter$9'
p168
sg15
(lp169
sg17
(lp170
sg19
(lp171
sg21
I0
sba(iArchitecture
Entity
p172
(dp173
g11
(lp174
sg13
S'com.android.server.display.WifiDisplayAdapter$WifiDisplayDevice'
p175
sg15
(lp176
sg17
(lp177
sg19
(lp178
sg21
I0
sba(iArchitecture
Entity
p179
(dp180
g11
(lp181
sg13
S'com.android.server.display.WifiDisplayAdapter$WifiDisplayHandler'
p182
sg15
(lp183
sg17
(lp184
sg19
(lp185
sg21
I0
sba(iArchitecture
Entity
p186
(dp187
g11
(lp188
sg13
S'com.android.server.display.WifiDisplayController'
p189
sg15
(lp190
sg17
(lp191
sg19
(lp192
sg21
I0
sba(iArchitecture
Entity
p193
(dp194
g11
(lp195
sg13
S'com.android.server.display.WifiDisplayController$1'
p196
sg15
(lp197
sg17
(lp198
sg19
(lp199
sg21
I0
sba(iArchitecture
Entity
p200
(dp201
g11
(lp202
sg13
S'com.android.server.display.WifiDisplayController$10'
p203
sg15
(lp204
sg17
(lp205
sg19
(lp206
sg21
I0
sba(iArchitecture
Entity
p207
(dp208
g11
(lp209
sg13
S'com.android.server.display.WifiDisplayController$11'
p210
sg15
(lp211
sg17
(lp212
sg19
(lp213
sg21
I0
sba(iArchitecture
Entity
p214
(dp215
g11
(lp216
sg13
S'com.android.server.display.WifiDisplayController$12'
p217
sg15
(lp218
sg17
(lp219
sg19
(lp220
sg21
I0
sba(iArchitecture
Entity
p221
(dp222
g11
(lp223
sg13
S'com.android.server.display.WifiDisplayController$13'
p224
sg15
(lp225
sg17
(lp226
sg19
(lp227
sg21
I0
sba(iArchitecture
Entity
p228
(dp229
g11
(lp230
sg13
S'com.android.server.display.WifiDisplayController$14'
p231
sg15
(lp232
sg17
(lp233
sg19
(lp234
sg21
I0
sba(iArchitecture
Entity
p235
(dp236
g11
(lp237
sg13
S'com.android.server.display.WifiDisplayController$15'
p238
sg15
(lp239
sg17
(lp240
sg19
(lp241
sg21
I0
sba(iArchitecture
Entity
p242
(dp243
g11
(lp244
sg13
S'com.android.server.display.WifiDisplayController$16'
p245
sg15
(lp246
sg17
(lp247
sg19
(lp248
sg21
I0
sba(iArchitecture
Entity
p249
(dp250
g11
(lp251
sg13
S'com.android.server.display.WifiDisplayController$17'
p252
sg15
(lp253
sg17
(lp254
sg19
(lp255
sg21
I0
sba(iArchitecture
Entity
p256
(dp257
g11
(lp258
sg13
S'com.android.server.display.WifiDisplayController$18'
p259
sg15
(lp260
sg17
(lp261
sg19
(lp262
sg21
I0
sba(iArchitecture
Entity
p263
(dp264
g11
(lp265
sg13
S'com.android.server.display.WifiDisplayController$19'
p266
sg15
(lp267
sg17
(lp268
sg19
(lp269
sg21
I0
sba(iArchitecture
Entity
p270
(dp271
g11
(lp272
sg13
S'com.android.server.display.WifiDisplayController$2'
p273
sg15
(lp274
sg17
(lp275
sg19
(lp276
sg21
I0
sba(iArchitecture
Entity
p277
(dp278
g11
(lp279
sg13
S'com.android.server.display.WifiDisplayController$20'
p280
sg15
(lp281
sg17
(lp282
sg19
(lp283
sg21
I0
sba(iArchitecture
Entity
p284
(dp285
g11
(lp286
sg13
S'com.android.server.display.WifiDisplayController$21'
p287
sg15
(lp288
sg17
(lp289
sg19
(lp290
sg21
I0
sba(iArchitecture
Entity
p291
(dp292
g11
(lp293
sg13
S'com.android.server.display.WifiDisplayController$3'
p294
sg15
(lp295
sg17
(lp296
sg19
(lp297
sg21
I0
sba(iArchitecture
Entity
p298
(dp299
g11
(lp300
sg13
S'com.android.server.display.WifiDisplayController$4'
p301
sg15
(lp302
sg17
(lp303
sg19
(lp304
sg21
I0
sba(iArchitecture
Entity
p305
(dp306
g11
(lp307
sg13
S'com.android.server.display.WifiDisplayController$5'
p308
sg15
(lp309
sg17
(lp310
sg19
(lp311
sg21
I0
sba(iArchitecture
Entity
p312
(dp313
g11
(lp314
sg13
S'com.android.server.display.WifiDisplayController$6'
p315
sg15
(lp316
sg17
(lp317
sg19
(lp318
sg21
I0
sba(iArchitecture
Entity
p319
(dp320
g11
(lp321
sg13
S'com.android.server.display.WifiDisplayController$7'
p322
sg15
(lp323
sg17
(lp324
sg19
(lp325
sg21
I0
sba(iArchitecture
Entity
p326
(dp327
g11
(lp328
sg13
S'com.android.server.display.WifiDisplayController$8'
p329
sg15
(lp330
sg17
(lp331
sg19
(lp332
sg21
I0
sba(iArchitecture
Entity
p333
(dp334
g11
(lp335
sg13
S'com.android.server.display.WifiDisplayController$9'
p336
sg15
(lp337
sg17
(lp338
sg19
(lp339
sg21
I0
sba(iArchitecture
Entity
p340
(dp341
g11
(lp342
sg13
S'com.android.server.display.WifiDisplayController$Listener'
p343
sg15
(lp344
sg17
(lp345
sg19
(lp346
sg21
I0
sbasg64
(lp347
g105
ag112
ag119
ag126
ag133
ag140
ag147
ag154
ag161
ag168
ag175
ag182
ag189
ag196
ag203
ag210
ag217
ag224
ag231
ag238
ag245
ag252
ag259
ag266
ag273
ag280
ag287
ag294
ag301
ag308
ag315
ag322
ag329
ag336
ag343
asg21
I0
sg66
S'1150'
p348
sba(iArchitecture
Cluster
p349
(dp350
g7
(lp351
(iArchitecture
Entity
p352
(dp353
g11
(lp354
sg13
S'junit.framework.TestCase'
p355
sg15
(lp356
sg17
(lp357
sg19
(lp358
sg21
I0
sba(iArchitecture
Entity
p359
(dp360
g11
(lp361
sg13
S'junit.framework.TestSuite'
p362
sg15
(lp363
sg17
(lp364
sg19
(lp365
sg21
I0
sbasg64
(lp366
g355
ag362
asg21
I0
sg66
S'1151'
p367
sba(iArchitecture
Cluster
p368
(dp369
g7
(lp370
(iArchitecture
Entity
p371
(dp372
g11
(lp373
sg13
S'android.os.Registrant'
p374
sg15
(lp375
sg17
(lp376
sg19
(lp377
sg21
I0
sba(iArchitecture
Entity
p378
(dp379
g11
(lp380
sg13
S'android.os.RegistrantList'
p381
sg15
(lp382
sg17
(lp383
sg19
(lp384
sg21
I0
sbasg64
(lp385
g374
ag381
asg21
I0
sg66
S'1152'
p386
sba(iArchitecture
Cluster
p387
(dp388
g7
(lp389
(iArchitecture
Entity
p390
(dp391
g11
(lp392
sg13
S'android.bluetooth.BluetoothHealth'
p393
sg15
(lp394
sg17
(lp395
sg19
(lp396
sg21
I0
sba(iArchitecture
Entity
p397
(dp398
g11
(lp399
sg13
S'android.bluetooth.BluetoothHealth$1'
p400
sg15
(lp401
sg17
(lp402
sg19
(lp403
sg21
I0
sba(iArchitecture
Entity
p404
(dp405
g11
(lp406
sg13
S'android.bluetooth.BluetoothHealth$2'
p407
sg15
(lp408
sg17
(lp409
sg19
(lp410
sg21
I0
sba(iArchitecture
Entity
p411
(dp412
g11
(lp413
sg13
S'android.bluetooth.BluetoothHealth$BluetoothHealthCallbackWrapper'
p414
sg15
(lp415
sg17
(lp416
sg19
(lp417
sg21
I0
sba(iArchitecture
Entity
p418
(dp419
g11
(lp420
sg13
S'android.net.nsd.NsdManager'
p421
sg15
(lp422
sg17
(lp423
sg19
(lp424
sg21
I0
sba(iArchitecture
Entity
p425
(dp426
g11
(lp427
sg13
S'android.net.nsd.NsdManager$DiscoveryListener'
p428
sg15
(lp429
sg17
(lp430
sg19
(lp431
sg21
I0
sba(iArchitecture
Entity
p432
(dp433
g11
(lp434
sg13
S'android.net.nsd.NsdManager$RegistrationListener'
p435
sg15
(lp436
sg17
(lp437
sg19
(lp438
sg21
I0
sba(iArchitecture
Entity
p439
(dp440
g11
(lp441
sg13
S'android.net.nsd.NsdManager$ResolveListener'
p442
sg15
(lp443
sg17
(lp444
sg19
(lp445
sg21
I0
sba(iArchitecture
Entity
p446
(dp447
g11
(lp448
sg13
S'android.net.nsd.NsdManager$ServiceHandler'
p449
sg15
(lp450
sg17
(lp451
sg19
(lp452
sg21
I0
sbasg64
(lp453
g393
ag400
ag407
ag414
ag421
ag428
ag435
ag442
ag449
asg21
I0
sg66
S'1153'
p454
sba(iArchitecture
Cluster
p455
(dp456
g7
(lp457
(iArchitecture
Entity
p458
(dp459
g11
(lp460
sg13
S'com.android.server.am.ActivityStack'
p461
sg15
(lp462
sg17
(lp463
sg19
(lp464
sg21
I0
sba(iArchitecture
Entity
p465
(dp466
g11
(lp467
sg13
S'com.android.server.am.ActivityStack$ActivityStackHandler'
p468
sg15
(lp469
sg17
(lp470
sg19
(lp471
sg21
I0
sba(iArchitecture
Entity
p472
(dp473
g11
(lp474
sg13
S'com.android.server.am.ActivityStack$ActivityState'
p475
sg15
(lp476
sg17
(lp477
sg19
(lp478
sg21
I0
sba(iArchitecture
Entity
p479
(dp480
g11
(lp481
sg13
S'com.android.server.am.ActivityStack$ScheduleDestroyArgs'
p482
sg15
(lp483
sg17
(lp484
sg19
(lp485
sg21
I0
sba(iArchitecture
Entity
p486
(dp487
g11
(lp488
sg13
S'com.android.server.am.TaskRecord'
p489
sg15
(lp490
sg17
(lp491
sg19
(lp492
sg21
I0
sbasg64
(lp493
g461
ag468
ag475
ag482
ag489
asg21
I0
sg66
S'1154'
p494
sba(iArchitecture
Cluster
p495
(dp496
g7
(lp497
(iArchitecture
Entity
p498
(dp499
g11
(lp500
sg13
S'android.bluetooth.BluetoothActivityEnergyInfo'
p501
sg15
(lp502
sg17
(lp503
sg19
(lp504
sg21
I0
sba(iArchitecture
Entity
p505
(dp506
g11
(lp507
sg13
S'android.bluetooth.BluetoothActivityEnergyInfo$1'
p508
sg15
(lp509
sg17
(lp510
sg19
(lp511
sg21
I0
sba(iArchitecture
Entity
p512
(dp513
g11
(lp514
sg13
S'android.net.wifi.WifiActivityEnergyInfo'
p515
sg15
(lp516
sg17
(lp517
sg19
(lp518
sg21
I0
sba(iArchitecture
Entity
p519
(dp520
g11
(lp521
sg13
S'android.net.wifi.WifiActivityEnergyInfo$1'
p522
sg15
(lp523
sg17
(lp524
sg19
(lp525
sg21
I0
sbasg64
(lp526
g501
ag508
ag515
ag522
asg21
I0
sg66
S'1155'
p527
sba(iArchitecture
Cluster
p528
(dp529
g7
(lp530
(iArchitecture
Entity
p531
(dp532
g11
(lp533
sg13
S'android.hardware.location.GeofenceHardwareCallback'
p534
sg15
(lp535
sg17
(lp536
sg19
(lp537
sg21
I0
sba(iArchitecture
Entity
p538
(dp539
g11
(lp540
sg13
S'android.hardware.location.GeofenceHardwareMonitorCallback'
p541
sg15
(lp542
sg17
(lp543
sg19
(lp544
sg21
I0
sbasg64
(lp545
g534
ag541
asg21
I0
sg66
S'1156'
p546
sba(iArchitecture
Cluster
p547
(dp548
g7
(lp549
(iArchitecture
Entity
p550
(dp551
g11
(lp552
sg13
S'android.hardware.location.ActivityChangedEvent'
p553
sg15
(lp554
sg17
(lp555
sg19
(lp556
sg21
I0
sba(iArchitecture
Entity
p557
(dp558
g11
(lp559
sg13
S'android.hardware.location.ActivityChangedEvent$1'
p560
sg15
(lp561
sg17
(lp562
sg19
(lp563
sg21
I0
sba(iArchitecture
Entity
p564
(dp565
g11
(lp566
sg13
S'android.hardware.location.ActivityRecognitionEvent'
p567
sg15
(lp568
sg17
(lp569
sg19
(lp570
sg21
I0
sba(iArchitecture
Entity
p571
(dp572
g11
(lp573
sg13
S'android.hardware.location.ActivityRecognitionEvent$1'
p574
sg15
(lp575
sg17
(lp576
sg19
(lp577
sg21
I0
sba(iArchitecture
Entity
p578
(dp579
g11
(lp580
sg13
S'android.hardware.location.ActivityRecognitionHardware'
p581
sg15
(lp582
sg17
(lp583
sg19
(lp584
sg21
I0
sba(iArchitecture
Entity
p585
(dp586
g11
(lp587
sg13
S'android.hardware.location.ActivityRecognitionHardware$Event'
p588
sg15
(lp589
sg17
(lp590
sg19
(lp591
sg21
I0
sbasg64
(lp592
g553
ag560
ag567
ag574
ag581
ag588
asg21
I0
sg66
S'1157'
p593
sba(iArchitecture
Cluster
p594
(dp595
g7
(lp596
(iArchitecture
Entity
p597
(dp598
g11
(lp599
sg13
S'android.ddm.DdmHandleAppName'
p600
sg15
(lp601
sg17
(lp602
sg19
(lp603
sg21
I0
sba(iArchitecture
Entity
p604
(dp605
g11
(lp606
sg13
S'android.ddm.DdmHandleExit'
p607
sg15
(lp608
sg17
(lp609
sg19
(lp610
sg21
I0
sba(iArchitecture
Entity
p611
(dp612
g11
(lp613
sg13
S'android.ddm.DdmHandleHeap'
p614
sg15
(lp615
sg17
(lp616
sg19
(lp617
sg21
I0
sba(iArchitecture
Entity
p618
(dp619
g11
(lp620
sg13
S'android.ddm.DdmHandleHello'
p621
sg15
(lp622
sg17
(lp623
sg19
(lp624
sg21
I0
sba(iArchitecture
Entity
p625
(dp626
g11
(lp627
sg13
S'android.ddm.DdmHandleNativeHeap'
p628
sg15
(lp629
sg17
(lp630
sg19
(lp631
sg21
I0
sba(iArchitecture
Entity
p632
(dp633
g11
(lp634
sg13
S'android.ddm.DdmHandleProfiling'
p635
sg15
(lp636
sg17
(lp637
sg19
(lp638
sg21
I0
sba(iArchitecture
Entity
p639
(dp640
g11
(lp641
sg13
S'android.ddm.DdmHandleThread'
p642
sg15
(lp643
sg17
(lp644
sg19
(lp645
sg21
I0
sbasg64
(lp646
g600
ag607
ag614
ag621
ag628
ag635
ag642
asg21
I0
sg66
S'1158'
p647
sba(iArchitecture
Cluster
p648
(dp649
g7
(lp650
(iArchitecture
Entity
p651
(dp652
g11
(lp653
sg13
S'android.preference.GenericInflater'
p654
sg15
(lp655
sg17
(lp656
sg19
(lp657
sg21
I0
sba(iArchitecture
Entity
p658
(dp659
g11
(lp660
sg13
S'android.preference.GenericInflater$Factory'
p661
sg15
(lp662
sg17
(lp663
sg19
(lp664
sg21
I0
sba(iArchitecture
Entity
p665
(dp666
g11
(lp667
sg13
S'android.preference.GenericInflater$FactoryMerger'
p668
sg15
(lp669
sg17
(lp670
sg19
(lp671
sg21
I0
sba(iArchitecture
Entity
p672
(dp673
g11
(lp674
sg13
S'android.preference.GenericInflater$Parent'
p675
sg15
(lp676
sg17
(lp677
sg19
(lp678
sg21
I0
sba(iArchitecture
Entity
p679
(dp680
g11
(lp681
sg13
S'android.view.LayoutInflater'
p682
sg15
(lp683
sg17
(lp684
sg19
(lp685
sg21
I0
sba(iArchitecture
Entity
p686
(dp687
g11
(lp688
sg13
S'android.view.LayoutInflater$BlinkLayout'
p689
sg15
(lp690
sg17
(lp691
sg19
(lp692
sg21
I0
sba(iArchitecture
Entity
p693
(dp694
g11
(lp695
sg13
S'android.view.LayoutInflater$BlinkLayout$1'
p696
sg15
(lp697
sg17
(lp698
sg19
(lp699
sg21
I0
sba(iArchitecture
Entity
p700
(dp701
g11
(lp702
sg13
S'android.view.LayoutInflater$Factory'
p703
sg15
(lp704
sg17
(lp705
sg19
(lp706
sg21
I0
sba(iArchitecture
Entity
p707
(dp708
g11
(lp709
sg13
S'android.view.LayoutInflater$Factory2'
p710
sg15
(lp711
sg17
(lp712
sg19
(lp713
sg21
I0
sba(iArchitecture
Entity
p714
(dp715
g11
(lp716
sg13
S'android.view.LayoutInflater$FactoryMerger'
p717
sg15
(lp718
sg17
(lp719
sg19
(lp720
sg21
I0
sba(iArchitecture
Entity
p721
(dp722
g11
(lp723
sg13
S'android.view.LayoutInflater$Filter'
p724
sg15
(lp725
sg17
(lp726
sg19
(lp727
sg21
I0
sbasg64
(lp728
g654
ag661
ag668
ag675
ag682
ag689
ag696
ag703
ag710
ag717
ag724
asg21
I0
sg66
S'1159'
p729
sba(iArchitecture
Cluster
p730
(dp731
g7
(lp732
(iArchitecture
Entity
p733
(dp734
g11
(lp735
sg13
S'android.drm.DrmSupportInfo'
p736
sg15
(lp737
sg17
(lp738
sg19
(lp739
sg21
I0
sba(iArchitecture
Entity
p740
(dp741
g11
(lp742
sg13
S'android.net.LocalServerSocket'
p743
sg15
(lp744
sg17
(lp745
sg19
(lp746
sg21
I0
sba(iArchitecture
Entity
p747
(dp748
g11
(lp749
sg13
S'android.net.LocalSocketAddress'
p750
sg15
(lp751
sg17
(lp752
sg19
(lp753
sg21
I0
sba(iArchitecture
Entity
p754
(dp755
g11
(lp756
sg13
S'android.net.LocalSocketAddress$Namespace'
p757
sg15
(lp758
sg17
(lp759
sg19
(lp760
sg21
I0
sbasg64
(lp761
g736
ag743
ag750
ag757
asg21
I0
sg66
S'1215'
p762
sba(iArchitecture
Cluster
p763
(dp764
g7
(lp765
(iArchitecture
Entity
p766
(dp767
g11
(lp768
sg13
S'android.renderscript.ScriptC'
p769
sg15
(lp770
sg17
(lp771
sg19
(lp772
sg21
I0
sbasg64
(lp773
g769
asg21
I0
sg66
S'15'
p774
sba(iArchitecture
Cluster
p775
(dp776
g7
(lp777
(iArchitecture
Entity
p778
(dp779
g11
(lp780
sg13
S'android.webkit.UrlInterceptHandler'
p781
sg15
(lp782
sg17
(lp783
sg19
(lp784
sg21
I0
sbasg64
(lp785
g781
asg21
I0
sg66
S'150'
p786
sba(iArchitecture
Cluster
p787
(dp788
g7
(lp789
(iArchitecture
Entity
p790
(dp791
g11
(lp792
sg13
S'android.net.NetworkPolicyManager'
p793
sg15
(lp794
sg17
(lp795
sg19
(lp796
sg21
I0
sbasg64
(lp797
g793
asg21
I0
sg66
S'151'
p798
sba(iArchitecture
Cluster
p799
(dp800
g7
(lp801
(iArchitecture
Entity
p802
(dp803
g11
(lp804
sg13
S'android.graphics.PorterDuffColorFilter'
p805
sg15
(lp806
sg17
(lp807
sg19
(lp808
sg21
I0
sbasg64
(lp809
g805
asg21
I0
sg66
S'152'
p810
sba(iArchitecture
Cluster
p811
(dp812
g7
(lp813
(iArchitecture
Entity
p814
(dp815
g11
(lp816
sg13
S'android.database.sqlite.SQLiteQuery'
p817
sg15
(lp818
sg17
(lp819
sg19
(lp820
sg21
I0
sbasg64
(lp821
g817
asg21
I0
sg66
S'153'
p822
sba(iArchitecture
Cluster
p823
(dp824
g7
(lp825
(iArchitecture
Entity
p826
(dp827
g11
(lp828
sg13
S'android.text.style.BulletSpan'
p829
sg15
(lp830
sg17
(lp831
sg19
(lp832
sg21
I0
sbasg64
(lp833
g829
asg21
I0
sg66
S'154'
p834
sba(iArchitecture
Cluster
p835
(dp836
g7
(lp837
(iArchitecture
Entity
p838
(dp839
g11
(lp840
sg13
S'android.util.Property'
p841
sg15
(lp842
sg17
(lp843
sg19
(lp844
sg21
I0
sbasg64
(lp845
g841
asg21
I0
sg66
S'155'
p846
sba(iArchitecture
Cluster
p847
(dp848
g7
(lp849
(iArchitecture
Entity
p850
(dp851
g11
(lp852
sg13
S'android.opengl.Matrix'
p853
sg15
(lp854
sg17
(lp855
sg19
(lp856
sg21
I0
sbasg64
(lp857
g853
asg21
I0
sg66
S'156'
p858
sba(iArchitecture
Cluster
p859
(dp860
g7
(lp861
(iArchitecture
Entity
p862
(dp863
g11
(lp864
sg13
S'android.database.sqlite.SQLiteClosable'
p865
sg15
(lp866
sg17
(lp867
sg19
(lp868
sg21
I0
sbasg64
(lp869
g865
asg21
I0
sg66
S'157'
p870
sba(iArchitecture
Cluster
p871
(dp872
g7
(lp873
(iArchitecture
Entity
p874
(dp875
g11
(lp876
sg13
S'com.android.server.DiskStatsService'
p877
sg15
(lp878
sg17
(lp879
sg19
(lp880
sg21
I0
sbasg64
(lp881
g877
asg21
I0
sg66
S'158'
p882
sba(iArchitecture
Cluster
p883
(dp884
g7
(lp885
(iArchitecture
Entity
p886
(dp887
g11
(lp888
sg13
S'com.android.internal.os.PowerCalculator'
p889
sg15
(lp890
sg17
(lp891
sg19
(lp892
sg21
I0
sbasg64
(lp893
g889
asg21
I0
sg66
S'159'
p894
sba(iArchitecture
Cluster
p895
(dp896
g7
(lp897
(iArchitecture
Entity
p898
(dp899
g11
(lp900
sg13
S'android.opengl.GLUtils'
p901
sg15
(lp902
sg17
(lp903
sg19
(lp904
sg21
I0
sbasg64
(lp905
g901
asg21
I0
sg66
S'215'
p906
sba(iArchitecture
Cluster
p907
(dp908
g7
(lp909
(iArchitecture
Entity
p910
(dp911
g11
(lp912
sg13
S'android.webkit.UrlInterceptRegistry'
p913
sg15
(lp914
sg17
(lp915
sg19
(lp916
sg21
I0
sbasg64
(lp917
g913
asg21
I0
sg66
S'315'
p918
sba(iArchitecture
Cluster
p919
(dp920
g7
(lp921
(iArchitecture
Entity
p922
(dp923
g11
(lp924
sg13
S'com.android.server.accessibility.GestureUtils'
p925
sg15
(lp926
sg17
(lp927
sg19
(lp928
sg21
I0
sbasg64
(lp929
g925
asg21
I0
sg66
S'415'
p930
sba(iArchitecture
Cluster
p931
(dp932
g7
(lp933
(iArchitecture
Entity
p934
(dp935
g11
(lp936
sg13
S'com.android.internal.midi.MidiDispatcher'
p937
sg15
(lp938
sg17
(lp939
sg19
(lp940
sg21
I0
sba(iArchitecture
Entity
p941
(dp942
g11
(lp943
sg13
S'com.android.internal.midi.MidiDispatcher$1'
p944
sg15
(lp945
sg17
(lp946
sg19
(lp947
sg21
I0
sbasg64
(lp948
g937
ag944
asg21
I0
sg66
S'515'
p949
sba(iArchitecture
Cluster
p950
(dp951
g7
(lp952
(iArchitecture
Entity
p953
(dp954
g11
(lp955
sg13
S'android.view.inputmethod.InputMethodInfo'
p956
sg15
(lp957
sg17
(lp958
sg19
(lp959
sg21
I0
sba(iArchitecture
Entity
p960
(dp961
g11
(lp962
sg13
S'android.view.inputmethod.InputMethodInfo$1'
p963
sg15
(lp964
sg17
(lp965
sg19
(lp966
sg21
I0
sbasg64
(lp967
g956
ag963
asg21
I0
sg66
S'615'
p968
sba(iArchitecture
Cluster
p969
(dp970
g7
(lp971
(iArchitecture
Entity
p972
(dp973
g11
(lp974
sg13
S'com.android.internal.widget.AccountViewAdapter'
p975
sg15
(lp976
sg17
(lp977
sg19
(lp978
sg21
I0
sba(iArchitecture
Entity
p979
(dp980
g11
(lp981
sg13
S'com.android.internal.widget.AccountViewAdapter$AccountElements'
p982
sg15
(lp983
sg17
(lp984
sg19
(lp985
sg21
I0
sbasg64
(lp986
g975
ag982
asg21
I0
sg66
S'715'
p987
sba(iArchitecture
Cluster
p988
(dp989
g7
(lp990
(iArchitecture
Entity
p991
(dp992
g11
(lp993
sg13
S'android.content.ClipData'
p994
sg15
(lp995
sg17
(lp996
sg19
(lp997
sg21
I0
sba(iArchitecture
Entity
p998
(dp999
g11
(lp1000
sg13
S'android.content.ClipData$1'
p1001
sg15
(lp1002
sg17
(lp1003
sg19
(lp1004
sg21
I0
sba(iArchitecture
Entity
p1005
(dp1006
g11
(lp1007
sg13
S'android.content.ClipData$Item'
p1008
sg15
(lp1009
sg17
(lp1010
sg19
(lp1011
sg21
I0
sbasg64
(lp1012
g994
ag1001
ag1008
asg21
I0
sg66
S'815'
p1013
sba(iArchitecture
Cluster
p1014
(dp1015
g7
(lp1016
(iArchitecture
Entity
p1017
(dp1018
g11
(lp1019
sg13
S'com.android.server.display.VirtualDisplayAdapter'
p1020
sg15
(lp1021
sg17
(lp1022
sg19
(lp1023
sg21
I0
sba(iArchitecture
Entity
p1024
(dp1025
g11
(lp1026
sg13
S'com.android.server.display.VirtualDisplayAdapter$Callback'
p1027
sg15
(lp1028
sg17
(lp1029
sg19
(lp1030
sg21
I0
sba(iArchitecture
Entity
p1031
(dp1032
g11
(lp1033
sg13
S'com.android.server.display.VirtualDisplayAdapter$MediaProjectionCallback'
p1034
sg15
(lp1035
sg17
(lp1036
sg19
(lp1037
sg21
I0
sba(iArchitecture
Entity
p1038
(dp1039
g11
(lp1040
sg13
S'com.android.server.display.VirtualDisplayAdapter$VirtualDisplayDevice'
p1041
sg15
(lp1042
sg17
(lp1043
sg19
(lp1044
sg21
I0
sbasg64
(lp1045
g1020
ag1027
ag1034
ag1041
asg21
I0
sg66
S'915'
p1046
sbasS'target_sub'
p1047
S'15'
p1048
sg64
(lp1049
sS'is_component_arch'
p1050
I01
sg66
S'6.0.0_r1'
p1051
sba.