(lp0
(iArchitecture
Architecture
p1
(dp2
S'clusters'
p3
(lp4
(iArchitecture
Cluster
p5
(dp6
S'entities'
p7
(lp8
(iArchitecture
Entity
p9
(dp10
S'issue_ids'
p11
(lp12
sS'name'
p13
S'android.renderscript.Mesh'
p14
sS'descs'
p15
(lp16
sS'labels'
p17
(lp18
sS'titles'
p19
(lp20
sS'change'
p21
I0
sba(iArchitecture
Entity
p22
(dp23
g11
(lp24
sg13
S'android.renderscript.Mesh$AllocationBuilder'
p25
sg15
(lp26
sg17
(lp27
sg19
(lp28
sg21
I0
sba(iArchitecture
Entity
p29
(dp30
g11
(lp31
sg13
S'android.renderscript.Mesh$AllocationBuilder$Entry'
p32
sg15
(lp33
sg17
(lp34
sg19
(lp35
sg21
I0
sba(iArchitecture
Entity
p36
(dp37
g11
(lp38
sg13
S'android.renderscript.Mesh$Builder'
p39
sg15
(lp40
sg17
(lp41
sg19
(lp42
sg21
I0
sba(iArchitecture
Entity
p43
(dp44
g11
(lp45
sg13
S'android.renderscript.Mesh$Builder$Entry'
p46
sg15
(lp47
sg17
(lp48
sg19
(lp49
sg21
I0
sba(iArchitecture
Entity
p50
(dp51
g11
(lp52
sg13
S'android.renderscript.Mesh$Primitive'
p53
sg15
(lp54
sg17
(lp55
sg19
(lp56
sg21
I0
sba(iArchitecture
Entity
p57
(dp58
g11
(lp59
sg13
S'android.renderscript.Mesh$TriangleMeshBuilder'
p60
sg15
(lp61
sg17
(lp62
sg19
(lp63
sg21
I0
sbasS'classes'
p64
(lp65
g14
ag25
ag32
ag39
ag46
ag53
ag60
asg21
I0
sS'label'
p66
S'1013'
p67
sba(iArchitecture
Cluster
p68
(dp69
g7
(lp70
(iArchitecture
Entity
p71
(dp72
g11
(lp73
sg13
S'android.filterfw.core.AsyncRunner'
p74
sg15
(lp75
sg17
(lp76
sg19
(lp77
sg21
I0
sba(iArchitecture
Entity
p78
(dp79
g11
(lp80
sg13
S'android.filterfw.core.AsyncRunner$AsyncRunnerTask'
p81
sg15
(lp82
sg17
(lp83
sg19
(lp84
sg21
I0
sba(iArchitecture
Entity
p85
(dp86
g11
(lp87
sg13
S'android.filterfw.core.AsyncRunner$RunnerResult'
p88
sg15
(lp89
sg17
(lp90
sg19
(lp91
sg21
I0
sba(iArchitecture
Entity
p92
(dp93
g11
(lp94
sg13
S'android.filterfw.core.SyncRunner'
p95
sg15
(lp96
sg17
(lp97
sg19
(lp98
sg21
I0
sba(iArchitecture
Entity
p99
(dp100
g11
(lp101
sg13
S'android.filterfw.core.SyncRunner$1'
p102
sg15
(lp103
sg17
(lp104
sg19
(lp105
sg21
I0
sbasg64
(lp106
g74
ag81
ag88
ag95
ag102
asg21
I0
sg66
S'1113'
p107
sba(iArchitecture
Cluster
p108
(dp109
g7
(lp110
(iArchitecture
Entity
p111
(dp112
g11
(lp113
sg13
S'android.opengl.ETC1'
p114
sg15
(lp115
sg17
(lp116
sg19
(lp117
sg21
I0
sbasg64
(lp118
g114
asg21
I0
sg66
S'113'
p119
sba(iArchitecture
Cluster
p120
(dp121
g7
(lp122
(iArchitecture
Entity
p123
(dp124
g11
(lp125
sg13
S'android.view.animation.RotateAnimation'
p126
sg15
(lp127
sg17
(lp128
sg19
(lp129
sg21
I0
sba(iArchitecture
Entity
p130
(dp131
g11
(lp132
sg13
S'android.view.animation.ScaleAnimation'
p133
sg15
(lp134
sg17
(lp135
sg19
(lp136
sg21
I0
sbasg64
(lp137
g126
ag133
asg21
I0
sg66
S'1130'
p138
sba(iArchitecture
Cluster
p139
(dp140
g7
(lp141
(iArchitecture
Entity
p142
(dp143
g11
(lp144
sg13
S'android.app.ActivityTransitionCoordinator'
p145
sg15
(lp146
sg17
(lp147
sg19
(lp148
sg21
I0
sba(iArchitecture
Entity
p149
(dp150
g11
(lp151
sg13
S'android.app.ActivityTransitionCoordinator$1'
p152
sg15
(lp153
sg17
(lp154
sg19
(lp155
sg21
I0
sba(iArchitecture
Entity
p156
(dp157
g11
(lp158
sg13
S'android.app.ActivityTransitionCoordinator$2'
p159
sg15
(lp160
sg17
(lp161
sg19
(lp162
sg21
I0
sba(iArchitecture
Entity
p163
(dp164
g11
(lp165
sg13
S'android.app.ActivityTransitionCoordinator$ContinueTransitionListener'
p166
sg15
(lp167
sg17
(lp168
sg19
(lp169
sg21
I0
sba(iArchitecture
Entity
p170
(dp171
g11
(lp172
sg13
S'android.app.ActivityTransitionCoordinator$FixedEpicenterCallback'
p173
sg15
(lp174
sg17
(lp175
sg19
(lp176
sg21
I0
sba(iArchitecture
Entity
p177
(dp178
g11
(lp179
sg13
S'android.app.ActivityTransitionCoordinator$GhostViewListeners'
p180
sg15
(lp181
sg17
(lp182
sg19
(lp183
sg21
I0
sba(iArchitecture
Entity
p184
(dp185
g11
(lp186
sg13
S'android.app.ActivityTransitionCoordinator$SharedElementOriginalState'
p187
sg15
(lp188
sg17
(lp189
sg19
(lp190
sg21
I0
sba(iArchitecture
Entity
p191
(dp192
g11
(lp193
sg13
S'android.app.EnterTransitionCoordinator'
p194
sg15
(lp195
sg17
(lp196
sg19
(lp197
sg21
I0
sba(iArchitecture
Entity
p198
(dp199
g11
(lp200
sg13
S'android.app.EnterTransitionCoordinator$1'
p201
sg15
(lp202
sg17
(lp203
sg19
(lp204
sg21
I0
sba(iArchitecture
Entity
p205
(dp206
g11
(lp207
sg13
S'android.app.EnterTransitionCoordinator$10'
p208
sg15
(lp209
sg17
(lp210
sg19
(lp211
sg21
I0
sba(iArchitecture
Entity
p212
(dp213
g11
(lp214
sg13
S'android.app.EnterTransitionCoordinator$11'
p215
sg15
(lp216
sg17
(lp217
sg19
(lp218
sg21
I0
sba(iArchitecture
Entity
p219
(dp220
g11
(lp221
sg13
S'android.app.EnterTransitionCoordinator$2'
p222
sg15
(lp223
sg17
(lp224
sg19
(lp225
sg21
I0
sba(iArchitecture
Entity
p226
(dp227
g11
(lp228
sg13
S'android.app.EnterTransitionCoordinator$3'
p229
sg15
(lp230
sg17
(lp231
sg19
(lp232
sg21
I0
sba(iArchitecture
Entity
p233
(dp234
g11
(lp235
sg13
S'android.app.EnterTransitionCoordinator$4'
p236
sg15
(lp237
sg17
(lp238
sg19
(lp239
sg21
I0
sba(iArchitecture
Entity
p240
(dp241
g11
(lp242
sg13
S'android.app.EnterTransitionCoordinator$5'
p243
sg15
(lp244
sg17
(lp245
sg19
(lp246
sg21
I0
sba(iArchitecture
Entity
p247
(dp248
g11
(lp249
sg13
S'android.app.EnterTransitionCoordinator$5$1'
p250
sg15
(lp251
sg17
(lp252
sg19
(lp253
sg21
I0
sba(iArchitecture
Entity
p254
(dp255
g11
(lp256
sg13
S'android.app.EnterTransitionCoordinator$5$1$1'
p257
sg15
(lp258
sg17
(lp259
sg19
(lp260
sg21
I0
sba(iArchitecture
Entity
p261
(dp262
g11
(lp263
sg13
S'android.app.EnterTransitionCoordinator$6'
p264
sg15
(lp265
sg17
(lp266
sg19
(lp267
sg21
I0
sba(iArchitecture
Entity
p268
(dp269
g11
(lp270
sg13
S'android.app.EnterTransitionCoordinator$7'
p271
sg15
(lp272
sg17
(lp273
sg19
(lp274
sg21
I0
sba(iArchitecture
Entity
p275
(dp276
g11
(lp277
sg13
S'android.app.EnterTransitionCoordinator$8'
p278
sg15
(lp279
sg17
(lp280
sg19
(lp281
sg21
I0
sba(iArchitecture
Entity
p282
(dp283
g11
(lp284
sg13
S'android.app.EnterTransitionCoordinator$9'
p285
sg15
(lp286
sg17
(lp287
sg19
(lp288
sg21
I0
sba(iArchitecture
Entity
p289
(dp290
g11
(lp291
sg13
S'android.app.ExitTransitionCoordinator'
p292
sg15
(lp293
sg17
(lp294
sg19
(lp295
sg21
I0
sba(iArchitecture
Entity
p296
(dp297
g11
(lp298
sg13
S'android.app.ExitTransitionCoordinator$1'
p299
sg15
(lp300
sg17
(lp301
sg19
(lp302
sg21
I0
sba(iArchitecture
Entity
p303
(dp304
g11
(lp305
sg13
S'android.app.ExitTransitionCoordinator$10'
p306
sg15
(lp307
sg17
(lp308
sg19
(lp309
sg21
I0
sba(iArchitecture
Entity
p310
(dp311
g11
(lp312
sg13
S'android.app.ExitTransitionCoordinator$11'
p313
sg15
(lp314
sg17
(lp315
sg19
(lp316
sg21
I0
sba(iArchitecture
Entity
p317
(dp318
g11
(lp319
sg13
S'android.app.ExitTransitionCoordinator$2'
p320
sg15
(lp321
sg17
(lp322
sg19
(lp323
sg21
I0
sba(iArchitecture
Entity
p324
(dp325
g11
(lp326
sg13
S'android.app.ExitTransitionCoordinator$3'
p327
sg15
(lp328
sg17
(lp329
sg19
(lp330
sg21
I0
sba(iArchitecture
Entity
p331
(dp332
g11
(lp333
sg13
S'android.app.ExitTransitionCoordinator$4'
p334
sg15
(lp335
sg17
(lp336
sg19
(lp337
sg21
I0
sba(iArchitecture
Entity
p338
(dp339
g11
(lp340
sg13
S'android.app.ExitTransitionCoordinator$5'
p341
sg15
(lp342
sg17
(lp343
sg19
(lp344
sg21
I0
sba(iArchitecture
Entity
p345
(dp346
g11
(lp347
sg13
S'android.app.ExitTransitionCoordinator$6'
p348
sg15
(lp349
sg17
(lp350
sg19
(lp351
sg21
I0
sba(iArchitecture
Entity
p352
(dp353
g11
(lp354
sg13
S'android.app.ExitTransitionCoordinator$7'
p355
sg15
(lp356
sg17
(lp357
sg19
(lp358
sg21
I0
sba(iArchitecture
Entity
p359
(dp360
g11
(lp361
sg13
S'android.app.ExitTransitionCoordinator$8'
p362
sg15
(lp363
sg17
(lp364
sg19
(lp365
sg21
I0
sba(iArchitecture
Entity
p366
(dp367
g11
(lp368
sg13
S'android.app.ExitTransitionCoordinator$9'
p369
sg15
(lp370
sg17
(lp371
sg19
(lp372
sg21
I0
sbasg64
(lp373
g145
ag152
ag159
ag166
ag173
ag180
ag187
ag194
ag201
ag208
ag215
ag222
ag229
ag236
ag243
ag250
ag257
ag264
ag271
ag278
ag285
ag292
ag299
ag306
ag313
ag320
ag327
ag334
ag341
ag348
ag355
ag362
ag369
asg21
I0
sg66
S'1131'
p374
sba(iArchitecture
Cluster
p375
(dp376
g7
(lp377
(iArchitecture
Entity
p378
(dp379
g11
(lp380
sg13
S'com.android.server.wm.CircularDisplayMask'
p381
sg15
(lp382
sg17
(lp383
sg19
(lp384
sg21
I0
sba(iArchitecture
Entity
p385
(dp386
g11
(lp387
sg13
S'com.android.server.wm.EmulatorDisplayOverlay'
p388
sg15
(lp389
sg17
(lp390
sg19
(lp391
sg21
I0
sba(iArchitecture
Entity
p392
(dp393
g11
(lp394
sg13
S'com.android.server.wm.StrictModeFlash'
p395
sg15
(lp396
sg17
(lp397
sg19
(lp398
sg21
I0
sba(iArchitecture
Entity
p399
(dp400
g11
(lp401
sg13
S'com.android.server.wm.Watermark'
p402
sg15
(lp403
sg17
(lp404
sg19
(lp405
sg21
I0
sbasg64
(lp406
g381
ag388
ag395
ag402
asg21
I0
sg66
S'1132'
p407
sba(iArchitecture
Cluster
p408
(dp409
g7
(lp410
(iArchitecture
Entity
p411
(dp412
g11
(lp413
sg13
S'android.bluetooth.le.AdvertiseData'
p414
sg15
(lp415
sg17
(lp416
sg19
(lp417
sg21
I0
sba(iArchitecture
Entity
p418
(dp419
g11
(lp420
sg13
S'android.bluetooth.le.AdvertiseData$1'
p421
sg15
(lp422
sg17
(lp423
sg19
(lp424
sg21
I0
sba(iArchitecture
Entity
p425
(dp426
g11
(lp427
sg13
S'android.bluetooth.le.AdvertiseData$Builder'
p428
sg15
(lp429
sg17
(lp430
sg19
(lp431
sg21
I0
sba(iArchitecture
Entity
p432
(dp433
g11
(lp434
sg13
S'android.bluetooth.le.ScanRecord'
p435
sg15
(lp436
sg17
(lp437
sg19
(lp438
sg21
I0
sbasg64
(lp439
g414
ag421
ag428
ag435
asg21
I0
sg66
S'1133'
p440
sba(iArchitecture
Cluster
p441
(dp442
g7
(lp443
(iArchitecture
Entity
p444
(dp445
g11
(lp446
sg13
S'android.widget.ResourceCursorTreeAdapter'
p447
sg15
(lp448
sg17
(lp449
sg19
(lp450
sg21
I0
sba(iArchitecture
Entity
p451
(dp452
g11
(lp453
sg13
S'android.widget.SimpleCursorTreeAdapter'
p454
sg15
(lp455
sg17
(lp456
sg19
(lp457
sg21
I0
sba(iArchitecture
Entity
p458
(dp459
g11
(lp460
sg13
S'android.widget.SimpleCursorTreeAdapter$ViewBinder'
p461
sg15
(lp462
sg17
(lp463
sg19
(lp464
sg21
I0
sba(iArchitecture
Entity
p465
(dp466
g11
(lp467
sg13
S'android.widget.SimpleExpandableListAdapter'
p468
sg15
(lp469
sg17
(lp470
sg19
(lp471
sg21
I0
sbasg64
(lp472
g447
ag454
ag461
ag468
asg21
I0
sg66
S'1134'
p473
sba(iArchitecture
Cluster
p474
(dp475
g7
(lp476
(iArchitecture
Entity
p477
(dp478
g11
(lp479
sg13
S'android.text.InputType'
p480
sg15
(lp481
sg17
(lp482
sg19
(lp483
sg21
I0
sba(iArchitecture
Entity
p484
(dp485
g11
(lp486
sg13
S'android.view.inputmethod.EditorInfo'
p487
sg15
(lp488
sg17
(lp489
sg19
(lp490
sg21
I0
sba(iArchitecture
Entity
p491
(dp492
g11
(lp493
sg13
S'android.view.inputmethod.EditorInfo$1'
p494
sg15
(lp495
sg17
(lp496
sg19
(lp497
sg21
I0
sbasg64
(lp498
g480
ag487
ag494
asg21
I0
sg66
S'1135'
p499
sba(iArchitecture
Cluster
p500
(dp501
g7
(lp502
(iArchitecture
Entity
p503
(dp504
g11
(lp505
sg13
S'android.hardware.camera2.utils.TaskDrainer'
p506
sg15
(lp507
sg17
(lp508
sg19
(lp509
sg21
I0
sba(iArchitecture
Entity
p510
(dp511
g11
(lp512
sg13
S'android.hardware.camera2.utils.TaskDrainer$1'
p513
sg15
(lp514
sg17
(lp515
sg19
(lp516
sg21
I0
sba(iArchitecture
Entity
p517
(dp518
g11
(lp519
sg13
S'android.hardware.camera2.utils.TaskDrainer$DrainListener'
p520
sg15
(lp521
sg17
(lp522
sg19
(lp523
sg21
I0
sba(iArchitecture
Entity
p524
(dp525
g11
(lp526
sg13
S'android.hardware.camera2.utils.TaskSingleDrainer'
p527
sg15
(lp528
sg17
(lp529
sg19
(lp530
sg21
I0
sbasg64
(lp531
g506
ag513
ag520
ag527
asg21
I0
sg66
S'1136'
p532
sba(iArchitecture
Cluster
p533
(dp534
g7
(lp535
(iArchitecture
Entity
p536
(dp537
g11
(lp538
sg13
S'android.net.netlink.RtNetlinkNeighborMessage'
p539
sg15
(lp540
sg17
(lp541
sg19
(lp542
sg21
I0
sba(iArchitecture
Entity
p543
(dp544
g11
(lp545
sg13
S'android.net.netlink.StructNlAttr'
p546
sg15
(lp547
sg17
(lp548
sg19
(lp549
sg21
I0
sba(iArchitecture
Entity
p550
(dp551
g11
(lp552
sg13
S'android.net.netlink.StructNlMsgHdr'
p553
sg15
(lp554
sg17
(lp555
sg19
(lp556
sg21
I0
sbasg64
(lp557
g539
ag546
ag553
asg21
I0
sg66
S'1137'
p558
sba(iArchitecture
Cluster
p559
(dp560
g7
(lp561
(iArchitecture
Entity
p562
(dp563
g11
(lp564
sg13
S'android.gesture.Gesture'
p565
sg15
(lp566
sg17
(lp567
sg19
(lp568
sg21
I0
sba(iArchitecture
Entity
p569
(dp570
g11
(lp571
sg13
S'android.gesture.Gesture$1'
p572
sg15
(lp573
sg17
(lp574
sg19
(lp575
sg21
I0
sba(iArchitecture
Entity
p576
(dp577
g11
(lp578
sg13
S'android.gesture.GestureStore'
p579
sg15
(lp580
sg17
(lp581
sg19
(lp582
sg21
I0
sbasg64
(lp583
g565
ag572
ag579
asg21
I0
sg66
S'1138'
p584
sba(iArchitecture
Cluster
p585
(dp586
g7
(lp587
(iArchitecture
Entity
p588
(dp589
g11
(lp590
sg13
S'android.opengl.GLES20'
p591
sg15
(lp592
sg17
(lp593
sg19
(lp594
sg21
I0
sba(iArchitecture
Entity
p595
(dp596
g11
(lp597
sg13
S'android.opengl.GLES30'
p598
sg15
(lp599
sg17
(lp600
sg19
(lp601
sg21
I0
sba(iArchitecture
Entity
p602
(dp603
g11
(lp604
sg13
S'android.opengl.GLES31'
p605
sg15
(lp606
sg17
(lp607
sg19
(lp608
sg21
I0
sbasg64
(lp609
g591
ag598
ag605
asg21
I0
sg66
S'1139'
p610
sba(iArchitecture
Cluster
p611
(dp612
g7
(lp613
(iArchitecture
Entity
p614
(dp615
g11
(lp616
sg13
S'android.content.pm.MacAuthenticatedInputStream'
p617
sg15
(lp618
sg17
(lp619
sg19
(lp620
sg21
I0
sba(iArchitecture
Entity
p621
(dp622
g11
(lp623
sg13
S'com.android.server.RandomBlock'
p624
sg15
(lp625
sg17
(lp626
sg19
(lp627
sg21
I0
sbasg64
(lp628
g617
ag624
asg21
I0
sg66
S'1213'
p629
sba(iArchitecture
Cluster
p630
(dp631
g7
(lp632
(iArchitecture
Entity
p633
(dp634
g11
(lp635
sg13
S'android.os.Vibrator'
p636
sg15
(lp637
sg17
(lp638
sg19
(lp639
sg21
I0
sbasg64
(lp640
g636
asg21
I0
sg66
S'13'
p641
sba(iArchitecture
Cluster
p642
(dp643
g7
(lp644
(iArchitecture
Entity
p645
(dp646
g11
(lp647
sg13
S'android.security.keystore.AndroidKeyStoreProvider'
p648
sg15
(lp649
sg17
(lp650
sg19
(lp651
sg21
I0
sbasg64
(lp652
g648
asg21
I0
sg66
S'130'
p653
sba(iArchitecture
Cluster
p654
(dp655
g7
(lp656
(iArchitecture
Entity
p657
(dp658
g11
(lp659
sg13
S'android.graphics.Insets'
p660
sg15
(lp661
sg17
(lp662
sg19
(lp663
sg21
I0
sbasg64
(lp664
g660
asg21
I0
sg66
S'131'
p665
sba(iArchitecture
Cluster
p666
(dp667
g7
(lp668
(iArchitecture
Entity
p669
(dp670
g11
(lp671
sg13
S'com.android.internal.app.AlertActivity'
p672
sg15
(lp673
sg17
(lp674
sg19
(lp675
sg21
I0
sbasg64
(lp676
g672
asg21
I0
sg66
S'132'
p677
sba(iArchitecture
Cluster
p678
(dp679
g7
(lp680
(iArchitecture
Entity
p681
(dp682
g11
(lp683
sg13
S'junit.framework.Test'
p684
sg15
(lp685
sg17
(lp686
sg19
(lp687
sg21
I0
sbasg64
(lp688
g684
asg21
I0
sg66
S'133'
p689
sba(iArchitecture
Cluster
p690
(dp691
g7
(lp692
(iArchitecture
Entity
p693
(dp694
g11
(lp695
sg13
S'android.hardware.soundtrigger.KeyphraseEnrollmentInfo'
p696
sg15
(lp697
sg17
(lp698
sg19
(lp699
sg21
I0
sbasg64
(lp700
g696
asg21
I0
sg66
S'134'
p701
sba(iArchitecture
Cluster
p702
(dp703
g7
(lp704
(iArchitecture
Entity
p705
(dp706
g11
(lp707
sg13
S'android.hardware.camera2.dispatch.MethodNameInvoker'
p708
sg15
(lp709
sg17
(lp710
sg19
(lp711
sg21
I0
sbasg64
(lp712
g708
asg21
I0
sg66
S'135'
p713
sba(iArchitecture
Cluster
p714
(dp715
g7
(lp716
(iArchitecture
Entity
p717
(dp718
g11
(lp719
sg13
S'android.media.AudioDevicePort'
p720
sg15
(lp721
sg17
(lp722
sg19
(lp723
sg21
I0
sbasg64
(lp724
g720
asg21
I0
sg66
S'136'
p725
sba(iArchitecture
Cluster
p726
(dp727
g7
(lp728
(iArchitecture
Entity
p729
(dp730
g11
(lp731
sg13
S'android.opengl.Visibility'
p732
sg15
(lp733
sg17
(lp734
sg19
(lp735
sg21
I0
sbasg64
(lp736
g732
asg21
I0
sg66
S'137'
p737
sba(iArchitecture
Cluster
p738
(dp739
g7
(lp740
(iArchitecture
Entity
p741
(dp742
g11
(lp743
sg13
S'android.os.ConditionVariable'
p744
sg15
(lp745
sg17
(lp746
sg19
(lp747
sg21
I0
sbasg64
(lp748
g744
asg21
I0
sg66
S'138'
p749
sba(iArchitecture
Cluster
p750
(dp751
g7
(lp752
(iArchitecture
Entity
p753
(dp754
g11
(lp755
sg13
S'android.security.NetworkSecurityPolicy'
p756
sg15
(lp757
sg17
(lp758
sg19
(lp759
sg21
I0
sbasg64
(lp760
g756
asg21
I0
sg66
S'139'
p761
sba(iArchitecture
Cluster
p762
(dp763
g7
(lp764
(iArchitecture
Entity
p765
(dp766
g11
(lp767
sg13
S'com.android.server.policy.IconUtilities'
p768
sg15
(lp769
sg17
(lp770
sg19
(lp771
sg21
I0
sbasg64
(lp772
g768
asg21
I0
sg66
S'213'
p773
sba(iArchitecture
Cluster
p774
(dp775
g7
(lp776
(iArchitecture
Entity
p777
(dp778
g11
(lp779
sg13
S'android.view.GhostView'
p780
sg15
(lp781
sg17
(lp782
sg19
(lp783
sg21
I0
sbasg64
(lp784
g780
asg21
I0
sg66
S'313'
p785
sba(iArchitecture
Cluster
p786
(dp787
g7
(lp788
(iArchitecture
Entity
p789
(dp790
g11
(lp791
sg13
S'android.text.format.DateFormat'
p792
sg15
(lp793
sg17
(lp794
sg19
(lp795
sg21
I0
sbasg64
(lp796
g792
asg21
I0
sg66
S'413'
p797
sba(iArchitecture
Cluster
p798
(dp799
g7
(lp800
(iArchitecture
Entity
p801
(dp802
g11
(lp803
sg13
S'android.media.AudioPortEventHandler'
p804
sg15
(lp805
sg17
(lp806
sg19
(lp807
sg21
I0
sba(iArchitecture
Entity
p808
(dp809
g11
(lp810
sg13
S'android.media.AudioPortEventHandler$1'
p811
sg15
(lp812
sg17
(lp813
sg19
(lp814
sg21
I0
sbasg64
(lp815
g804
ag811
asg21
I0
sg66
S'513'
p816
sba(iArchitecture
Cluster
p817
(dp818
g7
(lp819
(iArchitecture
Entity
p820
(dp821
g11
(lp822
sg13
S'com.android.internal.util.CallbackRegistry'
p823
sg15
(lp824
sg17
(lp825
sg19
(lp826
sg21
I0
sba(iArchitecture
Entity
p827
(dp828
g11
(lp829
sg13
S'com.android.internal.util.CallbackRegistry$NotifierCallback'
p830
sg15
(lp831
sg17
(lp832
sg19
(lp833
sg21
I0
sbasg64
(lp834
g823
ag830
asg21
I0
sg66
S'613'
p835
sba(iArchitecture
Cluster
p836
(dp837
g7
(lp838
(iArchitecture
Entity
p839
(dp840
g11
(lp841
sg13
S'android.service.carrier.CarrierIdentifier'
p842
sg15
(lp843
sg17
(lp844
sg19
(lp845
sg21
I0
sba(iArchitecture
Entity
p846
(dp847
g11
(lp848
sg13
S'android.service.carrier.CarrierIdentifier$1'
p849
sg15
(lp850
sg17
(lp851
sg19
(lp852
sg21
I0
sbasg64
(lp853
g842
ag849
asg21
I0
sg66
S'713'
p854
sba(iArchitecture
Cluster
p855
(dp856
g7
(lp857
(iArchitecture
Entity
p858
(dp859
g11
(lp860
sg13
S'android.location.GpsNavigationMessageEvent'
p861
sg15
(lp862
sg17
(lp863
sg19
(lp864
sg21
I0
sba(iArchitecture
Entity
p865
(dp866
g11
(lp867
sg13
S'android.location.GpsNavigationMessageEvent$1'
p868
sg15
(lp869
sg17
(lp870
sg19
(lp871
sg21
I0
sba(iArchitecture
Entity
p872
(dp873
g11
(lp874
sg13
S'android.location.GpsNavigationMessageEvent$Listener'
p875
sg15
(lp876
sg17
(lp877
sg19
(lp878
sg21
I0
sbasg64
(lp879
g861
ag868
ag875
asg21
I0
sg66
S'813'
p880
sba(iArchitecture
Cluster
p881
(dp882
g7
(lp883
(iArchitecture
Entity
p884
(dp885
g11
(lp886
sg13
S'com.android.internal.widget.AutoScrollHelper'
p887
sg15
(lp888
sg17
(lp889
sg19
(lp890
sg21
I0
sba(iArchitecture
Entity
p891
(dp892
g11
(lp893
sg13
S'com.android.internal.widget.AutoScrollHelper$AbsListViewAutoScroller'
p894
sg15
(lp895
sg17
(lp896
sg19
(lp897
sg21
I0
sba(iArchitecture
Entity
p898
(dp899
g11
(lp900
sg13
S'com.android.internal.widget.AutoScrollHelper$ClampedScroller'
p901
sg15
(lp902
sg17
(lp903
sg19
(lp904
sg21
I0
sba(iArchitecture
Entity
p905
(dp906
g11
(lp907
sg13
S'com.android.internal.widget.AutoScrollHelper$ScrollAnimationRunnable'
p908
sg15
(lp909
sg17
(lp910
sg19
(lp911
sg21
I0
sbasg64
(lp912
g887
ag894
ag901
ag908
asg21
I0
sg66
S'913'
p913
sbasS'target_sub'
p914
S'13'
p915
sg64
(lp916
sS'is_component_arch'
p917
I01
sg66
S'6.0.0_r1'
p918
sba.