(lp0
(iArchitecture
Architecture
p1
(dp2
S'clusters'
p3
(lp4
(iArchitecture
Cluster
p5
(dp6
S'entities'
p7
(lp8
(iArchitecture
Entity
p9
(dp10
S'issue_ids'
p11
(lp12
sS'name'
p13
S'com.android.server.Watchdog'
p14
sS'descs'
p15
(lp16
sS'labels'
p17
(lp18
sS'titles'
p19
(lp20
sS'change'
p21
I0
sba(iArchitecture
Entity
p22
(dp23
g11
(lp24
sg13
S'com.android.server.Watchdog$1'
p25
sg15
(lp26
sg17
(lp27
sg19
(lp28
sg21
I0
sba(iArchitecture
Entity
p29
(dp30
g11
(lp31
sg13
S'com.android.server.Watchdog$BinderThreadMonitor'
p32
sg15
(lp33
sg17
(lp34
sg19
(lp35
sg21
I0
sba(iArchitecture
Entity
p36
(dp37
g11
(lp38
sg13
S'com.android.server.Watchdog$HandlerChecker'
p39
sg15
(lp40
sg17
(lp41
sg19
(lp42
sg21
I0
sba(iArchitecture
Entity
p43
(dp44
g11
(lp45
sg13
S'com.android.server.Watchdog$Monitor'
p46
sg15
(lp47
sg17
(lp48
sg19
(lp49
sg21
I0
sba(iArchitecture
Entity
p50
(dp51
g11
(lp52
sg13
S'com.android.server.Watchdog$RebootRequestReceiver'
p53
sg15
(lp54
sg17
(lp55
sg19
(lp56
sg21
I0
sbasS'classes'
p57
(lp58
g14
ag25
ag32
ag39
ag46
ag53
asg21
I0
sS'label'
p59
S'1018'
p60
sba(iArchitecture
Cluster
p61
(dp62
g7
(lp63
(iArchitecture
Entity
p64
(dp65
g11
(lp66
sg13
S'android.transition.ChangeImageTransform'
p67
sg15
(lp68
sg17
(lp69
sg19
(lp70
sg21
I0
sba(iArchitecture
Entity
p71
(dp72
g11
(lp73
sg13
S'android.transition.ChangeImageTransform$1'
p74
sg15
(lp75
sg17
(lp76
sg19
(lp77
sg21
I0
sba(iArchitecture
Entity
p78
(dp79
g11
(lp80
sg13
S'android.transition.ChangeImageTransform$2'
p81
sg15
(lp82
sg17
(lp83
sg19
(lp84
sg21
I0
sba(iArchitecture
Entity
p85
(dp86
g11
(lp87
sg13
S'android.transition.TransitionUtils'
p88
sg15
(lp89
sg17
(lp90
sg19
(lp91
sg21
I0
sba(iArchitecture
Entity
p92
(dp93
g11
(lp94
sg13
S'android.transition.TransitionUtils$MatrixEvaluator'
p95
sg15
(lp96
sg17
(lp97
sg19
(lp98
sg21
I0
sbasg57
(lp99
g67
ag74
ag81
ag88
ag95
asg21
I0
sg59
S'1118'
p100
sba(iArchitecture
Cluster
p101
(dp102
g7
(lp103
(iArchitecture
Entity
p104
(dp105
g11
(lp106
sg13
S'android.view.ViewHierarchyEncoder'
p107
sg15
(lp108
sg17
(lp109
sg19
(lp110
sg21
I0
sbasg57
(lp111
g107
asg21
I0
sg59
S'118'
p112
sba(iArchitecture
Cluster
p113
(dp114
g7
(lp115
(iArchitecture
Entity
p116
(dp117
g11
(lp118
sg13
S'com.android.server.dreams.DreamController'
p119
sg15
(lp120
sg17
(lp121
sg19
(lp122
sg21
I0
sba(iArchitecture
Entity
p123
(dp124
g11
(lp125
sg13
S'com.android.server.dreams.DreamController$1'
p126
sg15
(lp127
sg17
(lp128
sg19
(lp129
sg21
I0
sba(iArchitecture
Entity
p130
(dp131
g11
(lp132
sg13
S'com.android.server.dreams.DreamController$2'
p133
sg15
(lp134
sg17
(lp135
sg19
(lp136
sg21
I0
sba(iArchitecture
Entity
p137
(dp138
g11
(lp139
sg13
S'com.android.server.dreams.DreamController$3'
p140
sg15
(lp141
sg17
(lp142
sg19
(lp143
sg21
I0
sba(iArchitecture
Entity
p144
(dp145
g11
(lp146
sg13
S'com.android.server.dreams.DreamController$DreamRecord'
p147
sg15
(lp148
sg17
(lp149
sg19
(lp150
sg21
I0
sba(iArchitecture
Entity
p151
(dp152
g11
(lp153
sg13
S'com.android.server.dreams.DreamController$DreamRecord$1'
p154
sg15
(lp155
sg17
(lp156
sg19
(lp157
sg21
I0
sba(iArchitecture
Entity
p158
(dp159
g11
(lp160
sg13
S'com.android.server.dreams.DreamController$DreamRecord$2'
p161
sg15
(lp162
sg17
(lp163
sg19
(lp164
sg21
I0
sba(iArchitecture
Entity
p165
(dp166
g11
(lp167
sg13
S'com.android.server.dreams.DreamController$DreamRecord$3'
p168
sg15
(lp169
sg17
(lp170
sg19
(lp171
sg21
I0
sba(iArchitecture
Entity
p172
(dp173
g11
(lp174
sg13
S'com.android.server.dreams.DreamController$Listener'
p175
sg15
(lp176
sg17
(lp177
sg19
(lp178
sg21
I0
sba(iArchitecture
Entity
p179
(dp180
g11
(lp181
sg13
S'com.android.server.dreams.DreamManagerService'
p182
sg15
(lp183
sg17
(lp184
sg19
(lp185
sg21
I0
sba(iArchitecture
Entity
p186
(dp187
g11
(lp188
sg13
S'com.android.server.dreams.DreamManagerService$1'
p189
sg15
(lp190
sg17
(lp191
sg19
(lp192
sg21
I0
sba(iArchitecture
Entity
p193
(dp194
g11
(lp195
sg13
S'com.android.server.dreams.DreamManagerService$2'
p196
sg15
(lp197
sg17
(lp198
sg19
(lp199
sg21
I0
sba(iArchitecture
Entity
p200
(dp201
g11
(lp202
sg13
S'com.android.server.dreams.DreamManagerService$3'
p203
sg15
(lp204
sg17
(lp205
sg19
(lp206
sg21
I0
sba(iArchitecture
Entity
p207
(dp208
g11
(lp209
sg13
S'com.android.server.dreams.DreamManagerService$4'
p210
sg15
(lp211
sg17
(lp212
sg19
(lp213
sg21
I0
sba(iArchitecture
Entity
p214
(dp215
g11
(lp216
sg13
S'com.android.server.dreams.DreamManagerService$5'
p217
sg15
(lp218
sg17
(lp219
sg19
(lp220
sg21
I0
sba(iArchitecture
Entity
p221
(dp222
g11
(lp223
sg13
S'com.android.server.dreams.DreamManagerService$6'
p224
sg15
(lp225
sg17
(lp226
sg19
(lp227
sg21
I0
sba(iArchitecture
Entity
p228
(dp229
g11
(lp230
sg13
S'com.android.server.dreams.DreamManagerService$BinderService'
p231
sg15
(lp232
sg17
(lp233
sg19
(lp234
sg21
I0
sba(iArchitecture
Entity
p235
(dp236
g11
(lp237
sg13
S'com.android.server.dreams.DreamManagerService$DreamHandler'
p238
sg15
(lp239
sg17
(lp240
sg19
(lp241
sg21
I0
sba(iArchitecture
Entity
p242
(dp243
g11
(lp244
sg13
S'com.android.server.dreams.DreamManagerService$LocalService'
p245
sg15
(lp246
sg17
(lp247
sg19
(lp248
sg21
I0
sbasg57
(lp249
g119
ag126
ag133
ag140
ag147
ag154
ag161
ag168
ag175
ag182
ag189
ag196
ag203
ag210
ag217
ag224
ag231
ag238
ag245
asg21
I0
sg59
S'1180'
p250
sba(iArchitecture
Cluster
p251
(dp252
g7
(lp253
(iArchitecture
Entity
p254
(dp255
g11
(lp256
sg13
S'android.net.PacProxySelector'
p257
sg15
(lp258
sg17
(lp259
sg19
(lp260
sg21
I0
sba(iArchitecture
Entity
p261
(dp262
g11
(lp263
sg13
S'android.net.Proxy'
p264
sg15
(lp265
sg17
(lp266
sg19
(lp267
sg21
I0
sba(iArchitecture
Entity
p268
(dp269
g11
(lp270
sg13
S'com.android.server.DockObserver'
p271
sg15
(lp272
sg17
(lp273
sg19
(lp274
sg21
I0
sba(iArchitecture
Entity
p275
(dp276
g11
(lp277
sg13
S'com.android.server.DockObserver$1'
p278
sg15
(lp279
sg17
(lp280
sg19
(lp281
sg21
I0
sba(iArchitecture
Entity
p282
(dp283
g11
(lp284
sg13
S'com.android.server.DockObserver$2'
p285
sg15
(lp286
sg17
(lp287
sg19
(lp288
sg21
I0
sba(iArchitecture
Entity
p289
(dp290
g11
(lp291
sg13
S'com.android.server.DockObserver$BinderService'
p292
sg15
(lp293
sg17
(lp294
sg19
(lp295
sg21
I0
sba(iArchitecture
Entity
p296
(dp297
g11
(lp298
sg13
S'com.android.server.connectivity.PacManager'
p299
sg15
(lp300
sg17
(lp301
sg19
(lp302
sg21
I0
sba(iArchitecture
Entity
p303
(dp304
g11
(lp305
sg13
S'com.android.server.connectivity.PacManager$1'
p306
sg15
(lp307
sg17
(lp308
sg19
(lp309
sg21
I0
sba(iArchitecture
Entity
p310
(dp311
g11
(lp312
sg13
S'com.android.server.connectivity.PacManager$2'
p313
sg15
(lp314
sg17
(lp315
sg19
(lp316
sg21
I0
sba(iArchitecture
Entity
p317
(dp318
g11
(lp319
sg13
S'com.android.server.connectivity.PacManager$3'
p320
sg15
(lp321
sg17
(lp322
sg19
(lp323
sg21
I0
sba(iArchitecture
Entity
p324
(dp325
g11
(lp326
sg13
S'com.android.server.connectivity.PacManager$3$1'
p327
sg15
(lp328
sg17
(lp329
sg19
(lp330
sg21
I0
sba(iArchitecture
Entity
p331
(dp332
g11
(lp333
sg13
S'com.android.server.connectivity.PacManager$PacRefreshIntentReceiver'
p334
sg15
(lp335
sg17
(lp336
sg19
(lp337
sg21
I0
sbasg57
(lp338
g257
ag264
ag271
ag278
ag285
ag292
ag299
ag306
ag313
ag320
ag327
ag334
asg21
I0
sg59
S'1181'
p339
sba(iArchitecture
Cluster
p340
(dp341
g7
(lp342
(iArchitecture
Entity
p343
(dp344
g11
(lp345
sg13
S'android.widget.ZoomButton'
p346
sg15
(lp347
sg17
(lp348
sg19
(lp349
sg21
I0
sba(iArchitecture
Entity
p350
(dp351
g11
(lp352
sg13
S'android.widget.ZoomButton$1'
p353
sg15
(lp354
sg17
(lp355
sg19
(lp356
sg21
I0
sba(iArchitecture
Entity
p357
(dp358
g11
(lp359
sg13
S'android.widget.ZoomControls'
p360
sg15
(lp361
sg17
(lp362
sg19
(lp363
sg21
I0
sbasg57
(lp364
g346
ag353
ag360
asg21
I0
sg59
S'1182'
p365
sba(iArchitecture
Cluster
p366
(dp367
g7
(lp368
(iArchitecture
Entity
p369
(dp370
g11
(lp371
sg13
S'android.content.UndoManager'
p372
sg15
(lp373
sg17
(lp374
sg19
(lp375
sg21
I0
sba(iArchitecture
Entity
p376
(dp377
g11
(lp378
sg13
S'android.content.UndoManager$UndoState'
p379
sg15
(lp380
sg17
(lp381
sg19
(lp382
sg21
I0
sba(iArchitecture
Entity
p383
(dp384
g11
(lp385
sg13
S'android.inputmethodservice.Keyboard'
p386
sg15
(lp387
sg17
(lp388
sg19
(lp389
sg21
I0
sba(iArchitecture
Entity
p390
(dp391
g11
(lp392
sg13
S'android.inputmethodservice.Keyboard$Key'
p393
sg15
(lp394
sg17
(lp395
sg19
(lp396
sg21
I0
sba(iArchitecture
Entity
p397
(dp398
g11
(lp399
sg13
S'android.inputmethodservice.Keyboard$Row'
p400
sg15
(lp401
sg17
(lp402
sg19
(lp403
sg21
I0
sba(iArchitecture
Entity
p404
(dp405
g11
(lp406
sg13
S'android.inputmethodservice.KeyboardView'
p407
sg15
(lp408
sg17
(lp409
sg19
(lp410
sg21
I0
sba(iArchitecture
Entity
p411
(dp412
g11
(lp413
sg13
S'android.inputmethodservice.KeyboardView$1'
p414
sg15
(lp415
sg17
(lp416
sg19
(lp417
sg21
I0
sba(iArchitecture
Entity
p418
(dp419
g11
(lp420
sg13
S'android.inputmethodservice.KeyboardView$2'
p421
sg15
(lp422
sg17
(lp423
sg19
(lp424
sg21
I0
sba(iArchitecture
Entity
p425
(dp426
g11
(lp427
sg13
S'android.inputmethodservice.KeyboardView$3'
p428
sg15
(lp429
sg17
(lp430
sg19
(lp431
sg21
I0
sba(iArchitecture
Entity
p432
(dp433
g11
(lp434
sg13
S'android.inputmethodservice.KeyboardView$OnKeyboardActionListener'
p435
sg15
(lp436
sg17
(lp437
sg19
(lp438
sg21
I0
sba(iArchitecture
Entity
p439
(dp440
g11
(lp441
sg13
S'android.inputmethodservice.KeyboardView$SwipeTracker'
p442
sg15
(lp443
sg17
(lp444
sg19
(lp445
sg21
I0
sba(iArchitecture
Entity
p446
(dp447
g11
(lp448
sg13
S'android.view.inputmethod.BaseInputConnection'
p449
sg15
(lp450
sg17
(lp451
sg19
(lp452
sg21
I0
sba(iArchitecture
Entity
p453
(dp454
g11
(lp455
sg13
S'android.widget.AbsSeekBar'
p456
sg15
(lp457
sg17
(lp458
sg19
(lp459
sg21
I0
sba(iArchitecture
Entity
p460
(dp461
g11
(lp462
sg13
S'android.widget.Switch'
p463
sg15
(lp464
sg17
(lp465
sg19
(lp466
sg21
I0
sba(iArchitecture
Entity
p467
(dp468
g11
(lp469
sg13
S'android.widget.Switch$1'
p470
sg15
(lp471
sg17
(lp472
sg19
(lp473
sg21
I0
sbasg57
(lp474
g372
ag379
ag386
ag393
ag400
ag407
ag414
ag421
ag428
ag435
ag442
ag449
ag456
ag463
ag470
asg21
I0
sg59
S'1183'
p475
sba(iArchitecture
Cluster
p476
(dp477
g7
(lp478
(iArchitecture
Entity
p479
(dp480
g11
(lp481
sg13
S'android.view.ViewGroupOverlay'
p482
sg15
(lp483
sg17
(lp484
sg19
(lp485
sg21
I0
sba(iArchitecture
Entity
p486
(dp487
g11
(lp488
sg13
S'android.webkit.WebViewFragment'
p489
sg15
(lp490
sg17
(lp491
sg19
(lp492
sg21
I0
sbasg57
(lp493
g482
ag489
asg21
I0
sg59
S'1184'
p494
sba(iArchitecture
Cluster
p495
(dp496
g7
(lp497
(iArchitecture
Entity
p498
(dp499
g11
(lp500
sg13
S'android.graphics.drawable.AnimatedRotateDrawable'
p501
sg15
(lp502
sg17
(lp503
sg19
(lp504
sg21
I0
sba(iArchitecture
Entity
p505
(dp506
g11
(lp507
sg13
S'android.graphics.drawable.AnimatedRotateDrawable$1'
p508
sg15
(lp509
sg17
(lp510
sg19
(lp511
sg21
I0
sba(iArchitecture
Entity
p512
(dp513
g11
(lp514
sg13
S'android.graphics.drawable.AnimatedRotateDrawable$AnimatedRotateState'
p515
sg15
(lp516
sg17
(lp517
sg19
(lp518
sg21
I0
sba(iArchitecture
Entity
p519
(dp520
g11
(lp521
sg13
S'android.util.StateSet'
p522
sg15
(lp523
sg17
(lp524
sg19
(lp525
sg21
I0
sbasg57
(lp526
g501
ag508
ag515
ag522
asg21
I0
sg59
S'1185'
p527
sba(iArchitecture
Cluster
p528
(dp529
g7
(lp530
(iArchitecture
Entity
p531
(dp532
g11
(lp533
sg13
S'android.content.SyncAdapterType'
p534
sg15
(lp535
sg17
(lp536
sg19
(lp537
sg21
I0
sba(iArchitecture
Entity
p538
(dp539
g11
(lp540
sg13
S'android.content.SyncAdapterType$1'
p541
sg15
(lp542
sg17
(lp543
sg19
(lp544
sg21
I0
sba(iArchitecture
Entity
p545
(dp546
g11
(lp547
sg13
S'android.content.SyncAdaptersCache'
p548
sg15
(lp549
sg17
(lp550
sg19
(lp551
sg21
I0
sba(iArchitecture
Entity
p552
(dp553
g11
(lp554
sg13
S'android.content.SyncAdaptersCache$MySerializer'
p555
sg15
(lp556
sg17
(lp557
sg19
(lp558
sg21
I0
sbasg57
(lp559
g534
ag541
ag548
ag555
asg21
I0
sg59
S'1186'
p560
sba(iArchitecture
Cluster
p561
(dp562
g7
(lp563
(iArchitecture
Entity
p564
(dp565
g11
(lp566
sg13
S'android.hardware.camera2.marshal.impl.MarshalQueryableHighSpeedVideoConfiguration'
p567
sg15
(lp568
sg17
(lp569
sg19
(lp570
sg21
I0
sba(iArchitecture
Entity
p571
(dp572
g11
(lp573
sg13
S'android.hardware.camera2.marshal.impl.MarshalQueryableHighSpeedVideoConfiguration$MarshalerHighSpeedVideoConfiguration'
p574
sg15
(lp575
sg17
(lp576
sg19
(lp577
sg21
I0
sba(iArchitecture
Entity
p578
(dp579
g11
(lp580
sg13
S'android.hardware.camera2.params.HighSpeedVideoConfiguration'
p581
sg15
(lp582
sg17
(lp583
sg19
(lp584
sg21
I0
sbasg57
(lp585
g567
ag574
ag581
asg21
I0
sg59
S'1187'
p586
sba(iArchitecture
Cluster
p587
(dp588
g7
(lp589
(iArchitecture
Entity
p590
(dp591
g11
(lp592
sg13
S'com.android.server.audio.FocusRequester'
p593
sg15
(lp594
sg17
(lp595
sg19
(lp596
sg21
I0
sba(iArchitecture
Entity
p597
(dp598
g11
(lp599
sg13
S'com.android.server.audio.MediaFocusControl'
p600
sg15
(lp601
sg17
(lp602
sg19
(lp603
sg21
I0
sba(iArchitecture
Entity
p604
(dp605
g11
(lp606
sg13
S'com.android.server.audio.MediaFocusControl$1'
p607
sg15
(lp608
sg17
(lp609
sg19
(lp610
sg21
I0
sba(iArchitecture
Entity
p611
(dp612
g11
(lp613
sg13
S'com.android.server.audio.MediaFocusControl$2'
p614
sg15
(lp615
sg17
(lp616
sg19
(lp617
sg21
I0
sba(iArchitecture
Entity
p618
(dp619
g11
(lp620
sg13
S'com.android.server.audio.MediaFocusControl$3'
p621
sg15
(lp622
sg17
(lp623
sg19
(lp624
sg21
I0
sba(iArchitecture
Entity
p625
(dp626
g11
(lp627
sg13
S'com.android.server.audio.MediaFocusControl$AudioFocusDeathHandler'
p628
sg15
(lp629
sg17
(lp630
sg19
(lp631
sg21
I0
sba(iArchitecture
Entity
p632
(dp633
g11
(lp634
sg13
S'com.android.server.audio.MediaFocusControl$DisplayInfoForServer'
p635
sg15
(lp636
sg17
(lp637
sg19
(lp638
sg21
I0
sba(iArchitecture
Entity
p639
(dp640
g11
(lp641
sg13
S'com.android.server.audio.MediaFocusControl$MediaEventHandler'
p642
sg15
(lp643
sg17
(lp644
sg19
(lp645
sg21
I0
sba(iArchitecture
Entity
p646
(dp647
g11
(lp648
sg13
S'com.android.server.audio.MediaFocusControl$NotificationListenerObserver'
p649
sg15
(lp650
sg17
(lp651
sg19
(lp652
sg21
I0
sbasg57
(lp653
g593
ag600
ag607
ag614
ag621
ag628
ag635
ag642
ag649
asg21
I0
sg59
S'1188'
p654
sba(iArchitecture
Cluster
p655
(dp656
g7
(lp657
(iArchitecture
Entity
p658
(dp659
g11
(lp660
sg13
S'android.database.sqlite.SqliteWrapper'
p661
sg15
(lp662
sg17
(lp663
sg19
(lp664
sg21
I0
sba(iArchitecture
Entity
p665
(dp666
g11
(lp667
sg13
S'android.hardware.SerialManager'
p668
sg15
(lp669
sg17
(lp670
sg19
(lp671
sg21
I0
sba(iArchitecture
Entity
p672
(dp673
g11
(lp674
sg13
S'com.android.internal.widget.LinearLayoutWithDefaultTouchRecepient'
p675
sg15
(lp676
sg17
(lp677
sg19
(lp678
sg21
I0
sba(iArchitecture
Entity
p679
(dp680
g11
(lp681
sg13
S'com.android.server.SerialService'
p682
sg15
(lp683
sg17
(lp684
sg19
(lp685
sg21
I0
sbasg57
(lp686
g661
ag668
ag675
ag682
asg21
I0
sg59
S'1189'
p687
sba(iArchitecture
Cluster
p688
(dp689
g7
(lp690
(iArchitecture
Entity
p691
(dp692
g11
(lp693
sg13
S'android.net.NetworkCapabilities'
p694
sg15
(lp695
sg17
(lp696
sg19
(lp697
sg21
I0
sba(iArchitecture
Entity
p698
(dp699
g11
(lp700
sg13
S'android.net.NetworkCapabilities$1'
p701
sg15
(lp702
sg17
(lp703
sg19
(lp704
sg21
I0
sba(iArchitecture
Entity
p705
(dp706
g11
(lp707
sg13
S'android.net.NetworkFactory'
p708
sg15
(lp709
sg17
(lp710
sg19
(lp711
sg21
I0
sba(iArchitecture
Entity
p712
(dp713
g11
(lp714
sg13
S'android.net.NetworkFactory$NetworkRequestInfo'
p715
sg15
(lp716
sg17
(lp717
sg19
(lp718
sg21
I0
sba(iArchitecture
Entity
p719
(dp720
g11
(lp721
sg13
S'android.net.NetworkRequest'
p722
sg15
(lp723
sg17
(lp724
sg19
(lp725
sg21
I0
sba(iArchitecture
Entity
p726
(dp727
g11
(lp728
sg13
S'android.net.NetworkRequest$1'
p729
sg15
(lp730
sg17
(lp731
sg19
(lp732
sg21
I0
sba(iArchitecture
Entity
p733
(dp734
g11
(lp735
sg13
S'android.net.NetworkRequest$Builder'
p736
sg15
(lp737
sg17
(lp738
sg19
(lp739
sg21
I0
sbasg57
(lp740
g694
ag701
ag708
ag715
ag722
ag729
ag736
asg21
I0
sg59
S'1218'
p741
sba(iArchitecture
Cluster
p742
(dp743
g7
(lp744
(iArchitecture
Entity
p745
(dp746
g11
(lp747
sg13
S'android.app.FragmentController'
p748
sg15
(lp749
sg17
(lp750
sg19
(lp751
sg21
I0
sbasg57
(lp752
g748
asg21
I0
sg59
S'18'
p753
sba(iArchitecture
Cluster
p754
(dp755
g7
(lp756
(iArchitecture
Entity
p757
(dp758
g11
(lp759
sg13
S'android.content.pm.LimitedLengthInputStream'
p760
sg15
(lp761
sg17
(lp762
sg19
(lp763
sg21
I0
sbasg57
(lp764
g760
asg21
I0
sg59
S'180'
p765
sba(iArchitecture
Cluster
p766
(dp767
g7
(lp768
(iArchitecture
Entity
p769
(dp770
g11
(lp771
sg13
S'com.android.server.notification.NotificationComparator'
p772
sg15
(lp773
sg17
(lp774
sg19
(lp775
sg21
I0
sbasg57
(lp776
g772
asg21
I0
sg59
S'181'
p777
sba(iArchitecture
Cluster
p778
(dp779
g7
(lp780
(iArchitecture
Entity
p781
(dp782
g11
(lp783
sg13
S'android.widget.ScrollBarDrawable'
p784
sg15
(lp785
sg17
(lp786
sg19
(lp787
sg21
I0
sbasg57
(lp788
g784
asg21
I0
sg59
S'182'
p789
sba(iArchitecture
Cluster
p790
(dp791
g7
(lp792
(iArchitecture
Entity
p793
(dp794
g11
(lp795
sg13
S'android.net.TrafficStats'
p796
sg15
(lp797
sg17
(lp798
sg19
(lp799
sg21
I0
sbasg57
(lp800
g796
asg21
I0
sg59
S'183'
p801
sba(iArchitecture
Cluster
p802
(dp803
g7
(lp804
(iArchitecture
Entity
p805
(dp806
g11
(lp807
sg13
S'android.text.TextPaint'
p808
sg15
(lp809
sg17
(lp810
sg19
(lp811
sg21
I0
sbasg57
(lp812
g808
asg21
I0
sg59
S'184'
p813
sba(iArchitecture
Cluster
p814
(dp815
g7
(lp816
(iArchitecture
Entity
p817
(dp818
g11
(lp819
sg13
S'android.util.TimingLogger'
p820
sg15
(lp821
sg17
(lp822
sg19
(lp823
sg21
I0
sbasg57
(lp824
g820
asg21
I0
sg59
S'185'
p825
sba(iArchitecture
Cluster
p826
(dp827
g7
(lp828
(iArchitecture
Entity
p829
(dp830
g11
(lp831
sg13
S'android.text.Hyphenator'
p832
sg15
(lp833
sg17
(lp834
sg19
(lp835
sg21
I0
sbasg57
(lp836
g832
asg21
I0
sg59
S'186'
p837
sba(iArchitecture
Cluster
p838
(dp839
g7
(lp840
(iArchitecture
Entity
p841
(dp842
g11
(lp843
sg13
S'com.android.server.policy.keyguard.KeyguardStateMonitor'
p844
sg15
(lp845
sg17
(lp846
sg19
(lp847
sg21
I0
sbasg57
(lp848
g844
asg21
I0
sg59
S'187'
p849
sba(iArchitecture
Cluster
p850
(dp851
g7
(lp852
(iArchitecture
Entity
p853
(dp854
g11
(lp855
sg13
S'android.net.http.SslError'
p856
sg15
(lp857
sg17
(lp858
sg19
(lp859
sg21
I0
sbasg57
(lp860
g856
asg21
I0
sg59
S'188'
p861
sba(iArchitecture
Cluster
p862
(dp863
g7
(lp864
(iArchitecture
Entity
p865
(dp866
g11
(lp867
sg13
S'android.speech.RecognizerIntent'
p868
sg15
(lp869
sg17
(lp870
sg19
(lp871
sg21
I0
sbasg57
(lp872
g868
asg21
I0
sg59
S'189'
p873
sba(iArchitecture
Cluster
p874
(dp875
g7
(lp876
(iArchitecture
Entity
p877
(dp878
g11
(lp879
sg13
S'android.security.Credentials'
p880
sg15
(lp881
sg17
(lp882
sg19
(lp883
sg21
I0
sbasg57
(lp884
g880
asg21
I0
sg59
S'218'
p885
sba(iArchitecture
Cluster
p886
(dp887
g7
(lp888
(iArchitecture
Entity
p889
(dp890
g11
(lp891
sg13
S'android.filterfw.format.PrimitiveFormat'
p892
sg15
(lp893
sg17
(lp894
sg19
(lp895
sg21
I0
sbasg57
(lp896
g892
asg21
I0
sg59
S'318'
p897
sba(iArchitecture
Cluster
p898
(dp899
g7
(lp900
(iArchitecture
Entity
p901
(dp902
g11
(lp903
sg13
S'android.telephony.CellSignalStrength'
p904
sg15
(lp905
sg17
(lp906
sg19
(lp907
sg21
I0
sbasg57
(lp908
g904
asg21
I0
sg59
S'418'
p909
sba(iArchitecture
Cluster
p910
(dp911
g7
(lp912
(iArchitecture
Entity
p913
(dp914
g11
(lp915
sg13
S'android.media.VolumePolicy'
p916
sg15
(lp917
sg17
(lp918
sg19
(lp919
sg21
I0
sba(iArchitecture
Entity
p920
(dp921
g11
(lp922
sg13
S'android.media.VolumePolicy$1'
p923
sg15
(lp924
sg17
(lp925
sg19
(lp926
sg21
I0
sbasg57
(lp927
g916
ag923
asg21
I0
sg59
S'518'
p928
sba(iArchitecture
Cluster
p929
(dp930
g7
(lp931
(iArchitecture
Entity
p932
(dp933
g11
(lp934
sg13
S'android.net.RssiCurve'
p935
sg15
(lp936
sg17
(lp937
sg19
(lp938
sg21
I0
sba(iArchitecture
Entity
p939
(dp940
g11
(lp941
sg13
S'android.net.RssiCurve$1'
p942
sg15
(lp943
sg17
(lp944
sg19
(lp945
sg21
I0
sbasg57
(lp946
g935
ag942
asg21
I0
sg59
S'618'
p947
sba(iArchitecture
Cluster
p948
(dp949
g7
(lp950
(iArchitecture
Entity
p951
(dp952
g11
(lp953
sg13
S'android.os.FileBridge'
p954
sg15
(lp955
sg17
(lp956
sg19
(lp957
sg21
I0
sba(iArchitecture
Entity
p958
(dp959
g11
(lp960
sg13
S'android.os.FileBridge$FileBridgeOutputStream'
p961
sg15
(lp962
sg17
(lp963
sg19
(lp964
sg21
I0
sbasg57
(lp965
g954
ag961
asg21
I0
sg59
S'718'
p966
sba(iArchitecture
Cluster
p967
(dp968
g7
(lp969
(iArchitecture
Entity
p970
(dp971
g11
(lp972
sg13
S'android.hardware.camera2.utils.TypeReference'
p973
sg15
(lp974
sg17
(lp975
sg19
(lp976
sg21
I0
sba(iArchitecture
Entity
p977
(dp978
g11
(lp979
sg13
S'android.hardware.camera2.utils.TypeReference$SpecializedBaseTypeReference'
p980
sg15
(lp981
sg17
(lp982
sg19
(lp983
sg21
I0
sba(iArchitecture
Entity
p984
(dp985
g11
(lp986
sg13
S'android.hardware.camera2.utils.TypeReference$SpecializedTypeReference'
p987
sg15
(lp988
sg17
(lp989
sg19
(lp990
sg21
I0
sbasg57
(lp991
g973
ag980
ag987
asg21
I0
sg59
S'818'
p992
sba(iArchitecture
Cluster
p993
(dp994
g7
(lp995
(iArchitecture
Entity
p996
(dp997
g11
(lp998
sg13
S'android.net.LinkProperties'
p999
sg15
(lp1000
sg17
(lp1001
sg19
(lp1002
sg21
I0
sba(iArchitecture
Entity
p1003
(dp1004
g11
(lp1005
sg13
S'android.net.LinkProperties$1'
p1006
sg15
(lp1007
sg17
(lp1008
sg19
(lp1009
sg21
I0
sba(iArchitecture
Entity
p1010
(dp1011
g11
(lp1012
sg13
S'android.net.LinkProperties$CompareResult'
p1013
sg15
(lp1014
sg17
(lp1015
sg19
(lp1016
sg21
I0
sba(iArchitecture
Entity
p1017
(dp1018
g11
(lp1019
sg13
S'android.net.LinkProperties$ProvisioningChange'
p1020
sg15
(lp1021
sg17
(lp1022
sg19
(lp1023
sg21
I0
sbasg57
(lp1024
g999
ag1006
ag1013
ag1020
asg21
I0
sg59
S'918'
p1025
sbasS'target_sub'
p1026
S'18'
p1027
sg57
(lp1028
sS'is_component_arch'
p1029
I01
sg59
S'6.0.0_r1'
p1030
sba.