(lp0
(iArchitecture
Architecture
p1
(dp2
S'clusters'
p3
(lp4
(iArchitecture
Cluster
p5
(dp6
S'entities'
p7
(lp8
(iArchitecture
Entity
p9
(dp10
S'issue_ids'
p11
(lp12
sS'name'
p13
S'android.os.StrictMode'
p14
sS'descs'
p15
(lp16
sS'labels'
p17
(lp18
sS'titles'
p19
(lp20
sS'change'
p21
I0
sba(iArchitecture
Entity
p22
(dp23
g11
(lp24
sg13
S'android.os.StrictMode$1'
p25
sg15
(lp26
sg17
(lp27
sg19
(lp28
sg21
I0
sba(iArchitecture
Entity
p29
(dp30
g11
(lp31
sg13
S'android.os.StrictMode$2'
p32
sg15
(lp33
sg17
(lp34
sg19
(lp35
sg21
I0
sba(iArchitecture
Entity
p36
(dp37
g11
(lp38
sg13
S'android.os.StrictMode$3'
p39
sg15
(lp40
sg17
(lp41
sg19
(lp42
sg21
I0
sba(iArchitecture
Entity
p43
(dp44
g11
(lp45
sg13
S'android.os.StrictMode$4'
p46
sg15
(lp47
sg17
(lp48
sg19
(lp49
sg21
I0
sba(iArchitecture
Entity
p50
(dp51
g11
(lp52
sg13
S'android.os.StrictMode$5'
p53
sg15
(lp54
sg17
(lp55
sg19
(lp56
sg21
I0
sba(iArchitecture
Entity
p57
(dp58
g11
(lp59
sg13
S'android.os.StrictMode$6'
p60
sg15
(lp61
sg17
(lp62
sg19
(lp63
sg21
I0
sba(iArchitecture
Entity
p64
(dp65
g11
(lp66
sg13
S'android.os.StrictMode$7'
p67
sg15
(lp68
sg17
(lp69
sg19
(lp70
sg21
I0
sba(iArchitecture
Entity
p71
(dp72
g11
(lp73
sg13
S'android.os.StrictMode$8'
p74
sg15
(lp75
sg17
(lp76
sg19
(lp77
sg21
I0
sba(iArchitecture
Entity
p78
(dp79
g11
(lp80
sg13
S'android.os.StrictMode$9'
p81
sg15
(lp82
sg17
(lp83
sg19
(lp84
sg21
I0
sba(iArchitecture
Entity
p85
(dp86
g11
(lp87
sg13
S'android.os.StrictMode$AndroidBlockGuardPolicy'
p88
sg15
(lp89
sg17
(lp90
sg19
(lp91
sg21
I0
sba(iArchitecture
Entity
p92
(dp93
g11
(lp94
sg13
S'android.os.StrictMode$AndroidBlockGuardPolicy$1'
p95
sg15
(lp96
sg17
(lp97
sg19
(lp98
sg21
I0
sba(iArchitecture
Entity
p99
(dp100
g11
(lp101
sg13
S'android.os.StrictMode$AndroidCloseGuardReporter'
p102
sg15
(lp103
sg17
(lp104
sg19
(lp105
sg21
I0
sba(iArchitecture
Entity
p106
(dp107
g11
(lp108
sg13
S'android.os.StrictMode$InstanceCountViolation'
p109
sg15
(lp110
sg17
(lp111
sg19
(lp112
sg21
I0
sba(iArchitecture
Entity
p113
(dp114
g11
(lp115
sg13
S'android.os.StrictMode$InstanceTracker'
p116
sg15
(lp117
sg17
(lp118
sg19
(lp119
sg21
I0
sba(iArchitecture
Entity
p120
(dp121
g11
(lp122
sg13
S'android.os.StrictMode$LogStackTrace'
p123
sg15
(lp124
sg17
(lp125
sg19
(lp126
sg21
I0
sba(iArchitecture
Entity
p127
(dp128
g11
(lp129
sg13
S'android.os.StrictMode$Span'
p130
sg15
(lp131
sg17
(lp132
sg19
(lp133
sg21
I0
sba(iArchitecture
Entity
p134
(dp135
g11
(lp136
sg13
S'android.os.StrictMode$StrictModeCustomViolation'
p137
sg15
(lp138
sg17
(lp139
sg19
(lp140
sg21
I0
sba(iArchitecture
Entity
p141
(dp142
g11
(lp143
sg13
S'android.os.StrictMode$StrictModeDiskReadViolation'
p144
sg15
(lp145
sg17
(lp146
sg19
(lp147
sg21
I0
sba(iArchitecture
Entity
p148
(dp149
g11
(lp150
sg13
S'android.os.StrictMode$StrictModeDiskWriteViolation'
p151
sg15
(lp152
sg17
(lp153
sg19
(lp154
sg21
I0
sba(iArchitecture
Entity
p155
(dp156
g11
(lp157
sg13
S'android.os.StrictMode$StrictModeNetworkViolation'
p158
sg15
(lp159
sg17
(lp160
sg19
(lp161
sg21
I0
sba(iArchitecture
Entity
p162
(dp163
g11
(lp164
sg13
S'android.os.StrictMode$StrictModeResourceMismatchViolation'
p165
sg15
(lp166
sg17
(lp167
sg19
(lp168
sg21
I0
sba(iArchitecture
Entity
p169
(dp170
g11
(lp171
sg13
S'android.os.StrictMode$StrictModeViolation'
p172
sg15
(lp173
sg17
(lp174
sg19
(lp175
sg21
I0
sba(iArchitecture
Entity
p176
(dp177
g11
(lp178
sg13
S'android.os.StrictMode$ThreadPolicy'
p179
sg15
(lp180
sg17
(lp181
sg19
(lp182
sg21
I0
sba(iArchitecture
Entity
p183
(dp184
g11
(lp185
sg13
S'android.os.StrictMode$ThreadPolicy$Builder'
p186
sg15
(lp187
sg17
(lp188
sg19
(lp189
sg21
I0
sba(iArchitecture
Entity
p190
(dp191
g11
(lp192
sg13
S'android.os.StrictMode$ThreadSpanState'
p193
sg15
(lp194
sg17
(lp195
sg19
(lp196
sg21
I0
sba(iArchitecture
Entity
p197
(dp198
g11
(lp199
sg13
S'android.os.StrictMode$ViolationInfo'
p200
sg15
(lp201
sg17
(lp202
sg19
(lp203
sg21
I0
sba(iArchitecture
Entity
p204
(dp205
g11
(lp206
sg13
S'android.os.StrictMode$VmPolicy'
p207
sg15
(lp208
sg17
(lp209
sg19
(lp210
sg21
I0
sba(iArchitecture
Entity
p211
(dp212
g11
(lp213
sg13
S'android.os.StrictMode$VmPolicy$Builder'
p214
sg15
(lp215
sg17
(lp216
sg19
(lp217
sg21
I0
sbasS'classes'
p218
(lp219
g14
ag25
ag32
ag39
ag46
ag53
ag60
ag67
ag74
ag81
ag88
ag95
ag102
ag109
ag116
ag123
ag130
ag137
ag144
ag151
ag158
ag165
ag172
ag179
ag186
ag193
ag200
ag207
ag214
asg21
I0
sS'label'
p220
S'1098'
p221
sba(iArchitecture
Cluster
p222
(dp223
g7
(lp224
(iArchitecture
Entity
p225
(dp226
g11
(lp227
sg13
S'android.net.wifi.p2p.WifiP2pWfdInfo'
p228
sg15
(lp229
sg17
(lp230
sg19
(lp231
sg21
I0
sba(iArchitecture
Entity
p232
(dp233
g11
(lp234
sg13
S'android.net.wifi.p2p.WifiP2pWfdInfo$1'
p235
sg15
(lp236
sg17
(lp237
sg19
(lp238
sg21
I0
sba(iArchitecture
Entity
p239
(dp240
g11
(lp241
sg13
S'android.webkit.WebViewDelegate'
p242
sg15
(lp243
sg17
(lp244
sg19
(lp245
sg21
I0
sba(iArchitecture
Entity
p246
(dp247
g11
(lp248
sg13
S'android.webkit.WebViewDelegate$1'
p249
sg15
(lp250
sg17
(lp251
sg19
(lp252
sg21
I0
sba(iArchitecture
Entity
p253
(dp254
g11
(lp255
sg13
S'android.webkit.WebViewDelegate$OnTraceEnabledChangeListener'
p256
sg15
(lp257
sg17
(lp258
sg19
(lp259
sg21
I0
sba(iArchitecture
Entity
p260
(dp261
g11
(lp262
sg13
S'com.android.server.am.CompatModeDialog'
p263
sg15
(lp264
sg17
(lp265
sg19
(lp266
sg21
I0
sba(iArchitecture
Entity
p267
(dp268
g11
(lp269
sg13
S'com.android.server.am.CompatModeDialog$1'
p270
sg15
(lp271
sg17
(lp272
sg19
(lp273
sg21
I0
sba(iArchitecture
Entity
p274
(dp275
g11
(lp276
sg13
S'com.android.server.am.CompatModeDialog$2'
p277
sg15
(lp278
sg17
(lp279
sg19
(lp280
sg21
I0
sbasg218
(lp281
g228
ag235
ag242
ag249
ag256
ag263
ag270
ag277
asg21
I0
sg220
S'1198'
p282
sba(iArchitecture
Cluster
p283
(dp284
g7
(lp285
(iArchitecture
Entity
p286
(dp287
g11
(lp288
sg13
S'android.view.animation.AnimationUtils'
p289
sg15
(lp290
sg17
(lp291
sg19
(lp292
sg21
I0
sbasg218
(lp293
g289
asg21
I0
sg220
S'198'
p294
sba(iArchitecture
Cluster
p295
(dp296
g7
(lp297
(iArchitecture
Entity
p298
(dp299
g11
(lp300
sg13
S'com.android.server.location.GeofenceState'
p301
sg15
(lp302
sg17
(lp303
sg19
(lp304
sg21
I0
sbasg218
(lp305
g301
asg21
I0
sg220
S'298'
p306
sba(iArchitecture
Cluster
p307
(dp308
g7
(lp309
(iArchitecture
Entity
p310
(dp311
g11
(lp312
sg13
S'android.telecom.RemoteConnectionManager'
p313
sg15
(lp314
sg17
(lp315
sg19
(lp316
sg21
I0
sbasg218
(lp317
g313
asg21
I0
sg220
S'398'
p318
sba(iArchitecture
Cluster
p319
(dp320
g7
(lp321
(iArchitecture
Entity
p322
(dp323
g11
(lp324
sg13
S'com.android.server.voiceinteraction.DatabaseHelper'
p325
sg15
(lp326
sg17
(lp327
sg19
(lp328
sg21
I0
sba(iArchitecture
Entity
p329
(dp330
g11
(lp331
sg13
S'com.android.server.voiceinteraction.DatabaseHelper$SoundModelContract'
p332
sg15
(lp333
sg17
(lp334
sg19
(lp335
sg21
I0
sbasg218
(lp336
g325
ag332
asg21
I0
sg220
S'498'
p337
sba(iArchitecture
Cluster
p338
(dp339
g7
(lp340
(iArchitecture
Entity
p341
(dp342
g11
(lp343
sg13
S'android.location.GpsClock'
p344
sg15
(lp345
sg17
(lp346
sg19
(lp347
sg21
I0
sba(iArchitecture
Entity
p348
(dp349
g11
(lp350
sg13
S'android.location.GpsClock$1'
p351
sg15
(lp352
sg17
(lp353
sg19
(lp354
sg21
I0
sbasg218
(lp355
g344
ag351
asg21
I0
sg220
S'598'
p356
sba(iArchitecture
Cluster
p357
(dp358
g7
(lp359
(iArchitecture
Entity
p360
(dp361
g11
(lp362
sg13
S'com.android.internal.app.ResolverComparator'
p363
sg15
(lp364
sg17
(lp365
sg19
(lp366
sg21
I0
sba(iArchitecture
Entity
p367
(dp368
g11
(lp369
sg13
S'com.android.internal.app.ResolverComparator$ScoredTarget'
p370
sg15
(lp371
sg17
(lp372
sg19
(lp373
sg21
I0
sbasg218
(lp374
g363
ag370
asg21
I0
sg220
S'698'
p375
sba(iArchitecture
Cluster
p376
(dp377
g7
(lp378
(iArchitecture
Entity
p379
(dp380
g11
(lp381
sg13
S'android.app.Presentation'
p382
sg15
(lp383
sg17
(lp384
sg19
(lp385
sg21
I0
sba(iArchitecture
Entity
p386
(dp387
g11
(lp388
sg13
S'android.app.Presentation$1'
p389
sg15
(lp390
sg17
(lp391
sg19
(lp392
sg21
I0
sba(iArchitecture
Entity
p393
(dp394
g11
(lp395
sg13
S'android.app.Presentation$2'
p396
sg15
(lp397
sg17
(lp398
sg19
(lp399
sg21
I0
sba(iArchitecture
Entity
p400
(dp401
g11
(lp402
sg13
S'android.app.Presentation$3'
p403
sg15
(lp404
sg17
(lp405
sg19
(lp406
sg21
I0
sbasg218
(lp407
g382
ag389
ag396
ag403
asg21
I0
sg220
S'798'
p408
sba(iArchitecture
Cluster
p409
(dp410
g7
(lp411
(iArchitecture
Entity
p412
(dp413
g11
(lp414
sg13
S'android.graphics.SurfaceTexture'
p415
sg15
(lp416
sg17
(lp417
sg19
(lp418
sg21
I0
sba(iArchitecture
Entity
p419
(dp420
g11
(lp421
sg13
S'android.graphics.SurfaceTexture$1'
p422
sg15
(lp423
sg17
(lp424
sg19
(lp425
sg21
I0
sba(iArchitecture
Entity
p426
(dp427
g11
(lp428
sg13
S'android.graphics.SurfaceTexture$OnFrameAvailableListener'
p429
sg15
(lp430
sg17
(lp431
sg19
(lp432
sg21
I0
sba(iArchitecture
Entity
p433
(dp434
g11
(lp435
sg13
S'android.graphics.SurfaceTexture$OutOfResourcesException'
p436
sg15
(lp437
sg17
(lp438
sg19
(lp439
sg21
I0
sbasg218
(lp440
g415
ag422
ag429
ag436
asg21
I0
sg220
S'898'
p441
sba(iArchitecture
Cluster
p442
(dp443
g7
(lp444
(iArchitecture
Entity
p445
(dp446
g11
(lp447
sg13
S'android.security.keystore.AndroidKeyStoreBCWorkaroundProvider'
p448
sg15
(lp449
sg17
(lp450
sg19
(lp451
sg21
I0
sbasg218
(lp452
g448
asg21
I0
sg220
S'98'
p453
sba(iArchitecture
Cluster
p454
(dp455
g7
(lp456
(iArchitecture
Entity
p457
(dp458
g11
(lp459
sg13
S'com.android.server.display.AutomaticBrightnessController'
p460
sg15
(lp461
sg17
(lp462
sg19
(lp463
sg21
I0
sba(iArchitecture
Entity
p464
(dp465
g11
(lp466
sg13
S'com.android.server.display.AutomaticBrightnessController$1'
p467
sg15
(lp468
sg17
(lp469
sg19
(lp470
sg21
I0
sba(iArchitecture
Entity
p471
(dp472
g11
(lp473
sg13
S'com.android.server.display.AutomaticBrightnessController$2'
p474
sg15
(lp475
sg17
(lp476
sg19
(lp477
sg21
I0
sba(iArchitecture
Entity
p478
(dp479
g11
(lp480
sg13
S'com.android.server.display.AutomaticBrightnessController$AmbientLightRingBuffer'
p481
sg15
(lp482
sg17
(lp483
sg19
(lp484
sg21
I0
sba(iArchitecture
Entity
p485
(dp486
g11
(lp487
sg13
S'com.android.server.display.AutomaticBrightnessController$AutomaticBrightnessHandler'
p488
sg15
(lp489
sg17
(lp490
sg19
(lp491
sg21
I0
sba(iArchitecture
Entity
p492
(dp493
g11
(lp494
sg13
S'com.android.server.display.AutomaticBrightnessController$Callbacks'
p495
sg15
(lp496
sg17
(lp497
sg19
(lp498
sg21
I0
sbasg218
(lp499
g460
ag467
ag474
ag481
ag488
ag495
asg21
I0
sg220
S'980'
p500
sba(iArchitecture
Cluster
p501
(dp502
g7
(lp503
(iArchitecture
Entity
p504
(dp505
g11
(lp506
sg13
S'android.graphics.drawable.VectorDrawable'
p507
sg15
(lp508
sg17
(lp509
sg19
(lp510
sg21
I0
sba(iArchitecture
Entity
p511
(dp512
g11
(lp513
sg13
S'android.graphics.drawable.VectorDrawable$VClipPath'
p514
sg15
(lp515
sg17
(lp516
sg19
(lp517
sg21
I0
sba(iArchitecture
Entity
p518
(dp519
g11
(lp520
sg13
S'android.graphics.drawable.VectorDrawable$VFullPath'
p521
sg15
(lp522
sg17
(lp523
sg19
(lp524
sg21
I0
sba(iArchitecture
Entity
p525
(dp526
g11
(lp527
sg13
S'android.graphics.drawable.VectorDrawable$VGroup'
p528
sg15
(lp529
sg17
(lp530
sg19
(lp531
sg21
I0
sba(iArchitecture
Entity
p532
(dp533
g11
(lp534
sg13
S'android.graphics.drawable.VectorDrawable$VPath'
p535
sg15
(lp536
sg17
(lp537
sg19
(lp538
sg21
I0
sba(iArchitecture
Entity
p539
(dp540
g11
(lp541
sg13
S'android.graphics.drawable.VectorDrawable$VPathRenderer'
p542
sg15
(lp543
sg17
(lp544
sg19
(lp545
sg21
I0
sba(iArchitecture
Entity
p546
(dp547
g11
(lp548
sg13
S'android.graphics.drawable.VectorDrawable$VectorDrawableState'
p549
sg15
(lp550
sg17
(lp551
sg19
(lp552
sg21
I0
sbasg218
(lp553
g507
ag514
ag521
ag528
ag535
ag542
ag549
asg21
I0
sg220
S'981'
p554
sba(iArchitecture
Cluster
p555
(dp556
g7
(lp557
(iArchitecture
Entity
p558
(dp559
g11
(lp560
sg13
S'android.bluetooth.BluetoothClass'
p561
sg15
(lp562
sg17
(lp563
sg19
(lp564
sg21
I0
sba(iArchitecture
Entity
p565
(dp566
g11
(lp567
sg13
S'android.bluetooth.BluetoothClass$1'
p568
sg15
(lp569
sg17
(lp570
sg19
(lp571
sg21
I0
sba(iArchitecture
Entity
p572
(dp573
g11
(lp574
sg13
S'android.bluetooth.BluetoothClass$Device'
p575
sg15
(lp576
sg17
(lp577
sg19
(lp578
sg21
I0
sba(iArchitecture
Entity
p579
(dp580
g11
(lp581
sg13
S'android.bluetooth.BluetoothClass$Device$Major'
p582
sg15
(lp583
sg17
(lp584
sg19
(lp585
sg21
I0
sba(iArchitecture
Entity
p586
(dp587
g11
(lp588
sg13
S'android.bluetooth.BluetoothClass$Service'
p589
sg15
(lp590
sg17
(lp591
sg19
(lp592
sg21
I0
sbasg218
(lp593
g561
ag568
ag575
ag582
ag589
asg21
I0
sg220
S'982'
p594
sba(iArchitecture
Cluster
p595
(dp596
g7
(lp597
(iArchitecture
Entity
p598
(dp599
g11
(lp600
sg13
S'com.android.server.NetworkTimeUpdateService'
p601
sg15
(lp602
sg17
(lp603
sg19
(lp604
sg21
I0
sba(iArchitecture
Entity
p605
(dp606
g11
(lp607
sg13
S'com.android.server.NetworkTimeUpdateService$1'
p608
sg15
(lp609
sg17
(lp610
sg19
(lp611
sg21
I0
sba(iArchitecture
Entity
p612
(dp613
g11
(lp614
sg13
S'com.android.server.NetworkTimeUpdateService$2'
p615
sg15
(lp616
sg17
(lp617
sg19
(lp618
sg21
I0
sba(iArchitecture
Entity
p619
(dp620
g11
(lp621
sg13
S'com.android.server.NetworkTimeUpdateService$3'
p622
sg15
(lp623
sg17
(lp624
sg19
(lp625
sg21
I0
sba(iArchitecture
Entity
p626
(dp627
g11
(lp628
sg13
S'com.android.server.NetworkTimeUpdateService$MyHandler'
p629
sg15
(lp630
sg17
(lp631
sg19
(lp632
sg21
I0
sba(iArchitecture
Entity
p633
(dp634
g11
(lp635
sg13
S'com.android.server.NetworkTimeUpdateService$SettingsObserver'
p636
sg15
(lp637
sg17
(lp638
sg19
(lp639
sg21
I0
sbasg218
(lp640
g601
ag608
ag615
ag622
ag629
ag636
asg21
I0
sg220
S'983'
p641
sba(iArchitecture
Cluster
p642
(dp643
g7
(lp644
(iArchitecture
Entity
p645
(dp646
g11
(lp647
sg13
S'android.media.TimedText'
p648
sg15
(lp649
sg17
(lp650
sg19
(lp651
sg21
I0
sba(iArchitecture
Entity
p652
(dp653
g11
(lp654
sg13
S'android.media.TimedText$CharPos'
p655
sg15
(lp656
sg17
(lp657
sg19
(lp658
sg21
I0
sba(iArchitecture
Entity
p659
(dp660
g11
(lp661
sg13
S'android.media.TimedText$Font'
p662
sg15
(lp663
sg17
(lp664
sg19
(lp665
sg21
I0
sba(iArchitecture
Entity
p666
(dp667
g11
(lp668
sg13
S'android.media.TimedText$HyperText'
p669
sg15
(lp670
sg17
(lp671
sg19
(lp672
sg21
I0
sba(iArchitecture
Entity
p673
(dp674
g11
(lp675
sg13
S'android.media.TimedText$Justification'
p676
sg15
(lp677
sg17
(lp678
sg19
(lp679
sg21
I0
sba(iArchitecture
Entity
p680
(dp681
g11
(lp682
sg13
S'android.media.TimedText$Karaoke'
p683
sg15
(lp684
sg17
(lp685
sg19
(lp686
sg21
I0
sba(iArchitecture
Entity
p687
(dp688
g11
(lp689
sg13
S'android.media.TimedText$Style'
p690
sg15
(lp691
sg17
(lp692
sg19
(lp693
sg21
I0
sbasg218
(lp694
g648
ag655
ag662
ag669
ag676
ag683
ag690
asg21
I0
sg220
S'984'
p695
sba(iArchitecture
Cluster
p696
(dp697
g7
(lp698
(iArchitecture
Entity
p699
(dp700
g11
(lp701
sg13
S'android.bluetooth.le.BluetoothLeScanner'
p702
sg15
(lp703
sg17
(lp704
sg19
(lp705
sg21
I0
sba(iArchitecture
Entity
p706
(dp707
g11
(lp708
sg13
S'android.bluetooth.le.BluetoothLeScanner$1'
p709
sg15
(lp710
sg17
(lp711
sg19
(lp712
sg21
I0
sba(iArchitecture
Entity
p713
(dp714
g11
(lp715
sg13
S'android.bluetooth.le.BluetoothLeScanner$BleScanCallbackWrapper'
p716
sg15
(lp717
sg17
(lp718
sg19
(lp719
sg21
I0
sba(iArchitecture
Entity
p720
(dp721
g11
(lp722
sg13
S'android.bluetooth.le.BluetoothLeScanner$BleScanCallbackWrapper$1'
p723
sg15
(lp724
sg17
(lp725
sg19
(lp726
sg21
I0
sba(iArchitecture
Entity
p727
(dp728
g11
(lp729
sg13
S'android.bluetooth.le.BluetoothLeScanner$BleScanCallbackWrapper$2'
p730
sg15
(lp731
sg17
(lp732
sg19
(lp733
sg21
I0
sba(iArchitecture
Entity
p734
(dp735
g11
(lp736
sg13
S'android.bluetooth.le.BluetoothLeScanner$BleScanCallbackWrapper$3'
p737
sg15
(lp738
sg17
(lp739
sg19
(lp740
sg21
I0
sbasg218
(lp741
g702
ag709
ag716
ag723
ag730
ag737
asg21
I0
sg220
S'985'
p742
sba(iArchitecture
Cluster
p743
(dp744
g7
(lp745
(iArchitecture
Entity
p746
(dp747
g11
(lp748
sg13
S'android.widget.ZoomButtonsController'
p749
sg15
(lp750
sg17
(lp751
sg19
(lp752
sg21
I0
sba(iArchitecture
Entity
p753
(dp754
g11
(lp755
sg13
S'android.widget.ZoomButtonsController$1'
p756
sg15
(lp757
sg17
(lp758
sg19
(lp759
sg21
I0
sba(iArchitecture
Entity
p760
(dp761
g11
(lp762
sg13
S'android.widget.ZoomButtonsController$2'
p763
sg15
(lp764
sg17
(lp765
sg19
(lp766
sg21
I0
sba(iArchitecture
Entity
p767
(dp768
g11
(lp769
sg13
S'android.widget.ZoomButtonsController$3'
p770
sg15
(lp771
sg17
(lp772
sg19
(lp773
sg21
I0
sba(iArchitecture
Entity
p774
(dp775
g11
(lp776
sg13
S'android.widget.ZoomButtonsController$4'
p777
sg15
(lp778
sg17
(lp779
sg19
(lp780
sg21
I0
sba(iArchitecture
Entity
p781
(dp782
g11
(lp783
sg13
S'android.widget.ZoomButtonsController$5'
p784
sg15
(lp785
sg17
(lp786
sg19
(lp787
sg21
I0
sba(iArchitecture
Entity
p788
(dp789
g11
(lp790
sg13
S'android.widget.ZoomButtonsController$Container'
p791
sg15
(lp792
sg17
(lp793
sg19
(lp794
sg21
I0
sba(iArchitecture
Entity
p795
(dp796
g11
(lp797
sg13
S'android.widget.ZoomButtonsController$OnZoomListener'
p798
sg15
(lp799
sg17
(lp800
sg19
(lp801
sg21
I0
sbasg218
(lp802
g749
ag756
ag763
ag770
ag777
ag784
ag791
ag798
asg21
I0
sg220
S'986'
p803
sba(iArchitecture
Cluster
p804
(dp805
g7
(lp806
(iArchitecture
Entity
p807
(dp808
g11
(lp809
sg13
S'android.webkit.WebSettings'
p810
sg15
(lp811
sg17
(lp812
sg19
(lp813
sg21
I0
sba(iArchitecture
Entity
p814
(dp815
g11
(lp816
sg13
S'android.webkit.WebSettings$LayoutAlgorithm'
p817
sg15
(lp818
sg17
(lp819
sg19
(lp820
sg21
I0
sba(iArchitecture
Entity
p821
(dp822
g11
(lp823
sg13
S'android.webkit.WebSettings$PluginState'
p824
sg15
(lp825
sg17
(lp826
sg19
(lp827
sg21
I0
sba(iArchitecture
Entity
p828
(dp829
g11
(lp830
sg13
S'android.webkit.WebSettings$RenderPriority'
p831
sg15
(lp832
sg17
(lp833
sg19
(lp834
sg21
I0
sba(iArchitecture
Entity
p835
(dp836
g11
(lp837
sg13
S'android.webkit.WebSettings$TextSize'
p838
sg15
(lp839
sg17
(lp840
sg19
(lp841
sg21
I0
sba(iArchitecture
Entity
p842
(dp843
g11
(lp844
sg13
S'android.webkit.WebSettings$ZoomDensity'
p845
sg15
(lp846
sg17
(lp847
sg19
(lp848
sg21
I0
sbasg218
(lp849
g810
ag817
ag824
ag831
ag838
ag845
asg21
I0
sg220
S'987'
p850
sba(iArchitecture
Cluster
p851
(dp852
g7
(lp853
(iArchitecture
Entity
p854
(dp855
g11
(lp856
sg13
S'com.android.internal.widget.ResolverDrawerLayout'
p857
sg15
(lp858
sg17
(lp859
sg19
(lp860
sg21
I0
sba(iArchitecture
Entity
p861
(dp862
g11
(lp863
sg13
S'com.android.internal.widget.ResolverDrawerLayout$1'
p864
sg15
(lp865
sg17
(lp866
sg19
(lp867
sg21
I0
sba(iArchitecture
Entity
p868
(dp869
g11
(lp870
sg13
S'com.android.internal.widget.ResolverDrawerLayout$LayoutParams'
p871
sg15
(lp872
sg17
(lp873
sg19
(lp874
sg21
I0
sba(iArchitecture
Entity
p875
(dp876
g11
(lp877
sg13
S'com.android.internal.widget.ResolverDrawerLayout$OnDismissedListener'
p878
sg15
(lp879
sg17
(lp880
sg19
(lp881
sg21
I0
sba(iArchitecture
Entity
p882
(dp883
g11
(lp884
sg13
S'com.android.internal.widget.ResolverDrawerLayout$RunOnDismissedListener'
p885
sg15
(lp886
sg17
(lp887
sg19
(lp888
sg21
I0
sba(iArchitecture
Entity
p889
(dp890
g11
(lp891
sg13
S'com.android.internal.widget.ResolverDrawerLayout$SavedState'
p892
sg15
(lp893
sg17
(lp894
sg19
(lp895
sg21
I0
sba(iArchitecture
Entity
p896
(dp897
g11
(lp898
sg13
S'com.android.internal.widget.ResolverDrawerLayout$SavedState$1'
p899
sg15
(lp900
sg17
(lp901
sg19
(lp902
sg21
I0
sbasg218
(lp903
g857
ag864
ag871
ag878
ag885
ag892
ag899
asg21
I0
sg220
S'988'
p904
sba(iArchitecture
Cluster
p905
(dp906
g7
(lp907
(iArchitecture
Entity
p908
(dp909
g11
(lp910
sg13
S'android.graphics.drawable.AnimatedStateListDrawable'
p911
sg15
(lp912
sg17
(lp913
sg19
(lp914
sg21
I0
sba(iArchitecture
Entity
p915
(dp916
g11
(lp917
sg13
S'android.graphics.drawable.AnimatedStateListDrawable$AnimatableTransition'
p918
sg15
(lp919
sg17
(lp920
sg19
(lp921
sg21
I0
sba(iArchitecture
Entity
p922
(dp923
g11
(lp924
sg13
S'android.graphics.drawable.AnimatedStateListDrawable$AnimatedStateListState'
p925
sg15
(lp926
sg17
(lp927
sg19
(lp928
sg21
I0
sba(iArchitecture
Entity
p929
(dp930
g11
(lp931
sg13
S'android.graphics.drawable.AnimatedStateListDrawable$AnimatedVectorDrawableTransition'
p932
sg15
(lp933
sg17
(lp934
sg19
(lp935
sg21
I0
sba(iArchitecture
Entity
p936
(dp937
g11
(lp938
sg13
S'android.graphics.drawable.AnimatedStateListDrawable$AnimationDrawableTransition'
p939
sg15
(lp940
sg17
(lp941
sg19
(lp942
sg21
I0
sba(iArchitecture
Entity
p943
(dp944
g11
(lp945
sg13
S'android.graphics.drawable.AnimatedStateListDrawable$FrameInterpolator'
p946
sg15
(lp947
sg17
(lp948
sg19
(lp949
sg21
I0
sba(iArchitecture
Entity
p950
(dp951
g11
(lp952
sg13
S'android.graphics.drawable.AnimatedStateListDrawable$Transition'
p953
sg15
(lp954
sg17
(lp955
sg19
(lp956
sg21
I0
sbasg218
(lp957
g911
ag918
ag925
ag932
ag939
ag946
ag953
asg21
I0
sg220
S'989'
p958
sba(iArchitecture
Cluster
p959
(dp960
g7
(lp961
(iArchitecture
Entity
p962
(dp963
g11
(lp964
sg13
S'com.android.server.notification.ZenModeHelper'
p965
sg15
(lp966
sg17
(lp967
sg19
(lp968
sg21
I0
sba(iArchitecture
Entity
p969
(dp970
g11
(lp971
sg13
S'com.android.server.notification.ZenModeHelper$1'
p972
sg15
(lp973
sg17
(lp974
sg19
(lp975
sg21
I0
sba(iArchitecture
Entity
p976
(dp977
g11
(lp978
sg13
S'com.android.server.notification.ZenModeHelper$Callback'
p979
sg15
(lp980
sg17
(lp981
sg19
(lp982
sg21
I0
sba(iArchitecture
Entity
p983
(dp984
g11
(lp985
sg13
S'com.android.server.notification.ZenModeHelper$H'
p986
sg15
(lp987
sg17
(lp988
sg19
(lp989
sg21
I0
sba(iArchitecture
Entity
p990
(dp991
g11
(lp992
sg13
S'com.android.server.notification.ZenModeHelper$Metrics'
p993
sg15
(lp994
sg17
(lp995
sg19
(lp996
sg21
I0
sba(iArchitecture
Entity
p997
(dp998
g11
(lp999
sg13
S'com.android.server.notification.ZenModeHelper$RingerModeDelegate'
p1000
sg15
(lp1001
sg17
(lp1002
sg19
(lp1003
sg21
I0
sba(iArchitecture
Entity
p1004
(dp1005
g11
(lp1006
sg13
S'com.android.server.notification.ZenModeHelper$SettingsObserver'
p1007
sg15
(lp1008
sg17
(lp1009
sg19
(lp1010
sg21
I0
sbasg218
(lp1011
g965
ag972
ag979
ag986
ag993
ag1000
ag1007
asg21
I0
sg220
S'998'
p1012
sbasS'target_sub'
p1013
S'98'
p1014
sg218
(lp1015
sS'is_component_arch'
p1016
I01
sg220
S'6.0.0_r1'
p1017
sba.