(lp0
(iArchitecture
Architecture
p1
(dp2
S'clusters'
p3
(lp4
(iArchitecture
Cluster
p5
(dp6
S'entities'
p7
(lp8
(iArchitecture
Entity
p9
(dp10
S'issue_ids'
p11
(lp12
sS'name'
p13
S'com.android.server.telecom.TelecomLoaderService'
p14
sS'descs'
p15
(lp16
sS'labels'
p17
(lp18
sS'titles'
p19
(lp20
sS'change'
p21
I0
sba(iArchitecture
Entity
p22
(dp23
g11
(lp24
sg13
S'com.android.server.telecom.TelecomLoaderService$1'
p25
sg15
(lp26
sg17
(lp27
sg19
(lp28
sg21
I0
sba(iArchitecture
Entity
p29
(dp30
g11
(lp31
sg13
S'com.android.server.telecom.TelecomLoaderService$2'
p32
sg15
(lp33
sg17
(lp34
sg19
(lp35
sg21
I0
sba(iArchitecture
Entity
p36
(dp37
g11
(lp38
sg13
S'com.android.server.telecom.TelecomLoaderService$3'
p39
sg15
(lp40
sg17
(lp41
sg19
(lp42
sg21
I0
sba(iArchitecture
Entity
p43
(dp44
g11
(lp45
sg13
S'com.android.server.telecom.TelecomLoaderService$4'
p46
sg15
(lp47
sg17
(lp48
sg19
(lp49
sg21
I0
sba(iArchitecture
Entity
p50
(dp51
g11
(lp52
sg13
S'com.android.server.telecom.TelecomLoaderService$5'
p53
sg15
(lp54
sg17
(lp55
sg19
(lp56
sg21
I0
sba(iArchitecture
Entity
p57
(dp58
g11
(lp59
sg13
S'com.android.server.telecom.TelecomLoaderService$TelecomServiceConnection'
p60
sg15
(lp61
sg17
(lp62
sg19
(lp63
sg21
I0
sba(iArchitecture
Entity
p64
(dp65
g11
(lp66
sg13
S'com.android.server.telecom.TelecomLoaderService$TelecomServiceConnection$1'
p67
sg15
(lp68
sg17
(lp69
sg19
(lp70
sg21
I0
sbasS'classes'
p71
(lp72
g14
ag25
ag32
ag39
ag46
ag53
ag60
ag67
asg21
I0
sS'label'
p73
S'1033'
p74
sba(iArchitecture
Cluster
p75
(dp76
g7
(lp77
(iArchitecture
Entity
p78
(dp79
g11
(lp80
sg13
S'android.bluetooth.le.AdvertiseData'
p81
sg15
(lp82
sg17
(lp83
sg19
(lp84
sg21
I0
sba(iArchitecture
Entity
p85
(dp86
g11
(lp87
sg13
S'android.bluetooth.le.AdvertiseData$1'
p88
sg15
(lp89
sg17
(lp90
sg19
(lp91
sg21
I0
sba(iArchitecture
Entity
p92
(dp93
g11
(lp94
sg13
S'android.bluetooth.le.AdvertiseData$Builder'
p95
sg15
(lp96
sg17
(lp97
sg19
(lp98
sg21
I0
sba(iArchitecture
Entity
p99
(dp100
g11
(lp101
sg13
S'android.bluetooth.le.ScanRecord'
p102
sg15
(lp103
sg17
(lp104
sg19
(lp105
sg21
I0
sbasg71
(lp106
g81
ag88
ag95
ag102
asg21
I0
sg73
S'1133'
p107
sba(iArchitecture
Cluster
p108
(dp109
g7
(lp110
(iArchitecture
Entity
p111
(dp112
g11
(lp113
sg13
S'com.android.server.am.PendingIntentRecord'
p114
sg15
(lp115
sg17
(lp116
sg19
(lp117
sg21
I0
sba(iArchitecture
Entity
p118
(dp119
g11
(lp120
sg13
S'com.android.server.am.PendingIntentRecord$Key'
p121
sg15
(lp122
sg17
(lp123
sg19
(lp124
sg21
I0
sba(iArchitecture
Entity
p125
(dp126
g11
(lp127
sg13
S'com.android.server.am.ProviderMap'
p128
sg15
(lp129
sg17
(lp130
sg19
(lp131
sg21
I0
sba(iArchitecture
Entity
p132
(dp133
g11
(lp134
sg13
S'com.android.server.notification.ConditionProviders'
p135
sg15
(lp136
sg17
(lp137
sg19
(lp138
sg21
I0
sba(iArchitecture
Entity
p139
(dp140
g11
(lp141
sg13
S'com.android.server.notification.ConditionProviders$Callback'
p142
sg15
(lp143
sg17
(lp144
sg19
(lp145
sg21
I0
sba(iArchitecture
Entity
p146
(dp147
g11
(lp148
sg13
S'com.android.server.notification.ConditionProviders$ConditionRecord'
p149
sg15
(lp150
sg17
(lp151
sg19
(lp152
sg21
I0
sba(iArchitecture
Entity
p153
(dp154
g11
(lp155
sg13
S'com.android.server.restrictions.RestrictionsManagerService'
p156
sg15
(lp157
sg17
(lp158
sg19
(lp159
sg21
I0
sba(iArchitecture
Entity
p160
(dp161
g11
(lp162
sg13
S'com.android.server.restrictions.RestrictionsManagerService$RestrictionsManagerImpl'
p163
sg15
(lp164
sg17
(lp165
sg19
(lp166
sg21
I0
sbasg71
(lp167
g114
ag121
ag128
ag135
ag142
ag149
ag156
ag163
asg21
I0
sg73
S'1233'
p168
sba(iArchitecture
Cluster
p169
(dp170
g7
(lp171
(iArchitecture
Entity
p172
(dp173
g11
(lp174
sg13
S'junit.framework.Test'
p175
sg15
(lp176
sg17
(lp177
sg19
(lp178
sg21
I0
sbasg71
(lp179
g175
asg21
I0
sg73
S'133'
p180
sba(iArchitecture
Cluster
p181
(dp182
g7
(lp183
(iArchitecture
Entity
p184
(dp185
g11
(lp186
sg13
S'android.filterfw.core.FilterSurfaceView'
p187
sg15
(lp188
sg17
(lp189
sg19
(lp190
sg21
I0
sbasg71
(lp191
g187
asg21
I0
sg73
S'233'
p192
sba(iArchitecture
Cluster
p193
(dp194
g7
(lp195
(iArchitecture
Entity
p196
(dp197
g11
(lp198
sg13
S'android.util.NtpTrustedTime'
p199
sg15
(lp200
sg17
(lp201
sg19
(lp202
sg21
I0
sbasg71
(lp203
g199
asg21
I0
sg73
S'33'
p204
sba(iArchitecture
Cluster
p205
(dp206
g7
(lp207
(iArchitecture
Entity
p208
(dp209
g11
(lp210
sg13
S'android.net.NetworkIdentity'
p211
sg15
(lp212
sg17
(lp213
sg19
(lp214
sg21
I0
sbasg71
(lp215
g211
asg21
I0
sg73
S'330'
p216
sba(iArchitecture
Cluster
p217
(dp218
g7
(lp219
(iArchitecture
Entity
p220
(dp221
g11
(lp222
sg13
S'com.android.internal.widget.TextProgressBar'
p223
sg15
(lp224
sg17
(lp225
sg19
(lp226
sg21
I0
sbasg71
(lp227
g223
asg21
I0
sg73
S'331'
p228
sba(iArchitecture
Cluster
p229
(dp230
g7
(lp231
(iArchitecture
Entity
p232
(dp233
g11
(lp234
sg13
S'com.android.server.job.controllers.JobStatus'
p235
sg15
(lp236
sg17
(lp237
sg19
(lp238
sg21
I0
sbasg71
(lp239
g235
asg21
I0
sg73
S'332'
p240
sba(iArchitecture
Cluster
p241
(dp242
g7
(lp243
(iArchitecture
Entity
p244
(dp245
g11
(lp246
sg13
S'android.content.IContentProvider'
p247
sg15
(lp248
sg17
(lp249
sg19
(lp250
sg21
I0
sbasg71
(lp251
g247
asg21
I0
sg73
S'333'
p252
sba(iArchitecture
Cluster
p253
(dp254
g7
(lp255
(iArchitecture
Entity
p256
(dp257
g11
(lp258
sg13
S'android.test.AndroidTestCase'
p259
sg15
(lp260
sg17
(lp261
sg19
(lp262
sg21
I0
sbasg71
(lp263
g259
asg21
I0
sg73
S'334'
p264
sba(iArchitecture
Cluster
p265
(dp266
g7
(lp267
(iArchitecture
Entity
p268
(dp269
g11
(lp270
sg13
S'android.hardware.camera2.params.LensShadingMap'
p271
sg15
(lp272
sg17
(lp273
sg19
(lp274
sg21
I0
sbasg71
(lp275
g271
asg21
I0
sg73
S'335'
p276
sba(iArchitecture
Cluster
p277
(dp278
g7
(lp279
(iArchitecture
Entity
p280
(dp281
g11
(lp282
sg13
S'android.view.WindowInsets'
p283
sg15
(lp284
sg17
(lp285
sg19
(lp286
sg21
I0
sbasg71
(lp287
g283
asg21
I0
sg73
S'336'
p288
sba(iArchitecture
Cluster
p289
(dp290
g7
(lp291
(iArchitecture
Entity
p292
(dp293
g11
(lp294
sg13
S'android.hardware.usb.UsbConstants'
p295
sg15
(lp296
sg17
(lp297
sg19
(lp298
sg21
I0
sbasg71
(lp299
g295
asg21
I0
sg73
S'337'
p300
sba(iArchitecture
Cluster
p301
(dp302
g7
(lp303
(iArchitecture
Entity
p304
(dp305
g11
(lp306
sg13
S'android.provider.SearchIndexableData'
p307
sg15
(lp308
sg17
(lp309
sg19
(lp310
sg21
I0
sbasg71
(lp311
g307
asg21
I0
sg73
S'338'
p312
sba(iArchitecture
Cluster
p313
(dp314
g7
(lp315
(iArchitecture
Entity
p316
(dp317
g11
(lp318
sg13
S'com.android.internal.util.FastXmlSerializer'
p319
sg15
(lp320
sg17
(lp321
sg19
(lp322
sg21
I0
sbasg71
(lp323
g319
asg21
I0
sg73
S'339'
p324
sba(iArchitecture
Cluster
p325
(dp326
g7
(lp327
(iArchitecture
Entity
p328
(dp329
g11
(lp330
sg13
S'com.android.internal.midi.MidiFramer'
p331
sg15
(lp332
sg17
(lp333
sg19
(lp334
sg21
I0
sbasg71
(lp335
g331
asg21
I0
sg73
S'433'
p336
sba(iArchitecture
Cluster
p337
(dp338
g7
(lp339
(iArchitecture
Entity
p340
(dp341
g11
(lp342
sg13
S'android.telecom.DisconnectCause'
p343
sg15
(lp344
sg17
(lp345
sg19
(lp346
sg21
I0
sba(iArchitecture
Entity
p347
(dp348
g11
(lp349
sg13
S'android.telecom.DisconnectCause$1'
p350
sg15
(lp351
sg17
(lp352
sg19
(lp353
sg21
I0
sbasg71
(lp354
g343
ag350
asg21
I0
sg73
S'533'
p355
sba(iArchitecture
Cluster
p356
(dp357
g7
(lp358
(iArchitecture
Entity
p359
(dp360
g11
(lp361
sg13
S'android.hardware.camera2.marshal.impl.MarshalQueryableBlackLevelPattern'
p362
sg15
(lp363
sg17
(lp364
sg19
(lp365
sg21
I0
sba(iArchitecture
Entity
p366
(dp367
g11
(lp368
sg13
S'android.hardware.camera2.marshal.impl.MarshalQueryableBlackLevelPattern$MarshalerBlackLevelPattern'
p369
sg15
(lp370
sg17
(lp371
sg19
(lp372
sg21
I0
sbasg71
(lp373
g362
ag369
asg21
I0
sg73
S'633'
p374
sba(iArchitecture
Cluster
p375
(dp376
g7
(lp377
(iArchitecture
Entity
p378
(dp379
g11
(lp380
sg13
S'android.content.SyncResult'
p381
sg15
(lp382
sg17
(lp383
sg19
(lp384
sg21
I0
sba(iArchitecture
Entity
p385
(dp386
g11
(lp387
sg13
S'android.content.SyncResult$1'
p388
sg15
(lp389
sg17
(lp390
sg19
(lp391
sg21
I0
sbasg71
(lp392
g381
ag388
asg21
I0
sg73
S'733'
p393
sba(iArchitecture
Cluster
p394
(dp395
g7
(lp396
(iArchitecture
Entity
p397
(dp398
g11
(lp399
sg13
S'android.os.storage.VolumeInfo'
p400
sg15
(lp401
sg17
(lp402
sg19
(lp403
sg21
I0
sba(iArchitecture
Entity
p404
(dp405
g11
(lp406
sg13
S'android.os.storage.VolumeInfo$1'
p407
sg15
(lp408
sg17
(lp409
sg19
(lp410
sg21
I0
sba(iArchitecture
Entity
p411
(dp412
g11
(lp413
sg13
S'android.os.storage.VolumeInfo$2'
p414
sg15
(lp415
sg17
(lp416
sg19
(lp417
sg21
I0
sbasg71
(lp418
g400
ag407
ag414
asg21
I0
sg73
S'833'
p419
sba(iArchitecture
Cluster
p420
(dp421
g7
(lp422
(iArchitecture
Entity
p423
(dp424
g11
(lp425
sg13
S'android.content.pm.LauncherApps'
p426
sg15
(lp427
sg17
(lp428
sg19
(lp429
sg21
I0
sba(iArchitecture
Entity
p430
(dp431
g11
(lp432
sg13
S'android.content.pm.LauncherApps$1'
p433
sg15
(lp434
sg17
(lp435
sg19
(lp436
sg21
I0
sba(iArchitecture
Entity
p437
(dp438
g11
(lp439
sg13
S'android.content.pm.LauncherApps$Callback'
p440
sg15
(lp441
sg17
(lp442
sg19
(lp443
sg21
I0
sba(iArchitecture
Entity
p444
(dp445
g11
(lp446
sg13
S'android.content.pm.LauncherApps$CallbackMessageHandler'
p447
sg15
(lp448
sg17
(lp449
sg19
(lp450
sg21
I0
sba(iArchitecture
Entity
p451
(dp452
g11
(lp453
sg13
S'android.content.pm.LauncherApps$CallbackMessageHandler$CallbackInfo'
p454
sg15
(lp455
sg17
(lp456
sg19
(lp457
sg21
I0
sbasg71
(lp458
g426
ag433
ag440
ag447
ag454
asg21
I0
sg73
S'933'
p459
sbasS'target_sub'
p460
S'33'
p461
sg71
(lp462
sS'is_component_arch'
p463
I01
sg73
S'6.0.0_r1'
p464
sba.