(lp0
(iArchitecture
Architecture
p1
(dp2
S'clusters'
p3
(lp4
(iArchitecture
Cluster
p5
(dp6
S'entities'
p7
(lp8
(iArchitecture
Entity
p9
(dp10
S'issue_ids'
p11
(lp12
sS'name'
p13
S'android.widget.ExpandableListView'
p14
sS'descs'
p15
(lp16
sS'labels'
p17
(lp18
sS'titles'
p19
(lp20
sS'change'
p21
I0
sba(iArchitecture
Entity
p22
(dp23
g11
(lp24
sg13
S'android.widget.ExpandableListView$ExpandableListContextMenuInfo'
p25
sg15
(lp26
sg17
(lp27
sg19
(lp28
sg21
I0
sba(iArchitecture
Entity
p29
(dp30
g11
(lp31
sg13
S'android.widget.ExpandableListView$OnChildClickListener'
p32
sg15
(lp33
sg17
(lp34
sg19
(lp35
sg21
I0
sba(iArchitecture
Entity
p36
(dp37
g11
(lp38
sg13
S'android.widget.ExpandableListView$OnGroupClickListener'
p39
sg15
(lp40
sg17
(lp41
sg19
(lp42
sg21
I0
sba(iArchitecture
Entity
p43
(dp44
g11
(lp45
sg13
S'android.widget.ExpandableListView$OnGroupCollapseListener'
p46
sg15
(lp47
sg17
(lp48
sg19
(lp49
sg21
I0
sba(iArchitecture
Entity
p50
(dp51
g11
(lp52
sg13
S'android.widget.ExpandableListView$OnGroupExpandListener'
p53
sg15
(lp54
sg17
(lp55
sg19
(lp56
sg21
I0
sba(iArchitecture
Entity
p57
(dp58
g11
(lp59
sg13
S'android.widget.ExpandableListView$SavedState'
p60
sg15
(lp61
sg17
(lp62
sg19
(lp63
sg21
I0
sba(iArchitecture
Entity
p64
(dp65
g11
(lp66
sg13
S'android.widget.ExpandableListView$SavedState$1'
p67
sg15
(lp68
sg17
(lp69
sg19
(lp70
sg21
I0
sbasS'classes'
p71
(lp72
g14
ag25
ag32
ag39
ag46
ag53
ag60
ag67
asg21
I0
sS'label'
p73
S'1039'
p74
sba(iArchitecture
Cluster
p75
(dp76
g7
(lp77
(iArchitecture
Entity
p78
(dp79
g11
(lp80
sg13
S'android.opengl.GLES20'
p81
sg15
(lp82
sg17
(lp83
sg19
(lp84
sg21
I0
sba(iArchitecture
Entity
p85
(dp86
g11
(lp87
sg13
S'android.opengl.GLES30'
p88
sg15
(lp89
sg17
(lp90
sg19
(lp91
sg21
I0
sba(iArchitecture
Entity
p92
(dp93
g11
(lp94
sg13
S'android.opengl.GLES31'
p95
sg15
(lp96
sg17
(lp97
sg19
(lp98
sg21
I0
sbasg71
(lp99
g81
ag88
ag95
asg21
I0
sg73
S'1139'
p100
sba(iArchitecture
Cluster
p101
(dp102
g7
(lp103
(iArchitecture
Entity
p104
(dp105
g11
(lp106
sg13
S'android.telecom.ParcelableCall'
p107
sg15
(lp108
sg17
(lp109
sg19
(lp110
sg21
I0
sba(iArchitecture
Entity
p111
(dp112
g11
(lp113
sg13
S'android.telecom.ParcelableCall$1'
p114
sg15
(lp115
sg17
(lp116
sg19
(lp117
sg21
I0
sba(iArchitecture
Entity
p118
(dp119
g11
(lp120
sg13
S'android.telecom.ParcelableConnection'
p121
sg15
(lp122
sg17
(lp123
sg19
(lp124
sg21
I0
sba(iArchitecture
Entity
p125
(dp126
g11
(lp127
sg13
S'android.telecom.ParcelableConnection$1'
p128
sg15
(lp129
sg17
(lp130
sg19
(lp131
sg21
I0
sbasg71
(lp132
g107
ag114
ag121
ag128
asg21
I0
sg73
S'1239'
p133
sba(iArchitecture
Cluster
p134
(dp135
g7
(lp136
(iArchitecture
Entity
p137
(dp138
g11
(lp139
sg13
S'android.security.NetworkSecurityPolicy'
p140
sg15
(lp141
sg17
(lp142
sg19
(lp143
sg21
I0
sbasg71
(lp144
g140
asg21
I0
sg73
S'139'
p145
sba(iArchitecture
Cluster
p146
(dp147
g7
(lp148
(iArchitecture
Entity
p149
(dp150
g11
(lp151
sg13
S'android.os.storage.StorageResultCode'
p152
sg15
(lp153
sg17
(lp154
sg19
(lp155
sg21
I0
sbasg71
(lp156
g152
asg21
I0
sg73
S'239'
p157
sba(iArchitecture
Cluster
p158
(dp159
g7
(lp160
(iArchitecture
Entity
p161
(dp162
g11
(lp163
sg13
S'com.android.internal.util.FastXmlSerializer'
p164
sg15
(lp165
sg17
(lp166
sg19
(lp167
sg21
I0
sbasg71
(lp168
g164
asg21
I0
sg73
S'339'
p169
sba(iArchitecture
Cluster
p170
(dp171
g7
(lp172
(iArchitecture
Entity
p173
(dp174
g11
(lp175
sg13
S'android.webkit.CookieSyncManager'
p176
sg15
(lp177
sg17
(lp178
sg19
(lp179
sg21
I0
sbasg71
(lp180
g176
asg21
I0
sg73
S'39'
p181
sba(iArchitecture
Cluster
p182
(dp183
g7
(lp184
(iArchitecture
Entity
p185
(dp186
g11
(lp187
sg13
S'android.view.ContextThemeWrapper'
p188
sg15
(lp189
sg17
(lp190
sg19
(lp191
sg21
I0
sbasg71
(lp192
g188
asg21
I0
sg73
S'390'
p193
sba(iArchitecture
Cluster
p194
(dp195
g7
(lp196
(iArchitecture
Entity
p197
(dp198
g11
(lp199
sg13
S'android.hardware.camera2.CameraAccessException'
p200
sg15
(lp201
sg17
(lp202
sg19
(lp203
sg21
I0
sbasg71
(lp204
g200
asg21
I0
sg73
S'391'
p205
sba(iArchitecture
Cluster
p206
(dp207
g7
(lp208
(iArchitecture
Entity
p209
(dp210
g11
(lp211
sg13
S'android.app.backup.FullBackupDataOutput'
p212
sg15
(lp213
sg17
(lp214
sg19
(lp215
sg21
I0
sbasg71
(lp216
g212
asg21
I0
sg73
S'392'
p217
sba(iArchitecture
Cluster
p218
(dp219
g7
(lp220
(iArchitecture
Entity
p221
(dp222
g11
(lp223
sg13
S'android.widget.HeaderViewListAdapter'
p224
sg15
(lp225
sg17
(lp226
sg19
(lp227
sg21
I0
sbasg71
(lp228
g224
asg21
I0
sg73
S'393'
p229
sba(iArchitecture
Cluster
p230
(dp231
g7
(lp232
(iArchitecture
Entity
p233
(dp234
g11
(lp235
sg13
S'android.net.PskKeyManager'
p236
sg15
(lp237
sg17
(lp238
sg19
(lp239
sg21
I0
sbasg71
(lp240
g236
asg21
I0
sg73
S'394'
p241
sba(iArchitecture
Cluster
p242
(dp243
g7
(lp244
(iArchitecture
Entity
p245
(dp246
g11
(lp247
sg13
S'android.media.AmrInputStream'
p248
sg15
(lp249
sg17
(lp250
sg19
(lp251
sg21
I0
sbasg71
(lp252
g248
asg21
I0
sg73
S'395'
p253
sba(iArchitecture
Cluster
p254
(dp255
g7
(lp256
(iArchitecture
Entity
p257
(dp258
g11
(lp259
sg13
S'android.webkit.WebViewClient'
p260
sg15
(lp261
sg17
(lp262
sg19
(lp263
sg21
I0
sbasg71
(lp264
g260
asg21
I0
sg73
S'396'
p265
sba(iArchitecture
Cluster
p266
(dp267
g7
(lp268
(iArchitecture
Entity
p269
(dp270
g11
(lp271
sg13
S'com.android.server.pm.PackageManagerException'
p272
sg15
(lp273
sg17
(lp274
sg19
(lp275
sg21
I0
sbasg71
(lp276
g272
asg21
I0
sg73
S'397'
p277
sba(iArchitecture
Cluster
p278
(dp279
g7
(lp280
(iArchitecture
Entity
p281
(dp282
g11
(lp283
sg13
S'android.telecom.RemoteConnectionManager'
p284
sg15
(lp285
sg17
(lp286
sg19
(lp287
sg21
I0
sbasg71
(lp288
g284
asg21
I0
sg73
S'398'
p289
sba(iArchitecture
Cluster
p290
(dp291
g7
(lp292
(iArchitecture
Entity
p293
(dp294
g11
(lp295
sg13
S'com.android.server.content.SyncOperation'
p296
sg15
(lp297
sg17
(lp298
sg19
(lp299
sg21
I0
sbasg71
(lp300
g296
asg21
I0
sg73
S'399'
p301
sba(iArchitecture
Cluster
p302
(dp303
g7
(lp304
(iArchitecture
Entity
p305
(dp306
g11
(lp307
sg13
S'android.net.MailTo'
p308
sg15
(lp309
sg17
(lp310
sg19
(lp311
sg21
I0
sbasg71
(lp312
g308
asg21
I0
sg73
S'439'
p313
sba(iArchitecture
Cluster
p314
(dp315
g7
(lp316
(iArchitecture
Entity
p317
(dp318
g11
(lp319
sg13
S'android.printservice.PrintServiceInfo'
p320
sg15
(lp321
sg17
(lp322
sg19
(lp323
sg21
I0
sba(iArchitecture
Entity
p324
(dp325
g11
(lp326
sg13
S'android.printservice.PrintServiceInfo$1'
p327
sg15
(lp328
sg17
(lp329
sg19
(lp330
sg21
I0
sbasg71
(lp331
g320
ag327
asg21
I0
sg73
S'539'
p332
sba(iArchitecture
Cluster
p333
(dp334
g7
(lp335
(iArchitecture
Entity
p336
(dp337
g11
(lp338
sg13
S'android.hardware.input.TouchCalibration'
p339
sg15
(lp340
sg17
(lp341
sg19
(lp342
sg21
I0
sba(iArchitecture
Entity
p343
(dp344
g11
(lp345
sg13
S'android.hardware.input.TouchCalibration$1'
p346
sg15
(lp347
sg17
(lp348
sg19
(lp349
sg21
I0
sbasg71
(lp350
g339
ag346
asg21
I0
sg73
S'639'
p351
sba(iArchitecture
Cluster
p352
(dp353
g7
(lp354
(iArchitecture
Entity
p355
(dp356
g11
(lp357
sg13
S'android.hardware.usb.UsbAccessory'
p358
sg15
(lp359
sg17
(lp360
sg19
(lp361
sg21
I0
sba(iArchitecture
Entity
p362
(dp363
g11
(lp364
sg13
S'android.hardware.usb.UsbAccessory$1'
p365
sg15
(lp366
sg17
(lp367
sg19
(lp368
sg21
I0
sbasg71
(lp369
g358
ag365
asg21
I0
sg73
S'739'
p370
sba(iArchitecture
Cluster
p371
(dp372
g7
(lp373
(iArchitecture
Entity
p374
(dp375
g11
(lp376
sg13
S'android.text.style.LeadingMarginSpan'
p377
sg15
(lp378
sg17
(lp379
sg19
(lp380
sg21
I0
sba(iArchitecture
Entity
p381
(dp382
g11
(lp383
sg13
S'android.text.style.LeadingMarginSpan$LeadingMarginSpan2'
p384
sg15
(lp385
sg17
(lp386
sg19
(lp387
sg21
I0
sba(iArchitecture
Entity
p388
(dp389
g11
(lp390
sg13
S'android.text.style.LeadingMarginSpan$Standard'
p391
sg15
(lp392
sg17
(lp393
sg19
(lp394
sg21
I0
sbasg71
(lp395
g377
ag384
ag391
asg21
I0
sg73
S'839'
p396
sba(iArchitecture
Cluster
p397
(dp398
g7
(lp399
(iArchitecture
Entity
p400
(dp401
g11
(lp402
sg13
S'android.view.WindowId'
p403
sg15
(lp404
sg17
(lp405
sg19
(lp406
sg21
I0
sba(iArchitecture
Entity
p407
(dp408
g11
(lp409
sg13
S'android.view.WindowId$1'
p410
sg15
(lp411
sg17
(lp412
sg19
(lp413
sg21
I0
sba(iArchitecture
Entity
p414
(dp415
g11
(lp416
sg13
S'android.view.WindowId$FocusObserver'
p417
sg15
(lp418
sg17
(lp419
sg19
(lp420
sg21
I0
sba(iArchitecture
Entity
p421
(dp422
g11
(lp423
sg13
S'android.view.WindowId$FocusObserver$1'
p424
sg15
(lp425
sg17
(lp426
sg19
(lp427
sg21
I0
sba(iArchitecture
Entity
p428
(dp429
g11
(lp430
sg13
S'android.view.WindowId$FocusObserver$H'
p431
sg15
(lp432
sg17
(lp433
sg19
(lp434
sg21
I0
sbasg71
(lp435
g403
ag410
ag417
ag424
ag431
asg21
I0
sg73
S'939'
p436
sbasS'target_sub'
p437
S'39'
p438
sg71
(lp439
sS'is_component_arch'
p440
I01
sg73
S'6.0.0_r1'
p441
sba.