(lp0
(iArchitecture
Architecture
p1
(dp2
S'clusters'
p3
(lp4
(iArchitecture
Cluster
p5
(dp6
S'entities'
p7
(lp8
(iArchitecture
Entity
p9
(dp10
S'issue_ids'
p11
(lp12
sS'name'
p13
S'com.android.server.print.RemotePrintSpooler'
p14
sS'descs'
p15
(lp16
sS'labels'
p17
(lp18
sS'titles'
p19
(lp20
sS'change'
p21
I0
sba(iArchitecture
Entity
p22
(dp23
g11
(lp24
sg13
S'com.android.server.print.RemotePrintSpooler$BasePrintSpoolerServiceCallbacks'
p25
sg15
(lp26
sg17
(lp27
sg19
(lp28
sg21
I0
sba(iArchitecture
Entity
p29
(dp30
g11
(lp31
sg13
S'com.android.server.print.RemotePrintSpooler$GetPrintJobInfoCaller'
p32
sg15
(lp33
sg17
(lp34
sg19
(lp35
sg21
I0
sba(iArchitecture
Entity
p36
(dp37
g11
(lp38
sg13
S'com.android.server.print.RemotePrintSpooler$GetPrintJobInfoCaller$1'
p39
sg15
(lp40
sg17
(lp41
sg19
(lp42
sg21
I0
sba(iArchitecture
Entity
p43
(dp44
g11
(lp45
sg13
S'com.android.server.print.RemotePrintSpooler$GetPrintJobInfosCaller'
p46
sg15
(lp47
sg17
(lp48
sg19
(lp49
sg21
I0
sba(iArchitecture
Entity
p50
(dp51
g11
(lp52
sg13
S'com.android.server.print.RemotePrintSpooler$GetPrintJobInfosCaller$1'
p53
sg15
(lp54
sg17
(lp55
sg19
(lp56
sg21
I0
sba(iArchitecture
Entity
p57
(dp58
g11
(lp59
sg13
S'com.android.server.print.RemotePrintSpooler$MyServiceConnection'
p60
sg15
(lp61
sg17
(lp62
sg19
(lp63
sg21
I0
sba(iArchitecture
Entity
p64
(dp65
g11
(lp66
sg13
S'com.android.server.print.RemotePrintSpooler$PrintSpoolerCallbacks'
p67
sg15
(lp68
sg17
(lp69
sg19
(lp70
sg21
I0
sba(iArchitecture
Entity
p71
(dp72
g11
(lp73
sg13
S'com.android.server.print.RemotePrintSpooler$PrintSpoolerClient'
p74
sg15
(lp75
sg17
(lp76
sg19
(lp77
sg21
I0
sba(iArchitecture
Entity
p78
(dp79
g11
(lp80
sg13
S'com.android.server.print.RemotePrintSpooler$SetPrintJobStateCaller'
p81
sg15
(lp82
sg17
(lp83
sg19
(lp84
sg21
I0
sba(iArchitecture
Entity
p85
(dp86
g11
(lp87
sg13
S'com.android.server.print.RemotePrintSpooler$SetPrintJobStateCaller$1'
p88
sg15
(lp89
sg17
(lp90
sg19
(lp91
sg21
I0
sba(iArchitecture
Entity
p92
(dp93
g11
(lp94
sg13
S'com.android.server.print.RemotePrintSpooler$SetPrintJobTagCaller'
p95
sg15
(lp96
sg17
(lp97
sg19
(lp98
sg21
I0
sba(iArchitecture
Entity
p99
(dp100
g11
(lp101
sg13
S'com.android.server.print.RemotePrintSpooler$SetPrintJobTagCaller$1'
p102
sg15
(lp103
sg17
(lp104
sg19
(lp105
sg21
I0
sbasS'classes'
p106
(lp107
g14
ag25
ag32
ag39
ag46
ag53
ag60
ag67
ag74
ag81
ag88
ag95
ag102
asg21
I0
sS'label'
p108
S'1079'
p109
sba(iArchitecture
Cluster
p110
(dp111
g7
(lp112
(iArchitecture
Entity
p113
(dp114
g11
(lp115
sg13
S'android.location.LocalListenerHelper'
p116
sg15
(lp117
sg17
(lp118
sg19
(lp119
sg21
I0
sba(iArchitecture
Entity
p120
(dp121
g11
(lp122
sg13
S'android.location.LocalListenerHelper$ListenerOperation'
p123
sg15
(lp124
sg17
(lp125
sg19
(lp126
sg21
I0
sba(iArchitecture
Entity
p127
(dp128
g11
(lp129
sg13
S'com.android.server.display.DisplayAdapter'
p130
sg15
(lp131
sg17
(lp132
sg19
(lp133
sg21
I0
sba(iArchitecture
Entity
p134
(dp135
g11
(lp136
sg13
S'com.android.server.display.DisplayAdapter$1'
p137
sg15
(lp138
sg17
(lp139
sg19
(lp140
sg21
I0
sba(iArchitecture
Entity
p141
(dp142
g11
(lp143
sg13
S'com.android.server.display.DisplayAdapter$2'
p144
sg15
(lp145
sg17
(lp146
sg19
(lp147
sg21
I0
sba(iArchitecture
Entity
p148
(dp149
g11
(lp150
sg13
S'com.android.server.display.DisplayAdapter$Listener'
p151
sg15
(lp152
sg17
(lp153
sg19
(lp154
sg21
I0
sba(iArchitecture
Entity
p155
(dp156
g11
(lp157
sg13
S'com.android.server.location.RemoteListenerHelper'
p158
sg15
(lp159
sg17
(lp160
sg19
(lp161
sg21
I0
sba(iArchitecture
Entity
p162
(dp163
g11
(lp164
sg13
S'com.android.server.location.RemoteListenerHelper$HandlerRunnable'
p165
sg15
(lp166
sg17
(lp167
sg19
(lp168
sg21
I0
sba(iArchitecture
Entity
p169
(dp170
g11
(lp171
sg13
S'com.android.server.location.RemoteListenerHelper$LinkedListener'
p172
sg15
(lp173
sg17
(lp174
sg19
(lp175
sg21
I0
sba(iArchitecture
Entity
p176
(dp177
g11
(lp178
sg13
S'com.android.server.location.RemoteListenerHelper$ListenerOperation'
p179
sg15
(lp180
sg17
(lp181
sg19
(lp182
sg21
I0
sbasg106
(lp183
g116
ag123
ag130
ag137
ag144
ag151
ag158
ag165
ag172
ag179
asg21
I0
sg108
S'1179'
p184
sba(iArchitecture
Cluster
p185
(dp186
g7
(lp187
(iArchitecture
Entity
p188
(dp189
g11
(lp190
sg13
S'android.preference.PreferenceInflater'
p191
sg15
(lp192
sg17
(lp193
sg19
(lp194
sg21
I0
sbasg106
(lp195
g191
asg21
I0
sg108
S'179'
p196
sba(iArchitecture
Cluster
p197
(dp198
g7
(lp199
(iArchitecture
Entity
p200
(dp201
g11
(lp202
sg13
S'android.hardware.SensorListener'
p203
sg15
(lp204
sg17
(lp205
sg19
(lp206
sg21
I0
sbasg106
(lp207
g203
asg21
I0
sg108
S'279'
p208
sba(iArchitecture
Cluster
p209
(dp210
g7
(lp211
(iArchitecture
Entity
p212
(dp213
g11
(lp214
sg13
S'android.opengl.GLWrapperBase'
p215
sg15
(lp216
sg17
(lp217
sg19
(lp218
sg21
I0
sbasg106
(lp219
g215
asg21
I0
sg108
S'379'
p220
sba(iArchitecture
Cluster
p221
(dp222
g7
(lp223
(iArchitecture
Entity
p224
(dp225
g11
(lp226
sg13
S'com.android.server.net.NetworkStatsCollection'
p227
sg15
(lp228
sg17
(lp229
sg19
(lp230
sg21
I0
sba(iArchitecture
Entity
p231
(dp232
g11
(lp233
sg13
S'com.android.server.net.NetworkStatsCollection$Key'
p234
sg15
(lp235
sg17
(lp236
sg19
(lp237
sg21
I0
sbasg106
(lp238
g227
ag234
asg21
I0
sg108
S'479'
p239
sba(iArchitecture
Cluster
p240
(dp241
g7
(lp242
(iArchitecture
Entity
p243
(dp244
g11
(lp245
sg13
S'android.service.gatekeeper.GateKeeperResponse'
p246
sg15
(lp247
sg17
(lp248
sg19
(lp249
sg21
I0
sba(iArchitecture
Entity
p250
(dp251
g11
(lp252
sg13
S'android.service.gatekeeper.GateKeeperResponse$1'
p253
sg15
(lp254
sg17
(lp255
sg19
(lp256
sg21
I0
sbasg106
(lp257
g246
ag253
asg21
I0
sg108
S'579'
p258
sba(iArchitecture
Cluster
p259
(dp260
g7
(lp261
(iArchitecture
Entity
p262
(dp263
g11
(lp264
sg13
S'android.content.pm.InstrumentationInfo'
p265
sg15
(lp266
sg17
(lp267
sg19
(lp268
sg21
I0
sba(iArchitecture
Entity
p269
(dp270
g11
(lp271
sg13
S'android.content.pm.InstrumentationInfo$1'
p272
sg15
(lp273
sg17
(lp274
sg19
(lp275
sg21
I0
sbasg106
(lp276
g265
ag272
asg21
I0
sg108
S'679'
p277
sba(iArchitecture
Cluster
p278
(dp279
g7
(lp280
(iArchitecture
Entity
p281
(dp282
g11
(lp283
sg13
S'android.os.CommonTimeConfig'
p284
sg15
(lp285
sg17
(lp286
sg19
(lp287
sg21
I0
sba(iArchitecture
Entity
p288
(dp289
g11
(lp290
sg13
S'android.os.CommonTimeConfig$1'
p291
sg15
(lp292
sg17
(lp293
sg19
(lp294
sg21
I0
sba(iArchitecture
Entity
p295
(dp296
g11
(lp297
sg13
S'android.os.CommonTimeConfig$OnServerDiedListener'
p298
sg15
(lp299
sg17
(lp300
sg19
(lp301
sg21
I0
sbasg106
(lp302
g284
ag291
ag298
asg21
I0
sg108
S'779'
p303
sba(iArchitecture
Cluster
p304
(dp305
g7
(lp306
(iArchitecture
Entity
p307
(dp308
g11
(lp309
sg13
S'com.android.server.hdmi.HdmiCecMessage'
p310
sg15
(lp311
sg17
(lp312
sg19
(lp313
sg21
I0
sbasg106
(lp314
g310
asg21
I0
sg108
S'79'
p315
sba(iArchitecture
Cluster
p316
(dp317
g7
(lp318
(iArchitecture
Entity
p319
(dp320
g11
(lp321
sg13
S'android.bluetooth.le.AdvertiseSettings'
p322
sg15
(lp323
sg17
(lp324
sg19
(lp325
sg21
I0
sba(iArchitecture
Entity
p326
(dp327
g11
(lp328
sg13
S'android.bluetooth.le.AdvertiseSettings$1'
p329
sg15
(lp330
sg17
(lp331
sg19
(lp332
sg21
I0
sba(iArchitecture
Entity
p333
(dp334
g11
(lp335
sg13
S'android.bluetooth.le.AdvertiseSettings$Builder'
p336
sg15
(lp337
sg17
(lp338
sg19
(lp339
sg21
I0
sbasg106
(lp340
g322
ag329
ag336
asg21
I0
sg108
S'790'
p341
sba(iArchitecture
Cluster
p342
(dp343
g7
(lp344
(iArchitecture
Entity
p345
(dp346
g11
(lp347
sg13
S'android.transition.TransitionManager'
p348
sg15
(lp349
sg17
(lp350
sg19
(lp351
sg21
I0
sba(iArchitecture
Entity
p352
(dp353
g11
(lp354
sg13
S'android.transition.TransitionManager$MultiListener'
p355
sg15
(lp356
sg17
(lp357
sg19
(lp358
sg21
I0
sba(iArchitecture
Entity
p359
(dp360
g11
(lp361
sg13
S'android.transition.TransitionManager$MultiListener$1'
p362
sg15
(lp363
sg17
(lp364
sg19
(lp365
sg21
I0
sbasg106
(lp366
g348
ag355
ag362
asg21
I0
sg108
S'791'
p367
sba(iArchitecture
Cluster
p368
(dp369
g7
(lp370
(iArchitecture
Entity
p371
(dp372
g11
(lp373
sg13
S'android.widget.SimpleMonthView'
p374
sg15
(lp375
sg17
(lp376
sg19
(lp377
sg21
I0
sba(iArchitecture
Entity
p378
(dp379
g11
(lp380
sg13
S'android.widget.SimpleMonthView$MonthViewTouchHelper'
p381
sg15
(lp382
sg17
(lp383
sg19
(lp384
sg21
I0
sba(iArchitecture
Entity
p385
(dp386
g11
(lp387
sg13
S'android.widget.SimpleMonthView$OnDayClickListener'
p388
sg15
(lp389
sg17
(lp390
sg19
(lp391
sg21
I0
sbasg106
(lp392
g374
ag381
ag388
asg21
I0
sg108
S'792'
p393
sba(iArchitecture
Cluster
p394
(dp395
g7
(lp396
(iArchitecture
Entity
p397
(dp398
g11
(lp399
sg13
S'android.text.BidiFormatter'
p400
sg15
(lp401
sg17
(lp402
sg19
(lp403
sg21
I0
sba(iArchitecture
Entity
p404
(dp405
g11
(lp406
sg13
S'android.text.BidiFormatter$Builder'
p407
sg15
(lp408
sg17
(lp409
sg19
(lp410
sg21
I0
sba(iArchitecture
Entity
p411
(dp412
g11
(lp413
sg13
S'android.text.BidiFormatter$DirectionalityEstimator'
p414
sg15
(lp415
sg17
(lp416
sg19
(lp417
sg21
I0
sbasg106
(lp418
g400
ag407
ag414
asg21
I0
sg108
S'793'
p419
sba(iArchitecture
Cluster
p420
(dp421
g7
(lp422
(iArchitecture
Entity
p423
(dp424
g11
(lp425
sg13
S'com.android.server.CertBlacklister'
p426
sg15
(lp427
sg17
(lp428
sg19
(lp429
sg21
I0
sba(iArchitecture
Entity
p430
(dp431
g11
(lp432
sg13
S'com.android.server.CertBlacklister$BlacklistObserver'
p433
sg15
(lp434
sg17
(lp435
sg19
(lp436
sg21
I0
sba(iArchitecture
Entity
p437
(dp438
g11
(lp439
sg13
S'com.android.server.CertBlacklister$BlacklistObserver$1'
p440
sg15
(lp441
sg17
(lp442
sg19
(lp443
sg21
I0
sbasg106
(lp444
g426
ag433
ag440
asg21
I0
sg108
S'794'
p445
sba(iArchitecture
Cluster
p446
(dp447
g7
(lp448
(iArchitecture
Entity
p449
(dp450
g11
(lp451
sg13
S'android.app.RemoteInput'
p452
sg15
(lp453
sg17
(lp454
sg19
(lp455
sg21
I0
sba(iArchitecture
Entity
p456
(dp457
g11
(lp458
sg13
S'android.app.RemoteInput$1'
p459
sg15
(lp460
sg17
(lp461
sg19
(lp462
sg21
I0
sba(iArchitecture
Entity
p463
(dp464
g11
(lp465
sg13
S'android.app.RemoteInput$Builder'
p466
sg15
(lp467
sg17
(lp468
sg19
(lp469
sg21
I0
sbasg106
(lp470
g452
ag459
ag466
asg21
I0
sg108
S'795'
p471
sba(iArchitecture
Cluster
p472
(dp473
g7
(lp474
(iArchitecture
Entity
p475
(dp476
g11
(lp477
sg13
S'android.util.Spline'
p478
sg15
(lp479
sg17
(lp480
sg19
(lp481
sg21
I0
sba(iArchitecture
Entity
p482
(dp483
g11
(lp484
sg13
S'android.util.Spline$LinearSpline'
p485
sg15
(lp486
sg17
(lp487
sg19
(lp488
sg21
I0
sba(iArchitecture
Entity
p489
(dp490
g11
(lp491
sg13
S'android.util.Spline$MonotoneCubicSpline'
p492
sg15
(lp493
sg17
(lp494
sg19
(lp495
sg21
I0
sbasg106
(lp496
g478
ag485
ag492
asg21
I0
sg108
S'796'
p497
sba(iArchitecture
Cluster
p498
(dp499
g7
(lp500
(iArchitecture
Entity
p501
(dp502
g11
(lp503
sg13
S'android.app.job.JobInfo'
p504
sg15
(lp505
sg17
(lp506
sg19
(lp507
sg21
I0
sba(iArchitecture
Entity
p508
(dp509
g11
(lp510
sg13
S'android.app.job.JobInfo$1'
p511
sg15
(lp512
sg17
(lp513
sg19
(lp514
sg21
I0
sba(iArchitecture
Entity
p515
(dp516
g11
(lp517
sg13
S'android.app.job.JobInfo$Builder'
p518
sg15
(lp519
sg17
(lp520
sg19
(lp521
sg21
I0
sbasg106
(lp522
g504
ag511
ag518
asg21
I0
sg108
S'797'
p523
sba(iArchitecture
Cluster
p524
(dp525
g7
(lp526
(iArchitecture
Entity
p527
(dp528
g11
(lp529
sg13
S'android.app.Presentation'
p530
sg15
(lp531
sg17
(lp532
sg19
(lp533
sg21
I0
sba(iArchitecture
Entity
p534
(dp535
g11
(lp536
sg13
S'android.app.Presentation$1'
p537
sg15
(lp538
sg17
(lp539
sg19
(lp540
sg21
I0
sba(iArchitecture
Entity
p541
(dp542
g11
(lp543
sg13
S'android.app.Presentation$2'
p544
sg15
(lp545
sg17
(lp546
sg19
(lp547
sg21
I0
sba(iArchitecture
Entity
p548
(dp549
g11
(lp550
sg13
S'android.app.Presentation$3'
p551
sg15
(lp552
sg17
(lp553
sg19
(lp554
sg21
I0
sbasg106
(lp555
g530
ag537
ag544
ag551
asg21
I0
sg108
S'798'
p556
sba(iArchitecture
Cluster
p557
(dp558
g7
(lp559
(iArchitecture
Entity
p560
(dp561
g11
(lp562
sg13
S'android.app.admin.DeviceAdminInfo'
p563
sg15
(lp564
sg17
(lp565
sg19
(lp566
sg21
I0
sba(iArchitecture
Entity
p567
(dp568
g11
(lp569
sg13
S'android.app.admin.DeviceAdminInfo$1'
p570
sg15
(lp571
sg17
(lp572
sg19
(lp573
sg21
I0
sba(iArchitecture
Entity
p574
(dp575
g11
(lp576
sg13
S'android.app.admin.DeviceAdminInfo$PolicyInfo'
p577
sg15
(lp578
sg17
(lp579
sg19
(lp580
sg21
I0
sbasg106
(lp581
g563
ag570
ag577
asg21
I0
sg108
S'799'
p582
sba(iArchitecture
Cluster
p583
(dp584
g7
(lp585
(iArchitecture
Entity
p586
(dp587
g11
(lp588
sg13
S'android.media.session.MediaSessionLegacyHelper'
p589
sg15
(lp590
sg17
(lp591
sg19
(lp592
sg21
I0
sba(iArchitecture
Entity
p593
(dp594
g11
(lp595
sg13
S'android.media.session.MediaSessionLegacyHelper$MediaButtonListener'
p596
sg15
(lp597
sg17
(lp598
sg19
(lp599
sg21
I0
sba(iArchitecture
Entity
p600
(dp601
g11
(lp602
sg13
S'android.media.session.MediaSessionLegacyHelper$SessionHolder'
p603
sg15
(lp604
sg17
(lp605
sg19
(lp606
sg21
I0
sba(iArchitecture
Entity
p607
(dp608
g11
(lp609
sg13
S'android.media.session.MediaSessionLegacyHelper$SessionHolder$SessionCallback'
p610
sg15
(lp611
sg17
(lp612
sg19
(lp613
sg21
I0
sbasg106
(lp614
g589
ag596
ag603
ag610
asg21
I0
sg108
S'879'
p615
sba(iArchitecture
Cluster
p616
(dp617
g7
(lp618
(iArchitecture
Entity
p619
(dp620
g11
(lp621
sg13
S'com.android.server.AnyMotionDetector'
p622
sg15
(lp623
sg17
(lp624
sg19
(lp625
sg21
I0
sba(iArchitecture
Entity
p626
(dp627
g11
(lp628
sg13
S'com.android.server.AnyMotionDetector$1'
p629
sg15
(lp630
sg17
(lp631
sg19
(lp632
sg21
I0
sba(iArchitecture
Entity
p633
(dp634
g11
(lp635
sg13
S'com.android.server.AnyMotionDetector$2'
p636
sg15
(lp637
sg17
(lp638
sg19
(lp639
sg21
I0
sba(iArchitecture
Entity
p640
(dp641
g11
(lp642
sg13
S'com.android.server.AnyMotionDetector$3'
p643
sg15
(lp644
sg17
(lp645
sg19
(lp646
sg21
I0
sba(iArchitecture
Entity
p647
(dp648
g11
(lp649
sg13
S'com.android.server.AnyMotionDetector$DeviceIdleCallback'
p650
sg15
(lp651
sg17
(lp652
sg19
(lp653
sg21
I0
sba(iArchitecture
Entity
p654
(dp655
g11
(lp656
sg13
S'com.android.server.AnyMotionDetector$RunningSignalStats'
p657
sg15
(lp658
sg17
(lp659
sg19
(lp660
sg21
I0
sba(iArchitecture
Entity
p661
(dp662
g11
(lp663
sg13
S'com.android.server.AnyMotionDetector$Vector3'
p664
sg15
(lp665
sg17
(lp666
sg19
(lp667
sg21
I0
sbasg106
(lp668
g622
ag629
ag636
ag643
ag650
ag657
ag664
asg21
I0
sg108
S'979'
p669
sbasS'target_sub'
p670
S'79'
p671
sg106
(lp672
sS'is_component_arch'
p673
I01
sg108
S'6.0.0_r1'
p674
sba.