(lp0
(iArchitecture
Architecture
p1
(dp2
S'clusters'
p3
(lp4
(iArchitecture
Cluster
p5
(dp6
S'entities'
p7
(lp8
(iArchitecture
Entity
p9
(dp10
S'issue_ids'
p11
(lp12
sS'name'
p13
S'android.security.keystore.KeyProperties'
p14
sS'descs'
p15
(lp16
sS'labels'
p17
(lp18
sS'titles'
p19
(lp20
sS'change'
p21
I0
sba(iArchitecture
Entity
p22
(dp23
g11
(lp24
sg13
S'android.security.keystore.KeyProperties$BlockMode'
p25
sg15
(lp26
sg17
(lp27
sg19
(lp28
sg21
I0
sba(iArchitecture
Entity
p29
(dp30
g11
(lp31
sg13
S'android.security.keystore.KeyProperties$Digest'
p32
sg15
(lp33
sg17
(lp34
sg19
(lp35
sg21
I0
sba(iArchitecture
Entity
p36
(dp37
g11
(lp38
sg13
S'android.security.keystore.KeyProperties$EncryptionPadding'
p39
sg15
(lp40
sg17
(lp41
sg19
(lp42
sg21
I0
sba(iArchitecture
Entity
p43
(dp44
g11
(lp45
sg13
S'android.security.keystore.KeyProperties$KeyAlgorithm'
p46
sg15
(lp47
sg17
(lp48
sg19
(lp49
sg21
I0
sba(iArchitecture
Entity
p50
(dp51
g11
(lp52
sg13
S'android.security.keystore.KeyProperties$Origin'
p53
sg15
(lp54
sg17
(lp55
sg19
(lp56
sg21
I0
sba(iArchitecture
Entity
p57
(dp58
g11
(lp59
sg13
S'android.security.keystore.KeyProperties$Purpose'
p60
sg15
(lp61
sg17
(lp62
sg19
(lp63
sg21
I0
sba(iArchitecture
Entity
p64
(dp65
g11
(lp66
sg13
S'android.security.keystore.KeyProperties$SignaturePadding'
p67
sg15
(lp68
sg17
(lp69
sg19
(lp70
sg21
I0
sbasS'classes'
p71
(lp72
g14
ag25
ag32
ag39
ag46
ag53
ag60
ag67
asg21
I0
sS'label'
p73
S'1035'
p74
sba(iArchitecture
Cluster
p75
(dp76
g7
(lp77
(iArchitecture
Entity
p78
(dp79
g11
(lp80
sg13
S'android.text.InputType'
p81
sg15
(lp82
sg17
(lp83
sg19
(lp84
sg21
I0
sba(iArchitecture
Entity
p85
(dp86
g11
(lp87
sg13
S'android.view.inputmethod.EditorInfo'
p88
sg15
(lp89
sg17
(lp90
sg19
(lp91
sg21
I0
sba(iArchitecture
Entity
p92
(dp93
g11
(lp94
sg13
S'android.view.inputmethod.EditorInfo$1'
p95
sg15
(lp96
sg17
(lp97
sg19
(lp98
sg21
I0
sbasg71
(lp99
g81
ag88
ag95
asg21
I0
sg73
S'1135'
p100
sba(iArchitecture
Cluster
p101
(dp102
g7
(lp103
(iArchitecture
Entity
p104
(dp105
g11
(lp106
sg13
S'android.graphics.drawable.DrawableContainer'
p107
sg15
(lp108
sg17
(lp109
sg19
(lp110
sg21
I0
sba(iArchitecture
Entity
p111
(dp112
g11
(lp113
sg13
S'android.graphics.drawable.DrawableContainer$1'
p114
sg15
(lp115
sg17
(lp116
sg19
(lp117
sg21
I0
sba(iArchitecture
Entity
p118
(dp119
g11
(lp120
sg13
S'android.graphics.drawable.DrawableContainer$DrawableContainerState'
p121
sg15
(lp122
sg17
(lp123
sg19
(lp124
sg21
I0
sba(iArchitecture
Entity
p125
(dp126
g11
(lp127
sg13
S'android.graphics.drawable.DrawableContainer$DrawableContainerState$ConstantStateFuture'
p128
sg15
(lp129
sg17
(lp130
sg19
(lp131
sg21
I0
sba(iArchitecture
Entity
p132
(dp133
g11
(lp134
sg13
S'android.graphics.drawable.DrawableWrapper'
p135
sg15
(lp136
sg17
(lp137
sg19
(lp138
sg21
I0
sba(iArchitecture
Entity
p139
(dp140
g11
(lp141
sg13
S'android.graphics.drawable.DrawableWrapper$DrawableWrapperState'
p142
sg15
(lp143
sg17
(lp144
sg19
(lp145
sg21
I0
sba(iArchitecture
Entity
p146
(dp147
g11
(lp148
sg13
S'android.graphics.drawable.NinePatchDrawable'
p149
sg15
(lp150
sg17
(lp151
sg19
(lp152
sg21
I0
sba(iArchitecture
Entity
p153
(dp154
g11
(lp155
sg13
S'android.graphics.drawable.NinePatchDrawable$NinePatchState'
p156
sg15
(lp157
sg17
(lp158
sg19
(lp159
sg21
I0
sbasg71
(lp160
g107
ag114
ag121
ag128
ag135
ag142
ag149
ag156
asg21
I0
sg73
S'1235'
p161
sba(iArchitecture
Cluster
p162
(dp163
g7
(lp164
(iArchitecture
Entity
p165
(dp166
g11
(lp167
sg13
S'android.hardware.camera2.dispatch.MethodNameInvoker'
p168
sg15
(lp169
sg17
(lp170
sg19
(lp171
sg21
I0
sbasg71
(lp172
g168
asg21
I0
sg73
S'135'
p173
sba(iArchitecture
Cluster
p174
(dp175
g7
(lp176
(iArchitecture
Entity
p177
(dp178
g11
(lp179
sg13
S'android.speech.RecognizerResultsIntent'
p180
sg15
(lp181
sg17
(lp182
sg19
(lp183
sg21
I0
sbasg71
(lp184
g180
asg21
I0
sg73
S'235'
p185
sba(iArchitecture
Cluster
p186
(dp187
g7
(lp188
(iArchitecture
Entity
p189
(dp190
g11
(lp191
sg13
S'android.hardware.camera2.params.LensShadingMap'
p192
sg15
(lp193
sg17
(lp194
sg19
(lp195
sg21
I0
sbasg71
(lp196
g192
asg21
I0
sg73
S'335'
p197
sba(iArchitecture
Cluster
p198
(dp199
g7
(lp200
(iArchitecture
Entity
p201
(dp202
g11
(lp203
sg13
S'android.os.SELinux'
p204
sg15
(lp205
sg17
(lp206
sg19
(lp207
sg21
I0
sbasg71
(lp208
g204
asg21
I0
sg73
S'35'
p209
sba(iArchitecture
Cluster
p210
(dp211
g7
(lp212
(iArchitecture
Entity
p213
(dp214
g11
(lp215
sg13
S'android.media.AudioPort'
p216
sg15
(lp217
sg17
(lp218
sg19
(lp219
sg21
I0
sbasg71
(lp220
g216
asg21
I0
sg73
S'350'
p221
sba(iArchitecture
Cluster
p222
(dp223
g7
(lp224
(iArchitecture
Entity
p225
(dp226
g11
(lp227
sg13
S'android.hardware.camera2.utils.HashCodeHelpers'
p228
sg15
(lp229
sg17
(lp230
sg19
(lp231
sg21
I0
sbasg71
(lp232
g228
asg21
I0
sg73
S'351'
p233
sba(iArchitecture
Cluster
p234
(dp235
g7
(lp236
(iArchitecture
Entity
p237
(dp238
g11
(lp239
sg13
S'android.appwidget.AppWidgetManager'
p240
sg15
(lp241
sg17
(lp242
sg19
(lp243
sg21
I0
sbasg71
(lp244
g240
asg21
I0
sg73
S'352'
p245
sba(iArchitecture
Cluster
p246
(dp247
g7
(lp248
(iArchitecture
Entity
p249
(dp250
g11
(lp251
sg13
S'android.webkit.MimeTypeMap'
p252
sg15
(lp253
sg17
(lp254
sg19
(lp255
sg21
I0
sbasg71
(lp256
g252
asg21
I0
sg73
S'353'
p257
sba(iArchitecture
Cluster
p258
(dp259
g7
(lp260
(iArchitecture
Entity
p261
(dp262
g11
(lp263
sg13
S'android.webkit.LegacyErrorStrings'
p264
sg15
(lp265
sg17
(lp266
sg19
(lp267
sg21
I0
sbasg71
(lp268
g264
asg21
I0
sg73
S'354'
p269
sba(iArchitecture
Cluster
p270
(dp271
g7
(lp272
(iArchitecture
Entity
p273
(dp274
g11
(lp275
sg13
S'android.text.format.TimeFormatter'
p276
sg15
(lp277
sg17
(lp278
sg19
(lp279
sg21
I0
sbasg71
(lp280
g276
asg21
I0
sg73
S'355'
p281
sba(iArchitecture
Cluster
p282
(dp283
g7
(lp284
(iArchitecture
Entity
p285
(dp286
g11
(lp287
sg13
S'android.filterfw.io.PatternScanner'
p288
sg15
(lp289
sg17
(lp290
sg19
(lp291
sg21
I0
sbasg71
(lp292
g288
asg21
I0
sg73
S'356'
p293
sba(iArchitecture
Cluster
p294
(dp295
g7
(lp296
(iArchitecture
Entity
p297
(dp298
g11
(lp299
sg13
S'android.filterfw.geometry.Rectangle'
p300
sg15
(lp301
sg17
(lp302
sg19
(lp303
sg21
I0
sbasg71
(lp304
g300
asg21
I0
sg73
S'357'
p305
sba(iArchitecture
Cluster
p306
(dp307
g7
(lp308
(iArchitecture
Entity
p309
(dp310
g11
(lp311
sg13
S'android.drm.DrmRights'
p312
sg15
(lp313
sg17
(lp314
sg19
(lp315
sg21
I0
sbasg71
(lp316
g312
asg21
I0
sg73
S'358'
p317
sba(iArchitecture
Cluster
p318
(dp319
g7
(lp320
(iArchitecture
Entity
p321
(dp322
g11
(lp323
sg13
S'android.hardware.camera2.DngCreator'
p324
sg15
(lp325
sg17
(lp326
sg19
(lp327
sg21
I0
sbasg71
(lp328
g324
asg21
I0
sg73
S'359'
p329
sba(iArchitecture
Cluster
p330
(dp331
g7
(lp332
(iArchitecture
Entity
p333
(dp334
g11
(lp335
sg13
S'android.app.FragmentHostCallback'
p336
sg15
(lp337
sg17
(lp338
sg19
(lp339
sg21
I0
sbasg71
(lp340
g336
asg21
I0
sg73
S'435'
p341
sba(iArchitecture
Cluster
p342
(dp343
g7
(lp344
(iArchitecture
Entity
p345
(dp346
g11
(lp347
sg13
S'android.media.AudioRoutesInfo'
p348
sg15
(lp349
sg17
(lp350
sg19
(lp351
sg21
I0
sba(iArchitecture
Entity
p352
(dp353
g11
(lp354
sg13
S'android.media.AudioRoutesInfo$1'
p355
sg15
(lp356
sg17
(lp357
sg19
(lp358
sg21
I0
sbasg71
(lp359
g348
ag355
asg21
I0
sg73
S'535'
p360
sba(iArchitecture
Cluster
p361
(dp362
g7
(lp363
(iArchitecture
Entity
p364
(dp365
g11
(lp366
sg13
S'android.animation.TimeAnimator'
p367
sg15
(lp368
sg17
(lp369
sg19
(lp370
sg21
I0
sba(iArchitecture
Entity
p371
(dp372
g11
(lp373
sg13
S'android.animation.TimeAnimator$TimeListener'
p374
sg15
(lp375
sg17
(lp376
sg19
(lp377
sg21
I0
sbasg71
(lp378
g367
ag374
asg21
I0
sg73
S'635'
p379
sba(iArchitecture
Cluster
p380
(dp381
g7
(lp382
(iArchitecture
Entity
p383
(dp384
g11
(lp385
sg13
S'android.graphics.Interpolator'
p386
sg15
(lp387
sg17
(lp388
sg19
(lp389
sg21
I0
sba(iArchitecture
Entity
p390
(dp391
g11
(lp392
sg13
S'android.graphics.Interpolator$Result'
p393
sg15
(lp394
sg17
(lp395
sg19
(lp396
sg21
I0
sbasg71
(lp397
g386
ag393
asg21
I0
sg73
S'735'
p398
sba(iArchitecture
Cluster
p399
(dp400
g7
(lp401
(iArchitecture
Entity
p402
(dp403
g11
(lp404
sg13
S'android.hardware.radio.RadioMetadata'
p405
sg15
(lp406
sg17
(lp407
sg19
(lp408
sg21
I0
sba(iArchitecture
Entity
p409
(dp410
g11
(lp411
sg13
S'android.hardware.radio.RadioMetadata$1'
p412
sg15
(lp413
sg17
(lp414
sg19
(lp415
sg21
I0
sba(iArchitecture
Entity
p416
(dp417
g11
(lp418
sg13
S'android.hardware.radio.RadioMetadata$Builder'
p419
sg15
(lp420
sg17
(lp421
sg19
(lp422
sg21
I0
sbasg71
(lp423
g405
ag412
ag419
asg21
I0
sg73
S'835'
p424
sba(iArchitecture
Cluster
p425
(dp426
g7
(lp427
(iArchitecture
Entity
p428
(dp429
g11
(lp430
sg13
S'android.widget.RadialTimePickerView'
p431
sg15
(lp432
sg17
(lp433
sg19
(lp434
sg21
I0
sba(iArchitecture
Entity
p435
(dp436
g11
(lp437
sg13
S'android.widget.RadialTimePickerView$IntHolder'
p438
sg15
(lp439
sg17
(lp440
sg19
(lp441
sg21
I0
sba(iArchitecture
Entity
p442
(dp443
g11
(lp444
sg13
S'android.widget.RadialTimePickerView$InvalidateUpdateListener'
p445
sg15
(lp446
sg17
(lp447
sg19
(lp448
sg21
I0
sba(iArchitecture
Entity
p449
(dp450
g11
(lp451
sg13
S'android.widget.RadialTimePickerView$OnValueSelectedListener'
p452
sg15
(lp453
sg17
(lp454
sg19
(lp455
sg21
I0
sba(iArchitecture
Entity
p456
(dp457
g11
(lp458
sg13
S'android.widget.RadialTimePickerView$RadialPickerTouchHelper'
p459
sg15
(lp460
sg17
(lp461
sg19
(lp462
sg21
I0
sbasg71
(lp463
g431
ag438
ag445
ag452
ag459
asg21
I0
sg73
S'935'
p464
sbasS'target_sub'
p465
S'35'
p466
sg71
(lp467
sS'is_component_arch'
p468
I01
sg73
S'6.0.0_r1'
p469
sba.