(lp0
(iArchitecture
Architecture
p1
(dp2
S'clusters'
p3
(lp4
(iArchitecture
Cluster
p5
(dp6
S'entities'
p7
(lp8
(iArchitecture
Entity
p9
(dp10
S'issue_ids'
p11
(lp12
sS'name'
p13
S'com.android.server.accessibility.AccessibilityManagerService'
p14
sS'descs'
p15
(lp16
sS'labels'
p17
(lp18
sS'titles'
p19
(lp20
sS'change'
p21
I0
sba(iArchitecture
Entity
p22
(dp23
g11
(lp24
sg13
S'com.android.server.accessibility.AccessibilityManagerService$1'
p25
sg15
(lp26
sg17
(lp27
sg19
(lp28
sg21
I0
sba(iArchitecture
Entity
p29
(dp30
g11
(lp31
sg13
S'com.android.server.accessibility.AccessibilityManagerService$2'
p32
sg15
(lp33
sg17
(lp34
sg19
(lp35
sg21
I0
sba(iArchitecture
Entity
p36
(dp37
g11
(lp38
sg13
S'com.android.server.accessibility.AccessibilityManagerService$3'
p39
sg15
(lp40
sg17
(lp41
sg19
(lp42
sg21
I0
sba(iArchitecture
Entity
p43
(dp44
g11
(lp45
sg13
S'com.android.server.accessibility.AccessibilityManagerService$4'
p46
sg15
(lp47
sg17
(lp48
sg19
(lp49
sg21
I0
sba(iArchitecture
Entity
p50
(dp51
g11
(lp52
sg13
S'com.android.server.accessibility.AccessibilityManagerService$AccessibilityConnectionWrapper'
p53
sg15
(lp54
sg17
(lp55
sg19
(lp56
sg21
I0
sba(iArchitecture
Entity
p57
(dp58
g11
(lp59
sg13
S'com.android.server.accessibility.AccessibilityManagerService$AccessibilityContentObserver'
p60
sg15
(lp61
sg17
(lp62
sg19
(lp63
sg21
I0
sba(iArchitecture
Entity
p64
(dp65
g11
(lp66
sg13
S'com.android.server.accessibility.AccessibilityManagerService$InteractionBridge'
p67
sg15
(lp68
sg17
(lp69
sg19
(lp70
sg21
I0
sba(iArchitecture
Entity
p71
(dp72
g11
(lp73
sg13
S'com.android.server.accessibility.AccessibilityManagerService$MainHandler'
p74
sg15
(lp75
sg17
(lp76
sg19
(lp77
sg21
I0
sba(iArchitecture
Entity
p78
(dp79
g11
(lp80
sg13
S'com.android.server.accessibility.AccessibilityManagerService$PendingEvent'
p81
sg15
(lp82
sg17
(lp83
sg19
(lp84
sg21
I0
sba(iArchitecture
Entity
p85
(dp86
g11
(lp87
sg13
S'com.android.server.accessibility.AccessibilityManagerService$SecurityPolicy'
p88
sg15
(lp89
sg17
(lp90
sg19
(lp91
sg21
I0
sba(iArchitecture
Entity
p92
(dp93
g11
(lp94
sg13
S'com.android.server.accessibility.AccessibilityManagerService$Service'
p95
sg15
(lp96
sg17
(lp97
sg19
(lp98
sg21
I0
sba(iArchitecture
Entity
p99
(dp100
g11
(lp101
sg13
S'com.android.server.accessibility.AccessibilityManagerService$Service$1'
p102
sg15
(lp103
sg17
(lp104
sg19
(lp105
sg21
I0
sba(iArchitecture
Entity
p106
(dp107
g11
(lp108
sg13
S'com.android.server.accessibility.AccessibilityManagerService$Service$2'
p109
sg15
(lp110
sg17
(lp111
sg19
(lp112
sg21
I0
sba(iArchitecture
Entity
p113
(dp114
g11
(lp115
sg13
S'com.android.server.accessibility.AccessibilityManagerService$Service$InvocationHandler'
p116
sg15
(lp117
sg17
(lp118
sg19
(lp119
sg21
I0
sba(iArchitecture
Entity
p120
(dp121
g11
(lp122
sg13
S'com.android.server.accessibility.AccessibilityManagerService$Service$KeyEventDispatcher'
p123
sg15
(lp124
sg17
(lp125
sg19
(lp126
sg21
I0
sba(iArchitecture
Entity
p127
(dp128
g11
(lp129
sg13
S'com.android.server.accessibility.AccessibilityManagerService$UserState'
p130
sg15
(lp131
sg17
(lp132
sg19
(lp133
sg21
I0
sba(iArchitecture
Entity
p134
(dp135
g11
(lp136
sg13
S'com.android.server.accessibility.AccessibilityManagerService$UserState$1'
p137
sg15
(lp138
sg17
(lp139
sg19
(lp140
sg21
I0
sba(iArchitecture
Entity
p141
(dp142
g11
(lp143
sg13
S'com.android.server.accessibility.AccessibilityManagerService$WindowsForAccessibilityCallback'
p144
sg15
(lp145
sg17
(lp146
sg19
(lp147
sg21
I0
sbasS'classes'
p148
(lp149
g14
ag25
ag32
ag39
ag46
ag53
ag60
ag67
ag74
ag81
ag88
ag95
ag102
ag109
ag116
ag123
ag130
ag137
ag144
asg21
I0
sS'label'
p150
S'1091'
p151
sba(iArchitecture
Cluster
p152
(dp153
g7
(lp154
(iArchitecture
Entity
p155
(dp156
g11
(lp157
sg13
S'android.graphics.Shader'
p158
sg15
(lp159
sg17
(lp160
sg19
(lp161
sg21
I0
sba(iArchitecture
Entity
p162
(dp163
g11
(lp164
sg13
S'android.graphics.Shader$TileMode'
p165
sg15
(lp166
sg17
(lp167
sg19
(lp168
sg21
I0
sba(iArchitecture
Entity
p169
(dp170
g11
(lp171
sg13
S'com.android.internal.util.UserIcons'
p172
sg15
(lp173
sg17
(lp174
sg19
(lp175
sg21
I0
sbasg148
(lp176
g158
ag165
ag172
asg21
I0
sg150
S'1191'
p177
sba(iArchitecture
Cluster
p178
(dp179
g7
(lp180
(iArchitecture
Entity
p181
(dp182
g11
(lp183
sg13
S'javax.microedition.khronos.opengles.GL11Ext'
p184
sg15
(lp185
sg17
(lp186
sg19
(lp187
sg21
I0
sbasg148
(lp188
g184
asg21
I0
sg150
S'191'
p189
sba(iArchitecture
Cluster
p190
(dp191
g7
(lp192
(iArchitecture
Entity
p193
(dp194
g11
(lp195
sg13
S'android.webkit.WebResourceResponse'
p196
sg15
(lp197
sg17
(lp198
sg19
(lp199
sg21
I0
sbasg148
(lp200
g196
asg21
I0
sg150
S'291'
p201
sba(iArchitecture
Cluster
p202
(dp203
g7
(lp204
(iArchitecture
Entity
p205
(dp206
g11
(lp207
sg13
S'android.hardware.camera2.CameraAccessException'
p208
sg15
(lp209
sg17
(lp210
sg19
(lp211
sg21
I0
sbasg148
(lp212
g208
asg21
I0
sg150
S'391'
p213
sba(iArchitecture
Cluster
p214
(dp215
g7
(lp216
(iArchitecture
Entity
p217
(dp218
g11
(lp219
sg13
S'android.app.assist.AssistContent'
p220
sg15
(lp221
sg17
(lp222
sg19
(lp223
sg21
I0
sba(iArchitecture
Entity
p224
(dp225
g11
(lp226
sg13
S'android.app.assist.AssistContent$1'
p227
sg15
(lp228
sg17
(lp229
sg19
(lp230
sg21
I0
sbasg148
(lp231
g220
ag227
asg21
I0
sg150
S'491'
p232
sba(iArchitecture
Cluster
p233
(dp234
g7
(lp235
(iArchitecture
Entity
p236
(dp237
g11
(lp238
sg13
S'android.nfc.cardemulation.AidGroup'
p239
sg15
(lp240
sg17
(lp241
sg19
(lp242
sg21
I0
sba(iArchitecture
Entity
p243
(dp244
g11
(lp245
sg13
S'android.nfc.cardemulation.AidGroup$1'
p246
sg15
(lp247
sg17
(lp248
sg19
(lp249
sg21
I0
sbasg148
(lp250
g239
ag246
asg21
I0
sg150
S'591'
p251
sba(iArchitecture
Cluster
p252
(dp253
g7
(lp254
(iArchitecture
Entity
p255
(dp256
g11
(lp257
sg13
S'android.location.Location'
p258
sg15
(lp259
sg17
(lp260
sg19
(lp261
sg21
I0
sba(iArchitecture
Entity
p262
(dp263
g11
(lp264
sg13
S'android.location.Location$1'
p265
sg15
(lp266
sg17
(lp267
sg19
(lp268
sg21
I0
sbasg148
(lp269
g258
ag265
asg21
I0
sg150
S'691'
p270
sba(iArchitecture
Cluster
p271
(dp272
g7
(lp273
(iArchitecture
Entity
p274
(dp275
g11
(lp276
sg13
S'android.transition.TransitionManager'
p277
sg15
(lp278
sg17
(lp279
sg19
(lp280
sg21
I0
sba(iArchitecture
Entity
p281
(dp282
g11
(lp283
sg13
S'android.transition.TransitionManager$MultiListener'
p284
sg15
(lp285
sg17
(lp286
sg19
(lp287
sg21
I0
sba(iArchitecture
Entity
p288
(dp289
g11
(lp290
sg13
S'android.transition.TransitionManager$MultiListener$1'
p291
sg15
(lp292
sg17
(lp293
sg19
(lp294
sg21
I0
sbasg148
(lp295
g277
ag284
ag291
asg21
I0
sg150
S'791'
p296
sba(iArchitecture
Cluster
p297
(dp298
g7
(lp299
(iArchitecture
Entity
p300
(dp301
g11
(lp302
sg13
S'android.view.AccessibilityInteractionController'
p303
sg15
(lp304
sg17
(lp305
sg19
(lp306
sg21
I0
sba(iArchitecture
Entity
p307
(dp308
g11
(lp309
sg13
S'android.view.AccessibilityInteractionController$AccessibilityNodePrefetcher'
p310
sg15
(lp311
sg17
(lp312
sg19
(lp313
sg21
I0
sba(iArchitecture
Entity
p314
(dp315
g11
(lp316
sg13
S'android.view.AccessibilityInteractionController$AddNodeInfosForViewId'
p317
sg15
(lp318
sg17
(lp319
sg19
(lp320
sg21
I0
sba(iArchitecture
Entity
p321
(dp322
g11
(lp323
sg13
S'android.view.AccessibilityInteractionController$PrivateHandler'
p324
sg15
(lp325
sg17
(lp326
sg19
(lp327
sg21
I0
sbasg148
(lp328
g303
ag310
ag317
ag324
asg21
I0
sg150
S'891'
p329
sba(iArchitecture
Cluster
p330
(dp331
g7
(lp332
(iArchitecture
Entity
p333
(dp334
g11
(lp335
sg13
S'com.android.internal.widget.PreferenceImageView'
p336
sg15
(lp337
sg17
(lp338
sg19
(lp339
sg21
I0
sbasg148
(lp340
g336
asg21
I0
sg150
S'91'
p341
sba(iArchitecture
Cluster
p342
(dp343
g7
(lp344
(iArchitecture
Entity
p345
(dp346
g11
(lp347
sg13
S'android.telephony.SubscriptionManager'
p348
sg15
(lp349
sg17
(lp350
sg19
(lp351
sg21
I0
sba(iArchitecture
Entity
p352
(dp353
g11
(lp354
sg13
S'android.telephony.SubscriptionManager$OnSubscriptionsChangedListener'
p355
sg15
(lp356
sg17
(lp357
sg19
(lp358
sg21
I0
sba(iArchitecture
Entity
p359
(dp360
g11
(lp361
sg13
S'android.telephony.SubscriptionManager$OnSubscriptionsChangedListener$1'
p362
sg15
(lp363
sg17
(lp364
sg19
(lp365
sg21
I0
sba(iArchitecture
Entity
p366
(dp367
g11
(lp368
sg13
S'android.telephony.SubscriptionManager$OnSubscriptionsChangedListener$2'
p369
sg15
(lp370
sg17
(lp371
sg19
(lp372
sg21
I0
sbasg148
(lp373
g348
ag355
ag362
ag369
asg21
I0
sg150
S'910'
p374
sba(iArchitecture
Cluster
p375
(dp376
g7
(lp377
(iArchitecture
Entity
p378
(dp379
g11
(lp380
sg13
S'android.text.method.ReplacementTransformationMethod'
p381
sg15
(lp382
sg17
(lp383
sg19
(lp384
sg21
I0
sba(iArchitecture
Entity
p385
(dp386
g11
(lp387
sg13
S'android.text.method.ReplacementTransformationMethod$ReplacementCharSequence'
p388
sg15
(lp389
sg17
(lp390
sg19
(lp391
sg21
I0
sba(iArchitecture
Entity
p392
(dp393
g11
(lp394
sg13
S'android.text.method.ReplacementTransformationMethod$SpannedReplacementCharSequence'
p395
sg15
(lp396
sg17
(lp397
sg19
(lp398
sg21
I0
sbasg148
(lp399
g381
ag388
ag395
asg21
I0
sg150
S'911'
p400
sba(iArchitecture
Cluster
p401
(dp402
g7
(lp403
(iArchitecture
Entity
p404
(dp405
g11
(lp406
sg13
S'android.bluetooth.BluetoothA2dp'
p407
sg15
(lp408
sg17
(lp409
sg19
(lp410
sg21
I0
sba(iArchitecture
Entity
p411
(dp412
g11
(lp413
sg13
S'android.bluetooth.BluetoothA2dp$1'
p414
sg15
(lp415
sg17
(lp416
sg19
(lp417
sg21
I0
sba(iArchitecture
Entity
p418
(dp419
g11
(lp420
sg13
S'android.bluetooth.BluetoothA2dp$2'
p421
sg15
(lp422
sg17
(lp423
sg19
(lp424
sg21
I0
sbasg148
(lp425
g407
ag414
ag421
asg21
I0
sg150
S'912'
p426
sba(iArchitecture
Cluster
p427
(dp428
g7
(lp429
(iArchitecture
Entity
p430
(dp431
g11
(lp432
sg13
S'com.android.internal.widget.AutoScrollHelper'
p433
sg15
(lp434
sg17
(lp435
sg19
(lp436
sg21
I0
sba(iArchitecture
Entity
p437
(dp438
g11
(lp439
sg13
S'com.android.internal.widget.AutoScrollHelper$AbsListViewAutoScroller'
p440
sg15
(lp441
sg17
(lp442
sg19
(lp443
sg21
I0
sba(iArchitecture
Entity
p444
(dp445
g11
(lp446
sg13
S'com.android.internal.widget.AutoScrollHelper$ClampedScroller'
p447
sg15
(lp448
sg17
(lp449
sg19
(lp450
sg21
I0
sba(iArchitecture
Entity
p451
(dp452
g11
(lp453
sg13
S'com.android.internal.widget.AutoScrollHelper$ScrollAnimationRunnable'
p454
sg15
(lp455
sg17
(lp456
sg19
(lp457
sg21
I0
sbasg148
(lp458
g433
ag440
ag447
ag454
asg21
I0
sg150
S'913'
p459
sba(iArchitecture
Cluster
p460
(dp461
g7
(lp462
(iArchitecture
Entity
p463
(dp464
g11
(lp465
sg13
S'android.accounts.AbstractAccountAuthenticator'
p466
sg15
(lp467
sg17
(lp468
sg19
(lp469
sg21
I0
sba(iArchitecture
Entity
p470
(dp471
g11
(lp472
sg13
S'android.accounts.AbstractAccountAuthenticator$1'
p473
sg15
(lp474
sg17
(lp475
sg19
(lp476
sg21
I0
sba(iArchitecture
Entity
p477
(dp478
g11
(lp479
sg13
S'android.accounts.AbstractAccountAuthenticator$2'
p480
sg15
(lp481
sg17
(lp482
sg19
(lp483
sg21
I0
sba(iArchitecture
Entity
p484
(dp485
g11
(lp486
sg13
S'android.accounts.AbstractAccountAuthenticator$Transport'
p487
sg15
(lp488
sg17
(lp489
sg19
(lp490
sg21
I0
sbasg148
(lp491
g466
ag473
ag480
ag487
asg21
I0
sg150
S'914'
p492
sba(iArchitecture
Cluster
p493
(dp494
g7
(lp495
(iArchitecture
Entity
p496
(dp497
g11
(lp498
sg13
S'com.android.server.display.VirtualDisplayAdapter'
p499
sg15
(lp500
sg17
(lp501
sg19
(lp502
sg21
I0
sba(iArchitecture
Entity
p503
(dp504
g11
(lp505
sg13
S'com.android.server.display.VirtualDisplayAdapter$Callback'
p506
sg15
(lp507
sg17
(lp508
sg19
(lp509
sg21
I0
sba(iArchitecture
Entity
p510
(dp511
g11
(lp512
sg13
S'com.android.server.display.VirtualDisplayAdapter$MediaProjectionCallback'
p513
sg15
(lp514
sg17
(lp515
sg19
(lp516
sg21
I0
sba(iArchitecture
Entity
p517
(dp518
g11
(lp519
sg13
S'com.android.server.display.VirtualDisplayAdapter$VirtualDisplayDevice'
p520
sg15
(lp521
sg17
(lp522
sg19
(lp523
sg21
I0
sbasg148
(lp524
g499
ag506
ag513
ag520
asg21
I0
sg150
S'915'
p525
sba(iArchitecture
Cluster
p526
(dp527
g7
(lp528
(iArchitecture
Entity
p529
(dp530
g11
(lp531
sg13
S'com.android.server.usb.UsbSettingsManager'
p532
sg15
(lp533
sg17
(lp534
sg19
(lp535
sg21
I0
sba(iArchitecture
Entity
p536
(dp537
g11
(lp538
sg13
S'com.android.server.usb.UsbSettingsManager$AccessoryFilter'
p539
sg15
(lp540
sg17
(lp541
sg19
(lp542
sg21
I0
sba(iArchitecture
Entity
p543
(dp544
g11
(lp545
sg13
S'com.android.server.usb.UsbSettingsManager$DeviceFilter'
p546
sg15
(lp547
sg17
(lp548
sg19
(lp549
sg21
I0
sba(iArchitecture
Entity
p550
(dp551
g11
(lp552
sg13
S'com.android.server.usb.UsbSettingsManager$MyPackageMonitor'
p553
sg15
(lp554
sg17
(lp555
sg19
(lp556
sg21
I0
sbasg148
(lp557
g532
ag539
ag546
ag553
asg21
I0
sg150
S'916'
p558
sba(iArchitecture
Cluster
p559
(dp560
g7
(lp561
(iArchitecture
Entity
p562
(dp563
g11
(lp564
sg13
S'android.net.Network'
p565
sg15
(lp566
sg17
(lp567
sg19
(lp568
sg21
I0
sba(iArchitecture
Entity
p569
(dp570
g11
(lp571
sg13
S'android.net.Network$1'
p572
sg15
(lp573
sg17
(lp574
sg19
(lp575
sg21
I0
sba(iArchitecture
Entity
p576
(dp577
g11
(lp578
sg13
S'android.net.Network$2'
p579
sg15
(lp580
sg17
(lp581
sg19
(lp582
sg21
I0
sba(iArchitecture
Entity
p583
(dp584
g11
(lp585
sg13
S'android.net.Network$NetworkBoundSocketFactory'
p586
sg15
(lp587
sg17
(lp588
sg19
(lp589
sg21
I0
sbasg148
(lp590
g565
ag572
ag579
ag586
asg21
I0
sg150
S'917'
p591
sba(iArchitecture
Cluster
p592
(dp593
g7
(lp594
(iArchitecture
Entity
p595
(dp596
g11
(lp597
sg13
S'android.net.LinkProperties'
p598
sg15
(lp599
sg17
(lp600
sg19
(lp601
sg21
I0
sba(iArchitecture
Entity
p602
(dp603
g11
(lp604
sg13
S'android.net.LinkProperties$1'
p605
sg15
(lp606
sg17
(lp607
sg19
(lp608
sg21
I0
sba(iArchitecture
Entity
p609
(dp610
g11
(lp611
sg13
S'android.net.LinkProperties$CompareResult'
p612
sg15
(lp613
sg17
(lp614
sg19
(lp615
sg21
I0
sba(iArchitecture
Entity
p616
(dp617
g11
(lp618
sg13
S'android.net.LinkProperties$ProvisioningChange'
p619
sg15
(lp620
sg17
(lp621
sg19
(lp622
sg21
I0
sbasg148
(lp623
g598
ag605
ag612
ag619
asg21
I0
sg150
S'918'
p624
sba(iArchitecture
Cluster
p625
(dp626
g7
(lp627
(iArchitecture
Entity
p628
(dp629
g11
(lp630
sg13
S'android.content.pm.PackageManagerInternal'
p631
sg15
(lp632
sg17
(lp633
sg19
(lp634
sg21
I0
sba(iArchitecture
Entity
p635
(dp636
g11
(lp637
sg13
S'android.content.pm.PackageManagerInternal$PackagesProvider'
p638
sg15
(lp639
sg17
(lp640
sg19
(lp641
sg21
I0
sba(iArchitecture
Entity
p642
(dp643
g11
(lp644
sg13
S'android.content.pm.PackageManagerInternal$SyncAdapterPackagesProvider'
p645
sg15
(lp646
sg17
(lp647
sg19
(lp648
sg21
I0
sbasg148
(lp649
g631
ag638
ag645
asg21
I0
sg150
S'919'
p650
sba(iArchitecture
Cluster
p651
(dp652
g7
(lp653
(iArchitecture
Entity
p654
(dp655
g11
(lp656
sg13
S'android.media.MediaSync'
p657
sg15
(lp658
sg17
(lp659
sg19
(lp660
sg21
I0
sba(iArchitecture
Entity
p661
(dp662
g11
(lp663
sg13
S'android.media.MediaSync$1'
p664
sg15
(lp665
sg17
(lp666
sg19
(lp667
sg21
I0
sba(iArchitecture
Entity
p668
(dp669
g11
(lp670
sg13
S'android.media.MediaSync$2'
p671
sg15
(lp672
sg17
(lp673
sg19
(lp674
sg21
I0
sba(iArchitecture
Entity
p675
(dp676
g11
(lp677
sg13
S'android.media.MediaSync$3'
p678
sg15
(lp679
sg17
(lp680
sg19
(lp681
sg21
I0
sba(iArchitecture
Entity
p682
(dp683
g11
(lp684
sg13
S'android.media.MediaSync$AudioBuffer'
p685
sg15
(lp686
sg17
(lp687
sg19
(lp688
sg21
I0
sba(iArchitecture
Entity
p689
(dp690
g11
(lp691
sg13
S'android.media.MediaSync$Callback'
p692
sg15
(lp693
sg17
(lp694
sg19
(lp695
sg21
I0
sba(iArchitecture
Entity
p696
(dp697
g11
(lp698
sg13
S'android.media.MediaSync$OnErrorListener'
p699
sg15
(lp700
sg17
(lp701
sg19
(lp702
sg21
I0
sbasg148
(lp703
g657
ag664
ag671
ag678
ag685
ag692
ag699
asg21
I0
sg150
S'991'
p704
sbasS'target_sub'
p705
S'91'
p706
sg148
(lp707
sS'is_component_arch'
p708
I01
sg150
S'6.0.0_r1'
p709
sba.