(lp0
(iArchitecture
Architecture
p1
(dp2
S'clusters'
p3
(lp4
(iArchitecture
Cluster
p5
(dp6
S'entities'
p7
(lp8
(iArchitecture
Entity
p9
(dp10
S'issue_ids'
p11
(lp12
sS'name'
p13
S'com.android.internal.util.StateMachine'
p14
sS'descs'
p15
(lp16
sS'labels'
p17
(lp18
sS'titles'
p19
(lp20
sS'change'
p21
I0
sba(iArchitecture
Entity
p22
(dp23
g11
(lp24
sg13
S'com.android.internal.util.StateMachine$LogRec'
p25
sg15
(lp26
sg17
(lp27
sg19
(lp28
sg21
I0
sba(iArchitecture
Entity
p29
(dp30
g11
(lp31
sg13
S'com.android.internal.util.StateMachine$LogRecords'
p32
sg15
(lp33
sg17
(lp34
sg19
(lp35
sg21
I0
sba(iArchitecture
Entity
p36
(dp37
g11
(lp38
sg13
S'com.android.internal.util.StateMachine$SmHandler'
p39
sg15
(lp40
sg17
(lp41
sg19
(lp42
sg21
I0
sba(iArchitecture
Entity
p43
(dp44
g11
(lp45
sg13
S'com.android.internal.util.StateMachine$SmHandler$HaltingState'
p46
sg15
(lp47
sg17
(lp48
sg19
(lp49
sg21
I0
sba(iArchitecture
Entity
p50
(dp51
g11
(lp52
sg13
S'com.android.internal.util.StateMachine$SmHandler$QuittingState'
p53
sg15
(lp54
sg17
(lp55
sg19
(lp56
sg21
I0
sba(iArchitecture
Entity
p57
(dp58
g11
(lp59
sg13
S'com.android.internal.util.StateMachine$SmHandler$StateInfo'
p60
sg15
(lp61
sg17
(lp62
sg19
(lp63
sg21
I0
sbasS'classes'
p64
(lp65
g14
ag25
ag32
ag39
ag46
ag53
ag60
asg21
I0
sS'label'
p66
S'1031'
p67
sba(iArchitecture
Cluster
p68
(dp69
g7
(lp70
(iArchitecture
Entity
p71
(dp72
g11
(lp73
sg13
S'android.app.ActivityTransitionCoordinator'
p74
sg15
(lp75
sg17
(lp76
sg19
(lp77
sg21
I0
sba(iArchitecture
Entity
p78
(dp79
g11
(lp80
sg13
S'android.app.ActivityTransitionCoordinator$1'
p81
sg15
(lp82
sg17
(lp83
sg19
(lp84
sg21
I0
sba(iArchitecture
Entity
p85
(dp86
g11
(lp87
sg13
S'android.app.ActivityTransitionCoordinator$2'
p88
sg15
(lp89
sg17
(lp90
sg19
(lp91
sg21
I0
sba(iArchitecture
Entity
p92
(dp93
g11
(lp94
sg13
S'android.app.ActivityTransitionCoordinator$ContinueTransitionListener'
p95
sg15
(lp96
sg17
(lp97
sg19
(lp98
sg21
I0
sba(iArchitecture
Entity
p99
(dp100
g11
(lp101
sg13
S'android.app.ActivityTransitionCoordinator$FixedEpicenterCallback'
p102
sg15
(lp103
sg17
(lp104
sg19
(lp105
sg21
I0
sba(iArchitecture
Entity
p106
(dp107
g11
(lp108
sg13
S'android.app.ActivityTransitionCoordinator$GhostViewListeners'
p109
sg15
(lp110
sg17
(lp111
sg19
(lp112
sg21
I0
sba(iArchitecture
Entity
p113
(dp114
g11
(lp115
sg13
S'android.app.ActivityTransitionCoordinator$SharedElementOriginalState'
p116
sg15
(lp117
sg17
(lp118
sg19
(lp119
sg21
I0
sba(iArchitecture
Entity
p120
(dp121
g11
(lp122
sg13
S'android.app.EnterTransitionCoordinator'
p123
sg15
(lp124
sg17
(lp125
sg19
(lp126
sg21
I0
sba(iArchitecture
Entity
p127
(dp128
g11
(lp129
sg13
S'android.app.EnterTransitionCoordinator$1'
p130
sg15
(lp131
sg17
(lp132
sg19
(lp133
sg21
I0
sba(iArchitecture
Entity
p134
(dp135
g11
(lp136
sg13
S'android.app.EnterTransitionCoordinator$10'
p137
sg15
(lp138
sg17
(lp139
sg19
(lp140
sg21
I0
sba(iArchitecture
Entity
p141
(dp142
g11
(lp143
sg13
S'android.app.EnterTransitionCoordinator$11'
p144
sg15
(lp145
sg17
(lp146
sg19
(lp147
sg21
I0
sba(iArchitecture
Entity
p148
(dp149
g11
(lp150
sg13
S'android.app.EnterTransitionCoordinator$2'
p151
sg15
(lp152
sg17
(lp153
sg19
(lp154
sg21
I0
sba(iArchitecture
Entity
p155
(dp156
g11
(lp157
sg13
S'android.app.EnterTransitionCoordinator$3'
p158
sg15
(lp159
sg17
(lp160
sg19
(lp161
sg21
I0
sba(iArchitecture
Entity
p162
(dp163
g11
(lp164
sg13
S'android.app.EnterTransitionCoordinator$4'
p165
sg15
(lp166
sg17
(lp167
sg19
(lp168
sg21
I0
sba(iArchitecture
Entity
p169
(dp170
g11
(lp171
sg13
S'android.app.EnterTransitionCoordinator$5'
p172
sg15
(lp173
sg17
(lp174
sg19
(lp175
sg21
I0
sba(iArchitecture
Entity
p176
(dp177
g11
(lp178
sg13
S'android.app.EnterTransitionCoordinator$5$1'
p179
sg15
(lp180
sg17
(lp181
sg19
(lp182
sg21
I0
sba(iArchitecture
Entity
p183
(dp184
g11
(lp185
sg13
S'android.app.EnterTransitionCoordinator$5$1$1'
p186
sg15
(lp187
sg17
(lp188
sg19
(lp189
sg21
I0
sba(iArchitecture
Entity
p190
(dp191
g11
(lp192
sg13
S'android.app.EnterTransitionCoordinator$6'
p193
sg15
(lp194
sg17
(lp195
sg19
(lp196
sg21
I0
sba(iArchitecture
Entity
p197
(dp198
g11
(lp199
sg13
S'android.app.EnterTransitionCoordinator$7'
p200
sg15
(lp201
sg17
(lp202
sg19
(lp203
sg21
I0
sba(iArchitecture
Entity
p204
(dp205
g11
(lp206
sg13
S'android.app.EnterTransitionCoordinator$8'
p207
sg15
(lp208
sg17
(lp209
sg19
(lp210
sg21
I0
sba(iArchitecture
Entity
p211
(dp212
g11
(lp213
sg13
S'android.app.EnterTransitionCoordinator$9'
p214
sg15
(lp215
sg17
(lp216
sg19
(lp217
sg21
I0
sba(iArchitecture
Entity
p218
(dp219
g11
(lp220
sg13
S'android.app.ExitTransitionCoordinator'
p221
sg15
(lp222
sg17
(lp223
sg19
(lp224
sg21
I0
sba(iArchitecture
Entity
p225
(dp226
g11
(lp227
sg13
S'android.app.ExitTransitionCoordinator$1'
p228
sg15
(lp229
sg17
(lp230
sg19
(lp231
sg21
I0
sba(iArchitecture
Entity
p232
(dp233
g11
(lp234
sg13
S'android.app.ExitTransitionCoordinator$10'
p235
sg15
(lp236
sg17
(lp237
sg19
(lp238
sg21
I0
sba(iArchitecture
Entity
p239
(dp240
g11
(lp241
sg13
S'android.app.ExitTransitionCoordinator$11'
p242
sg15
(lp243
sg17
(lp244
sg19
(lp245
sg21
I0
sba(iArchitecture
Entity
p246
(dp247
g11
(lp248
sg13
S'android.app.ExitTransitionCoordinator$2'
p249
sg15
(lp250
sg17
(lp251
sg19
(lp252
sg21
I0
sba(iArchitecture
Entity
p253
(dp254
g11
(lp255
sg13
S'android.app.ExitTransitionCoordinator$3'
p256
sg15
(lp257
sg17
(lp258
sg19
(lp259
sg21
I0
sba(iArchitecture
Entity
p260
(dp261
g11
(lp262
sg13
S'android.app.ExitTransitionCoordinator$4'
p263
sg15
(lp264
sg17
(lp265
sg19
(lp266
sg21
I0
sba(iArchitecture
Entity
p267
(dp268
g11
(lp269
sg13
S'android.app.ExitTransitionCoordinator$5'
p270
sg15
(lp271
sg17
(lp272
sg19
(lp273
sg21
I0
sba(iArchitecture
Entity
p274
(dp275
g11
(lp276
sg13
S'android.app.ExitTransitionCoordinator$6'
p277
sg15
(lp278
sg17
(lp279
sg19
(lp280
sg21
I0
sba(iArchitecture
Entity
p281
(dp282
g11
(lp283
sg13
S'android.app.ExitTransitionCoordinator$7'
p284
sg15
(lp285
sg17
(lp286
sg19
(lp287
sg21
I0
sba(iArchitecture
Entity
p288
(dp289
g11
(lp290
sg13
S'android.app.ExitTransitionCoordinator$8'
p291
sg15
(lp292
sg17
(lp293
sg19
(lp294
sg21
I0
sba(iArchitecture
Entity
p295
(dp296
g11
(lp297
sg13
S'android.app.ExitTransitionCoordinator$9'
p298
sg15
(lp299
sg17
(lp300
sg19
(lp301
sg21
I0
sbasg64
(lp302
g74
ag81
ag88
ag95
ag102
ag109
ag116
ag123
ag130
ag137
ag144
ag151
ag158
ag165
ag172
ag179
ag186
ag193
ag200
ag207
ag214
ag221
ag228
ag235
ag242
ag249
ag256
ag263
ag270
ag277
ag284
ag291
ag298
asg21
I0
sg66
S'1131'
p303
sba(iArchitecture
Cluster
p304
(dp305
g7
(lp306
(iArchitecture
Entity
p307
(dp308
g11
(lp309
sg13
S'android.filterfw.core.Frame'
p310
sg15
(lp311
sg17
(lp312
sg19
(lp313
sg21
I0
sba(iArchitecture
Entity
p314
(dp315
g11
(lp316
sg13
S'android.filterfw.core.GLFrame'
p317
sg15
(lp318
sg17
(lp319
sg19
(lp320
sg21
I0
sba(iArchitecture
Entity
p321
(dp322
g11
(lp323
sg13
S'android.filterfw.core.NativeFrame'
p324
sg15
(lp325
sg17
(lp326
sg19
(lp327
sg21
I0
sba(iArchitecture
Entity
p328
(dp329
g11
(lp330
sg13
S'android.filterfw.core.SerializedFrame'
p331
sg15
(lp332
sg17
(lp333
sg19
(lp334
sg21
I0
sba(iArchitecture
Entity
p335
(dp336
g11
(lp337
sg13
S'android.filterfw.core.SerializedFrame$DirectByteInputStream'
p338
sg15
(lp339
sg17
(lp340
sg19
(lp341
sg21
I0
sba(iArchitecture
Entity
p342
(dp343
g11
(lp344
sg13
S'android.filterfw.core.SerializedFrame$DirectByteOutputStream'
p345
sg15
(lp346
sg17
(lp347
sg19
(lp348
sg21
I0
sba(iArchitecture
Entity
p349
(dp350
g11
(lp351
sg13
S'android.filterfw.core.SimpleFrame'
p352
sg15
(lp353
sg17
(lp354
sg19
(lp355
sg21
I0
sbasg64
(lp356
g310
ag317
ag324
ag331
ag338
ag345
ag352
asg21
I0
sg66
S'1231'
p357
sba(iArchitecture
Cluster
p358
(dp359
g7
(lp360
(iArchitecture
Entity
p361
(dp362
g11
(lp363
sg13
S'android.graphics.Insets'
p364
sg15
(lp365
sg17
(lp366
sg19
(lp367
sg21
I0
sbasg64
(lp368
g364
asg21
I0
sg66
S'131'
p369
sba(iArchitecture
Cluster
p370
(dp371
g7
(lp372
(iArchitecture
Entity
p373
(dp374
g11
(lp375
sg13
S'android.filterfw.core.FilterGraph'
p376
sg15
(lp377
sg17
(lp378
sg19
(lp379
sg21
I0
sbasg64
(lp380
g376
asg21
I0
sg66
S'231'
p381
sba(iArchitecture
Cluster
p382
(dp383
g7
(lp384
(iArchitecture
Entity
p385
(dp386
g11
(lp387
sg13
S'android.text.MeasuredText'
p388
sg15
(lp389
sg17
(lp390
sg19
(lp391
sg21
I0
sbasg64
(lp392
g388
asg21
I0
sg66
S'31'
p393
sba(iArchitecture
Cluster
p394
(dp395
g7
(lp396
(iArchitecture
Entity
p397
(dp398
g11
(lp399
sg13
S'com.android.internal.widget.SubtitleView'
p400
sg15
(lp401
sg17
(lp402
sg19
(lp403
sg21
I0
sbasg64
(lp404
g400
asg21
I0
sg66
S'310'
p405
sba(iArchitecture
Cluster
p406
(dp407
g7
(lp408
(iArchitecture
Entity
p409
(dp410
g11
(lp411
sg13
S'android.filterfw.MffEnvironment'
p412
sg15
(lp413
sg17
(lp414
sg19
(lp415
sg21
I0
sbasg64
(lp416
g412
asg21
I0
sg66
S'311'
p417
sba(iArchitecture
Cluster
p418
(dp419
g7
(lp420
(iArchitecture
Entity
p421
(dp422
g11
(lp423
sg13
S'android.graphics.LightingColorFilter'
p424
sg15
(lp425
sg17
(lp426
sg19
(lp427
sg21
I0
sbasg64
(lp428
g424
asg21
I0
sg66
S'312'
p429
sba(iArchitecture
Cluster
p430
(dp431
g7
(lp432
(iArchitecture
Entity
p433
(dp434
g11
(lp435
sg13
S'android.view.GhostView'
p436
sg15
(lp437
sg17
(lp438
sg19
(lp439
sg21
I0
sbasg64
(lp440
g436
asg21
I0
sg66
S'313'
p441
sba(iArchitecture
Cluster
p442
(dp443
g7
(lp444
(iArchitecture
Entity
p445
(dp446
g11
(lp447
sg13
S'android.nfc.tech.BasicTagTechnology'
p448
sg15
(lp449
sg17
(lp450
sg19
(lp451
sg21
I0
sbasg64
(lp452
g448
asg21
I0
sg66
S'314'
p453
sba(iArchitecture
Cluster
p454
(dp455
g7
(lp456
(iArchitecture
Entity
p457
(dp458
g11
(lp459
sg13
S'android.webkit.UrlInterceptRegistry'
p460
sg15
(lp461
sg17
(lp462
sg19
(lp463
sg21
I0
sbasg64
(lp464
g460
asg21
I0
sg66
S'315'
p465
sba(iArchitecture
Cluster
p466
(dp467
g7
(lp468
(iArchitecture
Entity
p469
(dp470
g11
(lp471
sg13
S'com.android.server.usage.UnixCalendar'
p472
sg15
(lp473
sg17
(lp474
sg19
(lp475
sg21
I0
sbasg64
(lp476
g472
asg21
I0
sg66
S'316'
p477
sba(iArchitecture
Cluster
p478
(dp479
g7
(lp480
(iArchitecture
Entity
p481
(dp482
g11
(lp483
sg13
S'android.preference.RingtonePreference'
p484
sg15
(lp485
sg17
(lp486
sg19
(lp487
sg21
I0
sbasg64
(lp488
g484
asg21
I0
sg66
S'317'
p489
sba(iArchitecture
Cluster
p490
(dp491
g7
(lp492
(iArchitecture
Entity
p493
(dp494
g11
(lp495
sg13
S'android.filterfw.format.PrimitiveFormat'
p496
sg15
(lp497
sg17
(lp498
sg19
(lp499
sg21
I0
sbasg64
(lp500
g496
asg21
I0
sg66
S'318'
p501
sba(iArchitecture
Cluster
p502
(dp503
g7
(lp504
(iArchitecture
Entity
p505
(dp506
g11
(lp507
sg13
S'android.graphics.Camera'
p508
sg15
(lp509
sg17
(lp510
sg19
(lp511
sg21
I0
sbasg64
(lp512
g508
asg21
I0
sg66
S'319'
p513
sba(iArchitecture
Cluster
p514
(dp515
g7
(lp516
(iArchitecture
Entity
p517
(dp518
g11
(lp519
sg13
S'com.android.internal.widget.TextProgressBar'
p520
sg15
(lp521
sg17
(lp522
sg19
(lp523
sg21
I0
sbasg64
(lp524
g520
asg21
I0
sg66
S'331'
p525
sba(iArchitecture
Cluster
p526
(dp527
g7
(lp528
(iArchitecture
Entity
p529
(dp530
g11
(lp531
sg13
S'android.net.WebAddress'
p532
sg15
(lp533
sg17
(lp534
sg19
(lp535
sg21
I0
sbasg64
(lp536
g532
asg21
I0
sg66
S'431'
p537
sba(iArchitecture
Cluster
p538
(dp539
g7
(lp540
(iArchitecture
Entity
p541
(dp542
g11
(lp543
sg13
S'com.android.server.hdmi.HdmiCecKeycode'
p544
sg15
(lp545
sg17
(lp546
sg19
(lp547
sg21
I0
sba(iArchitecture
Entity
p548
(dp549
g11
(lp550
sg13
S'com.android.server.hdmi.HdmiCecKeycode$KeycodeEntry'
p551
sg15
(lp552
sg17
(lp553
sg19
(lp554
sg21
I0
sbasg64
(lp555
g544
ag551
asg21
I0
sg66
S'531'
p556
sba(iArchitecture
Cluster
p557
(dp558
g7
(lp559
(iArchitecture
Entity
p560
(dp561
g11
(lp562
sg13
S'android.net.UidRange'
p563
sg15
(lp564
sg17
(lp565
sg19
(lp566
sg21
I0
sba(iArchitecture
Entity
p567
(dp568
g11
(lp569
sg13
S'android.net.UidRange$1'
p570
sg15
(lp571
sg17
(lp572
sg19
(lp573
sg21
I0
sbasg64
(lp574
g563
ag570
asg21
I0
sg66
S'631'
p575
sba(iArchitecture
Cluster
p576
(dp577
g7
(lp578
(iArchitecture
Entity
p579
(dp580
g11
(lp581
sg13
S'com.android.server.pm.PreferredComponent'
p582
sg15
(lp583
sg17
(lp584
sg19
(lp585
sg21
I0
sba(iArchitecture
Entity
p586
(dp587
g11
(lp588
sg13
S'com.android.server.pm.PreferredComponent$Callbacks'
p589
sg15
(lp590
sg17
(lp591
sg19
(lp592
sg21
I0
sbasg64
(lp593
g582
ag589
asg21
I0
sg66
S'731'
p594
sba(iArchitecture
Cluster
p595
(dp596
g7
(lp597
(iArchitecture
Entity
p598
(dp599
g11
(lp600
sg13
S'com.android.server.location.GeofenceProxy'
p601
sg15
(lp602
sg17
(lp603
sg19
(lp604
sg21
I0
sba(iArchitecture
Entity
p605
(dp606
g11
(lp607
sg13
S'com.android.server.location.GeofenceProxy$1'
p608
sg15
(lp609
sg17
(lp610
sg19
(lp611
sg21
I0
sba(iArchitecture
Entity
p612
(dp613
g11
(lp614
sg13
S'com.android.server.location.GeofenceProxy$2'
p615
sg15
(lp616
sg17
(lp617
sg19
(lp618
sg21
I0
sba(iArchitecture
Entity
p619
(dp620
g11
(lp621
sg13
S'com.android.server.location.GeofenceProxy$3'
p622
sg15
(lp623
sg17
(lp624
sg19
(lp625
sg21
I0
sbasg64
(lp626
g601
ag608
ag615
ag622
asg21
I0
sg66
S'831'
p627
sba(iArchitecture
Cluster
p628
(dp629
g7
(lp630
(iArchitecture
Entity
p631
(dp632
g11
(lp633
sg13
S'android.media.projection.MediaProjection'
p634
sg15
(lp635
sg17
(lp636
sg19
(lp637
sg21
I0
sba(iArchitecture
Entity
p638
(dp639
g11
(lp640
sg13
S'android.media.projection.MediaProjection$Callback'
p641
sg15
(lp642
sg17
(lp643
sg19
(lp644
sg21
I0
sba(iArchitecture
Entity
p645
(dp646
g11
(lp647
sg13
S'android.media.projection.MediaProjection$CallbackRecord'
p648
sg15
(lp649
sg17
(lp650
sg19
(lp651
sg21
I0
sba(iArchitecture
Entity
p652
(dp653
g11
(lp654
sg13
S'android.media.projection.MediaProjection$CallbackRecord$1'
p655
sg15
(lp656
sg17
(lp657
sg19
(lp658
sg21
I0
sba(iArchitecture
Entity
p659
(dp660
g11
(lp661
sg13
S'android.media.projection.MediaProjection$MediaProjectionCallback'
p662
sg15
(lp663
sg17
(lp664
sg19
(lp665
sg21
I0
sbasg64
(lp666
g634
ag641
ag648
ag655
ag662
asg21
I0
sg66
S'931'
p667
sbasS'target_sub'
p668
S'31'
p669
sg64
(lp670
sS'is_component_arch'
p671
I01
sg66
S'6.0.0_r1'
p672
sba.