(lp0
(iArchitecture
Architecture
p1
(dp2
S'clusters'
p3
(lp4
(iArchitecture
Cluster
p5
(dp6
S'entities'
p7
(lp8
(iArchitecture
Entity
p9
(dp10
S'issue_ids'
p11
(lp12
sS'name'
p13
S'android.animation.PathKeyframes'
p14
sS'descs'
p15
(lp16
sS'labels'
p17
(lp18
sS'titles'
p19
(lp20
sS'change'
p21
I0
sba(iArchitecture
Entity
p22
(dp23
g11
(lp24
sg13
S'android.animation.PathKeyframes$1'
p25
sg15
(lp26
sg17
(lp27
sg19
(lp28
sg21
I0
sba(iArchitecture
Entity
p29
(dp30
g11
(lp31
sg13
S'android.animation.PathKeyframes$2'
p32
sg15
(lp33
sg17
(lp34
sg19
(lp35
sg21
I0
sba(iArchitecture
Entity
p36
(dp37
g11
(lp38
sg13
S'android.animation.PathKeyframes$3'
p39
sg15
(lp40
sg17
(lp41
sg19
(lp42
sg21
I0
sba(iArchitecture
Entity
p43
(dp44
g11
(lp45
sg13
S'android.animation.PathKeyframes$4'
p46
sg15
(lp47
sg17
(lp48
sg19
(lp49
sg21
I0
sba(iArchitecture
Entity
p50
(dp51
g11
(lp52
sg13
S'android.animation.PathKeyframes$FloatKeyframesBase'
p53
sg15
(lp54
sg17
(lp55
sg19
(lp56
sg21
I0
sba(iArchitecture
Entity
p57
(dp58
g11
(lp59
sg13
S'android.animation.PathKeyframes$IntKeyframesBase'
p60
sg15
(lp61
sg17
(lp62
sg19
(lp63
sg21
I0
sba(iArchitecture
Entity
p64
(dp65
g11
(lp66
sg13
S'android.animation.PathKeyframes$SimpleKeyframes'
p67
sg15
(lp68
sg17
(lp69
sg19
(lp70
sg21
I0
sbasS'classes'
p71
(lp72
g14
ag25
ag32
ag39
ag46
ag53
ag60
ag67
asg21
I0
sS'label'
p73
S'1045'
p74
sba(iArchitecture
Cluster
p75
(dp76
g7
(lp77
(iArchitecture
Entity
p78
(dp79
g11
(lp80
sg13
S'android.widget.TimePicker'
p81
sg15
(lp82
sg17
(lp83
sg19
(lp84
sg21
I0
sba(iArchitecture
Entity
p85
(dp86
g11
(lp87
sg13
S'android.widget.TimePicker$AbstractTimePickerDelegate'
p88
sg15
(lp89
sg17
(lp90
sg19
(lp91
sg21
I0
sba(iArchitecture
Entity
p92
(dp93
g11
(lp94
sg13
S'android.widget.TimePicker$OnTimeChangedListener'
p95
sg15
(lp96
sg17
(lp97
sg19
(lp98
sg21
I0
sba(iArchitecture
Entity
p99
(dp100
g11
(lp101
sg13
S'android.widget.TimePicker$TimePickerDelegate'
p102
sg15
(lp103
sg17
(lp104
sg19
(lp105
sg21
I0
sba(iArchitecture
Entity
p106
(dp107
g11
(lp108
sg13
S'android.widget.TimePicker$ValidationCallback'
p109
sg15
(lp110
sg17
(lp111
sg19
(lp112
sg21
I0
sba(iArchitecture
Entity
p113
(dp114
g11
(lp115
sg13
S'android.widget.TimePickerClockDelegate'
p116
sg15
(lp117
sg17
(lp118
sg19
(lp119
sg21
I0
sba(iArchitecture
Entity
p120
(dp121
g11
(lp122
sg13
S'android.widget.TimePickerClockDelegate$1'
p123
sg15
(lp124
sg17
(lp125
sg19
(lp126
sg21
I0
sba(iArchitecture
Entity
p127
(dp128
g11
(lp129
sg13
S'android.widget.TimePickerClockDelegate$2'
p130
sg15
(lp131
sg17
(lp132
sg19
(lp133
sg21
I0
sba(iArchitecture
Entity
p134
(dp135
g11
(lp136
sg13
S'android.widget.TimePickerClockDelegate$3'
p137
sg15
(lp138
sg17
(lp139
sg19
(lp140
sg21
I0
sba(iArchitecture
Entity
p141
(dp142
g11
(lp143
sg13
S'android.widget.TimePickerClockDelegate$ClickActionDelegate'
p144
sg15
(lp145
sg17
(lp146
sg19
(lp147
sg21
I0
sba(iArchitecture
Entity
p148
(dp149
g11
(lp150
sg13
S'android.widget.TimePickerClockDelegate$Node'
p151
sg15
(lp152
sg17
(lp153
sg19
(lp154
sg21
I0
sba(iArchitecture
Entity
p155
(dp156
g11
(lp157
sg13
S'android.widget.TimePickerClockDelegate$SavedState'
p158
sg15
(lp159
sg17
(lp160
sg19
(lp161
sg21
I0
sba(iArchitecture
Entity
p162
(dp163
g11
(lp164
sg13
S'android.widget.TimePickerClockDelegate$SavedState$1'
p165
sg15
(lp166
sg17
(lp167
sg19
(lp168
sg21
I0
sba(iArchitecture
Entity
p169
(dp170
g11
(lp171
sg13
S'android.widget.TimePickerSpinnerDelegate'
p172
sg15
(lp173
sg17
(lp174
sg19
(lp175
sg21
I0
sba(iArchitecture
Entity
p176
(dp177
g11
(lp178
sg13
S'android.widget.TimePickerSpinnerDelegate$1'
p179
sg15
(lp180
sg17
(lp181
sg19
(lp182
sg21
I0
sba(iArchitecture
Entity
p183
(dp184
g11
(lp185
sg13
S'android.widget.TimePickerSpinnerDelegate$2'
p186
sg15
(lp187
sg17
(lp188
sg19
(lp189
sg21
I0
sba(iArchitecture
Entity
p190
(dp191
g11
(lp192
sg13
S'android.widget.TimePickerSpinnerDelegate$3'
p193
sg15
(lp194
sg17
(lp195
sg19
(lp196
sg21
I0
sba(iArchitecture
Entity
p197
(dp198
g11
(lp199
sg13
S'android.widget.TimePickerSpinnerDelegate$4'
p200
sg15
(lp201
sg17
(lp202
sg19
(lp203
sg21
I0
sba(iArchitecture
Entity
p204
(dp205
g11
(lp206
sg13
S'android.widget.TimePickerSpinnerDelegate$SavedState'
p207
sg15
(lp208
sg17
(lp209
sg19
(lp210
sg21
I0
sba(iArchitecture
Entity
p211
(dp212
g11
(lp213
sg13
S'android.widget.TimePickerSpinnerDelegate$SavedState$1'
p214
sg15
(lp215
sg17
(lp216
sg19
(lp217
sg21
I0
sbasg71
(lp218
g81
ag88
ag95
ag102
ag109
ag116
ag123
ag130
ag137
ag144
ag151
ag158
ag165
ag172
ag179
ag186
ag193
ag200
ag207
ag214
asg21
I0
sg73
S'1145'
p219
sba(iArchitecture
Cluster
p220
(dp221
g7
(lp222
(iArchitecture
Entity
p223
(dp224
g11
(lp225
sg13
S'android.media.MediaMetadata'
p226
sg15
(lp227
sg17
(lp228
sg19
(lp229
sg21
I0
sba(iArchitecture
Entity
p230
(dp231
g11
(lp232
sg13
S'android.media.MediaMetadata$1'
p233
sg15
(lp234
sg17
(lp235
sg19
(lp236
sg21
I0
sba(iArchitecture
Entity
p237
(dp238
g11
(lp239
sg13
S'android.media.MediaMetadata$Builder'
p240
sg15
(lp241
sg17
(lp242
sg19
(lp243
sg21
I0
sba(iArchitecture
Entity
p244
(dp245
g11
(lp246
sg13
S'android.media.MediaMetadataEditor'
p247
sg15
(lp248
sg17
(lp249
sg19
(lp250
sg21
I0
sba(iArchitecture
Entity
p251
(dp252
g11
(lp253
sg13
S'android.util.LruCache'
p254
sg15
(lp255
sg17
(lp256
sg19
(lp257
sg21
I0
sbasg71
(lp258
g226
ag233
ag240
ag247
ag254
asg21
I0
sg73
S'1245'
p259
sba(iArchitecture
Cluster
p260
(dp261
g7
(lp262
(iArchitecture
Entity
p263
(dp264
g11
(lp265
sg13
S'android.widget.CheckedTextView'
p266
sg15
(lp267
sg17
(lp268
sg19
(lp269
sg21
I0
sbasg71
(lp270
g266
asg21
I0
sg73
S'145'
p271
sba(iArchitecture
Cluster
p272
(dp273
g7
(lp274
(iArchitecture
Entity
p275
(dp276
g11
(lp277
sg13
S'android.print.pdf.PrintedPdfDocument'
p278
sg15
(lp279
sg17
(lp280
sg19
(lp281
sg21
I0
sbasg71
(lp282
g278
asg21
I0
sg73
S'245'
p283
sba(iArchitecture
Cluster
p284
(dp285
g7
(lp286
(iArchitecture
Entity
p287
(dp288
g11
(lp289
sg13
S'android.content.UriMatcher'
p290
sg15
(lp291
sg17
(lp292
sg19
(lp293
sg21
I0
sbasg71
(lp294
g290
asg21
I0
sg73
S'345'
p295
sba(iArchitecture
Cluster
p296
(dp297
g7
(lp298
(iArchitecture
Entity
p299
(dp300
g11
(lp301
sg13
S'android.content.ContentProviderClient'
p302
sg15
(lp303
sg17
(lp304
sg19
(lp305
sg21
I0
sba(iArchitecture
Entity
p306
(dp307
g11
(lp308
sg13
S'android.content.ContentProviderClient$NotRespondingRunnable'
p309
sg15
(lp310
sg17
(lp311
sg19
(lp312
sg21
I0
sbasg71
(lp313
g302
ag309
asg21
I0
sg73
S'445'
p314
sba(iArchitecture
Cluster
p315
(dp316
g7
(lp317
(iArchitecture
Entity
p318
(dp319
g11
(lp320
sg13
S'com.android.server.location.FusedLocationHardwareSecure'
p321
sg15
(lp322
sg17
(lp323
sg19
(lp324
sg21
I0
sbasg71
(lp325
g321
asg21
I0
sg73
S'45'
p326
sba(iArchitecture
Cluster
p327
(dp328
g7
(lp329
(iArchitecture
Entity
p330
(dp331
g11
(lp332
sg13
S'android.content.UriPermission'
p333
sg15
(lp334
sg17
(lp335
sg19
(lp336
sg21
I0
sba(iArchitecture
Entity
p337
(dp338
g11
(lp339
sg13
S'android.content.UriPermission$1'
p340
sg15
(lp341
sg17
(lp342
sg19
(lp343
sg21
I0
sbasg71
(lp344
g333
ag340
asg21
I0
sg73
S'450'
p345
sba(iArchitecture
Cluster
p346
(dp347
g7
(lp348
(iArchitecture
Entity
p349
(dp350
g11
(lp351
sg13
S'android.graphics.Picture'
p352
sg15
(lp353
sg17
(lp354
sg19
(lp355
sg21
I0
sba(iArchitecture
Entity
p356
(dp357
g11
(lp358
sg13
S'android.graphics.Picture$RecordingCanvas'
p359
sg15
(lp360
sg17
(lp361
sg19
(lp362
sg21
I0
sbasg71
(lp363
g352
ag359
asg21
I0
sg73
S'451'
p364
sba(iArchitecture
Cluster
p365
(dp366
g7
(lp367
(iArchitecture
Entity
p368
(dp369
g11
(lp370
sg13
S'android.telephony.CellInfoGsm'
p371
sg15
(lp372
sg17
(lp373
sg19
(lp374
sg21
I0
sba(iArchitecture
Entity
p375
(dp376
g11
(lp377
sg13
S'android.telephony.CellInfoGsm$1'
p378
sg15
(lp379
sg17
(lp380
sg19
(lp381
sg21
I0
sbasg71
(lp382
g371
ag378
asg21
I0
sg73
S'452'
p383
sba(iArchitecture
Cluster
p384
(dp385
g7
(lp386
(iArchitecture
Entity
p387
(dp388
g11
(lp389
sg13
S'android.sax.RootElement'
p390
sg15
(lp391
sg17
(lp392
sg19
(lp393
sg21
I0
sba(iArchitecture
Entity
p394
(dp395
g11
(lp396
sg13
S'android.sax.RootElement$Handler'
p397
sg15
(lp398
sg17
(lp399
sg19
(lp400
sg21
I0
sbasg71
(lp401
g390
ag397
asg21
I0
sg73
S'453'
p402
sba(iArchitecture
Cluster
p403
(dp404
g7
(lp405
(iArchitecture
Entity
p406
(dp407
g11
(lp408
sg13
S'android.hardware.camera2.legacy.RequestHandlerThread'
p409
sg15
(lp410
sg17
(lp411
sg19
(lp412
sg21
I0
sba(iArchitecture
Entity
p413
(dp414
g11
(lp415
sg13
S'android.hardware.camera2.legacy.RequestHandlerThread$1'
p416
sg15
(lp417
sg17
(lp418
sg19
(lp419
sg21
I0
sbasg71
(lp420
g409
ag416
asg21
I0
sg73
S'454'
p421
sba(iArchitecture
Cluster
p422
(dp423
g7
(lp424
(iArchitecture
Entity
p425
(dp426
g11
(lp427
sg13
S'android.net.NetworkMisc'
p428
sg15
(lp429
sg17
(lp430
sg19
(lp431
sg21
I0
sba(iArchitecture
Entity
p432
(dp433
g11
(lp434
sg13
S'android.net.NetworkMisc$1'
p435
sg15
(lp436
sg17
(lp437
sg19
(lp438
sg21
I0
sbasg71
(lp439
g428
ag435
asg21
I0
sg73
S'455'
p440
sba(iArchitecture
Cluster
p441
(dp442
g7
(lp443
(iArchitecture
Entity
p444
(dp445
g11
(lp446
sg13
S'android.text.format.Formatter'
p447
sg15
(lp448
sg17
(lp449
sg19
(lp450
sg21
I0
sba(iArchitecture
Entity
p451
(dp452
g11
(lp453
sg13
S'android.text.format.Formatter$BytesResult'
p454
sg15
(lp455
sg17
(lp456
sg19
(lp457
sg21
I0
sbasg71
(lp458
g447
ag454
asg21
I0
sg73
S'456'
p459
sba(iArchitecture
Cluster
p460
(dp461
g7
(lp462
(iArchitecture
Entity
p463
(dp464
g11
(lp465
sg13
S'android.net.NetworkTemplate'
p466
sg15
(lp467
sg17
(lp468
sg19
(lp469
sg21
I0
sba(iArchitecture
Entity
p470
(dp471
g11
(lp472
sg13
S'android.net.NetworkTemplate$1'
p473
sg15
(lp474
sg17
(lp475
sg19
(lp476
sg21
I0
sbasg71
(lp477
g466
ag473
asg21
I0
sg73
S'457'
p478
sba(iArchitecture
Cluster
p479
(dp480
g7
(lp481
(iArchitecture
Entity
p482
(dp483
g11
(lp484
sg13
S'com.android.server.policy.PolicyControl'
p485
sg15
(lp486
sg17
(lp487
sg19
(lp488
sg21
I0
sba(iArchitecture
Entity
p489
(dp490
g11
(lp491
sg13
S'com.android.server.policy.PolicyControl$Filter'
p492
sg15
(lp493
sg17
(lp494
sg19
(lp495
sg21
I0
sbasg71
(lp496
g485
ag492
asg21
I0
sg73
S'458'
p497
sba(iArchitecture
Cluster
p498
(dp499
g7
(lp500
(iArchitecture
Entity
p501
(dp502
g11
(lp503
sg13
S'android.net.http.SslCertificate'
p504
sg15
(lp505
sg17
(lp506
sg19
(lp507
sg21
I0
sba(iArchitecture
Entity
p508
(dp509
g11
(lp510
sg13
S'android.net.http.SslCertificate$DName'
p511
sg15
(lp512
sg17
(lp513
sg19
(lp514
sg21
I0
sbasg71
(lp515
g504
ag511
asg21
I0
sg73
S'459'
p516
sba(iArchitecture
Cluster
p517
(dp518
g7
(lp519
(iArchitecture
Entity
p520
(dp521
g11
(lp522
sg13
S'android.graphics.PorterDuff'
p523
sg15
(lp524
sg17
(lp525
sg19
(lp526
sg21
I0
sba(iArchitecture
Entity
p527
(dp528
g11
(lp529
sg13
S'android.graphics.PorterDuff$Mode'
p530
sg15
(lp531
sg17
(lp532
sg19
(lp533
sg21
I0
sbasg71
(lp534
g523
ag530
asg21
I0
sg73
S'545'
p535
sba(iArchitecture
Cluster
p536
(dp537
g7
(lp538
(iArchitecture
Entity
p539
(dp540
g11
(lp541
sg13
S'android.hardware.camera2.marshal.impl.MarshalQueryableColorSpaceTransform'
p542
sg15
(lp543
sg17
(lp544
sg19
(lp545
sg21
I0
sba(iArchitecture
Entity
p546
(dp547
g11
(lp548
sg13
S'android.hardware.camera2.marshal.impl.MarshalQueryableColorSpaceTransform$MarshalerColorSpaceTransform'
p549
sg15
(lp550
sg17
(lp551
sg19
(lp552
sg21
I0
sbasg71
(lp553
g542
ag549
asg21
I0
sg73
S'645'
p554
sba(iArchitecture
Cluster
p555
(dp556
g7
(lp557
(iArchitecture
Entity
p558
(dp559
g11
(lp560
sg13
S'android.widget.DigitalClock'
p561
sg15
(lp562
sg17
(lp563
sg19
(lp564
sg21
I0
sba(iArchitecture
Entity
p565
(dp566
g11
(lp567
sg13
S'android.widget.DigitalClock$1'
p568
sg15
(lp569
sg17
(lp570
sg19
(lp571
sg21
I0
sba(iArchitecture
Entity
p572
(dp573
g11
(lp574
sg13
S'android.widget.DigitalClock$FormatChangeObserver'
p575
sg15
(lp576
sg17
(lp577
sg19
(lp578
sg21
I0
sbasg71
(lp579
g561
ag568
ag575
asg21
I0
sg73
S'745'
p580
sba(iArchitecture
Cluster
p581
(dp582
g7
(lp583
(iArchitecture
Entity
p584
(dp585
g11
(lp586
sg13
S'android.app.DatePickerDialog'
p587
sg15
(lp588
sg17
(lp589
sg19
(lp590
sg21
I0
sba(iArchitecture
Entity
p591
(dp592
g11
(lp593
sg13
S'android.app.DatePickerDialog$1'
p594
sg15
(lp595
sg17
(lp596
sg19
(lp597
sg21
I0
sba(iArchitecture
Entity
p598
(dp599
g11
(lp600
sg13
S'android.app.DatePickerDialog$OnDateSetListener'
p601
sg15
(lp602
sg17
(lp603
sg19
(lp604
sg21
I0
sbasg71
(lp605
g587
ag594
ag601
asg21
I0
sg73
S'845'
p606
sba(iArchitecture
Cluster
p607
(dp608
g7
(lp609
(iArchitecture
Entity
p610
(dp611
g11
(lp612
sg13
S'android.preference.SeekBarVolumizer'
p613
sg15
(lp614
sg17
(lp615
sg19
(lp616
sg21
I0
sba(iArchitecture
Entity
p617
(dp618
g11
(lp619
sg13
S'android.preference.SeekBarVolumizer$Callback'
p620
sg15
(lp621
sg17
(lp622
sg19
(lp623
sg21
I0
sba(iArchitecture
Entity
p624
(dp625
g11
(lp626
sg13
S'android.preference.SeekBarVolumizer$H'
p627
sg15
(lp628
sg17
(lp629
sg19
(lp630
sg21
I0
sba(iArchitecture
Entity
p631
(dp632
g11
(lp633
sg13
S'android.preference.SeekBarVolumizer$Observer'
p634
sg15
(lp635
sg17
(lp636
sg19
(lp637
sg21
I0
sba(iArchitecture
Entity
p638
(dp639
g11
(lp640
sg13
S'android.preference.SeekBarVolumizer$Receiver'
p641
sg15
(lp642
sg17
(lp643
sg19
(lp644
sg21
I0
sbasg71
(lp645
g613
ag620
ag627
ag634
ag641
asg21
I0
sg73
S'945'
p646
sbasS'target_sub'
p647
S'45'
p648
sg71
(lp649
sS'is_component_arch'
p650
I01
sg73
S'6.0.0_r1'
p651
sba.