(lp0
(iArchitecture
Architecture
p1
(dp2
S'clusters'
p3
(lp4
(iArchitecture
Cluster
p5
(dp6
S'entities'
p7
(lp8
(iArchitecture
Entity
p9
(dp10
S'issue_ids'
p11
(lp12
sS'name'
p13
S'android.filterfw.core.GLEnvironment'
p14
sS'descs'
p15
(lp16
sS'labels'
p17
(lp18
sS'titles'
p19
(lp20
sS'change'
p21
I0
sbasS'classes'
p22
(lp23
g14
asg21
I0
sS'label'
p24
S'110'
p25
sba(iArchitecture
Cluster
p26
(dp27
g7
(lp28
(iArchitecture
Entity
p29
(dp30
g11
(lp31
sg13
S'android.animation.FloatKeyframeSet'
p32
sg15
(lp33
sg17
(lp34
sg19
(lp35
sg21
I0
sba(iArchitecture
Entity
p36
(dp37
g11
(lp38
sg13
S'android.animation.IntKeyframeSet'
p39
sg15
(lp40
sg17
(lp41
sg19
(lp42
sg21
I0
sbasg22
(lp43
g32
ag39
asg21
I0
sg24
S'1100'
p44
sba(iArchitecture
Cluster
p45
(dp46
g7
(lp47
(iArchitecture
Entity
p48
(dp49
g11
(lp50
sg13
S'android.view.animation.TranslateXAnimation'
p51
sg15
(lp52
sg17
(lp53
sg19
(lp54
sg21
I0
sba(iArchitecture
Entity
p55
(dp56
g11
(lp57
sg13
S'android.view.animation.TranslateYAnimation'
p58
sg15
(lp59
sg17
(lp60
sg19
(lp61
sg21
I0
sbasg22
(lp62
g51
ag58
asg21
I0
sg24
S'1101'
p63
sba(iArchitecture
Cluster
p64
(dp65
g7
(lp66
(iArchitecture
Entity
p67
(dp68
g11
(lp69
sg13
S'android.widget.AdapterViewFlipper'
p70
sg15
(lp71
sg17
(lp72
sg19
(lp73
sg21
I0
sba(iArchitecture
Entity
p74
(dp75
g11
(lp76
sg13
S'android.widget.AdapterViewFlipper$1'
p77
sg15
(lp78
sg17
(lp79
sg19
(lp80
sg21
I0
sba(iArchitecture
Entity
p81
(dp82
g11
(lp83
sg13
S'android.widget.AdapterViewFlipper$2'
p84
sg15
(lp85
sg17
(lp86
sg19
(lp87
sg21
I0
sba(iArchitecture
Entity
p88
(dp89
g11
(lp90
sg13
S'android.widget.ViewFlipper'
p91
sg15
(lp92
sg17
(lp93
sg19
(lp94
sg21
I0
sba(iArchitecture
Entity
p95
(dp96
g11
(lp97
sg13
S'android.widget.ViewFlipper$1'
p98
sg15
(lp99
sg17
(lp100
sg19
(lp101
sg21
I0
sba(iArchitecture
Entity
p102
(dp103
g11
(lp104
sg13
S'android.widget.ViewFlipper$2'
p105
sg15
(lp106
sg17
(lp107
sg19
(lp108
sg21
I0
sbasg22
(lp109
g70
ag77
ag84
ag91
ag98
ag105
asg21
I0
sg24
S'1102'
p110
sba(iArchitecture
Cluster
p111
(dp112
g7
(lp113
(iArchitecture
Entity
p114
(dp115
g11
(lp116
sg13
S'android.telecom.AudioState'
p117
sg15
(lp118
sg17
(lp119
sg19
(lp120
sg21
I0
sba(iArchitecture
Entity
p121
(dp122
g11
(lp123
sg13
S'android.telecom.AudioState$1'
p124
sg15
(lp125
sg17
(lp126
sg19
(lp127
sg21
I0
sba(iArchitecture
Entity
p128
(dp129
g11
(lp130
sg13
S'android.telecom.CallAudioState'
p131
sg15
(lp132
sg17
(lp133
sg19
(lp134
sg21
I0
sba(iArchitecture
Entity
p135
(dp136
g11
(lp137
sg13
S'android.telecom.CallAudioState$1'
p138
sg15
(lp139
sg17
(lp140
sg19
(lp141
sg21
I0
sbasg22
(lp142
g117
ag124
ag131
ag138
asg21
I0
sg24
S'1103'
p143
sba(iArchitecture
Cluster
p144
(dp145
g7
(lp146
(iArchitecture
Entity
p147
(dp148
g11
(lp149
sg13
S'android.widget.OverScroller'
p150
sg15
(lp151
sg17
(lp152
sg19
(lp153
sg21
I0
sba(iArchitecture
Entity
p154
(dp155
g11
(lp156
sg13
S'android.widget.OverScroller$SplineOverScroller'
p157
sg15
(lp158
sg17
(lp159
sg19
(lp160
sg21
I0
sba(iArchitecture
Entity
p161
(dp162
g11
(lp163
sg13
S'android.widget.Scroller'
p164
sg15
(lp165
sg17
(lp166
sg19
(lp167
sg21
I0
sba(iArchitecture
Entity
p168
(dp169
g11
(lp170
sg13
S'android.widget.Scroller$ViscousFluidInterpolator'
p171
sg15
(lp172
sg17
(lp173
sg19
(lp174
sg21
I0
sbasg22
(lp175
g150
ag157
ag164
ag171
asg21
I0
sg24
S'1104'
p176
sba(iArchitecture
Cluster
p177
(dp178
g7
(lp179
(iArchitecture
Entity
p180
(dp181
g11
(lp182
sg13
S'android.filterpacks.ui.SurfaceRenderFilter'
p183
sg15
(lp184
sg17
(lp185
sg19
(lp186
sg21
I0
sba(iArchitecture
Entity
p187
(dp188
g11
(lp189
sg13
S'android.filterpacks.ui.SurfaceTargetFilter'
p190
sg15
(lp191
sg17
(lp192
sg19
(lp193
sg21
I0
sba(iArchitecture
Entity
p194
(dp195
g11
(lp196
sg13
S'android.filterpacks.videosrc.SurfaceTextureTarget'
p197
sg15
(lp198
sg17
(lp199
sg19
(lp200
sg21
I0
sbasg22
(lp201
g183
ag190
ag197
asg21
I0
sg24
S'1105'
p202
sba(iArchitecture
Cluster
p203
(dp204
g7
(lp205
(iArchitecture
Entity
p206
(dp207
g11
(lp208
sg13
S'android.view.InputEventReceiver'
p209
sg15
(lp210
sg17
(lp211
sg19
(lp212
sg21
I0
sba(iArchitecture
Entity
p213
(dp214
g11
(lp215
sg13
S'android.view.InputEventReceiver$Factory'
p216
sg15
(lp217
sg17
(lp218
sg19
(lp219
sg21
I0
sba(iArchitecture
Entity
p220
(dp221
g11
(lp222
sg13
S'android.view.InputEventSender'
p223
sg15
(lp224
sg17
(lp225
sg19
(lp226
sg21
I0
sbasg22
(lp227
g209
ag216
ag223
asg21
I0
sg24
S'1106'
p228
sba(iArchitecture
Cluster
p229
(dp230
g7
(lp231
(iArchitecture
Entity
p232
(dp233
g11
(lp234
sg13
S'android.bluetooth.BluetoothGatt'
p235
sg15
(lp236
sg17
(lp237
sg19
(lp238
sg21
I0
sba(iArchitecture
Entity
p239
(dp240
g11
(lp241
sg13
S'android.bluetooth.BluetoothGatt$1'
p242
sg15
(lp243
sg17
(lp244
sg19
(lp245
sg21
I0
sba(iArchitecture
Entity
p246
(dp247
g11
(lp248
sg13
S'android.bluetooth.BluetoothGattServer'
p249
sg15
(lp250
sg17
(lp251
sg19
(lp252
sg21
I0
sba(iArchitecture
Entity
p253
(dp254
g11
(lp255
sg13
S'android.bluetooth.BluetoothGattServer$1'
p256
sg15
(lp257
sg17
(lp258
sg19
(lp259
sg21
I0
sbasg22
(lp260
g235
ag242
ag249
ag256
asg21
I0
sg24
S'1107'
p261
sba(iArchitecture
Cluster
p262
(dp263
g7
(lp264
(iArchitecture
Entity
p265
(dp266
g11
(lp267
sg13
S'android.view.OrientationEventListener'
p268
sg15
(lp269
sg17
(lp270
sg19
(lp271
sg21
I0
sba(iArchitecture
Entity
p272
(dp273
g11
(lp274
sg13
S'android.view.OrientationEventListener$SensorEventListenerImpl'
p275
sg15
(lp276
sg17
(lp277
sg19
(lp278
sg21
I0
sba(iArchitecture
Entity
p279
(dp280
g11
(lp281
sg13
S'android.view.OrientationListener'
p282
sg15
(lp283
sg17
(lp284
sg19
(lp285
sg21
I0
sba(iArchitecture
Entity
p286
(dp287
g11
(lp288
sg13
S'android.view.OrientationListener$OrientationEventListenerInternal'
p289
sg15
(lp290
sg17
(lp291
sg19
(lp292
sg21
I0
sbasg22
(lp293
g268
ag275
ag282
ag289
asg21
I0
sg24
S'1108'
p294
sba(iArchitecture
Cluster
p295
(dp296
g7
(lp297
(iArchitecture
Entity
p298
(dp299
g11
(lp300
sg13
S'android.animation.ObjectAnimator'
p301
sg15
(lp302
sg17
(lp303
sg19
(lp304
sg21
I0
sba(iArchitecture
Entity
p305
(dp306
g11
(lp307
sg13
S'android.animation.PropertyValuesHolder'
p308
sg15
(lp309
sg17
(lp310
sg19
(lp311
sg21
I0
sba(iArchitecture
Entity
p312
(dp313
g11
(lp314
sg13
S'android.animation.PropertyValuesHolder$FloatPropertyValuesHolder'
p315
sg15
(lp316
sg17
(lp317
sg19
(lp318
sg21
I0
sba(iArchitecture
Entity
p319
(dp320
g11
(lp321
sg13
S'android.animation.PropertyValuesHolder$IntPropertyValuesHolder'
p322
sg15
(lp323
sg17
(lp324
sg19
(lp325
sg21
I0
sba(iArchitecture
Entity
p326
(dp327
g11
(lp328
sg13
S'android.animation.PropertyValuesHolder$MultiFloatValuesHolder'
p329
sg15
(lp330
sg17
(lp331
sg19
(lp332
sg21
I0
sba(iArchitecture
Entity
p333
(dp334
g11
(lp335
sg13
S'android.animation.PropertyValuesHolder$MultiIntValuesHolder'
p336
sg15
(lp337
sg17
(lp338
sg19
(lp339
sg21
I0
sba(iArchitecture
Entity
p340
(dp341
g11
(lp342
sg13
S'android.animation.PropertyValuesHolder$PointFToFloatArray'
p343
sg15
(lp344
sg17
(lp345
sg19
(lp346
sg21
I0
sba(iArchitecture
Entity
p347
(dp348
g11
(lp349
sg13
S'android.animation.PropertyValuesHolder$PointFToIntArray'
p350
sg15
(lp351
sg17
(lp352
sg19
(lp353
sg21
I0
sbasg22
(lp354
g301
ag308
ag315
ag322
ag329
ag336
ag343
ag350
asg21
I0
sg24
S'1109'
p355
sba(iArchitecture
Cluster
p356
(dp357
g7
(lp358
(iArchitecture
Entity
p359
(dp360
g11
(lp361
sg13
S'android.renderscript.Byte2'
p362
sg15
(lp363
sg17
(lp364
sg19
(lp365
sg21
I0
sba(iArchitecture
Entity
p366
(dp367
g11
(lp368
sg13
S'android.renderscript.Byte3'
p369
sg15
(lp370
sg17
(lp371
sg19
(lp372
sg21
I0
sba(iArchitecture
Entity
p373
(dp374
g11
(lp375
sg13
S'android.renderscript.Byte4'
p376
sg15
(lp377
sg17
(lp378
sg19
(lp379
sg21
I0
sba(iArchitecture
Entity
p380
(dp381
g11
(lp382
sg13
S'android.renderscript.Double2'
p383
sg15
(lp384
sg17
(lp385
sg19
(lp386
sg21
I0
sba(iArchitecture
Entity
p387
(dp388
g11
(lp389
sg13
S'android.renderscript.Double3'
p390
sg15
(lp391
sg17
(lp392
sg19
(lp393
sg21
I0
sba(iArchitecture
Entity
p394
(dp395
g11
(lp396
sg13
S'android.renderscript.Double4'
p397
sg15
(lp398
sg17
(lp399
sg19
(lp400
sg21
I0
sba(iArchitecture
Entity
p401
(dp402
g11
(lp403
sg13
S'android.renderscript.Float2'
p404
sg15
(lp405
sg17
(lp406
sg19
(lp407
sg21
I0
sba(iArchitecture
Entity
p408
(dp409
g11
(lp410
sg13
S'android.renderscript.Float3'
p411
sg15
(lp412
sg17
(lp413
sg19
(lp414
sg21
I0
sba(iArchitecture
Entity
p415
(dp416
g11
(lp417
sg13
S'android.renderscript.Float4'
p418
sg15
(lp419
sg17
(lp420
sg19
(lp421
sg21
I0
sba(iArchitecture
Entity
p422
(dp423
g11
(lp424
sg13
S'android.renderscript.Int2'
p425
sg15
(lp426
sg17
(lp427
sg19
(lp428
sg21
I0
sba(iArchitecture
Entity
p429
(dp430
g11
(lp431
sg13
S'android.renderscript.Int3'
p432
sg15
(lp433
sg17
(lp434
sg19
(lp435
sg21
I0
sba(iArchitecture
Entity
p436
(dp437
g11
(lp438
sg13
S'android.renderscript.Int4'
p439
sg15
(lp440
sg17
(lp441
sg19
(lp442
sg21
I0
sba(iArchitecture
Entity
p443
(dp444
g11
(lp445
sg13
S'android.renderscript.Long2'
p446
sg15
(lp447
sg17
(lp448
sg19
(lp449
sg21
I0
sba(iArchitecture
Entity
p450
(dp451
g11
(lp452
sg13
S'android.renderscript.Long3'
p453
sg15
(lp454
sg17
(lp455
sg19
(lp456
sg21
I0
sba(iArchitecture
Entity
p457
(dp458
g11
(lp459
sg13
S'android.renderscript.Long4'
p460
sg15
(lp461
sg17
(lp462
sg19
(lp463
sg21
I0
sba(iArchitecture
Entity
p464
(dp465
g11
(lp466
sg13
S'android.renderscript.Short2'
p467
sg15
(lp468
sg17
(lp469
sg19
(lp470
sg21
I0
sba(iArchitecture
Entity
p471
(dp472
g11
(lp473
sg13
S'android.renderscript.Short3'
p474
sg15
(lp475
sg17
(lp476
sg19
(lp477
sg21
I0
sba(iArchitecture
Entity
p478
(dp479
g11
(lp480
sg13
S'android.renderscript.Short4'
p481
sg15
(lp482
sg17
(lp483
sg19
(lp484
sg21
I0
sbasg22
(lp485
g362
ag369
ag376
ag383
ag390
ag397
ag404
ag411
ag418
ag425
ag432
ag439
ag446
ag453
ag460
ag467
ag474
ag481
asg21
I0
sg24
S'1110'
p486
sbasS'target_sub'
p487
S'110'
p488
sg22
(lp489
sS'is_component_arch'
p490
I01
sg24
S'6.0.0_r1'
p491
sba.