(lp0
(iArchitecture
Architecture
p1
(dp2
S'clusters'
p3
(lp4
(iArchitecture
Cluster
p5
(dp6
S'entities'
p7
(lp8
(iArchitecture
Entity
p9
(dp10
S'issue_ids'
p11
(lp12
sS'name'
p13
S'android.net.wifi.p2p.WifiP2pManager'
p14
sS'descs'
p15
(lp16
sS'labels'
p17
(lp18
sS'titles'
p19
(lp20
sS'change'
p21
I0
sba(iArchitecture
Entity
p22
(dp23
g11
(lp24
sg13
S'android.net.wifi.p2p.WifiP2pManager$ActionListener'
p25
sg15
(lp26
sg17
(lp27
sg19
(lp28
sg21
I0
sba(iArchitecture
Entity
p29
(dp30
g11
(lp31
sg13
S'android.net.wifi.p2p.WifiP2pManager$Channel'
p32
sg15
(lp33
sg17
(lp34
sg19
(lp35
sg21
I0
sba(iArchitecture
Entity
p36
(dp37
g11
(lp38
sg13
S'android.net.wifi.p2p.WifiP2pManager$Channel$P2pHandler'
p39
sg15
(lp40
sg17
(lp41
sg19
(lp42
sg21
I0
sba(iArchitecture
Entity
p43
(dp44
g11
(lp45
sg13
S'android.net.wifi.p2p.WifiP2pManager$ChannelListener'
p46
sg15
(lp47
sg17
(lp48
sg19
(lp49
sg21
I0
sba(iArchitecture
Entity
p50
(dp51
g11
(lp52
sg13
S'android.net.wifi.p2p.WifiP2pManager$ConnectionInfoListener'
p53
sg15
(lp54
sg17
(lp55
sg19
(lp56
sg21
I0
sba(iArchitecture
Entity
p57
(dp58
g11
(lp59
sg13
S'android.net.wifi.p2p.WifiP2pManager$DnsSdServiceResponseListener'
p60
sg15
(lp61
sg17
(lp62
sg19
(lp63
sg21
I0
sba(iArchitecture
Entity
p64
(dp65
g11
(lp66
sg13
S'android.net.wifi.p2p.WifiP2pManager$DnsSdTxtRecordListener'
p67
sg15
(lp68
sg17
(lp69
sg19
(lp70
sg21
I0
sba(iArchitecture
Entity
p71
(dp72
g11
(lp73
sg13
S'android.net.wifi.p2p.WifiP2pManager$GroupInfoListener'
p74
sg15
(lp75
sg17
(lp76
sg19
(lp77
sg21
I0
sba(iArchitecture
Entity
p78
(dp79
g11
(lp80
sg13
S'android.net.wifi.p2p.WifiP2pManager$HandoverMessageListener'
p81
sg15
(lp82
sg17
(lp83
sg19
(lp84
sg21
I0
sba(iArchitecture
Entity
p85
(dp86
g11
(lp87
sg13
S'android.net.wifi.p2p.WifiP2pManager$PeerListListener'
p88
sg15
(lp89
sg17
(lp90
sg19
(lp91
sg21
I0
sba(iArchitecture
Entity
p92
(dp93
g11
(lp94
sg13
S'android.net.wifi.p2p.WifiP2pManager$PersistentGroupInfoListener'
p95
sg15
(lp96
sg17
(lp97
sg19
(lp98
sg21
I0
sba(iArchitecture
Entity
p99
(dp100
g11
(lp101
sg13
S'android.net.wifi.p2p.WifiP2pManager$ServiceResponseListener'
p102
sg15
(lp103
sg17
(lp104
sg19
(lp105
sg21
I0
sba(iArchitecture
Entity
p106
(dp107
g11
(lp108
sg13
S'android.net.wifi.p2p.WifiP2pManager$UpnpServiceResponseListener'
p109
sg15
(lp110
sg17
(lp111
sg19
(lp112
sg21
I0
sbasS'classes'
p113
(lp114
g14
ag25
ag32
ag39
ag46
ag53
ag60
ag67
ag74
ag81
ag88
ag95
ag102
ag109
asg21
I0
sS'label'
p115
S'1082'
p116
sba(iArchitecture
Cluster
p117
(dp118
g7
(lp119
(iArchitecture
Entity
p120
(dp121
g11
(lp122
sg13
S'android.widget.ZoomButton'
p123
sg15
(lp124
sg17
(lp125
sg19
(lp126
sg21
I0
sba(iArchitecture
Entity
p127
(dp128
g11
(lp129
sg13
S'android.widget.ZoomButton$1'
p130
sg15
(lp131
sg17
(lp132
sg19
(lp133
sg21
I0
sba(iArchitecture
Entity
p134
(dp135
g11
(lp136
sg13
S'android.widget.ZoomControls'
p137
sg15
(lp138
sg17
(lp139
sg19
(lp140
sg21
I0
sbasg113
(lp141
g123
ag130
ag137
asg21
I0
sg115
S'1182'
p142
sba(iArchitecture
Cluster
p143
(dp144
g7
(lp145
(iArchitecture
Entity
p146
(dp147
g11
(lp148
sg13
S'android.widget.ScrollBarDrawable'
p149
sg15
(lp150
sg17
(lp151
sg19
(lp152
sg21
I0
sbasg113
(lp153
g149
asg21
I0
sg115
S'182'
p154
sba(iArchitecture
Cluster
p155
(dp156
g7
(lp157
(iArchitecture
Entity
p158
(dp159
g11
(lp160
sg13
S'android.renderscript.FieldPacker'
p161
sg15
(lp162
sg17
(lp163
sg19
(lp164
sg21
I0
sbasg113
(lp165
g161
asg21
I0
sg115
S'282'
p166
sba(iArchitecture
Cluster
p167
(dp168
g7
(lp169
(iArchitecture
Entity
p170
(dp171
g11
(lp172
sg13
S'android.content.ContentProviderNative'
p173
sg15
(lp174
sg17
(lp175
sg19
(lp176
sg21
I0
sbasg113
(lp177
g173
asg21
I0
sg115
S'382'
p178
sba(iArchitecture
Cluster
p179
(dp180
g7
(lp181
(iArchitecture
Entity
p182
(dp183
g11
(lp184
sg13
S'com.android.server.am.UserSwitchingDialog'
p185
sg15
(lp186
sg17
(lp187
sg19
(lp188
sg21
I0
sba(iArchitecture
Entity
p189
(dp190
g11
(lp191
sg13
S'com.android.server.am.UserSwitchingDialog$1'
p192
sg15
(lp193
sg17
(lp194
sg19
(lp195
sg21
I0
sbasg113
(lp196
g185
ag192
asg21
I0
sg115
S'482'
p197
sba(iArchitecture
Cluster
p198
(dp199
g7
(lp200
(iArchitecture
Entity
p201
(dp202
g11
(lp203
sg13
S'android.view.animation.GridLayoutAnimationController'
p204
sg15
(lp205
sg17
(lp206
sg19
(lp207
sg21
I0
sba(iArchitecture
Entity
p208
(dp209
g11
(lp210
sg13
S'android.view.animation.GridLayoutAnimationController$AnimationParameters'
p211
sg15
(lp212
sg17
(lp213
sg19
(lp214
sg21
I0
sbasg113
(lp215
g204
ag211
asg21
I0
sg115
S'582'
p216
sba(iArchitecture
Cluster
p217
(dp218
g7
(lp219
(iArchitecture
Entity
p220
(dp221
g11
(lp222
sg13
S'android.opengl.GLES31Ext'
p223
sg15
(lp224
sg17
(lp225
sg19
(lp226
sg21
I0
sba(iArchitecture
Entity
p227
(dp228
g11
(lp229
sg13
S'android.opengl.GLES31Ext$DebugProcKHR'
p230
sg15
(lp231
sg17
(lp232
sg19
(lp233
sg21
I0
sbasg113
(lp234
g223
ag230
asg21
I0
sg115
S'682'
p235
sba(iArchitecture
Cluster
p236
(dp237
g7
(lp238
(iArchitecture
Entity
p239
(dp240
g11
(lp241
sg13
S'android.app.AlarmManager'
p242
sg15
(lp243
sg17
(lp244
sg19
(lp245
sg21
I0
sba(iArchitecture
Entity
p246
(dp247
g11
(lp248
sg13
S'android.app.AlarmManager$AlarmClockInfo'
p249
sg15
(lp250
sg17
(lp251
sg19
(lp252
sg21
I0
sba(iArchitecture
Entity
p253
(dp254
g11
(lp255
sg13
S'android.app.AlarmManager$AlarmClockInfo$1'
p256
sg15
(lp257
sg17
(lp258
sg19
(lp259
sg21
I0
sbasg113
(lp260
g242
ag249
ag256
asg21
I0
sg115
S'782'
p261
sba(iArchitecture
Cluster
p262
(dp263
g7
(lp264
(iArchitecture
Entity
p265
(dp266
g11
(lp267
sg13
S'android.util.Range'
p268
sg15
(lp269
sg17
(lp270
sg19
(lp271
sg21
I0
sbasg113
(lp272
g268
asg21
I0
sg115
S'82'
p273
sba(iArchitecture
Cluster
p274
(dp275
g7
(lp276
(iArchitecture
Entity
p277
(dp278
g11
(lp279
sg13
S'android.net.wifi.WifiEnterpriseConfig'
p280
sg15
(lp281
sg17
(lp282
sg19
(lp283
sg21
I0
sba(iArchitecture
Entity
p284
(dp285
g11
(lp286
sg13
S'android.net.wifi.WifiEnterpriseConfig$1'
p287
sg15
(lp288
sg17
(lp289
sg19
(lp290
sg21
I0
sba(iArchitecture
Entity
p291
(dp292
g11
(lp293
sg13
S'android.net.wifi.WifiEnterpriseConfig$Eap'
p294
sg15
(lp295
sg17
(lp296
sg19
(lp297
sg21
I0
sba(iArchitecture
Entity
p298
(dp299
g11
(lp300
sg13
S'android.net.wifi.WifiEnterpriseConfig$Phase2'
p301
sg15
(lp302
sg17
(lp303
sg19
(lp304
sg21
I0
sbasg113
(lp305
g280
ag287
ag294
ag301
asg21
I0
sg115
S'820'
p306
sba(iArchitecture
Cluster
p307
(dp308
g7
(lp309
(iArchitecture
Entity
p310
(dp311
g11
(lp312
sg13
S'android.hardware.camera2.utils.CloseableLock'
p313
sg15
(lp314
sg17
(lp315
sg19
(lp316
sg21
I0
sba(iArchitecture
Entity
p317
(dp318
g11
(lp319
sg13
S'android.hardware.camera2.utils.CloseableLock$1'
p320
sg15
(lp321
sg17
(lp322
sg19
(lp323
sg21
I0
sba(iArchitecture
Entity
p324
(dp325
g11
(lp326
sg13
S'android.hardware.camera2.utils.CloseableLock$ScopedLock'
p327
sg15
(lp328
sg17
(lp329
sg19
(lp330
sg21
I0
sbasg113
(lp331
g313
ag320
ag327
asg21
I0
sg115
S'821'
p332
sba(iArchitecture
Cluster
p333
(dp334
g7
(lp335
(iArchitecture
Entity
p336
(dp337
g11
(lp338
sg13
S'android.print.PrinterInfo'
p339
sg15
(lp340
sg17
(lp341
sg19
(lp342
sg21
I0
sba(iArchitecture
Entity
p343
(dp344
g11
(lp345
sg13
S'android.print.PrinterInfo$1'
p346
sg15
(lp347
sg17
(lp348
sg19
(lp349
sg21
I0
sba(iArchitecture
Entity
p350
(dp351
g11
(lp352
sg13
S'android.print.PrinterInfo$Builder'
p353
sg15
(lp354
sg17
(lp355
sg19
(lp356
sg21
I0
sbasg113
(lp357
g339
ag346
ag353
asg21
I0
sg115
S'822'
p358
sba(iArchitecture
Cluster
p359
(dp360
g7
(lp361
(iArchitecture
Entity
p362
(dp363
g11
(lp364
sg13
S'com.android.internal.view.IInputConnectionWrapper'
p365
sg15
(lp366
sg17
(lp367
sg19
(lp368
sg21
I0
sba(iArchitecture
Entity
p369
(dp370
g11
(lp371
sg13
S'com.android.internal.view.IInputConnectionWrapper$MyHandler'
p372
sg15
(lp373
sg17
(lp374
sg19
(lp375
sg21
I0
sba(iArchitecture
Entity
p376
(dp377
g11
(lp378
sg13
S'com.android.internal.view.IInputConnectionWrapper$SomeArgs'
p379
sg15
(lp380
sg17
(lp381
sg19
(lp382
sg21
I0
sbasg113
(lp383
g365
ag372
ag379
asg21
I0
sg115
S'823'
p384
sba(iArchitecture
Cluster
p385
(dp386
g7
(lp387
(iArchitecture
Entity
p388
(dp389
g11
(lp390
sg13
S'android.renderscript.Allocation'
p391
sg15
(lp392
sg17
(lp393
sg19
(lp394
sg21
I0
sba(iArchitecture
Entity
p395
(dp396
g11
(lp397
sg13
S'android.renderscript.Allocation$MipmapControl'
p398
sg15
(lp399
sg17
(lp400
sg19
(lp401
sg21
I0
sba(iArchitecture
Entity
p402
(dp403
g11
(lp404
sg13
S'android.renderscript.Allocation$OnBufferAvailableListener'
p405
sg15
(lp406
sg17
(lp407
sg19
(lp408
sg21
I0
sbasg113
(lp409
g391
ag398
ag405
asg21
I0
sg115
S'824'
p410
sba(iArchitecture
Cluster
p411
(dp412
g7
(lp413
(iArchitecture
Entity
p414
(dp415
g11
(lp416
sg13
S'com.android.server.MasterClearReceiver'
p417
sg15
(lp418
sg17
(lp419
sg19
(lp420
sg21
I0
sba(iArchitecture
Entity
p421
(dp422
g11
(lp423
sg13
S'com.android.server.MasterClearReceiver$1'
p424
sg15
(lp425
sg17
(lp426
sg19
(lp427
sg21
I0
sba(iArchitecture
Entity
p428
(dp429
g11
(lp430
sg13
S'com.android.server.MasterClearReceiver$WipeAdoptableDisksTask'
p431
sg15
(lp432
sg17
(lp433
sg19
(lp434
sg21
I0
sbasg113
(lp435
g417
ag424
ag431
asg21
I0
sg115
S'825'
p436
sba(iArchitecture
Cluster
p437
(dp438
g7
(lp439
(iArchitecture
Entity
p440
(dp441
g11
(lp442
sg13
S'android.bluetooth.le.ScanSettings'
p443
sg15
(lp444
sg17
(lp445
sg19
(lp446
sg21
I0
sba(iArchitecture
Entity
p447
(dp448
g11
(lp449
sg13
S'android.bluetooth.le.ScanSettings$1'
p450
sg15
(lp451
sg17
(lp452
sg19
(lp453
sg21
I0
sba(iArchitecture
Entity
p454
(dp455
g11
(lp456
sg13
S'android.bluetooth.le.ScanSettings$Builder'
p457
sg15
(lp458
sg17
(lp459
sg19
(lp460
sg21
I0
sbasg113
(lp461
g443
ag450
ag457
asg21
I0
sg115
S'826'
p462
sba(iArchitecture
Cluster
p463
(dp464
g7
(lp465
(iArchitecture
Entity
p466
(dp467
g11
(lp468
sg13
S'android.renderscript.Program'
p469
sg15
(lp470
sg17
(lp471
sg19
(lp472
sg21
I0
sba(iArchitecture
Entity
p473
(dp474
g11
(lp475
sg13
S'android.renderscript.Program$BaseProgramBuilder'
p476
sg15
(lp477
sg17
(lp478
sg19
(lp479
sg21
I0
sba(iArchitecture
Entity
p480
(dp481
g11
(lp482
sg13
S'android.renderscript.Program$ProgramParam'
p483
sg15
(lp484
sg17
(lp485
sg19
(lp486
sg21
I0
sba(iArchitecture
Entity
p487
(dp488
g11
(lp489
sg13
S'android.renderscript.Program$TextureType'
p490
sg15
(lp491
sg17
(lp492
sg19
(lp493
sg21
I0
sbasg113
(lp494
g469
ag476
ag483
ag490
asg21
I0
sg115
S'827'
p495
sba(iArchitecture
Cluster
p496
(dp497
g7
(lp498
(iArchitecture
Entity
p499
(dp500
g11
(lp501
sg13
S'com.android.internal.telephony.PhoneConstants'
p502
sg15
(lp503
sg17
(lp504
sg19
(lp505
sg21
I0
sba(iArchitecture
Entity
p506
(dp507
g11
(lp508
sg13
S'com.android.internal.telephony.PhoneConstants$CardUnavailableReason'
p509
sg15
(lp510
sg17
(lp511
sg19
(lp512
sg21
I0
sba(iArchitecture
Entity
p513
(dp514
g11
(lp515
sg13
S'com.android.internal.telephony.PhoneConstants$DataState'
p516
sg15
(lp517
sg17
(lp518
sg19
(lp519
sg21
I0
sba(iArchitecture
Entity
p520
(dp521
g11
(lp522
sg13
S'com.android.internal.telephony.PhoneConstants$State'
p523
sg15
(lp524
sg17
(lp525
sg19
(lp526
sg21
I0
sbasg113
(lp527
g502
ag509
ag516
ag523
asg21
I0
sg115
S'828'
p528
sba(iArchitecture
Cluster
p529
(dp530
g7
(lp531
(iArchitecture
Entity
p532
(dp533
g11
(lp534
sg13
S'android.app.SharedElementCallback'
p535
sg15
(lp536
sg17
(lp537
sg19
(lp538
sg21
I0
sba(iArchitecture
Entity
p539
(dp540
g11
(lp541
sg13
S'android.app.SharedElementCallback$1'
p542
sg15
(lp543
sg17
(lp544
sg19
(lp545
sg21
I0
sba(iArchitecture
Entity
p546
(dp547
g11
(lp548
sg13
S'android.app.SharedElementCallback$OnSharedElementsReadyListener'
p549
sg15
(lp550
sg17
(lp551
sg19
(lp552
sg21
I0
sbasg113
(lp553
g535
ag542
ag549
asg21
I0
sg115
S'829'
p554
sba(iArchitecture
Cluster
p555
(dp556
g7
(lp557
(iArchitecture
Entity
p558
(dp559
g11
(lp560
sg13
S'android.hardware.camera2.legacy.LegacyFocusStateMapper'
p561
sg15
(lp562
sg17
(lp563
sg19
(lp564
sg21
I0
sba(iArchitecture
Entity
p565
(dp566
g11
(lp567
sg13
S'android.hardware.camera2.legacy.LegacyFocusStateMapper$1'
p568
sg15
(lp569
sg17
(lp570
sg19
(lp571
sg21
I0
sba(iArchitecture
Entity
p572
(dp573
g11
(lp574
sg13
S'android.hardware.camera2.legacy.LegacyFocusStateMapper$2'
p575
sg15
(lp576
sg17
(lp577
sg19
(lp578
sg21
I0
sbasg113
(lp579
g561
ag568
ag575
asg21
I0
sg115
S'882'
p580
sba(iArchitecture
Cluster
p581
(dp582
g7
(lp583
(iArchitecture
Entity
p584
(dp585
g11
(lp586
sg13
S'android.bluetooth.BluetoothClass'
p587
sg15
(lp588
sg17
(lp589
sg19
(lp590
sg21
I0
sba(iArchitecture
Entity
p591
(dp592
g11
(lp593
sg13
S'android.bluetooth.BluetoothClass$1'
p594
sg15
(lp595
sg17
(lp596
sg19
(lp597
sg21
I0
sba(iArchitecture
Entity
p598
(dp599
g11
(lp600
sg13
S'android.bluetooth.BluetoothClass$Device'
p601
sg15
(lp602
sg17
(lp603
sg19
(lp604
sg21
I0
sba(iArchitecture
Entity
p605
(dp606
g11
(lp607
sg13
S'android.bluetooth.BluetoothClass$Device$Major'
p608
sg15
(lp609
sg17
(lp610
sg19
(lp611
sg21
I0
sba(iArchitecture
Entity
p612
(dp613
g11
(lp614
sg13
S'android.bluetooth.BluetoothClass$Service'
p615
sg15
(lp616
sg17
(lp617
sg19
(lp618
sg21
I0
sbasg113
(lp619
g587
ag594
ag601
ag608
ag615
asg21
I0
sg115
S'982'
p620
sbasS'target_sub'
p621
S'82'
p622
sg113
(lp623
sS'is_component_arch'
p624
I01
sg115
S'6.0.0_r1'
p625
sba.