(lp0
(iArchitecture
Architecture
p1
(dp2
S'clusters'
p3
(lp4
(iArchitecture
Cluster
p5
(dp6
S'entities'
p7
(lp8
(iArchitecture
Entity
p9
(dp10
S'issue_ids'
p11
(lp12
sS'name'
p13
S'android.net.dhcp.DhcpAckPacket'
p14
sS'descs'
p15
(lp16
sS'labels'
p17
(lp18
sS'titles'
p19
(lp20
sS'change'
p21
I0
sba(iArchitecture
Entity
p22
(dp23
g11
(lp24
sg13
S'android.net.dhcp.DhcpDeclinePacket'
p25
sg15
(lp26
sg17
(lp27
sg19
(lp28
sg21
I0
sba(iArchitecture
Entity
p29
(dp30
g11
(lp31
sg13
S'android.net.dhcp.DhcpDiscoverPacket'
p32
sg15
(lp33
sg17
(lp34
sg19
(lp35
sg21
I0
sba(iArchitecture
Entity
p36
(dp37
g11
(lp38
sg13
S'android.net.dhcp.DhcpInformPacket'
p39
sg15
(lp40
sg17
(lp41
sg19
(lp42
sg21
I0
sba(iArchitecture
Entity
p43
(dp44
g11
(lp45
sg13
S'android.net.dhcp.DhcpNakPacket'
p46
sg15
(lp47
sg17
(lp48
sg19
(lp49
sg21
I0
sba(iArchitecture
Entity
p50
(dp51
g11
(lp52
sg13
S'android.net.dhcp.DhcpOfferPacket'
p53
sg15
(lp54
sg17
(lp55
sg19
(lp56
sg21
I0
sba(iArchitecture
Entity
p57
(dp58
g11
(lp59
sg13
S'android.net.dhcp.DhcpRequestPacket'
p60
sg15
(lp61
sg17
(lp62
sg19
(lp63
sg21
I0
sbasS'classes'
p64
(lp65
g14
ag25
ag32
ag39
ag46
ag53
ag60
asg21
I0
sS'label'
p66
S'1114'
p67
sba(iArchitecture
Cluster
p68
(dp69
g7
(lp70
(iArchitecture
Entity
p71
(dp72
g11
(lp73
sg13
S'android.animation.KeyframeSet'
p74
sg15
(lp75
sg17
(lp76
sg19
(lp77
sg21
I0
sbasg64
(lp78
g74
asg21
I0
sg66
S'114'
p79
sba(iArchitecture
Cluster
p80
(dp81
g7
(lp82
(iArchitecture
Entity
p83
(dp84
g11
(lp85
sg13
S'android.renderscript.ProgramFragment'
p86
sg15
(lp87
sg17
(lp88
sg19
(lp89
sg21
I0
sba(iArchitecture
Entity
p90
(dp91
g11
(lp92
sg13
S'android.renderscript.ProgramFragment$Builder'
p93
sg15
(lp94
sg17
(lp95
sg19
(lp96
sg21
I0
sba(iArchitecture
Entity
p97
(dp98
g11
(lp99
sg13
S'android.renderscript.ProgramFragmentFixedFunction'
p100
sg15
(lp101
sg17
(lp102
sg19
(lp103
sg21
I0
sba(iArchitecture
Entity
p104
(dp105
g11
(lp106
sg13
S'android.renderscript.ProgramFragmentFixedFunction$Builder'
p107
sg15
(lp108
sg17
(lp109
sg19
(lp110
sg21
I0
sba(iArchitecture
Entity
p111
(dp112
g11
(lp113
sg13
S'android.renderscript.ProgramFragmentFixedFunction$Builder$EnvMode'
p114
sg15
(lp115
sg17
(lp116
sg19
(lp117
sg21
I0
sba(iArchitecture
Entity
p118
(dp119
g11
(lp120
sg13
S'android.renderscript.ProgramFragmentFixedFunction$Builder$Format'
p121
sg15
(lp122
sg17
(lp123
sg19
(lp124
sg21
I0
sba(iArchitecture
Entity
p125
(dp126
g11
(lp127
sg13
S'android.renderscript.ProgramFragmentFixedFunction$Builder$Slot'
p128
sg15
(lp129
sg17
(lp130
sg19
(lp131
sg21
I0
sba(iArchitecture
Entity
p132
(dp133
g11
(lp134
sg13
S'android.renderscript.ProgramFragmentFixedFunction$InternalBuilder'
p135
sg15
(lp136
sg17
(lp137
sg19
(lp138
sg21
I0
sba(iArchitecture
Entity
p139
(dp140
g11
(lp141
sg13
S'android.renderscript.ProgramVertex'
p142
sg15
(lp143
sg17
(lp144
sg19
(lp145
sg21
I0
sba(iArchitecture
Entity
p146
(dp147
g11
(lp148
sg13
S'android.renderscript.ProgramVertex$Builder'
p149
sg15
(lp150
sg17
(lp151
sg19
(lp152
sg21
I0
sba(iArchitecture
Entity
p153
(dp154
g11
(lp155
sg13
S'android.renderscript.ProgramVertexFixedFunction'
p156
sg15
(lp157
sg17
(lp158
sg19
(lp159
sg21
I0
sba(iArchitecture
Entity
p160
(dp161
g11
(lp162
sg13
S'android.renderscript.ProgramVertexFixedFunction$Builder'
p163
sg15
(lp164
sg17
(lp165
sg19
(lp166
sg21
I0
sba(iArchitecture
Entity
p167
(dp168
g11
(lp169
sg13
S'android.renderscript.ProgramVertexFixedFunction$Constants'
p170
sg15
(lp171
sg17
(lp172
sg19
(lp173
sg21
I0
sba(iArchitecture
Entity
p174
(dp175
g11
(lp176
sg13
S'android.renderscript.ProgramVertexFixedFunction$InternalBuilder'
p177
sg15
(lp178
sg17
(lp179
sg19
(lp180
sg21
I0
sbasg64
(lp181
g86
ag93
ag100
ag107
ag114
ag121
ag128
ag135
ag142
ag149
ag156
ag163
ag170
ag177
asg21
I0
sg66
S'1140'
p182
sba(iArchitecture
Cluster
p183
(dp184
g7
(lp185
(iArchitecture
Entity
p186
(dp187
g11
(lp188
sg13
S'android.os.ServiceManager'
p189
sg15
(lp190
sg17
(lp191
sg19
(lp192
sg21
I0
sba(iArchitecture
Entity
p193
(dp194
g11
(lp195
sg13
S'android.os.ServiceManagerNative'
p196
sg15
(lp197
sg17
(lp198
sg19
(lp199
sg21
I0
sbasg64
(lp200
g189
ag196
asg21
I0
sg66
S'1141'
p201
sba(iArchitecture
Cluster
p202
(dp203
g7
(lp204
(iArchitecture
Entity
p205
(dp206
g11
(lp207
sg13
S'android.graphics.LinearGradient'
p208
sg15
(lp209
sg17
(lp210
sg19
(lp211
sg21
I0
sba(iArchitecture
Entity
p212
(dp213
g11
(lp214
sg13
S'android.graphics.SweepGradient'
p215
sg15
(lp216
sg17
(lp217
sg19
(lp218
sg21
I0
sbasg64
(lp219
g208
ag215
asg21
I0
sg66
S'1142'
p220
sba(iArchitecture
Cluster
p221
(dp222
g7
(lp223
(iArchitecture
Entity
p224
(dp225
g11
(lp226
sg13
S'android.os.UserManager'
p227
sg15
(lp228
sg17
(lp229
sg19
(lp230
sg21
I0
sba(iArchitecture
Entity
p231
(dp232
g11
(lp233
sg13
S'com.android.server.pm.UserManagerService'
p234
sg15
(lp235
sg17
(lp236
sg19
(lp237
sg21
I0
sba(iArchitecture
Entity
p238
(dp239
g11
(lp240
sg13
S'com.android.server.pm.UserManagerService$1'
p241
sg15
(lp242
sg17
(lp243
sg19
(lp244
sg21
I0
sba(iArchitecture
Entity
p245
(dp246
g11
(lp247
sg13
S'com.android.server.pm.UserManagerService$2'
p248
sg15
(lp249
sg17
(lp250
sg19
(lp251
sg21
I0
sba(iArchitecture
Entity
p252
(dp253
g11
(lp254
sg13
S'com.android.server.pm.UserManagerService$2$1'
p255
sg15
(lp256
sg17
(lp257
sg19
(lp258
sg21
I0
sba(iArchitecture
Entity
p259
(dp260
g11
(lp261
sg13
S'com.android.server.pm.UserManagerService$3'
p262
sg15
(lp263
sg17
(lp264
sg19
(lp265
sg21
I0
sba(iArchitecture
Entity
p266
(dp267
g11
(lp268
sg13
S'com.android.server.pm.UserManagerService$MainHandler'
p269
sg15
(lp270
sg17
(lp271
sg19
(lp272
sg21
I0
sbasg64
(lp273
g227
ag234
ag241
ag248
ag255
ag262
ag269
asg21
I0
sg66
S'1143'
p274
sba(iArchitecture
Cluster
p275
(dp276
g7
(lp277
(iArchitecture
Entity
p278
(dp279
g11
(lp280
sg13
S'android.text.method.MultiTapKeyListener'
p281
sg15
(lp282
sg17
(lp283
sg19
(lp284
sg21
I0
sba(iArchitecture
Entity
p285
(dp286
g11
(lp287
sg13
S'android.text.method.MultiTapKeyListener$Timeout'
p288
sg15
(lp289
sg17
(lp290
sg19
(lp291
sg21
I0
sba(iArchitecture
Entity
p292
(dp293
g11
(lp294
sg13
S'android.text.method.QwertyKeyListener'
p295
sg15
(lp296
sg17
(lp297
sg19
(lp298
sg21
I0
sba(iArchitecture
Entity
p299
(dp300
g11
(lp301
sg13
S'android.text.method.QwertyKeyListener$Replaced'
p302
sg15
(lp303
sg17
(lp304
sg19
(lp305
sg21
I0
sbasg64
(lp306
g281
ag288
ag295
ag302
asg21
I0
sg66
S'1144'
p307
sba(iArchitecture
Cluster
p308
(dp309
g7
(lp310
(iArchitecture
Entity
p311
(dp312
g11
(lp313
sg13
S'android.widget.TimePicker'
p314
sg15
(lp315
sg17
(lp316
sg19
(lp317
sg21
I0
sba(iArchitecture
Entity
p318
(dp319
g11
(lp320
sg13
S'android.widget.TimePicker$AbstractTimePickerDelegate'
p321
sg15
(lp322
sg17
(lp323
sg19
(lp324
sg21
I0
sba(iArchitecture
Entity
p325
(dp326
g11
(lp327
sg13
S'android.widget.TimePicker$OnTimeChangedListener'
p328
sg15
(lp329
sg17
(lp330
sg19
(lp331
sg21
I0
sba(iArchitecture
Entity
p332
(dp333
g11
(lp334
sg13
S'android.widget.TimePicker$TimePickerDelegate'
p335
sg15
(lp336
sg17
(lp337
sg19
(lp338
sg21
I0
sba(iArchitecture
Entity
p339
(dp340
g11
(lp341
sg13
S'android.widget.TimePicker$ValidationCallback'
p342
sg15
(lp343
sg17
(lp344
sg19
(lp345
sg21
I0
sba(iArchitecture
Entity
p346
(dp347
g11
(lp348
sg13
S'android.widget.TimePickerClockDelegate'
p349
sg15
(lp350
sg17
(lp351
sg19
(lp352
sg21
I0
sba(iArchitecture
Entity
p353
(dp354
g11
(lp355
sg13
S'android.widget.TimePickerClockDelegate$1'
p356
sg15
(lp357
sg17
(lp358
sg19
(lp359
sg21
I0
sba(iArchitecture
Entity
p360
(dp361
g11
(lp362
sg13
S'android.widget.TimePickerClockDelegate$2'
p363
sg15
(lp364
sg17
(lp365
sg19
(lp366
sg21
I0
sba(iArchitecture
Entity
p367
(dp368
g11
(lp369
sg13
S'android.widget.TimePickerClockDelegate$3'
p370
sg15
(lp371
sg17
(lp372
sg19
(lp373
sg21
I0
sba(iArchitecture
Entity
p374
(dp375
g11
(lp376
sg13
S'android.widget.TimePickerClockDelegate$ClickActionDelegate'
p377
sg15
(lp378
sg17
(lp379
sg19
(lp380
sg21
I0
sba(iArchitecture
Entity
p381
(dp382
g11
(lp383
sg13
S'android.widget.TimePickerClockDelegate$Node'
p384
sg15
(lp385
sg17
(lp386
sg19
(lp387
sg21
I0
sba(iArchitecture
Entity
p388
(dp389
g11
(lp390
sg13
S'android.widget.TimePickerClockDelegate$SavedState'
p391
sg15
(lp392
sg17
(lp393
sg19
(lp394
sg21
I0
sba(iArchitecture
Entity
p395
(dp396
g11
(lp397
sg13
S'android.widget.TimePickerClockDelegate$SavedState$1'
p398
sg15
(lp399
sg17
(lp400
sg19
(lp401
sg21
I0
sba(iArchitecture
Entity
p402
(dp403
g11
(lp404
sg13
S'android.widget.TimePickerSpinnerDelegate'
p405
sg15
(lp406
sg17
(lp407
sg19
(lp408
sg21
I0
sba(iArchitecture
Entity
p409
(dp410
g11
(lp411
sg13
S'android.widget.TimePickerSpinnerDelegate$1'
p412
sg15
(lp413
sg17
(lp414
sg19
(lp415
sg21
I0
sba(iArchitecture
Entity
p416
(dp417
g11
(lp418
sg13
S'android.widget.TimePickerSpinnerDelegate$2'
p419
sg15
(lp420
sg17
(lp421
sg19
(lp422
sg21
I0
sba(iArchitecture
Entity
p423
(dp424
g11
(lp425
sg13
S'android.widget.TimePickerSpinnerDelegate$3'
p426
sg15
(lp427
sg17
(lp428
sg19
(lp429
sg21
I0
sba(iArchitecture
Entity
p430
(dp431
g11
(lp432
sg13
S'android.widget.TimePickerSpinnerDelegate$4'
p433
sg15
(lp434
sg17
(lp435
sg19
(lp436
sg21
I0
sba(iArchitecture
Entity
p437
(dp438
g11
(lp439
sg13
S'android.widget.TimePickerSpinnerDelegate$SavedState'
p440
sg15
(lp441
sg17
(lp442
sg19
(lp443
sg21
I0
sba(iArchitecture
Entity
p444
(dp445
g11
(lp446
sg13
S'android.widget.TimePickerSpinnerDelegate$SavedState$1'
p447
sg15
(lp448
sg17
(lp449
sg19
(lp450
sg21
I0
sbasg64
(lp451
g314
ag321
ag328
ag335
ag342
ag349
ag356
ag363
ag370
ag377
ag384
ag391
ag398
ag405
ag412
ag419
ag426
ag433
ag440
ag447
asg21
I0
sg66
S'1145'
p452
sba(iArchitecture
Cluster
p453
(dp454
g7
(lp455
(iArchitecture
Entity
p456
(dp457
g11
(lp458
sg13
S'android.print.PrinterDiscoverySession'
p459
sg15
(lp460
sg17
(lp461
sg19
(lp462
sg21
I0
sba(iArchitecture
Entity
p463
(dp464
g11
(lp465
sg13
S'android.print.PrinterDiscoverySession$OnPrintersChangeListener'
p466
sg15
(lp467
sg17
(lp468
sg19
(lp469
sg21
I0
sba(iArchitecture
Entity
p470
(dp471
g11
(lp472
sg13
S'android.print.PrinterDiscoverySession$PrinterDiscoveryObserver'
p473
sg15
(lp474
sg17
(lp475
sg19
(lp476
sg21
I0
sba(iArchitecture
Entity
p477
(dp478
g11
(lp479
sg13
S'android.print.PrinterDiscoverySession$SessionHandler'
p480
sg15
(lp481
sg17
(lp482
sg19
(lp483
sg21
I0
sba(iArchitecture
Entity
p484
(dp485
g11
(lp486
sg13
S'android.printservice.PrinterDiscoverySession'
p487
sg15
(lp488
sg17
(lp489
sg19
(lp490
sg21
I0
sbasg64
(lp491
g459
ag466
ag473
ag480
ag487
asg21
I0
sg66
S'1146'
p492
sba(iArchitecture
Cluster
p493
(dp494
g7
(lp495
(iArchitecture
Entity
p496
(dp497
g11
(lp498
sg13
S'android.location.LocationProvider'
p499
sg15
(lp500
sg17
(lp501
sg19
(lp502
sg21
I0
sba(iArchitecture
Entity
p503
(dp504
g11
(lp505
sg13
S'com.android.internal.location.ProviderProperties'
p506
sg15
(lp507
sg17
(lp508
sg19
(lp509
sg21
I0
sba(iArchitecture
Entity
p510
(dp511
g11
(lp512
sg13
S'com.android.internal.location.ProviderProperties$1'
p513
sg15
(lp514
sg17
(lp515
sg19
(lp516
sg21
I0
sbasg64
(lp517
g499
ag506
ag513
asg21
I0
sg66
S'1147'
p518
sba(iArchitecture
Cluster
p519
(dp520
g7
(lp521
(iArchitecture
Entity
p522
(dp523
g11
(lp524
sg13
S'android.hardware.usb.UsbManager'
p525
sg15
(lp526
sg17
(lp527
sg19
(lp528
sg21
I0
sba(iArchitecture
Entity
p529
(dp530
g11
(lp531
sg13
S'com.android.server.usb.UsbDeviceManager'
p532
sg15
(lp533
sg17
(lp534
sg19
(lp535
sg21
I0
sba(iArchitecture
Entity
p536
(dp537
g11
(lp538
sg13
S'com.android.server.usb.UsbDeviceManager$1'
p539
sg15
(lp540
sg17
(lp541
sg19
(lp542
sg21
I0
sba(iArchitecture
Entity
p543
(dp544
g11
(lp545
sg13
S'com.android.server.usb.UsbDeviceManager$AdbSettingsObserver'
p546
sg15
(lp547
sg17
(lp548
sg19
(lp549
sg21
I0
sba(iArchitecture
Entity
p550
(dp551
g11
(lp552
sg13
S'com.android.server.usb.UsbDeviceManager$UsbHandler'
p553
sg15
(lp554
sg17
(lp555
sg19
(lp556
sg21
I0
sba(iArchitecture
Entity
p557
(dp558
g11
(lp559
sg13
S'com.android.server.usb.UsbService'
p560
sg15
(lp561
sg17
(lp562
sg19
(lp563
sg21
I0
sba(iArchitecture
Entity
p564
(dp565
g11
(lp566
sg13
S'com.android.server.usb.UsbService$1'
p567
sg15
(lp568
sg17
(lp569
sg19
(lp570
sg21
I0
sba(iArchitecture
Entity
p571
(dp572
g11
(lp573
sg13
S'com.android.server.usb.UsbService$Lifecycle'
p574
sg15
(lp575
sg17
(lp576
sg19
(lp577
sg21
I0
sbasg64
(lp578
g525
ag532
ag539
ag546
ag553
ag560
ag567
ag574
asg21
I0
sg66
S'1148'
p579
sba(iArchitecture
Cluster
p580
(dp581
g7
(lp582
(iArchitecture
Entity
p583
(dp584
g11
(lp585
sg13
S'android.renderscript.Matrix2f'
p586
sg15
(lp587
sg17
(lp588
sg19
(lp589
sg21
I0
sba(iArchitecture
Entity
p590
(dp591
g11
(lp592
sg13
S'android.renderscript.Matrix3f'
p593
sg15
(lp594
sg17
(lp595
sg19
(lp596
sg21
I0
sba(iArchitecture
Entity
p597
(dp598
g11
(lp599
sg13
S'android.renderscript.Matrix4f'
p600
sg15
(lp601
sg17
(lp602
sg19
(lp603
sg21
I0
sbasg64
(lp604
g586
ag593
ag600
asg21
I0
sg66
S'1149'
p605
sbasS'target_sub'
p606
S'114'
p607
sg64
(lp608
sS'is_component_arch'
p609
I01
sg66
S'6.0.0_r1'
p610
sba.