(lp0
(iArchitecture
Architecture
p1
(dp2
S'clusters'
p3
(lp4
(iArchitecture
Cluster
p5
(dp6
S'entities'
p7
(lp8
(iArchitecture
Entity
p9
(dp10
S'issue_ids'
p11
(lp12
sS'name'
p13
S'com.android.server.connectivity.Tethering'
p14
sS'descs'
p15
(lp16
sS'labels'
p17
(lp18
sS'titles'
p19
(lp20
sS'change'
p21
I0
sba(iArchitecture
Entity
p22
(dp23
g11
(lp24
sg13
S'com.android.server.connectivity.Tethering$StateReceiver'
p25
sg15
(lp26
sg17
(lp27
sg19
(lp28
sg21
I0
sba(iArchitecture
Entity
p29
(dp30
g11
(lp31
sg13
S'com.android.server.connectivity.Tethering$TetherInterfaceSM'
p32
sg15
(lp33
sg17
(lp34
sg19
(lp35
sg21
I0
sba(iArchitecture
Entity
p36
(dp37
g11
(lp38
sg13
S'com.android.server.connectivity.Tethering$TetherInterfaceSM$InitialState'
p39
sg15
(lp40
sg17
(lp41
sg19
(lp42
sg21
I0
sba(iArchitecture
Entity
p43
(dp44
g11
(lp45
sg13
S'com.android.server.connectivity.Tethering$TetherInterfaceSM$StartingState'
p46
sg15
(lp47
sg17
(lp48
sg19
(lp49
sg21
I0
sba(iArchitecture
Entity
p50
(dp51
g11
(lp52
sg13
S'com.android.server.connectivity.Tethering$TetherInterfaceSM$TetheredState'
p53
sg15
(lp54
sg17
(lp55
sg19
(lp56
sg21
I0
sba(iArchitecture
Entity
p57
(dp58
g11
(lp59
sg13
S'com.android.server.connectivity.Tethering$TetherInterfaceSM$UnavailableState'
p60
sg15
(lp61
sg17
(lp62
sg19
(lp63
sg21
I0
sba(iArchitecture
Entity
p64
(dp65
g11
(lp66
sg13
S'com.android.server.connectivity.Tethering$TetherMasterSM'
p67
sg15
(lp68
sg17
(lp69
sg19
(lp70
sg21
I0
sba(iArchitecture
Entity
p71
(dp72
g11
(lp73
sg13
S'com.android.server.connectivity.Tethering$TetherMasterSM$ErrorState'
p74
sg15
(lp75
sg17
(lp76
sg19
(lp77
sg21
I0
sba(iArchitecture
Entity
p78
(dp79
g11
(lp80
sg13
S'com.android.server.connectivity.Tethering$TetherMasterSM$InitialState'
p81
sg15
(lp82
sg17
(lp83
sg19
(lp84
sg21
I0
sba(iArchitecture
Entity
p85
(dp86
g11
(lp87
sg13
S'com.android.server.connectivity.Tethering$TetherMasterSM$SetDnsForwardersErrorState'
p88
sg15
(lp89
sg17
(lp90
sg19
(lp91
sg21
I0
sba(iArchitecture
Entity
p92
(dp93
g11
(lp94
sg13
S'com.android.server.connectivity.Tethering$TetherMasterSM$SetIpForwardingDisabledErrorState'
p95
sg15
(lp96
sg17
(lp97
sg19
(lp98
sg21
I0
sba(iArchitecture
Entity
p99
(dp100
g11
(lp101
sg13
S'com.android.server.connectivity.Tethering$TetherMasterSM$SetIpForwardingEnabledErrorState'
p102
sg15
(lp103
sg17
(lp104
sg19
(lp105
sg21
I0
sba(iArchitecture
Entity
p106
(dp107
g11
(lp108
sg13
S'com.android.server.connectivity.Tethering$TetherMasterSM$SimChangeBroadcastReceiver'
p109
sg15
(lp110
sg17
(lp111
sg19
(lp112
sg21
I0
sba(iArchitecture
Entity
p113
(dp114
g11
(lp115
sg13
S'com.android.server.connectivity.Tethering$TetherMasterSM$StartTetheringErrorState'
p116
sg15
(lp117
sg17
(lp118
sg19
(lp119
sg21
I0
sba(iArchitecture
Entity
p120
(dp121
g11
(lp122
sg13
S'com.android.server.connectivity.Tethering$TetherMasterSM$StopTetheringErrorState'
p123
sg15
(lp124
sg17
(lp125
sg19
(lp126
sg21
I0
sba(iArchitecture
Entity
p127
(dp128
g11
(lp129
sg13
S'com.android.server.connectivity.Tethering$TetherMasterSM$TetherMasterUtilState'
p130
sg15
(lp131
sg17
(lp132
sg19
(lp133
sg21
I0
sba(iArchitecture
Entity
p134
(dp135
g11
(lp136
sg13
S'com.android.server.connectivity.Tethering$TetherMasterSM$TetherModeAliveState'
p137
sg15
(lp138
sg17
(lp139
sg19
(lp140
sg21
I0
sbasS'classes'
p141
(lp142
g14
ag25
ag32
ag39
ag46
ag53
ag60
ag67
ag74
ag81
ag88
ag95
ag102
ag109
ag116
ag123
ag130
ag137
asg21
I0
sS'label'
p143
S'1089'
p144
sba(iArchitecture
Cluster
p145
(dp146
g7
(lp147
(iArchitecture
Entity
p148
(dp149
g11
(lp150
sg13
S'android.database.sqlite.SqliteWrapper'
p151
sg15
(lp152
sg17
(lp153
sg19
(lp154
sg21
I0
sba(iArchitecture
Entity
p155
(dp156
g11
(lp157
sg13
S'android.hardware.SerialManager'
p158
sg15
(lp159
sg17
(lp160
sg19
(lp161
sg21
I0
sba(iArchitecture
Entity
p162
(dp163
g11
(lp164
sg13
S'com.android.internal.widget.LinearLayoutWithDefaultTouchRecepient'
p165
sg15
(lp166
sg17
(lp167
sg19
(lp168
sg21
I0
sba(iArchitecture
Entity
p169
(dp170
g11
(lp171
sg13
S'com.android.server.SerialService'
p172
sg15
(lp173
sg17
(lp174
sg19
(lp175
sg21
I0
sbasg141
(lp176
g151
ag158
ag165
ag172
asg21
I0
sg143
S'1189'
p177
sba(iArchitecture
Cluster
p178
(dp179
g7
(lp180
(iArchitecture
Entity
p181
(dp182
g11
(lp183
sg13
S'android.speech.RecognizerIntent'
p184
sg15
(lp185
sg17
(lp186
sg19
(lp187
sg21
I0
sbasg141
(lp188
g184
asg21
I0
sg143
S'189'
p189
sba(iArchitecture
Cluster
p190
(dp191
g7
(lp192
(iArchitecture
Entity
p193
(dp194
g11
(lp195
sg13
S'android.util.XmlPullAttributes'
p196
sg15
(lp197
sg17
(lp198
sg19
(lp199
sg21
I0
sbasg141
(lp200
g196
asg21
I0
sg143
S'289'
p201
sba(iArchitecture
Cluster
p202
(dp203
g7
(lp204
(iArchitecture
Entity
p205
(dp206
g11
(lp207
sg13
S'com.android.internal.content.PackageMonitor'
p208
sg15
(lp209
sg17
(lp210
sg19
(lp211
sg21
I0
sbasg141
(lp212
g208
asg21
I0
sg143
S'389'
p213
sba(iArchitecture
Cluster
p214
(dp215
g7
(lp216
(iArchitecture
Entity
p217
(dp218
g11
(lp219
sg13
S'android.database.CursorToBulkCursorAdaptor'
p220
sg15
(lp221
sg17
(lp222
sg19
(lp223
sg21
I0
sba(iArchitecture
Entity
p224
(dp225
g11
(lp226
sg13
S'android.database.CursorToBulkCursorAdaptor$ContentObserverProxy'
p227
sg15
(lp228
sg17
(lp229
sg19
(lp230
sg21
I0
sbasg141
(lp231
g220
ag227
asg21
I0
sg143
S'489'
p232
sba(iArchitecture
Cluster
p233
(dp234
g7
(lp235
(iArchitecture
Entity
p236
(dp237
g11
(lp238
sg13
S'com.android.internal.content.NativeLibraryHelper'
p239
sg15
(lp240
sg17
(lp241
sg19
(lp242
sg21
I0
sba(iArchitecture
Entity
p243
(dp244
g11
(lp245
sg13
S'com.android.internal.content.NativeLibraryHelper$Handle'
p246
sg15
(lp247
sg17
(lp248
sg19
(lp249
sg21
I0
sbasg141
(lp250
g239
ag246
asg21
I0
sg143
S'589'
p251
sba(iArchitecture
Cluster
p252
(dp253
g7
(lp254
(iArchitecture
Entity
p255
(dp256
g11
(lp257
sg13
S'android.telephony.VoLteServiceState'
p258
sg15
(lp259
sg17
(lp260
sg19
(lp261
sg21
I0
sba(iArchitecture
Entity
p262
(dp263
g11
(lp264
sg13
S'android.telephony.VoLteServiceState$1'
p265
sg15
(lp266
sg17
(lp267
sg19
(lp268
sg21
I0
sbasg141
(lp269
g258
ag265
asg21
I0
sg143
S'689'
p270
sba(iArchitecture
Cluster
p271
(dp272
g7
(lp273
(iArchitecture
Entity
p274
(dp275
g11
(lp276
sg13
S'com.android.internal.inputmethod.InputMethodUtils'
p277
sg15
(lp278
sg17
(lp279
sg19
(lp280
sg21
I0
sba(iArchitecture
Entity
p281
(dp282
g11
(lp283
sg13
S'com.android.internal.inputmethod.InputMethodUtils$InputMethodListBuilder'
p284
sg15
(lp285
sg17
(lp286
sg19
(lp287
sg21
I0
sba(iArchitecture
Entity
p288
(dp289
g11
(lp290
sg13
S'com.android.internal.inputmethod.InputMethodUtils$InputMethodSettings'
p291
sg15
(lp292
sg17
(lp293
sg19
(lp294
sg21
I0
sbasg141
(lp295
g277
ag284
ag291
asg21
I0
sg143
S'789'
p296
sba(iArchitecture
Cluster
p297
(dp298
g7
(lp299
(iArchitecture
Entity
p300
(dp301
g11
(lp302
sg13
S'android.os.Handler'
p303
sg15
(lp304
sg17
(lp305
sg19
(lp306
sg21
I0
sba(iArchitecture
Entity
p307
(dp308
g11
(lp309
sg13
S'android.os.Handler$BlockingRunnable'
p310
sg15
(lp311
sg17
(lp312
sg19
(lp313
sg21
I0
sba(iArchitecture
Entity
p314
(dp315
g11
(lp316
sg13
S'android.os.Handler$Callback'
p317
sg15
(lp318
sg17
(lp319
sg19
(lp320
sg21
I0
sba(iArchitecture
Entity
p321
(dp322
g11
(lp323
sg13
S'android.os.Handler$MessengerImpl'
p324
sg15
(lp325
sg17
(lp326
sg19
(lp327
sg21
I0
sbasg141
(lp328
g303
ag310
ag317
ag324
asg21
I0
sg143
S'889'
p329
sba(iArchitecture
Cluster
p330
(dp331
g7
(lp332
(iArchitecture
Entity
p333
(dp334
g11
(lp335
sg13
S'android.text.style.LocaleSpan'
p336
sg15
(lp337
sg17
(lp338
sg19
(lp339
sg21
I0
sbasg141
(lp340
g336
asg21
I0
sg143
S'89'
p341
sba(iArchitecture
Cluster
p342
(dp343
g7
(lp344
(iArchitecture
Entity
p345
(dp346
g11
(lp347
sg13
S'android.widget.CompoundButton'
p348
sg15
(lp349
sg17
(lp350
sg19
(lp351
sg21
I0
sba(iArchitecture
Entity
p352
(dp353
g11
(lp354
sg13
S'android.widget.CompoundButton$OnCheckedChangeListener'
p355
sg15
(lp356
sg17
(lp357
sg19
(lp358
sg21
I0
sba(iArchitecture
Entity
p359
(dp360
g11
(lp361
sg13
S'android.widget.CompoundButton$SavedState'
p362
sg15
(lp363
sg17
(lp364
sg19
(lp365
sg21
I0
sba(iArchitecture
Entity
p366
(dp367
g11
(lp368
sg13
S'android.widget.CompoundButton$SavedState$1'
p369
sg15
(lp370
sg17
(lp371
sg19
(lp372
sg21
I0
sbasg141
(lp373
g348
ag355
ag362
ag369
asg21
I0
sg143
S'890'
p374
sba(iArchitecture
Cluster
p375
(dp376
g7
(lp377
(iArchitecture
Entity
p378
(dp379
g11
(lp380
sg13
S'android.view.AccessibilityInteractionController'
p381
sg15
(lp382
sg17
(lp383
sg19
(lp384
sg21
I0
sba(iArchitecture
Entity
p385
(dp386
g11
(lp387
sg13
S'android.view.AccessibilityInteractionController$AccessibilityNodePrefetcher'
p388
sg15
(lp389
sg17
(lp390
sg19
(lp391
sg21
I0
sba(iArchitecture
Entity
p392
(dp393
g11
(lp394
sg13
S'android.view.AccessibilityInteractionController$AddNodeInfosForViewId'
p395
sg15
(lp396
sg17
(lp397
sg19
(lp398
sg21
I0
sba(iArchitecture
Entity
p399
(dp400
g11
(lp401
sg13
S'android.view.AccessibilityInteractionController$PrivateHandler'
p402
sg15
(lp403
sg17
(lp404
sg19
(lp405
sg21
I0
sbasg141
(lp406
g381
ag388
ag395
ag402
asg21
I0
sg143
S'891'
p407
sba(iArchitecture
Cluster
p408
(dp409
g7
(lp410
(iArchitecture
Entity
p411
(dp412
g11
(lp413
sg13
S'android.database.sqlite.SQLiteConnectionPool'
p414
sg15
(lp415
sg17
(lp416
sg19
(lp417
sg21
I0
sba(iArchitecture
Entity
p418
(dp419
g11
(lp420
sg13
S'android.database.sqlite.SQLiteConnectionPool$1'
p421
sg15
(lp422
sg17
(lp423
sg19
(lp424
sg21
I0
sba(iArchitecture
Entity
p425
(dp426
g11
(lp427
sg13
S'android.database.sqlite.SQLiteConnectionPool$AcquiredConnectionStatus'
p428
sg15
(lp429
sg17
(lp430
sg19
(lp431
sg21
I0
sba(iArchitecture
Entity
p432
(dp433
g11
(lp434
sg13
S'android.database.sqlite.SQLiteConnectionPool$ConnectionWaiter'
p435
sg15
(lp436
sg17
(lp437
sg19
(lp438
sg21
I0
sbasg141
(lp439
g414
ag421
ag428
ag435
asg21
I0
sg143
S'892'
p440
sba(iArchitecture
Cluster
p441
(dp442
g7
(lp443
(iArchitecture
Entity
p444
(dp445
g11
(lp446
sg13
S'com.android.internal.app.HeavyWeightSwitcherActivity'
p447
sg15
(lp448
sg17
(lp449
sg19
(lp450
sg21
I0
sba(iArchitecture
Entity
p451
(dp452
g11
(lp453
sg13
S'com.android.internal.app.HeavyWeightSwitcherActivity$1'
p454
sg15
(lp455
sg17
(lp456
sg19
(lp457
sg21
I0
sba(iArchitecture
Entity
p458
(dp459
g11
(lp460
sg13
S'com.android.internal.app.HeavyWeightSwitcherActivity$2'
p461
sg15
(lp462
sg17
(lp463
sg19
(lp464
sg21
I0
sba(iArchitecture
Entity
p465
(dp466
g11
(lp467
sg13
S'com.android.internal.app.HeavyWeightSwitcherActivity$3'
p468
sg15
(lp469
sg17
(lp470
sg19
(lp471
sg21
I0
sbasg141
(lp472
g447
ag454
ag461
ag468
asg21
I0
sg143
S'893'
p473
sba(iArchitecture
Cluster
p474
(dp475
g7
(lp476
(iArchitecture
Entity
p477
(dp478
g11
(lp479
sg13
S'com.android.internal.view.RotationPolicy'
p480
sg15
(lp481
sg17
(lp482
sg19
(lp483
sg21
I0
sba(iArchitecture
Entity
p484
(dp485
g11
(lp486
sg13
S'com.android.internal.view.RotationPolicy$1'
p487
sg15
(lp488
sg17
(lp489
sg19
(lp490
sg21
I0
sba(iArchitecture
Entity
p491
(dp492
g11
(lp493
sg13
S'com.android.internal.view.RotationPolicy$RotationPolicyListener'
p494
sg15
(lp495
sg17
(lp496
sg19
(lp497
sg21
I0
sba(iArchitecture
Entity
p498
(dp499
g11
(lp500
sg13
S'com.android.internal.view.RotationPolicy$RotationPolicyListener$1'
p501
sg15
(lp502
sg17
(lp503
sg19
(lp504
sg21
I0
sbasg141
(lp505
g480
ag487
ag494
ag501
asg21
I0
sg143
S'894'
p506
sba(iArchitecture
Cluster
p507
(dp508
g7
(lp509
(iArchitecture
Entity
p510
(dp511
g11
(lp512
sg13
S'android.widget.TextClock'
p513
sg15
(lp514
sg17
(lp515
sg19
(lp516
sg21
I0
sba(iArchitecture
Entity
p517
(dp518
g11
(lp519
sg13
S'android.widget.TextClock$1'
p520
sg15
(lp521
sg17
(lp522
sg19
(lp523
sg21
I0
sba(iArchitecture
Entity
p524
(dp525
g11
(lp526
sg13
S'android.widget.TextClock$2'
p527
sg15
(lp528
sg17
(lp529
sg19
(lp530
sg21
I0
sba(iArchitecture
Entity
p531
(dp532
g11
(lp533
sg13
S'android.widget.TextClock$3'
p534
sg15
(lp535
sg17
(lp536
sg19
(lp537
sg21
I0
sbasg141
(lp538
g513
ag520
ag527
ag534
asg21
I0
sg143
S'895'
p539
sba(iArchitecture
Cluster
p540
(dp541
g7
(lp542
(iArchitecture
Entity
p543
(dp544
g11
(lp545
sg13
S'android.view.MotionEvent'
p546
sg15
(lp547
sg17
(lp548
sg19
(lp549
sg21
I0
sba(iArchitecture
Entity
p550
(dp551
g11
(lp552
sg13
S'android.view.MotionEvent$1'
p553
sg15
(lp554
sg17
(lp555
sg19
(lp556
sg21
I0
sba(iArchitecture
Entity
p557
(dp558
g11
(lp559
sg13
S'android.view.MotionEvent$PointerCoords'
p560
sg15
(lp561
sg17
(lp562
sg19
(lp563
sg21
I0
sba(iArchitecture
Entity
p564
(dp565
g11
(lp566
sg13
S'android.view.MotionEvent$PointerProperties'
p567
sg15
(lp568
sg17
(lp569
sg19
(lp570
sg21
I0
sbasg141
(lp571
g546
ag553
ag560
ag567
asg21
I0
sg143
S'896'
p572
sba(iArchitecture
Cluster
p573
(dp574
g7
(lp575
(iArchitecture
Entity
p576
(dp577
g11
(lp578
sg13
S'android.util.Xml'
p579
sg15
(lp580
sg17
(lp581
sg19
(lp582
sg21
I0
sba(iArchitecture
Entity
p583
(dp584
g11
(lp585
sg13
S'android.util.Xml$Encoding'
p586
sg15
(lp587
sg17
(lp588
sg19
(lp589
sg21
I0
sba(iArchitecture
Entity
p590
(dp591
g11
(lp592
sg13
S'android.util.Xml$XmlSerializerFactory'
p593
sg15
(lp594
sg17
(lp595
sg19
(lp596
sg21
I0
sbasg141
(lp597
g579
ag586
ag593
asg21
I0
sg143
S'897'
p598
sba(iArchitecture
Cluster
p599
(dp600
g7
(lp601
(iArchitecture
Entity
p602
(dp603
g11
(lp604
sg13
S'android.graphics.SurfaceTexture'
p605
sg15
(lp606
sg17
(lp607
sg19
(lp608
sg21
I0
sba(iArchitecture
Entity
p609
(dp610
g11
(lp611
sg13
S'android.graphics.SurfaceTexture$1'
p612
sg15
(lp613
sg17
(lp614
sg19
(lp615
sg21
I0
sba(iArchitecture
Entity
p616
(dp617
g11
(lp618
sg13
S'android.graphics.SurfaceTexture$OnFrameAvailableListener'
p619
sg15
(lp620
sg17
(lp621
sg19
(lp622
sg21
I0
sba(iArchitecture
Entity
p623
(dp624
g11
(lp625
sg13
S'android.graphics.SurfaceTexture$OutOfResourcesException'
p626
sg15
(lp627
sg17
(lp628
sg19
(lp629
sg21
I0
sbasg141
(lp630
g605
ag612
ag619
ag626
asg21
I0
sg143
S'898'
p631
sba(iArchitecture
Cluster
p632
(dp633
g7
(lp634
(iArchitecture
Entity
p635
(dp636
g11
(lp637
sg13
S'com.android.server.wm.AppTransition'
p638
sg15
(lp639
sg17
(lp640
sg19
(lp641
sg21
I0
sba(iArchitecture
Entity
p642
(dp643
g11
(lp644
sg13
S'com.android.server.wm.AppTransition$1'
p645
sg15
(lp646
sg17
(lp647
sg19
(lp648
sg21
I0
sba(iArchitecture
Entity
p649
(dp650
g11
(lp651
sg13
S'com.android.server.wm.AppTransition$2'
p652
sg15
(lp653
sg17
(lp654
sg19
(lp655
sg21
I0
sbasg141
(lp656
g638
ag645
ag652
asg21
I0
sg143
S'899'
p657
sba(iArchitecture
Cluster
p658
(dp659
g7
(lp660
(iArchitecture
Entity
p661
(dp662
g11
(lp663
sg13
S'android.graphics.drawable.AnimatedStateListDrawable'
p664
sg15
(lp665
sg17
(lp666
sg19
(lp667
sg21
I0
sba(iArchitecture
Entity
p668
(dp669
g11
(lp670
sg13
S'android.graphics.drawable.AnimatedStateListDrawable$AnimatableTransition'
p671
sg15
(lp672
sg17
(lp673
sg19
(lp674
sg21
I0
sba(iArchitecture
Entity
p675
(dp676
g11
(lp677
sg13
S'android.graphics.drawable.AnimatedStateListDrawable$AnimatedStateListState'
p678
sg15
(lp679
sg17
(lp680
sg19
(lp681
sg21
I0
sba(iArchitecture
Entity
p682
(dp683
g11
(lp684
sg13
S'android.graphics.drawable.AnimatedStateListDrawable$AnimatedVectorDrawableTransition'
p685
sg15
(lp686
sg17
(lp687
sg19
(lp688
sg21
I0
sba(iArchitecture
Entity
p689
(dp690
g11
(lp691
sg13
S'android.graphics.drawable.AnimatedStateListDrawable$AnimationDrawableTransition'
p692
sg15
(lp693
sg17
(lp694
sg19
(lp695
sg21
I0
sba(iArchitecture
Entity
p696
(dp697
g11
(lp698
sg13
S'android.graphics.drawable.AnimatedStateListDrawable$FrameInterpolator'
p699
sg15
(lp700
sg17
(lp701
sg19
(lp702
sg21
I0
sba(iArchitecture
Entity
p703
(dp704
g11
(lp705
sg13
S'android.graphics.drawable.AnimatedStateListDrawable$Transition'
p706
sg15
(lp707
sg17
(lp708
sg19
(lp709
sg21
I0
sbasg141
(lp710
g664
ag671
ag678
ag685
ag692
ag699
ag706
asg21
I0
sg143
S'989'
p711
sbasS'target_sub'
p712
S'89'
p713
sg141
(lp714
sS'is_component_arch'
p715
I01
sg143
S'6.0.0_r1'
p716
sba.