(lp0
(iArchitecture
Architecture
p1
(dp2
S'clusters'
p3
(lp4
(iArchitecture
Cluster
p5
(dp6
S'entities'
p7
(lp8
(iArchitecture
Entity
p9
(dp10
S'issue_ids'
p11
(lp12
sS'name'
p13
S'android.app.Notification'
p14
sS'descs'
p15
(lp16
sS'labels'
p17
(lp18
sS'titles'
p19
(lp20
sS'change'
p21
I0
sba(iArchitecture
Entity
p22
(dp23
g11
(lp24
sg13
S'android.app.Notification$1'
p25
sg15
(lp26
sg17
(lp27
sg19
(lp28
sg21
I0
sba(iArchitecture
Entity
p29
(dp30
g11
(lp31
sg13
S'android.app.Notification$Action'
p32
sg15
(lp33
sg17
(lp34
sg19
(lp35
sg21
I0
sba(iArchitecture
Entity
p36
(dp37
g11
(lp38
sg13
S'android.app.Notification$Action$1'
p39
sg15
(lp40
sg17
(lp41
sg19
(lp42
sg21
I0
sba(iArchitecture
Entity
p43
(dp44
g11
(lp45
sg13
S'android.app.Notification$Action$Builder'
p46
sg15
(lp47
sg17
(lp48
sg19
(lp49
sg21
I0
sba(iArchitecture
Entity
p50
(dp51
g11
(lp52
sg13
S'android.app.Notification$Action$Extender'
p53
sg15
(lp54
sg17
(lp55
sg19
(lp56
sg21
I0
sba(iArchitecture
Entity
p57
(dp58
g11
(lp59
sg13
S'android.app.Notification$Action$WearableExtender'
p60
sg15
(lp61
sg17
(lp62
sg19
(lp63
sg21
I0
sba(iArchitecture
Entity
p64
(dp65
g11
(lp66
sg13
S'android.app.Notification$BigPictureStyle'
p67
sg15
(lp68
sg17
(lp69
sg19
(lp70
sg21
I0
sba(iArchitecture
Entity
p71
(dp72
g11
(lp73
sg13
S'android.app.Notification$BigTextStyle'
p74
sg15
(lp75
sg17
(lp76
sg19
(lp77
sg21
I0
sba(iArchitecture
Entity
p78
(dp79
g11
(lp80
sg13
S'android.app.Notification$Builder'
p81
sg15
(lp82
sg17
(lp83
sg19
(lp84
sg21
I0
sba(iArchitecture
Entity
p85
(dp86
g11
(lp87
sg13
S'android.app.Notification$BuilderRemoteViews'
p88
sg15
(lp89
sg17
(lp90
sg19
(lp91
sg21
I0
sba(iArchitecture
Entity
p92
(dp93
g11
(lp94
sg13
S'android.app.Notification$CarExtender'
p95
sg15
(lp96
sg17
(lp97
sg19
(lp98
sg21
I0
sba(iArchitecture
Entity
p99
(dp100
g11
(lp101
sg13
S'android.app.Notification$CarExtender$Builder'
p102
sg15
(lp103
sg17
(lp104
sg19
(lp105
sg21
I0
sba(iArchitecture
Entity
p106
(dp107
g11
(lp108
sg13
S'android.app.Notification$CarExtender$UnreadConversation'
p109
sg15
(lp110
sg17
(lp111
sg19
(lp112
sg21
I0
sba(iArchitecture
Entity
p113
(dp114
g11
(lp115
sg13
S'android.app.Notification$Extender'
p116
sg15
(lp117
sg17
(lp118
sg19
(lp119
sg21
I0
sba(iArchitecture
Entity
p120
(dp121
g11
(lp122
sg13
S'android.app.Notification$InboxStyle'
p123
sg15
(lp124
sg17
(lp125
sg19
(lp126
sg21
I0
sba(iArchitecture
Entity
p127
(dp128
g11
(lp129
sg13
S'android.app.Notification$MediaStyle'
p130
sg15
(lp131
sg17
(lp132
sg19
(lp133
sg21
I0
sba(iArchitecture
Entity
p134
(dp135
g11
(lp136
sg13
S'android.app.Notification$Style'
p137
sg15
(lp138
sg17
(lp139
sg19
(lp140
sg21
I0
sba(iArchitecture
Entity
p141
(dp142
g11
(lp143
sg13
S'android.app.Notification$WearableExtender'
p144
sg15
(lp145
sg17
(lp146
sg19
(lp147
sg21
I0
sbasS'classes'
p148
(lp149
g14
ag25
ag32
ag39
ag46
ag53
ag60
ag67
ag74
ag81
ag88
ag95
ag102
ag109
ag116
ag123
ag130
ag137
ag144
asg21
I0
sS'label'
p150
S'1088'
p151
sba(iArchitecture
Cluster
p152
(dp153
g7
(lp154
(iArchitecture
Entity
p155
(dp156
g11
(lp157
sg13
S'com.android.server.audio.FocusRequester'
p158
sg15
(lp159
sg17
(lp160
sg19
(lp161
sg21
I0
sba(iArchitecture
Entity
p162
(dp163
g11
(lp164
sg13
S'com.android.server.audio.MediaFocusControl'
p165
sg15
(lp166
sg17
(lp167
sg19
(lp168
sg21
I0
sba(iArchitecture
Entity
p169
(dp170
g11
(lp171
sg13
S'com.android.server.audio.MediaFocusControl$1'
p172
sg15
(lp173
sg17
(lp174
sg19
(lp175
sg21
I0
sba(iArchitecture
Entity
p176
(dp177
g11
(lp178
sg13
S'com.android.server.audio.MediaFocusControl$2'
p179
sg15
(lp180
sg17
(lp181
sg19
(lp182
sg21
I0
sba(iArchitecture
Entity
p183
(dp184
g11
(lp185
sg13
S'com.android.server.audio.MediaFocusControl$3'
p186
sg15
(lp187
sg17
(lp188
sg19
(lp189
sg21
I0
sba(iArchitecture
Entity
p190
(dp191
g11
(lp192
sg13
S'com.android.server.audio.MediaFocusControl$AudioFocusDeathHandler'
p193
sg15
(lp194
sg17
(lp195
sg19
(lp196
sg21
I0
sba(iArchitecture
Entity
p197
(dp198
g11
(lp199
sg13
S'com.android.server.audio.MediaFocusControl$DisplayInfoForServer'
p200
sg15
(lp201
sg17
(lp202
sg19
(lp203
sg21
I0
sba(iArchitecture
Entity
p204
(dp205
g11
(lp206
sg13
S'com.android.server.audio.MediaFocusControl$MediaEventHandler'
p207
sg15
(lp208
sg17
(lp209
sg19
(lp210
sg21
I0
sba(iArchitecture
Entity
p211
(dp212
g11
(lp213
sg13
S'com.android.server.audio.MediaFocusControl$NotificationListenerObserver'
p214
sg15
(lp215
sg17
(lp216
sg19
(lp217
sg21
I0
sbasg148
(lp218
g158
ag165
ag172
ag179
ag186
ag193
ag200
ag207
ag214
asg21
I0
sg150
S'1188'
p219
sba(iArchitecture
Cluster
p220
(dp221
g7
(lp222
(iArchitecture
Entity
p223
(dp224
g11
(lp225
sg13
S'android.net.http.SslError'
p226
sg15
(lp227
sg17
(lp228
sg19
(lp229
sg21
I0
sbasg148
(lp230
g226
asg21
I0
sg150
S'188'
p231
sba(iArchitecture
Cluster
p232
(dp233
g7
(lp234
(iArchitecture
Entity
p235
(dp236
g11
(lp237
sg13
S'com.android.server.wm.PointerEventDispatcher'
p238
sg15
(lp239
sg17
(lp240
sg19
(lp241
sg21
I0
sbasg148
(lp242
g238
asg21
I0
sg150
S'288'
p243
sba(iArchitecture
Cluster
p244
(dp245
g7
(lp246
(iArchitecture
Entity
p247
(dp248
g11
(lp249
sg13
S'com.android.server.pm.PackageKeySetData'
p250
sg15
(lp251
sg17
(lp252
sg19
(lp253
sg21
I0
sbasg148
(lp254
g250
asg21
I0
sg150
S'388'
p255
sba(iArchitecture
Cluster
p256
(dp257
g7
(lp258
(iArchitecture
Entity
p259
(dp260
g11
(lp261
sg13
S'android.content.RestrictionEntry'
p262
sg15
(lp263
sg17
(lp264
sg19
(lp265
sg21
I0
sba(iArchitecture
Entity
p266
(dp267
g11
(lp268
sg13
S'android.content.RestrictionEntry$1'
p269
sg15
(lp270
sg17
(lp271
sg19
(lp272
sg21
I0
sbasg148
(lp273
g262
ag269
asg21
I0
sg150
S'488'
p274
sba(iArchitecture
Cluster
p275
(dp276
g7
(lp277
(iArchitecture
Entity
p278
(dp279
g11
(lp280
sg13
S'android.telephony.PhoneNumberUtils'
p281
sg15
(lp282
sg17
(lp283
sg19
(lp284
sg21
I0
sba(iArchitecture
Entity
p285
(dp286
g11
(lp287
sg13
S'android.telephony.PhoneNumberUtils$CountryCallingCodeAndNewIndex'
p288
sg15
(lp289
sg17
(lp290
sg19
(lp291
sg21
I0
sbasg148
(lp292
g281
ag288
asg21
I0
sg150
S'588'
p293
sba(iArchitecture
Cluster
p294
(dp295
g7
(lp296
(iArchitecture
Entity
p297
(dp298
g11
(lp299
sg13
S'android.app.IntentService'
p300
sg15
(lp301
sg17
(lp302
sg19
(lp303
sg21
I0
sba(iArchitecture
Entity
p304
(dp305
g11
(lp306
sg13
S'android.app.IntentService$ServiceHandler'
p307
sg15
(lp308
sg17
(lp309
sg19
(lp310
sg21
I0
sbasg148
(lp311
g300
ag307
asg21
I0
sg150
S'688'
p312
sba(iArchitecture
Cluster
p313
(dp314
g7
(lp315
(iArchitecture
Entity
p316
(dp317
g11
(lp318
sg13
S'android.nfc.NfcActivityManager'
p319
sg15
(lp320
sg17
(lp321
sg19
(lp322
sg21
I0
sba(iArchitecture
Entity
p323
(dp324
g11
(lp325
sg13
S'android.nfc.NfcActivityManager$NfcActivityState'
p326
sg15
(lp327
sg17
(lp328
sg19
(lp329
sg21
I0
sba(iArchitecture
Entity
p330
(dp331
g11
(lp332
sg13
S'android.nfc.NfcActivityManager$NfcApplicationState'
p333
sg15
(lp334
sg17
(lp335
sg19
(lp336
sg21
I0
sbasg148
(lp337
g319
ag326
ag333
asg21
I0
sg150
S'788'
p338
sba(iArchitecture
Cluster
p339
(dp340
g7
(lp341
(iArchitecture
Entity
p342
(dp343
g11
(lp344
sg13
S'android.opengl.GLU'
p345
sg15
(lp346
sg17
(lp347
sg19
(lp348
sg21
I0
sbasg148
(lp349
g345
asg21
I0
sg150
S'88'
p350
sba(iArchitecture
Cluster
p351
(dp352
g7
(lp353
(iArchitecture
Entity
p354
(dp355
g11
(lp356
sg13
S'android.security.keystore.KeyStoreCryptoOperationChunkedStreamer'
p357
sg15
(lp358
sg17
(lp359
sg19
(lp360
sg21
I0
sba(iArchitecture
Entity
p361
(dp362
g11
(lp363
sg13
S'android.security.keystore.KeyStoreCryptoOperationChunkedStreamer$MainDataStream'
p364
sg15
(lp365
sg17
(lp366
sg19
(lp367
sg21
I0
sba(iArchitecture
Entity
p368
(dp369
g11
(lp370
sg13
S'android.security.keystore.KeyStoreCryptoOperationChunkedStreamer$Stream'
p371
sg15
(lp372
sg17
(lp373
sg19
(lp374
sg21
I0
sbasg148
(lp375
g357
ag364
ag371
asg21
I0
sg150
S'880'
p376
sba(iArchitecture
Cluster
p377
(dp378
g7
(lp379
(iArchitecture
Entity
p380
(dp381
g11
(lp382
sg13
S'android.content.ClipboardManager'
p383
sg15
(lp384
sg17
(lp385
sg19
(lp386
sg21
I0
sba(iArchitecture
Entity
p387
(dp388
g11
(lp389
sg13
S'android.content.ClipboardManager$1'
p390
sg15
(lp391
sg17
(lp392
sg19
(lp393
sg21
I0
sba(iArchitecture
Entity
p394
(dp395
g11
(lp396
sg13
S'android.content.ClipboardManager$2'
p397
sg15
(lp398
sg17
(lp399
sg19
(lp400
sg21
I0
sba(iArchitecture
Entity
p401
(dp402
g11
(lp403
sg13
S'android.content.ClipboardManager$OnPrimaryClipChangedListener'
p404
sg15
(lp405
sg17
(lp406
sg19
(lp407
sg21
I0
sbasg148
(lp408
g383
ag390
ag397
ag404
asg21
I0
sg150
S'881'
p409
sba(iArchitecture
Cluster
p410
(dp411
g7
(lp412
(iArchitecture
Entity
p413
(dp414
g11
(lp415
sg13
S'android.hardware.camera2.legacy.LegacyFocusStateMapper'
p416
sg15
(lp417
sg17
(lp418
sg19
(lp419
sg21
I0
sba(iArchitecture
Entity
p420
(dp421
g11
(lp422
sg13
S'android.hardware.camera2.legacy.LegacyFocusStateMapper$1'
p423
sg15
(lp424
sg17
(lp425
sg19
(lp426
sg21
I0
sba(iArchitecture
Entity
p427
(dp428
g11
(lp429
sg13
S'android.hardware.camera2.legacy.LegacyFocusStateMapper$2'
p430
sg15
(lp431
sg17
(lp432
sg19
(lp433
sg21
I0
sbasg148
(lp434
g416
ag423
ag430
asg21
I0
sg150
S'882'
p435
sba(iArchitecture
Cluster
p436
(dp437
g7
(lp438
(iArchitecture
Entity
p439
(dp440
g11
(lp441
sg13
S'android.net.wifi.p2p.WifiP2pGroupList'
p442
sg15
(lp443
sg17
(lp444
sg19
(lp445
sg21
I0
sba(iArchitecture
Entity
p446
(dp447
g11
(lp448
sg13
S'android.net.wifi.p2p.WifiP2pGroupList$1'
p449
sg15
(lp450
sg17
(lp451
sg19
(lp452
sg21
I0
sba(iArchitecture
Entity
p453
(dp454
g11
(lp455
sg13
S'android.net.wifi.p2p.WifiP2pGroupList$2'
p456
sg15
(lp457
sg17
(lp458
sg19
(lp459
sg21
I0
sba(iArchitecture
Entity
p460
(dp461
g11
(lp462
sg13
S'android.net.wifi.p2p.WifiP2pGroupList$GroupDeleteListener'
p463
sg15
(lp464
sg17
(lp465
sg19
(lp466
sg21
I0
sbasg148
(lp467
g442
ag449
ag456
ag463
asg21
I0
sg150
S'883'
p468
sba(iArchitecture
Cluster
p469
(dp470
g7
(lp471
(iArchitecture
Entity
p472
(dp473
g11
(lp474
sg13
S'com.android.server.power.WirelessChargerDetector'
p475
sg15
(lp476
sg17
(lp477
sg19
(lp478
sg21
I0
sba(iArchitecture
Entity
p479
(dp480
g11
(lp481
sg13
S'com.android.server.power.WirelessChargerDetector$1'
p482
sg15
(lp483
sg17
(lp484
sg19
(lp485
sg21
I0
sba(iArchitecture
Entity
p486
(dp487
g11
(lp488
sg13
S'com.android.server.power.WirelessChargerDetector$2'
p489
sg15
(lp490
sg17
(lp491
sg19
(lp492
sg21
I0
sbasg148
(lp493
g475
ag482
ag489
asg21
I0
sg150
S'884'
p494
sba(iArchitecture
Cluster
p495
(dp496
g7
(lp497
(iArchitecture
Entity
p498
(dp499
g11
(lp500
sg13
S'com.android.server.lights.LightsService'
p501
sg15
(lp502
sg17
(lp503
sg19
(lp504
sg21
I0
sba(iArchitecture
Entity
p505
(dp506
g11
(lp507
sg13
S'com.android.server.lights.LightsService$1'
p508
sg15
(lp509
sg17
(lp510
sg19
(lp511
sg21
I0
sba(iArchitecture
Entity
p512
(dp513
g11
(lp514
sg13
S'com.android.server.lights.LightsService$2'
p515
sg15
(lp516
sg17
(lp517
sg19
(lp518
sg21
I0
sba(iArchitecture
Entity
p519
(dp520
g11
(lp521
sg13
S'com.android.server.lights.LightsService$LightImpl'
p522
sg15
(lp523
sg17
(lp524
sg19
(lp525
sg21
I0
sbasg148
(lp526
g501
ag508
ag515
ag522
asg21
I0
sg150
S'885'
p527
sba(iArchitecture
Cluster
p528
(dp529
g7
(lp530
(iArchitecture
Entity
p531
(dp532
g11
(lp533
sg13
S'android.telephony.PhoneStateListener'
p534
sg15
(lp535
sg17
(lp536
sg19
(lp537
sg21
I0
sba(iArchitecture
Entity
p538
(dp539
g11
(lp540
sg13
S'android.telephony.PhoneStateListener$1'
p541
sg15
(lp542
sg17
(lp543
sg19
(lp544
sg21
I0
sba(iArchitecture
Entity
p545
(dp546
g11
(lp547
sg13
S'android.telephony.PhoneStateListener$2'
p548
sg15
(lp549
sg17
(lp550
sg19
(lp551
sg21
I0
sbasg148
(lp552
g534
ag541
ag548
asg21
I0
sg150
S'886'
p553
sba(iArchitecture
Cluster
p554
(dp555
g7
(lp556
(iArchitecture
Entity
p557
(dp558
g11
(lp559
sg13
S'android.telecom.ConnectionServiceAdapterServant'
p560
sg15
(lp561
sg17
(lp562
sg19
(lp563
sg21
I0
sba(iArchitecture
Entity
p564
(dp565
g11
(lp566
sg13
S'android.telecom.ConnectionServiceAdapterServant$1'
p567
sg15
(lp568
sg17
(lp569
sg19
(lp570
sg21
I0
sba(iArchitecture
Entity
p571
(dp572
g11
(lp573
sg13
S'android.telecom.ConnectionServiceAdapterServant$2'
p574
sg15
(lp575
sg17
(lp576
sg19
(lp577
sg21
I0
sbasg148
(lp578
g560
ag567
ag574
asg21
I0
sg150
S'887'
p579
sba(iArchitecture
Cluster
p580
(dp581
g7
(lp582
(iArchitecture
Entity
p583
(dp584
g11
(lp585
sg13
S'android.location.FusedBatchOptions'
p586
sg15
(lp587
sg17
(lp588
sg19
(lp589
sg21
I0
sba(iArchitecture
Entity
p590
(dp591
g11
(lp592
sg13
S'android.location.FusedBatchOptions$1'
p593
sg15
(lp594
sg17
(lp595
sg19
(lp596
sg21
I0
sba(iArchitecture
Entity
p597
(dp598
g11
(lp599
sg13
S'android.location.FusedBatchOptions$BatchFlags'
p600
sg15
(lp601
sg17
(lp602
sg19
(lp603
sg21
I0
sba(iArchitecture
Entity
p604
(dp605
g11
(lp606
sg13
S'android.location.FusedBatchOptions$SourceTechnologies'
p607
sg15
(lp608
sg17
(lp609
sg19
(lp610
sg21
I0
sbasg148
(lp611
g586
ag593
ag600
ag607
asg21
I0
sg150
S'888'
p612
sba(iArchitecture
Cluster
p613
(dp614
g7
(lp615
(iArchitecture
Entity
p616
(dp617
g11
(lp618
sg13
S'android.os.Handler'
p619
sg15
(lp620
sg17
(lp621
sg19
(lp622
sg21
I0
sba(iArchitecture
Entity
p623
(dp624
g11
(lp625
sg13
S'android.os.Handler$BlockingRunnable'
p626
sg15
(lp627
sg17
(lp628
sg19
(lp629
sg21
I0
sba(iArchitecture
Entity
p630
(dp631
g11
(lp632
sg13
S'android.os.Handler$Callback'
p633
sg15
(lp634
sg17
(lp635
sg19
(lp636
sg21
I0
sba(iArchitecture
Entity
p637
(dp638
g11
(lp639
sg13
S'android.os.Handler$MessengerImpl'
p640
sg15
(lp641
sg17
(lp642
sg19
(lp643
sg21
I0
sbasg148
(lp644
g619
ag626
ag633
ag640
asg21
I0
sg150
S'889'
p645
sba(iArchitecture
Cluster
p646
(dp647
g7
(lp648
(iArchitecture
Entity
p649
(dp650
g11
(lp651
sg13
S'com.android.internal.widget.ResolverDrawerLayout'
p652
sg15
(lp653
sg17
(lp654
sg19
(lp655
sg21
I0
sba(iArchitecture
Entity
p656
(dp657
g11
(lp658
sg13
S'com.android.internal.widget.ResolverDrawerLayout$1'
p659
sg15
(lp660
sg17
(lp661
sg19
(lp662
sg21
I0
sba(iArchitecture
Entity
p663
(dp664
g11
(lp665
sg13
S'com.android.internal.widget.ResolverDrawerLayout$LayoutParams'
p666
sg15
(lp667
sg17
(lp668
sg19
(lp669
sg21
I0
sba(iArchitecture
Entity
p670
(dp671
g11
(lp672
sg13
S'com.android.internal.widget.ResolverDrawerLayout$OnDismissedListener'
p673
sg15
(lp674
sg17
(lp675
sg19
(lp676
sg21
I0
sba(iArchitecture
Entity
p677
(dp678
g11
(lp679
sg13
S'com.android.internal.widget.ResolverDrawerLayout$RunOnDismissedListener'
p680
sg15
(lp681
sg17
(lp682
sg19
(lp683
sg21
I0
sba(iArchitecture
Entity
p684
(dp685
g11
(lp686
sg13
S'com.android.internal.widget.ResolverDrawerLayout$SavedState'
p687
sg15
(lp688
sg17
(lp689
sg19
(lp690
sg21
I0
sba(iArchitecture
Entity
p691
(dp692
g11
(lp693
sg13
S'com.android.internal.widget.ResolverDrawerLayout$SavedState$1'
p694
sg15
(lp695
sg17
(lp696
sg19
(lp697
sg21
I0
sbasg148
(lp698
g652
ag659
ag666
ag673
ag680
ag687
ag694
asg21
I0
sg150
S'988'
p699
sbasS'target_sub'
p700
S'88'
p701
sg148
(lp702
sS'is_component_arch'
p703
I01
sg150
S'6.0.0_r1'
p704
sba.