(lp0
(iArchitecture
Architecture
p1
(dp2
S'clusters'
p3
(lp4
(iArchitecture
Cluster
p5
(dp6
S'entities'
p7
(lp8
(iArchitecture
Entity
p9
(dp10
S'issue_ids'
p11
(lp12
sS'name'
p13
S'android.view.ViewDebug'
p14
sS'descs'
p15
(lp16
sS'labels'
p17
(lp18
sS'titles'
p19
(lp20
sS'change'
p21
I0
sba(iArchitecture
Entity
p22
(dp23
g11
(lp24
sg13
S'android.view.ViewDebug$1'
p25
sg15
(lp26
sg17
(lp27
sg19
(lp28
sg21
I0
sba(iArchitecture
Entity
p29
(dp30
g11
(lp31
sg13
S'android.view.ViewDebug$10'
p32
sg15
(lp33
sg17
(lp34
sg19
(lp35
sg21
I0
sba(iArchitecture
Entity
p36
(dp37
g11
(lp38
sg13
S'android.view.ViewDebug$2'
p39
sg15
(lp40
sg17
(lp41
sg19
(lp42
sg21
I0
sba(iArchitecture
Entity
p43
(dp44
g11
(lp45
sg13
S'android.view.ViewDebug$3'
p46
sg15
(lp47
sg17
(lp48
sg19
(lp49
sg21
I0
sba(iArchitecture
Entity
p50
(dp51
g11
(lp52
sg13
S'android.view.ViewDebug$4'
p53
sg15
(lp54
sg17
(lp55
sg19
(lp56
sg21
I0
sba(iArchitecture
Entity
p57
(dp58
g11
(lp59
sg13
S'android.view.ViewDebug$5'
p60
sg15
(lp61
sg17
(lp62
sg19
(lp63
sg21
I0
sba(iArchitecture
Entity
p64
(dp65
g11
(lp66
sg13
S'android.view.ViewDebug$6'
p67
sg15
(lp68
sg17
(lp69
sg19
(lp70
sg21
I0
sba(iArchitecture
Entity
p71
(dp72
g11
(lp73
sg13
S'android.view.ViewDebug$7'
p74
sg15
(lp75
sg17
(lp76
sg19
(lp77
sg21
I0
sba(iArchitecture
Entity
p78
(dp79
g11
(lp80
sg13
S'android.view.ViewDebug$8'
p81
sg15
(lp82
sg17
(lp83
sg19
(lp84
sg21
I0
sba(iArchitecture
Entity
p85
(dp86
g11
(lp87
sg13
S'android.view.ViewDebug$9'
p88
sg15
(lp89
sg17
(lp90
sg19
(lp91
sg21
I0
sba(iArchitecture
Entity
p92
(dp93
g11
(lp94
sg13
S'android.view.ViewDebug$CapturedViewProperty'
p95
sg15
(lp96
sg17
(lp97
sg19
(lp98
sg21
I0
sba(iArchitecture
Entity
p99
(dp100
g11
(lp101
sg13
S'android.view.ViewDebug$ExportedProperty'
p102
sg15
(lp103
sg17
(lp104
sg19
(lp105
sg21
I0
sba(iArchitecture
Entity
p106
(dp107
g11
(lp108
sg13
S'android.view.ViewDebug$FlagToString'
p109
sg15
(lp110
sg17
(lp111
sg19
(lp112
sg21
I0
sba(iArchitecture
Entity
p113
(dp114
g11
(lp115
sg13
S'android.view.ViewDebug$HierarchyHandler'
p116
sg15
(lp117
sg17
(lp118
sg19
(lp119
sg21
I0
sba(iArchitecture
Entity
p120
(dp121
g11
(lp122
sg13
S'android.view.ViewDebug$HierarchyTraceType'
p123
sg15
(lp124
sg17
(lp125
sg19
(lp126
sg21
I0
sba(iArchitecture
Entity
p127
(dp128
g11
(lp129
sg13
S'android.view.ViewDebug$IntToString'
p130
sg15
(lp131
sg17
(lp132
sg19
(lp133
sg21
I0
sba(iArchitecture
Entity
p134
(dp135
g11
(lp136
sg13
S'android.view.ViewDebug$RecyclerTraceType'
p137
sg15
(lp138
sg17
(lp139
sg19
(lp140
sg21
I0
sba(iArchitecture
Entity
p141
(dp142
g11
(lp143
sg13
S'android.view.ViewDebug$ViewOperation'
p144
sg15
(lp145
sg17
(lp146
sg19
(lp147
sg21
I0
sbasS'classes'
p148
(lp149
g14
ag25
ag32
ag39
ag46
ag53
ag60
ag67
ag74
ag81
ag88
ag95
ag102
ag109
ag116
ag123
ag130
ag137
ag144
asg21
I0
sS'label'
p150
S'1093'
p151
sba(iArchitecture
Cluster
p152
(dp153
g7
(lp154
(iArchitecture
Entity
p155
(dp156
g11
(lp157
sg13
S'android.view.ContextMenu'
p158
sg15
(lp159
sg17
(lp160
sg19
(lp161
sg21
I0
sba(iArchitecture
Entity
p162
(dp163
g11
(lp164
sg13
S'android.view.ContextMenu$ContextMenuInfo'
p165
sg15
(lp166
sg17
(lp167
sg19
(lp168
sg21
I0
sba(iArchitecture
Entity
p169
(dp170
g11
(lp171
sg13
S'android.view.SubMenu'
p172
sg15
(lp173
sg17
(lp174
sg19
(lp175
sg21
I0
sba(iArchitecture
Entity
p176
(dp177
g11
(lp178
sg13
S'com.android.internal.view.menu.MenuDialogHelper'
p179
sg15
(lp180
sg17
(lp181
sg19
(lp182
sg21
I0
sba(iArchitecture
Entity
p183
(dp184
g11
(lp185
sg13
S'com.android.internal.view.menu.MenuView'
p186
sg15
(lp187
sg17
(lp188
sg19
(lp189
sg21
I0
sba(iArchitecture
Entity
p190
(dp191
g11
(lp192
sg13
S'com.android.internal.view.menu.MenuView$ItemView'
p193
sg15
(lp194
sg17
(lp195
sg19
(lp196
sg21
I0
sba(iArchitecture
Entity
p197
(dp198
g11
(lp199
sg13
S'com.android.internal.view.menu.SubMenuBuilder'
p200
sg15
(lp201
sg17
(lp202
sg19
(lp203
sg21
I0
sbasg148
(lp204
g158
ag165
ag172
ag179
ag186
ag193
ag200
asg21
I0
sg150
S'1193'
p205
sba(iArchitecture
Cluster
p206
(dp207
g7
(lp208
(iArchitecture
Entity
p209
(dp210
g11
(lp211
sg13
S'android.net.MobileLinkQualityInfo'
p212
sg15
(lp213
sg17
(lp214
sg19
(lp215
sg21
I0
sbasg148
(lp216
g212
asg21
I0
sg150
S'193'
p217
sba(iArchitecture
Cluster
p218
(dp219
g7
(lp220
(iArchitecture
Entity
p221
(dp222
g11
(lp223
sg13
S'android.telephony.Rlog'
p224
sg15
(lp225
sg17
(lp226
sg19
(lp227
sg21
I0
sbasg148
(lp228
g224
asg21
I0
sg150
S'293'
p229
sba(iArchitecture
Cluster
p230
(dp231
g7
(lp232
(iArchitecture
Entity
p233
(dp234
g11
(lp235
sg13
S'android.widget.HeaderViewListAdapter'
p236
sg15
(lp237
sg17
(lp238
sg19
(lp239
sg21
I0
sbasg148
(lp240
g236
asg21
I0
sg150
S'393'
p241
sba(iArchitecture
Cluster
p242
(dp243
g7
(lp244
(iArchitecture
Entity
p245
(dp246
g11
(lp247
sg13
S'android.graphics.drawable.RippleDrawable'
p248
sg15
(lp249
sg17
(lp250
sg19
(lp251
sg21
I0
sba(iArchitecture
Entity
p252
(dp253
g11
(lp254
sg13
S'android.graphics.drawable.RippleDrawable$RippleState'
p255
sg15
(lp256
sg17
(lp257
sg19
(lp258
sg21
I0
sbasg148
(lp259
g248
ag255
asg21
I0
sg150
S'493'
p260
sba(iArchitecture
Cluster
p261
(dp262
g7
(lp263
(iArchitecture
Entity
p264
(dp265
g11
(lp266
sg13
S'com.android.server.tv.PersistentDataStore'
p267
sg15
(lp268
sg17
(lp269
sg19
(lp270
sg21
I0
sba(iArchitecture
Entity
p271
(dp272
g11
(lp273
sg13
S'com.android.server.tv.PersistentDataStore$1'
p274
sg15
(lp275
sg17
(lp276
sg19
(lp277
sg21
I0
sbasg148
(lp278
g267
ag274
asg21
I0
sg150
S'593'
p279
sba(iArchitecture
Cluster
p280
(dp281
g7
(lp282
(iArchitecture
Entity
p283
(dp284
g11
(lp285
sg13
S'android.net.NetworkPolicy'
p286
sg15
(lp287
sg17
(lp288
sg19
(lp289
sg21
I0
sba(iArchitecture
Entity
p290
(dp291
g11
(lp292
sg13
S'android.net.NetworkPolicy$1'
p293
sg15
(lp294
sg17
(lp295
sg19
(lp296
sg21
I0
sbasg148
(lp297
g286
ag293
asg21
I0
sg150
S'693'
p298
sba(iArchitecture
Cluster
p299
(dp300
g7
(lp301
(iArchitecture
Entity
p302
(dp303
g11
(lp304
sg13
S'android.text.BidiFormatter'
p305
sg15
(lp306
sg17
(lp307
sg19
(lp308
sg21
I0
sba(iArchitecture
Entity
p309
(dp310
g11
(lp311
sg13
S'android.text.BidiFormatter$Builder'
p312
sg15
(lp313
sg17
(lp314
sg19
(lp315
sg21
I0
sba(iArchitecture
Entity
p316
(dp317
g11
(lp318
sg13
S'android.text.BidiFormatter$DirectionalityEstimator'
p319
sg15
(lp320
sg17
(lp321
sg19
(lp322
sg21
I0
sbasg148
(lp323
g305
ag312
ag319
asg21
I0
sg150
S'793'
p324
sba(iArchitecture
Cluster
p325
(dp326
g7
(lp327
(iArchitecture
Entity
p328
(dp329
g11
(lp330
sg13
S'com.android.internal.app.HeavyWeightSwitcherActivity'
p331
sg15
(lp332
sg17
(lp333
sg19
(lp334
sg21
I0
sba(iArchitecture
Entity
p335
(dp336
g11
(lp337
sg13
S'com.android.internal.app.HeavyWeightSwitcherActivity$1'
p338
sg15
(lp339
sg17
(lp340
sg19
(lp341
sg21
I0
sba(iArchitecture
Entity
p342
(dp343
g11
(lp344
sg13
S'com.android.internal.app.HeavyWeightSwitcherActivity$2'
p345
sg15
(lp346
sg17
(lp347
sg19
(lp348
sg21
I0
sba(iArchitecture
Entity
p349
(dp350
g11
(lp351
sg13
S'com.android.internal.app.HeavyWeightSwitcherActivity$3'
p352
sg15
(lp353
sg17
(lp354
sg19
(lp355
sg21
I0
sbasg148
(lp356
g331
ag338
ag345
ag352
asg21
I0
sg150
S'893'
p357
sba(iArchitecture
Cluster
p358
(dp359
g7
(lp360
(iArchitecture
Entity
p361
(dp362
g11
(lp363
sg13
S'com.android.internal.os.WifiPowerEstimator'
p364
sg15
(lp365
sg17
(lp366
sg19
(lp367
sg21
I0
sbasg148
(lp368
g364
asg21
I0
sg150
S'93'
p369
sba(iArchitecture
Cluster
p370
(dp371
g7
(lp372
(iArchitecture
Entity
p373
(dp374
g11
(lp375
sg13
S'com.android.server.voiceinteraction.VoiceInteractionManagerService'
p376
sg15
(lp377
sg17
(lp378
sg19
(lp379
sg21
I0
sba(iArchitecture
Entity
p380
(dp381
g11
(lp382
sg13
S'com.android.server.voiceinteraction.VoiceInteractionManagerService$1'
p383
sg15
(lp384
sg17
(lp385
sg19
(lp386
sg21
I0
sba(iArchitecture
Entity
p387
(dp388
g11
(lp389
sg13
S'com.android.server.voiceinteraction.VoiceInteractionManagerService$VoiceInteractionManagerServiceStub'
p390
sg15
(lp391
sg17
(lp392
sg19
(lp393
sg21
I0
sba(iArchitecture
Entity
p394
(dp395
g11
(lp396
sg13
S'com.android.server.voiceinteraction.VoiceInteractionManagerService$VoiceInteractionManagerServiceStub$1'
p397
sg15
(lp398
sg17
(lp399
sg19
(lp400
sg21
I0
sba(iArchitecture
Entity
p401
(dp402
g11
(lp403
sg13
S'com.android.server.voiceinteraction.VoiceInteractionManagerService$VoiceInteractionManagerServiceStub$SettingsObserver'
p404
sg15
(lp405
sg17
(lp406
sg19
(lp407
sg21
I0
sbasg148
(lp408
g376
ag383
ag390
ag397
ag404
asg21
I0
sg150
S'930'
p409
sba(iArchitecture
Cluster
p410
(dp411
g7
(lp412
(iArchitecture
Entity
p413
(dp414
g11
(lp415
sg13
S'android.media.projection.MediaProjection'
p416
sg15
(lp417
sg17
(lp418
sg19
(lp419
sg21
I0
sba(iArchitecture
Entity
p420
(dp421
g11
(lp422
sg13
S'android.media.projection.MediaProjection$Callback'
p423
sg15
(lp424
sg17
(lp425
sg19
(lp426
sg21
I0
sba(iArchitecture
Entity
p427
(dp428
g11
(lp429
sg13
S'android.media.projection.MediaProjection$CallbackRecord'
p430
sg15
(lp431
sg17
(lp432
sg19
(lp433
sg21
I0
sba(iArchitecture
Entity
p434
(dp435
g11
(lp436
sg13
S'android.media.projection.MediaProjection$CallbackRecord$1'
p437
sg15
(lp438
sg17
(lp439
sg19
(lp440
sg21
I0
sba(iArchitecture
Entity
p441
(dp442
g11
(lp443
sg13
S'android.media.projection.MediaProjection$MediaProjectionCallback'
p444
sg15
(lp445
sg17
(lp446
sg19
(lp447
sg21
I0
sbasg148
(lp448
g416
ag423
ag430
ag437
ag444
asg21
I0
sg150
S'931'
p449
sba(iArchitecture
Cluster
p450
(dp451
g7
(lp452
(iArchitecture
Entity
p453
(dp454
g11
(lp455
sg13
S'com.android.server.policy.StatusBarController'
p456
sg15
(lp457
sg17
(lp458
sg19
(lp459
sg21
I0
sba(iArchitecture
Entity
p460
(dp461
g11
(lp462
sg13
S'com.android.server.policy.StatusBarController$1'
p463
sg15
(lp464
sg17
(lp465
sg19
(lp466
sg21
I0
sba(iArchitecture
Entity
p467
(dp468
g11
(lp469
sg13
S'com.android.server.policy.StatusBarController$1$1'
p470
sg15
(lp471
sg17
(lp472
sg19
(lp473
sg21
I0
sba(iArchitecture
Entity
p474
(dp475
g11
(lp476
sg13
S'com.android.server.policy.StatusBarController$1$2'
p477
sg15
(lp478
sg17
(lp479
sg19
(lp480
sg21
I0
sba(iArchitecture
Entity
p481
(dp482
g11
(lp483
sg13
S'com.android.server.policy.StatusBarController$1$3'
p484
sg15
(lp485
sg17
(lp486
sg19
(lp487
sg21
I0
sbasg148
(lp488
g456
ag463
ag470
ag477
ag484
asg21
I0
sg150
S'932'
p489
sba(iArchitecture
Cluster
p490
(dp491
g7
(lp492
(iArchitecture
Entity
p493
(dp494
g11
(lp495
sg13
S'android.content.pm.LauncherApps'
p496
sg15
(lp497
sg17
(lp498
sg19
(lp499
sg21
I0
sba(iArchitecture
Entity
p500
(dp501
g11
(lp502
sg13
S'android.content.pm.LauncherApps$1'
p503
sg15
(lp504
sg17
(lp505
sg19
(lp506
sg21
I0
sba(iArchitecture
Entity
p507
(dp508
g11
(lp509
sg13
S'android.content.pm.LauncherApps$Callback'
p510
sg15
(lp511
sg17
(lp512
sg19
(lp513
sg21
I0
sba(iArchitecture
Entity
p514
(dp515
g11
(lp516
sg13
S'android.content.pm.LauncherApps$CallbackMessageHandler'
p517
sg15
(lp518
sg17
(lp519
sg19
(lp520
sg21
I0
sba(iArchitecture
Entity
p521
(dp522
g11
(lp523
sg13
S'android.content.pm.LauncherApps$CallbackMessageHandler$CallbackInfo'
p524
sg15
(lp525
sg17
(lp526
sg19
(lp527
sg21
I0
sbasg148
(lp528
g496
ag503
ag510
ag517
ag524
asg21
I0
sg150
S'933'
p529
sba(iArchitecture
Cluster
p530
(dp531
g7
(lp532
(iArchitecture
Entity
p533
(dp534
g11
(lp535
sg13
S'android.graphics.Bitmap'
p536
sg15
(lp537
sg17
(lp538
sg19
(lp539
sg21
I0
sba(iArchitecture
Entity
p540
(dp541
g11
(lp542
sg13
S'android.graphics.Bitmap$1'
p543
sg15
(lp544
sg17
(lp545
sg19
(lp546
sg21
I0
sba(iArchitecture
Entity
p547
(dp548
g11
(lp549
sg13
S'android.graphics.Bitmap$BitmapFinalizer'
p550
sg15
(lp551
sg17
(lp552
sg19
(lp553
sg21
I0
sba(iArchitecture
Entity
p554
(dp555
g11
(lp556
sg13
S'android.graphics.Bitmap$CompressFormat'
p557
sg15
(lp558
sg17
(lp559
sg19
(lp560
sg21
I0
sba(iArchitecture
Entity
p561
(dp562
g11
(lp563
sg13
S'android.graphics.Bitmap$Config'
p564
sg15
(lp565
sg17
(lp566
sg19
(lp567
sg21
I0
sbasg148
(lp568
g536
ag543
ag550
ag557
ag564
asg21
I0
sg150
S'934'
p569
sba(iArchitecture
Cluster
p570
(dp571
g7
(lp572
(iArchitecture
Entity
p573
(dp574
g11
(lp575
sg13
S'android.widget.RadialTimePickerView'
p576
sg15
(lp577
sg17
(lp578
sg19
(lp579
sg21
I0
sba(iArchitecture
Entity
p580
(dp581
g11
(lp582
sg13
S'android.widget.RadialTimePickerView$IntHolder'
p583
sg15
(lp584
sg17
(lp585
sg19
(lp586
sg21
I0
sba(iArchitecture
Entity
p587
(dp588
g11
(lp589
sg13
S'android.widget.RadialTimePickerView$InvalidateUpdateListener'
p590
sg15
(lp591
sg17
(lp592
sg19
(lp593
sg21
I0
sba(iArchitecture
Entity
p594
(dp595
g11
(lp596
sg13
S'android.widget.RadialTimePickerView$OnValueSelectedListener'
p597
sg15
(lp598
sg17
(lp599
sg19
(lp600
sg21
I0
sba(iArchitecture
Entity
p601
(dp602
g11
(lp603
sg13
S'android.widget.RadialTimePickerView$RadialPickerTouchHelper'
p604
sg15
(lp605
sg17
(lp606
sg19
(lp607
sg21
I0
sbasg148
(lp608
g576
ag583
ag590
ag597
ag604
asg21
I0
sg150
S'935'
p609
sba(iArchitecture
Cluster
p610
(dp611
g7
(lp612
(iArchitecture
Entity
p613
(dp614
g11
(lp615
sg13
S'android.graphics.pdf.PdfDocument'
p616
sg15
(lp617
sg17
(lp618
sg19
(lp619
sg21
I0
sba(iArchitecture
Entity
p620
(dp621
g11
(lp622
sg13
S'android.graphics.pdf.PdfDocument$Page'
p623
sg15
(lp624
sg17
(lp625
sg19
(lp626
sg21
I0
sba(iArchitecture
Entity
p627
(dp628
g11
(lp629
sg13
S'android.graphics.pdf.PdfDocument$PageInfo'
p630
sg15
(lp631
sg17
(lp632
sg19
(lp633
sg21
I0
sba(iArchitecture
Entity
p634
(dp635
g11
(lp636
sg13
S'android.graphics.pdf.PdfDocument$PageInfo$Builder'
p637
sg15
(lp638
sg17
(lp639
sg19
(lp640
sg21
I0
sba(iArchitecture
Entity
p641
(dp642
g11
(lp643
sg13
S'android.graphics.pdf.PdfDocument$PdfCanvas'
p644
sg15
(lp645
sg17
(lp646
sg19
(lp647
sg21
I0
sbasg148
(lp648
g616
ag623
ag630
ag637
ag644
asg21
I0
sg150
S'936'
p649
sba(iArchitecture
Cluster
p650
(dp651
g7
(lp652
(iArchitecture
Entity
p653
(dp654
g11
(lp655
sg13
S'android.renderscript.ProgramStore'
p656
sg15
(lp657
sg17
(lp658
sg19
(lp659
sg21
I0
sba(iArchitecture
Entity
p660
(dp661
g11
(lp662
sg13
S'android.renderscript.ProgramStore$BlendDstFunc'
p663
sg15
(lp664
sg17
(lp665
sg19
(lp666
sg21
I0
sba(iArchitecture
Entity
p667
(dp668
g11
(lp669
sg13
S'android.renderscript.ProgramStore$BlendSrcFunc'
p670
sg15
(lp671
sg17
(lp672
sg19
(lp673
sg21
I0
sba(iArchitecture
Entity
p674
(dp675
g11
(lp676
sg13
S'android.renderscript.ProgramStore$Builder'
p677
sg15
(lp678
sg17
(lp679
sg19
(lp680
sg21
I0
sba(iArchitecture
Entity
p681
(dp682
g11
(lp683
sg13
S'android.renderscript.ProgramStore$DepthFunc'
p684
sg15
(lp685
sg17
(lp686
sg19
(lp687
sg21
I0
sbasg148
(lp688
g656
ag663
ag670
ag677
ag684
asg21
I0
sg150
S'937'
p689
sba(iArchitecture
Cluster
p690
(dp691
g7
(lp692
(iArchitecture
Entity
p693
(dp694
g11
(lp695
sg13
S'com.android.internal.util.FileRotator'
p696
sg15
(lp697
sg17
(lp698
sg19
(lp699
sg21
I0
sba(iArchitecture
Entity
p700
(dp701
g11
(lp702
sg13
S'com.android.internal.util.FileRotator$1'
p703
sg15
(lp704
sg17
(lp705
sg19
(lp706
sg21
I0
sba(iArchitecture
Entity
p707
(dp708
g11
(lp709
sg13
S'com.android.internal.util.FileRotator$FileInfo'
p710
sg15
(lp711
sg17
(lp712
sg19
(lp713
sg21
I0
sba(iArchitecture
Entity
p714
(dp715
g11
(lp716
sg13
S'com.android.internal.util.FileRotator$Reader'
p717
sg15
(lp718
sg17
(lp719
sg19
(lp720
sg21
I0
sba(iArchitecture
Entity
p721
(dp722
g11
(lp723
sg13
S'com.android.internal.util.FileRotator$Rewriter'
p724
sg15
(lp725
sg17
(lp726
sg19
(lp727
sg21
I0
sba(iArchitecture
Entity
p728
(dp729
g11
(lp730
sg13
S'com.android.internal.util.FileRotator$Writer'
p731
sg15
(lp732
sg17
(lp733
sg19
(lp734
sg21
I0
sbasg148
(lp735
g696
ag703
ag710
ag717
ag724
ag731
asg21
I0
sg150
S'938'
p736
sba(iArchitecture
Cluster
p737
(dp738
g7
(lp739
(iArchitecture
Entity
p740
(dp741
g11
(lp742
sg13
S'android.view.WindowId'
p743
sg15
(lp744
sg17
(lp745
sg19
(lp746
sg21
I0
sba(iArchitecture
Entity
p747
(dp748
g11
(lp749
sg13
S'android.view.WindowId$1'
p750
sg15
(lp751
sg17
(lp752
sg19
(lp753
sg21
I0
sba(iArchitecture
Entity
p754
(dp755
g11
(lp756
sg13
S'android.view.WindowId$FocusObserver'
p757
sg15
(lp758
sg17
(lp759
sg19
(lp760
sg21
I0
sba(iArchitecture
Entity
p761
(dp762
g11
(lp763
sg13
S'android.view.WindowId$FocusObserver$1'
p764
sg15
(lp765
sg17
(lp766
sg19
(lp767
sg21
I0
sba(iArchitecture
Entity
p768
(dp769
g11
(lp770
sg13
S'android.view.WindowId$FocusObserver$H'
p771
sg15
(lp772
sg17
(lp773
sg19
(lp774
sg21
I0
sbasg148
(lp775
g743
ag750
ag757
ag764
ag771
asg21
I0
sg150
S'939'
p776
sba(iArchitecture
Cluster
p777
(dp778
g7
(lp779
(iArchitecture
Entity
p780
(dp781
g11
(lp782
sg13
S'com.android.server.usb.UsbPortManager'
p783
sg15
(lp784
sg17
(lp785
sg19
(lp786
sg21
I0
sba(iArchitecture
Entity
p787
(dp788
g11
(lp789
sg13
S'com.android.server.usb.UsbPortManager$1'
p790
sg15
(lp791
sg17
(lp792
sg19
(lp793
sg21
I0
sba(iArchitecture
Entity
p794
(dp795
g11
(lp796
sg13
S'com.android.server.usb.UsbPortManager$2'
p797
sg15
(lp798
sg17
(lp799
sg19
(lp800
sg21
I0
sba(iArchitecture
Entity
p801
(dp802
g11
(lp803
sg13
S'com.android.server.usb.UsbPortManager$3'
p804
sg15
(lp805
sg17
(lp806
sg19
(lp807
sg21
I0
sba(iArchitecture
Entity
p808
(dp809
g11
(lp810
sg13
S'com.android.server.usb.UsbPortManager$PortInfo'
p811
sg15
(lp812
sg17
(lp813
sg19
(lp814
sg21
I0
sba(iArchitecture
Entity
p815
(dp816
g11
(lp817
sg13
S'com.android.server.usb.UsbPortManager$SimulatedPortInfo'
p818
sg15
(lp819
sg17
(lp820
sg19
(lp821
sg21
I0
sbasg148
(lp822
g783
ag790
ag797
ag804
ag811
ag818
asg21
I0
sg150
S'993'
p823
sbasS'target_sub'
p824
S'93'
p825
sg148
(lp826
sS'is_component_arch'
p827
I01
sg150
S'6.0.0_r1'
p828
sba.