(lp0
(iArchitecture
Architecture
p1
(dp2
S'clusters'
p3
(lp4
(iArchitecture
Cluster
p5
(dp6
S'entities'
p7
(lp8
(iArchitecture
Entity
p9
(dp10
S'issue_ids'
p11
(lp12
sS'name'
p13
S'android.filterfw.io.TextGraphReader'
p14
sS'descs'
p15
(lp16
sS'labels'
p17
(lp18
sS'titles'
p19
(lp20
sS'change'
p21
I0
sba(iArchitecture
Entity
p22
(dp23
g11
(lp24
sg13
S'android.filterfw.io.TextGraphReader$AddLibraryCommand'
p25
sg15
(lp26
sg17
(lp27
sg19
(lp28
sg21
I0
sba(iArchitecture
Entity
p29
(dp30
g11
(lp31
sg13
S'android.filterfw.io.TextGraphReader$AllocateFilterCommand'
p32
sg15
(lp33
sg17
(lp34
sg19
(lp35
sg21
I0
sba(iArchitecture
Entity
p36
(dp37
g11
(lp38
sg13
S'android.filterfw.io.TextGraphReader$Command'
p39
sg15
(lp40
sg17
(lp41
sg19
(lp42
sg21
I0
sba(iArchitecture
Entity
p43
(dp44
g11
(lp45
sg13
S'android.filterfw.io.TextGraphReader$ConnectCommand'
p46
sg15
(lp47
sg17
(lp48
sg19
(lp49
sg21
I0
sba(iArchitecture
Entity
p50
(dp51
g11
(lp52
sg13
S'android.filterfw.io.TextGraphReader$ImportPackageCommand'
p53
sg15
(lp54
sg17
(lp55
sg19
(lp56
sg21
I0
sba(iArchitecture
Entity
p57
(dp58
g11
(lp59
sg13
S'android.filterfw.io.TextGraphReader$InitFilterCommand'
p60
sg15
(lp61
sg17
(lp62
sg19
(lp63
sg21
I0
sbasS'classes'
p64
(lp65
g14
ag25
ag32
ag39
ag46
ag53
ag60
asg21
I0
sS'label'
p66
S'1011'
p67
sba(iArchitecture
Cluster
p68
(dp69
g7
(lp70
(iArchitecture
Entity
p71
(dp72
g11
(lp73
sg13
S'android.view.FrameInfo'
p74
sg15
(lp75
sg17
(lp76
sg19
(lp77
sg21
I0
sbasg64
(lp78
g74
asg21
I0
sg66
S'11'
p79
sba(iArchitecture
Cluster
p80
(dp81
g7
(lp82
(iArchitecture
Entity
p83
(dp84
g11
(lp85
sg13
S'android.filterfw.core.GLEnvironment'
p86
sg15
(lp87
sg17
(lp88
sg19
(lp89
sg21
I0
sbasg64
(lp90
g86
asg21
I0
sg66
S'110'
p91
sba(iArchitecture
Cluster
p92
(dp93
g7
(lp94
(iArchitecture
Entity
p95
(dp96
g11
(lp97
sg13
S'android.animation.FloatKeyframeSet'
p98
sg15
(lp99
sg17
(lp100
sg19
(lp101
sg21
I0
sba(iArchitecture
Entity
p102
(dp103
g11
(lp104
sg13
S'android.animation.IntKeyframeSet'
p105
sg15
(lp106
sg17
(lp107
sg19
(lp108
sg21
I0
sbasg64
(lp109
g98
ag105
asg21
I0
sg66
S'1100'
p110
sba(iArchitecture
Cluster
p111
(dp112
g7
(lp113
(iArchitecture
Entity
p114
(dp115
g11
(lp116
sg13
S'android.view.animation.TranslateXAnimation'
p117
sg15
(lp118
sg17
(lp119
sg19
(lp120
sg21
I0
sba(iArchitecture
Entity
p121
(dp122
g11
(lp123
sg13
S'android.view.animation.TranslateYAnimation'
p124
sg15
(lp125
sg17
(lp126
sg19
(lp127
sg21
I0
sbasg64
(lp128
g117
ag124
asg21
I0
sg66
S'1101'
p129
sba(iArchitecture
Cluster
p130
(dp131
g7
(lp132
(iArchitecture
Entity
p133
(dp134
g11
(lp135
sg13
S'android.widget.AdapterViewFlipper'
p136
sg15
(lp137
sg17
(lp138
sg19
(lp139
sg21
I0
sba(iArchitecture
Entity
p140
(dp141
g11
(lp142
sg13
S'android.widget.AdapterViewFlipper$1'
p143
sg15
(lp144
sg17
(lp145
sg19
(lp146
sg21
I0
sba(iArchitecture
Entity
p147
(dp148
g11
(lp149
sg13
S'android.widget.AdapterViewFlipper$2'
p150
sg15
(lp151
sg17
(lp152
sg19
(lp153
sg21
I0
sba(iArchitecture
Entity
p154
(dp155
g11
(lp156
sg13
S'android.widget.ViewFlipper'
p157
sg15
(lp158
sg17
(lp159
sg19
(lp160
sg21
I0
sba(iArchitecture
Entity
p161
(dp162
g11
(lp163
sg13
S'android.widget.ViewFlipper$1'
p164
sg15
(lp165
sg17
(lp166
sg19
(lp167
sg21
I0
sba(iArchitecture
Entity
p168
(dp169
g11
(lp170
sg13
S'android.widget.ViewFlipper$2'
p171
sg15
(lp172
sg17
(lp173
sg19
(lp174
sg21
I0
sbasg64
(lp175
g136
ag143
ag150
ag157
ag164
ag171
asg21
I0
sg66
S'1102'
p176
sba(iArchitecture
Cluster
p177
(dp178
g7
(lp179
(iArchitecture
Entity
p180
(dp181
g11
(lp182
sg13
S'android.telecom.AudioState'
p183
sg15
(lp184
sg17
(lp185
sg19
(lp186
sg21
I0
sba(iArchitecture
Entity
p187
(dp188
g11
(lp189
sg13
S'android.telecom.AudioState$1'
p190
sg15
(lp191
sg17
(lp192
sg19
(lp193
sg21
I0
sba(iArchitecture
Entity
p194
(dp195
g11
(lp196
sg13
S'android.telecom.CallAudioState'
p197
sg15
(lp198
sg17
(lp199
sg19
(lp200
sg21
I0
sba(iArchitecture
Entity
p201
(dp202
g11
(lp203
sg13
S'android.telecom.CallAudioState$1'
p204
sg15
(lp205
sg17
(lp206
sg19
(lp207
sg21
I0
sbasg64
(lp208
g183
ag190
ag197
ag204
asg21
I0
sg66
S'1103'
p209
sba(iArchitecture
Cluster
p210
(dp211
g7
(lp212
(iArchitecture
Entity
p213
(dp214
g11
(lp215
sg13
S'android.widget.OverScroller'
p216
sg15
(lp217
sg17
(lp218
sg19
(lp219
sg21
I0
sba(iArchitecture
Entity
p220
(dp221
g11
(lp222
sg13
S'android.widget.OverScroller$SplineOverScroller'
p223
sg15
(lp224
sg17
(lp225
sg19
(lp226
sg21
I0
sba(iArchitecture
Entity
p227
(dp228
g11
(lp229
sg13
S'android.widget.Scroller'
p230
sg15
(lp231
sg17
(lp232
sg19
(lp233
sg21
I0
sba(iArchitecture
Entity
p234
(dp235
g11
(lp236
sg13
S'android.widget.Scroller$ViscousFluidInterpolator'
p237
sg15
(lp238
sg17
(lp239
sg19
(lp240
sg21
I0
sbasg64
(lp241
g216
ag223
ag230
ag237
asg21
I0
sg66
S'1104'
p242
sba(iArchitecture
Cluster
p243
(dp244
g7
(lp245
(iArchitecture
Entity
p246
(dp247
g11
(lp248
sg13
S'android.filterpacks.ui.SurfaceRenderFilter'
p249
sg15
(lp250
sg17
(lp251
sg19
(lp252
sg21
I0
sba(iArchitecture
Entity
p253
(dp254
g11
(lp255
sg13
S'android.filterpacks.ui.SurfaceTargetFilter'
p256
sg15
(lp257
sg17
(lp258
sg19
(lp259
sg21
I0
sba(iArchitecture
Entity
p260
(dp261
g11
(lp262
sg13
S'android.filterpacks.videosrc.SurfaceTextureTarget'
p263
sg15
(lp264
sg17
(lp265
sg19
(lp266
sg21
I0
sbasg64
(lp267
g249
ag256
ag263
asg21
I0
sg66
S'1105'
p268
sba(iArchitecture
Cluster
p269
(dp270
g7
(lp271
(iArchitecture
Entity
p272
(dp273
g11
(lp274
sg13
S'android.view.InputEventReceiver'
p275
sg15
(lp276
sg17
(lp277
sg19
(lp278
sg21
I0
sba(iArchitecture
Entity
p279
(dp280
g11
(lp281
sg13
S'android.view.InputEventReceiver$Factory'
p282
sg15
(lp283
sg17
(lp284
sg19
(lp285
sg21
I0
sba(iArchitecture
Entity
p286
(dp287
g11
(lp288
sg13
S'android.view.InputEventSender'
p289
sg15
(lp290
sg17
(lp291
sg19
(lp292
sg21
I0
sbasg64
(lp293
g275
ag282
ag289
asg21
I0
sg66
S'1106'
p294
sba(iArchitecture
Cluster
p295
(dp296
g7
(lp297
(iArchitecture
Entity
p298
(dp299
g11
(lp300
sg13
S'android.bluetooth.BluetoothGatt'
p301
sg15
(lp302
sg17
(lp303
sg19
(lp304
sg21
I0
sba(iArchitecture
Entity
p305
(dp306
g11
(lp307
sg13
S'android.bluetooth.BluetoothGatt$1'
p308
sg15
(lp309
sg17
(lp310
sg19
(lp311
sg21
I0
sba(iArchitecture
Entity
p312
(dp313
g11
(lp314
sg13
S'android.bluetooth.BluetoothGattServer'
p315
sg15
(lp316
sg17
(lp317
sg19
(lp318
sg21
I0
sba(iArchitecture
Entity
p319
(dp320
g11
(lp321
sg13
S'android.bluetooth.BluetoothGattServer$1'
p322
sg15
(lp323
sg17
(lp324
sg19
(lp325
sg21
I0
sbasg64
(lp326
g301
ag308
ag315
ag322
asg21
I0
sg66
S'1107'
p327
sba(iArchitecture
Cluster
p328
(dp329
g7
(lp330
(iArchitecture
Entity
p331
(dp332
g11
(lp333
sg13
S'android.view.OrientationEventListener'
p334
sg15
(lp335
sg17
(lp336
sg19
(lp337
sg21
I0
sba(iArchitecture
Entity
p338
(dp339
g11
(lp340
sg13
S'android.view.OrientationEventListener$SensorEventListenerImpl'
p341
sg15
(lp342
sg17
(lp343
sg19
(lp344
sg21
I0
sba(iArchitecture
Entity
p345
(dp346
g11
(lp347
sg13
S'android.view.OrientationListener'
p348
sg15
(lp349
sg17
(lp350
sg19
(lp351
sg21
I0
sba(iArchitecture
Entity
p352
(dp353
g11
(lp354
sg13
S'android.view.OrientationListener$OrientationEventListenerInternal'
p355
sg15
(lp356
sg17
(lp357
sg19
(lp358
sg21
I0
sbasg64
(lp359
g334
ag341
ag348
ag355
asg21
I0
sg66
S'1108'
p360
sba(iArchitecture
Cluster
p361
(dp362
g7
(lp363
(iArchitecture
Entity
p364
(dp365
g11
(lp366
sg13
S'android.animation.ObjectAnimator'
p367
sg15
(lp368
sg17
(lp369
sg19
(lp370
sg21
I0
sba(iArchitecture
Entity
p371
(dp372
g11
(lp373
sg13
S'android.animation.PropertyValuesHolder'
p374
sg15
(lp375
sg17
(lp376
sg19
(lp377
sg21
I0
sba(iArchitecture
Entity
p378
(dp379
g11
(lp380
sg13
S'android.animation.PropertyValuesHolder$FloatPropertyValuesHolder'
p381
sg15
(lp382
sg17
(lp383
sg19
(lp384
sg21
I0
sba(iArchitecture
Entity
p385
(dp386
g11
(lp387
sg13
S'android.animation.PropertyValuesHolder$IntPropertyValuesHolder'
p388
sg15
(lp389
sg17
(lp390
sg19
(lp391
sg21
I0
sba(iArchitecture
Entity
p392
(dp393
g11
(lp394
sg13
S'android.animation.PropertyValuesHolder$MultiFloatValuesHolder'
p395
sg15
(lp396
sg17
(lp397
sg19
(lp398
sg21
I0
sba(iArchitecture
Entity
p399
(dp400
g11
(lp401
sg13
S'android.animation.PropertyValuesHolder$MultiIntValuesHolder'
p402
sg15
(lp403
sg17
(lp404
sg19
(lp405
sg21
I0
sba(iArchitecture
Entity
p406
(dp407
g11
(lp408
sg13
S'android.animation.PropertyValuesHolder$PointFToFloatArray'
p409
sg15
(lp410
sg17
(lp411
sg19
(lp412
sg21
I0
sba(iArchitecture
Entity
p413
(dp414
g11
(lp415
sg13
S'android.animation.PropertyValuesHolder$PointFToIntArray'
p416
sg15
(lp417
sg17
(lp418
sg19
(lp419
sg21
I0
sbasg64
(lp420
g367
ag374
ag381
ag388
ag395
ag402
ag409
ag416
asg21
I0
sg66
S'1109'
p421
sba(iArchitecture
Cluster
p422
(dp423
g7
(lp424
(iArchitecture
Entity
p425
(dp426
g11
(lp427
sg13
S'android.media.SyncParams'
p428
sg15
(lp429
sg17
(lp430
sg19
(lp431
sg21
I0
sbasg64
(lp432
g428
asg21
I0
sg66
S'111'
p433
sba(iArchitecture
Cluster
p434
(dp435
g7
(lp436
(iArchitecture
Entity
p437
(dp438
g11
(lp439
sg13
S'android.renderscript.Byte2'
p440
sg15
(lp441
sg17
(lp442
sg19
(lp443
sg21
I0
sba(iArchitecture
Entity
p444
(dp445
g11
(lp446
sg13
S'android.renderscript.Byte3'
p447
sg15
(lp448
sg17
(lp449
sg19
(lp450
sg21
I0
sba(iArchitecture
Entity
p451
(dp452
g11
(lp453
sg13
S'android.renderscript.Byte4'
p454
sg15
(lp455
sg17
(lp456
sg19
(lp457
sg21
I0
sba(iArchitecture
Entity
p458
(dp459
g11
(lp460
sg13
S'android.renderscript.Double2'
p461
sg15
(lp462
sg17
(lp463
sg19
(lp464
sg21
I0
sba(iArchitecture
Entity
p465
(dp466
g11
(lp467
sg13
S'android.renderscript.Double3'
p468
sg15
(lp469
sg17
(lp470
sg19
(lp471
sg21
I0
sba(iArchitecture
Entity
p472
(dp473
g11
(lp474
sg13
S'android.renderscript.Double4'
p475
sg15
(lp476
sg17
(lp477
sg19
(lp478
sg21
I0
sba(iArchitecture
Entity
p479
(dp480
g11
(lp481
sg13
S'android.renderscript.Float2'
p482
sg15
(lp483
sg17
(lp484
sg19
(lp485
sg21
I0
sba(iArchitecture
Entity
p486
(dp487
g11
(lp488
sg13
S'android.renderscript.Float3'
p489
sg15
(lp490
sg17
(lp491
sg19
(lp492
sg21
I0
sba(iArchitecture
Entity
p493
(dp494
g11
(lp495
sg13
S'android.renderscript.Float4'
p496
sg15
(lp497
sg17
(lp498
sg19
(lp499
sg21
I0
sba(iArchitecture
Entity
p500
(dp501
g11
(lp502
sg13
S'android.renderscript.Int2'
p503
sg15
(lp504
sg17
(lp505
sg19
(lp506
sg21
I0
sba(iArchitecture
Entity
p507
(dp508
g11
(lp509
sg13
S'android.renderscript.Int3'
p510
sg15
(lp511
sg17
(lp512
sg19
(lp513
sg21
I0
sba(iArchitecture
Entity
p514
(dp515
g11
(lp516
sg13
S'android.renderscript.Int4'
p517
sg15
(lp518
sg17
(lp519
sg19
(lp520
sg21
I0
sba(iArchitecture
Entity
p521
(dp522
g11
(lp523
sg13
S'android.renderscript.Long2'
p524
sg15
(lp525
sg17
(lp526
sg19
(lp527
sg21
I0
sba(iArchitecture
Entity
p528
(dp529
g11
(lp530
sg13
S'android.renderscript.Long3'
p531
sg15
(lp532
sg17
(lp533
sg19
(lp534
sg21
I0
sba(iArchitecture
Entity
p535
(dp536
g11
(lp537
sg13
S'android.renderscript.Long4'
p538
sg15
(lp539
sg17
(lp540
sg19
(lp541
sg21
I0
sba(iArchitecture
Entity
p542
(dp543
g11
(lp544
sg13
S'android.renderscript.Short2'
p545
sg15
(lp546
sg17
(lp547
sg19
(lp548
sg21
I0
sba(iArchitecture
Entity
p549
(dp550
g11
(lp551
sg13
S'android.renderscript.Short3'
p552
sg15
(lp553
sg17
(lp554
sg19
(lp555
sg21
I0
sba(iArchitecture
Entity
p556
(dp557
g11
(lp558
sg13
S'android.renderscript.Short4'
p559
sg15
(lp560
sg17
(lp561
sg19
(lp562
sg21
I0
sbasg64
(lp563
g440
ag447
ag454
ag461
ag468
ag475
ag482
ag489
ag496
ag503
ag510
ag517
ag524
ag531
ag538
ag545
ag552
ag559
asg21
I0
sg66
S'1110'
p564
sba(iArchitecture
Cluster
p565
(dp566
g7
(lp567
(iArchitecture
Entity
p568
(dp569
g11
(lp570
sg13
S'android.os.BatteryStats'
p571
sg15
(lp572
sg17
(lp573
sg19
(lp574
sg21
I0
sba(iArchitecture
Entity
p575
(dp576
g11
(lp577
sg13
S'android.os.BatteryStats$1'
p578
sg15
(lp579
sg17
(lp580
sg19
(lp581
sg21
I0
sba(iArchitecture
Entity
p582
(dp583
g11
(lp584
sg13
S'android.os.BatteryStats$BitDescription'
p585
sg15
(lp586
sg17
(lp587
sg19
(lp588
sg21
I0
sba(iArchitecture
Entity
p589
(dp590
g11
(lp591
sg13
S'android.os.BatteryStats$Counter'
p592
sg15
(lp593
sg17
(lp594
sg19
(lp595
sg21
I0
sba(iArchitecture
Entity
p596
(dp597
g11
(lp598
sg13
S'android.os.BatteryStats$DailyItem'
p599
sg15
(lp600
sg17
(lp601
sg19
(lp602
sg21
I0
sba(iArchitecture
Entity
p603
(dp604
g11
(lp605
sg13
S'android.os.BatteryStats$HistoryEventTracker'
p606
sg15
(lp607
sg17
(lp608
sg19
(lp609
sg21
I0
sba(iArchitecture
Entity
p610
(dp611
g11
(lp612
sg13
S'android.os.BatteryStats$HistoryItem'
p613
sg15
(lp614
sg17
(lp615
sg19
(lp616
sg21
I0
sba(iArchitecture
Entity
p617
(dp618
g11
(lp619
sg13
S'android.os.BatteryStats$HistoryPrinter'
p620
sg15
(lp621
sg17
(lp622
sg19
(lp623
sg21
I0
sba(iArchitecture
Entity
p624
(dp625
g11
(lp626
sg13
S'android.os.BatteryStats$HistoryStepDetails'
p627
sg15
(lp628
sg17
(lp629
sg19
(lp630
sg21
I0
sba(iArchitecture
Entity
p631
(dp632
g11
(lp633
sg13
S'android.os.BatteryStats$HistoryTag'
p634
sg15
(lp635
sg17
(lp636
sg19
(lp637
sg21
I0
sba(iArchitecture
Entity
p638
(dp639
g11
(lp640
sg13
S'android.os.BatteryStats$LevelStepTracker'
p641
sg15
(lp642
sg17
(lp643
sg19
(lp644
sg21
I0
sba(iArchitecture
Entity
p645
(dp646
g11
(lp647
sg13
S'android.os.BatteryStats$LongCounter'
p648
sg15
(lp649
sg17
(lp650
sg19
(lp651
sg21
I0
sba(iArchitecture
Entity
p652
(dp653
g11
(lp654
sg13
S'android.os.BatteryStats$PackageChange'
p655
sg15
(lp656
sg17
(lp657
sg19
(lp658
sg21
I0
sba(iArchitecture
Entity
p659
(dp660
g11
(lp661
sg13
S'android.os.BatteryStats$Timer'
p662
sg15
(lp663
sg17
(lp664
sg19
(lp665
sg21
I0
sba(iArchitecture
Entity
p666
(dp667
g11
(lp668
sg13
S'android.os.BatteryStats$TimerEntry'
p669
sg15
(lp670
sg17
(lp671
sg19
(lp672
sg21
I0
sba(iArchitecture
Entity
p673
(dp674
g11
(lp675
sg13
S'android.os.BatteryStats$Uid'
p676
sg15
(lp677
sg17
(lp678
sg19
(lp679
sg21
I0
sba(iArchitecture
Entity
p680
(dp681
g11
(lp682
sg13
S'android.os.BatteryStats$Uid$Pid'
p683
sg15
(lp684
sg17
(lp685
sg19
(lp686
sg21
I0
sba(iArchitecture
Entity
p687
(dp688
g11
(lp689
sg13
S'android.os.BatteryStats$Uid$Pkg'
p690
sg15
(lp691
sg17
(lp692
sg19
(lp693
sg21
I0
sba(iArchitecture
Entity
p694
(dp695
g11
(lp696
sg13
S'android.os.BatteryStats$Uid$Pkg$Serv'
p697
sg15
(lp698
sg17
(lp699
sg19
(lp700
sg21
I0
sba(iArchitecture
Entity
p701
(dp702
g11
(lp703
sg13
S'android.os.BatteryStats$Uid$Proc'
p704
sg15
(lp705
sg17
(lp706
sg19
(lp707
sg21
I0
sba(iArchitecture
Entity
p708
(dp709
g11
(lp710
sg13
S'android.os.BatteryStats$Uid$Proc$ExcessivePower'
p711
sg15
(lp712
sg17
(lp713
sg19
(lp714
sg21
I0
sba(iArchitecture
Entity
p715
(dp716
g11
(lp717
sg13
S'android.os.BatteryStats$Uid$Sensor'
p718
sg15
(lp719
sg17
(lp720
sg19
(lp721
sg21
I0
sba(iArchitecture
Entity
p722
(dp723
g11
(lp724
sg13
S'android.os.BatteryStats$Uid$Wakelock'
p725
sg15
(lp726
sg17
(lp727
sg19
(lp728
sg21
I0
sba(iArchitecture
Entity
p729
(dp730
g11
(lp731
sg13
S'com.android.internal.os.BatteryStatsImpl'
p732
sg15
(lp733
sg17
(lp734
sg19
(lp735
sg21
I0
sba(iArchitecture
Entity
p736
(dp737
g11
(lp738
sg13
S'com.android.internal.os.BatteryStatsImpl$1'
p739
sg15
(lp740
sg17
(lp741
sg19
(lp742
sg21
I0
sba(iArchitecture
Entity
p743
(dp744
g11
(lp745
sg13
S'com.android.internal.os.BatteryStatsImpl$2'
p746
sg15
(lp747
sg17
(lp748
sg19
(lp749
sg21
I0
sba(iArchitecture
Entity
p750
(dp751
g11
(lp752
sg13
S'com.android.internal.os.BatteryStatsImpl$3'
p753
sg15
(lp754
sg17
(lp755
sg19
(lp756
sg21
I0
sba(iArchitecture
Entity
p757
(dp758
g11
(lp759
sg13
S'com.android.internal.os.BatteryStatsImpl$4'
p760
sg15
(lp761
sg17
(lp762
sg19
(lp763
sg21
I0
sba(iArchitecture
Entity
p764
(dp765
g11
(lp766
sg13
S'com.android.internal.os.BatteryStatsImpl$5'
p767
sg15
(lp768
sg17
(lp769
sg19
(lp770
sg21
I0
sba(iArchitecture
Entity
p771
(dp772
g11
(lp773
sg13
S'com.android.internal.os.BatteryStatsImpl$BatchTimer'
p774
sg15
(lp775
sg17
(lp776
sg19
(lp777
sg21
I0
sba(iArchitecture
Entity
p778
(dp779
g11
(lp780
sg13
S'com.android.internal.os.BatteryStatsImpl$BatteryCallback'
p781
sg15
(lp782
sg17
(lp783
sg19
(lp784
sg21
I0
sba(iArchitecture
Entity
p785
(dp786
g11
(lp787
sg13
S'com.android.internal.os.BatteryStatsImpl$Counter'
p788
sg15
(lp789
sg17
(lp790
sg19
(lp791
sg21
I0
sba(iArchitecture
Entity
p792
(dp793
g11
(lp794
sg13
S'com.android.internal.os.BatteryStatsImpl$ExternalStatsSync'
p795
sg15
(lp796
sg17
(lp797
sg19
(lp798
sg21
I0
sba(iArchitecture
Entity
p799
(dp800
g11
(lp801
sg13
S'com.android.internal.os.BatteryStatsImpl$LongSamplingCounter'
p802
sg15
(lp803
sg17
(lp804
sg19
(lp805
sg21
I0
sba(iArchitecture
Entity
p806
(dp807
g11
(lp808
sg13
S'com.android.internal.os.BatteryStatsImpl$MyHandler'
p809
sg15
(lp810
sg17
(lp811
sg19
(lp812
sg21
I0
sba(iArchitecture
Entity
p813
(dp814
g11
(lp815
sg13
S'com.android.internal.os.BatteryStatsImpl$OverflowArrayMap'
p816
sg15
(lp817
sg17
(lp818
sg19
(lp819
sg21
I0
sba(iArchitecture
Entity
p820
(dp821
g11
(lp822
sg13
S'com.android.internal.os.BatteryStatsImpl$SamplingTimer'
p823
sg15
(lp824
sg17
(lp825
sg19
(lp826
sg21
I0
sba(iArchitecture
Entity
p827
(dp828
g11
(lp829
sg13
S'com.android.internal.os.BatteryStatsImpl$StopwatchTimer'
p830
sg15
(lp831
sg17
(lp832
sg19
(lp833
sg21
I0
sba(iArchitecture
Entity
p834
(dp835
g11
(lp836
sg13
S'com.android.internal.os.BatteryStatsImpl$TimeBase'
p837
sg15
(lp838
sg17
(lp839
sg19
(lp840
sg21
I0
sba(iArchitecture
Entity
p841
(dp842
g11
(lp843
sg13
S'com.android.internal.os.BatteryStatsImpl$TimeBaseObs'
p844
sg15
(lp845
sg17
(lp846
sg19
(lp847
sg21
I0
sba(iArchitecture
Entity
p848
(dp849
g11
(lp850
sg13
S'com.android.internal.os.BatteryStatsImpl$Timer'
p851
sg15
(lp852
sg17
(lp853
sg19
(lp854
sg21
I0
sba(iArchitecture
Entity
p855
(dp856
g11
(lp857
sg13
S'com.android.internal.os.BatteryStatsImpl$Uid'
p858
sg15
(lp859
sg17
(lp860
sg19
(lp861
sg21
I0
sba(iArchitecture
Entity
p862
(dp863
g11
(lp864
sg13
S'com.android.internal.os.BatteryStatsImpl$Uid$1'
p865
sg15
(lp866
sg17
(lp867
sg19
(lp868
sg21
I0
sba(iArchitecture
Entity
p869
(dp870
g11
(lp871
sg13
S'com.android.internal.os.BatteryStatsImpl$Uid$2'
p872
sg15
(lp873
sg17
(lp874
sg19
(lp875
sg21
I0
sba(iArchitecture
Entity
p876
(dp877
g11
(lp878
sg13
S'com.android.internal.os.BatteryStatsImpl$Uid$3'
p879
sg15
(lp880
sg17
(lp881
sg19
(lp882
sg21
I0
sba(iArchitecture
Entity
p883
(dp884
g11
(lp885
sg13
S'com.android.internal.os.BatteryStatsImpl$Uid$Pkg'
p886
sg15
(lp887
sg17
(lp888
sg19
(lp889
sg21
I0
sba(iArchitecture
Entity
p890
(dp891
g11
(lp892
sg13
S'com.android.internal.os.BatteryStatsImpl$Uid$Pkg$Serv'
p893
sg15
(lp894
sg17
(lp895
sg19
(lp896
sg21
I0
sba(iArchitecture
Entity
p897
(dp898
g11
(lp899
sg13
S'com.android.internal.os.BatteryStatsImpl$Uid$Proc'
p900
sg15
(lp901
sg17
(lp902
sg19
(lp903
sg21
I0
sba(iArchitecture
Entity
p904
(dp905
g11
(lp906
sg13
S'com.android.internal.os.BatteryStatsImpl$Uid$Sensor'
p907
sg15
(lp908
sg17
(lp909
sg19
(lp910
sg21
I0
sba(iArchitecture
Entity
p911
(dp912
g11
(lp913
sg13
S'com.android.internal.os.BatteryStatsImpl$Uid$Wakelock'
p914
sg15
(lp915
sg17
(lp916
sg19
(lp917
sg21
I0
sbasg64
(lp918
g571
ag578
ag585
ag592
ag599
ag606
ag613
ag620
ag627
ag634
ag641
ag648
ag655
ag662
ag669
ag676
ag683
ag690
ag697
ag704
ag711
ag718
ag725
ag732
ag739
ag746
ag753
ag760
ag767
ag774
ag781
ag788
ag795
ag802
ag809
ag816
ag823
ag830
ag837
ag844
ag851
ag858
ag865
ag872
ag879
ag886
ag893
ag900
ag907
ag914
asg21
I0
sg66
S'1111'
p919
sba(iArchitecture
Cluster
p920
(dp921
g7
(lp922
(iArchitecture
Entity
p923
(dp924
g11
(lp925
sg13
S'android.nfc.cardemulation.HostApduService'
p926
sg15
(lp927
sg17
(lp928
sg19
(lp929
sg21
I0
sba(iArchitecture
Entity
p930
(dp931
g11
(lp932
sg13
S'android.nfc.cardemulation.HostApduService$MsgHandler'
p933
sg15
(lp934
sg17
(lp935
sg19
(lp936
sg21
I0
sba(iArchitecture
Entity
p937
(dp938
g11
(lp939
sg13
S'android.nfc.cardemulation.OffHostApduService'
p940
sg15
(lp941
sg17
(lp942
sg19
(lp943
sg21
I0
sbasg64
(lp944
g926
ag933
ag940
asg21
I0
sg66
S'1112'
p945
sba(iArchitecture
Cluster
p946
(dp947
g7
(lp948
(iArchitecture
Entity
p949
(dp950
g11
(lp951
sg13
S'android.filterfw.core.AsyncRunner'
p952
sg15
(lp953
sg17
(lp954
sg19
(lp955
sg21
I0
sba(iArchitecture
Entity
p956
(dp957
g11
(lp958
sg13
S'android.filterfw.core.AsyncRunner$AsyncRunnerTask'
p959
sg15
(lp960
sg17
(lp961
sg19
(lp962
sg21
I0
sba(iArchitecture
Entity
p963
(dp964
g11
(lp965
sg13
S'android.filterfw.core.AsyncRunner$RunnerResult'
p966
sg15
(lp967
sg17
(lp968
sg19
(lp969
sg21
I0
sba(iArchitecture
Entity
p970
(dp971
g11
(lp972
sg13
S'android.filterfw.core.SyncRunner'
p973
sg15
(lp974
sg17
(lp975
sg19
(lp976
sg21
I0
sba(iArchitecture
Entity
p977
(dp978
g11
(lp979
sg13
S'android.filterfw.core.SyncRunner$1'
p980
sg15
(lp981
sg17
(lp982
sg19
(lp983
sg21
I0
sbasg64
(lp984
g952
ag959
ag966
ag973
ag980
asg21
I0
sg66
S'1113'
p985
sba(iArchitecture
Cluster
p986
(dp987
g7
(lp988
(iArchitecture
Entity
p989
(dp990
g11
(lp991
sg13
S'android.net.dhcp.DhcpAckPacket'
p992
sg15
(lp993
sg17
(lp994
sg19
(lp995
sg21
I0
sba(iArchitecture
Entity
p996
(dp997
g11
(lp998
sg13
S'android.net.dhcp.DhcpDeclinePacket'
p999
sg15
(lp1000
sg17
(lp1001
sg19
(lp1002
sg21
I0
sba(iArchitecture
Entity
p1003
(dp1004
g11
(lp1005
sg13
S'android.net.dhcp.DhcpDiscoverPacket'
p1006
sg15
(lp1007
sg17
(lp1008
sg19
(lp1009
sg21
I0
sba(iArchitecture
Entity
p1010
(dp1011
g11
(lp1012
sg13
S'android.net.dhcp.DhcpInformPacket'
p1013
sg15
(lp1014
sg17
(lp1015
sg19
(lp1016
sg21
I0
sba(iArchitecture
Entity
p1017
(dp1018
g11
(lp1019
sg13
S'android.net.dhcp.DhcpNakPacket'
p1020
sg15
(lp1021
sg17
(lp1022
sg19
(lp1023
sg21
I0
sba(iArchitecture
Entity
p1024
(dp1025
g11
(lp1026
sg13
S'android.net.dhcp.DhcpOfferPacket'
p1027
sg15
(lp1028
sg17
(lp1029
sg19
(lp1030
sg21
I0
sba(iArchitecture
Entity
p1031
(dp1032
g11
(lp1033
sg13
S'android.net.dhcp.DhcpRequestPacket'
p1034
sg15
(lp1035
sg17
(lp1036
sg19
(lp1037
sg21
I0
sbasg64
(lp1038
g992
ag999
ag1006
ag1013
ag1020
ag1027
ag1034
asg21
I0
sg66
S'1114'
p1039
sba(iArchitecture
Cluster
p1040
(dp1041
g7
(lp1042
(iArchitecture
Entity
p1043
(dp1044
g11
(lp1045
sg13
S'com.android.server.location.MockProvider'
p1046
sg15
(lp1047
sg17
(lp1048
sg19
(lp1049
sg21
I0
sba(iArchitecture
Entity
p1050
(dp1051
g11
(lp1052
sg13
S'com.android.server.location.PassiveProvider'
p1053
sg15
(lp1054
sg17
(lp1055
sg19
(lp1056
sg21
I0
sbasg64
(lp1057
g1046
ag1053
asg21
I0
sg66
S'1115'
p1058
sba(iArchitecture
Cluster
p1059
(dp1060
g7
(lp1061
(iArchitecture
Entity
p1062
(dp1063
g11
(lp1064
sg13
S'android.telephony.CellSignalStrengthGsm'
p1065
sg15
(lp1066
sg17
(lp1067
sg19
(lp1068
sg21
I0
sba(iArchitecture
Entity
p1069
(dp1070
g11
(lp1071
sg13
S'android.telephony.CellSignalStrengthGsm$1'
p1072
sg15
(lp1073
sg17
(lp1074
sg19
(lp1075
sg21
I0
sba(iArchitecture
Entity
p1076
(dp1077
g11
(lp1078
sg13
S'android.telephony.CellSignalStrengthWcdma'
p1079
sg15
(lp1080
sg17
(lp1081
sg19
(lp1082
sg21
I0
sba(iArchitecture
Entity
p1083
(dp1084
g11
(lp1085
sg13
S'android.telephony.CellSignalStrengthWcdma$1'
p1086
sg15
(lp1087
sg17
(lp1088
sg19
(lp1089
sg21
I0
sbasg64
(lp1090
g1065
ag1072
ag1079
ag1086
asg21
I0
sg66
S'1116'
p1091
sba(iArchitecture
Cluster
p1092
(dp1093
g7
(lp1094
(iArchitecture
Entity
p1095
(dp1096
g11
(lp1097
sg13
S'android.media.AudioGain'
p1098
sg15
(lp1099
sg17
(lp1100
sg19
(lp1101
sg21
I0
sba(iArchitecture
Entity
p1102
(dp1103
g11
(lp1104
sg13
S'android.media.AudioGainConfig'
p1105
sg15
(lp1106
sg17
(lp1107
sg19
(lp1108
sg21
I0
sbasg64
(lp1109
g1098
ag1105
asg21
I0
sg66
S'1117'
p1110
sba(iArchitecture
Cluster
p1111
(dp1112
g7
(lp1113
(iArchitecture
Entity
p1114
(dp1115
g11
(lp1116
sg13
S'android.transition.ChangeImageTransform'
p1117
sg15
(lp1118
sg17
(lp1119
sg19
(lp1120
sg21
I0
sba(iArchitecture
Entity
p1121
(dp1122
g11
(lp1123
sg13
S'android.transition.ChangeImageTransform$1'
p1124
sg15
(lp1125
sg17
(lp1126
sg19
(lp1127
sg21
I0
sba(iArchitecture
Entity
p1128
(dp1129
g11
(lp1130
sg13
S'android.transition.ChangeImageTransform$2'
p1131
sg15
(lp1132
sg17
(lp1133
sg19
(lp1134
sg21
I0
sba(iArchitecture
Entity
p1135
(dp1136
g11
(lp1137
sg13
S'android.transition.TransitionUtils'
p1138
sg15
(lp1139
sg17
(lp1140
sg19
(lp1141
sg21
I0
sba(iArchitecture
Entity
p1142
(dp1143
g11
(lp1144
sg13
S'android.transition.TransitionUtils$MatrixEvaluator'
p1145
sg15
(lp1146
sg17
(lp1147
sg19
(lp1148
sg21
I0
sbasg64
(lp1149
g1117
ag1124
ag1131
ag1138
ag1145
asg21
I0
sg66
S'1118'
p1150
sba(iArchitecture
Cluster
p1151
(dp1152
g7
(lp1153
(iArchitecture
Entity
p1154
(dp1155
g11
(lp1156
sg13
S'android.renderscript.ScriptIntrinsic3DLUT'
p1157
sg15
(lp1158
sg17
(lp1159
sg19
(lp1160
sg21
I0
sba(iArchitecture
Entity
p1161
(dp1162
g11
(lp1163
sg13
S'android.renderscript.ScriptIntrinsicBlur'
p1164
sg15
(lp1165
sg17
(lp1166
sg19
(lp1167
sg21
I0
sba(iArchitecture
Entity
p1168
(dp1169
g11
(lp1170
sg13
S'android.renderscript.ScriptIntrinsicConvolve3x3'
p1171
sg15
(lp1172
sg17
(lp1173
sg19
(lp1174
sg21
I0
sba(iArchitecture
Entity
p1175
(dp1176
g11
(lp1177
sg13
S'android.renderscript.ScriptIntrinsicConvolve5x5'
p1178
sg15
(lp1179
sg17
(lp1180
sg19
(lp1181
sg21
I0
sba(iArchitecture
Entity
p1182
(dp1183
g11
(lp1184
sg13
S'android.renderscript.ScriptIntrinsicHistogram'
p1185
sg15
(lp1186
sg17
(lp1187
sg19
(lp1188
sg21
I0
sba(iArchitecture
Entity
p1189
(dp1190
g11
(lp1191
sg13
S'android.renderscript.ScriptIntrinsicLUT'
p1192
sg15
(lp1193
sg17
(lp1194
sg19
(lp1195
sg21
I0
sba(iArchitecture
Entity
p1196
(dp1197
g11
(lp1198
sg13
S'android.renderscript.ScriptIntrinsicResize'
p1199
sg15
(lp1200
sg17
(lp1201
sg19
(lp1202
sg21
I0
sba(iArchitecture
Entity
p1203
(dp1204
g11
(lp1205
sg13
S'android.renderscript.ScriptIntrinsicYuvToRGB'
p1206
sg15
(lp1207
sg17
(lp1208
sg19
(lp1209
sg21
I0
sbasg64
(lp1210
g1157
ag1164
ag1171
ag1178
ag1185
ag1192
ag1199
ag1206
asg21
I0
sg66
S'1119'
p1211
sba(iArchitecture
Cluster
p1212
(dp1213
g7
(lp1214
(iArchitecture
Entity
p1215
(dp1216
g11
(lp1217
sg13
S'android.transition.VisibilityPropagation'
p1218
sg15
(lp1219
sg17
(lp1220
sg19
(lp1221
sg21
I0
sbasg64
(lp1222
g1218
asg21
I0
sg66
S'112'
p1223
sba(iArchitecture
Cluster
p1224
(dp1225
g7
(lp1226
(iArchitecture
Entity
p1227
(dp1228
g11
(lp1229
sg13
S'android.view.accessibility.AccessibilityCache'
p1230
sg15
(lp1231
sg17
(lp1232
sg19
(lp1233
sg21
I0
sba(iArchitecture
Entity
p1234
(dp1235
g11
(lp1236
sg13
S'android.view.accessibility.AccessibilityInteractionClient'
p1237
sg15
(lp1238
sg17
(lp1239
sg19
(lp1240
sg21
I0
sbasg64
(lp1241
g1230
ag1237
asg21
I0
sg66
S'1120'
p1242
sba(iArchitecture
Cluster
p1243
(dp1244
g7
(lp1245
(iArchitecture
Entity
p1246
(dp1247
g11
(lp1248
sg13
S'android.media.browse.MediaBrowser'
p1249
sg15
(lp1250
sg17
(lp1251
sg19
(lp1252
sg21
I0
sba(iArchitecture
Entity
p1253
(dp1254
g11
(lp1255
sg13
S'android.media.browse.MediaBrowser$1'
p1256
sg15
(lp1257
sg17
(lp1258
sg19
(lp1259
sg21
I0
sba(iArchitecture
Entity
p1260
(dp1261
g11
(lp1262
sg13
S'android.media.browse.MediaBrowser$2'
p1263
sg15
(lp1264
sg17
(lp1265
sg19
(lp1266
sg21
I0
sba(iArchitecture
Entity
p1267
(dp1268
g11
(lp1269
sg13
S'android.media.browse.MediaBrowser$3'
p1270
sg15
(lp1271
sg17
(lp1272
sg19
(lp1273
sg21
I0
sba(iArchitecture
Entity
p1274
(dp1275
g11
(lp1276
sg13
S'android.media.browse.MediaBrowser$4'
p1277
sg15
(lp1278
sg17
(lp1279
sg19
(lp1280
sg21
I0
sba(iArchitecture
Entity
p1281
(dp1282
g11
(lp1283
sg13
S'android.media.browse.MediaBrowser$5'
p1284
sg15
(lp1285
sg17
(lp1286
sg19
(lp1287
sg21
I0
sba(iArchitecture
Entity
p1288
(dp1289
g11
(lp1290
sg13
S'android.media.browse.MediaBrowser$6'
p1291
sg15
(lp1292
sg17
(lp1293
sg19
(lp1294
sg21
I0
sba(iArchitecture
Entity
p1295
(dp1296
g11
(lp1297
sg13
S'android.media.browse.MediaBrowser$7'
p1298
sg15
(lp1299
sg17
(lp1300
sg19
(lp1301
sg21
I0
sba(iArchitecture
Entity
p1302
(dp1303
g11
(lp1304
sg13
S'android.media.browse.MediaBrowser$ConnectionCallback'
p1305
sg15
(lp1306
sg17
(lp1307
sg19
(lp1308
sg21
I0
sba(iArchitecture
Entity
p1309
(dp1310
g11
(lp1311
sg13
S'android.media.browse.MediaBrowser$ItemCallback'
p1312
sg15
(lp1313
sg17
(lp1314
sg19
(lp1315
sg21
I0
sba(iArchitecture
Entity
p1316
(dp1317
g11
(lp1318
sg13
S'android.media.browse.MediaBrowser$MediaItem'
p1319
sg15
(lp1320
sg17
(lp1321
sg19
(lp1322
sg21
I0
sba(iArchitecture
Entity
p1323
(dp1324
g11
(lp1325
sg13
S'android.media.browse.MediaBrowser$MediaItem$1'
p1326
sg15
(lp1327
sg17
(lp1328
sg19
(lp1329
sg21
I0
sba(iArchitecture
Entity
p1330
(dp1331
g11
(lp1332
sg13
S'android.media.browse.MediaBrowser$MediaServiceConnection'
p1333
sg15
(lp1334
sg17
(lp1335
sg19
(lp1336
sg21
I0
sba(iArchitecture
Entity
p1337
(dp1338
g11
(lp1339
sg13
S'android.media.browse.MediaBrowser$ServiceCallbacks'
p1340
sg15
(lp1341
sg17
(lp1342
sg19
(lp1343
sg21
I0
sba(iArchitecture
Entity
p1344
(dp1345
g11
(lp1346
sg13
S'android.media.browse.MediaBrowser$Subscription'
p1347
sg15
(lp1348
sg17
(lp1349
sg19
(lp1350
sg21
I0
sba(iArchitecture
Entity
p1351
(dp1352
g11
(lp1353
sg13
S'android.media.browse.MediaBrowser$SubscriptionCallback'
p1354
sg15
(lp1355
sg17
(lp1356
sg19
(lp1357
sg21
I0
sba(iArchitecture
Entity
p1358
(dp1359
g11
(lp1360
sg13
S'android.service.media.MediaBrowserService'
p1361
sg15
(lp1362
sg17
(lp1363
sg19
(lp1364
sg21
I0
sba(iArchitecture
Entity
p1365
(dp1366
g11
(lp1367
sg13
S'android.service.media.MediaBrowserService$1'
p1368
sg15
(lp1369
sg17
(lp1370
sg19
(lp1371
sg21
I0
sba(iArchitecture
Entity
p1372
(dp1373
g11
(lp1374
sg13
S'android.service.media.MediaBrowserService$2'
p1375
sg15
(lp1376
sg17
(lp1377
sg19
(lp1378
sg21
I0
sba(iArchitecture
Entity
p1379
(dp1380
g11
(lp1381
sg13
S'android.service.media.MediaBrowserService$3'
p1382
sg15
(lp1383
sg17
(lp1384
sg19
(lp1385
sg21
I0
sba(iArchitecture
Entity
p1386
(dp1387
g11
(lp1388
sg13
S'android.service.media.MediaBrowserService$4'
p1389
sg15
(lp1390
sg17
(lp1391
sg19
(lp1392
sg21
I0
sba(iArchitecture
Entity
p1393
(dp1394
g11
(lp1395
sg13
S'android.service.media.MediaBrowserService$BrowserRoot'
p1396
sg15
(lp1397
sg17
(lp1398
sg19
(lp1399
sg21
I0
sba(iArchitecture
Entity
p1400
(dp1401
g11
(lp1402
sg13
S'android.service.media.MediaBrowserService$ConnectionRecord'
p1403
sg15
(lp1404
sg17
(lp1405
sg19
(lp1406
sg21
I0
sba(iArchitecture
Entity
p1407
(dp1408
g11
(lp1409
sg13
S'android.service.media.MediaBrowserService$Result'
p1410
sg15
(lp1411
sg17
(lp1412
sg19
(lp1413
sg21
I0
sba(iArchitecture
Entity
p1414
(dp1415
g11
(lp1416
sg13
S'android.service.media.MediaBrowserService$ServiceBinder'
p1417
sg15
(lp1418
sg17
(lp1419
sg19
(lp1420
sg21
I0
sba(iArchitecture
Entity
p1421
(dp1422
g11
(lp1423
sg13
S'android.service.media.MediaBrowserService$ServiceBinder$1'
p1424
sg15
(lp1425
sg17
(lp1426
sg19
(lp1427
sg21
I0
sba(iArchitecture
Entity
p1428
(dp1429
g11
(lp1430
sg13
S'android.service.media.MediaBrowserService$ServiceBinder$2'
p1431
sg15
(lp1432
sg17
(lp1433
sg19
(lp1434
sg21
I0
sba(iArchitecture
Entity
p1435
(dp1436
g11
(lp1437
sg13
S'android.service.media.MediaBrowserService$ServiceBinder$3'
p1438
sg15
(lp1439
sg17
(lp1440
sg19
(lp1441
sg21
I0
sba(iArchitecture
Entity
p1442
(dp1443
g11
(lp1444
sg13
S'android.service.media.MediaBrowserService$ServiceBinder$4'
p1445
sg15
(lp1446
sg17
(lp1447
sg19
(lp1448
sg21
I0
sba(iArchitecture
Entity
p1449
(dp1450
g11
(lp1451
sg13
S'android.service.media.MediaBrowserService$ServiceBinder$5'
p1452
sg15
(lp1453
sg17
(lp1454
sg19
(lp1455
sg21
I0
sbasg64
(lp1456
g1249
ag1256
ag1263
ag1270
ag1277
ag1284
ag1291
ag1298
ag1305
ag1312
ag1319
ag1326
ag1333
ag1340
ag1347
ag1354
ag1361
ag1368
ag1375
ag1382
ag1389
ag1396
ag1403
ag1410
ag1417
ag1424
ag1431
ag1438
ag1445
ag1452
asg21
I0
sg66
S'1121'
p1457
sba(iArchitecture
Cluster
p1458
(dp1459
g7
(lp1460
(iArchitecture
Entity
p1461
(dp1462
g11
(lp1463
sg13
S'com.android.server.input.InputWindowHandle'
p1464
sg15
(lp1465
sg17
(lp1466
sg19
(lp1467
sg21
I0
sba(iArchitecture
Entity
p1468
(dp1469
g11
(lp1470
sg13
S'com.android.server.wm.InputConsumerImpl'
p1471
sg15
(lp1472
sg17
(lp1473
sg19
(lp1474
sg21
I0
sbasg64
(lp1475
g1464
ag1471
asg21
I0
sg66
S'1122'
p1476
sba(iArchitecture
Cluster
p1477
(dp1478
g7
(lp1479
(iArchitecture
Entity
p1480
(dp1481
g11
(lp1482
sg13
S'android.provider.SyncConstValue'
p1483
sg15
(lp1484
sg17
(lp1485
sg19
(lp1486
sg21
I0
sba(iArchitecture
Entity
p1487
(dp1488
g11
(lp1489
sg13
S'android.webkit.WebSyncManager'
p1490
sg15
(lp1491
sg17
(lp1492
sg19
(lp1493
sg21
I0
sbasg64
(lp1494
g1483
ag1490
asg21
I0
sg66
S'1123'
p1495
sba(iArchitecture
Cluster
p1496
(dp1497
g7
(lp1498
(iArchitecture
Entity
p1499
(dp1500
g11
(lp1501
sg13
S'android.animation.ArgbEvaluator'
p1502
sg15
(lp1503
sg17
(lp1504
sg19
(lp1505
sg21
I0
sba(iArchitecture
Entity
p1506
(dp1507
g11
(lp1508
sg13
S'android.animation.PointFEvaluator'
p1509
sg15
(lp1510
sg17
(lp1511
sg19
(lp1512
sg21
I0
sbasg64
(lp1513
g1502
ag1509
asg21
I0
sg66
S'1124'
p1514
sba(iArchitecture
Cluster
p1515
(dp1516
g7
(lp1517
(iArchitecture
Entity
p1518
(dp1519
g11
(lp1520
sg13
S'android.app.backup.RestoreDescription'
p1521
sg15
(lp1522
sg17
(lp1523
sg19
(lp1524
sg21
I0
sba(iArchitecture
Entity
p1525
(dp1526
g11
(lp1527
sg13
S'android.app.backup.RestoreDescription$1'
p1528
sg15
(lp1529
sg17
(lp1530
sg19
(lp1531
sg21
I0
sba(iArchitecture
Entity
p1532
(dp1533
g11
(lp1534
sg13
S'android.content.res.ObbScanner'
p1535
sg15
(lp1536
sg17
(lp1537
sg19
(lp1538
sg21
I0
sbasg64
(lp1539
g1521
ag1528
ag1535
asg21
I0
sg66
S'1125'
p1540
sba(iArchitecture
Cluster
p1541
(dp1542
g7
(lp1543
(iArchitecture
Entity
p1544
(dp1545
g11
(lp1546
sg13
S'android.text.PackedIntVector'
p1547
sg15
(lp1548
sg17
(lp1549
sg19
(lp1550
sg21
I0
sba(iArchitecture
Entity
p1551
(dp1552
g11
(lp1553
sg13
S'android.text.PackedObjectVector'
p1554
sg15
(lp1555
sg17
(lp1556
sg19
(lp1557
sg21
I0
sbasg64
(lp1558
g1547
ag1554
asg21
I0
sg66
S'1126'
p1559
sba(iArchitecture
Cluster
p1560
(dp1561
g7
(lp1562
(iArchitecture
Entity
p1563
(dp1564
g11
(lp1565
sg13
S'android.media.AudioDevicePortConfig'
p1566
sg15
(lp1567
sg17
(lp1568
sg19
(lp1569
sg21
I0
sba(iArchitecture
Entity
p1570
(dp1571
g11
(lp1572
sg13
S'android.media.AudioMixPort'
p1573
sg15
(lp1574
sg17
(lp1575
sg19
(lp1576
sg21
I0
sba(iArchitecture
Entity
p1577
(dp1578
g11
(lp1579
sg13
S'android.media.AudioMixPortConfig'
p1580
sg15
(lp1581
sg17
(lp1582
sg19
(lp1583
sg21
I0
sba(iArchitecture
Entity
p1584
(dp1585
g11
(lp1586
sg13
S'android.media.AudioPortConfig'
p1587
sg15
(lp1588
sg17
(lp1589
sg19
(lp1590
sg21
I0
sbasg64
(lp1591
g1566
ag1573
ag1580
ag1587
asg21
I0
sg66
S'1127'
p1592
sba(iArchitecture
Cluster
p1593
(dp1594
g7
(lp1595
(iArchitecture
Entity
p1596
(dp1597
g11
(lp1598
sg13
S'android.widget.PopupMenu'
p1599
sg15
(lp1600
sg17
(lp1601
sg19
(lp1602
sg21
I0
sba(iArchitecture
Entity
p1603
(dp1604
g11
(lp1605
sg13
S'android.widget.PopupMenu$1'
p1606
sg15
(lp1607
sg17
(lp1608
sg19
(lp1609
sg21
I0
sba(iArchitecture
Entity
p1610
(dp1611
g11
(lp1612
sg13
S'android.widget.PopupMenu$OnDismissListener'
p1613
sg15
(lp1614
sg17
(lp1615
sg19
(lp1616
sg21
I0
sba(iArchitecture
Entity
p1617
(dp1618
g11
(lp1619
sg13
S'android.widget.PopupMenu$OnMenuItemClickListener'
p1620
sg15
(lp1621
sg17
(lp1622
sg19
(lp1623
sg21
I0
sba(iArchitecture
Entity
p1624
(dp1625
g11
(lp1626
sg13
S'com.android.internal.view.menu.MenuPopupHelper'
p1627
sg15
(lp1628
sg17
(lp1629
sg19
(lp1630
sg21
I0
sba(iArchitecture
Entity
p1631
(dp1632
g11
(lp1633
sg13
S'com.android.internal.view.menu.MenuPopupHelper$MenuAdapter'
p1634
sg15
(lp1635
sg17
(lp1636
sg19
(lp1637
sg21
I0
sbasg64
(lp1638
g1599
ag1606
ag1613
ag1620
ag1627
ag1634
asg21
I0
sg66
S'1128'
p1639
sba(iArchitecture
Cluster
p1640
(dp1641
g7
(lp1642
(iArchitecture
Entity
p1643
(dp1644
g11
(lp1645
sg13
S'android.bluetooth.BluetoothGattCallback'
p1646
sg15
(lp1647
sg17
(lp1648
sg19
(lp1649
sg21
I0
sba(iArchitecture
Entity
p1650
(dp1651
g11
(lp1652
sg13
S'android.bluetooth.BluetoothGattServerCallback'
p1653
sg15
(lp1654
sg17
(lp1655
sg19
(lp1656
sg21
I0
sbasg64
(lp1657
g1646
ag1653
asg21
I0
sg66
S'1129'
p1658
sba(iArchitecture
Cluster
p1659
(dp1660
g7
(lp1661
(iArchitecture
Entity
p1662
(dp1663
g11
(lp1664
sg13
S'android.opengl.ETC1'
p1665
sg15
(lp1666
sg17
(lp1667
sg19
(lp1668
sg21
I0
sbasg64
(lp1669
g1665
asg21
I0
sg66
S'113'
p1670
sba(iArchitecture
Cluster
p1671
(dp1672
g7
(lp1673
(iArchitecture
Entity
p1674
(dp1675
g11
(lp1676
sg13
S'android.view.animation.RotateAnimation'
p1677
sg15
(lp1678
sg17
(lp1679
sg19
(lp1680
sg21
I0
sba(iArchitecture
Entity
p1681
(dp1682
g11
(lp1683
sg13
S'android.view.animation.ScaleAnimation'
p1684
sg15
(lp1685
sg17
(lp1686
sg19
(lp1687
sg21
I0
sbasg64
(lp1688
g1677
ag1684
asg21
I0
sg66
S'1130'
p1689
sba(iArchitecture
Cluster
p1690
(dp1691
g7
(lp1692
(iArchitecture
Entity
p1693
(dp1694
g11
(lp1695
sg13
S'android.app.ActivityTransitionCoordinator'
p1696
sg15
(lp1697
sg17
(lp1698
sg19
(lp1699
sg21
I0
sba(iArchitecture
Entity
p1700
(dp1701
g11
(lp1702
sg13
S'android.app.ActivityTransitionCoordinator$1'
p1703
sg15
(lp1704
sg17
(lp1705
sg19
(lp1706
sg21
I0
sba(iArchitecture
Entity
p1707
(dp1708
g11
(lp1709
sg13
S'android.app.ActivityTransitionCoordinator$2'
p1710
sg15
(lp1711
sg17
(lp1712
sg19
(lp1713
sg21
I0
sba(iArchitecture
Entity
p1714
(dp1715
g11
(lp1716
sg13
S'android.app.ActivityTransitionCoordinator$ContinueTransitionListener'
p1717
sg15
(lp1718
sg17
(lp1719
sg19
(lp1720
sg21
I0
sba(iArchitecture
Entity
p1721
(dp1722
g11
(lp1723
sg13
S'android.app.ActivityTransitionCoordinator$FixedEpicenterCallback'
p1724
sg15
(lp1725
sg17
(lp1726
sg19
(lp1727
sg21
I0
sba(iArchitecture
Entity
p1728
(dp1729
g11
(lp1730
sg13
S'android.app.ActivityTransitionCoordinator$GhostViewListeners'
p1731
sg15
(lp1732
sg17
(lp1733
sg19
(lp1734
sg21
I0
sba(iArchitecture
Entity
p1735
(dp1736
g11
(lp1737
sg13
S'android.app.ActivityTransitionCoordinator$SharedElementOriginalState'
p1738
sg15
(lp1739
sg17
(lp1740
sg19
(lp1741
sg21
I0
sba(iArchitecture
Entity
p1742
(dp1743
g11
(lp1744
sg13
S'android.app.EnterTransitionCoordinator'
p1745
sg15
(lp1746
sg17
(lp1747
sg19
(lp1748
sg21
I0
sba(iArchitecture
Entity
p1749
(dp1750
g11
(lp1751
sg13
S'android.app.EnterTransitionCoordinator$1'
p1752
sg15
(lp1753
sg17
(lp1754
sg19
(lp1755
sg21
I0
sba(iArchitecture
Entity
p1756
(dp1757
g11
(lp1758
sg13
S'android.app.EnterTransitionCoordinator$10'
p1759
sg15
(lp1760
sg17
(lp1761
sg19
(lp1762
sg21
I0
sba(iArchitecture
Entity
p1763
(dp1764
g11
(lp1765
sg13
S'android.app.EnterTransitionCoordinator$11'
p1766
sg15
(lp1767
sg17
(lp1768
sg19
(lp1769
sg21
I0
sba(iArchitecture
Entity
p1770
(dp1771
g11
(lp1772
sg13
S'android.app.EnterTransitionCoordinator$2'
p1773
sg15
(lp1774
sg17
(lp1775
sg19
(lp1776
sg21
I0
sba(iArchitecture
Entity
p1777
(dp1778
g11
(lp1779
sg13
S'android.app.EnterTransitionCoordinator$3'
p1780
sg15
(lp1781
sg17
(lp1782
sg19
(lp1783
sg21
I0
sba(iArchitecture
Entity
p1784
(dp1785
g11
(lp1786
sg13
S'android.app.EnterTransitionCoordinator$4'
p1787
sg15
(lp1788
sg17
(lp1789
sg19
(lp1790
sg21
I0
sba(iArchitecture
Entity
p1791
(dp1792
g11
(lp1793
sg13
S'android.app.EnterTransitionCoordinator$5'
p1794
sg15
(lp1795
sg17
(lp1796
sg19
(lp1797
sg21
I0
sba(iArchitecture
Entity
p1798
(dp1799
g11
(lp1800
sg13
S'android.app.EnterTransitionCoordinator$5$1'
p1801
sg15
(lp1802
sg17
(lp1803
sg19
(lp1804
sg21
I0
sba(iArchitecture
Entity
p1805
(dp1806
g11
(lp1807
sg13
S'android.app.EnterTransitionCoordinator$5$1$1'
p1808
sg15
(lp1809
sg17
(lp1810
sg19
(lp1811
sg21
I0
sba(iArchitecture
Entity
p1812
(dp1813
g11
(lp1814
sg13
S'android.app.EnterTransitionCoordinator$6'
p1815
sg15
(lp1816
sg17
(lp1817
sg19
(lp1818
sg21
I0
sba(iArchitecture
Entity
p1819
(dp1820
g11
(lp1821
sg13
S'android.app.EnterTransitionCoordinator$7'
p1822
sg15
(lp1823
sg17
(lp1824
sg19
(lp1825
sg21
I0
sba(iArchitecture
Entity
p1826
(dp1827
g11
(lp1828
sg13
S'android.app.EnterTransitionCoordinator$8'
p1829
sg15
(lp1830
sg17
(lp1831
sg19
(lp1832
sg21
I0
sba(iArchitecture
Entity
p1833
(dp1834
g11
(lp1835
sg13
S'android.app.EnterTransitionCoordinator$9'
p1836
sg15
(lp1837
sg17
(lp1838
sg19
(lp1839
sg21
I0
sba(iArchitecture
Entity
p1840
(dp1841
g11
(lp1842
sg13
S'android.app.ExitTransitionCoordinator'
p1843
sg15
(lp1844
sg17
(lp1845
sg19
(lp1846
sg21
I0
sba(iArchitecture
Entity
p1847
(dp1848
g11
(lp1849
sg13
S'android.app.ExitTransitionCoordinator$1'
p1850
sg15
(lp1851
sg17
(lp1852
sg19
(lp1853
sg21
I0
sba(iArchitecture
Entity
p1854
(dp1855
g11
(lp1856
sg13
S'android.app.ExitTransitionCoordinator$10'
p1857
sg15
(lp1858
sg17
(lp1859
sg19
(lp1860
sg21
I0
sba(iArchitecture
Entity
p1861
(dp1862
g11
(lp1863
sg13
S'android.app.ExitTransitionCoordinator$11'
p1864
sg15
(lp1865
sg17
(lp1866
sg19
(lp1867
sg21
I0
sba(iArchitecture
Entity
p1868
(dp1869
g11
(lp1870
sg13
S'android.app.ExitTransitionCoordinator$2'
p1871
sg15
(lp1872
sg17
(lp1873
sg19
(lp1874
sg21
I0
sba(iArchitecture
Entity
p1875
(dp1876
g11
(lp1877
sg13
S'android.app.ExitTransitionCoordinator$3'
p1878
sg15
(lp1879
sg17
(lp1880
sg19
(lp1881
sg21
I0
sba(iArchitecture
Entity
p1882
(dp1883
g11
(lp1884
sg13
S'android.app.ExitTransitionCoordinator$4'
p1885
sg15
(lp1886
sg17
(lp1887
sg19
(lp1888
sg21
I0
sba(iArchitecture
Entity
p1889
(dp1890
g11
(lp1891
sg13
S'android.app.ExitTransitionCoordinator$5'
p1892
sg15
(lp1893
sg17
(lp1894
sg19
(lp1895
sg21
I0
sba(iArchitecture
Entity
p1896
(dp1897
g11
(lp1898
sg13
S'android.app.ExitTransitionCoordinator$6'
p1899
sg15
(lp1900
sg17
(lp1901
sg19
(lp1902
sg21
I0
sba(iArchitecture
Entity
p1903
(dp1904
g11
(lp1905
sg13
S'android.app.ExitTransitionCoordinator$7'
p1906
sg15
(lp1907
sg17
(lp1908
sg19
(lp1909
sg21
I0
sba(iArchitecture
Entity
p1910
(dp1911
g11
(lp1912
sg13
S'android.app.ExitTransitionCoordinator$8'
p1913
sg15
(lp1914
sg17
(lp1915
sg19
(lp1916
sg21
I0
sba(iArchitecture
Entity
p1917
(dp1918
g11
(lp1919
sg13
S'android.app.ExitTransitionCoordinator$9'
p1920
sg15
(lp1921
sg17
(lp1922
sg19
(lp1923
sg21
I0
sbasg64
(lp1924
g1696
ag1703
ag1710
ag1717
ag1724
ag1731
ag1738
ag1745
ag1752
ag1759
ag1766
ag1773
ag1780
ag1787
ag1794
ag1801
ag1808
ag1815
ag1822
ag1829
ag1836
ag1843
ag1850
ag1857
ag1864
ag1871
ag1878
ag1885
ag1892
ag1899
ag1906
ag1913
ag1920
asg21
I0
sg66
S'1131'
p1925
sba(iArchitecture
Cluster
p1926
(dp1927
g7
(lp1928
(iArchitecture
Entity
p1929
(dp1930
g11
(lp1931
sg13
S'com.android.server.wm.CircularDisplayMask'
p1932
sg15
(lp1933
sg17
(lp1934
sg19
(lp1935
sg21
I0
sba(iArchitecture
Entity
p1936
(dp1937
g11
(lp1938
sg13
S'com.android.server.wm.EmulatorDisplayOverlay'
p1939
sg15
(lp1940
sg17
(lp1941
sg19
(lp1942
sg21
I0
sba(iArchitecture
Entity
p1943
(dp1944
g11
(lp1945
sg13
S'com.android.server.wm.StrictModeFlash'
p1946
sg15
(lp1947
sg17
(lp1948
sg19
(lp1949
sg21
I0
sba(iArchitecture
Entity
p1950
(dp1951
g11
(lp1952
sg13
S'com.android.server.wm.Watermark'
p1953
sg15
(lp1954
sg17
(lp1955
sg19
(lp1956
sg21
I0
sbasg64
(lp1957
g1932
ag1939
ag1946
ag1953
asg21
I0
sg66
S'1132'
p1958
sba(iArchitecture
Cluster
p1959
(dp1960
g7
(lp1961
(iArchitecture
Entity
p1962
(dp1963
g11
(lp1964
sg13
S'android.bluetooth.le.AdvertiseData'
p1965
sg15
(lp1966
sg17
(lp1967
sg19
(lp1968
sg21
I0
sba(iArchitecture
Entity
p1969
(dp1970
g11
(lp1971
sg13
S'android.bluetooth.le.AdvertiseData$1'
p1972
sg15
(lp1973
sg17
(lp1974
sg19
(lp1975
sg21
I0
sba(iArchitecture
Entity
p1976
(dp1977
g11
(lp1978
sg13
S'android.bluetooth.le.AdvertiseData$Builder'
p1979
sg15
(lp1980
sg17
(lp1981
sg19
(lp1982
sg21
I0
sba(iArchitecture
Entity
p1983
(dp1984
g11
(lp1985
sg13
S'android.bluetooth.le.ScanRecord'
p1986
sg15
(lp1987
sg17
(lp1988
sg19
(lp1989
sg21
I0
sbasg64
(lp1990
g1965
ag1972
ag1979
ag1986
asg21
I0
sg66
S'1133'
p1991
sba(iArchitecture
Cluster
p1992
(dp1993
g7
(lp1994
(iArchitecture
Entity
p1995
(dp1996
g11
(lp1997
sg13
S'android.widget.ResourceCursorTreeAdapter'
p1998
sg15
(lp1999
sg17
(lp2000
sg19
(lp2001
sg21
I0
sba(iArchitecture
Entity
p2002
(dp2003
g11
(lp2004
sg13
S'android.widget.SimpleCursorTreeAdapter'
p2005
sg15
(lp2006
sg17
(lp2007
sg19
(lp2008
sg21
I0
sba(iArchitecture
Entity
p2009
(dp2010
g11
(lp2011
sg13
S'android.widget.SimpleCursorTreeAdapter$ViewBinder'
p2012
sg15
(lp2013
sg17
(lp2014
sg19
(lp2015
sg21
I0
sba(iArchitecture
Entity
p2016
(dp2017
g11
(lp2018
sg13
S'android.widget.SimpleExpandableListAdapter'
p2019
sg15
(lp2020
sg17
(lp2021
sg19
(lp2022
sg21
I0
sbasg64
(lp2023
g1998
ag2005
ag2012
ag2019
asg21
I0
sg66
S'1134'
p2024
sba(iArchitecture
Cluster
p2025
(dp2026
g7
(lp2027
(iArchitecture
Entity
p2028
(dp2029
g11
(lp2030
sg13
S'android.text.InputType'
p2031
sg15
(lp2032
sg17
(lp2033
sg19
(lp2034
sg21
I0
sba(iArchitecture
Entity
p2035
(dp2036
g11
(lp2037
sg13
S'android.view.inputmethod.EditorInfo'
p2038
sg15
(lp2039
sg17
(lp2040
sg19
(lp2041
sg21
I0
sba(iArchitecture
Entity
p2042
(dp2043
g11
(lp2044
sg13
S'android.view.inputmethod.EditorInfo$1'
p2045
sg15
(lp2046
sg17
(lp2047
sg19
(lp2048
sg21
I0
sbasg64
(lp2049
g2031
ag2038
ag2045
asg21
I0
sg66
S'1135'
p2050
sba(iArchitecture
Cluster
p2051
(dp2052
g7
(lp2053
(iArchitecture
Entity
p2054
(dp2055
g11
(lp2056
sg13
S'android.hardware.camera2.utils.TaskDrainer'
p2057
sg15
(lp2058
sg17
(lp2059
sg19
(lp2060
sg21
I0
sba(iArchitecture
Entity
p2061
(dp2062
g11
(lp2063
sg13
S'android.hardware.camera2.utils.TaskDrainer$1'
p2064
sg15
(lp2065
sg17
(lp2066
sg19
(lp2067
sg21
I0
sba(iArchitecture
Entity
p2068
(dp2069
g11
(lp2070
sg13
S'android.hardware.camera2.utils.TaskDrainer$DrainListener'
p2071
sg15
(lp2072
sg17
(lp2073
sg19
(lp2074
sg21
I0
sba(iArchitecture
Entity
p2075
(dp2076
g11
(lp2077
sg13
S'android.hardware.camera2.utils.TaskSingleDrainer'
p2078
sg15
(lp2079
sg17
(lp2080
sg19
(lp2081
sg21
I0
sbasg64
(lp2082
g2057
ag2064
ag2071
ag2078
asg21
I0
sg66
S'1136'
p2083
sba(iArchitecture
Cluster
p2084
(dp2085
g7
(lp2086
(iArchitecture
Entity
p2087
(dp2088
g11
(lp2089
sg13
S'android.net.netlink.RtNetlinkNeighborMessage'
p2090
sg15
(lp2091
sg17
(lp2092
sg19
(lp2093
sg21
I0
sba(iArchitecture
Entity
p2094
(dp2095
g11
(lp2096
sg13
S'android.net.netlink.StructNlAttr'
p2097
sg15
(lp2098
sg17
(lp2099
sg19
(lp2100
sg21
I0
sba(iArchitecture
Entity
p2101
(dp2102
g11
(lp2103
sg13
S'android.net.netlink.StructNlMsgHdr'
p2104
sg15
(lp2105
sg17
(lp2106
sg19
(lp2107
sg21
I0
sbasg64
(lp2108
g2090
ag2097
ag2104
asg21
I0
sg66
S'1137'
p2109
sba(iArchitecture
Cluster
p2110
(dp2111
g7
(lp2112
(iArchitecture
Entity
p2113
(dp2114
g11
(lp2115
sg13
S'android.gesture.Gesture'
p2116
sg15
(lp2117
sg17
(lp2118
sg19
(lp2119
sg21
I0
sba(iArchitecture
Entity
p2120
(dp2121
g11
(lp2122
sg13
S'android.gesture.Gesture$1'
p2123
sg15
(lp2124
sg17
(lp2125
sg19
(lp2126
sg21
I0
sba(iArchitecture
Entity
p2127
(dp2128
g11
(lp2129
sg13
S'android.gesture.GestureStore'
p2130
sg15
(lp2131
sg17
(lp2132
sg19
(lp2133
sg21
I0
sbasg64
(lp2134
g2116
ag2123
ag2130
asg21
I0
sg66
S'1138'
p2135
sba(iArchitecture
Cluster
p2136
(dp2137
g7
(lp2138
(iArchitecture
Entity
p2139
(dp2140
g11
(lp2141
sg13
S'android.opengl.GLES20'
p2142
sg15
(lp2143
sg17
(lp2144
sg19
(lp2145
sg21
I0
sba(iArchitecture
Entity
p2146
(dp2147
g11
(lp2148
sg13
S'android.opengl.GLES30'
p2149
sg15
(lp2150
sg17
(lp2151
sg19
(lp2152
sg21
I0
sba(iArchitecture
Entity
p2153
(dp2154
g11
(lp2155
sg13
S'android.opengl.GLES31'
p2156
sg15
(lp2157
sg17
(lp2158
sg19
(lp2159
sg21
I0
sbasg64
(lp2160
g2142
ag2149
ag2156
asg21
I0
sg66
S'1139'
p2161
sba(iArchitecture
Cluster
p2162
(dp2163
g7
(lp2164
(iArchitecture
Entity
p2165
(dp2166
g11
(lp2167
sg13
S'android.animation.KeyframeSet'
p2168
sg15
(lp2169
sg17
(lp2170
sg19
(lp2171
sg21
I0
sbasg64
(lp2172
g2168
asg21
I0
sg66
S'114'
p2173
sba(iArchitecture
Cluster
p2174
(dp2175
g7
(lp2176
(iArchitecture
Entity
p2177
(dp2178
g11
(lp2179
sg13
S'android.renderscript.ProgramFragment'
p2180
sg15
(lp2181
sg17
(lp2182
sg19
(lp2183
sg21
I0
sba(iArchitecture
Entity
p2184
(dp2185
g11
(lp2186
sg13
S'android.renderscript.ProgramFragment$Builder'
p2187
sg15
(lp2188
sg17
(lp2189
sg19
(lp2190
sg21
I0
sba(iArchitecture
Entity
p2191
(dp2192
g11
(lp2193
sg13
S'android.renderscript.ProgramFragmentFixedFunction'
p2194
sg15
(lp2195
sg17
(lp2196
sg19
(lp2197
sg21
I0
sba(iArchitecture
Entity
p2198
(dp2199
g11
(lp2200
sg13
S'android.renderscript.ProgramFragmentFixedFunction$Builder'
p2201
sg15
(lp2202
sg17
(lp2203
sg19
(lp2204
sg21
I0
sba(iArchitecture
Entity
p2205
(dp2206
g11
(lp2207
sg13
S'android.renderscript.ProgramFragmentFixedFunction$Builder$EnvMode'
p2208
sg15
(lp2209
sg17
(lp2210
sg19
(lp2211
sg21
I0
sba(iArchitecture
Entity
p2212
(dp2213
g11
(lp2214
sg13
S'android.renderscript.ProgramFragmentFixedFunction$Builder$Format'
p2215
sg15
(lp2216
sg17
(lp2217
sg19
(lp2218
sg21
I0
sba(iArchitecture
Entity
p2219
(dp2220
g11
(lp2221
sg13
S'android.renderscript.ProgramFragmentFixedFunction$Builder$Slot'
p2222
sg15
(lp2223
sg17
(lp2224
sg19
(lp2225
sg21
I0
sba(iArchitecture
Entity
p2226
(dp2227
g11
(lp2228
sg13
S'android.renderscript.ProgramFragmentFixedFunction$InternalBuilder'
p2229
sg15
(lp2230
sg17
(lp2231
sg19
(lp2232
sg21
I0
sba(iArchitecture
Entity
p2233
(dp2234
g11
(lp2235
sg13
S'android.renderscript.ProgramVertex'
p2236
sg15
(lp2237
sg17
(lp2238
sg19
(lp2239
sg21
I0
sba(iArchitecture
Entity
p2240
(dp2241
g11
(lp2242
sg13
S'android.renderscript.ProgramVertex$Builder'
p2243
sg15
(lp2244
sg17
(lp2245
sg19
(lp2246
sg21
I0
sba(iArchitecture
Entity
p2247
(dp2248
g11
(lp2249
sg13
S'android.renderscript.ProgramVertexFixedFunction'
p2250
sg15
(lp2251
sg17
(lp2252
sg19
(lp2253
sg21
I0
sba(iArchitecture
Entity
p2254
(dp2255
g11
(lp2256
sg13
S'android.renderscript.ProgramVertexFixedFunction$Builder'
p2257
sg15
(lp2258
sg17
(lp2259
sg19
(lp2260
sg21
I0
sba(iArchitecture
Entity
p2261
(dp2262
g11
(lp2263
sg13
S'android.renderscript.ProgramVertexFixedFunction$Constants'
p2264
sg15
(lp2265
sg17
(lp2266
sg19
(lp2267
sg21
I0
sba(iArchitecture
Entity
p2268
(dp2269
g11
(lp2270
sg13
S'android.renderscript.ProgramVertexFixedFunction$InternalBuilder'
p2271
sg15
(lp2272
sg17
(lp2273
sg19
(lp2274
sg21
I0
sbasg64
(lp2275
g2180
ag2187
ag2194
ag2201
ag2208
ag2215
ag2222
ag2229
ag2236
ag2243
ag2250
ag2257
ag2264
ag2271
asg21
I0
sg66
S'1140'
p2276
sba(iArchitecture
Cluster
p2277
(dp2278
g7
(lp2279
(iArchitecture
Entity
p2280
(dp2281
g11
(lp2282
sg13
S'android.os.ServiceManager'
p2283
sg15
(lp2284
sg17
(lp2285
sg19
(lp2286
sg21
I0
sba(iArchitecture
Entity
p2287
(dp2288
g11
(lp2289
sg13
S'android.os.ServiceManagerNative'
p2290
sg15
(lp2291
sg17
(lp2292
sg19
(lp2293
sg21
I0
sbasg64
(lp2294
g2283
ag2290
asg21
I0
sg66
S'1141'
p2295
sba(iArchitecture
Cluster
p2296
(dp2297
g7
(lp2298
(iArchitecture
Entity
p2299
(dp2300
g11
(lp2301
sg13
S'android.graphics.LinearGradient'
p2302
sg15
(lp2303
sg17
(lp2304
sg19
(lp2305
sg21
I0
sba(iArchitecture
Entity
p2306
(dp2307
g11
(lp2308
sg13
S'android.graphics.SweepGradient'
p2309
sg15
(lp2310
sg17
(lp2311
sg19
(lp2312
sg21
I0
sbasg64
(lp2313
g2302
ag2309
asg21
I0
sg66
S'1142'
p2314
sba(iArchitecture
Cluster
p2315
(dp2316
g7
(lp2317
(iArchitecture
Entity
p2318
(dp2319
g11
(lp2320
sg13
S'android.os.UserManager'
p2321
sg15
(lp2322
sg17
(lp2323
sg19
(lp2324
sg21
I0
sba(iArchitecture
Entity
p2325
(dp2326
g11
(lp2327
sg13
S'com.android.server.pm.UserManagerService'
p2328
sg15
(lp2329
sg17
(lp2330
sg19
(lp2331
sg21
I0
sba(iArchitecture
Entity
p2332
(dp2333
g11
(lp2334
sg13
S'com.android.server.pm.UserManagerService$1'
p2335
sg15
(lp2336
sg17
(lp2337
sg19
(lp2338
sg21
I0
sba(iArchitecture
Entity
p2339
(dp2340
g11
(lp2341
sg13
S'com.android.server.pm.UserManagerService$2'
p2342
sg15
(lp2343
sg17
(lp2344
sg19
(lp2345
sg21
I0
sba(iArchitecture
Entity
p2346
(dp2347
g11
(lp2348
sg13
S'com.android.server.pm.UserManagerService$2$1'
p2349
sg15
(lp2350
sg17
(lp2351
sg19
(lp2352
sg21
I0
sba(iArchitecture
Entity
p2353
(dp2354
g11
(lp2355
sg13
S'com.android.server.pm.UserManagerService$3'
p2356
sg15
(lp2357
sg17
(lp2358
sg19
(lp2359
sg21
I0
sba(iArchitecture
Entity
p2360
(dp2361
g11
(lp2362
sg13
S'com.android.server.pm.UserManagerService$MainHandler'
p2363
sg15
(lp2364
sg17
(lp2365
sg19
(lp2366
sg21
I0
sbasg64
(lp2367
g2321
ag2328
ag2335
ag2342
ag2349
ag2356
ag2363
asg21
I0
sg66
S'1143'
p2368
sba(iArchitecture
Cluster
p2369
(dp2370
g7
(lp2371
(iArchitecture
Entity
p2372
(dp2373
g11
(lp2374
sg13
S'android.text.method.MultiTapKeyListener'
p2375
sg15
(lp2376
sg17
(lp2377
sg19
(lp2378
sg21
I0
sba(iArchitecture
Entity
p2379
(dp2380
g11
(lp2381
sg13
S'android.text.method.MultiTapKeyListener$Timeout'
p2382
sg15
(lp2383
sg17
(lp2384
sg19
(lp2385
sg21
I0
sba(iArchitecture
Entity
p2386
(dp2387
g11
(lp2388
sg13
S'android.text.method.QwertyKeyListener'
p2389
sg15
(lp2390
sg17
(lp2391
sg19
(lp2392
sg21
I0
sba(iArchitecture
Entity
p2393
(dp2394
g11
(lp2395
sg13
S'android.text.method.QwertyKeyListener$Replaced'
p2396
sg15
(lp2397
sg17
(lp2398
sg19
(lp2399
sg21
I0
sbasg64
(lp2400
g2375
ag2382
ag2389
ag2396
asg21
I0
sg66
S'1144'
p2401
sba(iArchitecture
Cluster
p2402
(dp2403
g7
(lp2404
(iArchitecture
Entity
p2405
(dp2406
g11
(lp2407
sg13
S'android.widget.TimePicker'
p2408
sg15
(lp2409
sg17
(lp2410
sg19
(lp2411
sg21
I0
sba(iArchitecture
Entity
p2412
(dp2413
g11
(lp2414
sg13
S'android.widget.TimePicker$AbstractTimePickerDelegate'
p2415
sg15
(lp2416
sg17
(lp2417
sg19
(lp2418
sg21
I0
sba(iArchitecture
Entity
p2419
(dp2420
g11
(lp2421
sg13
S'android.widget.TimePicker$OnTimeChangedListener'
p2422
sg15
(lp2423
sg17
(lp2424
sg19
(lp2425
sg21
I0
sba(iArchitecture
Entity
p2426
(dp2427
g11
(lp2428
sg13
S'android.widget.TimePicker$TimePickerDelegate'
p2429
sg15
(lp2430
sg17
(lp2431
sg19
(lp2432
sg21
I0
sba(iArchitecture
Entity
p2433
(dp2434
g11
(lp2435
sg13
S'android.widget.TimePicker$ValidationCallback'
p2436
sg15
(lp2437
sg17
(lp2438
sg19
(lp2439
sg21
I0
sba(iArchitecture
Entity
p2440
(dp2441
g11
(lp2442
sg13
S'android.widget.TimePickerClockDelegate'
p2443
sg15
(lp2444
sg17
(lp2445
sg19
(lp2446
sg21
I0
sba(iArchitecture
Entity
p2447
(dp2448
g11
(lp2449
sg13
S'android.widget.TimePickerClockDelegate$1'
p2450
sg15
(lp2451
sg17
(lp2452
sg19
(lp2453
sg21
I0
sba(iArchitecture
Entity
p2454
(dp2455
g11
(lp2456
sg13
S'android.widget.TimePickerClockDelegate$2'
p2457
sg15
(lp2458
sg17
(lp2459
sg19
(lp2460
sg21
I0
sba(iArchitecture
Entity
p2461
(dp2462
g11
(lp2463
sg13
S'android.widget.TimePickerClockDelegate$3'
p2464
sg15
(lp2465
sg17
(lp2466
sg19
(lp2467
sg21
I0
sba(iArchitecture
Entity
p2468
(dp2469
g11
(lp2470
sg13
S'android.widget.TimePickerClockDelegate$ClickActionDelegate'
p2471
sg15
(lp2472
sg17
(lp2473
sg19
(lp2474
sg21
I0
sba(iArchitecture
Entity
p2475
(dp2476
g11
(lp2477
sg13
S'android.widget.TimePickerClockDelegate$Node'
p2478
sg15
(lp2479
sg17
(lp2480
sg19
(lp2481
sg21
I0
sba(iArchitecture
Entity
p2482
(dp2483
g11
(lp2484
sg13
S'android.widget.TimePickerClockDelegate$SavedState'
p2485
sg15
(lp2486
sg17
(lp2487
sg19
(lp2488
sg21
I0
sba(iArchitecture
Entity
p2489
(dp2490
g11
(lp2491
sg13
S'android.widget.TimePickerClockDelegate$SavedState$1'
p2492
sg15
(lp2493
sg17
(lp2494
sg19
(lp2495
sg21
I0
sba(iArchitecture
Entity
p2496
(dp2497
g11
(lp2498
sg13
S'android.widget.TimePickerSpinnerDelegate'
p2499
sg15
(lp2500
sg17
(lp2501
sg19
(lp2502
sg21
I0
sba(iArchitecture
Entity
p2503
(dp2504
g11
(lp2505
sg13
S'android.widget.TimePickerSpinnerDelegate$1'
p2506
sg15
(lp2507
sg17
(lp2508
sg19
(lp2509
sg21
I0
sba(iArchitecture
Entity
p2510
(dp2511
g11
(lp2512
sg13
S'android.widget.TimePickerSpinnerDelegate$2'
p2513
sg15
(lp2514
sg17
(lp2515
sg19
(lp2516
sg21
I0
sba(iArchitecture
Entity
p2517
(dp2518
g11
(lp2519
sg13
S'android.widget.TimePickerSpinnerDelegate$3'
p2520
sg15
(lp2521
sg17
(lp2522
sg19
(lp2523
sg21
I0
sba(iArchitecture
Entity
p2524
(dp2525
g11
(lp2526
sg13
S'android.widget.TimePickerSpinnerDelegate$4'
p2527
sg15
(lp2528
sg17
(lp2529
sg19
(lp2530
sg21
I0
sba(iArchitecture
Entity
p2531
(dp2532
g11
(lp2533
sg13
S'android.widget.TimePickerSpinnerDelegate$SavedState'
p2534
sg15
(lp2535
sg17
(lp2536
sg19
(lp2537
sg21
I0
sba(iArchitecture
Entity
p2538
(dp2539
g11
(lp2540
sg13
S'android.widget.TimePickerSpinnerDelegate$SavedState$1'
p2541
sg15
(lp2542
sg17
(lp2543
sg19
(lp2544
sg21
I0
sbasg64
(lp2545
g2408
ag2415
ag2422
ag2429
ag2436
ag2443
ag2450
ag2457
ag2464
ag2471
ag2478
ag2485
ag2492
ag2499
ag2506
ag2513
ag2520
ag2527
ag2534
ag2541
asg21
I0
sg66
S'1145'
p2546
sba(iArchitecture
Cluster
p2547
(dp2548
g7
(lp2549
(iArchitecture
Entity
p2550
(dp2551
g11
(lp2552
sg13
S'android.print.PrinterDiscoverySession'
p2553
sg15
(lp2554
sg17
(lp2555
sg19
(lp2556
sg21
I0
sba(iArchitecture
Entity
p2557
(dp2558
g11
(lp2559
sg13
S'android.print.PrinterDiscoverySession$OnPrintersChangeListener'
p2560
sg15
(lp2561
sg17
(lp2562
sg19
(lp2563
sg21
I0
sba(iArchitecture
Entity
p2564
(dp2565
g11
(lp2566
sg13
S'android.print.PrinterDiscoverySession$PrinterDiscoveryObserver'
p2567
sg15
(lp2568
sg17
(lp2569
sg19
(lp2570
sg21
I0
sba(iArchitecture
Entity
p2571
(dp2572
g11
(lp2573
sg13
S'android.print.PrinterDiscoverySession$SessionHandler'
p2574
sg15
(lp2575
sg17
(lp2576
sg19
(lp2577
sg21
I0
sba(iArchitecture
Entity
p2578
(dp2579
g11
(lp2580
sg13
S'android.printservice.PrinterDiscoverySession'
p2581
sg15
(lp2582
sg17
(lp2583
sg19
(lp2584
sg21
I0
sbasg64
(lp2585
g2553
ag2560
ag2567
ag2574
ag2581
asg21
I0
sg66
S'1146'
p2586
sba(iArchitecture
Cluster
p2587
(dp2588
g7
(lp2589
(iArchitecture
Entity
p2590
(dp2591
g11
(lp2592
sg13
S'android.location.LocationProvider'
p2593
sg15
(lp2594
sg17
(lp2595
sg19
(lp2596
sg21
I0
sba(iArchitecture
Entity
p2597
(dp2598
g11
(lp2599
sg13
S'com.android.internal.location.ProviderProperties'
p2600
sg15
(lp2601
sg17
(lp2602
sg19
(lp2603
sg21
I0
sba(iArchitecture
Entity
p2604
(dp2605
g11
(lp2606
sg13
S'com.android.internal.location.ProviderProperties$1'
p2607
sg15
(lp2608
sg17
(lp2609
sg19
(lp2610
sg21
I0
sbasg64
(lp2611
g2593
ag2600
ag2607
asg21
I0
sg66
S'1147'
p2612
sba(iArchitecture
Cluster
p2613
(dp2614
g7
(lp2615
(iArchitecture
Entity
p2616
(dp2617
g11
(lp2618
sg13
S'android.hardware.usb.UsbManager'
p2619
sg15
(lp2620
sg17
(lp2621
sg19
(lp2622
sg21
I0
sba(iArchitecture
Entity
p2623
(dp2624
g11
(lp2625
sg13
S'com.android.server.usb.UsbDeviceManager'
p2626
sg15
(lp2627
sg17
(lp2628
sg19
(lp2629
sg21
I0
sba(iArchitecture
Entity
p2630
(dp2631
g11
(lp2632
sg13
S'com.android.server.usb.UsbDeviceManager$1'
p2633
sg15
(lp2634
sg17
(lp2635
sg19
(lp2636
sg21
I0
sba(iArchitecture
Entity
p2637
(dp2638
g11
(lp2639
sg13
S'com.android.server.usb.UsbDeviceManager$AdbSettingsObserver'
p2640
sg15
(lp2641
sg17
(lp2642
sg19
(lp2643
sg21
I0
sba(iArchitecture
Entity
p2644
(dp2645
g11
(lp2646
sg13
S'com.android.server.usb.UsbDeviceManager$UsbHandler'
p2647
sg15
(lp2648
sg17
(lp2649
sg19
(lp2650
sg21
I0
sba(iArchitecture
Entity
p2651
(dp2652
g11
(lp2653
sg13
S'com.android.server.usb.UsbService'
p2654
sg15
(lp2655
sg17
(lp2656
sg19
(lp2657
sg21
I0
sba(iArchitecture
Entity
p2658
(dp2659
g11
(lp2660
sg13
S'com.android.server.usb.UsbService$1'
p2661
sg15
(lp2662
sg17
(lp2663
sg19
(lp2664
sg21
I0
sba(iArchitecture
Entity
p2665
(dp2666
g11
(lp2667
sg13
S'com.android.server.usb.UsbService$Lifecycle'
p2668
sg15
(lp2669
sg17
(lp2670
sg19
(lp2671
sg21
I0
sbasg64
(lp2672
g2619
ag2626
ag2633
ag2640
ag2647
ag2654
ag2661
ag2668
asg21
I0
sg66
S'1148'
p2673
sba(iArchitecture
Cluster
p2674
(dp2675
g7
(lp2676
(iArchitecture
Entity
p2677
(dp2678
g11
(lp2679
sg13
S'android.renderscript.Matrix2f'
p2680
sg15
(lp2681
sg17
(lp2682
sg19
(lp2683
sg21
I0
sba(iArchitecture
Entity
p2684
(dp2685
g11
(lp2686
sg13
S'android.renderscript.Matrix3f'
p2687
sg15
(lp2688
sg17
(lp2689
sg19
(lp2690
sg21
I0
sba(iArchitecture
Entity
p2691
(dp2692
g11
(lp2693
sg13
S'android.renderscript.Matrix4f'
p2694
sg15
(lp2695
sg17
(lp2696
sg19
(lp2697
sg21
I0
sbasg64
(lp2698
g2680
ag2687
ag2694
asg21
I0
sg66
S'1149'
p2699
sba(iArchitecture
Cluster
p2700
(dp2701
g7
(lp2702
(iArchitecture
Entity
p2703
(dp2704
g11
(lp2705
sg13
S'android.media.ImageUtils'
p2706
sg15
(lp2707
sg17
(lp2708
sg19
(lp2709
sg21
I0
sbasg64
(lp2710
g2706
asg21
I0
sg66
S'115'
p2711
sba(iArchitecture
Cluster
p2712
(dp2713
g7
(lp2714
(iArchitecture
Entity
p2715
(dp2716
g11
(lp2717
sg13
S'com.android.server.display.WifiDisplayAdapter'
p2718
sg15
(lp2719
sg17
(lp2720
sg19
(lp2721
sg21
I0
sba(iArchitecture
Entity
p2722
(dp2723
g11
(lp2724
sg13
S'com.android.server.display.WifiDisplayAdapter$1'
p2725
sg15
(lp2726
sg17
(lp2727
sg19
(lp2728
sg21
I0
sba(iArchitecture
Entity
p2729
(dp2730
g11
(lp2731
sg13
S'com.android.server.display.WifiDisplayAdapter$2'
p2732
sg15
(lp2733
sg17
(lp2734
sg19
(lp2735
sg21
I0
sba(iArchitecture
Entity
p2736
(dp2737
g11
(lp2738
sg13
S'com.android.server.display.WifiDisplayAdapter$3'
p2739
sg15
(lp2740
sg17
(lp2741
sg19
(lp2742
sg21
I0
sba(iArchitecture
Entity
p2743
(dp2744
g11
(lp2745
sg13
S'com.android.server.display.WifiDisplayAdapter$4'
p2746
sg15
(lp2747
sg17
(lp2748
sg19
(lp2749
sg21
I0
sba(iArchitecture
Entity
p2750
(dp2751
g11
(lp2752
sg13
S'com.android.server.display.WifiDisplayAdapter$5'
p2753
sg15
(lp2754
sg17
(lp2755
sg19
(lp2756
sg21
I0
sba(iArchitecture
Entity
p2757
(dp2758
g11
(lp2759
sg13
S'com.android.server.display.WifiDisplayAdapter$6'
p2760
sg15
(lp2761
sg17
(lp2762
sg19
(lp2763
sg21
I0
sba(iArchitecture
Entity
p2764
(dp2765
g11
(lp2766
sg13
S'com.android.server.display.WifiDisplayAdapter$7'
p2767
sg15
(lp2768
sg17
(lp2769
sg19
(lp2770
sg21
I0
sba(iArchitecture
Entity
p2771
(dp2772
g11
(lp2773
sg13
S'com.android.server.display.WifiDisplayAdapter$8'
p2774
sg15
(lp2775
sg17
(lp2776
sg19
(lp2777
sg21
I0
sba(iArchitecture
Entity
p2778
(dp2779
g11
(lp2780
sg13
S'com.android.server.display.WifiDisplayAdapter$9'
p2781
sg15
(lp2782
sg17
(lp2783
sg19
(lp2784
sg21
I0
sba(iArchitecture
Entity
p2785
(dp2786
g11
(lp2787
sg13
S'com.android.server.display.WifiDisplayAdapter$WifiDisplayDevice'
p2788
sg15
(lp2789
sg17
(lp2790
sg19
(lp2791
sg21
I0
sba(iArchitecture
Entity
p2792
(dp2793
g11
(lp2794
sg13
S'com.android.server.display.WifiDisplayAdapter$WifiDisplayHandler'
p2795
sg15
(lp2796
sg17
(lp2797
sg19
(lp2798
sg21
I0
sba(iArchitecture
Entity
p2799
(dp2800
g11
(lp2801
sg13
S'com.android.server.display.WifiDisplayController'
p2802
sg15
(lp2803
sg17
(lp2804
sg19
(lp2805
sg21
I0
sba(iArchitecture
Entity
p2806
(dp2807
g11
(lp2808
sg13
S'com.android.server.display.WifiDisplayController$1'
p2809
sg15
(lp2810
sg17
(lp2811
sg19
(lp2812
sg21
I0
sba(iArchitecture
Entity
p2813
(dp2814
g11
(lp2815
sg13
S'com.android.server.display.WifiDisplayController$10'
p2816
sg15
(lp2817
sg17
(lp2818
sg19
(lp2819
sg21
I0
sba(iArchitecture
Entity
p2820
(dp2821
g11
(lp2822
sg13
S'com.android.server.display.WifiDisplayController$11'
p2823
sg15
(lp2824
sg17
(lp2825
sg19
(lp2826
sg21
I0
sba(iArchitecture
Entity
p2827
(dp2828
g11
(lp2829
sg13
S'com.android.server.display.WifiDisplayController$12'
p2830
sg15
(lp2831
sg17
(lp2832
sg19
(lp2833
sg21
I0
sba(iArchitecture
Entity
p2834
(dp2835
g11
(lp2836
sg13
S'com.android.server.display.WifiDisplayController$13'
p2837
sg15
(lp2838
sg17
(lp2839
sg19
(lp2840
sg21
I0
sba(iArchitecture
Entity
p2841
(dp2842
g11
(lp2843
sg13
S'com.android.server.display.WifiDisplayController$14'
p2844
sg15
(lp2845
sg17
(lp2846
sg19
(lp2847
sg21
I0
sba(iArchitecture
Entity
p2848
(dp2849
g11
(lp2850
sg13
S'com.android.server.display.WifiDisplayController$15'
p2851
sg15
(lp2852
sg17
(lp2853
sg19
(lp2854
sg21
I0
sba(iArchitecture
Entity
p2855
(dp2856
g11
(lp2857
sg13
S'com.android.server.display.WifiDisplayController$16'
p2858
sg15
(lp2859
sg17
(lp2860
sg19
(lp2861
sg21
I0
sba(iArchitecture
Entity
p2862
(dp2863
g11
(lp2864
sg13
S'com.android.server.display.WifiDisplayController$17'
p2865
sg15
(lp2866
sg17
(lp2867
sg19
(lp2868
sg21
I0
sba(iArchitecture
Entity
p2869
(dp2870
g11
(lp2871
sg13
S'com.android.server.display.WifiDisplayController$18'
p2872
sg15
(lp2873
sg17
(lp2874
sg19
(lp2875
sg21
I0
sba(iArchitecture
Entity
p2876
(dp2877
g11
(lp2878
sg13
S'com.android.server.display.WifiDisplayController$19'
p2879
sg15
(lp2880
sg17
(lp2881
sg19
(lp2882
sg21
I0
sba(iArchitecture
Entity
p2883
(dp2884
g11
(lp2885
sg13
S'com.android.server.display.WifiDisplayController$2'
p2886
sg15
(lp2887
sg17
(lp2888
sg19
(lp2889
sg21
I0
sba(iArchitecture
Entity
p2890
(dp2891
g11
(lp2892
sg13
S'com.android.server.display.WifiDisplayController$20'
p2893
sg15
(lp2894
sg17
(lp2895
sg19
(lp2896
sg21
I0
sba(iArchitecture
Entity
p2897
(dp2898
g11
(lp2899
sg13
S'com.android.server.display.WifiDisplayController$21'
p2900
sg15
(lp2901
sg17
(lp2902
sg19
(lp2903
sg21
I0
sba(iArchitecture
Entity
p2904
(dp2905
g11
(lp2906
sg13
S'com.android.server.display.WifiDisplayController$3'
p2907
sg15
(lp2908
sg17
(lp2909
sg19
(lp2910
sg21
I0
sba(iArchitecture
Entity
p2911
(dp2912
g11
(lp2913
sg13
S'com.android.server.display.WifiDisplayController$4'
p2914
sg15
(lp2915
sg17
(lp2916
sg19
(lp2917
sg21
I0
sba(iArchitecture
Entity
p2918
(dp2919
g11
(lp2920
sg13
S'com.android.server.display.WifiDisplayController$5'
p2921
sg15
(lp2922
sg17
(lp2923
sg19
(lp2924
sg21
I0
sba(iArchitecture
Entity
p2925
(dp2926
g11
(lp2927
sg13
S'com.android.server.display.WifiDisplayController$6'
p2928
sg15
(lp2929
sg17
(lp2930
sg19
(lp2931
sg21
I0
sba(iArchitecture
Entity
p2932
(dp2933
g11
(lp2934
sg13
S'com.android.server.display.WifiDisplayController$7'
p2935
sg15
(lp2936
sg17
(lp2937
sg19
(lp2938
sg21
I0
sba(iArchitecture
Entity
p2939
(dp2940
g11
(lp2941
sg13
S'com.android.server.display.WifiDisplayController$8'
p2942
sg15
(lp2943
sg17
(lp2944
sg19
(lp2945
sg21
I0
sba(iArchitecture
Entity
p2946
(dp2947
g11
(lp2948
sg13
S'com.android.server.display.WifiDisplayController$9'
p2949
sg15
(lp2950
sg17
(lp2951
sg19
(lp2952
sg21
I0
sba(iArchitecture
Entity
p2953
(dp2954
g11
(lp2955
sg13
S'com.android.server.display.WifiDisplayController$Listener'
p2956
sg15
(lp2957
sg17
(lp2958
sg19
(lp2959
sg21
I0
sbasg64
(lp2960
g2718
ag2725
ag2732
ag2739
ag2746
ag2753
ag2760
ag2767
ag2774
ag2781
ag2788
ag2795
ag2802
ag2809
ag2816
ag2823
ag2830
ag2837
ag2844
ag2851
ag2858
ag2865
ag2872
ag2879
ag2886
ag2893
ag2900
ag2907
ag2914
ag2921
ag2928
ag2935
ag2942
ag2949
ag2956
asg21
I0
sg66
S'1150'
p2961
sba(iArchitecture
Cluster
p2962
(dp2963
g7
(lp2964
(iArchitecture
Entity
p2965
(dp2966
g11
(lp2967
sg13
S'junit.framework.TestCase'
p2968
sg15
(lp2969
sg17
(lp2970
sg19
(lp2971
sg21
I0
sba(iArchitecture
Entity
p2972
(dp2973
g11
(lp2974
sg13
S'junit.framework.TestSuite'
p2975
sg15
(lp2976
sg17
(lp2977
sg19
(lp2978
sg21
I0
sbasg64
(lp2979
g2968
ag2975
asg21
I0
sg66
S'1151'
p2980
sba(iArchitecture
Cluster
p2981
(dp2982
g7
(lp2983
(iArchitecture
Entity
p2984
(dp2985
g11
(lp2986
sg13
S'android.os.Registrant'
p2987
sg15
(lp2988
sg17
(lp2989
sg19
(lp2990
sg21
I0
sba(iArchitecture
Entity
p2991
(dp2992
g11
(lp2993
sg13
S'android.os.RegistrantList'
p2994
sg15
(lp2995
sg17
(lp2996
sg19
(lp2997
sg21
I0
sbasg64
(lp2998
g2987
ag2994
asg21
I0
sg66
S'1152'
p2999
sba(iArchitecture
Cluster
p3000
(dp3001
g7
(lp3002
(iArchitecture
Entity
p3003
(dp3004
g11
(lp3005
sg13
S'android.bluetooth.BluetoothHealth'
p3006
sg15
(lp3007
sg17
(lp3008
sg19
(lp3009
sg21
I0
sba(iArchitecture
Entity
p3010
(dp3011
g11
(lp3012
sg13
S'android.bluetooth.BluetoothHealth$1'
p3013
sg15
(lp3014
sg17
(lp3015
sg19
(lp3016
sg21
I0
sba(iArchitecture
Entity
p3017
(dp3018
g11
(lp3019
sg13
S'android.bluetooth.BluetoothHealth$2'
p3020
sg15
(lp3021
sg17
(lp3022
sg19
(lp3023
sg21
I0
sba(iArchitecture
Entity
p3024
(dp3025
g11
(lp3026
sg13
S'android.bluetooth.BluetoothHealth$BluetoothHealthCallbackWrapper'
p3027
sg15
(lp3028
sg17
(lp3029
sg19
(lp3030
sg21
I0
sba(iArchitecture
Entity
p3031
(dp3032
g11
(lp3033
sg13
S'android.net.nsd.NsdManager'
p3034
sg15
(lp3035
sg17
(lp3036
sg19
(lp3037
sg21
I0
sba(iArchitecture
Entity
p3038
(dp3039
g11
(lp3040
sg13
S'android.net.nsd.NsdManager$DiscoveryListener'
p3041
sg15
(lp3042
sg17
(lp3043
sg19
(lp3044
sg21
I0
sba(iArchitecture
Entity
p3045
(dp3046
g11
(lp3047
sg13
S'android.net.nsd.NsdManager$RegistrationListener'
p3048
sg15
(lp3049
sg17
(lp3050
sg19
(lp3051
sg21
I0
sba(iArchitecture
Entity
p3052
(dp3053
g11
(lp3054
sg13
S'android.net.nsd.NsdManager$ResolveListener'
p3055
sg15
(lp3056
sg17
(lp3057
sg19
(lp3058
sg21
I0
sba(iArchitecture
Entity
p3059
(dp3060
g11
(lp3061
sg13
S'android.net.nsd.NsdManager$ServiceHandler'
p3062
sg15
(lp3063
sg17
(lp3064
sg19
(lp3065
sg21
I0
sbasg64
(lp3066
g3006
ag3013
ag3020
ag3027
ag3034
ag3041
ag3048
ag3055
ag3062
asg21
I0
sg66
S'1153'
p3067
sba(iArchitecture
Cluster
p3068
(dp3069
g7
(lp3070
(iArchitecture
Entity
p3071
(dp3072
g11
(lp3073
sg13
S'com.android.server.am.ActivityStack'
p3074
sg15
(lp3075
sg17
(lp3076
sg19
(lp3077
sg21
I0
sba(iArchitecture
Entity
p3078
(dp3079
g11
(lp3080
sg13
S'com.android.server.am.ActivityStack$ActivityStackHandler'
p3081
sg15
(lp3082
sg17
(lp3083
sg19
(lp3084
sg21
I0
sba(iArchitecture
Entity
p3085
(dp3086
g11
(lp3087
sg13
S'com.android.server.am.ActivityStack$ActivityState'
p3088
sg15
(lp3089
sg17
(lp3090
sg19
(lp3091
sg21
I0
sba(iArchitecture
Entity
p3092
(dp3093
g11
(lp3094
sg13
S'com.android.server.am.ActivityStack$ScheduleDestroyArgs'
p3095
sg15
(lp3096
sg17
(lp3097
sg19
(lp3098
sg21
I0
sba(iArchitecture
Entity
p3099
(dp3100
g11
(lp3101
sg13
S'com.android.server.am.TaskRecord'
p3102
sg15
(lp3103
sg17
(lp3104
sg19
(lp3105
sg21
I0
sbasg64
(lp3106
g3074
ag3081
ag3088
ag3095
ag3102
asg21
I0
sg66
S'1154'
p3107
sba(iArchitecture
Cluster
p3108
(dp3109
g7
(lp3110
(iArchitecture
Entity
p3111
(dp3112
g11
(lp3113
sg13
S'android.bluetooth.BluetoothActivityEnergyInfo'
p3114
sg15
(lp3115
sg17
(lp3116
sg19
(lp3117
sg21
I0
sba(iArchitecture
Entity
p3118
(dp3119
g11
(lp3120
sg13
S'android.bluetooth.BluetoothActivityEnergyInfo$1'
p3121
sg15
(lp3122
sg17
(lp3123
sg19
(lp3124
sg21
I0
sba(iArchitecture
Entity
p3125
(dp3126
g11
(lp3127
sg13
S'android.net.wifi.WifiActivityEnergyInfo'
p3128
sg15
(lp3129
sg17
(lp3130
sg19
(lp3131
sg21
I0
sba(iArchitecture
Entity
p3132
(dp3133
g11
(lp3134
sg13
S'android.net.wifi.WifiActivityEnergyInfo$1'
p3135
sg15
(lp3136
sg17
(lp3137
sg19
(lp3138
sg21
I0
sbasg64
(lp3139
g3114
ag3121
ag3128
ag3135
asg21
I0
sg66
S'1155'
p3140
sba(iArchitecture
Cluster
p3141
(dp3142
g7
(lp3143
(iArchitecture
Entity
p3144
(dp3145
g11
(lp3146
sg13
S'android.hardware.location.GeofenceHardwareCallback'
p3147
sg15
(lp3148
sg17
(lp3149
sg19
(lp3150
sg21
I0
sba(iArchitecture
Entity
p3151
(dp3152
g11
(lp3153
sg13
S'android.hardware.location.GeofenceHardwareMonitorCallback'
p3154
sg15
(lp3155
sg17
(lp3156
sg19
(lp3157
sg21
I0
sbasg64
(lp3158
g3147
ag3154
asg21
I0
sg66
S'1156'
p3159
sba(iArchitecture
Cluster
p3160
(dp3161
g7
(lp3162
(iArchitecture
Entity
p3163
(dp3164
g11
(lp3165
sg13
S'android.hardware.location.ActivityChangedEvent'
p3166
sg15
(lp3167
sg17
(lp3168
sg19
(lp3169
sg21
I0
sba(iArchitecture
Entity
p3170
(dp3171
g11
(lp3172
sg13
S'android.hardware.location.ActivityChangedEvent$1'
p3173
sg15
(lp3174
sg17
(lp3175
sg19
(lp3176
sg21
I0
sba(iArchitecture
Entity
p3177
(dp3178
g11
(lp3179
sg13
S'android.hardware.location.ActivityRecognitionEvent'
p3180
sg15
(lp3181
sg17
(lp3182
sg19
(lp3183
sg21
I0
sba(iArchitecture
Entity
p3184
(dp3185
g11
(lp3186
sg13
S'android.hardware.location.ActivityRecognitionEvent$1'
p3187
sg15
(lp3188
sg17
(lp3189
sg19
(lp3190
sg21
I0
sba(iArchitecture
Entity
p3191
(dp3192
g11
(lp3193
sg13
S'android.hardware.location.ActivityRecognitionHardware'
p3194
sg15
(lp3195
sg17
(lp3196
sg19
(lp3197
sg21
I0
sba(iArchitecture
Entity
p3198
(dp3199
g11
(lp3200
sg13
S'android.hardware.location.ActivityRecognitionHardware$Event'
p3201
sg15
(lp3202
sg17
(lp3203
sg19
(lp3204
sg21
I0
sbasg64
(lp3205
g3166
ag3173
ag3180
ag3187
ag3194
ag3201
asg21
I0
sg66
S'1157'
p3206
sba(iArchitecture
Cluster
p3207
(dp3208
g7
(lp3209
(iArchitecture
Entity
p3210
(dp3211
g11
(lp3212
sg13
S'android.ddm.DdmHandleAppName'
p3213
sg15
(lp3214
sg17
(lp3215
sg19
(lp3216
sg21
I0
sba(iArchitecture
Entity
p3217
(dp3218
g11
(lp3219
sg13
S'android.ddm.DdmHandleExit'
p3220
sg15
(lp3221
sg17
(lp3222
sg19
(lp3223
sg21
I0
sba(iArchitecture
Entity
p3224
(dp3225
g11
(lp3226
sg13
S'android.ddm.DdmHandleHeap'
p3227
sg15
(lp3228
sg17
(lp3229
sg19
(lp3230
sg21
I0
sba(iArchitecture
Entity
p3231
(dp3232
g11
(lp3233
sg13
S'android.ddm.DdmHandleHello'
p3234
sg15
(lp3235
sg17
(lp3236
sg19
(lp3237
sg21
I0
sba(iArchitecture
Entity
p3238
(dp3239
g11
(lp3240
sg13
S'android.ddm.DdmHandleNativeHeap'
p3241
sg15
(lp3242
sg17
(lp3243
sg19
(lp3244
sg21
I0
sba(iArchitecture
Entity
p3245
(dp3246
g11
(lp3247
sg13
S'android.ddm.DdmHandleProfiling'
p3248
sg15
(lp3249
sg17
(lp3250
sg19
(lp3251
sg21
I0
sba(iArchitecture
Entity
p3252
(dp3253
g11
(lp3254
sg13
S'android.ddm.DdmHandleThread'
p3255
sg15
(lp3256
sg17
(lp3257
sg19
(lp3258
sg21
I0
sbasg64
(lp3259
g3213
ag3220
ag3227
ag3234
ag3241
ag3248
ag3255
asg21
I0
sg66
S'1158'
p3260
sba(iArchitecture
Cluster
p3261
(dp3262
g7
(lp3263
(iArchitecture
Entity
p3264
(dp3265
g11
(lp3266
sg13
S'android.preference.GenericInflater'
p3267
sg15
(lp3268
sg17
(lp3269
sg19
(lp3270
sg21
I0
sba(iArchitecture
Entity
p3271
(dp3272
g11
(lp3273
sg13
S'android.preference.GenericInflater$Factory'
p3274
sg15
(lp3275
sg17
(lp3276
sg19
(lp3277
sg21
I0
sba(iArchitecture
Entity
p3278
(dp3279
g11
(lp3280
sg13
S'android.preference.GenericInflater$FactoryMerger'
p3281
sg15
(lp3282
sg17
(lp3283
sg19
(lp3284
sg21
I0
sba(iArchitecture
Entity
p3285
(dp3286
g11
(lp3287
sg13
S'android.preference.GenericInflater$Parent'
p3288
sg15
(lp3289
sg17
(lp3290
sg19
(lp3291
sg21
I0
sba(iArchitecture
Entity
p3292
(dp3293
g11
(lp3294
sg13
S'android.view.LayoutInflater'
p3295
sg15
(lp3296
sg17
(lp3297
sg19
(lp3298
sg21
I0
sba(iArchitecture
Entity
p3299
(dp3300
g11
(lp3301
sg13
S'android.view.LayoutInflater$BlinkLayout'
p3302
sg15
(lp3303
sg17
(lp3304
sg19
(lp3305
sg21
I0
sba(iArchitecture
Entity
p3306
(dp3307
g11
(lp3308
sg13
S'android.view.LayoutInflater$BlinkLayout$1'
p3309
sg15
(lp3310
sg17
(lp3311
sg19
(lp3312
sg21
I0
sba(iArchitecture
Entity
p3313
(dp3314
g11
(lp3315
sg13
S'android.view.LayoutInflater$Factory'
p3316
sg15
(lp3317
sg17
(lp3318
sg19
(lp3319
sg21
I0
sba(iArchitecture
Entity
p3320
(dp3321
g11
(lp3322
sg13
S'android.view.LayoutInflater$Factory2'
p3323
sg15
(lp3324
sg17
(lp3325
sg19
(lp3326
sg21
I0
sba(iArchitecture
Entity
p3327
(dp3328
g11
(lp3329
sg13
S'android.view.LayoutInflater$FactoryMerger'
p3330
sg15
(lp3331
sg17
(lp3332
sg19
(lp3333
sg21
I0
sba(iArchitecture
Entity
p3334
(dp3335
g11
(lp3336
sg13
S'android.view.LayoutInflater$Filter'
p3337
sg15
(lp3338
sg17
(lp3339
sg19
(lp3340
sg21
I0
sbasg64
(lp3341
g3267
ag3274
ag3281
ag3288
ag3295
ag3302
ag3309
ag3316
ag3323
ag3330
ag3337
asg21
I0
sg66
S'1159'
p3342
sba(iArchitecture
Cluster
p3343
(dp3344
g7
(lp3345
(iArchitecture
Entity
p3346
(dp3347
g11
(lp3348
sg13
S'android.graphics.ColorMatrix'
p3349
sg15
(lp3350
sg17
(lp3351
sg19
(lp3352
sg21
I0
sbasg64
(lp3353
g3349
asg21
I0
sg66
S'116'
p3354
sba(iArchitecture
Cluster
p3355
(dp3356
g7
(lp3357
(iArchitecture
Entity
p3358
(dp3359
g11
(lp3360
sg13
S'android.renderscript.RSSurfaceView'
p3361
sg15
(lp3362
sg17
(lp3363
sg19
(lp3364
sg21
I0
sba(iArchitecture
Entity
p3365
(dp3366
g11
(lp3367
sg13
S'android.renderscript.RSTextureView'
p3368
sg15
(lp3369
sg17
(lp3370
sg19
(lp3371
sg21
I0
sbasg64
(lp3372
g3361
ag3368
asg21
I0
sg66
S'1160'
p3373
sba(iArchitecture
Cluster
p3374
(dp3375
g7
(lp3376
(iArchitecture
Entity
p3377
(dp3378
g11
(lp3379
sg13
S'android.widget.CursorAdapter'
p3380
sg15
(lp3381
sg17
(lp3382
sg19
(lp3383
sg21
I0
sba(iArchitecture
Entity
p3384
(dp3385
g11
(lp3386
sg13
S'android.widget.CursorAdapter$ChangeObserver'
p3387
sg15
(lp3388
sg17
(lp3389
sg19
(lp3390
sg21
I0
sba(iArchitecture
Entity
p3391
(dp3392
g11
(lp3393
sg13
S'android.widget.CursorAdapter$MyDataSetObserver'
p3394
sg15
(lp3395
sg17
(lp3396
sg19
(lp3397
sg21
I0
sba(iArchitecture
Entity
p3398
(dp3399
g11
(lp3400
sg13
S'android.widget.CursorTreeAdapter'
p3401
sg15
(lp3402
sg17
(lp3403
sg19
(lp3404
sg21
I0
sba(iArchitecture
Entity
p3405
(dp3406
g11
(lp3407
sg13
S'android.widget.CursorTreeAdapter$MyCursorHelper'
p3408
sg15
(lp3409
sg17
(lp3410
sg19
(lp3411
sg21
I0
sba(iArchitecture
Entity
p3412
(dp3413
g11
(lp3414
sg13
S'android.widget.CursorTreeAdapter$MyCursorHelper$MyContentObserver'
p3415
sg15
(lp3416
sg17
(lp3417
sg19
(lp3418
sg21
I0
sba(iArchitecture
Entity
p3419
(dp3420
g11
(lp3421
sg13
S'android.widget.CursorTreeAdapter$MyCursorHelper$MyDataSetObserver'
p3422
sg15
(lp3423
sg17
(lp3424
sg19
(lp3425
sg21
I0
sbasg64
(lp3426
g3380
ag3387
ag3394
ag3401
ag3408
ag3415
ag3422
asg21
I0
sg66
S'1161'
p3427
sba(iArchitecture
Cluster
p3428
(dp3429
g7
(lp3430
(iArchitecture
Entity
p3431
(dp3432
g11
(lp3433
sg13
S'com.android.server.notification.CountdownConditionProvider'
p3434
sg15
(lp3435
sg17
(lp3436
sg19
(lp3437
sg21
I0
sba(iArchitecture
Entity
p3438
(dp3439
g11
(lp3440
sg13
S'com.android.server.notification.CountdownConditionProvider$Receiver'
p3441
sg15
(lp3442
sg17
(lp3443
sg19
(lp3444
sg21
I0
sba(iArchitecture
Entity
p3445
(dp3446
g11
(lp3447
sg13
S'com.android.server.notification.EventConditionProvider'
p3448
sg15
(lp3449
sg17
(lp3450
sg19
(lp3451
sg21
I0
sba(iArchitecture
Entity
p3452
(dp3453
g11
(lp3454
sg13
S'com.android.server.notification.EventConditionProvider$1'
p3455
sg15
(lp3456
sg17
(lp3457
sg19
(lp3458
sg21
I0
sba(iArchitecture
Entity
p3459
(dp3460
g11
(lp3461
sg13
S'com.android.server.notification.EventConditionProvider$2'
p3462
sg15
(lp3463
sg17
(lp3464
sg19
(lp3465
sg21
I0
sba(iArchitecture
Entity
p3466
(dp3467
g11
(lp3468
sg13
S'com.android.server.notification.EventConditionProvider$3'
p3469
sg15
(lp3470
sg17
(lp3471
sg19
(lp3472
sg21
I0
sba(iArchitecture
Entity
p3473
(dp3474
g11
(lp3475
sg13
S'com.android.server.notification.EventConditionProvider$4'
p3476
sg15
(lp3477
sg17
(lp3478
sg19
(lp3479
sg21
I0
sba(iArchitecture
Entity
p3480
(dp3481
g11
(lp3482
sg13
S'com.android.server.notification.ScheduleConditionProvider'
p3483
sg15
(lp3484
sg17
(lp3485
sg19
(lp3486
sg21
I0
sba(iArchitecture
Entity
p3487
(dp3488
g11
(lp3489
sg13
S'com.android.server.notification.ScheduleConditionProvider$1'
p3490
sg15
(lp3491
sg17
(lp3492
sg19
(lp3493
sg21
I0
sbasg64
(lp3494
g3434
ag3441
ag3448
ag3455
ag3462
ag3469
ag3476
ag3483
ag3490
asg21
I0
sg66
S'1162'
p3495
sba(iArchitecture
Cluster
p3496
(dp3497
g7
(lp3498
(iArchitecture
Entity
p3499
(dp3500
g11
(lp3501
sg13
S'com.android.server.hdmi.DevicePowerStatusAction'
p3502
sg15
(lp3503
sg17
(lp3504
sg19
(lp3505
sg21
I0
sba(iArchitecture
Entity
p3506
(dp3507
g11
(lp3508
sg13
S'com.android.server.hdmi.DeviceSelectAction'
p3509
sg15
(lp3510
sg17
(lp3511
sg19
(lp3512
sg21
I0
sba(iArchitecture
Entity
p3513
(dp3514
g11
(lp3515
sg13
S'com.android.server.hdmi.DeviceSelectAction$1'
p3516
sg15
(lp3517
sg17
(lp3518
sg19
(lp3519
sg21
I0
sba(iArchitecture
Entity
p3520
(dp3521
g11
(lp3522
sg13
S'com.android.server.hdmi.OneTouchPlayAction'
p3523
sg15
(lp3524
sg17
(lp3525
sg19
(lp3526
sg21
I0
sba(iArchitecture
Entity
p3527
(dp3528
g11
(lp3529
sg13
S'com.android.server.hdmi.PowerStatusMonitorAction'
p3530
sg15
(lp3531
sg17
(lp3532
sg19
(lp3533
sg21
I0
sba(iArchitecture
Entity
p3534
(dp3535
g11
(lp3536
sg13
S'com.android.server.hdmi.PowerStatusMonitorAction$1'
p3537
sg15
(lp3538
sg17
(lp3539
sg19
(lp3540
sg21
I0
sba(iArchitecture
Entity
p3541
(dp3542
g11
(lp3543
sg13
S'com.android.server.hdmi.RoutingControlAction'
p3544
sg15
(lp3545
sg17
(lp3546
sg19
(lp3547
sg21
I0
sba(iArchitecture
Entity
p3548
(dp3549
g11
(lp3550
sg13
S'com.android.server.hdmi.RoutingControlAction$1'
p3551
sg15
(lp3552
sg17
(lp3553
sg19
(lp3554
sg21
I0
sbasg64
(lp3555
g3502
ag3509
ag3516
ag3523
ag3530
ag3537
ag3544
ag3551
asg21
I0
sg66
S'1163'
p3556
sba(iArchitecture
Cluster
p3557
(dp3558
g7
(lp3559
(iArchitecture
Entity
p3560
(dp3561
g11
(lp3562
sg13
S'android.database.sqlite.SQLiteDatabaseConfiguration'
p3563
sg15
(lp3564
sg17
(lp3565
sg19
(lp3566
sg21
I0
sba(iArchitecture
Entity
p3567
(dp3568
g11
(lp3569
sg13
S'android.speech.tts.Voice'
p3570
sg15
(lp3571
sg17
(lp3572
sg19
(lp3573
sg21
I0
sba(iArchitecture
Entity
p3574
(dp3575
g11
(lp3576
sg13
S'android.speech.tts.Voice$1'
p3577
sg15
(lp3578
sg17
(lp3579
sg19
(lp3580
sg21
I0
sbasg64
(lp3581
g3563
ag3570
ag3577
asg21
I0
sg66
S'1164'
p3582
sba(iArchitecture
Cluster
p3583
(dp3584
g7
(lp3585
(iArchitecture
Entity
p3586
(dp3587
g11
(lp3588
sg13
S'android.app.UiModeManager'
p3589
sg15
(lp3590
sg17
(lp3591
sg19
(lp3592
sg21
I0
sba(iArchitecture
Entity
p3593
(dp3594
g11
(lp3595
sg13
S'com.android.server.UiModeManagerService'
p3596
sg15
(lp3597
sg17
(lp3598
sg19
(lp3599
sg21
I0
sba(iArchitecture
Entity
p3600
(dp3601
g11
(lp3602
sg13
S'com.android.server.UiModeManagerService$1'
p3603
sg15
(lp3604
sg17
(lp3605
sg19
(lp3606
sg21
I0
sba(iArchitecture
Entity
p3607
(dp3608
g11
(lp3609
sg13
S'com.android.server.UiModeManagerService$2'
p3610
sg15
(lp3611
sg17
(lp3612
sg19
(lp3613
sg21
I0
sba(iArchitecture
Entity
p3614
(dp3615
g11
(lp3616
sg13
S'com.android.server.UiModeManagerService$3'
p3617
sg15
(lp3618
sg17
(lp3619
sg19
(lp3620
sg21
I0
sba(iArchitecture
Entity
p3621
(dp3622
g11
(lp3623
sg13
S'com.android.server.UiModeManagerService$4'
p3624
sg15
(lp3625
sg17
(lp3626
sg19
(lp3627
sg21
I0
sba(iArchitecture
Entity
p3628
(dp3629
g11
(lp3630
sg13
S'com.android.server.UiModeManagerService$5'
p3631
sg15
(lp3632
sg17
(lp3633
sg19
(lp3634
sg21
I0
sbasg64
(lp3635
g3589
ag3596
ag3603
ag3610
ag3617
ag3624
ag3631
asg21
I0
sg66
S'1165'
p3636
sba(iArchitecture
Cluster
p3637
(dp3638
g7
(lp3639
(iArchitecture
Entity
p3640
(dp3641
g11
(lp3642
sg13
S'android.service.trust.TrustAgentService'
p3643
sg15
(lp3644
sg17
(lp3645
sg19
(lp3646
sg21
I0
sba(iArchitecture
Entity
p3647
(dp3648
g11
(lp3649
sg13
S'android.service.trust.TrustAgentService$1'
p3650
sg15
(lp3651
sg17
(lp3652
sg19
(lp3653
sg21
I0
sba(iArchitecture
Entity
p3654
(dp3655
g11
(lp3656
sg13
S'android.service.trust.TrustAgentService$2'
p3657
sg15
(lp3658
sg17
(lp3659
sg19
(lp3660
sg21
I0
sba(iArchitecture
Entity
p3661
(dp3662
g11
(lp3663
sg13
S'android.service.trust.TrustAgentService$ConfigurationData'
p3664
sg15
(lp3665
sg17
(lp3666
sg19
(lp3667
sg21
I0
sba(iArchitecture
Entity
p3668
(dp3669
g11
(lp3670
sg13
S'android.service.trust.TrustAgentService$TrustAgentServiceWrapper'
p3671
sg15
(lp3672
sg17
(lp3673
sg19
(lp3674
sg21
I0
sba(iArchitecture
Entity
p3675
(dp3676
g11
(lp3677
sg13
S'com.android.server.trust.TrustAgentWrapper'
p3678
sg15
(lp3679
sg17
(lp3680
sg19
(lp3681
sg21
I0
sba(iArchitecture
Entity
p3682
(dp3683
g11
(lp3684
sg13
S'com.android.server.trust.TrustAgentWrapper$1'
p3685
sg15
(lp3686
sg17
(lp3687
sg19
(lp3688
sg21
I0
sba(iArchitecture
Entity
p3689
(dp3690
g11
(lp3691
sg13
S'com.android.server.trust.TrustAgentWrapper$2'
p3692
sg15
(lp3693
sg17
(lp3694
sg19
(lp3695
sg21
I0
sba(iArchitecture
Entity
p3696
(dp3697
g11
(lp3698
sg13
S'com.android.server.trust.TrustAgentWrapper$3'
p3699
sg15
(lp3700
sg17
(lp3701
sg19
(lp3702
sg21
I0
sba(iArchitecture
Entity
p3703
(dp3704
g11
(lp3705
sg13
S'com.android.server.trust.TrustAgentWrapper$4'
p3706
sg15
(lp3707
sg17
(lp3708
sg19
(lp3709
sg21
I0
sbasg64
(lp3710
g3643
ag3650
ag3657
ag3664
ag3671
ag3678
ag3685
ag3692
ag3699
ag3706
asg21
I0
sg66
S'1166'
p3711
sba(iArchitecture
Cluster
p3712
(dp3713
g7
(lp3714
(iArchitecture
Entity
p3715
(dp3716
g11
(lp3717
sg13
S'android.net.dhcp.DhcpClient'
p3718
sg15
(lp3719
sg17
(lp3720
sg19
(lp3721
sg21
I0
sba(iArchitecture
Entity
p3722
(dp3723
g11
(lp3724
sg13
S'android.net.dhcp.DhcpClient$1'
p3725
sg15
(lp3726
sg17
(lp3727
sg19
(lp3728
sg21
I0
sba(iArchitecture
Entity
p3729
(dp3730
g11
(lp3731
sg13
S'android.net.dhcp.DhcpClient$DhcpBoundState'
p3732
sg15
(lp3733
sg17
(lp3734
sg19
(lp3735
sg21
I0
sba(iArchitecture
Entity
p3736
(dp3737
g11
(lp3738
sg13
S'android.net.dhcp.DhcpClient$DhcpHaveAddressState'
p3739
sg15
(lp3740
sg17
(lp3741
sg19
(lp3742
sg21
I0
sba(iArchitecture
Entity
p3743
(dp3744
g11
(lp3745
sg13
S'android.net.dhcp.DhcpClient$DhcpInitRebootState'
p3746
sg15
(lp3747
sg17
(lp3748
sg19
(lp3749
sg21
I0
sba(iArchitecture
Entity
p3750
(dp3751
g11
(lp3752
sg13
S'android.net.dhcp.DhcpClient$DhcpInitState'
p3753
sg15
(lp3754
sg17
(lp3755
sg19
(lp3756
sg21
I0
sba(iArchitecture
Entity
p3757
(dp3758
g11
(lp3759
sg13
S'android.net.dhcp.DhcpClient$DhcpRebindingState'
p3760
sg15
(lp3761
sg17
(lp3762
sg19
(lp3763
sg21
I0
sba(iArchitecture
Entity
p3764
(dp3765
g11
(lp3766
sg13
S'android.net.dhcp.DhcpClient$DhcpRebootingState'
p3767
sg15
(lp3768
sg17
(lp3769
sg19
(lp3770
sg21
I0
sba(iArchitecture
Entity
p3771
(dp3772
g11
(lp3773
sg13
S'android.net.dhcp.DhcpClient$DhcpRenewingState'
p3774
sg15
(lp3775
sg17
(lp3776
sg19
(lp3777
sg21
I0
sba(iArchitecture
Entity
p3778
(dp3779
g11
(lp3780
sg13
S'android.net.dhcp.DhcpClient$DhcpRequestingState'
p3781
sg15
(lp3782
sg17
(lp3783
sg19
(lp3784
sg21
I0
sba(iArchitecture
Entity
p3785
(dp3786
g11
(lp3787
sg13
S'android.net.dhcp.DhcpClient$DhcpSelectingState'
p3788
sg15
(lp3789
sg17
(lp3790
sg19
(lp3791
sg21
I0
sba(iArchitecture
Entity
p3792
(dp3793
g11
(lp3794
sg13
S'android.net.dhcp.DhcpClient$DhcpState'
p3795
sg15
(lp3796
sg17
(lp3797
sg19
(lp3798
sg21
I0
sba(iArchitecture
Entity
p3799
(dp3800
g11
(lp3801
sg13
S'android.net.dhcp.DhcpClient$LoggingState'
p3802
sg15
(lp3803
sg17
(lp3804
sg19
(lp3805
sg21
I0
sba(iArchitecture
Entity
p3806
(dp3807
g11
(lp3808
sg13
S'android.net.dhcp.DhcpClient$PacketRetransmittingState'
p3809
sg15
(lp3810
sg17
(lp3811
sg19
(lp3812
sg21
I0
sba(iArchitecture
Entity
p3813
(dp3814
g11
(lp3815
sg13
S'android.net.dhcp.DhcpClient$ReceiveThread'
p3816
sg15
(lp3817
sg17
(lp3818
sg19
(lp3819
sg21
I0
sba(iArchitecture
Entity
p3820
(dp3821
g11
(lp3822
sg13
S'android.net.dhcp.DhcpClient$StoppedState'
p3823
sg15
(lp3824
sg17
(lp3825
sg19
(lp3826
sg21
I0
sba(iArchitecture
Entity
p3827
(dp3828
g11
(lp3829
sg13
S'android.net.dhcp.DhcpClient$WaitBeforeOtherState'
p3830
sg15
(lp3831
sg17
(lp3832
sg19
(lp3833
sg21
I0
sba(iArchitecture
Entity
p3834
(dp3835
g11
(lp3836
sg13
S'android.net.dhcp.DhcpClient$WaitBeforeRenewalState'
p3837
sg15
(lp3838
sg17
(lp3839
sg19
(lp3840
sg21
I0
sba(iArchitecture
Entity
p3841
(dp3842
g11
(lp3843
sg13
S'android.net.dhcp.DhcpClient$WaitBeforeStartState'
p3844
sg15
(lp3845
sg17
(lp3846
sg19
(lp3847
sg21
I0
sba(iArchitecture
Entity
p3848
(dp3849
g11
(lp3850
sg13
S'android.net.dhcp.DhcpPacket'
p3851
sg15
(lp3852
sg17
(lp3853
sg19
(lp3854
sg21
I0
sbasg64
(lp3855
g3718
ag3725
ag3732
ag3739
ag3746
ag3753
ag3760
ag3767
ag3774
ag3781
ag3788
ag3795
ag3802
ag3809
ag3816
ag3823
ag3830
ag3837
ag3844
ag3851
asg21
I0
sg66
S'1167'
p3856
sba(iArchitecture
Cluster
p3857
(dp3858
g7
(lp3859
(iArchitecture
Entity
p3860
(dp3861
g11
(lp3862
sg13
S'com.android.internal.app.MediaRouteChooserDialogFragment'
p3863
sg15
(lp3864
sg17
(lp3865
sg19
(lp3866
sg21
I0
sba(iArchitecture
Entity
p3867
(dp3868
g11
(lp3869
sg13
S'com.android.internal.app.MediaRouteDialogPresenter'
p3870
sg15
(lp3871
sg17
(lp3872
sg19
(lp3873
sg21
I0
sbasg64
(lp3874
g3863
ag3870
asg21
I0
sg66
S'1168'
p3875
sba(iArchitecture
Cluster
p3876
(dp3877
g7
(lp3878
(iArchitecture
Entity
p3879
(dp3880
g11
(lp3881
sg13
S'android.filterpacks.videosrc.MediaSource'
p3882
sg15
(lp3883
sg17
(lp3884
sg19
(lp3885
sg21
I0
sba(iArchitecture
Entity
p3886
(dp3887
g11
(lp3888
sg13
S'android.filterpacks.videosrc.MediaSource$1'
p3889
sg15
(lp3890
sg17
(lp3891
sg19
(lp3892
sg21
I0
sba(iArchitecture
Entity
p3893
(dp3894
g11
(lp3895
sg13
S'android.filterpacks.videosrc.MediaSource$2'
p3896
sg15
(lp3897
sg17
(lp3898
sg19
(lp3899
sg21
I0
sba(iArchitecture
Entity
p3900
(dp3901
g11
(lp3902
sg13
S'android.filterpacks.videosrc.MediaSource$3'
p3903
sg15
(lp3904
sg17
(lp3905
sg19
(lp3906
sg21
I0
sba(iArchitecture
Entity
p3907
(dp3908
g11
(lp3909
sg13
S'android.filterpacks.videosrc.MediaSource$4'
p3910
sg15
(lp3911
sg17
(lp3912
sg19
(lp3913
sg21
I0
sba(iArchitecture
Entity
p3914
(dp3915
g11
(lp3916
sg13
S'android.filterpacks.videosrc.SurfaceTextureSource'
p3917
sg15
(lp3918
sg17
(lp3919
sg19
(lp3920
sg21
I0
sba(iArchitecture
Entity
p3921
(dp3922
g11
(lp3923
sg13
S'android.filterpacks.videosrc.SurfaceTextureSource$1'
p3924
sg15
(lp3925
sg17
(lp3926
sg19
(lp3927
sg21
I0
sba(iArchitecture
Entity
p3928
(dp3929
g11
(lp3930
sg13
S'android.filterpacks.videosrc.SurfaceTextureSource$SurfaceTextureSourceListener'
p3931
sg15
(lp3932
sg17
(lp3933
sg19
(lp3934
sg21
I0
sbasg64
(lp3935
g3882
ag3889
ag3896
ag3903
ag3910
ag3917
ag3924
ag3931
asg21
I0
sg66
S'1169'
p3936
sba(iArchitecture
Cluster
p3937
(dp3938
g7
(lp3939
(iArchitecture
Entity
p3940
(dp3941
g11
(lp3942
sg13
S'android.widget.HeterogeneousExpandableList'
p3943
sg15
(lp3944
sg17
(lp3945
sg19
(lp3946
sg21
I0
sbasg64
(lp3947
g3943
asg21
I0
sg66
S'117'
p3948
sba(iArchitecture
Cluster
p3949
(dp3950
g7
(lp3951
(iArchitecture
Entity
p3952
(dp3953
g11
(lp3954
sg13
S'android.util.DayOfMonthCursor'
p3955
sg15
(lp3956
sg17
(lp3957
sg19
(lp3958
sg21
I0
sba(iArchitecture
Entity
p3959
(dp3960
g11
(lp3961
sg13
S'android.util.MonthDisplayHelper'
p3962
sg15
(lp3963
sg17
(lp3964
sg19
(lp3965
sg21
I0
sbasg64
(lp3966
g3955
ag3962
asg21
I0
sg66
S'1170'
p3967
sba(iArchitecture
Cluster
p3968
(dp3969
g7
(lp3970
(iArchitecture
Entity
p3971
(dp3972
g11
(lp3973
sg13
S'android.media.MediaRouterClientState'
p3974
sg15
(lp3975
sg17
(lp3976
sg19
(lp3977
sg21
I0
sba(iArchitecture
Entity
p3978
(dp3979
g11
(lp3980
sg13
S'android.media.MediaRouterClientState$1'
p3981
sg15
(lp3982
sg17
(lp3983
sg19
(lp3984
sg21
I0
sba(iArchitecture
Entity
p3985
(dp3986
g11
(lp3987
sg13
S'android.media.MediaRouterClientState$RouteInfo'
p3988
sg15
(lp3989
sg17
(lp3990
sg19
(lp3991
sg21
I0
sba(iArchitecture
Entity
p3992
(dp3993
g11
(lp3994
sg13
S'android.media.MediaRouterClientState$RouteInfo$1'
p3995
sg15
(lp3996
sg17
(lp3997
sg19
(lp3998
sg21
I0
sba(iArchitecture
Entity
p3999
(dp4000
g11
(lp4001
sg13
S'android.media.RemoteDisplayState'
p4002
sg15
(lp4003
sg17
(lp4004
sg19
(lp4005
sg21
I0
sba(iArchitecture
Entity
p4006
(dp4007
g11
(lp4008
sg13
S'android.media.RemoteDisplayState$1'
p4009
sg15
(lp4010
sg17
(lp4011
sg19
(lp4012
sg21
I0
sba(iArchitecture
Entity
p4013
(dp4014
g11
(lp4015
sg13
S'android.media.RemoteDisplayState$RemoteDisplayInfo'
p4016
sg15
(lp4017
sg17
(lp4018
sg19
(lp4019
sg21
I0
sba(iArchitecture
Entity
p4020
(dp4021
g11
(lp4022
sg13
S'android.media.RemoteDisplayState$RemoteDisplayInfo$1'
p4023
sg15
(lp4024
sg17
(lp4025
sg19
(lp4026
sg21
I0
sbasg64
(lp4027
g3974
ag3981
ag3988
ag3995
ag4002
ag4009
ag4016
ag4023
asg21
I0
sg66
S'1171'
p4028
sba(iArchitecture
Cluster
p4029
(dp4030
g7
(lp4031
(iArchitecture
Entity
p4032
(dp4033
g11
(lp4034
sg13
S'android.bluetooth.le.TruncatedFilter'
p4035
sg15
(lp4036
sg17
(lp4037
sg19
(lp4038
sg21
I0
sba(iArchitecture
Entity
p4039
(dp4040
g11
(lp4041
sg13
S'android.filterfw.core.OneShotScheduler'
p4042
sg15
(lp4043
sg17
(lp4044
sg19
(lp4045
sg21
I0
sbasg64
(lp4046
g4035
ag4042
asg21
I0
sg66
S'1172'
p4047
sba(iArchitecture
Cluster
p4048
(dp4049
g7
(lp4050
(iArchitecture
Entity
p4051
(dp4052
g11
(lp4053
sg13
S'android.security.keystore.AndroidKeyStoreAuthenticatedAESCipherSpi'
p4054
sg15
(lp4055
sg17
(lp4056
sg19
(lp4057
sg21
I0
sba(iArchitecture
Entity
p4058
(dp4059
g11
(lp4060
sg13
S'android.security.keystore.AndroidKeyStoreAuthenticatedAESCipherSpi$AdditionalAuthenticationDataStream'
p4061
sg15
(lp4062
sg17
(lp4063
sg19
(lp4064
sg21
I0
sba(iArchitecture
Entity
p4065
(dp4066
g11
(lp4067
sg13
S'android.security.keystore.AndroidKeyStoreAuthenticatedAESCipherSpi$BufferAllOutputUntilDoFinalStreamer'
p4068
sg15
(lp4069
sg17
(lp4070
sg19
(lp4071
sg21
I0
sba(iArchitecture
Entity
p4072
(dp4073
g11
(lp4074
sg13
S'android.security.keystore.AndroidKeyStoreAuthenticatedAESCipherSpi$GCM'
p4075
sg15
(lp4076
sg17
(lp4077
sg19
(lp4078
sg21
I0
sba(iArchitecture
Entity
p4079
(dp4080
g11
(lp4081
sg13
S'android.security.keystore.AndroidKeyStoreAuthenticatedAESCipherSpi$GCM$NoPadding'
p4082
sg15
(lp4083
sg17
(lp4084
sg19
(lp4085
sg21
I0
sba(iArchitecture
Entity
p4086
(dp4087
g11
(lp4088
sg13
S'android.security.keystore.AndroidKeyStoreCipherSpiBase'
p4089
sg15
(lp4090
sg17
(lp4091
sg19
(lp4092
sg21
I0
sba(iArchitecture
Entity
p4093
(dp4094
g11
(lp4095
sg13
S'android.security.keystore.AndroidKeyStoreECDSASignatureSpi'
p4096
sg15
(lp4097
sg17
(lp4098
sg19
(lp4099
sg21
I0
sba(iArchitecture
Entity
p4100
(dp4101
g11
(lp4102
sg13
S'android.security.keystore.AndroidKeyStoreECDSASignatureSpi$NONE'
p4103
sg15
(lp4104
sg17
(lp4105
sg19
(lp4106
sg21
I0
sba(iArchitecture
Entity
p4107
(dp4108
g11
(lp4109
sg13
S'android.security.keystore.AndroidKeyStoreECDSASignatureSpi$NONE$TruncateToFieldSizeMessageStreamer'
p4110
sg15
(lp4111
sg17
(lp4112
sg19
(lp4113
sg21
I0
sba(iArchitecture
Entity
p4114
(dp4115
g11
(lp4116
sg13
S'android.security.keystore.AndroidKeyStoreECDSASignatureSpi$SHA1'
p4117
sg15
(lp4118
sg17
(lp4119
sg19
(lp4120
sg21
I0
sba(iArchitecture
Entity
p4121
(dp4122
g11
(lp4123
sg13
S'android.security.keystore.AndroidKeyStoreECDSASignatureSpi$SHA224'
p4124
sg15
(lp4125
sg17
(lp4126
sg19
(lp4127
sg21
I0
sba(iArchitecture
Entity
p4128
(dp4129
g11
(lp4130
sg13
S'android.security.keystore.AndroidKeyStoreECDSASignatureSpi$SHA256'
p4131
sg15
(lp4132
sg17
(lp4133
sg19
(lp4134
sg21
I0
sba(iArchitecture
Entity
p4135
(dp4136
g11
(lp4137
sg13
S'android.security.keystore.AndroidKeyStoreECDSASignatureSpi$SHA384'
p4138
sg15
(lp4139
sg17
(lp4140
sg19
(lp4141
sg21
I0
sba(iArchitecture
Entity
p4142
(dp4143
g11
(lp4144
sg13
S'android.security.keystore.AndroidKeyStoreECDSASignatureSpi$SHA512'
p4145
sg15
(lp4146
sg17
(lp4147
sg19
(lp4148
sg21
I0
sba(iArchitecture
Entity
p4149
(dp4150
g11
(lp4151
sg13
S'android.security.keystore.AndroidKeyStoreHmacSpi'
p4152
sg15
(lp4153
sg17
(lp4154
sg19
(lp4155
sg21
I0
sba(iArchitecture
Entity
p4156
(dp4157
g11
(lp4158
sg13
S'android.security.keystore.AndroidKeyStoreHmacSpi$HmacSHA1'
p4159
sg15
(lp4160
sg17
(lp4161
sg19
(lp4162
sg21
I0
sba(iArchitecture
Entity
p4163
(dp4164
g11
(lp4165
sg13
S'android.security.keystore.AndroidKeyStoreHmacSpi$HmacSHA224'
p4166
sg15
(lp4167
sg17
(lp4168
sg19
(lp4169
sg21
I0
sba(iArchitecture
Entity
p4170
(dp4171
g11
(lp4172
sg13
S'android.security.keystore.AndroidKeyStoreHmacSpi$HmacSHA256'
p4173
sg15
(lp4174
sg17
(lp4175
sg19
(lp4176
sg21
I0
sba(iArchitecture
Entity
p4177
(dp4178
g11
(lp4179
sg13
S'android.security.keystore.AndroidKeyStoreHmacSpi$HmacSHA384'
p4180
sg15
(lp4181
sg17
(lp4182
sg19
(lp4183
sg21
I0
sba(iArchitecture
Entity
p4184
(dp4185
g11
(lp4186
sg13
S'android.security.keystore.AndroidKeyStoreHmacSpi$HmacSHA512'
p4187
sg15
(lp4188
sg17
(lp4189
sg19
(lp4190
sg21
I0
sba(iArchitecture
Entity
p4191
(dp4192
g11
(lp4193
sg13
S'android.security.keystore.AndroidKeyStoreKeyGeneratorSpi'
p4194
sg15
(lp4195
sg17
(lp4196
sg19
(lp4197
sg21
I0
sba(iArchitecture
Entity
p4198
(dp4199
g11
(lp4200
sg13
S'android.security.keystore.AndroidKeyStoreKeyGeneratorSpi$AES'
p4201
sg15
(lp4202
sg17
(lp4203
sg19
(lp4204
sg21
I0
sba(iArchitecture
Entity
p4205
(dp4206
g11
(lp4207
sg13
S'android.security.keystore.AndroidKeyStoreKeyGeneratorSpi$HmacBase'
p4208
sg15
(lp4209
sg17
(lp4210
sg19
(lp4211
sg21
I0
sba(iArchitecture
Entity
p4212
(dp4213
g11
(lp4214
sg13
S'android.security.keystore.AndroidKeyStoreKeyGeneratorSpi$HmacSHA1'
p4215
sg15
(lp4216
sg17
(lp4217
sg19
(lp4218
sg21
I0
sba(iArchitecture
Entity
p4219
(dp4220
g11
(lp4221
sg13
S'android.security.keystore.AndroidKeyStoreKeyGeneratorSpi$HmacSHA224'
p4222
sg15
(lp4223
sg17
(lp4224
sg19
(lp4225
sg21
I0
sba(iArchitecture
Entity
p4226
(dp4227
g11
(lp4228
sg13
S'android.security.keystore.AndroidKeyStoreKeyGeneratorSpi$HmacSHA256'
p4229
sg15
(lp4230
sg17
(lp4231
sg19
(lp4232
sg21
I0
sba(iArchitecture
Entity
p4233
(dp4234
g11
(lp4235
sg13
S'android.security.keystore.AndroidKeyStoreKeyGeneratorSpi$HmacSHA384'
p4236
sg15
(lp4237
sg17
(lp4238
sg19
(lp4239
sg21
I0
sba(iArchitecture
Entity
p4240
(dp4241
g11
(lp4242
sg13
S'android.security.keystore.AndroidKeyStoreKeyGeneratorSpi$HmacSHA512'
p4243
sg15
(lp4244
sg17
(lp4245
sg19
(lp4246
sg21
I0
sba(iArchitecture
Entity
p4247
(dp4248
g11
(lp4249
sg13
S'android.security.keystore.AndroidKeyStoreKeyPairGeneratorSpi'
p4250
sg15
(lp4251
sg17
(lp4252
sg19
(lp4253
sg21
I0
sba(iArchitecture
Entity
p4254
(dp4255
g11
(lp4256
sg13
S'android.security.keystore.AndroidKeyStoreKeyPairGeneratorSpi$EC'
p4257
sg15
(lp4258
sg17
(lp4259
sg19
(lp4260
sg21
I0
sba(iArchitecture
Entity
p4261
(dp4262
g11
(lp4263
sg13
S'android.security.keystore.AndroidKeyStoreKeyPairGeneratorSpi$RSA'
p4264
sg15
(lp4265
sg17
(lp4266
sg19
(lp4267
sg21
I0
sba(iArchitecture
Entity
p4268
(dp4269
g11
(lp4270
sg13
S'android.security.keystore.AndroidKeyStoreRSACipherSpi'
p4271
sg15
(lp4272
sg17
(lp4273
sg19
(lp4274
sg21
I0
sba(iArchitecture
Entity
p4275
(dp4276
g11
(lp4277
sg13
S'android.security.keystore.AndroidKeyStoreRSACipherSpi$NoPadding'
p4278
sg15
(lp4279
sg17
(lp4280
sg19
(lp4281
sg21
I0
sba(iArchitecture
Entity
p4282
(dp4283
g11
(lp4284
sg13
S'android.security.keystore.AndroidKeyStoreRSACipherSpi$OAEPWithMGF1Padding'
p4285
sg15
(lp4286
sg17
(lp4287
sg19
(lp4288
sg21
I0
sba(iArchitecture
Entity
p4289
(dp4290
g11
(lp4291
sg13
S'android.security.keystore.AndroidKeyStoreRSACipherSpi$OAEPWithSHA1AndMGF1Padding'
p4292
sg15
(lp4293
sg17
(lp4294
sg19
(lp4295
sg21
I0
sba(iArchitecture
Entity
p4296
(dp4297
g11
(lp4298
sg13
S'android.security.keystore.AndroidKeyStoreRSACipherSpi$OAEPWithSHA224AndMGF1Padding'
p4299
sg15
(lp4300
sg17
(lp4301
sg19
(lp4302
sg21
I0
sba(iArchitecture
Entity
p4303
(dp4304
g11
(lp4305
sg13
S'android.security.keystore.AndroidKeyStoreRSACipherSpi$OAEPWithSHA256AndMGF1Padding'
p4306
sg15
(lp4307
sg17
(lp4308
sg19
(lp4309
sg21
I0
sba(iArchitecture
Entity
p4310
(dp4311
g11
(lp4312
sg13
S'android.security.keystore.AndroidKeyStoreRSACipherSpi$OAEPWithSHA384AndMGF1Padding'
p4313
sg15
(lp4314
sg17
(lp4315
sg19
(lp4316
sg21
I0
sba(iArchitecture
Entity
p4317
(dp4318
g11
(lp4319
sg13
S'android.security.keystore.AndroidKeyStoreRSACipherSpi$OAEPWithSHA512AndMGF1Padding'
p4320
sg15
(lp4321
sg17
(lp4322
sg19
(lp4323
sg21
I0
sba(iArchitecture
Entity
p4324
(dp4325
g11
(lp4326
sg13
S'android.security.keystore.AndroidKeyStoreRSACipherSpi$PKCS1Padding'
p4327
sg15
(lp4328
sg17
(lp4329
sg19
(lp4330
sg21
I0
sba(iArchitecture
Entity
p4331
(dp4332
g11
(lp4333
sg13
S'android.security.keystore.AndroidKeyStoreSignatureSpiBase'
p4334
sg15
(lp4335
sg17
(lp4336
sg19
(lp4337
sg21
I0
sba(iArchitecture
Entity
p4338
(dp4339
g11
(lp4340
sg13
S'android.security.keystore.AndroidKeyStoreUnauthenticatedAESCipherSpi'
p4341
sg15
(lp4342
sg17
(lp4343
sg19
(lp4344
sg21
I0
sba(iArchitecture
Entity
p4345
(dp4346
g11
(lp4347
sg13
S'android.security.keystore.AndroidKeyStoreUnauthenticatedAESCipherSpi$CBC'
p4348
sg15
(lp4349
sg17
(lp4350
sg19
(lp4351
sg21
I0
sba(iArchitecture
Entity
p4352
(dp4353
g11
(lp4354
sg13
S'android.security.keystore.AndroidKeyStoreUnauthenticatedAESCipherSpi$CBC$NoPadding'
p4355
sg15
(lp4356
sg17
(lp4357
sg19
(lp4358
sg21
I0
sba(iArchitecture
Entity
p4359
(dp4360
g11
(lp4361
sg13
S'android.security.keystore.AndroidKeyStoreUnauthenticatedAESCipherSpi$CBC$PKCS7Padding'
p4362
sg15
(lp4363
sg17
(lp4364
sg19
(lp4365
sg21
I0
sba(iArchitecture
Entity
p4366
(dp4367
g11
(lp4368
sg13
S'android.security.keystore.AndroidKeyStoreUnauthenticatedAESCipherSpi$CTR'
p4369
sg15
(lp4370
sg17
(lp4371
sg19
(lp4372
sg21
I0
sba(iArchitecture
Entity
p4373
(dp4374
g11
(lp4375
sg13
S'android.security.keystore.AndroidKeyStoreUnauthenticatedAESCipherSpi$CTR$NoPadding'
p4376
sg15
(lp4377
sg17
(lp4378
sg19
(lp4379
sg21
I0
sba(iArchitecture
Entity
p4380
(dp4381
g11
(lp4382
sg13
S'android.security.keystore.AndroidKeyStoreUnauthenticatedAESCipherSpi$ECB'
p4383
sg15
(lp4384
sg17
(lp4385
sg19
(lp4386
sg21
I0
sba(iArchitecture
Entity
p4387
(dp4388
g11
(lp4389
sg13
S'android.security.keystore.AndroidKeyStoreUnauthenticatedAESCipherSpi$ECB$NoPadding'
p4390
sg15
(lp4391
sg17
(lp4392
sg19
(lp4393
sg21
I0
sba(iArchitecture
Entity
p4394
(dp4395
g11
(lp4396
sg13
S'android.security.keystore.AndroidKeyStoreUnauthenticatedAESCipherSpi$ECB$PKCS7Padding'
p4397
sg15
(lp4398
sg17
(lp4399
sg19
(lp4400
sg21
I0
sba(iArchitecture
Entity
p4401
(dp4402
g11
(lp4403
sg13
S'android.security.keystore.KeymasterUtils'
p4404
sg15
(lp4405
sg17
(lp4406
sg19
(lp4407
sg21
I0
sbasg64
(lp4408
g4054
ag4061
ag4068
ag4075
ag4082
ag4089
ag4096
ag4103
ag4110
ag4117
ag4124
ag4131
ag4138
ag4145
ag4152
ag4159
ag4166
ag4173
ag4180
ag4187
ag4194
ag4201
ag4208
ag4215
ag4222
ag4229
ag4236
ag4243
ag4250
ag4257
ag4264
ag4271
ag4278
ag4285
ag4292
ag4299
ag4306
ag4313
ag4320
ag4327
ag4334
ag4341
ag4348
ag4355
ag4362
ag4369
ag4376
ag4383
ag4390
ag4397
ag4404
asg21
I0
sg66
S'1173'
p4409
sba(iArchitecture
Cluster
p4410
(dp4411
g7
(lp4412
(iArchitecture
Entity
p4413
(dp4414
g11
(lp4415
sg13
S'android.speech.tts.FileSynthesisCallback'
p4416
sg15
(lp4417
sg17
(lp4418
sg19
(lp4419
sg21
I0
sba(iArchitecture
Entity
p4420
(dp4421
g11
(lp4422
sg13
S'android.speech.tts.PlaybackSynthesisCallback'
p4423
sg15
(lp4424
sg17
(lp4425
sg19
(lp4426
sg21
I0
sbasg64
(lp4427
g4416
ag4423
asg21
I0
sg66
S'1174'
p4428
sba(iArchitecture
Cluster
p4429
(dp4430
g7
(lp4431
(iArchitecture
Entity
p4432
(dp4433
g11
(lp4434
sg13
S'com.android.server.policy.GlobalActions'
p4435
sg15
(lp4436
sg17
(lp4437
sg19
(lp4438
sg21
I0
sba(iArchitecture
Entity
p4439
(dp4440
g11
(lp4441
sg13
S'com.android.server.policy.GlobalActions$1'
p4442
sg15
(lp4443
sg17
(lp4444
sg19
(lp4445
sg21
I0
sba(iArchitecture
Entity
p4446
(dp4447
g11
(lp4448
sg13
S'com.android.server.policy.GlobalActions$10'
p4449
sg15
(lp4450
sg17
(lp4451
sg19
(lp4452
sg21
I0
sba(iArchitecture
Entity
p4453
(dp4454
g11
(lp4455
sg13
S'com.android.server.policy.GlobalActions$11'
p4456
sg15
(lp4457
sg17
(lp4458
sg19
(lp4459
sg21
I0
sba(iArchitecture
Entity
p4460
(dp4461
g11
(lp4462
sg13
S'com.android.server.policy.GlobalActions$12'
p4463
sg15
(lp4464
sg17
(lp4465
sg19
(lp4466
sg21
I0
sba(iArchitecture
Entity
p4467
(dp4468
g11
(lp4469
sg13
S'com.android.server.policy.GlobalActions$13'
p4470
sg15
(lp4471
sg17
(lp4472
sg19
(lp4473
sg21
I0
sba(iArchitecture
Entity
p4474
(dp4475
g11
(lp4476
sg13
S'com.android.server.policy.GlobalActions$2'
p4477
sg15
(lp4478
sg17
(lp4479
sg19
(lp4480
sg21
I0
sba(iArchitecture
Entity
p4481
(dp4482
g11
(lp4483
sg13
S'com.android.server.policy.GlobalActions$3'
p4484
sg15
(lp4485
sg17
(lp4486
sg19
(lp4487
sg21
I0
sba(iArchitecture
Entity
p4488
(dp4489
g11
(lp4490
sg13
S'com.android.server.policy.GlobalActions$4'
p4491
sg15
(lp4492
sg17
(lp4493
sg19
(lp4494
sg21
I0
sba(iArchitecture
Entity
p4495
(dp4496
g11
(lp4497
sg13
S'com.android.server.policy.GlobalActions$5'
p4498
sg15
(lp4499
sg17
(lp4500
sg19
(lp4501
sg21
I0
sba(iArchitecture
Entity
p4502
(dp4503
g11
(lp4504
sg13
S'com.android.server.policy.GlobalActions$6'
p4505
sg15
(lp4506
sg17
(lp4507
sg19
(lp4508
sg21
I0
sba(iArchitecture
Entity
p4509
(dp4510
g11
(lp4511
sg13
S'com.android.server.policy.GlobalActions$7'
p4512
sg15
(lp4513
sg17
(lp4514
sg19
(lp4515
sg21
I0
sba(iArchitecture
Entity
p4516
(dp4517
g11
(lp4518
sg13
S'com.android.server.policy.GlobalActions$8'
p4519
sg15
(lp4520
sg17
(lp4521
sg19
(lp4522
sg21
I0
sba(iArchitecture
Entity
p4523
(dp4524
g11
(lp4525
sg13
S'com.android.server.policy.GlobalActions$8$1'
p4526
sg15
(lp4527
sg17
(lp4528
sg19
(lp4529
sg21
I0
sba(iArchitecture
Entity
p4530
(dp4531
g11
(lp4532
sg13
S'com.android.server.policy.GlobalActions$8$1$1'
p4533
sg15
(lp4534
sg17
(lp4535
sg19
(lp4536
sg21
I0
sba(iArchitecture
Entity
p4537
(dp4538
g11
(lp4539
sg13
S'com.android.server.policy.GlobalActions$9'
p4540
sg15
(lp4541
sg17
(lp4542
sg19
(lp4543
sg21
I0
sba(iArchitecture
Entity
p4544
(dp4545
g11
(lp4546
sg13
S'com.android.server.policy.GlobalActions$Action'
p4547
sg15
(lp4548
sg17
(lp4549
sg19
(lp4550
sg21
I0
sba(iArchitecture
Entity
p4551
(dp4552
g11
(lp4553
sg13
S'com.android.server.policy.GlobalActions$GlobalActionsDialog'
p4554
sg15
(lp4555
sg17
(lp4556
sg19
(lp4557
sg21
I0
sba(iArchitecture
Entity
p4558
(dp4559
g11
(lp4560
sg13
S'com.android.server.policy.GlobalActions$GlobalActionsDialog$1'
p4561
sg15
(lp4562
sg17
(lp4563
sg19
(lp4564
sg21
I0
sba(iArchitecture
Entity
p4565
(dp4566
g11
(lp4567
sg13
S'com.android.server.policy.GlobalActions$LongPressAction'
p4568
sg15
(lp4569
sg17
(lp4570
sg19
(lp4571
sg21
I0
sba(iArchitecture
Entity
p4572
(dp4573
g11
(lp4574
sg13
S'com.android.server.policy.GlobalActions$MyAdapter'
p4575
sg15
(lp4576
sg17
(lp4577
sg19
(lp4578
sg21
I0
sba(iArchitecture
Entity
p4579
(dp4580
g11
(lp4581
sg13
S'com.android.server.policy.GlobalActions$PowerAction'
p4582
sg15
(lp4583
sg17
(lp4584
sg19
(lp4585
sg21
I0
sba(iArchitecture
Entity
p4586
(dp4587
g11
(lp4588
sg13
S'com.android.server.policy.GlobalActions$SilentModeToggleAction'
p4589
sg15
(lp4590
sg17
(lp4591
sg19
(lp4592
sg21
I0
sba(iArchitecture
Entity
p4593
(dp4594
g11
(lp4595
sg13
S'com.android.server.policy.GlobalActions$SilentModeTriStateAction'
p4596
sg15
(lp4597
sg17
(lp4598
sg19
(lp4599
sg21
I0
sba(iArchitecture
Entity
p4600
(dp4601
g11
(lp4602
sg13
S'com.android.server.policy.GlobalActions$SinglePressAction'
p4603
sg15
(lp4604
sg17
(lp4605
sg19
(lp4606
sg21
I0
sba(iArchitecture
Entity
p4607
(dp4608
g11
(lp4609
sg13
S'com.android.server.policy.GlobalActions$ToggleAction'
p4610
sg15
(lp4611
sg17
(lp4612
sg19
(lp4613
sg21
I0
sba(iArchitecture
Entity
p4614
(dp4615
g11
(lp4616
sg13
S'com.android.server.policy.GlobalActions$ToggleAction$State'
p4617
sg15
(lp4618
sg17
(lp4619
sg19
(lp4620
sg21
I0
sba(iArchitecture
Entity
p4621
(dp4622
g11
(lp4623
sg13
S'com.android.server.statusbar.StatusBarManagerInternal'
p4624
sg15
(lp4625
sg17
(lp4626
sg19
(lp4627
sg21
I0
sbasg64
(lp4628
g4435
ag4442
ag4449
ag4456
ag4463
ag4470
ag4477
ag4484
ag4491
ag4498
ag4505
ag4512
ag4519
ag4526
ag4533
ag4540
ag4547
ag4554
ag4561
ag4568
ag4575
ag4582
ag4589
ag4596
ag4603
ag4610
ag4617
ag4624
asg21
I0
sg66
S'1175'
p4629
sba(iArchitecture
Cluster
p4630
(dp4631
g7
(lp4632
(iArchitecture
Entity
p4633
(dp4634
g11
(lp4635
sg13
S'android.database.DataSetObservable'
p4636
sg15
(lp4637
sg17
(lp4638
sg19
(lp4639
sg21
I0
sba(iArchitecture
Entity
p4640
(dp4641
g11
(lp4642
sg13
S'android.widget.BaseAdapter'
p4643
sg15
(lp4644
sg17
(lp4645
sg19
(lp4646
sg21
I0
sba(iArchitecture
Entity
p4647
(dp4648
g11
(lp4649
sg13
S'com.android.server.lights.Light'
p4650
sg15
(lp4651
sg17
(lp4652
sg19
(lp4653
sg21
I0
sbasg64
(lp4654
g4636
ag4643
ag4650
asg21
I0
sg66
S'1176'
p4655
sba(iArchitecture
Cluster
p4656
(dp4657
g7
(lp4658
(iArchitecture
Entity
p4659
(dp4660
g11
(lp4661
sg13
S'android.telephony.DataConnectionRealTimeInfo'
p4662
sg15
(lp4663
sg17
(lp4664
sg19
(lp4665
sg21
I0
sba(iArchitecture
Entity
p4666
(dp4667
g11
(lp4668
sg13
S'android.telephony.DataConnectionRealTimeInfo$1'
p4669
sg15
(lp4670
sg17
(lp4671
sg19
(lp4672
sg21
I0
sba(iArchitecture
Entity
p4673
(dp4674
g11
(lp4675
sg13
S'com.android.internal.net.LegacyVpnInfo'
p4676
sg15
(lp4677
sg17
(lp4678
sg19
(lp4679
sg21
I0
sba(iArchitecture
Entity
p4680
(dp4681
g11
(lp4682
sg13
S'com.android.internal.net.LegacyVpnInfo$1'
p4683
sg15
(lp4684
sg17
(lp4685
sg19
(lp4686
sg21
I0
sba(iArchitecture
Entity
p4687
(dp4688
g11
(lp4689
sg13
S'com.android.server.am.BackupRecord'
p4690
sg15
(lp4691
sg17
(lp4692
sg19
(lp4693
sg21
I0
sbasg64
(lp4694
g4662
ag4669
ag4676
ag4683
ag4690
asg21
I0
sg66
S'1177'
p4695
sba(iArchitecture
Cluster
p4696
(dp4697
g7
(lp4698
(iArchitecture
Entity
p4699
(dp4700
g11
(lp4701
sg13
S'android.nfc.Tag'
p4702
sg15
(lp4703
sg17
(lp4704
sg19
(lp4705
sg21
I0
sba(iArchitecture
Entity
p4706
(dp4707
g11
(lp4708
sg13
S'android.nfc.Tag$1'
p4709
sg15
(lp4710
sg17
(lp4711
sg19
(lp4712
sg21
I0
sba(iArchitecture
Entity
p4713
(dp4714
g11
(lp4715
sg13
S'android.nfc.tech.IsoDep'
p4716
sg15
(lp4717
sg17
(lp4718
sg19
(lp4719
sg21
I0
sba(iArchitecture
Entity
p4720
(dp4721
g11
(lp4722
sg13
S'android.nfc.tech.MifareClassic'
p4723
sg15
(lp4724
sg17
(lp4725
sg19
(lp4726
sg21
I0
sba(iArchitecture
Entity
p4727
(dp4728
g11
(lp4729
sg13
S'android.nfc.tech.MifareUltralight'
p4730
sg15
(lp4731
sg17
(lp4732
sg19
(lp4733
sg21
I0
sba(iArchitecture
Entity
p4734
(dp4735
g11
(lp4736
sg13
S'android.nfc.tech.Ndef'
p4737
sg15
(lp4738
sg17
(lp4739
sg19
(lp4740
sg21
I0
sba(iArchitecture
Entity
p4741
(dp4742
g11
(lp4743
sg13
S'android.nfc.tech.NdefFormatable'
p4744
sg15
(lp4745
sg17
(lp4746
sg19
(lp4747
sg21
I0
sba(iArchitecture
Entity
p4748
(dp4749
g11
(lp4750
sg13
S'android.nfc.tech.NfcA'
p4751
sg15
(lp4752
sg17
(lp4753
sg19
(lp4754
sg21
I0
sba(iArchitecture
Entity
p4755
(dp4756
g11
(lp4757
sg13
S'android.nfc.tech.NfcB'
p4758
sg15
(lp4759
sg17
(lp4760
sg19
(lp4761
sg21
I0
sba(iArchitecture
Entity
p4762
(dp4763
g11
(lp4764
sg13
S'android.nfc.tech.NfcF'
p4765
sg15
(lp4766
sg17
(lp4767
sg19
(lp4768
sg21
I0
sba(iArchitecture
Entity
p4769
(dp4770
g11
(lp4771
sg13
S'android.nfc.tech.NfcV'
p4772
sg15
(lp4773
sg17
(lp4774
sg19
(lp4775
sg21
I0
sba(iArchitecture
Entity
p4776
(dp4777
g11
(lp4778
sg13
S'android.nfc.tech.TagTechnology'
p4779
sg15
(lp4780
sg17
(lp4781
sg19
(lp4782
sg21
I0
sbasg64
(lp4783
g4702
ag4709
ag4716
ag4723
ag4730
ag4737
ag4744
ag4751
ag4758
ag4765
ag4772
ag4779
asg21
I0
sg66
S'1178'
p4784
sba(iArchitecture
Cluster
p4785
(dp4786
g7
(lp4787
(iArchitecture
Entity
p4788
(dp4789
g11
(lp4790
sg13
S'android.location.LocalListenerHelper'
p4791
sg15
(lp4792
sg17
(lp4793
sg19
(lp4794
sg21
I0
sba(iArchitecture
Entity
p4795
(dp4796
g11
(lp4797
sg13
S'android.location.LocalListenerHelper$ListenerOperation'
p4798
sg15
(lp4799
sg17
(lp4800
sg19
(lp4801
sg21
I0
sba(iArchitecture
Entity
p4802
(dp4803
g11
(lp4804
sg13
S'com.android.server.display.DisplayAdapter'
p4805
sg15
(lp4806
sg17
(lp4807
sg19
(lp4808
sg21
I0
sba(iArchitecture
Entity
p4809
(dp4810
g11
(lp4811
sg13
S'com.android.server.display.DisplayAdapter$1'
p4812
sg15
(lp4813
sg17
(lp4814
sg19
(lp4815
sg21
I0
sba(iArchitecture
Entity
p4816
(dp4817
g11
(lp4818
sg13
S'com.android.server.display.DisplayAdapter$2'
p4819
sg15
(lp4820
sg17
(lp4821
sg19
(lp4822
sg21
I0
sba(iArchitecture
Entity
p4823
(dp4824
g11
(lp4825
sg13
S'com.android.server.display.DisplayAdapter$Listener'
p4826
sg15
(lp4827
sg17
(lp4828
sg19
(lp4829
sg21
I0
sba(iArchitecture
Entity
p4830
(dp4831
g11
(lp4832
sg13
S'com.android.server.location.RemoteListenerHelper'
p4833
sg15
(lp4834
sg17
(lp4835
sg19
(lp4836
sg21
I0
sba(iArchitecture
Entity
p4837
(dp4838
g11
(lp4839
sg13
S'com.android.server.location.RemoteListenerHelper$HandlerRunnable'
p4840
sg15
(lp4841
sg17
(lp4842
sg19
(lp4843
sg21
I0
sba(iArchitecture
Entity
p4844
(dp4845
g11
(lp4846
sg13
S'com.android.server.location.RemoteListenerHelper$LinkedListener'
p4847
sg15
(lp4848
sg17
(lp4849
sg19
(lp4850
sg21
I0
sba(iArchitecture
Entity
p4851
(dp4852
g11
(lp4853
sg13
S'com.android.server.location.RemoteListenerHelper$ListenerOperation'
p4854
sg15
(lp4855
sg17
(lp4856
sg19
(lp4857
sg21
I0
sbasg64
(lp4858
g4791
ag4798
ag4805
ag4812
ag4819
ag4826
ag4833
ag4840
ag4847
ag4854
asg21
I0
sg66
S'1179'
p4859
sba(iArchitecture
Cluster
p4860
(dp4861
g7
(lp4862
(iArchitecture
Entity
p4863
(dp4864
g11
(lp4865
sg13
S'android.view.ViewHierarchyEncoder'
p4866
sg15
(lp4867
sg17
(lp4868
sg19
(lp4869
sg21
I0
sbasg64
(lp4870
g4866
asg21
I0
sg66
S'118'
p4871
sba(iArchitecture
Cluster
p4872
(dp4873
g7
(lp4874
(iArchitecture
Entity
p4875
(dp4876
g11
(lp4877
sg13
S'com.android.server.dreams.DreamController'
p4878
sg15
(lp4879
sg17
(lp4880
sg19
(lp4881
sg21
I0
sba(iArchitecture
Entity
p4882
(dp4883
g11
(lp4884
sg13
S'com.android.server.dreams.DreamController$1'
p4885
sg15
(lp4886
sg17
(lp4887
sg19
(lp4888
sg21
I0
sba(iArchitecture
Entity
p4889
(dp4890
g11
(lp4891
sg13
S'com.android.server.dreams.DreamController$2'
p4892
sg15
(lp4893
sg17
(lp4894
sg19
(lp4895
sg21
I0
sba(iArchitecture
Entity
p4896
(dp4897
g11
(lp4898
sg13
S'com.android.server.dreams.DreamController$3'
p4899
sg15
(lp4900
sg17
(lp4901
sg19
(lp4902
sg21
I0
sba(iArchitecture
Entity
p4903
(dp4904
g11
(lp4905
sg13
S'com.android.server.dreams.DreamController$DreamRecord'
p4906
sg15
(lp4907
sg17
(lp4908
sg19
(lp4909
sg21
I0
sba(iArchitecture
Entity
p4910
(dp4911
g11
(lp4912
sg13
S'com.android.server.dreams.DreamController$DreamRecord$1'
p4913
sg15
(lp4914
sg17
(lp4915
sg19
(lp4916
sg21
I0
sba(iArchitecture
Entity
p4917
(dp4918
g11
(lp4919
sg13
S'com.android.server.dreams.DreamController$DreamRecord$2'
p4920
sg15
(lp4921
sg17
(lp4922
sg19
(lp4923
sg21
I0
sba(iArchitecture
Entity
p4924
(dp4925
g11
(lp4926
sg13
S'com.android.server.dreams.DreamController$DreamRecord$3'
p4927
sg15
(lp4928
sg17
(lp4929
sg19
(lp4930
sg21
I0
sba(iArchitecture
Entity
p4931
(dp4932
g11
(lp4933
sg13
S'com.android.server.dreams.DreamController$Listener'
p4934
sg15
(lp4935
sg17
(lp4936
sg19
(lp4937
sg21
I0
sba(iArchitecture
Entity
p4938
(dp4939
g11
(lp4940
sg13
S'com.android.server.dreams.DreamManagerService'
p4941
sg15
(lp4942
sg17
(lp4943
sg19
(lp4944
sg21
I0
sba(iArchitecture
Entity
p4945
(dp4946
g11
(lp4947
sg13
S'com.android.server.dreams.DreamManagerService$1'
p4948
sg15
(lp4949
sg17
(lp4950
sg19
(lp4951
sg21
I0
sba(iArchitecture
Entity
p4952
(dp4953
g11
(lp4954
sg13
S'com.android.server.dreams.DreamManagerService$2'
p4955
sg15
(lp4956
sg17
(lp4957
sg19
(lp4958
sg21
I0
sba(iArchitecture
Entity
p4959
(dp4960
g11
(lp4961
sg13
S'com.android.server.dreams.DreamManagerService$3'
p4962
sg15
(lp4963
sg17
(lp4964
sg19
(lp4965
sg21
I0
sba(iArchitecture
Entity
p4966
(dp4967
g11
(lp4968
sg13
S'com.android.server.dreams.DreamManagerService$4'
p4969
sg15
(lp4970
sg17
(lp4971
sg19
(lp4972
sg21
I0
sba(iArchitecture
Entity
p4973
(dp4974
g11
(lp4975
sg13
S'com.android.server.dreams.DreamManagerService$5'
p4976
sg15
(lp4977
sg17
(lp4978
sg19
(lp4979
sg21
I0
sba(iArchitecture
Entity
p4980
(dp4981
g11
(lp4982
sg13
S'com.android.server.dreams.DreamManagerService$6'
p4983
sg15
(lp4984
sg17
(lp4985
sg19
(lp4986
sg21
I0
sba(iArchitecture
Entity
p4987
(dp4988
g11
(lp4989
sg13
S'com.android.server.dreams.DreamManagerService$BinderService'
p4990
sg15
(lp4991
sg17
(lp4992
sg19
(lp4993
sg21
I0
sba(iArchitecture
Entity
p4994
(dp4995
g11
(lp4996
sg13
S'com.android.server.dreams.DreamManagerService$DreamHandler'
p4997
sg15
(lp4998
sg17
(lp4999
sg19
(lp5000
sg21
I0
sba(iArchitecture
Entity
p5001
(dp5002
g11
(lp5003
sg13
S'com.android.server.dreams.DreamManagerService$LocalService'
p5004
sg15
(lp5005
sg17
(lp5006
sg19
(lp5007
sg21
I0
sbasg64
(lp5008
g4878
ag4885
ag4892
ag4899
ag4906
ag4913
ag4920
ag4927
ag4934
ag4941
ag4948
ag4955
ag4962
ag4969
ag4976
ag4983
ag4990
ag4997
ag5004
asg21
I0
sg66
S'1180'
p5009
sba(iArchitecture
Cluster
p5010
(dp5011
g7
(lp5012
(iArchitecture
Entity
p5013
(dp5014
g11
(lp5015
sg13
S'android.net.PacProxySelector'
p5016
sg15
(lp5017
sg17
(lp5018
sg19
(lp5019
sg21
I0
sba(iArchitecture
Entity
p5020
(dp5021
g11
(lp5022
sg13
S'android.net.Proxy'
p5023
sg15
(lp5024
sg17
(lp5025
sg19
(lp5026
sg21
I0
sba(iArchitecture
Entity
p5027
(dp5028
g11
(lp5029
sg13
S'com.android.server.DockObserver'
p5030
sg15
(lp5031
sg17
(lp5032
sg19
(lp5033
sg21
I0
sba(iArchitecture
Entity
p5034
(dp5035
g11
(lp5036
sg13
S'com.android.server.DockObserver$1'
p5037
sg15
(lp5038
sg17
(lp5039
sg19
(lp5040
sg21
I0
sba(iArchitecture
Entity
p5041
(dp5042
g11
(lp5043
sg13
S'com.android.server.DockObserver$2'
p5044
sg15
(lp5045
sg17
(lp5046
sg19
(lp5047
sg21
I0
sba(iArchitecture
Entity
p5048
(dp5049
g11
(lp5050
sg13
S'com.android.server.DockObserver$BinderService'
p5051
sg15
(lp5052
sg17
(lp5053
sg19
(lp5054
sg21
I0
sba(iArchitecture
Entity
p5055
(dp5056
g11
(lp5057
sg13
S'com.android.server.connectivity.PacManager'
p5058
sg15
(lp5059
sg17
(lp5060
sg19
(lp5061
sg21
I0
sba(iArchitecture
Entity
p5062
(dp5063
g11
(lp5064
sg13
S'com.android.server.connectivity.PacManager$1'
p5065
sg15
(lp5066
sg17
(lp5067
sg19
(lp5068
sg21
I0
sba(iArchitecture
Entity
p5069
(dp5070
g11
(lp5071
sg13
S'com.android.server.connectivity.PacManager$2'
p5072
sg15
(lp5073
sg17
(lp5074
sg19
(lp5075
sg21
I0
sba(iArchitecture
Entity
p5076
(dp5077
g11
(lp5078
sg13
S'com.android.server.connectivity.PacManager$3'
p5079
sg15
(lp5080
sg17
(lp5081
sg19
(lp5082
sg21
I0
sba(iArchitecture
Entity
p5083
(dp5084
g11
(lp5085
sg13
S'com.android.server.connectivity.PacManager$3$1'
p5086
sg15
(lp5087
sg17
(lp5088
sg19
(lp5089
sg21
I0
sba(iArchitecture
Entity
p5090
(dp5091
g11
(lp5092
sg13
S'com.android.server.connectivity.PacManager$PacRefreshIntentReceiver'
p5093
sg15
(lp5094
sg17
(lp5095
sg19
(lp5096
sg21
I0
sbasg64
(lp5097
g5016
ag5023
ag5030
ag5037
ag5044
ag5051
ag5058
ag5065
ag5072
ag5079
ag5086
ag5093
asg21
I0
sg66
S'1181'
p5098
sba(iArchitecture
Cluster
p5099
(dp5100
g7
(lp5101
(iArchitecture
Entity
p5102
(dp5103
g11
(lp5104
sg13
S'android.widget.ZoomButton'
p5105
sg15
(lp5106
sg17
(lp5107
sg19
(lp5108
sg21
I0
sba(iArchitecture
Entity
p5109
(dp5110
g11
(lp5111
sg13
S'android.widget.ZoomButton$1'
p5112
sg15
(lp5113
sg17
(lp5114
sg19
(lp5115
sg21
I0
sba(iArchitecture
Entity
p5116
(dp5117
g11
(lp5118
sg13
S'android.widget.ZoomControls'
p5119
sg15
(lp5120
sg17
(lp5121
sg19
(lp5122
sg21
I0
sbasg64
(lp5123
g5105
ag5112
ag5119
asg21
I0
sg66
S'1182'
p5124
sba(iArchitecture
Cluster
p5125
(dp5126
g7
(lp5127
(iArchitecture
Entity
p5128
(dp5129
g11
(lp5130
sg13
S'android.content.UndoManager'
p5131
sg15
(lp5132
sg17
(lp5133
sg19
(lp5134
sg21
I0
sba(iArchitecture
Entity
p5135
(dp5136
g11
(lp5137
sg13
S'android.content.UndoManager$UndoState'
p5138
sg15
(lp5139
sg17
(lp5140
sg19
(lp5141
sg21
I0
sba(iArchitecture
Entity
p5142
(dp5143
g11
(lp5144
sg13
S'android.inputmethodservice.Keyboard'
p5145
sg15
(lp5146
sg17
(lp5147
sg19
(lp5148
sg21
I0
sba(iArchitecture
Entity
p5149
(dp5150
g11
(lp5151
sg13
S'android.inputmethodservice.Keyboard$Key'
p5152
sg15
(lp5153
sg17
(lp5154
sg19
(lp5155
sg21
I0
sba(iArchitecture
Entity
p5156
(dp5157
g11
(lp5158
sg13
S'android.inputmethodservice.Keyboard$Row'
p5159
sg15
(lp5160
sg17
(lp5161
sg19
(lp5162
sg21
I0
sba(iArchitecture
Entity
p5163
(dp5164
g11
(lp5165
sg13
S'android.inputmethodservice.KeyboardView'
p5166
sg15
(lp5167
sg17
(lp5168
sg19
(lp5169
sg21
I0
sba(iArchitecture
Entity
p5170
(dp5171
g11
(lp5172
sg13
S'android.inputmethodservice.KeyboardView$1'
p5173
sg15
(lp5174
sg17
(lp5175
sg19
(lp5176
sg21
I0
sba(iArchitecture
Entity
p5177
(dp5178
g11
(lp5179
sg13
S'android.inputmethodservice.KeyboardView$2'
p5180
sg15
(lp5181
sg17
(lp5182
sg19
(lp5183
sg21
I0
sba(iArchitecture
Entity
p5184
(dp5185
g11
(lp5186
sg13
S'android.inputmethodservice.KeyboardView$3'
p5187
sg15
(lp5188
sg17
(lp5189
sg19
(lp5190
sg21
I0
sba(iArchitecture
Entity
p5191
(dp5192
g11
(lp5193
sg13
S'android.inputmethodservice.KeyboardView$OnKeyboardActionListener'
p5194
sg15
(lp5195
sg17
(lp5196
sg19
(lp5197
sg21
I0
sba(iArchitecture
Entity
p5198
(dp5199
g11
(lp5200
sg13
S'android.inputmethodservice.KeyboardView$SwipeTracker'
p5201
sg15
(lp5202
sg17
(lp5203
sg19
(lp5204
sg21
I0
sba(iArchitecture
Entity
p5205
(dp5206
g11
(lp5207
sg13
S'android.view.inputmethod.BaseInputConnection'
p5208
sg15
(lp5209
sg17
(lp5210
sg19
(lp5211
sg21
I0
sba(iArchitecture
Entity
p5212
(dp5213
g11
(lp5214
sg13
S'android.widget.AbsSeekBar'
p5215
sg15
(lp5216
sg17
(lp5217
sg19
(lp5218
sg21
I0
sba(iArchitecture
Entity
p5219
(dp5220
g11
(lp5221
sg13
S'android.widget.Switch'
p5222
sg15
(lp5223
sg17
(lp5224
sg19
(lp5225
sg21
I0
sba(iArchitecture
Entity
p5226
(dp5227
g11
(lp5228
sg13
S'android.widget.Switch$1'
p5229
sg15
(lp5230
sg17
(lp5231
sg19
(lp5232
sg21
I0
sbasg64
(lp5233
g5131
ag5138
ag5145
ag5152
ag5159
ag5166
ag5173
ag5180
ag5187
ag5194
ag5201
ag5208
ag5215
ag5222
ag5229
asg21
I0
sg66
S'1183'
p5234
sba(iArchitecture
Cluster
p5235
(dp5236
g7
(lp5237
(iArchitecture
Entity
p5238
(dp5239
g11
(lp5240
sg13
S'android.view.ViewGroupOverlay'
p5241
sg15
(lp5242
sg17
(lp5243
sg19
(lp5244
sg21
I0
sba(iArchitecture
Entity
p5245
(dp5246
g11
(lp5247
sg13
S'android.webkit.WebViewFragment'
p5248
sg15
(lp5249
sg17
(lp5250
sg19
(lp5251
sg21
I0
sbasg64
(lp5252
g5241
ag5248
asg21
I0
sg66
S'1184'
p5253
sba(iArchitecture
Cluster
p5254
(dp5255
g7
(lp5256
(iArchitecture
Entity
p5257
(dp5258
g11
(lp5259
sg13
S'android.graphics.drawable.AnimatedRotateDrawable'
p5260
sg15
(lp5261
sg17
(lp5262
sg19
(lp5263
sg21
I0
sba(iArchitecture
Entity
p5264
(dp5265
g11
(lp5266
sg13
S'android.graphics.drawable.AnimatedRotateDrawable$1'
p5267
sg15
(lp5268
sg17
(lp5269
sg19
(lp5270
sg21
I0
sba(iArchitecture
Entity
p5271
(dp5272
g11
(lp5273
sg13
S'android.graphics.drawable.AnimatedRotateDrawable$AnimatedRotateState'
p5274
sg15
(lp5275
sg17
(lp5276
sg19
(lp5277
sg21
I0
sba(iArchitecture
Entity
p5278
(dp5279
g11
(lp5280
sg13
S'android.util.StateSet'
p5281
sg15
(lp5282
sg17
(lp5283
sg19
(lp5284
sg21
I0
sbasg64
(lp5285
g5260
ag5267
ag5274
ag5281
asg21
I0
sg66
S'1185'
p5286
sba(iArchitecture
Cluster
p5287
(dp5288
g7
(lp5289
(iArchitecture
Entity
p5290
(dp5291
g11
(lp5292
sg13
S'android.content.SyncAdapterType'
p5293
sg15
(lp5294
sg17
(lp5295
sg19
(lp5296
sg21
I0
sba(iArchitecture
Entity
p5297
(dp5298
g11
(lp5299
sg13
S'android.content.SyncAdapterType$1'
p5300
sg15
(lp5301
sg17
(lp5302
sg19
(lp5303
sg21
I0
sba(iArchitecture
Entity
p5304
(dp5305
g11
(lp5306
sg13
S'android.content.SyncAdaptersCache'
p5307
sg15
(lp5308
sg17
(lp5309
sg19
(lp5310
sg21
I0
sba(iArchitecture
Entity
p5311
(dp5312
g11
(lp5313
sg13
S'android.content.SyncAdaptersCache$MySerializer'
p5314
sg15
(lp5315
sg17
(lp5316
sg19
(lp5317
sg21
I0
sbasg64
(lp5318
g5293
ag5300
ag5307
ag5314
asg21
I0
sg66
S'1186'
p5319
sba(iArchitecture
Cluster
p5320
(dp5321
g7
(lp5322
(iArchitecture
Entity
p5323
(dp5324
g11
(lp5325
sg13
S'android.hardware.camera2.marshal.impl.MarshalQueryableHighSpeedVideoConfiguration'
p5326
sg15
(lp5327
sg17
(lp5328
sg19
(lp5329
sg21
I0
sba(iArchitecture
Entity
p5330
(dp5331
g11
(lp5332
sg13
S'android.hardware.camera2.marshal.impl.MarshalQueryableHighSpeedVideoConfiguration$MarshalerHighSpeedVideoConfiguration'
p5333
sg15
(lp5334
sg17
(lp5335
sg19
(lp5336
sg21
I0
sba(iArchitecture
Entity
p5337
(dp5338
g11
(lp5339
sg13
S'android.hardware.camera2.params.HighSpeedVideoConfiguration'
p5340
sg15
(lp5341
sg17
(lp5342
sg19
(lp5343
sg21
I0
sbasg64
(lp5344
g5326
ag5333
ag5340
asg21
I0
sg66
S'1187'
p5345
sba(iArchitecture
Cluster
p5346
(dp5347
g7
(lp5348
(iArchitecture
Entity
p5349
(dp5350
g11
(lp5351
sg13
S'com.android.server.audio.FocusRequester'
p5352
sg15
(lp5353
sg17
(lp5354
sg19
(lp5355
sg21
I0
sba(iArchitecture
Entity
p5356
(dp5357
g11
(lp5358
sg13
S'com.android.server.audio.MediaFocusControl'
p5359
sg15
(lp5360
sg17
(lp5361
sg19
(lp5362
sg21
I0
sba(iArchitecture
Entity
p5363
(dp5364
g11
(lp5365
sg13
S'com.android.server.audio.MediaFocusControl$1'
p5366
sg15
(lp5367
sg17
(lp5368
sg19
(lp5369
sg21
I0
sba(iArchitecture
Entity
p5370
(dp5371
g11
(lp5372
sg13
S'com.android.server.audio.MediaFocusControl$2'
p5373
sg15
(lp5374
sg17
(lp5375
sg19
(lp5376
sg21
I0
sba(iArchitecture
Entity
p5377
(dp5378
g11
(lp5379
sg13
S'com.android.server.audio.MediaFocusControl$3'
p5380
sg15
(lp5381
sg17
(lp5382
sg19
(lp5383
sg21
I0
sba(iArchitecture
Entity
p5384
(dp5385
g11
(lp5386
sg13
S'com.android.server.audio.MediaFocusControl$AudioFocusDeathHandler'
p5387
sg15
(lp5388
sg17
(lp5389
sg19
(lp5390
sg21
I0
sba(iArchitecture
Entity
p5391
(dp5392
g11
(lp5393
sg13
S'com.android.server.audio.MediaFocusControl$DisplayInfoForServer'
p5394
sg15
(lp5395
sg17
(lp5396
sg19
(lp5397
sg21
I0
sba(iArchitecture
Entity
p5398
(dp5399
g11
(lp5400
sg13
S'com.android.server.audio.MediaFocusControl$MediaEventHandler'
p5401
sg15
(lp5402
sg17
(lp5403
sg19
(lp5404
sg21
I0
sba(iArchitecture
Entity
p5405
(dp5406
g11
(lp5407
sg13
S'com.android.server.audio.MediaFocusControl$NotificationListenerObserver'
p5408
sg15
(lp5409
sg17
(lp5410
sg19
(lp5411
sg21
I0
sbasg64
(lp5412
g5352
ag5359
ag5366
ag5373
ag5380
ag5387
ag5394
ag5401
ag5408
asg21
I0
sg66
S'1188'
p5413
sba(iArchitecture
Cluster
p5414
(dp5415
g7
(lp5416
(iArchitecture
Entity
p5417
(dp5418
g11
(lp5419
sg13
S'android.database.sqlite.SqliteWrapper'
p5420
sg15
(lp5421
sg17
(lp5422
sg19
(lp5423
sg21
I0
sba(iArchitecture
Entity
p5424
(dp5425
g11
(lp5426
sg13
S'android.hardware.SerialManager'
p5427
sg15
(lp5428
sg17
(lp5429
sg19
(lp5430
sg21
I0
sba(iArchitecture
Entity
p5431
(dp5432
g11
(lp5433
sg13
S'com.android.internal.widget.LinearLayoutWithDefaultTouchRecepient'
p5434
sg15
(lp5435
sg17
(lp5436
sg19
(lp5437
sg21
I0
sba(iArchitecture
Entity
p5438
(dp5439
g11
(lp5440
sg13
S'com.android.server.SerialService'
p5441
sg15
(lp5442
sg17
(lp5443
sg19
(lp5444
sg21
I0
sbasg64
(lp5445
g5420
ag5427
ag5434
ag5441
asg21
I0
sg66
S'1189'
p5446
sba(iArchitecture
Cluster
p5447
(dp5448
g7
(lp5449
(iArchitecture
Entity
p5450
(dp5451
g11
(lp5452
sg13
S'android.location.GpsSatellite'
p5453
sg15
(lp5454
sg17
(lp5455
sg19
(lp5456
sg21
I0
sbasg64
(lp5457
g5453
asg21
I0
sg66
S'119'
p5458
sba(iArchitecture
Cluster
p5459
(dp5460
g7
(lp5461
(iArchitecture
Entity
p5462
(dp5463
g11
(lp5464
sg13
S'android.app.backup.BackupAgent'
p5465
sg15
(lp5466
sg17
(lp5467
sg19
(lp5468
sg21
I0
sba(iArchitecture
Entity
p5469
(dp5470
g11
(lp5471
sg13
S'android.app.backup.BackupAgent$BackupServiceBinder'
p5472
sg15
(lp5473
sg17
(lp5474
sg19
(lp5475
sg21
I0
sba(iArchitecture
Entity
p5476
(dp5477
g11
(lp5478
sg13
S'android.app.backup.BackupAgent$FailRunnable'
p5479
sg15
(lp5480
sg17
(lp5481
sg19
(lp5482
sg21
I0
sba(iArchitecture
Entity
p5483
(dp5484
g11
(lp5485
sg13
S'android.app.backup.BackupAgent$SharedPrefsSynchronizer'
p5486
sg15
(lp5487
sg17
(lp5488
sg19
(lp5489
sg21
I0
sba(iArchitecture
Entity
p5490
(dp5491
g11
(lp5492
sg13
S'android.app.backup.BackupManager'
p5493
sg15
(lp5494
sg17
(lp5495
sg19
(lp5496
sg21
I0
sba(iArchitecture
Entity
p5497
(dp5498
g11
(lp5499
sg13
S'android.app.backup.BackupTransport'
p5500
sg15
(lp5501
sg17
(lp5502
sg19
(lp5503
sg21
I0
sba(iArchitecture
Entity
p5504
(dp5505
g11
(lp5506
sg13
S'android.app.backup.BackupTransport$TransportImpl'
p5507
sg15
(lp5508
sg17
(lp5509
sg19
(lp5510
sg21
I0
sba(iArchitecture
Entity
p5511
(dp5512
g11
(lp5513
sg13
S'android.app.backup.FullBackup'
p5514
sg15
(lp5515
sg17
(lp5516
sg19
(lp5517
sg21
I0
sba(iArchitecture
Entity
p5518
(dp5519
g11
(lp5520
sg13
S'android.app.backup.FullBackup$BackupScheme'
p5521
sg15
(lp5522
sg17
(lp5523
sg19
(lp5524
sg21
I0
sba(iArchitecture
Entity
p5525
(dp5526
g11
(lp5527
sg13
S'android.app.backup.RestoreSession'
p5528
sg15
(lp5529
sg17
(lp5530
sg19
(lp5531
sg21
I0
sba(iArchitecture
Entity
p5532
(dp5533
g11
(lp5534
sg13
S'android.app.backup.RestoreSession$RestoreObserverWrapper'
p5535
sg15
(lp5536
sg17
(lp5537
sg19
(lp5538
sg21
I0
sba(iArchitecture
Entity
p5539
(dp5540
g11
(lp5541
sg13
S'android.app.backup.RestoreSession$RestoreObserverWrapper$1'
p5542
sg15
(lp5543
sg17
(lp5544
sg19
(lp5545
sg21
I0
sba(iArchitecture
Entity
p5546
(dp5547
g11
(lp5548
sg13
S'android.content.pm.PackageInstaller'
p5549
sg15
(lp5550
sg17
(lp5551
sg19
(lp5552
sg21
I0
sba(iArchitecture
Entity
p5553
(dp5554
g11
(lp5555
sg13
S'android.content.pm.PackageInstaller$Session'
p5556
sg15
(lp5557
sg17
(lp5558
sg19
(lp5559
sg21
I0
sba(iArchitecture
Entity
p5560
(dp5561
g11
(lp5562
sg13
S'android.content.pm.PackageInstaller$SessionCallback'
p5563
sg15
(lp5564
sg17
(lp5565
sg19
(lp5566
sg21
I0
sba(iArchitecture
Entity
p5567
(dp5568
g11
(lp5569
sg13
S'android.content.pm.PackageInstaller$SessionCallbackDelegate'
p5570
sg15
(lp5571
sg17
(lp5572
sg19
(lp5573
sg21
I0
sba(iArchitecture
Entity
p5574
(dp5575
g11
(lp5576
sg13
S'android.content.pm.PackageInstaller$SessionInfo'
p5577
sg15
(lp5578
sg17
(lp5579
sg19
(lp5580
sg21
I0
sba(iArchitecture
Entity
p5581
(dp5582
g11
(lp5583
sg13
S'android.content.pm.PackageInstaller$SessionInfo$1'
p5584
sg15
(lp5585
sg17
(lp5586
sg19
(lp5587
sg21
I0
sba(iArchitecture
Entity
p5588
(dp5589
g11
(lp5590
sg13
S'android.content.pm.PackageInstaller$SessionParams'
p5591
sg15
(lp5592
sg17
(lp5593
sg19
(lp5594
sg21
I0
sba(iArchitecture
Entity
p5595
(dp5596
g11
(lp5597
sg13
S'android.content.pm.PackageInstaller$SessionParams$1'
p5598
sg15
(lp5599
sg17
(lp5600
sg19
(lp5601
sg21
I0
sba(iArchitecture
Entity
p5602
(dp5603
g11
(lp5604
sg13
S'android.content.pm.RegisteredServicesCache'
p5605
sg15
(lp5606
sg17
(lp5607
sg19
(lp5608
sg21
I0
sba(iArchitecture
Entity
p5609
(dp5610
g11
(lp5611
sg13
S'android.content.pm.RegisteredServicesCache$1'
p5612
sg15
(lp5613
sg17
(lp5614
sg19
(lp5615
sg21
I0
sba(iArchitecture
Entity
p5616
(dp5617
g11
(lp5618
sg13
S'android.content.pm.RegisteredServicesCache$2'
p5619
sg15
(lp5620
sg17
(lp5621
sg19
(lp5622
sg21
I0
sba(iArchitecture
Entity
p5623
(dp5624
g11
(lp5625
sg13
S'android.content.pm.RegisteredServicesCache$3'
p5626
sg15
(lp5627
sg17
(lp5628
sg19
(lp5629
sg21
I0
sba(iArchitecture
Entity
p5630
(dp5631
g11
(lp5632
sg13
S'android.content.pm.RegisteredServicesCache$4'
p5633
sg15
(lp5634
sg17
(lp5635
sg19
(lp5636
sg21
I0
sba(iArchitecture
Entity
p5637
(dp5638
g11
(lp5639
sg13
S'android.content.pm.RegisteredServicesCache$ServiceInfo'
p5640
sg15
(lp5641
sg17
(lp5642
sg19
(lp5643
sg21
I0
sba(iArchitecture
Entity
p5644
(dp5645
g11
(lp5646
sg13
S'android.content.pm.RegisteredServicesCache$UserServices'
p5647
sg15
(lp5648
sg17
(lp5649
sg19
(lp5650
sg21
I0
sba(iArchitecture
Entity
p5651
(dp5652
g11
(lp5653
sg13
S'com.android.internal.backup.LocalTransport'
p5654
sg15
(lp5655
sg17
(lp5656
sg19
(lp5657
sg21
I0
sba(iArchitecture
Entity
p5658
(dp5659
g11
(lp5660
sg13
S'com.android.internal.backup.LocalTransport$DecodedFilename'
p5661
sg15
(lp5662
sg17
(lp5663
sg19
(lp5664
sg21
I0
sba(iArchitecture
Entity
p5665
(dp5666
g11
(lp5667
sg13
S'com.android.server.ServiceWatcher'
p5668
sg15
(lp5669
sg17
(lp5670
sg19
(lp5671
sg21
I0
sba(iArchitecture
Entity
p5672
(dp5673
g11
(lp5674
sg13
S'com.android.server.ServiceWatcher$1'
p5675
sg15
(lp5676
sg17
(lp5677
sg19
(lp5678
sg21
I0
sba(iArchitecture
Entity
p5679
(dp5680
g11
(lp5681
sg13
S'com.android.server.ServiceWatcher$2'
p5682
sg15
(lp5683
sg17
(lp5684
sg19
(lp5685
sg21
I0
sba(iArchitecture
Entity
p5686
(dp5687
g11
(lp5688
sg13
S'com.android.server.connectivity.PermissionMonitor'
p5689
sg15
(lp5690
sg17
(lp5691
sg19
(lp5692
sg21
I0
sba(iArchitecture
Entity
p5693
(dp5694
g11
(lp5695
sg13
S'com.android.server.connectivity.PermissionMonitor$1'
p5696
sg15
(lp5697
sg17
(lp5698
sg19
(lp5699
sg21
I0
sba(iArchitecture
Entity
p5700
(dp5701
g11
(lp5702
sg13
S'com.android.server.pm.PackageInstallerService'
p5703
sg15
(lp5704
sg17
(lp5705
sg19
(lp5706
sg21
I0
sba(iArchitecture
Entity
p5707
(dp5708
g11
(lp5709
sg13
S'com.android.server.pm.PackageInstallerService$1'
p5710
sg15
(lp5711
sg17
(lp5712
sg19
(lp5713
sg21
I0
sba(iArchitecture
Entity
p5714
(dp5715
g11
(lp5716
sg13
S'com.android.server.pm.PackageInstallerService$2'
p5717
sg15
(lp5718
sg17
(lp5719
sg19
(lp5720
sg21
I0
sba(iArchitecture
Entity
p5721
(dp5722
g11
(lp5723
sg13
S'com.android.server.pm.PackageInstallerService$Callbacks'
p5724
sg15
(lp5725
sg17
(lp5726
sg19
(lp5727
sg21
I0
sba(iArchitecture
Entity
p5728
(dp5729
g11
(lp5730
sg13
S'com.android.server.pm.PackageInstallerService$InternalCallback'
p5731
sg15
(lp5732
sg17
(lp5733
sg19
(lp5734
sg21
I0
sba(iArchitecture
Entity
p5735
(dp5736
g11
(lp5737
sg13
S'com.android.server.pm.PackageInstallerService$InternalCallback$1'
p5738
sg15
(lp5739
sg17
(lp5740
sg19
(lp5741
sg21
I0
sba(iArchitecture
Entity
p5742
(dp5743
g11
(lp5744
sg13
S'com.android.server.pm.PackageInstallerService$PackageDeleteObserverAdapter'
p5745
sg15
(lp5746
sg17
(lp5747
sg19
(lp5748
sg21
I0
sba(iArchitecture
Entity
p5749
(dp5750
g11
(lp5751
sg13
S'com.android.server.pm.PackageInstallerService$PackageInstallObserverAdapter'
p5752
sg15
(lp5753
sg17
(lp5754
sg19
(lp5755
sg21
I0
sba(iArchitecture
Entity
p5756
(dp5757
g11
(lp5758
sg13
S'com.android.server.voiceinteraction.VoiceInteractionManagerServiceImpl'
p5759
sg15
(lp5760
sg17
(lp5761
sg19
(lp5762
sg21
I0
sba(iArchitecture
Entity
p5763
(dp5764
g11
(lp5765
sg13
S'com.android.server.voiceinteraction.VoiceInteractionManagerServiceImpl$1'
p5766
sg15
(lp5767
sg17
(lp5768
sg19
(lp5769
sg21
I0
sba(iArchitecture
Entity
p5770
(dp5771
g11
(lp5772
sg13
S'com.android.server.voiceinteraction.VoiceInteractionManagerServiceImpl$2'
p5773
sg15
(lp5774
sg17
(lp5775
sg19
(lp5776
sg21
I0
sba(iArchitecture
Entity
p5777
(dp5778
g11
(lp5779
sg13
S'com.android.server.voiceinteraction.VoiceInteractionSessionConnection'
p5780
sg15
(lp5781
sg17
(lp5782
sg19
(lp5783
sg21
I0
sba(iArchitecture
Entity
p5784
(dp5785
g11
(lp5786
sg13
S'com.android.server.voiceinteraction.VoiceInteractionSessionConnection$1'
p5787
sg15
(lp5788
sg17
(lp5789
sg19
(lp5790
sg21
I0
sba(iArchitecture
Entity
p5791
(dp5792
g11
(lp5793
sg13
S'com.android.server.voiceinteraction.VoiceInteractionSessionConnection$2'
p5794
sg15
(lp5795
sg17
(lp5796
sg19
(lp5797
sg21
I0
sba(iArchitecture
Entity
p5798
(dp5799
g11
(lp5800
sg13
S'com.android.server.voiceinteraction.VoiceInteractionSessionConnection$3'
p5801
sg15
(lp5802
sg17
(lp5803
sg19
(lp5804
sg21
I0
sba(iArchitecture
Entity
p5805
(dp5806
g11
(lp5807
sg13
S'com.android.server.voiceinteraction.VoiceInteractionSessionConnection$4'
p5808
sg15
(lp5809
sg17
(lp5810
sg19
(lp5811
sg21
I0
sba(iArchitecture
Entity
p5812
(dp5813
g11
(lp5814
sg13
S'com.android.server.voiceinteraction.VoiceInteractionSessionConnection$5'
p5815
sg15
(lp5816
sg17
(lp5817
sg19
(lp5818
sg21
I0
sba(iArchitecture
Entity
p5819
(dp5820
g11
(lp5821
sg13
S'com.android.server.voiceinteraction.VoiceInteractionSessionConnection$Callback'
p5822
sg15
(lp5823
sg17
(lp5824
sg19
(lp5825
sg21
I0
sbasg64
(lp5826
g5465
ag5472
ag5479
ag5486
ag5493
ag5500
ag5507
ag5514
ag5521
ag5528
ag5535
ag5542
ag5549
ag5556
ag5563
ag5570
ag5577
ag5584
ag5591
ag5598
ag5605
ag5612
ag5619
ag5626
ag5633
ag5640
ag5647
ag5654
ag5661
ag5668
ag5675
ag5682
ag5689
ag5696
ag5703
ag5710
ag5717
ag5724
ag5731
ag5738
ag5745
ag5752
ag5759
ag5766
ag5773
ag5780
ag5787
ag5794
ag5801
ag5808
ag5815
ag5822
asg21
I0
sg66
S'1190'
p5827
sba(iArchitecture
Cluster
p5828
(dp5829
g7
(lp5830
(iArchitecture
Entity
p5831
(dp5832
g11
(lp5833
sg13
S'android.graphics.Shader'
p5834
sg15
(lp5835
sg17
(lp5836
sg19
(lp5837
sg21
I0
sba(iArchitecture
Entity
p5838
(dp5839
g11
(lp5840
sg13
S'android.graphics.Shader$TileMode'
p5841
sg15
(lp5842
sg17
(lp5843
sg19
(lp5844
sg21
I0
sba(iArchitecture
Entity
p5845
(dp5846
g11
(lp5847
sg13
S'com.android.internal.util.UserIcons'
p5848
sg15
(lp5849
sg17
(lp5850
sg19
(lp5851
sg21
I0
sbasg64
(lp5852
g5834
ag5841
ag5848
asg21
I0
sg66
S'1191'
p5853
sba(iArchitecture
Cluster
p5854
(dp5855
g7
(lp5856
(iArchitecture
Entity
p5857
(dp5858
g11
(lp5859
sg13
S'android.media.audiopolicy.AudioMix'
p5860
sg15
(lp5861
sg17
(lp5862
sg19
(lp5863
sg21
I0
sba(iArchitecture
Entity
p5864
(dp5865
g11
(lp5866
sg13
S'android.media.audiopolicy.AudioMix$Builder'
p5867
sg15
(lp5868
sg17
(lp5869
sg19
(lp5870
sg21
I0
sba(iArchitecture
Entity
p5871
(dp5872
g11
(lp5873
sg13
S'android.media.audiopolicy.AudioPolicyConfig'
p5874
sg15
(lp5875
sg17
(lp5876
sg19
(lp5877
sg21
I0
sba(iArchitecture
Entity
p5878
(dp5879
g11
(lp5880
sg13
S'android.media.audiopolicy.AudioPolicyConfig$1'
p5881
sg15
(lp5882
sg17
(lp5883
sg19
(lp5884
sg21
I0
sbasg64
(lp5885
g5860
ag5867
ag5874
ag5881
asg21
I0
sg66
S'1192'
p5886
sba(iArchitecture
Cluster
p5887
(dp5888
g7
(lp5889
(iArchitecture
Entity
p5890
(dp5891
g11
(lp5892
sg13
S'android.view.ContextMenu'
p5893
sg15
(lp5894
sg17
(lp5895
sg19
(lp5896
sg21
I0
sba(iArchitecture
Entity
p5897
(dp5898
g11
(lp5899
sg13
S'android.view.ContextMenu$ContextMenuInfo'
p5900
sg15
(lp5901
sg17
(lp5902
sg19
(lp5903
sg21
I0
sba(iArchitecture
Entity
p5904
(dp5905
g11
(lp5906
sg13
S'android.view.SubMenu'
p5907
sg15
(lp5908
sg17
(lp5909
sg19
(lp5910
sg21
I0
sba(iArchitecture
Entity
p5911
(dp5912
g11
(lp5913
sg13
S'com.android.internal.view.menu.MenuDialogHelper'
p5914
sg15
(lp5915
sg17
(lp5916
sg19
(lp5917
sg21
I0
sba(iArchitecture
Entity
p5918
(dp5919
g11
(lp5920
sg13
S'com.android.internal.view.menu.MenuView'
p5921
sg15
(lp5922
sg17
(lp5923
sg19
(lp5924
sg21
I0
sba(iArchitecture
Entity
p5925
(dp5926
g11
(lp5927
sg13
S'com.android.internal.view.menu.MenuView$ItemView'
p5928
sg15
(lp5929
sg17
(lp5930
sg19
(lp5931
sg21
I0
sba(iArchitecture
Entity
p5932
(dp5933
g11
(lp5934
sg13
S'com.android.internal.view.menu.SubMenuBuilder'
p5935
sg15
(lp5936
sg17
(lp5937
sg19
(lp5938
sg21
I0
sbasg64
(lp5939
g5893
ag5900
ag5907
ag5914
ag5921
ag5928
ag5935
asg21
I0
sg66
S'1193'
p5940
sba(iArchitecture
Cluster
p5941
(dp5942
g7
(lp5943
(iArchitecture
Entity
p5944
(dp5945
g11
(lp5946
sg13
S'android.transition.CircularPropagation'
p5947
sg15
(lp5948
sg17
(lp5949
sg19
(lp5950
sg21
I0
sba(iArchitecture
Entity
p5951
(dp5952
g11
(lp5953
sg13
S'android.transition.Explode'
p5954
sg15
(lp5955
sg17
(lp5956
sg19
(lp5957
sg21
I0
sba(iArchitecture
Entity
p5958
(dp5959
g11
(lp5960
sg13
S'android.transition.SidePropagation'
p5961
sg15
(lp5962
sg17
(lp5963
sg19
(lp5964
sg21
I0
sbasg64
(lp5965
g5947
ag5954
ag5961
asg21
I0
sg66
S'1194'
p5966
sba(iArchitecture
Cluster
p5967
(dp5968
g7
(lp5969
(iArchitecture
Entity
p5970
(dp5971
g11
(lp5972
sg13
S'android.telephony.CellIdentityGsm'
p5973
sg15
(lp5974
sg17
(lp5975
sg19
(lp5976
sg21
I0
sba(iArchitecture
Entity
p5977
(dp5978
g11
(lp5979
sg13
S'android.telephony.CellIdentityGsm$1'
p5980
sg15
(lp5981
sg17
(lp5982
sg19
(lp5983
sg21
I0
sba(iArchitecture
Entity
p5984
(dp5985
g11
(lp5986
sg13
S'android.telephony.CellIdentityWcdma'
p5987
sg15
(lp5988
sg17
(lp5989
sg19
(lp5990
sg21
I0
sba(iArchitecture
Entity
p5991
(dp5992
g11
(lp5993
sg13
S'android.telephony.CellIdentityWcdma$1'
p5994
sg15
(lp5995
sg17
(lp5996
sg19
(lp5997
sg21
I0
sbasg64
(lp5998
g5973
ag5980
ag5987
ag5994
asg21
I0
sg66
S'1195'
p5999
sba(iArchitecture
Cluster
p6000
(dp6001
g7
(lp6002
(iArchitecture
Entity
p6003
(dp6004
g11
(lp6005
sg13
S'android.provider.Browser'
p6006
sg15
(lp6007
sg17
(lp6008
sg19
(lp6009
sg21
I0
sba(iArchitecture
Entity
p6010
(dp6011
g11
(lp6012
sg13
S'android.provider.Browser$BookmarkColumns'
p6013
sg15
(lp6014
sg17
(lp6015
sg19
(lp6016
sg21
I0
sba(iArchitecture
Entity
p6017
(dp6018
g11
(lp6019
sg13
S'android.provider.Browser$SearchColumns'
p6020
sg15
(lp6021
sg17
(lp6022
sg19
(lp6023
sg21
I0
sba(iArchitecture
Entity
p6024
(dp6025
g11
(lp6026
sg13
S'android.provider.BrowserContract'
p6027
sg15
(lp6028
sg17
(lp6029
sg19
(lp6030
sg21
I0
sba(iArchitecture
Entity
p6031
(dp6032
g11
(lp6033
sg13
S'android.provider.BrowserContract$Accounts'
p6034
sg15
(lp6035
sg17
(lp6036
sg19
(lp6037
sg21
I0
sba(iArchitecture
Entity
p6038
(dp6039
g11
(lp6040
sg13
S'android.provider.BrowserContract$BaseSyncColumns'
p6041
sg15
(lp6042
sg17
(lp6043
sg19
(lp6044
sg21
I0
sba(iArchitecture
Entity
p6045
(dp6046
g11
(lp6047
sg13
S'android.provider.BrowserContract$Bookmarks'
p6048
sg15
(lp6049
sg17
(lp6050
sg19
(lp6051
sg21
I0
sba(iArchitecture
Entity
p6052
(dp6053
g11
(lp6054
sg13
S'android.provider.BrowserContract$ChromeSyncColumns'
p6055
sg15
(lp6056
sg17
(lp6057
sg19
(lp6058
sg21
I0
sba(iArchitecture
Entity
p6059
(dp6060
g11
(lp6061
sg13
S'android.provider.BrowserContract$Combined'
p6062
sg15
(lp6063
sg17
(lp6064
sg19
(lp6065
sg21
I0
sba(iArchitecture
Entity
p6066
(dp6067
g11
(lp6068
sg13
S'android.provider.BrowserContract$CommonColumns'
p6069
sg15
(lp6070
sg17
(lp6071
sg19
(lp6072
sg21
I0
sba(iArchitecture
Entity
p6073
(dp6074
g11
(lp6075
sg13
S'android.provider.BrowserContract$History'
p6076
sg15
(lp6077
sg17
(lp6078
sg19
(lp6079
sg21
I0
sba(iArchitecture
Entity
p6080
(dp6081
g11
(lp6082
sg13
S'android.provider.BrowserContract$HistoryColumns'
p6083
sg15
(lp6084
sg17
(lp6085
sg19
(lp6086
sg21
I0
sba(iArchitecture
Entity
p6087
(dp6088
g11
(lp6089
sg13
S'android.provider.BrowserContract$ImageColumns'
p6090
sg15
(lp6091
sg17
(lp6092
sg19
(lp6093
sg21
I0
sba(iArchitecture
Entity
p6094
(dp6095
g11
(lp6096
sg13
S'android.provider.BrowserContract$ImageMappingColumns'
p6097
sg15
(lp6098
sg17
(lp6099
sg19
(lp6100
sg21
I0
sba(iArchitecture
Entity
p6101
(dp6102
g11
(lp6103
sg13
S'android.provider.BrowserContract$ImageMappings'
p6104
sg15
(lp6105
sg17
(lp6106
sg19
(lp6107
sg21
I0
sba(iArchitecture
Entity
p6108
(dp6109
g11
(lp6110
sg13
S'android.provider.BrowserContract$Images'
p6111
sg15
(lp6112
sg17
(lp6113
sg19
(lp6114
sg21
I0
sba(iArchitecture
Entity
p6115
(dp6116
g11
(lp6117
sg13
S'android.provider.BrowserContract$Searches'
p6118
sg15
(lp6119
sg17
(lp6120
sg19
(lp6121
sg21
I0
sba(iArchitecture
Entity
p6122
(dp6123
g11
(lp6124
sg13
S'android.provider.BrowserContract$Settings'
p6125
sg15
(lp6126
sg17
(lp6127
sg19
(lp6128
sg21
I0
sba(iArchitecture
Entity
p6129
(dp6130
g11
(lp6131
sg13
S'android.provider.BrowserContract$SyncColumns'
p6132
sg15
(lp6133
sg17
(lp6134
sg19
(lp6135
sg21
I0
sba(iArchitecture
Entity
p6136
(dp6137
g11
(lp6138
sg13
S'android.provider.BrowserContract$SyncState'
p6139
sg15
(lp6140
sg17
(lp6141
sg19
(lp6142
sg21
I0
sbasg64
(lp6143
g6006
ag6013
ag6020
ag6027
ag6034
ag6041
ag6048
ag6055
ag6062
ag6069
ag6076
ag6083
ag6090
ag6097
ag6104
ag6111
ag6118
ag6125
ag6132
ag6139
asg21
I0
sg66
S'1196'
p6144
sba(iArchitecture
Cluster
p6145
(dp6146
g7
(lp6147
(iArchitecture
Entity
p6148
(dp6149
g11
(lp6150
sg13
S'android.content.res.ResourcesKey'
p6151
sg15
(lp6152
sg17
(lp6153
sg19
(lp6154
sg21
I0
sba(iArchitecture
Entity
p6155
(dp6156
g11
(lp6157
sg13
S'android.webkit.FindActionModeCallback'
p6158
sg15
(lp6159
sg17
(lp6160
sg19
(lp6161
sg21
I0
sba(iArchitecture
Entity
p6162
(dp6163
g11
(lp6164
sg13
S'android.webkit.FindActionModeCallback$NoAction'
p6165
sg15
(lp6166
sg17
(lp6167
sg19
(lp6168
sg21
I0
sbasg64
(lp6169
g6151
ag6158
ag6165
asg21
I0
sg66
S'1197'
p6170
sba(iArchitecture
Cluster
p6171
(dp6172
g7
(lp6173
(iArchitecture
Entity
p6174
(dp6175
g11
(lp6176
sg13
S'android.net.wifi.p2p.WifiP2pWfdInfo'
p6177
sg15
(lp6178
sg17
(lp6179
sg19
(lp6180
sg21
I0
sba(iArchitecture
Entity
p6181
(dp6182
g11
(lp6183
sg13
S'android.net.wifi.p2p.WifiP2pWfdInfo$1'
p6184
sg15
(lp6185
sg17
(lp6186
sg19
(lp6187
sg21
I0
sba(iArchitecture
Entity
p6188
(dp6189
g11
(lp6190
sg13
S'android.webkit.WebViewDelegate'
p6191
sg15
(lp6192
sg17
(lp6193
sg19
(lp6194
sg21
I0
sba(iArchitecture
Entity
p6195
(dp6196
g11
(lp6197
sg13
S'android.webkit.WebViewDelegate$1'
p6198
sg15
(lp6199
sg17
(lp6200
sg19
(lp6201
sg21
I0
sba(iArchitecture
Entity
p6202
(dp6203
g11
(lp6204
sg13
S'android.webkit.WebViewDelegate$OnTraceEnabledChangeListener'
p6205
sg15
(lp6206
sg17
(lp6207
sg19
(lp6208
sg21
I0
sba(iArchitecture
Entity
p6209
(dp6210
g11
(lp6211
sg13
S'com.android.server.am.CompatModeDialog'
p6212
sg15
(lp6213
sg17
(lp6214
sg19
(lp6215
sg21
I0
sba(iArchitecture
Entity
p6216
(dp6217
g11
(lp6218
sg13
S'com.android.server.am.CompatModeDialog$1'
p6219
sg15
(lp6220
sg17
(lp6221
sg19
(lp6222
sg21
I0
sba(iArchitecture
Entity
p6223
(dp6224
g11
(lp6225
sg13
S'com.android.server.am.CompatModeDialog$2'
p6226
sg15
(lp6227
sg17
(lp6228
sg19
(lp6229
sg21
I0
sbasg64
(lp6230
g6177
ag6184
ag6191
ag6198
ag6205
ag6212
ag6219
ag6226
asg21
I0
sg66
S'1198'
p6231
sba(iArchitecture
Cluster
p6232
(dp6233
g7
(lp6234
(iArchitecture
Entity
p6235
(dp6236
g11
(lp6237
sg13
S'android.app.trust.TrustManager'
p6238
sg15
(lp6239
sg17
(lp6240
sg19
(lp6241
sg21
I0
sba(iArchitecture
Entity
p6242
(dp6243
g11
(lp6244
sg13
S'android.app.trust.TrustManager$1'
p6245
sg15
(lp6246
sg17
(lp6247
sg19
(lp6248
sg21
I0
sba(iArchitecture
Entity
p6249
(dp6250
g11
(lp6251
sg13
S'android.app.trust.TrustManager$2'
p6252
sg15
(lp6253
sg17
(lp6254
sg19
(lp6255
sg21
I0
sba(iArchitecture
Entity
p6256
(dp6257
g11
(lp6258
sg13
S'android.app.trust.TrustManager$TrustListener'
p6259
sg15
(lp6260
sg17
(lp6261
sg19
(lp6262
sg21
I0
sba(iArchitecture
Entity
p6263
(dp6264
g11
(lp6265
sg13
S'android.app.usage.UsageStatsManagerInternal'
p6266
sg15
(lp6267
sg17
(lp6268
sg19
(lp6269
sg21
I0
sba(iArchitecture
Entity
p6270
(dp6271
g11
(lp6272
sg13
S'android.app.usage.UsageStatsManagerInternal$AppIdleStateChangeListener'
p6273
sg15
(lp6274
sg17
(lp6275
sg19
(lp6276
sg21
I0
sbasg64
(lp6277
g6238
ag6245
ag6252
ag6259
ag6266
ag6273
asg21
I0
sg66
S'1199'
p6278
sba(iArchitecture
Cluster
p6279
(dp6280
g7
(lp6281
(iArchitecture
Entity
p6282
(dp6283
g11
(lp6284
sg13
S'android.telephony.CellIdentityCdma'
p6285
sg15
(lp6286
sg17
(lp6287
sg19
(lp6288
sg21
I0
sba(iArchitecture
Entity
p6289
(dp6290
g11
(lp6291
sg13
S'android.telephony.CellIdentityCdma$1'
p6292
sg15
(lp6293
sg17
(lp6294
sg19
(lp6295
sg21
I0
sba(iArchitecture
Entity
p6296
(dp6297
g11
(lp6298
sg13
S'android.telephony.cdma.CdmaCellLocation'
p6299
sg15
(lp6300
sg17
(lp6301
sg19
(lp6302
sg21
I0
sbasg64
(lp6303
g6285
ag6292
ag6299
asg21
I0
sg66
S'1211'
p6304
sba(iArchitecture
Cluster
p6305
(dp6306
g7
(lp6307
(iArchitecture
Entity
p6308
(dp6309
g11
(lp6310
sg13
S'com.android.internal.os.PowerProfile'
p6311
sg15
(lp6312
sg17
(lp6313
sg19
(lp6314
sg21
I0
sbasg64
(lp6315
g6311
asg21
I0
sg66
S'211'
p6316
sba(iArchitecture
Cluster
p6317
(dp6318
g7
(lp6319
(iArchitecture
Entity
p6320
(dp6321
g11
(lp6322
sg13
S'android.filterfw.MffEnvironment'
p6323
sg15
(lp6324
sg17
(lp6325
sg19
(lp6326
sg21
I0
sbasg64
(lp6327
g6323
asg21
I0
sg66
S'311'
p6328
sba(iArchitecture
Cluster
p6329
(dp6330
g7
(lp6331
(iArchitecture
Entity
p6332
(dp6333
g11
(lp6334
sg13
S'android.database.sqlite.SQLiteOpenHelper'
p6335
sg15
(lp6336
sg17
(lp6337
sg19
(lp6338
sg21
I0
sbasg64
(lp6339
g6335
asg21
I0
sg66
S'411'
p6340
sba(iArchitecture
Cluster
p6341
(dp6342
g7
(lp6343
(iArchitecture
Entity
p6344
(dp6345
g11
(lp6346
sg13
S'com.android.internal.widget.TextViewInputDisabler'
p6347
sg15
(lp6348
sg17
(lp6349
sg19
(lp6350
sg21
I0
sba(iArchitecture
Entity
p6351
(dp6352
g11
(lp6353
sg13
S'com.android.internal.widget.TextViewInputDisabler$1'
p6354
sg15
(lp6355
sg17
(lp6356
sg19
(lp6357
sg21
I0
sbasg64
(lp6358
g6347
ag6354
asg21
I0
sg66
S'511'
p6359
sba(iArchitecture
Cluster
p6360
(dp6361
g7
(lp6362
(iArchitecture
Entity
p6363
(dp6364
g11
(lp6365
sg13
S'android.telecom.ParcelableConference'
p6366
sg15
(lp6367
sg17
(lp6368
sg19
(lp6369
sg21
I0
sba(iArchitecture
Entity
p6370
(dp6371
g11
(lp6372
sg13
S'android.telecom.ParcelableConference$1'
p6373
sg15
(lp6374
sg17
(lp6375
sg19
(lp6376
sg21
I0
sbasg64
(lp6377
g6366
ag6373
asg21
I0
sg66
S'611'
p6378
sba(iArchitecture
Cluster
p6379
(dp6380
g7
(lp6381
(iArchitecture
Entity
p6382
(dp6383
g11
(lp6384
sg13
S'android.media.midi.MidiDeviceStatus'
p6385
sg15
(lp6386
sg17
(lp6387
sg19
(lp6388
sg21
I0
sba(iArchitecture
Entity
p6389
(dp6390
g11
(lp6391
sg13
S'android.media.midi.MidiDeviceStatus$1'
p6392
sg15
(lp6393
sg17
(lp6394
sg19
(lp6395
sg21
I0
sbasg64
(lp6396
g6385
ag6392
asg21
I0
sg66
S'711'
p6397
sba(iArchitecture
Cluster
p6398
(dp6399
g7
(lp6400
(iArchitecture
Entity
p6401
(dp6402
g11
(lp6403
sg13
S'android.os.CancellationSignal'
p6404
sg15
(lp6405
sg17
(lp6406
sg19
(lp6407
sg21
I0
sba(iArchitecture
Entity
p6408
(dp6409
g11
(lp6410
sg13
S'android.os.CancellationSignal$OnCancelListener'
p6411
sg15
(lp6412
sg17
(lp6413
sg19
(lp6414
sg21
I0
sba(iArchitecture
Entity
p6415
(dp6416
g11
(lp6417
sg13
S'android.os.CancellationSignal$Transport'
p6418
sg15
(lp6419
sg17
(lp6420
sg19
(lp6421
sg21
I0
sbasg64
(lp6422
g6404
ag6411
ag6418
asg21
I0
sg66
S'811'
p6423
sba(iArchitecture
Cluster
p6424
(dp6425
g7
(lp6426
(iArchitecture
Entity
p6427
(dp6428
g11
(lp6429
sg13
S'android.text.method.ReplacementTransformationMethod'
p6430
sg15
(lp6431
sg17
(lp6432
sg19
(lp6433
sg21
I0
sba(iArchitecture
Entity
p6434
(dp6435
g11
(lp6436
sg13
S'android.text.method.ReplacementTransformationMethod$ReplacementCharSequence'
p6437
sg15
(lp6438
sg17
(lp6439
sg19
(lp6440
sg21
I0
sba(iArchitecture
Entity
p6441
(dp6442
g11
(lp6443
sg13
S'android.text.method.ReplacementTransformationMethod$SpannedReplacementCharSequence'
p6444
sg15
(lp6445
sg17
(lp6446
sg19
(lp6447
sg21
I0
sbasg64
(lp6448
g6430
ag6437
ag6444
asg21
I0
sg66
S'911'
p6449
sbasS'target_sub'
p6450
S'11'
p6451
sg64
(lp6452
sS'is_component_arch'
p6453
I01
sg66
S'6.0.0_r1'
p6454
sba.