(lp0
(iArchitecture
Architecture
p1
(dp2
S'clusters'
p3
(lp4
(iArchitecture
Cluster
p5
(dp6
S'entities'
p7
(lp8
(iArchitecture
Entity
p9
(dp10
S'issue_ids'
p11
(lp12
sS'name'
p13
S'android.renderscript.Script'
p14
sS'descs'
p15
(lp16
sS'labels'
p17
(lp18
sS'titles'
p19
(lp20
sS'change'
p21
I0
sba(iArchitecture
Entity
p22
(dp23
g11
(lp24
sg13
S'android.renderscript.Script$Builder'
p25
sg15
(lp26
sg17
(lp27
sg19
(lp28
sg21
I0
sba(iArchitecture
Entity
p29
(dp30
g11
(lp31
sg13
S'android.renderscript.Script$FieldBase'
p32
sg15
(lp33
sg17
(lp34
sg19
(lp35
sg21
I0
sba(iArchitecture
Entity
p36
(dp37
g11
(lp38
sg13
S'android.renderscript.Script$FieldID'
p39
sg15
(lp40
sg17
(lp41
sg19
(lp42
sg21
I0
sba(iArchitecture
Entity
p43
(dp44
g11
(lp45
sg13
S'android.renderscript.Script$InvokeID'
p46
sg15
(lp47
sg17
(lp48
sg19
(lp49
sg21
I0
sba(iArchitecture
Entity
p50
(dp51
g11
(lp52
sg13
S'android.renderscript.Script$KernelID'
p53
sg15
(lp54
sg17
(lp55
sg19
(lp56
sg21
I0
sba(iArchitecture
Entity
p57
(dp58
g11
(lp59
sg13
S'android.renderscript.Script$LaunchOptions'
p60
sg15
(lp61
sg17
(lp62
sg19
(lp63
sg21
I0
sbasS'classes'
p64
(lp65
g14
ag25
ag32
ag39
ag46
ag53
ag60
asg21
I0
sS'label'
p66
S'1038'
p67
sba(iArchitecture
Cluster
p68
(dp69
g7
(lp70
(iArchitecture
Entity
p71
(dp72
g11
(lp73
sg13
S'android.gesture.Gesture'
p74
sg15
(lp75
sg17
(lp76
sg19
(lp77
sg21
I0
sba(iArchitecture
Entity
p78
(dp79
g11
(lp80
sg13
S'android.gesture.Gesture$1'
p81
sg15
(lp82
sg17
(lp83
sg19
(lp84
sg21
I0
sba(iArchitecture
Entity
p85
(dp86
g11
(lp87
sg13
S'android.gesture.GestureStore'
p88
sg15
(lp89
sg17
(lp90
sg19
(lp91
sg21
I0
sbasg64
(lp92
g74
ag81
ag88
asg21
I0
sg66
S'1138'
p93
sba(iArchitecture
Cluster
p94
(dp95
g7
(lp96
(iArchitecture
Entity
p97
(dp98
g11
(lp99
sg13
S'android.app.BackStackRecord'
p100
sg15
(lp101
sg17
(lp102
sg19
(lp103
sg21
I0
sba(iArchitecture
Entity
p104
(dp105
g11
(lp106
sg13
S'android.app.BackStackRecord$1'
p107
sg15
(lp108
sg17
(lp109
sg19
(lp110
sg21
I0
sba(iArchitecture
Entity
p111
(dp112
g11
(lp113
sg13
S'android.app.BackStackRecord$2'
p114
sg15
(lp115
sg17
(lp116
sg19
(lp117
sg21
I0
sba(iArchitecture
Entity
p118
(dp119
g11
(lp120
sg13
S'android.app.BackStackRecord$3'
p121
sg15
(lp122
sg17
(lp123
sg19
(lp124
sg21
I0
sba(iArchitecture
Entity
p125
(dp126
g11
(lp127
sg13
S'android.app.BackStackRecord$4'
p128
sg15
(lp129
sg17
(lp130
sg19
(lp131
sg21
I0
sba(iArchitecture
Entity
p132
(dp133
g11
(lp134
sg13
S'android.app.BackStackRecord$Op'
p135
sg15
(lp136
sg17
(lp137
sg19
(lp138
sg21
I0
sba(iArchitecture
Entity
p139
(dp140
g11
(lp141
sg13
S'android.app.BackStackRecord$TransitionState'
p142
sg15
(lp143
sg17
(lp144
sg19
(lp145
sg21
I0
sba(iArchitecture
Entity
p146
(dp147
g11
(lp148
sg13
S'android.app.DialogFragment'
p149
sg15
(lp150
sg17
(lp151
sg19
(lp152
sg21
I0
sba(iArchitecture
Entity
p153
(dp154
g11
(lp155
sg13
S'android.app.Fragment'
p156
sg15
(lp157
sg17
(lp158
sg19
(lp159
sg21
I0
sba(iArchitecture
Entity
p160
(dp161
g11
(lp162
sg13
S'android.app.Fragment$1'
p163
sg15
(lp164
sg17
(lp165
sg19
(lp166
sg21
I0
sba(iArchitecture
Entity
p167
(dp168
g11
(lp169
sg13
S'android.app.Fragment$InstantiationException'
p170
sg15
(lp171
sg17
(lp172
sg19
(lp173
sg21
I0
sba(iArchitecture
Entity
p174
(dp175
g11
(lp176
sg13
S'android.app.Fragment$SavedState'
p177
sg15
(lp178
sg17
(lp179
sg19
(lp180
sg21
I0
sba(iArchitecture
Entity
p181
(dp182
g11
(lp183
sg13
S'android.app.Fragment$SavedState$1'
p184
sg15
(lp185
sg17
(lp186
sg19
(lp187
sg21
I0
sba(iArchitecture
Entity
p188
(dp189
g11
(lp190
sg13
S'android.app.FragmentBreadCrumbs'
p191
sg15
(lp192
sg17
(lp193
sg19
(lp194
sg21
I0
sba(iArchitecture
Entity
p195
(dp196
g11
(lp197
sg13
S'android.app.FragmentBreadCrumbs$1'
p198
sg15
(lp199
sg17
(lp200
sg19
(lp201
sg21
I0
sba(iArchitecture
Entity
p202
(dp203
g11
(lp204
sg13
S'android.app.FragmentBreadCrumbs$OnBreadCrumbClickListener'
p205
sg15
(lp206
sg17
(lp207
sg19
(lp208
sg21
I0
sba(iArchitecture
Entity
p209
(dp210
g11
(lp211
sg13
S'android.app.FragmentManager'
p212
sg15
(lp213
sg17
(lp214
sg19
(lp215
sg21
I0
sba(iArchitecture
Entity
p216
(dp217
g11
(lp218
sg13
S'android.app.FragmentManager$BackStackEntry'
p219
sg15
(lp220
sg17
(lp221
sg19
(lp222
sg21
I0
sba(iArchitecture
Entity
p223
(dp224
g11
(lp225
sg13
S'android.app.FragmentManager$OnBackStackChangedListener'
p226
sg15
(lp227
sg17
(lp228
sg19
(lp229
sg21
I0
sba(iArchitecture
Entity
p230
(dp231
g11
(lp232
sg13
S'android.app.FragmentTransaction'
p233
sg15
(lp234
sg17
(lp235
sg19
(lp236
sg21
I0
sba(iArchitecture
Entity
p237
(dp238
g11
(lp239
sg13
S'android.preference.PreferenceActivity'
p240
sg15
(lp241
sg17
(lp242
sg19
(lp243
sg21
I0
sba(iArchitecture
Entity
p244
(dp245
g11
(lp246
sg13
S'android.preference.PreferenceActivity$1'
p247
sg15
(lp248
sg17
(lp249
sg19
(lp250
sg21
I0
sba(iArchitecture
Entity
p251
(dp252
g11
(lp253
sg13
S'android.preference.PreferenceActivity$2'
p254
sg15
(lp255
sg17
(lp256
sg19
(lp257
sg21
I0
sba(iArchitecture
Entity
p258
(dp259
g11
(lp260
sg13
S'android.preference.PreferenceActivity$3'
p261
sg15
(lp262
sg17
(lp263
sg19
(lp264
sg21
I0
sba(iArchitecture
Entity
p265
(dp266
g11
(lp267
sg13
S'android.preference.PreferenceActivity$4'
p268
sg15
(lp269
sg17
(lp270
sg19
(lp271
sg21
I0
sba(iArchitecture
Entity
p272
(dp273
g11
(lp274
sg13
S'android.preference.PreferenceActivity$Header'
p275
sg15
(lp276
sg17
(lp277
sg19
(lp278
sg21
I0
sba(iArchitecture
Entity
p279
(dp280
g11
(lp281
sg13
S'android.preference.PreferenceActivity$Header$1'
p282
sg15
(lp283
sg17
(lp284
sg19
(lp285
sg21
I0
sba(iArchitecture
Entity
p286
(dp287
g11
(lp288
sg13
S'android.preference.PreferenceActivity$HeaderAdapter'
p289
sg15
(lp290
sg17
(lp291
sg19
(lp292
sg21
I0
sba(iArchitecture
Entity
p293
(dp294
g11
(lp295
sg13
S'android.preference.PreferenceActivity$HeaderAdapter$HeaderViewHolder'
p296
sg15
(lp297
sg17
(lp298
sg19
(lp299
sg21
I0
sbasg64
(lp300
g100
ag107
ag114
ag121
ag128
ag135
ag142
ag149
ag156
ag163
ag170
ag177
ag184
ag191
ag198
ag205
ag212
ag219
ag226
ag233
ag240
ag247
ag254
ag261
ag268
ag275
ag282
ag289
ag296
asg21
I0
sg66
S'1238'
p301
sba(iArchitecture
Cluster
p302
(dp303
g7
(lp304
(iArchitecture
Entity
p305
(dp306
g11
(lp307
sg13
S'android.os.ConditionVariable'
p308
sg15
(lp309
sg17
(lp310
sg19
(lp311
sg21
I0
sbasg64
(lp312
g308
asg21
I0
sg66
S'138'
p313
sba(iArchitecture
Cluster
p314
(dp315
g7
(lp316
(iArchitecture
Entity
p317
(dp318
g11
(lp319
sg13
S'android.provider.ContactsInternal'
p320
sg15
(lp321
sg17
(lp322
sg19
(lp323
sg21
I0
sbasg64
(lp324
g320
asg21
I0
sg66
S'238'
p325
sba(iArchitecture
Cluster
p326
(dp327
g7
(lp328
(iArchitecture
Entity
p329
(dp330
g11
(lp331
sg13
S'android.provider.SearchIndexableData'
p332
sg15
(lp333
sg17
(lp334
sg19
(lp335
sg21
I0
sbasg64
(lp336
g332
asg21
I0
sg66
S'338'
p337
sba(iArchitecture
Cluster
p338
(dp339
g7
(lp340
(iArchitecture
Entity
p341
(dp342
g11
(lp343
sg13
S'android.media.AudioTimestamp'
p344
sg15
(lp345
sg17
(lp346
sg19
(lp347
sg21
I0
sbasg64
(lp348
g344
asg21
I0
sg66
S'38'
p349
sba(iArchitecture
Cluster
p350
(dp351
g7
(lp352
(iArchitecture
Entity
p353
(dp354
g11
(lp355
sg13
S'android.util.AttributeSet'
p356
sg15
(lp357
sg17
(lp358
sg19
(lp359
sg21
I0
sbasg64
(lp360
g356
asg21
I0
sg66
S'380'
p361
sba(iArchitecture
Cluster
p362
(dp363
g7
(lp364
(iArchitecture
Entity
p365
(dp366
g11
(lp367
sg13
S'android.content.SyncContext'
p368
sg15
(lp369
sg17
(lp370
sg19
(lp371
sg21
I0
sbasg64
(lp372
g368
asg21
I0
sg66
S'381'
p373
sba(iArchitecture
Cluster
p374
(dp375
g7
(lp376
(iArchitecture
Entity
p377
(dp378
g11
(lp379
sg13
S'android.content.ContentProviderNative'
p380
sg15
(lp381
sg17
(lp382
sg19
(lp383
sg21
I0
sbasg64
(lp384
g380
asg21
I0
sg66
S'382'
p385
sba(iArchitecture
Cluster
p386
(dp387
g7
(lp388
(iArchitecture
Entity
p389
(dp390
g11
(lp391
sg13
S'android.telephony.DisconnectCause'
p392
sg15
(lp393
sg17
(lp394
sg19
(lp395
sg21
I0
sbasg64
(lp396
g392
asg21
I0
sg66
S'383'
p397
sba(iArchitecture
Cluster
p398
(dp399
g7
(lp400
(iArchitecture
Entity
p401
(dp402
g11
(lp403
sg13
S'com.android.server.hdmi.HdmiMhlLocalDeviceStub'
p404
sg15
(lp405
sg17
(lp406
sg19
(lp407
sg21
I0
sbasg64
(lp408
g404
asg21
I0
sg66
S'384'
p409
sba(iArchitecture
Cluster
p410
(dp411
g7
(lp412
(iArchitecture
Entity
p413
(dp414
g11
(lp415
sg13
S'android.webkit.WebHistoryItem'
p416
sg15
(lp417
sg17
(lp418
sg19
(lp419
sg21
I0
sbasg64
(lp420
g416
asg21
I0
sg66
S'385'
p421
sba(iArchitecture
Cluster
p422
(dp423
g7
(lp424
(iArchitecture
Entity
p425
(dp426
g11
(lp427
sg13
S'com.android.server.fingerprint.FingerprintUtils'
p428
sg15
(lp429
sg17
(lp430
sg19
(lp431
sg21
I0
sbasg64
(lp432
g428
asg21
I0
sg66
S'386'
p433
sba(iArchitecture
Cluster
p434
(dp435
g7
(lp436
(iArchitecture
Entity
p437
(dp438
g11
(lp439
sg13
S'android.widget.EdgeEffect'
p440
sg15
(lp441
sg17
(lp442
sg19
(lp443
sg21
I0
sbasg64
(lp444
g440
asg21
I0
sg66
S'387'
p445
sba(iArchitecture
Cluster
p446
(dp447
g7
(lp448
(iArchitecture
Entity
p449
(dp450
g11
(lp451
sg13
S'com.android.server.pm.PackageKeySetData'
p452
sg15
(lp453
sg17
(lp454
sg19
(lp455
sg21
I0
sbasg64
(lp456
g452
asg21
I0
sg66
S'388'
p457
sba(iArchitecture
Cluster
p458
(dp459
g7
(lp460
(iArchitecture
Entity
p461
(dp462
g11
(lp463
sg13
S'com.android.internal.content.PackageMonitor'
p464
sg15
(lp465
sg17
(lp466
sg19
(lp467
sg21
I0
sbasg64
(lp468
g464
asg21
I0
sg66
S'389'
p469
sba(iArchitecture
Cluster
p470
(dp471
g7
(lp472
(iArchitecture
Entity
p473
(dp474
g11
(lp475
sg13
S'android.security.keystore.AndroidKeyStoreKeyFactorySpi'
p476
sg15
(lp477
sg17
(lp478
sg19
(lp479
sg21
I0
sbasg64
(lp480
g476
asg21
I0
sg66
S'438'
p481
sba(iArchitecture
Cluster
p482
(dp483
g7
(lp484
(iArchitecture
Entity
p485
(dp486
g11
(lp487
sg13
S'android.location.Address'
p488
sg15
(lp489
sg17
(lp490
sg19
(lp491
sg21
I0
sba(iArchitecture
Entity
p492
(dp493
g11
(lp494
sg13
S'android.location.Address$1'
p495
sg15
(lp496
sg17
(lp497
sg19
(lp498
sg21
I0
sbasg64
(lp499
g488
ag495
asg21
I0
sg66
S'538'
p500
sba(iArchitecture
Cluster
p501
(dp502
g7
(lp503
(iArchitecture
Entity
p504
(dp505
g11
(lp506
sg13
S'android.widget.AnalogClock'
p507
sg15
(lp508
sg17
(lp509
sg19
(lp510
sg21
I0
sba(iArchitecture
Entity
p511
(dp512
g11
(lp513
sg13
S'android.widget.AnalogClock$1'
p514
sg15
(lp515
sg17
(lp516
sg19
(lp517
sg21
I0
sbasg64
(lp518
g507
ag514
asg21
I0
sg66
S'638'
p519
sba(iArchitecture
Cluster
p520
(dp521
g7
(lp522
(iArchitecture
Entity
p523
(dp524
g11
(lp525
sg13
S'android.media.ThumbnailUtils'
p526
sg15
(lp527
sg17
(lp528
sg19
(lp529
sg21
I0
sba(iArchitecture
Entity
p530
(dp531
g11
(lp532
sg13
S'android.media.ThumbnailUtils$SizedThumbnailBitmap'
p533
sg15
(lp534
sg17
(lp535
sg19
(lp536
sg21
I0
sbasg64
(lp537
g526
ag533
asg21
I0
sg66
S'738'
p538
sba(iArchitecture
Cluster
p539
(dp540
g7
(lp541
(iArchitecture
Entity
p542
(dp543
g11
(lp544
sg13
S'android.app.NotificationManager'
p545
sg15
(lp546
sg17
(lp547
sg19
(lp548
sg21
I0
sba(iArchitecture
Entity
p549
(dp550
g11
(lp551
sg13
S'android.app.NotificationManager$Policy'
p552
sg15
(lp553
sg17
(lp554
sg19
(lp555
sg21
I0
sba(iArchitecture
Entity
p556
(dp557
g11
(lp558
sg13
S'android.app.NotificationManager$Policy$1'
p559
sg15
(lp560
sg17
(lp561
sg19
(lp562
sg21
I0
sbasg64
(lp563
g545
ag552
ag559
asg21
I0
sg66
S'838'
p564
sba(iArchitecture
Cluster
p565
(dp566
g7
(lp567
(iArchitecture
Entity
p568
(dp569
g11
(lp570
sg13
S'com.android.internal.util.FileRotator'
p571
sg15
(lp572
sg17
(lp573
sg19
(lp574
sg21
I0
sba(iArchitecture
Entity
p575
(dp576
g11
(lp577
sg13
S'com.android.internal.util.FileRotator$1'
p578
sg15
(lp579
sg17
(lp580
sg19
(lp581
sg21
I0
sba(iArchitecture
Entity
p582
(dp583
g11
(lp584
sg13
S'com.android.internal.util.FileRotator$FileInfo'
p585
sg15
(lp586
sg17
(lp587
sg19
(lp588
sg21
I0
sba(iArchitecture
Entity
p589
(dp590
g11
(lp591
sg13
S'com.android.internal.util.FileRotator$Reader'
p592
sg15
(lp593
sg17
(lp594
sg19
(lp595
sg21
I0
sba(iArchitecture
Entity
p596
(dp597
g11
(lp598
sg13
S'com.android.internal.util.FileRotator$Rewriter'
p599
sg15
(lp600
sg17
(lp601
sg19
(lp602
sg21
I0
sba(iArchitecture
Entity
p603
(dp604
g11
(lp605
sg13
S'com.android.internal.util.FileRotator$Writer'
p606
sg15
(lp607
sg17
(lp608
sg19
(lp609
sg21
I0
sbasg64
(lp610
g571
ag578
ag585
ag592
ag599
ag606
asg21
I0
sg66
S'938'
p611
sbasS'target_sub'
p612
S'38'
p613
sg64
(lp614
sS'is_component_arch'
p615
I01
sg66
S'6.0.0_r1'
p616
sba.