(lp0
(iArchitecture
Architecture
p1
(dp2
S'clusters'
p3
(lp4
(iArchitecture
Cluster
p5
(dp6
S'entities'
p7
(lp8
(iArchitecture
Entity
p9
(dp10
S'issue_ids'
p11
(lp12
sS'name'
p13
S'com.android.server.connectivity.NetworkMonitor'
p14
sS'descs'
p15
(lp16
sS'labels'
p17
(lp18
sS'titles'
p19
(lp20
sS'change'
p21
I0
sba(iArchitecture
Entity
p22
(dp23
g11
(lp24
sg13
S'com.android.server.connectivity.NetworkMonitor$CaptivePortalState'
p25
sg15
(lp26
sg17
(lp27
sg19
(lp28
sg21
I0
sba(iArchitecture
Entity
p29
(dp30
g11
(lp31
sg13
S'com.android.server.connectivity.NetworkMonitor$CustomIntentReceiver'
p32
sg15
(lp33
sg17
(lp34
sg19
(lp35
sg21
I0
sba(iArchitecture
Entity
p36
(dp37
g11
(lp38
sg13
S'com.android.server.connectivity.NetworkMonitor$DefaultState'
p39
sg15
(lp40
sg17
(lp41
sg19
(lp42
sg21
I0
sba(iArchitecture
Entity
p43
(dp44
g11
(lp45
sg13
S'com.android.server.connectivity.NetworkMonitor$EvaluatingState'
p46
sg15
(lp47
sg17
(lp48
sg19
(lp49
sg21
I0
sba(iArchitecture
Entity
p50
(dp51
g11
(lp52
sg13
S'com.android.server.connectivity.NetworkMonitor$LingeringState'
p53
sg15
(lp54
sg17
(lp55
sg19
(lp56
sg21
I0
sba(iArchitecture
Entity
p57
(dp58
g11
(lp59
sg13
S'com.android.server.connectivity.NetworkMonitor$MaybeNotifyState'
p60
sg15
(lp61
sg17
(lp62
sg19
(lp63
sg21
I0
sba(iArchitecture
Entity
p64
(dp65
g11
(lp66
sg13
S'com.android.server.connectivity.NetworkMonitor$MaybeNotifyState$1'
p67
sg15
(lp68
sg17
(lp69
sg19
(lp70
sg21
I0
sba(iArchitecture
Entity
p71
(dp72
g11
(lp73
sg13
S'com.android.server.connectivity.NetworkMonitor$ValidatedState'
p74
sg15
(lp75
sg17
(lp76
sg19
(lp77
sg21
I0
sbasS'classes'
p78
(lp79
g14
ag25
ag32
ag39
ag46
ag53
ag60
ag67
ag74
asg21
I0
sS'label'
p80
S'1050'
p81
sba(iArchitecture
Cluster
p82
(dp83
g7
(lp84
(iArchitecture
Entity
p85
(dp86
g11
(lp87
sg13
S'com.android.server.display.WifiDisplayAdapter'
p88
sg15
(lp89
sg17
(lp90
sg19
(lp91
sg21
I0
sba(iArchitecture
Entity
p92
(dp93
g11
(lp94
sg13
S'com.android.server.display.WifiDisplayAdapter$1'
p95
sg15
(lp96
sg17
(lp97
sg19
(lp98
sg21
I0
sba(iArchitecture
Entity
p99
(dp100
g11
(lp101
sg13
S'com.android.server.display.WifiDisplayAdapter$2'
p102
sg15
(lp103
sg17
(lp104
sg19
(lp105
sg21
I0
sba(iArchitecture
Entity
p106
(dp107
g11
(lp108
sg13
S'com.android.server.display.WifiDisplayAdapter$3'
p109
sg15
(lp110
sg17
(lp111
sg19
(lp112
sg21
I0
sba(iArchitecture
Entity
p113
(dp114
g11
(lp115
sg13
S'com.android.server.display.WifiDisplayAdapter$4'
p116
sg15
(lp117
sg17
(lp118
sg19
(lp119
sg21
I0
sba(iArchitecture
Entity
p120
(dp121
g11
(lp122
sg13
S'com.android.server.display.WifiDisplayAdapter$5'
p123
sg15
(lp124
sg17
(lp125
sg19
(lp126
sg21
I0
sba(iArchitecture
Entity
p127
(dp128
g11
(lp129
sg13
S'com.android.server.display.WifiDisplayAdapter$6'
p130
sg15
(lp131
sg17
(lp132
sg19
(lp133
sg21
I0
sba(iArchitecture
Entity
p134
(dp135
g11
(lp136
sg13
S'com.android.server.display.WifiDisplayAdapter$7'
p137
sg15
(lp138
sg17
(lp139
sg19
(lp140
sg21
I0
sba(iArchitecture
Entity
p141
(dp142
g11
(lp143
sg13
S'com.android.server.display.WifiDisplayAdapter$8'
p144
sg15
(lp145
sg17
(lp146
sg19
(lp147
sg21
I0
sba(iArchitecture
Entity
p148
(dp149
g11
(lp150
sg13
S'com.android.server.display.WifiDisplayAdapter$9'
p151
sg15
(lp152
sg17
(lp153
sg19
(lp154
sg21
I0
sba(iArchitecture
Entity
p155
(dp156
g11
(lp157
sg13
S'com.android.server.display.WifiDisplayAdapter$WifiDisplayDevice'
p158
sg15
(lp159
sg17
(lp160
sg19
(lp161
sg21
I0
sba(iArchitecture
Entity
p162
(dp163
g11
(lp164
sg13
S'com.android.server.display.WifiDisplayAdapter$WifiDisplayHandler'
p165
sg15
(lp166
sg17
(lp167
sg19
(lp168
sg21
I0
sba(iArchitecture
Entity
p169
(dp170
g11
(lp171
sg13
S'com.android.server.display.WifiDisplayController'
p172
sg15
(lp173
sg17
(lp174
sg19
(lp175
sg21
I0
sba(iArchitecture
Entity
p176
(dp177
g11
(lp178
sg13
S'com.android.server.display.WifiDisplayController$1'
p179
sg15
(lp180
sg17
(lp181
sg19
(lp182
sg21
I0
sba(iArchitecture
Entity
p183
(dp184
g11
(lp185
sg13
S'com.android.server.display.WifiDisplayController$10'
p186
sg15
(lp187
sg17
(lp188
sg19
(lp189
sg21
I0
sba(iArchitecture
Entity
p190
(dp191
g11
(lp192
sg13
S'com.android.server.display.WifiDisplayController$11'
p193
sg15
(lp194
sg17
(lp195
sg19
(lp196
sg21
I0
sba(iArchitecture
Entity
p197
(dp198
g11
(lp199
sg13
S'com.android.server.display.WifiDisplayController$12'
p200
sg15
(lp201
sg17
(lp202
sg19
(lp203
sg21
I0
sba(iArchitecture
Entity
p204
(dp205
g11
(lp206
sg13
S'com.android.server.display.WifiDisplayController$13'
p207
sg15
(lp208
sg17
(lp209
sg19
(lp210
sg21
I0
sba(iArchitecture
Entity
p211
(dp212
g11
(lp213
sg13
S'com.android.server.display.WifiDisplayController$14'
p214
sg15
(lp215
sg17
(lp216
sg19
(lp217
sg21
I0
sba(iArchitecture
Entity
p218
(dp219
g11
(lp220
sg13
S'com.android.server.display.WifiDisplayController$15'
p221
sg15
(lp222
sg17
(lp223
sg19
(lp224
sg21
I0
sba(iArchitecture
Entity
p225
(dp226
g11
(lp227
sg13
S'com.android.server.display.WifiDisplayController$16'
p228
sg15
(lp229
sg17
(lp230
sg19
(lp231
sg21
I0
sba(iArchitecture
Entity
p232
(dp233
g11
(lp234
sg13
S'com.android.server.display.WifiDisplayController$17'
p235
sg15
(lp236
sg17
(lp237
sg19
(lp238
sg21
I0
sba(iArchitecture
Entity
p239
(dp240
g11
(lp241
sg13
S'com.android.server.display.WifiDisplayController$18'
p242
sg15
(lp243
sg17
(lp244
sg19
(lp245
sg21
I0
sba(iArchitecture
Entity
p246
(dp247
g11
(lp248
sg13
S'com.android.server.display.WifiDisplayController$19'
p249
sg15
(lp250
sg17
(lp251
sg19
(lp252
sg21
I0
sba(iArchitecture
Entity
p253
(dp254
g11
(lp255
sg13
S'com.android.server.display.WifiDisplayController$2'
p256
sg15
(lp257
sg17
(lp258
sg19
(lp259
sg21
I0
sba(iArchitecture
Entity
p260
(dp261
g11
(lp262
sg13
S'com.android.server.display.WifiDisplayController$20'
p263
sg15
(lp264
sg17
(lp265
sg19
(lp266
sg21
I0
sba(iArchitecture
Entity
p267
(dp268
g11
(lp269
sg13
S'com.android.server.display.WifiDisplayController$21'
p270
sg15
(lp271
sg17
(lp272
sg19
(lp273
sg21
I0
sba(iArchitecture
Entity
p274
(dp275
g11
(lp276
sg13
S'com.android.server.display.WifiDisplayController$3'
p277
sg15
(lp278
sg17
(lp279
sg19
(lp280
sg21
I0
sba(iArchitecture
Entity
p281
(dp282
g11
(lp283
sg13
S'com.android.server.display.WifiDisplayController$4'
p284
sg15
(lp285
sg17
(lp286
sg19
(lp287
sg21
I0
sba(iArchitecture
Entity
p288
(dp289
g11
(lp290
sg13
S'com.android.server.display.WifiDisplayController$5'
p291
sg15
(lp292
sg17
(lp293
sg19
(lp294
sg21
I0
sba(iArchitecture
Entity
p295
(dp296
g11
(lp297
sg13
S'com.android.server.display.WifiDisplayController$6'
p298
sg15
(lp299
sg17
(lp300
sg19
(lp301
sg21
I0
sba(iArchitecture
Entity
p302
(dp303
g11
(lp304
sg13
S'com.android.server.display.WifiDisplayController$7'
p305
sg15
(lp306
sg17
(lp307
sg19
(lp308
sg21
I0
sba(iArchitecture
Entity
p309
(dp310
g11
(lp311
sg13
S'com.android.server.display.WifiDisplayController$8'
p312
sg15
(lp313
sg17
(lp314
sg19
(lp315
sg21
I0
sba(iArchitecture
Entity
p316
(dp317
g11
(lp318
sg13
S'com.android.server.display.WifiDisplayController$9'
p319
sg15
(lp320
sg17
(lp321
sg19
(lp322
sg21
I0
sba(iArchitecture
Entity
p323
(dp324
g11
(lp325
sg13
S'com.android.server.display.WifiDisplayController$Listener'
p326
sg15
(lp327
sg17
(lp328
sg19
(lp329
sg21
I0
sbasg78
(lp330
g88
ag95
ag102
ag109
ag116
ag123
ag130
ag137
ag144
ag151
ag158
ag165
ag172
ag179
ag186
ag193
ag200
ag207
ag214
ag221
ag228
ag235
ag242
ag249
ag256
ag263
ag270
ag277
ag284
ag291
ag298
ag305
ag312
ag319
ag326
asg21
I0
sg80
S'1150'
p331
sba(iArchitecture
Cluster
p332
(dp333
g7
(lp334
(iArchitecture
Entity
p335
(dp336
g11
(lp337
sg13
S'android.os.Process'
p338
sg15
(lp339
sg17
(lp340
sg19
(lp341
sg21
I0
sba(iArchitecture
Entity
p342
(dp343
g11
(lp344
sg13
S'android.os.Process$ProcessStartResult'
p345
sg15
(lp346
sg17
(lp347
sg19
(lp348
sg21
I0
sba(iArchitecture
Entity
p349
(dp350
g11
(lp351
sg13
S'android.os.Process$ZygoteState'
p352
sg15
(lp353
sg17
(lp354
sg19
(lp355
sg21
I0
sba(iArchitecture
Entity
p356
(dp357
g11
(lp358
sg13
S'com.android.internal.os.Zygote'
p359
sg15
(lp360
sg17
(lp361
sg19
(lp362
sg21
I0
sbasg78
(lp363
g338
ag345
ag352
ag359
asg21
I0
sg80
S'1250'
p364
sba(iArchitecture
Cluster
p365
(dp366
g7
(lp367
(iArchitecture
Entity
p368
(dp369
g11
(lp370
sg13
S'android.webkit.UrlInterceptHandler'
p371
sg15
(lp372
sg17
(lp373
sg19
(lp374
sg21
I0
sbasg78
(lp375
g371
asg21
I0
sg80
S'150'
p376
sba(iArchitecture
Cluster
p377
(dp378
g7
(lp379
(iArchitecture
Entity
p380
(dp381
g11
(lp382
sg13
S'com.android.server.wm.DimLayer'
p383
sg15
(lp384
sg17
(lp385
sg19
(lp386
sg21
I0
sbasg78
(lp387
g383
asg21
I0
sg80
S'250'
p388
sba(iArchitecture
Cluster
p389
(dp390
g7
(lp391
(iArchitecture
Entity
p392
(dp393
g11
(lp394
sg13
S'android.media.AudioPort'
p395
sg15
(lp396
sg17
(lp397
sg19
(lp398
sg21
I0
sbasg78
(lp399
g395
asg21
I0
sg80
S'350'
p400
sba(iArchitecture
Cluster
p401
(dp402
g7
(lp403
(iArchitecture
Entity
p404
(dp405
g11
(lp406
sg13
S'android.content.UriPermission'
p407
sg15
(lp408
sg17
(lp409
sg19
(lp410
sg21
I0
sba(iArchitecture
Entity
p411
(dp412
g11
(lp413
sg13
S'android.content.UriPermission$1'
p414
sg15
(lp415
sg17
(lp416
sg19
(lp417
sg21
I0
sbasg78
(lp418
g407
ag414
asg21
I0
sg80
S'450'
p419
sba(iArchitecture
Cluster
p420
(dp421
g7
(lp422
(iArchitecture
Entity
p423
(dp424
g11
(lp425
sg13
S'android.os.HandlerThread'
p426
sg15
(lp427
sg17
(lp428
sg19
(lp429
sg21
I0
sbasg78
(lp430
g426
asg21
I0
sg80
S'50'
p431
sba(iArchitecture
Cluster
p432
(dp433
g7
(lp434
(iArchitecture
Entity
p435
(dp436
g11
(lp437
sg13
S'android.app.AlertDialog'
p438
sg15
(lp439
sg17
(lp440
sg19
(lp441
sg21
I0
sba(iArchitecture
Entity
p442
(dp443
g11
(lp444
sg13
S'android.app.AlertDialog$Builder'
p445
sg15
(lp446
sg17
(lp447
sg19
(lp448
sg21
I0
sbasg78
(lp449
g438
ag445
asg21
I0
sg80
S'500'
p450
sba(iArchitecture
Cluster
p451
(dp452
g7
(lp453
(iArchitecture
Entity
p454
(dp455
g11
(lp456
sg13
S'android.hardware.location.GeofenceHardwareService'
p457
sg15
(lp458
sg17
(lp459
sg19
(lp460
sg21
I0
sba(iArchitecture
Entity
p461
(dp462
g11
(lp463
sg13
S'android.hardware.location.GeofenceHardwareService$1'
p464
sg15
(lp465
sg17
(lp466
sg19
(lp467
sg21
I0
sbasg78
(lp468
g457
ag464
asg21
I0
sg80
S'501'
p469
sba(iArchitecture
Cluster
p470
(dp471
g7
(lp472
(iArchitecture
Entity
p473
(dp474
g11
(lp475
sg13
S'android.net.WifiKey'
p476
sg15
(lp477
sg17
(lp478
sg19
(lp479
sg21
I0
sba(iArchitecture
Entity
p480
(dp481
g11
(lp482
sg13
S'android.net.WifiKey$1'
p483
sg15
(lp484
sg17
(lp485
sg19
(lp486
sg21
I0
sbasg78
(lp487
g476
ag483
asg21
I0
sg80
S'502'
p488
sba(iArchitecture
Cluster
p489
(dp490
g7
(lp491
(iArchitecture
Entity
p492
(dp493
g11
(lp494
sg13
S'android.media.MediaTimeProvider'
p495
sg15
(lp496
sg17
(lp497
sg19
(lp498
sg21
I0
sba(iArchitecture
Entity
p499
(dp500
g11
(lp501
sg13
S'android.media.MediaTimeProvider$OnMediaTimeListener'
p502
sg15
(lp503
sg17
(lp504
sg19
(lp505
sg21
I0
sbasg78
(lp506
g495
ag502
asg21
I0
sg80
S'503'
p507
sba(iArchitecture
Cluster
p508
(dp509
g7
(lp510
(iArchitecture
Entity
p511
(dp512
g11
(lp513
sg13
S'android.drm.DrmUtils'
p514
sg15
(lp515
sg17
(lp516
sg19
(lp517
sg21
I0
sba(iArchitecture
Entity
p518
(dp519
g11
(lp520
sg13
S'android.drm.DrmUtils$ExtendedMetadataParser'
p521
sg15
(lp522
sg17
(lp523
sg19
(lp524
sg21
I0
sbasg78
(lp525
g514
ag521
asg21
I0
sg80
S'504'
p526
sba(iArchitecture
Cluster
p527
(dp528
g7
(lp529
(iArchitecture
Entity
p530
(dp531
g11
(lp532
sg13
S'android.media.AudioManagerInternal'
p533
sg15
(lp534
sg17
(lp535
sg19
(lp536
sg21
I0
sba(iArchitecture
Entity
p537
(dp538
g11
(lp539
sg13
S'android.media.AudioManagerInternal$RingerModeDelegate'
p540
sg15
(lp541
sg17
(lp542
sg19
(lp543
sg21
I0
sbasg78
(lp544
g533
ag540
asg21
I0
sg80
S'505'
p545
sba(iArchitecture
Cluster
p546
(dp547
g7
(lp548
(iArchitecture
Entity
p549
(dp550
g11
(lp551
sg13
S'android.view.inputmethod.InputBinding'
p552
sg15
(lp553
sg17
(lp554
sg19
(lp555
sg21
I0
sba(iArchitecture
Entity
p556
(dp557
g11
(lp558
sg13
S'android.view.inputmethod.InputBinding$1'
p559
sg15
(lp560
sg17
(lp561
sg19
(lp562
sg21
I0
sbasg78
(lp563
g552
ag559
asg21
I0
sg80
S'506'
p564
sba(iArchitecture
Cluster
p565
(dp566
g7
(lp567
(iArchitecture
Entity
p568
(dp569
g11
(lp570
sg13
S'android.hardware.location.GeofenceHardwareRequestParcelable'
p571
sg15
(lp572
sg17
(lp573
sg19
(lp574
sg21
I0
sba(iArchitecture
Entity
p575
(dp576
g11
(lp577
sg13
S'android.hardware.location.GeofenceHardwareRequestParcelable$1'
p578
sg15
(lp579
sg17
(lp580
sg19
(lp581
sg21
I0
sbasg78
(lp582
g571
ag578
asg21
I0
sg80
S'507'
p583
sba(iArchitecture
Cluster
p584
(dp585
g7
(lp586
(iArchitecture
Entity
p587
(dp588
g11
(lp589
sg13
S'android.sax.Children'
p590
sg15
(lp591
sg17
(lp592
sg19
(lp593
sg21
I0
sba(iArchitecture
Entity
p594
(dp595
g11
(lp596
sg13
S'android.sax.Children$Child'
p597
sg15
(lp598
sg17
(lp599
sg19
(lp600
sg21
I0
sbasg78
(lp601
g590
ag597
asg21
I0
sg80
S'508'
p602
sba(iArchitecture
Cluster
p603
(dp604
g7
(lp605
(iArchitecture
Entity
p606
(dp607
g11
(lp608
sg13
S'android.telephony.ModemActivityInfo'
p609
sg15
(lp610
sg17
(lp611
sg19
(lp612
sg21
I0
sba(iArchitecture
Entity
p613
(dp614
g11
(lp615
sg13
S'android.telephony.ModemActivityInfo$1'
p616
sg15
(lp617
sg17
(lp618
sg19
(lp619
sg21
I0
sbasg78
(lp620
g609
ag616
asg21
I0
sg80
S'509'
p621
sba(iArchitecture
Cluster
p622
(dp623
g7
(lp624
(iArchitecture
Entity
p625
(dp626
g11
(lp627
sg13
S'android.app.NativeActivity'
p628
sg15
(lp629
sg17
(lp630
sg19
(lp631
sg21
I0
sba(iArchitecture
Entity
p632
(dp633
g11
(lp634
sg13
S'android.app.NativeActivity$NativeContentView'
p635
sg15
(lp636
sg17
(lp637
sg19
(lp638
sg21
I0
sbasg78
(lp639
g628
ag635
asg21
I0
sg80
S'550'
p640
sba(iArchitecture
Cluster
p641
(dp642
g7
(lp643
(iArchitecture
Entity
p644
(dp645
g11
(lp646
sg13
S'android.service.notification.StatusBarNotification'
p647
sg15
(lp648
sg17
(lp649
sg19
(lp650
sg21
I0
sba(iArchitecture
Entity
p651
(dp652
g11
(lp653
sg13
S'android.service.notification.StatusBarNotification$1'
p654
sg15
(lp655
sg17
(lp656
sg19
(lp657
sg21
I0
sbasg78
(lp658
g647
ag654
asg21
I0
sg80
S'650'
p659
sba(iArchitecture
Cluster
p660
(dp661
g7
(lp662
(iArchitecture
Entity
p663
(dp664
g11
(lp665
sg13
S'android.hardware.radio.RadioModule'
p666
sg15
(lp667
sg17
(lp668
sg19
(lp669
sg21
I0
sba(iArchitecture
Entity
p670
(dp671
g11
(lp672
sg13
S'android.hardware.radio.RadioModule$NativeEventHandlerDelegate'
p673
sg15
(lp674
sg17
(lp675
sg19
(lp676
sg21
I0
sba(iArchitecture
Entity
p677
(dp678
g11
(lp679
sg13
S'android.hardware.radio.RadioModule$NativeEventHandlerDelegate$1'
p680
sg15
(lp681
sg17
(lp682
sg19
(lp683
sg21
I0
sbasg78
(lp684
g666
ag673
ag680
asg21
I0
sg80
S'750'
p685
sba(iArchitecture
Cluster
p686
(dp687
g7
(lp688
(iArchitecture
Entity
p689
(dp690
g11
(lp691
sg13
S'android.webkit.JsDialogHelper'
p692
sg15
(lp693
sg17
(lp694
sg19
(lp695
sg21
I0
sba(iArchitecture
Entity
p696
(dp697
g11
(lp698
sg13
S'android.webkit.JsDialogHelper$CancelListener'
p699
sg15
(lp700
sg17
(lp701
sg19
(lp702
sg21
I0
sba(iArchitecture
Entity
p703
(dp704
g11
(lp705
sg13
S'android.webkit.JsDialogHelper$PositiveListener'
p706
sg15
(lp707
sg17
(lp708
sg19
(lp709
sg21
I0
sbasg78
(lp710
g692
ag699
ag706
asg21
I0
sg80
S'850'
p711
sba(iArchitecture
Cluster
p712
(dp713
g7
(lp714
(iArchitecture
Entity
p715
(dp716
g11
(lp717
sg13
S'android.preference.PreferenceManager'
p718
sg15
(lp719
sg17
(lp720
sg19
(lp721
sg21
I0
sba(iArchitecture
Entity
p722
(dp723
g11
(lp724
sg13
S'android.preference.PreferenceManager$OnActivityDestroyListener'
p725
sg15
(lp726
sg17
(lp727
sg19
(lp728
sg21
I0
sba(iArchitecture
Entity
p729
(dp730
g11
(lp731
sg13
S'android.preference.PreferenceManager$OnActivityResultListener'
p732
sg15
(lp733
sg17
(lp734
sg19
(lp735
sg21
I0
sba(iArchitecture
Entity
p736
(dp737
g11
(lp738
sg13
S'android.preference.PreferenceManager$OnActivityStopListener'
p739
sg15
(lp740
sg17
(lp741
sg19
(lp742
sg21
I0
sba(iArchitecture
Entity
p743
(dp744
g11
(lp745
sg13
S'android.preference.PreferenceManager$OnPreferenceTreeClickListener'
p746
sg15
(lp747
sg17
(lp748
sg19
(lp749
sg21
I0
sbasg78
(lp750
g718
ag725
ag732
ag739
ag746
asg21
I0
sg80
S'950'
p751
sbasS'target_sub'
p752
S'50'
p753
sg78
(lp754
sS'is_component_arch'
p755
I01
sg80
S'6.0.0_r1'
p756
sba.