(lp0
(iArchitecture
Architecture
p1
(dp2
S'clusters'
p3
(lp4
(iArchitecture
Cluster
p5
(dp6
S'entities'
p7
(lp8
(iArchitecture
Entity
p9
(dp10
S'issue_ids'
p11
(lp12
sS'name'
p13
S'android.net.wifi.RttManager'
p14
sS'descs'
p15
(lp16
sS'labels'
p17
(lp18
sS'titles'
p19
(lp20
sS'change'
p21
I0
sba(iArchitecture
Entity
p22
(dp23
g11
(lp24
sg13
S'android.net.wifi.RttManager$Capabilities'
p25
sg15
(lp26
sg17
(lp27
sg19
(lp28
sg21
I0
sba(iArchitecture
Entity
p29
(dp30
g11
(lp31
sg13
S'android.net.wifi.RttManager$ParcelableRttParams'
p32
sg15
(lp33
sg17
(lp34
sg19
(lp35
sg21
I0
sba(iArchitecture
Entity
p36
(dp37
g11
(lp38
sg13
S'android.net.wifi.RttManager$ParcelableRttParams$1'
p39
sg15
(lp40
sg17
(lp41
sg19
(lp42
sg21
I0
sba(iArchitecture
Entity
p43
(dp44
g11
(lp45
sg13
S'android.net.wifi.RttManager$ParcelableRttResults'
p46
sg15
(lp47
sg17
(lp48
sg19
(lp49
sg21
I0
sba(iArchitecture
Entity
p50
(dp51
g11
(lp52
sg13
S'android.net.wifi.RttManager$ParcelableRttResults$1'
p53
sg15
(lp54
sg17
(lp55
sg19
(lp56
sg21
I0
sba(iArchitecture
Entity
p57
(dp58
g11
(lp59
sg13
S'android.net.wifi.RttManager$RttCapabilities'
p60
sg15
(lp61
sg17
(lp62
sg19
(lp63
sg21
I0
sba(iArchitecture
Entity
p64
(dp65
g11
(lp66
sg13
S'android.net.wifi.RttManager$RttCapabilities$1'
p67
sg15
(lp68
sg17
(lp69
sg19
(lp70
sg21
I0
sba(iArchitecture
Entity
p71
(dp72
g11
(lp73
sg13
S'android.net.wifi.RttManager$RttListener'
p74
sg15
(lp75
sg17
(lp76
sg19
(lp77
sg21
I0
sba(iArchitecture
Entity
p78
(dp79
g11
(lp80
sg13
S'android.net.wifi.RttManager$RttParams'
p81
sg15
(lp82
sg17
(lp83
sg19
(lp84
sg21
I0
sba(iArchitecture
Entity
p85
(dp86
g11
(lp87
sg13
S'android.net.wifi.RttManager$RttResult'
p88
sg15
(lp89
sg17
(lp90
sg19
(lp91
sg21
I0
sba(iArchitecture
Entity
p92
(dp93
g11
(lp94
sg13
S'android.net.wifi.RttManager$ServiceHandler'
p95
sg15
(lp96
sg17
(lp97
sg19
(lp98
sg21
I0
sba(iArchitecture
Entity
p99
(dp100
g11
(lp101
sg13
S'android.net.wifi.RttManager$WifiInformationElement'
p102
sg15
(lp103
sg17
(lp104
sg19
(lp105
sg21
I0
sbasS'classes'
p106
(lp107
g14
ag25
ag32
ag39
ag46
ag53
ag60
ag67
ag74
ag81
ag88
ag95
ag102
asg21
I0
sS'label'
p108
S'1080'
p109
sba(iArchitecture
Cluster
p110
(dp111
g7
(lp112
(iArchitecture
Entity
p113
(dp114
g11
(lp115
sg13
S'com.android.server.dreams.DreamController'
p116
sg15
(lp117
sg17
(lp118
sg19
(lp119
sg21
I0
sba(iArchitecture
Entity
p120
(dp121
g11
(lp122
sg13
S'com.android.server.dreams.DreamController$1'
p123
sg15
(lp124
sg17
(lp125
sg19
(lp126
sg21
I0
sba(iArchitecture
Entity
p127
(dp128
g11
(lp129
sg13
S'com.android.server.dreams.DreamController$2'
p130
sg15
(lp131
sg17
(lp132
sg19
(lp133
sg21
I0
sba(iArchitecture
Entity
p134
(dp135
g11
(lp136
sg13
S'com.android.server.dreams.DreamController$3'
p137
sg15
(lp138
sg17
(lp139
sg19
(lp140
sg21
I0
sba(iArchitecture
Entity
p141
(dp142
g11
(lp143
sg13
S'com.android.server.dreams.DreamController$DreamRecord'
p144
sg15
(lp145
sg17
(lp146
sg19
(lp147
sg21
I0
sba(iArchitecture
Entity
p148
(dp149
g11
(lp150
sg13
S'com.android.server.dreams.DreamController$DreamRecord$1'
p151
sg15
(lp152
sg17
(lp153
sg19
(lp154
sg21
I0
sba(iArchitecture
Entity
p155
(dp156
g11
(lp157
sg13
S'com.android.server.dreams.DreamController$DreamRecord$2'
p158
sg15
(lp159
sg17
(lp160
sg19
(lp161
sg21
I0
sba(iArchitecture
Entity
p162
(dp163
g11
(lp164
sg13
S'com.android.server.dreams.DreamController$DreamRecord$3'
p165
sg15
(lp166
sg17
(lp167
sg19
(lp168
sg21
I0
sba(iArchitecture
Entity
p169
(dp170
g11
(lp171
sg13
S'com.android.server.dreams.DreamController$Listener'
p172
sg15
(lp173
sg17
(lp174
sg19
(lp175
sg21
I0
sba(iArchitecture
Entity
p176
(dp177
g11
(lp178
sg13
S'com.android.server.dreams.DreamManagerService'
p179
sg15
(lp180
sg17
(lp181
sg19
(lp182
sg21
I0
sba(iArchitecture
Entity
p183
(dp184
g11
(lp185
sg13
S'com.android.server.dreams.DreamManagerService$1'
p186
sg15
(lp187
sg17
(lp188
sg19
(lp189
sg21
I0
sba(iArchitecture
Entity
p190
(dp191
g11
(lp192
sg13
S'com.android.server.dreams.DreamManagerService$2'
p193
sg15
(lp194
sg17
(lp195
sg19
(lp196
sg21
I0
sba(iArchitecture
Entity
p197
(dp198
g11
(lp199
sg13
S'com.android.server.dreams.DreamManagerService$3'
p200
sg15
(lp201
sg17
(lp202
sg19
(lp203
sg21
I0
sba(iArchitecture
Entity
p204
(dp205
g11
(lp206
sg13
S'com.android.server.dreams.DreamManagerService$4'
p207
sg15
(lp208
sg17
(lp209
sg19
(lp210
sg21
I0
sba(iArchitecture
Entity
p211
(dp212
g11
(lp213
sg13
S'com.android.server.dreams.DreamManagerService$5'
p214
sg15
(lp215
sg17
(lp216
sg19
(lp217
sg21
I0
sba(iArchitecture
Entity
p218
(dp219
g11
(lp220
sg13
S'com.android.server.dreams.DreamManagerService$6'
p221
sg15
(lp222
sg17
(lp223
sg19
(lp224
sg21
I0
sba(iArchitecture
Entity
p225
(dp226
g11
(lp227
sg13
S'com.android.server.dreams.DreamManagerService$BinderService'
p228
sg15
(lp229
sg17
(lp230
sg19
(lp231
sg21
I0
sba(iArchitecture
Entity
p232
(dp233
g11
(lp234
sg13
S'com.android.server.dreams.DreamManagerService$DreamHandler'
p235
sg15
(lp236
sg17
(lp237
sg19
(lp238
sg21
I0
sba(iArchitecture
Entity
p239
(dp240
g11
(lp241
sg13
S'com.android.server.dreams.DreamManagerService$LocalService'
p242
sg15
(lp243
sg17
(lp244
sg19
(lp245
sg21
I0
sbasg106
(lp246
g116
ag123
ag130
ag137
ag144
ag151
ag158
ag165
ag172
ag179
ag186
ag193
ag200
ag207
ag214
ag221
ag228
ag235
ag242
asg21
I0
sg108
S'1180'
p247
sba(iArchitecture
Cluster
p248
(dp249
g7
(lp250
(iArchitecture
Entity
p251
(dp252
g11
(lp253
sg13
S'android.content.pm.LimitedLengthInputStream'
p254
sg15
(lp255
sg17
(lp256
sg19
(lp257
sg21
I0
sbasg106
(lp258
g254
asg21
I0
sg108
S'180'
p259
sba(iArchitecture
Cluster
p260
(dp261
g7
(lp262
(iArchitecture
Entity
p263
(dp264
g11
(lp265
sg13
S'android.database.Observable'
p266
sg15
(lp267
sg17
(lp268
sg19
(lp269
sg21
I0
sbasg106
(lp270
g266
asg21
I0
sg108
S'280'
p271
sba(iArchitecture
Cluster
p272
(dp273
g7
(lp274
(iArchitecture
Entity
p275
(dp276
g11
(lp277
sg13
S'android.util.AttributeSet'
p278
sg15
(lp279
sg17
(lp280
sg19
(lp281
sg21
I0
sbasg106
(lp282
g278
asg21
I0
sg108
S'380'
p283
sba(iArchitecture
Cluster
p284
(dp285
g7
(lp286
(iArchitecture
Entity
p287
(dp288
g11
(lp289
sg13
S'android.content.pm.ConfigurationInfo'
p290
sg15
(lp291
sg17
(lp292
sg19
(lp293
sg21
I0
sba(iArchitecture
Entity
p294
(dp295
g11
(lp296
sg13
S'android.content.pm.ConfigurationInfo$1'
p297
sg15
(lp298
sg17
(lp299
sg19
(lp300
sg21
I0
sbasg106
(lp301
g290
ag297
asg21
I0
sg108
S'480'
p302
sba(iArchitecture
Cluster
p303
(dp304
g7
(lp305
(iArchitecture
Entity
p306
(dp307
g11
(lp308
sg13
S'com.android.server.net.IpConfigStore'
p309
sg15
(lp310
sg17
(lp311
sg19
(lp312
sg21
I0
sba(iArchitecture
Entity
p313
(dp314
g11
(lp315
sg13
S'com.android.server.net.IpConfigStore$1'
p316
sg15
(lp317
sg17
(lp318
sg19
(lp319
sg21
I0
sbasg106
(lp320
g309
ag316
asg21
I0
sg108
S'580'
p321
sba(iArchitecture
Cluster
p322
(dp323
g7
(lp324
(iArchitecture
Entity
p325
(dp326
g11
(lp327
sg13
S'android.hardware.camera2.legacy.LegacyFaceDetectMapper'
p328
sg15
(lp329
sg17
(lp330
sg19
(lp331
sg21
I0
sba(iArchitecture
Entity
p332
(dp333
g11
(lp334
sg13
S'android.hardware.camera2.legacy.LegacyFaceDetectMapper$1'
p335
sg15
(lp336
sg17
(lp337
sg19
(lp338
sg21
I0
sbasg106
(lp339
g328
ag335
asg21
I0
sg108
S'680'
p340
sba(iArchitecture
Cluster
p341
(dp342
g7
(lp343
(iArchitecture
Entity
p344
(dp345
g11
(lp346
sg13
S'android.util.PathParser'
p347
sg15
(lp348
sg17
(lp349
sg19
(lp350
sg21
I0
sba(iArchitecture
Entity
p351
(dp352
g11
(lp353
sg13
S'android.util.PathParser$ExtractFloatResult'
p354
sg15
(lp355
sg17
(lp356
sg19
(lp357
sg21
I0
sba(iArchitecture
Entity
p358
(dp359
g11
(lp360
sg13
S'android.util.PathParser$PathDataNode'
p361
sg15
(lp362
sg17
(lp363
sg19
(lp364
sg21
I0
sbasg106
(lp365
g347
ag354
ag361
asg21
I0
sg108
S'780'
p366
sba(iArchitecture
Cluster
p367
(dp368
g7
(lp369
(iArchitecture
Entity
p370
(dp371
g11
(lp372
sg13
S'android.webkit.DateSorter'
p373
sg15
(lp374
sg17
(lp375
sg19
(lp376
sg21
I0
sbasg106
(lp377
g373
asg21
I0
sg108
S'80'
p378
sba(iArchitecture
Cluster
p379
(dp380
g7
(lp381
(iArchitecture
Entity
p382
(dp383
g11
(lp384
sg13
S'android.transition.Fade'
p385
sg15
(lp386
sg17
(lp387
sg19
(lp388
sg21
I0
sba(iArchitecture
Entity
p389
(dp390
g11
(lp391
sg13
S'android.transition.Fade$1'
p392
sg15
(lp393
sg17
(lp394
sg19
(lp395
sg21
I0
sba(iArchitecture
Entity
p396
(dp397
g11
(lp398
sg13
S'android.transition.Fade$FadeAnimatorListener'
p399
sg15
(lp400
sg17
(lp401
sg19
(lp402
sg21
I0
sbasg106
(lp403
g385
ag392
ag399
asg21
I0
sg108
S'800'
p404
sba(iArchitecture
Cluster
p405
(dp406
g7
(lp407
(iArchitecture
Entity
p408
(dp409
g11
(lp410
sg13
S'android.os.UEventObserver'
p411
sg15
(lp412
sg17
(lp413
sg19
(lp414
sg21
I0
sba(iArchitecture
Entity
p415
(dp416
g11
(lp417
sg13
S'android.os.UEventObserver$UEvent'
p418
sg15
(lp419
sg17
(lp420
sg19
(lp421
sg21
I0
sba(iArchitecture
Entity
p422
(dp423
g11
(lp424
sg13
S'android.os.UEventObserver$UEventThread'
p425
sg15
(lp426
sg17
(lp427
sg19
(lp428
sg21
I0
sbasg106
(lp429
g411
ag418
ag425
asg21
I0
sg108
S'801'
p430
sba(iArchitecture
Cluster
p431
(dp432
g7
(lp433
(iArchitecture
Entity
p434
(dp435
g11
(lp436
sg13
S'android.telecom.VideoCallbackServant'
p437
sg15
(lp438
sg17
(lp439
sg19
(lp440
sg21
I0
sba(iArchitecture
Entity
p441
(dp442
g11
(lp443
sg13
S'android.telecom.VideoCallbackServant$1'
p444
sg15
(lp445
sg17
(lp446
sg19
(lp447
sg21
I0
sba(iArchitecture
Entity
p448
(dp449
g11
(lp450
sg13
S'android.telecom.VideoCallbackServant$2'
p451
sg15
(lp452
sg17
(lp453
sg19
(lp454
sg21
I0
sbasg106
(lp455
g437
ag444
ag451
asg21
I0
sg108
S'802'
p456
sba(iArchitecture
Cluster
p457
(dp458
g7
(lp459
(iArchitecture
Entity
p460
(dp461
g11
(lp462
sg13
S'android.content.res.StringBlock'
p463
sg15
(lp464
sg17
(lp465
sg19
(lp466
sg21
I0
sba(iArchitecture
Entity
p467
(dp468
g11
(lp469
sg13
S'android.content.res.StringBlock$Height'
p470
sg15
(lp471
sg17
(lp472
sg19
(lp473
sg21
I0
sba(iArchitecture
Entity
p474
(dp475
g11
(lp476
sg13
S'android.content.res.StringBlock$StyleIDs'
p477
sg15
(lp478
sg17
(lp479
sg19
(lp480
sg21
I0
sbasg106
(lp481
g463
ag470
ag477
asg21
I0
sg108
S'803'
p482
sba(iArchitecture
Cluster
p483
(dp484
g7
(lp485
(iArchitecture
Entity
p486
(dp487
g11
(lp488
sg13
S'android.renderscript.FileA3D'
p489
sg15
(lp490
sg17
(lp491
sg19
(lp492
sg21
I0
sba(iArchitecture
Entity
p493
(dp494
g11
(lp495
sg13
S'android.renderscript.FileA3D$EntryType'
p496
sg15
(lp497
sg17
(lp498
sg19
(lp499
sg21
I0
sba(iArchitecture
Entity
p500
(dp501
g11
(lp502
sg13
S'android.renderscript.FileA3D$IndexEntry'
p503
sg15
(lp504
sg17
(lp505
sg19
(lp506
sg21
I0
sbasg106
(lp507
g489
ag496
ag503
asg21
I0
sg108
S'804'
p508
sba(iArchitecture
Cluster
p509
(dp510
g7
(lp511
(iArchitecture
Entity
p512
(dp513
g11
(lp514
sg13
S'android.renderscript.Sampler'
p515
sg15
(lp516
sg17
(lp517
sg19
(lp518
sg21
I0
sba(iArchitecture
Entity
p519
(dp520
g11
(lp521
sg13
S'android.renderscript.Sampler$Builder'
p522
sg15
(lp523
sg17
(lp524
sg19
(lp525
sg21
I0
sba(iArchitecture
Entity
p526
(dp527
g11
(lp528
sg13
S'android.renderscript.Sampler$Value'
p529
sg15
(lp530
sg17
(lp531
sg19
(lp532
sg21
I0
sbasg106
(lp533
g515
ag522
ag529
asg21
I0
sg108
S'805'
p534
sba(iArchitecture
Cluster
p535
(dp536
g7
(lp537
(iArchitecture
Entity
p538
(dp539
g11
(lp540
sg13
S'android.renderscript.ProgramRaster'
p541
sg15
(lp542
sg17
(lp543
sg19
(lp544
sg21
I0
sba(iArchitecture
Entity
p545
(dp546
g11
(lp547
sg13
S'android.renderscript.ProgramRaster$Builder'
p548
sg15
(lp549
sg17
(lp550
sg19
(lp551
sg21
I0
sba(iArchitecture
Entity
p552
(dp553
g11
(lp554
sg13
S'android.renderscript.ProgramRaster$CullMode'
p555
sg15
(lp556
sg17
(lp557
sg19
(lp558
sg21
I0
sbasg106
(lp559
g541
ag548
ag555
asg21
I0
sg108
S'806'
p560
sba(iArchitecture
Cluster
p561
(dp562
g7
(lp563
(iArchitecture
Entity
p564
(dp565
g11
(lp566
sg13
S'android.widget.Toast'
p567
sg15
(lp568
sg17
(lp569
sg19
(lp570
sg21
I0
sba(iArchitecture
Entity
p571
(dp572
g11
(lp573
sg13
S'android.widget.Toast$TN'
p574
sg15
(lp575
sg17
(lp576
sg19
(lp577
sg21
I0
sba(iArchitecture
Entity
p578
(dp579
g11
(lp580
sg13
S'android.widget.Toast$TN$1'
p581
sg15
(lp582
sg17
(lp583
sg19
(lp584
sg21
I0
sba(iArchitecture
Entity
p585
(dp586
g11
(lp587
sg13
S'android.widget.Toast$TN$2'
p588
sg15
(lp589
sg17
(lp590
sg19
(lp591
sg21
I0
sbasg106
(lp592
g567
ag574
ag581
ag588
asg21
I0
sg108
S'807'
p593
sba(iArchitecture
Cluster
p594
(dp595
g7
(lp596
(iArchitecture
Entity
p597
(dp598
g11
(lp599
sg13
S'com.android.server.notification.CalendarTracker'
p600
sg15
(lp601
sg17
(lp602
sg19
(lp603
sg21
I0
sba(iArchitecture
Entity
p604
(dp605
g11
(lp606
sg13
S'com.android.server.notification.CalendarTracker$1'
p607
sg15
(lp608
sg17
(lp609
sg19
(lp610
sg21
I0
sba(iArchitecture
Entity
p611
(dp612
g11
(lp613
sg13
S'com.android.server.notification.CalendarTracker$Callback'
p614
sg15
(lp615
sg17
(lp616
sg19
(lp617
sg21
I0
sba(iArchitecture
Entity
p618
(dp619
g11
(lp620
sg13
S'com.android.server.notification.CalendarTracker$CheckEventResult'
p621
sg15
(lp622
sg17
(lp623
sg19
(lp624
sg21
I0
sbasg106
(lp625
g600
ag607
ag614
ag621
asg21
I0
sg108
S'808'
p626
sba(iArchitecture
Cluster
p627
(dp628
g7
(lp629
(iArchitecture
Entity
p630
(dp631
g11
(lp632
sg13
S'android.gesture.GestureLibraries'
p633
sg15
(lp634
sg17
(lp635
sg19
(lp636
sg21
I0
sba(iArchitecture
Entity
p637
(dp638
g11
(lp639
sg13
S'android.gesture.GestureLibraries$FileGestureLibrary'
p640
sg15
(lp641
sg17
(lp642
sg19
(lp643
sg21
I0
sba(iArchitecture
Entity
p644
(dp645
g11
(lp646
sg13
S'android.gesture.GestureLibraries$ResourceGestureLibrary'
p647
sg15
(lp648
sg17
(lp649
sg19
(lp650
sg21
I0
sbasg106
(lp651
g633
ag640
ag647
asg21
I0
sg108
S'809'
p652
sba(iArchitecture
Cluster
p653
(dp654
g7
(lp655
(iArchitecture
Entity
p656
(dp657
g11
(lp658
sg13
S'android.security.keystore.KeyStoreCryptoOperationChunkedStreamer'
p659
sg15
(lp660
sg17
(lp661
sg19
(lp662
sg21
I0
sba(iArchitecture
Entity
p663
(dp664
g11
(lp665
sg13
S'android.security.keystore.KeyStoreCryptoOperationChunkedStreamer$MainDataStream'
p666
sg15
(lp667
sg17
(lp668
sg19
(lp669
sg21
I0
sba(iArchitecture
Entity
p670
(dp671
g11
(lp672
sg13
S'android.security.keystore.KeyStoreCryptoOperationChunkedStreamer$Stream'
p673
sg15
(lp674
sg17
(lp675
sg19
(lp676
sg21
I0
sbasg106
(lp677
g659
ag666
ag673
asg21
I0
sg108
S'880'
p678
sba(iArchitecture
Cluster
p679
(dp680
g7
(lp681
(iArchitecture
Entity
p682
(dp683
g11
(lp684
sg13
S'com.android.server.display.AutomaticBrightnessController'
p685
sg15
(lp686
sg17
(lp687
sg19
(lp688
sg21
I0
sba(iArchitecture
Entity
p689
(dp690
g11
(lp691
sg13
S'com.android.server.display.AutomaticBrightnessController$1'
p692
sg15
(lp693
sg17
(lp694
sg19
(lp695
sg21
I0
sba(iArchitecture
Entity
p696
(dp697
g11
(lp698
sg13
S'com.android.server.display.AutomaticBrightnessController$2'
p699
sg15
(lp700
sg17
(lp701
sg19
(lp702
sg21
I0
sba(iArchitecture
Entity
p703
(dp704
g11
(lp705
sg13
S'com.android.server.display.AutomaticBrightnessController$AmbientLightRingBuffer'
p706
sg15
(lp707
sg17
(lp708
sg19
(lp709
sg21
I0
sba(iArchitecture
Entity
p710
(dp711
g11
(lp712
sg13
S'com.android.server.display.AutomaticBrightnessController$AutomaticBrightnessHandler'
p713
sg15
(lp714
sg17
(lp715
sg19
(lp716
sg21
I0
sba(iArchitecture
Entity
p717
(dp718
g11
(lp719
sg13
S'com.android.server.display.AutomaticBrightnessController$Callbacks'
p720
sg15
(lp721
sg17
(lp722
sg19
(lp723
sg21
I0
sbasg106
(lp724
g685
ag692
ag699
ag706
ag713
ag720
asg21
I0
sg108
S'980'
p725
sbasS'target_sub'
p726
S'80'
p727
sg106
(lp728
sS'is_component_arch'
p729
I01
sg108
S'6.0.0_r1'
p730
sba.