(lp0
(iArchitecture
Architecture
p1
(dp2
S'clusters'
p3
(lp4
(iArchitecture
Cluster
p5
(dp6
S'entities'
p7
(lp8
(iArchitecture
Entity
p9
(dp10
S'issue_ids'
p11
(lp12
sS'name'
p13
S'android.media.tv.TvContract'
p14
sS'descs'
p15
(lp16
sS'labels'
p17
(lp18
sS'titles'
p19
(lp20
sS'change'
p21
I0
sba(iArchitecture
Entity
p22
(dp23
g11
(lp24
sg13
S'android.media.tv.TvContract$BaseTvColumns'
p25
sg15
(lp26
sg17
(lp27
sg19
(lp28
sg21
I0
sba(iArchitecture
Entity
p29
(dp30
g11
(lp31
sg13
S'android.media.tv.TvContract$Channels'
p32
sg15
(lp33
sg17
(lp34
sg19
(lp35
sg21
I0
sba(iArchitecture
Entity
p36
(dp37
g11
(lp38
sg13
S'android.media.tv.TvContract$Channels$Logo'
p39
sg15
(lp40
sg17
(lp41
sg19
(lp42
sg21
I0
sba(iArchitecture
Entity
p43
(dp44
g11
(lp45
sg13
S'android.media.tv.TvContract$Programs'
p46
sg15
(lp47
sg17
(lp48
sg19
(lp49
sg21
I0
sba(iArchitecture
Entity
p50
(dp51
g11
(lp52
sg13
S'android.media.tv.TvContract$Programs$Genres'
p53
sg15
(lp54
sg17
(lp55
sg19
(lp56
sg21
I0
sba(iArchitecture
Entity
p57
(dp58
g11
(lp59
sg13
S'android.media.tv.TvContract$WatchedPrograms'
p60
sg15
(lp61
sg17
(lp62
sg19
(lp63
sg21
I0
sbasS'classes'
p64
(lp65
g14
ag25
ag32
ag39
ag46
ag53
ag60
asg21
I0
sS'label'
p66
S'1044'
p67
sba(iArchitecture
Cluster
p68
(dp69
g7
(lp70
(iArchitecture
Entity
p71
(dp72
g11
(lp73
sg13
S'android.text.method.MultiTapKeyListener'
p74
sg15
(lp75
sg17
(lp76
sg19
(lp77
sg21
I0
sba(iArchitecture
Entity
p78
(dp79
g11
(lp80
sg13
S'android.text.method.MultiTapKeyListener$Timeout'
p81
sg15
(lp82
sg17
(lp83
sg19
(lp84
sg21
I0
sba(iArchitecture
Entity
p85
(dp86
g11
(lp87
sg13
S'android.text.method.QwertyKeyListener'
p88
sg15
(lp89
sg17
(lp90
sg19
(lp91
sg21
I0
sba(iArchitecture
Entity
p92
(dp93
g11
(lp94
sg13
S'android.text.method.QwertyKeyListener$Replaced'
p95
sg15
(lp96
sg17
(lp97
sg19
(lp98
sg21
I0
sbasg64
(lp99
g74
ag81
ag88
ag95
asg21
I0
sg66
S'1144'
p100
sba(iArchitecture
Cluster
p101
(dp102
g7
(lp103
(iArchitecture
Entity
p104
(dp105
g11
(lp106
sg13
S'android.graphics.PorterDuffXfermode'
p107
sg15
(lp108
sg17
(lp109
sg19
(lp110
sg21
I0
sba(iArchitecture
Entity
p111
(dp112
g11
(lp113
sg13
S'android.graphics.drawable.shapes.ArcShape'
p114
sg15
(lp115
sg17
(lp116
sg19
(lp117
sg21
I0
sba(iArchitecture
Entity
p118
(dp119
g11
(lp120
sg13
S'android.graphics.drawable.shapes.OvalShape'
p121
sg15
(lp122
sg17
(lp123
sg19
(lp124
sg21
I0
sba(iArchitecture
Entity
p125
(dp126
g11
(lp127
sg13
S'android.graphics.drawable.shapes.RectShape'
p128
sg15
(lp129
sg17
(lp130
sg19
(lp131
sg21
I0
sba(iArchitecture
Entity
p132
(dp133
g11
(lp134
sg13
S'android.hardware.soundtrigger.KeyphraseMetadata'
p135
sg15
(lp136
sg17
(lp137
sg19
(lp138
sg21
I0
sba(iArchitecture
Entity
p139
(dp140
g11
(lp141
sg13
S'android.view.animation.ClipRectAnimation'
p142
sg15
(lp143
sg17
(lp144
sg19
(lp145
sg21
I0
sba(iArchitecture
Entity
p146
(dp147
g11
(lp148
sg13
S'com.android.internal.app.DisableCarModeActivity'
p149
sg15
(lp150
sg17
(lp151
sg19
(lp152
sg21
I0
sba(iArchitecture
Entity
p153
(dp154
g11
(lp155
sg13
S'com.android.server.BluetoothService'
p156
sg15
(lp157
sg17
(lp158
sg19
(lp159
sg21
I0
sba(iArchitecture
Entity
p160
(dp161
g11
(lp162
sg13
S'com.android.server.appwidget.AppWidgetService'
p163
sg15
(lp164
sg17
(lp165
sg19
(lp166
sg21
I0
sbasg64
(lp167
g107
ag114
ag121
ag128
ag135
ag142
ag149
ag156
ag163
asg21
I0
sg66
S'1244'
p168
sba(iArchitecture
Cluster
p169
(dp170
g7
(lp171
(iArchitecture
Entity
p172
(dp173
g11
(lp174
sg13
S'android.graphics.drawable.PaintDrawable'
p175
sg15
(lp176
sg17
(lp177
sg19
(lp178
sg21
I0
sbasg64
(lp179
g175
asg21
I0
sg66
S'144'
p180
sba(iArchitecture
Cluster
p181
(dp182
g7
(lp183
(iArchitecture
Entity
p184
(dp185
g11
(lp186
sg13
S'android.speech.tts.SynthesisRequest'
p187
sg15
(lp188
sg17
(lp189
sg19
(lp190
sg21
I0
sbasg64
(lp191
g187
asg21
I0
sg66
S'244'
p192
sba(iArchitecture
Cluster
p193
(dp194
g7
(lp195
(iArchitecture
Entity
p196
(dp197
g11
(lp198
sg13
S'com.android.server.updates.TzDataInstallReceiver'
p199
sg15
(lp200
sg17
(lp201
sg19
(lp202
sg21
I0
sbasg64
(lp203
g199
asg21
I0
sg66
S'344'
p204
sba(iArchitecture
Cluster
p205
(dp206
g7
(lp207
(iArchitecture
Entity
p208
(dp209
g11
(lp210
sg13
S'android.graphics.ColorMatrixColorFilter'
p211
sg15
(lp212
sg17
(lp213
sg19
(lp214
sg21
I0
sbasg64
(lp215
g211
asg21
I0
sg66
S'44'
p216
sba(iArchitecture
Cluster
p217
(dp218
g7
(lp219
(iArchitecture
Entity
p220
(dp221
g11
(lp222
sg13
S'android.graphics.PaintFlagsDrawFilter'
p223
sg15
(lp224
sg17
(lp225
sg19
(lp226
sg21
I0
sbasg64
(lp227
g223
asg21
I0
sg66
S'440'
p228
sba(iArchitecture
Cluster
p229
(dp230
g7
(lp231
(iArchitecture
Entity
p232
(dp233
g11
(lp234
sg13
S'android.telephony.PhoneNumberFormattingTextWatcher'
p235
sg15
(lp236
sg17
(lp237
sg19
(lp238
sg21
I0
sbasg64
(lp239
g235
asg21
I0
sg66
S'441'
p240
sba(iArchitecture
Cluster
p241
(dp242
g7
(lp243
(iArchitecture
Entity
p244
(dp245
g11
(lp246
sg13
S'android.content.ComponentCallbacks2'
p247
sg15
(lp248
sg17
(lp249
sg19
(lp250
sg21
I0
sbasg64
(lp251
g247
asg21
I0
sg66
S'442'
p252
sba(iArchitecture
Cluster
p253
(dp254
g7
(lp255
(iArchitecture
Entity
p256
(dp257
g11
(lp258
sg13
S'android.view.InputChannel'
p259
sg15
(lp260
sg17
(lp261
sg19
(lp262
sg21
I0
sba(iArchitecture
Entity
p263
(dp264
g11
(lp265
sg13
S'android.view.InputChannel$1'
p266
sg15
(lp267
sg17
(lp268
sg19
(lp269
sg21
I0
sbasg64
(lp270
g259
ag266
asg21
I0
sg66
S'443'
p271
sba(iArchitecture
Cluster
p272
(dp273
g7
(lp274
(iArchitecture
Entity
p275
(dp276
g11
(lp277
sg13
S'android.view.accessibility.AccessibilityWindowInfo'
p278
sg15
(lp279
sg17
(lp280
sg19
(lp281
sg21
I0
sba(iArchitecture
Entity
p282
(dp283
g11
(lp284
sg13
S'android.view.accessibility.AccessibilityWindowInfo$1'
p285
sg15
(lp286
sg17
(lp287
sg19
(lp288
sg21
I0
sbasg64
(lp289
g278
ag285
asg21
I0
sg66
S'444'
p290
sba(iArchitecture
Cluster
p291
(dp292
g7
(lp293
(iArchitecture
Entity
p294
(dp295
g11
(lp296
sg13
S'android.content.ContentProviderClient'
p297
sg15
(lp298
sg17
(lp299
sg19
(lp300
sg21
I0
sba(iArchitecture
Entity
p301
(dp302
g11
(lp303
sg13
S'android.content.ContentProviderClient$NotRespondingRunnable'
p304
sg15
(lp305
sg17
(lp306
sg19
(lp307
sg21
I0
sbasg64
(lp308
g297
ag304
asg21
I0
sg66
S'445'
p309
sba(iArchitecture
Cluster
p310
(dp311
g7
(lp312
(iArchitecture
Entity
p313
(dp314
g11
(lp315
sg13
S'org.apache.http.conn.ssl.SSLSocketFactory'
p316
sg15
(lp317
sg17
(lp318
sg19
(lp319
sg21
I0
sba(iArchitecture
Entity
p320
(dp321
g11
(lp322
sg13
S'org.apache.http.conn.ssl.SSLSocketFactory$NoPreloadHolder'
p323
sg15
(lp324
sg17
(lp325
sg19
(lp326
sg21
I0
sbasg64
(lp327
g316
ag323
asg21
I0
sg66
S'446'
p328
sba(iArchitecture
Cluster
p329
(dp330
g7
(lp331
(iArchitecture
Entity
p332
(dp333
g11
(lp334
sg13
S'android.media.AudioFormat'
p335
sg15
(lp336
sg17
(lp337
sg19
(lp338
sg21
I0
sba(iArchitecture
Entity
p339
(dp340
g11
(lp341
sg13
S'android.media.AudioFormat$Builder'
p342
sg15
(lp343
sg17
(lp344
sg19
(lp345
sg21
I0
sbasg64
(lp346
g335
ag342
asg21
I0
sg66
S'447'
p347
sba(iArchitecture
Cluster
p348
(dp349
g7
(lp350
(iArchitecture
Entity
p351
(dp352
g11
(lp353
sg13
S'com.android.server.policy.BarController'
p354
sg15
(lp355
sg17
(lp356
sg19
(lp357
sg21
I0
sba(iArchitecture
Entity
p358
(dp359
g11
(lp360
sg13
S'com.android.server.policy.BarController$1'
p361
sg15
(lp362
sg17
(lp363
sg19
(lp364
sg21
I0
sbasg64
(lp365
g354
ag361
asg21
I0
sg66
S'448'
p366
sba(iArchitecture
Cluster
p367
(dp368
g7
(lp369
(iArchitecture
Entity
p370
(dp371
g11
(lp372
sg13
S'android.content.pm.UserInfo'
p373
sg15
(lp374
sg17
(lp375
sg19
(lp376
sg21
I0
sba(iArchitecture
Entity
p377
(dp378
g11
(lp379
sg13
S'android.content.pm.UserInfo$1'
p380
sg15
(lp381
sg17
(lp382
sg19
(lp383
sg21
I0
sbasg64
(lp384
g373
ag380
asg21
I0
sg66
S'449'
p385
sba(iArchitecture
Cluster
p386
(dp387
g7
(lp388
(iArchitecture
Entity
p389
(dp390
g11
(lp391
sg13
S'android.content.pm.LabeledIntent'
p392
sg15
(lp393
sg17
(lp394
sg19
(lp395
sg21
I0
sba(iArchitecture
Entity
p396
(dp397
g11
(lp398
sg13
S'android.content.pm.LabeledIntent$1'
p399
sg15
(lp400
sg17
(lp401
sg19
(lp402
sg21
I0
sbasg64
(lp403
g392
ag399
asg21
I0
sg66
S'544'
p404
sba(iArchitecture
Cluster
p405
(dp406
g7
(lp407
(iArchitecture
Entity
p408
(dp409
g11
(lp410
sg13
S'android.hardware.camera2.dispatch.HandlerDispatcher'
p411
sg15
(lp412
sg17
(lp413
sg19
(lp414
sg21
I0
sba(iArchitecture
Entity
p415
(dp416
g11
(lp417
sg13
S'android.hardware.camera2.dispatch.HandlerDispatcher$1'
p418
sg15
(lp419
sg17
(lp420
sg19
(lp421
sg21
I0
sbasg64
(lp422
g411
ag418
asg21
I0
sg66
S'644'
p423
sba(iArchitecture
Cluster
p424
(dp425
g7
(lp426
(iArchitecture
Entity
p427
(dp428
g11
(lp429
sg13
S'android.content.SharedPreferences'
p430
sg15
(lp431
sg17
(lp432
sg19
(lp433
sg21
I0
sba(iArchitecture
Entity
p434
(dp435
g11
(lp436
sg13
S'android.content.SharedPreferences$Editor'
p437
sg15
(lp438
sg17
(lp439
sg19
(lp440
sg21
I0
sba(iArchitecture
Entity
p441
(dp442
g11
(lp443
sg13
S'android.content.SharedPreferences$OnSharedPreferenceChangeListener'
p444
sg15
(lp445
sg17
(lp446
sg19
(lp447
sg21
I0
sbasg64
(lp448
g430
ag437
ag444
asg21
I0
sg66
S'744'
p449
sba(iArchitecture
Cluster
p450
(dp451
g7
(lp452
(iArchitecture
Entity
p453
(dp454
g11
(lp455
sg13
S'android.renderscript.Font'
p456
sg15
(lp457
sg17
(lp458
sg19
(lp459
sg21
I0
sba(iArchitecture
Entity
p460
(dp461
g11
(lp462
sg13
S'android.renderscript.Font$FontFamily'
p463
sg15
(lp464
sg17
(lp465
sg19
(lp466
sg21
I0
sba(iArchitecture
Entity
p467
(dp468
g11
(lp469
sg13
S'android.renderscript.Font$Style'
p470
sg15
(lp471
sg17
(lp472
sg19
(lp473
sg21
I0
sbasg64
(lp474
g456
ag463
ag470
asg21
I0
sg66
S'844'
p475
sba(iArchitecture
Cluster
p476
(dp477
g7
(lp478
(iArchitecture
Entity
p479
(dp480
g11
(lp481
sg13
S'com.android.internal.transition.EpicenterTranslateClipReveal'
p482
sg15
(lp483
sg17
(lp484
sg19
(lp485
sg21
I0
sba(iArchitecture
Entity
p486
(dp487
g11
(lp488
sg13
S'com.android.internal.transition.EpicenterTranslateClipReveal$1'
p489
sg15
(lp490
sg17
(lp491
sg19
(lp492
sg21
I0
sba(iArchitecture
Entity
p493
(dp494
g11
(lp495
sg13
S'com.android.internal.transition.EpicenterTranslateClipReveal$State'
p496
sg15
(lp497
sg17
(lp498
sg19
(lp499
sg21
I0
sba(iArchitecture
Entity
p500
(dp501
g11
(lp502
sg13
S'com.android.internal.transition.EpicenterTranslateClipReveal$StateEvaluator'
p503
sg15
(lp504
sg17
(lp505
sg19
(lp506
sg21
I0
sba(iArchitecture
Entity
p507
(dp508
g11
(lp509
sg13
S'com.android.internal.transition.EpicenterTranslateClipReveal$StateProperty'
p510
sg15
(lp511
sg17
(lp512
sg19
(lp513
sg21
I0
sbasg64
(lp514
g482
ag489
ag496
ag503
ag510
asg21
I0
sg66
S'944'
p515
sbasS'target_sub'
p516
S'44'
p517
sg64
(lp518
sS'is_component_arch'
p519
I01
sg66
S'6.0.0_r1'
p520
sba.