(lp0
(iArchitecture
Architecture
p1
(dp2
S'clusters'
p3
(lp4
(iArchitecture
Cluster
p5
(dp6
S'entities'
p7
(lp8
(iArchitecture
Entity
p9
(dp10
S'issue_ids'
p11
(lp12
sS'name'
p13
S'com.android.server.tv.TvInputHardwareManager'
p14
sS'descs'
p15
(lp16
sS'labels'
p17
(lp18
sS'titles'
p19
(lp20
sS'change'
p21
I0
sba(iArchitecture
Entity
p22
(dp23
g11
(lp24
sg13
S'com.android.server.tv.TvInputHardwareManager$1'
p25
sg15
(lp26
sg17
(lp27
sg19
(lp28
sg21
I0
sba(iArchitecture
Entity
p29
(dp30
g11
(lp31
sg13
S'com.android.server.tv.TvInputHardwareManager$2'
p32
sg15
(lp33
sg17
(lp34
sg19
(lp35
sg21
I0
sba(iArchitecture
Entity
p36
(dp37
g11
(lp38
sg13
S'com.android.server.tv.TvInputHardwareManager$Connection'
p39
sg15
(lp40
sg17
(lp41
sg19
(lp42
sg21
I0
sba(iArchitecture
Entity
p43
(dp44
g11
(lp45
sg13
S'com.android.server.tv.TvInputHardwareManager$HdmiDeviceEventListener'
p46
sg15
(lp47
sg17
(lp48
sg19
(lp49
sg21
I0
sba(iArchitecture
Entity
p50
(dp51
g11
(lp52
sg13
S'com.android.server.tv.TvInputHardwareManager$HdmiHotplugEventListener'
p53
sg15
(lp54
sg17
(lp55
sg19
(lp56
sg21
I0
sba(iArchitecture
Entity
p57
(dp58
g11
(lp59
sg13
S'com.android.server.tv.TvInputHardwareManager$HdmiSystemAudioModeChangeListener'
p60
sg15
(lp61
sg17
(lp62
sg19
(lp63
sg21
I0
sba(iArchitecture
Entity
p64
(dp65
g11
(lp66
sg13
S'com.android.server.tv.TvInputHardwareManager$Listener'
p67
sg15
(lp68
sg17
(lp69
sg19
(lp70
sg21
I0
sba(iArchitecture
Entity
p71
(dp72
g11
(lp73
sg13
S'com.android.server.tv.TvInputHardwareManager$ListenerHandler'
p74
sg15
(lp75
sg17
(lp76
sg19
(lp77
sg21
I0
sba(iArchitecture
Entity
p78
(dp79
g11
(lp80
sg13
S'com.android.server.tv.TvInputHardwareManager$TvInputHardwareImpl'
p81
sg15
(lp82
sg17
(lp83
sg19
(lp84
sg21
I0
sba(iArchitecture
Entity
p85
(dp86
g11
(lp87
sg13
S'com.android.server.tv.TvInputHardwareManager$TvInputHardwareImpl$1'
p88
sg15
(lp89
sg17
(lp90
sg19
(lp91
sg21
I0
sbasS'classes'
p92
(lp93
g14
ag25
ag32
ag39
ag46
ag53
ag60
ag67
ag74
ag81
ag88
asg21
I0
sS'label'
p94
S'1062'
p95
sba(iArchitecture
Cluster
p96
(dp97
g7
(lp98
(iArchitecture
Entity
p99
(dp100
g11
(lp101
sg13
S'com.android.server.notification.CountdownConditionProvider'
p102
sg15
(lp103
sg17
(lp104
sg19
(lp105
sg21
I0
sba(iArchitecture
Entity
p106
(dp107
g11
(lp108
sg13
S'com.android.server.notification.CountdownConditionProvider$Receiver'
p109
sg15
(lp110
sg17
(lp111
sg19
(lp112
sg21
I0
sba(iArchitecture
Entity
p113
(dp114
g11
(lp115
sg13
S'com.android.server.notification.EventConditionProvider'
p116
sg15
(lp117
sg17
(lp118
sg19
(lp119
sg21
I0
sba(iArchitecture
Entity
p120
(dp121
g11
(lp122
sg13
S'com.android.server.notification.EventConditionProvider$1'
p123
sg15
(lp124
sg17
(lp125
sg19
(lp126
sg21
I0
sba(iArchitecture
Entity
p127
(dp128
g11
(lp129
sg13
S'com.android.server.notification.EventConditionProvider$2'
p130
sg15
(lp131
sg17
(lp132
sg19
(lp133
sg21
I0
sba(iArchitecture
Entity
p134
(dp135
g11
(lp136
sg13
S'com.android.server.notification.EventConditionProvider$3'
p137
sg15
(lp138
sg17
(lp139
sg19
(lp140
sg21
I0
sba(iArchitecture
Entity
p141
(dp142
g11
(lp143
sg13
S'com.android.server.notification.EventConditionProvider$4'
p144
sg15
(lp145
sg17
(lp146
sg19
(lp147
sg21
I0
sba(iArchitecture
Entity
p148
(dp149
g11
(lp150
sg13
S'com.android.server.notification.ScheduleConditionProvider'
p151
sg15
(lp152
sg17
(lp153
sg19
(lp154
sg21
I0
sba(iArchitecture
Entity
p155
(dp156
g11
(lp157
sg13
S'com.android.server.notification.ScheduleConditionProvider$1'
p158
sg15
(lp159
sg17
(lp160
sg19
(lp161
sg21
I0
sbasg92
(lp162
g102
ag109
ag116
ag123
ag130
ag137
ag144
ag151
ag158
asg21
I0
sg94
S'1162'
p163
sba(iArchitecture
Cluster
p164
(dp165
g7
(lp166
(iArchitecture
Entity
p167
(dp168
g11
(lp169
sg13
S'android.annotation.MainThread'
p170
sg15
(lp171
sg17
(lp172
sg19
(lp173
sg21
I0
sba(iArchitecture
Entity
p174
(dp175
g11
(lp176
sg13
S'android.annotation.UiThread'
p177
sg15
(lp178
sg17
(lp179
sg19
(lp180
sg21
I0
sba(iArchitecture
Entity
p181
(dp182
g11
(lp183
sg13
S'android.filterfw.core.ProgramVariable'
p184
sg15
(lp185
sg17
(lp186
sg19
(lp187
sg21
I0
sba(iArchitecture
Entity
p188
(dp189
g11
(lp190
sg13
S'android.filterpacks.imageproc.AlphaBlendFilter'
p191
sg15
(lp192
sg17
(lp193
sg19
(lp194
sg21
I0
sba(iArchitecture
Entity
p195
(dp196
g11
(lp197
sg13
S'android.filterpacks.imageproc.BlendFilter'
p198
sg15
(lp199
sg17
(lp200
sg19
(lp201
sg21
I0
sba(iArchitecture
Entity
p202
(dp203
g11
(lp204
sg13
S'android.filterpacks.imageproc.BrightnessFilter'
p205
sg15
(lp206
sg17
(lp207
sg19
(lp208
sg21
I0
sba(iArchitecture
Entity
p209
(dp210
g11
(lp211
sg13
S'android.filterpacks.imageproc.ContrastFilter'
p212
sg15
(lp213
sg17
(lp214
sg19
(lp215
sg21
I0
sba(iArchitecture
Entity
p216
(dp217
g11
(lp218
sg13
S'android.filterpacks.imageproc.Invert'
p219
sg15
(lp220
sg17
(lp221
sg19
(lp222
sg21
I0
sba(iArchitecture
Entity
p223
(dp224
g11
(lp225
sg13
S'android.graphics.AvoidXfermode'
p226
sg15
(lp227
sg17
(lp228
sg19
(lp229
sg21
I0
sba(iArchitecture
Entity
p230
(dp231
g11
(lp232
sg13
S'android.graphics.AvoidXfermode$Mode'
p233
sg15
(lp234
sg17
(lp235
sg19
(lp236
sg21
I0
sba(iArchitecture
Entity
p237
(dp238
g11
(lp239
sg13
S'android.graphics.BlurMaskFilter'
p240
sg15
(lp241
sg17
(lp242
sg19
(lp243
sg21
I0
sba(iArchitecture
Entity
p244
(dp245
g11
(lp246
sg13
S'android.graphics.BlurMaskFilter$Blur'
p247
sg15
(lp248
sg17
(lp249
sg19
(lp250
sg21
I0
sba(iArchitecture
Entity
p251
(dp252
g11
(lp253
sg13
S'android.opengl.EGLContext'
p254
sg15
(lp255
sg17
(lp256
sg19
(lp257
sg21
I0
sba(iArchitecture
Entity
p258
(dp259
g11
(lp260
sg13
S'android.opengl.EGLDisplay'
p261
sg15
(lp262
sg17
(lp263
sg19
(lp264
sg21
I0
sba(iArchitecture
Entity
p265
(dp266
g11
(lp267
sg13
S'android.opengl.EGLExt'
p268
sg15
(lp269
sg17
(lp270
sg19
(lp271
sg21
I0
sba(iArchitecture
Entity
p272
(dp273
g11
(lp274
sg13
S'android.opengl.EGLSurface'
p275
sg15
(lp276
sg17
(lp277
sg19
(lp278
sg21
I0
sba(iArchitecture
Entity
p279
(dp280
g11
(lp281
sg13
S'com.google.android.gles_jni.EGLContextImpl'
p282
sg15
(lp283
sg17
(lp284
sg19
(lp285
sg21
I0
sba(iArchitecture
Entity
p286
(dp287
g11
(lp288
sg13
S'com.google.android.gles_jni.EGLDisplayImpl'
p289
sg15
(lp290
sg17
(lp291
sg19
(lp292
sg21
I0
sba(iArchitecture
Entity
p293
(dp294
g11
(lp295
sg13
S'com.google.android.gles_jni.EGLSurfaceImpl'
p296
sg15
(lp297
sg17
(lp298
sg19
(lp299
sg21
I0
sbasg92
(lp300
g170
ag177
ag184
ag191
ag198
ag205
ag212
ag219
ag226
ag233
ag240
ag247
ag254
ag261
ag268
ag275
ag282
ag289
ag296
asg21
I0
sg94
S'1262'
p301
sba(iArchitecture
Cluster
p302
(dp303
g7
(lp304
(iArchitecture
Entity
p305
(dp306
g11
(lp307
sg13
S'android.widget.BaseExpandableListAdapter'
p308
sg15
(lp309
sg17
(lp310
sg19
(lp311
sg21
I0
sbasg92
(lp312
g308
asg21
I0
sg94
S'162'
p313
sba(iArchitecture
Cluster
p314
(dp315
g7
(lp316
(iArchitecture
Entity
p317
(dp318
g11
(lp319
sg13
S'android.view.WindowManagerImpl'
p320
sg15
(lp321
sg17
(lp322
sg19
(lp323
sg21
I0
sbasg92
(lp324
g320
asg21
I0
sg94
S'262'
p325
sba(iArchitecture
Cluster
p326
(dp327
g7
(lp328
(iArchitecture
Entity
p329
(dp330
g11
(lp331
sg13
S'android.hardware.camera2.utils.SurfaceUtils'
p332
sg15
(lp333
sg17
(lp334
sg19
(lp335
sg21
I0
sbasg92
(lp336
g332
asg21
I0
sg94
S'362'
p337
sba(iArchitecture
Cluster
p338
(dp339
g7
(lp340
(iArchitecture
Entity
p341
(dp342
g11
(lp343
sg13
S'android.net.wifi.WifiLinkLayerStats'
p344
sg15
(lp345
sg17
(lp346
sg19
(lp347
sg21
I0
sba(iArchitecture
Entity
p348
(dp349
g11
(lp350
sg13
S'android.net.wifi.WifiLinkLayerStats$1'
p351
sg15
(lp352
sg17
(lp353
sg19
(lp354
sg21
I0
sbasg92
(lp355
g344
ag351
asg21
I0
sg94
S'462'
p356
sba(iArchitecture
Cluster
p357
(dp358
g7
(lp359
(iArchitecture
Entity
p360
(dp361
g11
(lp362
sg13
S'com.android.internal.alsa.AlsaDevicesParser'
p363
sg15
(lp364
sg17
(lp365
sg19
(lp366
sg21
I0
sba(iArchitecture
Entity
p367
(dp368
g11
(lp369
sg13
S'com.android.internal.alsa.AlsaDevicesParser$AlsaDeviceRecord'
p370
sg15
(lp371
sg17
(lp372
sg19
(lp373
sg21
I0
sbasg92
(lp374
g363
ag370
asg21
I0
sg94
S'562'
p375
sba(iArchitecture
Cluster
p376
(dp377
g7
(lp378
(iArchitecture
Entity
p379
(dp380
g11
(lp381
sg13
S'android.nfc.ErrorCodes'
p382
sg15
(lp383
sg17
(lp384
sg19
(lp385
sg21
I0
sbasg92
(lp386
g382
asg21
I0
sg94
S'62'
p387
sba(iArchitecture
Cluster
p388
(dp389
g7
(lp390
(iArchitecture
Entity
p391
(dp392
g11
(lp393
sg13
S'android.net.wifi.p2p.WifiP2pDeviceList'
p394
sg15
(lp395
sg17
(lp396
sg19
(lp397
sg21
I0
sba(iArchitecture
Entity
p398
(dp399
g11
(lp400
sg13
S'android.net.wifi.p2p.WifiP2pDeviceList$1'
p401
sg15
(lp402
sg17
(lp403
sg19
(lp404
sg21
I0
sbasg92
(lp405
g394
ag401
asg21
I0
sg94
S'620'
p406
sba(iArchitecture
Cluster
p407
(dp408
g7
(lp409
(iArchitecture
Entity
p410
(dp411
g11
(lp412
sg13
S'com.android.internal.view.InputConnectionWrapper'
p413
sg15
(lp414
sg17
(lp415
sg19
(lp416
sg21
I0
sba(iArchitecture
Entity
p417
(dp418
g11
(lp419
sg13
S'com.android.internal.view.InputConnectionWrapper$InputContextCallback'
p420
sg15
(lp421
sg17
(lp422
sg19
(lp423
sg21
I0
sbasg92
(lp424
g413
ag420
asg21
I0
sg94
S'621'
p425
sba(iArchitecture
Cluster
p426
(dp427
g7
(lp428
(iArchitecture
Entity
p429
(dp430
g11
(lp431
sg13
S'android.nfc.BeamShareData'
p432
sg15
(lp433
sg17
(lp434
sg19
(lp435
sg21
I0
sba(iArchitecture
Entity
p436
(dp437
g11
(lp438
sg13
S'android.nfc.BeamShareData$1'
p439
sg15
(lp440
sg17
(lp441
sg19
(lp442
sg21
I0
sbasg92
(lp443
g432
ag439
asg21
I0
sg94
S'622'
p444
sba(iArchitecture
Cluster
p445
(dp446
g7
(lp447
(iArchitecture
Entity
p448
(dp449
g11
(lp450
sg13
S'android.app.ActivityTransitionState'
p451
sg15
(lp452
sg17
(lp453
sg19
(lp454
sg21
I0
sba(iArchitecture
Entity
p455
(dp456
g11
(lp457
sg13
S'android.app.ActivityTransitionState$1'
p458
sg15
(lp459
sg17
(lp460
sg19
(lp461
sg21
I0
sbasg92
(lp462
g451
ag458
asg21
I0
sg94
S'623'
p463
sba(iArchitecture
Cluster
p464
(dp465
g7
(lp466
(iArchitecture
Entity
p467
(dp468
g11
(lp469
sg13
S'android.media.PlaybackParams'
p470
sg15
(lp471
sg17
(lp472
sg19
(lp473
sg21
I0
sba(iArchitecture
Entity
p474
(dp475
g11
(lp476
sg13
S'android.media.PlaybackParams$1'
p477
sg15
(lp478
sg17
(lp479
sg19
(lp480
sg21
I0
sbasg92
(lp481
g470
ag477
asg21
I0
sg94
S'624'
p482
sba(iArchitecture
Cluster
p483
(dp484
g7
(lp485
(iArchitecture
Entity
p486
(dp487
g11
(lp488
sg13
S'android.os.PowerManagerInternal'
p489
sg15
(lp490
sg17
(lp491
sg19
(lp492
sg21
I0
sba(iArchitecture
Entity
p493
(dp494
g11
(lp495
sg13
S'android.os.PowerManagerInternal$LowPowerModeListener'
p496
sg15
(lp497
sg17
(lp498
sg19
(lp499
sg21
I0
sbasg92
(lp500
g489
ag496
asg21
I0
sg94
S'625'
p501
sba(iArchitecture
Cluster
p502
(dp503
g7
(lp504
(iArchitecture
Entity
p505
(dp506
g11
(lp507
sg13
S'com.android.server.location.LocationProviderProxy'
p508
sg15
(lp509
sg17
(lp510
sg19
(lp511
sg21
I0
sba(iArchitecture
Entity
p512
(dp513
g11
(lp514
sg13
S'com.android.server.location.LocationProviderProxy$1'
p515
sg15
(lp516
sg17
(lp517
sg19
(lp518
sg21
I0
sbasg92
(lp519
g508
ag515
asg21
I0
sg94
S'626'
p520
sba(iArchitecture
Cluster
p521
(dp522
g7
(lp523
(iArchitecture
Entity
p524
(dp525
g11
(lp526
sg13
S'com.android.ims.ImsConferenceState'
p527
sg15
(lp528
sg17
(lp529
sg19
(lp530
sg21
I0
sba(iArchitecture
Entity
p531
(dp532
g11
(lp533
sg13
S'com.android.ims.ImsConferenceState$1'
p534
sg15
(lp535
sg17
(lp536
sg19
(lp537
sg21
I0
sbasg92
(lp538
g527
ag534
asg21
I0
sg94
S'627'
p539
sba(iArchitecture
Cluster
p540
(dp541
g7
(lp542
(iArchitecture
Entity
p543
(dp544
g11
(lp545
sg13
S'android.telephony.RadioAccessFamily'
p546
sg15
(lp547
sg17
(lp548
sg19
(lp549
sg21
I0
sba(iArchitecture
Entity
p550
(dp551
g11
(lp552
sg13
S'android.telephony.RadioAccessFamily$1'
p553
sg15
(lp554
sg17
(lp555
sg19
(lp556
sg21
I0
sbasg92
(lp557
g546
ag553
asg21
I0
sg94
S'628'
p558
sba(iArchitecture
Cluster
p559
(dp560
g7
(lp561
(iArchitecture
Entity
p562
(dp563
g11
(lp564
sg13
S'android.view.ThreadedRenderer'
p565
sg15
(lp566
sg17
(lp567
sg19
(lp568
sg21
I0
sba(iArchitecture
Entity
p569
(dp570
g11
(lp571
sg13
S'android.view.ThreadedRenderer$ProcessInitializer'
p572
sg15
(lp573
sg17
(lp574
sg19
(lp575
sg21
I0
sbasg92
(lp576
g565
ag572
asg21
I0
sg94
S'629'
p577
sba(iArchitecture
Cluster
p578
(dp579
g7
(lp580
(iArchitecture
Entity
p581
(dp582
g11
(lp583
sg13
S'com.android.server.hdmi.OneTouchRecordAction'
p584
sg15
(lp585
sg17
(lp586
sg19
(lp587
sg21
I0
sba(iArchitecture
Entity
p588
(dp589
g11
(lp590
sg13
S'com.android.server.hdmi.OneTouchRecordAction$1'
p591
sg15
(lp592
sg17
(lp593
sg19
(lp594
sg21
I0
sbasg92
(lp595
g584
ag591
asg21
I0
sg94
S'662'
p596
sba(iArchitecture
Cluster
p597
(dp598
g7
(lp599
(iArchitecture
Entity
p600
(dp601
g11
(lp602
sg13
S'android.widget.RemoteViewsService'
p603
sg15
(lp604
sg17
(lp605
sg19
(lp606
sg21
I0
sba(iArchitecture
Entity
p607
(dp608
g11
(lp609
sg13
S'android.widget.RemoteViewsService$RemoteViewsFactory'
p610
sg15
(lp611
sg17
(lp612
sg19
(lp613
sg21
I0
sba(iArchitecture
Entity
p614
(dp615
g11
(lp616
sg13
S'android.widget.RemoteViewsService$RemoteViewsFactoryAdapter'
p617
sg15
(lp618
sg17
(lp619
sg19
(lp620
sg21
I0
sbasg92
(lp621
g603
ag610
ag617
asg21
I0
sg94
S'762'
p622
sba(iArchitecture
Cluster
p623
(dp624
g7
(lp625
(iArchitecture
Entity
p626
(dp627
g11
(lp628
sg13
S'com.android.server.job.JobStore'
p629
sg15
(lp630
sg17
(lp631
sg19
(lp632
sg21
I0
sba(iArchitecture
Entity
p633
(dp634
g11
(lp635
sg13
S'com.android.server.job.JobStore$ReadJobMapFromDiskRunnable'
p636
sg15
(lp637
sg17
(lp638
sg19
(lp639
sg21
I0
sba(iArchitecture
Entity
p640
(dp641
g11
(lp642
sg13
S'com.android.server.job.JobStore$WriteJobsMapToDiskRunnable'
p643
sg15
(lp644
sg17
(lp645
sg19
(lp646
sg21
I0
sbasg92
(lp647
g629
ag636
ag643
asg21
I0
sg94
S'862'
p648
sba(iArchitecture
Cluster
p649
(dp650
g7
(lp651
(iArchitecture
Entity
p652
(dp653
g11
(lp654
sg13
S'android.net.NetworkStatsHistory'
p655
sg15
(lp656
sg17
(lp657
sg19
(lp658
sg21
I0
sba(iArchitecture
Entity
p659
(dp660
g11
(lp661
sg13
S'android.net.NetworkStatsHistory$1'
p662
sg15
(lp663
sg17
(lp664
sg19
(lp665
sg21
I0
sba(iArchitecture
Entity
p666
(dp667
g11
(lp668
sg13
S'android.net.NetworkStatsHistory$DataStreamUtils'
p669
sg15
(lp670
sg17
(lp671
sg19
(lp672
sg21
I0
sba(iArchitecture
Entity
p673
(dp674
g11
(lp675
sg13
S'android.net.NetworkStatsHistory$Entry'
p676
sg15
(lp677
sg17
(lp678
sg19
(lp679
sg21
I0
sba(iArchitecture
Entity
p680
(dp681
g11
(lp682
sg13
S'android.net.NetworkStatsHistory$ParcelUtils'
p683
sg15
(lp684
sg17
(lp685
sg19
(lp686
sg21
I0
sbasg92
(lp687
g655
ag662
ag669
ag676
ag683
asg21
I0
sg94
S'962'
p688
sbasS'target_sub'
p689
S'62'
p690
sg92
(lp691
sS'is_component_arch'
p692
I01
sg94
S'6.0.0_r1'
p693
sba.