(lp0
(iArchitecture
Architecture
p1
(dp2
S'clusters'
p3
(lp4
(iArchitecture
Cluster
p5
(dp6
S'entities'
p7
(lp8
(iArchitecture
Entity
p9
(dp10
S'issue_ids'
p11
(lp12
sS'name'
p13
S'android.media.midi.MidiManager'
p14
sS'descs'
p15
(lp16
sS'labels'
p17
(lp18
sS'titles'
p19
(lp20
sS'change'
p21
I0
sba(iArchitecture
Entity
p22
(dp23
g11
(lp24
sg13
S'android.media.midi.MidiManager$1'
p25
sg15
(lp26
sg17
(lp27
sg19
(lp28
sg21
I0
sba(iArchitecture
Entity
p29
(dp30
g11
(lp31
sg13
S'android.media.midi.MidiManager$2'
p32
sg15
(lp33
sg17
(lp34
sg19
(lp35
sg21
I0
sba(iArchitecture
Entity
p36
(dp37
g11
(lp38
sg13
S'android.media.midi.MidiManager$3'
p39
sg15
(lp40
sg17
(lp41
sg19
(lp42
sg21
I0
sba(iArchitecture
Entity
p43
(dp44
g11
(lp45
sg13
S'android.media.midi.MidiManager$DeviceCallback'
p46
sg15
(lp47
sg17
(lp48
sg19
(lp49
sg21
I0
sba(iArchitecture
Entity
p50
(dp51
g11
(lp52
sg13
S'android.media.midi.MidiManager$DeviceListener'
p53
sg15
(lp54
sg17
(lp55
sg19
(lp56
sg21
I0
sba(iArchitecture
Entity
p57
(dp58
g11
(lp59
sg13
S'android.media.midi.MidiManager$DeviceListener$1'
p60
sg15
(lp61
sg17
(lp62
sg19
(lp63
sg21
I0
sba(iArchitecture
Entity
p64
(dp65
g11
(lp66
sg13
S'android.media.midi.MidiManager$DeviceListener$2'
p67
sg15
(lp68
sg17
(lp69
sg19
(lp70
sg21
I0
sba(iArchitecture
Entity
p71
(dp72
g11
(lp73
sg13
S'android.media.midi.MidiManager$DeviceListener$3'
p74
sg15
(lp75
sg17
(lp76
sg19
(lp77
sg21
I0
sba(iArchitecture
Entity
p78
(dp79
g11
(lp80
sg13
S'android.media.midi.MidiManager$OnDeviceOpenedListener'
p81
sg15
(lp82
sg17
(lp83
sg19
(lp84
sg21
I0
sbasS'classes'
p85
(lp86
g14
ag25
ag32
ag39
ag46
ag53
ag60
ag67
ag74
ag81
asg21
I0
sS'label'
p87
S'1066'
p88
sba(iArchitecture
Cluster
p89
(dp90
g7
(lp91
(iArchitecture
Entity
p92
(dp93
g11
(lp94
sg13
S'android.service.trust.TrustAgentService'
p95
sg15
(lp96
sg17
(lp97
sg19
(lp98
sg21
I0
sba(iArchitecture
Entity
p99
(dp100
g11
(lp101
sg13
S'android.service.trust.TrustAgentService$1'
p102
sg15
(lp103
sg17
(lp104
sg19
(lp105
sg21
I0
sba(iArchitecture
Entity
p106
(dp107
g11
(lp108
sg13
S'android.service.trust.TrustAgentService$2'
p109
sg15
(lp110
sg17
(lp111
sg19
(lp112
sg21
I0
sba(iArchitecture
Entity
p113
(dp114
g11
(lp115
sg13
S'android.service.trust.TrustAgentService$ConfigurationData'
p116
sg15
(lp117
sg17
(lp118
sg19
(lp119
sg21
I0
sba(iArchitecture
Entity
p120
(dp121
g11
(lp122
sg13
S'android.service.trust.TrustAgentService$TrustAgentServiceWrapper'
p123
sg15
(lp124
sg17
(lp125
sg19
(lp126
sg21
I0
sba(iArchitecture
Entity
p127
(dp128
g11
(lp129
sg13
S'com.android.server.trust.TrustAgentWrapper'
p130
sg15
(lp131
sg17
(lp132
sg19
(lp133
sg21
I0
sba(iArchitecture
Entity
p134
(dp135
g11
(lp136
sg13
S'com.android.server.trust.TrustAgentWrapper$1'
p137
sg15
(lp138
sg17
(lp139
sg19
(lp140
sg21
I0
sba(iArchitecture
Entity
p141
(dp142
g11
(lp143
sg13
S'com.android.server.trust.TrustAgentWrapper$2'
p144
sg15
(lp145
sg17
(lp146
sg19
(lp147
sg21
I0
sba(iArchitecture
Entity
p148
(dp149
g11
(lp150
sg13
S'com.android.server.trust.TrustAgentWrapper$3'
p151
sg15
(lp152
sg17
(lp153
sg19
(lp154
sg21
I0
sba(iArchitecture
Entity
p155
(dp156
g11
(lp157
sg13
S'com.android.server.trust.TrustAgentWrapper$4'
p158
sg15
(lp159
sg17
(lp160
sg19
(lp161
sg21
I0
sbasg85
(lp162
g95
ag102
ag109
ag116
ag123
ag130
ag137
ag144
ag151
ag158
asg21
I0
sg87
S'1166'
p163
sba(iArchitecture
Cluster
p164
(dp165
g7
(lp166
(iArchitecture
Entity
p167
(dp168
g11
(lp169
sg13
S'android.view.DisplayListCanvas'
p170
sg15
(lp171
sg17
(lp172
sg19
(lp173
sg21
I0
sbasg85
(lp174
g170
asg21
I0
sg87
S'166'
p175
sba(iArchitecture
Cluster
p176
(dp177
g7
(lp178
(iArchitecture
Entity
p179
(dp180
g11
(lp181
sg13
S'android.net.wimax.WimaxManagerConstants'
p182
sg15
(lp183
sg17
(lp184
sg19
(lp185
sg21
I0
sbasg85
(lp186
g182
asg21
I0
sg87
S'266'
p187
sba(iArchitecture
Cluster
p188
(dp189
g7
(lp190
(iArchitecture
Entity
p191
(dp192
g11
(lp193
sg13
S'android.media.CamcorderProfile'
p194
sg15
(lp195
sg17
(lp196
sg19
(lp197
sg21
I0
sbasg85
(lp198
g194
asg21
I0
sg87
S'366'
p199
sba(iArchitecture
Cluster
p200
(dp201
g7
(lp202
(iArchitecture
Entity
p203
(dp204
g11
(lp205
sg13
S'android.telephony.cdma.CdmaSmsCbProgramData'
p206
sg15
(lp207
sg17
(lp208
sg19
(lp209
sg21
I0
sba(iArchitecture
Entity
p210
(dp211
g11
(lp212
sg13
S'android.telephony.cdma.CdmaSmsCbProgramData$1'
p213
sg15
(lp214
sg17
(lp215
sg19
(lp216
sg21
I0
sbasg85
(lp217
g206
ag213
asg21
I0
sg87
S'466'
p218
sba(iArchitecture
Cluster
p219
(dp220
g7
(lp221
(iArchitecture
Entity
p222
(dp223
g11
(lp224
sg13
S'android.telephony.CellInfo'
p225
sg15
(lp226
sg17
(lp227
sg19
(lp228
sg21
I0
sba(iArchitecture
Entity
p229
(dp230
g11
(lp231
sg13
S'android.telephony.CellInfo$1'
p232
sg15
(lp233
sg17
(lp234
sg19
(lp235
sg21
I0
sbasg85
(lp236
g225
ag232
asg21
I0
sg87
S'566'
p237
sba(iArchitecture
Cluster
p238
(dp239
g7
(lp240
(iArchitecture
Entity
p241
(dp242
g11
(lp243
sg13
S'android.printservice.PrintJob'
p244
sg15
(lp245
sg17
(lp246
sg19
(lp247
sg21
I0
sbasg85
(lp248
g244
asg21
I0
sg87
S'66'
p249
sba(iArchitecture
Cluster
p250
(dp251
g7
(lp252
(iArchitecture
Entity
p253
(dp254
g11
(lp255
sg13
S'android.nfc.TransceiveResult'
p256
sg15
(lp257
sg17
(lp258
sg19
(lp259
sg21
I0
sba(iArchitecture
Entity
p260
(dp261
g11
(lp262
sg13
S'android.nfc.TransceiveResult$1'
p263
sg15
(lp264
sg17
(lp265
sg19
(lp266
sg21
I0
sbasg85
(lp267
g256
ag263
asg21
I0
sg87
S'660'
p268
sba(iArchitecture
Cluster
p269
(dp270
g7
(lp271
(iArchitecture
Entity
p272
(dp273
g11
(lp274
sg13
S'android.filterpacks.videoproc.BackDropperFilter'
p275
sg15
(lp276
sg17
(lp277
sg19
(lp278
sg21
I0
sba(iArchitecture
Entity
p279
(dp280
g11
(lp281
sg13
S'android.filterpacks.videoproc.BackDropperFilter$LearningDoneListener'
p282
sg15
(lp283
sg17
(lp284
sg19
(lp285
sg21
I0
sbasg85
(lp286
g275
ag282
asg21
I0
sg87
S'661'
p287
sba(iArchitecture
Cluster
p288
(dp289
g7
(lp290
(iArchitecture
Entity
p291
(dp292
g11
(lp293
sg13
S'com.android.server.hdmi.OneTouchRecordAction'
p294
sg15
(lp295
sg17
(lp296
sg19
(lp297
sg21
I0
sba(iArchitecture
Entity
p298
(dp299
g11
(lp300
sg13
S'com.android.server.hdmi.OneTouchRecordAction$1'
p301
sg15
(lp302
sg17
(lp303
sg19
(lp304
sg21
I0
sbasg85
(lp305
g294
ag301
asg21
I0
sg87
S'662'
p306
sba(iArchitecture
Cluster
p307
(dp308
g7
(lp309
(iArchitecture
Entity
p310
(dp311
g11
(lp312
sg13
S'android.hardware.camera2.legacy.CaptureCollector'
p313
sg15
(lp314
sg17
(lp315
sg19
(lp316
sg21
I0
sba(iArchitecture
Entity
p317
(dp318
g11
(lp319
sg13
S'android.hardware.camera2.legacy.CaptureCollector$CaptureHolder'
p320
sg15
(lp321
sg17
(lp322
sg19
(lp323
sg21
I0
sbasg85
(lp324
g313
ag320
asg21
I0
sg87
S'663'
p325
sba(iArchitecture
Cluster
p326
(dp327
g7
(lp328
(iArchitecture
Entity
p329
(dp330
g11
(lp331
sg13
S'android.media.Rating'
p332
sg15
(lp333
sg17
(lp334
sg19
(lp335
sg21
I0
sba(iArchitecture
Entity
p336
(dp337
g11
(lp338
sg13
S'android.media.Rating$1'
p339
sg15
(lp340
sg17
(lp341
sg19
(lp342
sg21
I0
sbasg85
(lp343
g332
ag339
asg21
I0
sg87
S'664'
p344
sba(iArchitecture
Cluster
p345
(dp346
g7
(lp347
(iArchitecture
Entity
p348
(dp349
g11
(lp350
sg13
S'com.android.server.hdmi.TimerRecordingAction'
p351
sg15
(lp352
sg17
(lp353
sg19
(lp354
sg21
I0
sba(iArchitecture
Entity
p355
(dp356
g11
(lp357
sg13
S'com.android.server.hdmi.TimerRecordingAction$1'
p358
sg15
(lp359
sg17
(lp360
sg19
(lp361
sg21
I0
sbasg85
(lp362
g351
ag358
asg21
I0
sg87
S'665'
p363
sba(iArchitecture
Cluster
p364
(dp365
g7
(lp366
(iArchitecture
Entity
p367
(dp368
g11
(lp369
sg13
S'android.text.style.SuggestionSpan'
p370
sg15
(lp371
sg17
(lp372
sg19
(lp373
sg21
I0
sba(iArchitecture
Entity
p374
(dp375
g11
(lp376
sg13
S'android.text.style.SuggestionSpan$1'
p377
sg15
(lp378
sg17
(lp379
sg19
(lp380
sg21
I0
sbasg85
(lp381
g370
ag377
asg21
I0
sg87
S'666'
p382
sba(iArchitecture
Cluster
p383
(dp384
g7
(lp385
(iArchitecture
Entity
p386
(dp387
g11
(lp388
sg13
S'android.os.UserHandle'
p389
sg15
(lp390
sg17
(lp391
sg19
(lp392
sg21
I0
sba(iArchitecture
Entity
p393
(dp394
g11
(lp395
sg13
S'android.os.UserHandle$1'
p396
sg15
(lp397
sg17
(lp398
sg19
(lp399
sg21
I0
sbasg85
(lp400
g389
ag396
asg21
I0
sg87
S'667'
p401
sba(iArchitecture
Cluster
p402
(dp403
g7
(lp404
(iArchitecture
Entity
p405
(dp406
g11
(lp407
sg13
S'android.ddm.DdmHandleViewDebug'
p408
sg15
(lp409
sg17
(lp410
sg19
(lp411
sg21
I0
sba(iArchitecture
Entity
p412
(dp413
g11
(lp414
sg13
S'android.ddm.DdmHandleViewDebug$1'
p415
sg15
(lp416
sg17
(lp417
sg19
(lp418
sg21
I0
sbasg85
(lp419
g408
ag415
asg21
I0
sg87
S'668'
p420
sba(iArchitecture
Cluster
p421
(dp422
g7
(lp423
(iArchitecture
Entity
p424
(dp425
g11
(lp426
sg13
S'android.graphics.NinePatch'
p427
sg15
(lp428
sg17
(lp429
sg19
(lp430
sg21
I0
sba(iArchitecture
Entity
p431
(dp432
g11
(lp433
sg13
S'android.graphics.NinePatch$InsetStruct'
p434
sg15
(lp435
sg17
(lp436
sg19
(lp437
sg21
I0
sbasg85
(lp438
g427
ag434
asg21
I0
sg87
S'669'
p439
sba(iArchitecture
Cluster
p440
(dp441
g7
(lp442
(iArchitecture
Entity
p443
(dp444
g11
(lp445
sg13
S'android.print.PrintDocumentInfo'
p446
sg15
(lp447
sg17
(lp448
sg19
(lp449
sg21
I0
sba(iArchitecture
Entity
p450
(dp451
g11
(lp452
sg13
S'android.print.PrintDocumentInfo$1'
p453
sg15
(lp454
sg17
(lp455
sg19
(lp456
sg21
I0
sba(iArchitecture
Entity
p457
(dp458
g11
(lp459
sg13
S'android.print.PrintDocumentInfo$Builder'
p460
sg15
(lp461
sg17
(lp462
sg19
(lp463
sg21
I0
sbasg85
(lp464
g446
ag453
ag460
asg21
I0
sg87
S'766'
p465
sba(iArchitecture
Cluster
p466
(dp467
g7
(lp468
(iArchitecture
Entity
p469
(dp470
g11
(lp471
sg13
S'android.media.DecoderCapabilities'
p472
sg15
(lp473
sg17
(lp474
sg19
(lp475
sg21
I0
sba(iArchitecture
Entity
p476
(dp477
g11
(lp478
sg13
S'android.media.DecoderCapabilities$AudioDecoder'
p479
sg15
(lp480
sg17
(lp481
sg19
(lp482
sg21
I0
sba(iArchitecture
Entity
p483
(dp484
g11
(lp485
sg13
S'android.media.DecoderCapabilities$VideoDecoder'
p486
sg15
(lp487
sg17
(lp488
sg19
(lp489
sg21
I0
sbasg85
(lp490
g472
ag479
ag486
asg21
I0
sg87
S'866'
p491
sba(iArchitecture
Cluster
p492
(dp493
g7
(lp494
(iArchitecture
Entity
p495
(dp496
g11
(lp497
sg13
S'com.android.internal.util.AsyncChannel'
p498
sg15
(lp499
sg17
(lp500
sg19
(lp501
sg21
I0
sba(iArchitecture
Entity
p502
(dp503
g11
(lp504
sg13
S'com.android.internal.util.AsyncChannel$1ConnectAsync'
p505
sg15
(lp506
sg17
(lp507
sg19
(lp508
sg21
I0
sba(iArchitecture
Entity
p509
(dp510
g11
(lp511
sg13
S'com.android.internal.util.AsyncChannel$AsyncChannelConnection'
p512
sg15
(lp513
sg17
(lp514
sg19
(lp515
sg21
I0
sba(iArchitecture
Entity
p516
(dp517
g11
(lp518
sg13
S'com.android.internal.util.AsyncChannel$DeathMonitor'
p519
sg15
(lp520
sg17
(lp521
sg19
(lp522
sg21
I0
sba(iArchitecture
Entity
p523
(dp524
g11
(lp525
sg13
S'com.android.internal.util.AsyncChannel$SyncMessenger'
p526
sg15
(lp527
sg17
(lp528
sg19
(lp529
sg21
I0
sba(iArchitecture
Entity
p530
(dp531
g11
(lp532
sg13
S'com.android.internal.util.AsyncChannel$SyncMessenger$SyncHandler'
p533
sg15
(lp534
sg17
(lp535
sg19
(lp536
sg21
I0
sbasg85
(lp537
g498
ag505
ag512
ag519
ag526
ag533
asg21
I0
sg87
S'966'
p538
sbasS'target_sub'
p539
S'66'
p540
sg85
(lp541
sS'is_component_arch'
p542
I01
sg87
S'6.0.0_r1'
p543
sba.