(lp0
(iArchitecture
Architecture
p1
(dp2
S'clusters'
p3
(lp4
(iArchitecture
Cluster
p5
(dp6
S'entities'
p7
(lp8
(iArchitecture
Entity
p9
(dp10
S'issue_ids'
p11
(lp12
sS'name'
p13
S'com.android.server.usage.AppIdleHistory'
p14
sS'descs'
p15
(lp16
sS'labels'
p17
(lp18
sS'titles'
p19
(lp20
sS'change'
p21
I0
sbasS'classes'
p22
(lp23
g14
asg21
I0
sS'label'
p24
S'103'
p25
sba(iArchitecture
Cluster
p26
(dp27
g7
(lp28
(iArchitecture
Entity
p29
(dp30
g11
(lp31
sg13
S'android.app.ActionBar'
p32
sg15
(lp33
sg17
(lp34
sg19
(lp35
sg21
I0
sba(iArchitecture
Entity
p36
(dp37
g11
(lp38
sg13
S'android.app.ActionBar$LayoutParams'
p39
sg15
(lp40
sg17
(lp41
sg19
(lp42
sg21
I0
sba(iArchitecture
Entity
p43
(dp44
g11
(lp45
sg13
S'android.app.ActionBar$OnMenuVisibilityListener'
p46
sg15
(lp47
sg17
(lp48
sg19
(lp49
sg21
I0
sba(iArchitecture
Entity
p50
(dp51
g11
(lp52
sg13
S'android.app.ActionBar$OnNavigationListener'
p53
sg15
(lp54
sg17
(lp55
sg19
(lp56
sg21
I0
sba(iArchitecture
Entity
p57
(dp58
g11
(lp59
sg13
S'android.app.ActionBar$Tab'
p60
sg15
(lp61
sg17
(lp62
sg19
(lp63
sg21
I0
sba(iArchitecture
Entity
p64
(dp65
g11
(lp66
sg13
S'android.app.ActionBar$TabListener'
p67
sg15
(lp68
sg17
(lp69
sg19
(lp70
sg21
I0
sbasg22
(lp71
g32
ag39
ag46
ag53
ag60
ag67
asg21
I0
sg24
S'1030'
p72
sba(iArchitecture
Cluster
p73
(dp74
g7
(lp75
(iArchitecture
Entity
p76
(dp77
g11
(lp78
sg13
S'com.android.internal.util.StateMachine'
p79
sg15
(lp80
sg17
(lp81
sg19
(lp82
sg21
I0
sba(iArchitecture
Entity
p83
(dp84
g11
(lp85
sg13
S'com.android.internal.util.StateMachine$LogRec'
p86
sg15
(lp87
sg17
(lp88
sg19
(lp89
sg21
I0
sba(iArchitecture
Entity
p90
(dp91
g11
(lp92
sg13
S'com.android.internal.util.StateMachine$LogRecords'
p93
sg15
(lp94
sg17
(lp95
sg19
(lp96
sg21
I0
sba(iArchitecture
Entity
p97
(dp98
g11
(lp99
sg13
S'com.android.internal.util.StateMachine$SmHandler'
p100
sg15
(lp101
sg17
(lp102
sg19
(lp103
sg21
I0
sba(iArchitecture
Entity
p104
(dp105
g11
(lp106
sg13
S'com.android.internal.util.StateMachine$SmHandler$HaltingState'
p107
sg15
(lp108
sg17
(lp109
sg19
(lp110
sg21
I0
sba(iArchitecture
Entity
p111
(dp112
g11
(lp113
sg13
S'com.android.internal.util.StateMachine$SmHandler$QuittingState'
p114
sg15
(lp115
sg17
(lp116
sg19
(lp117
sg21
I0
sba(iArchitecture
Entity
p118
(dp119
g11
(lp120
sg13
S'com.android.internal.util.StateMachine$SmHandler$StateInfo'
p121
sg15
(lp122
sg17
(lp123
sg19
(lp124
sg21
I0
sbasg22
(lp125
g79
ag86
ag93
ag100
ag107
ag114
ag121
asg21
I0
sg24
S'1031'
p126
sba(iArchitecture
Cluster
p127
(dp128
g7
(lp129
(iArchitecture
Entity
p130
(dp131
g11
(lp132
sg13
S'android.app.AppOpsManager'
p133
sg15
(lp134
sg17
(lp135
sg19
(lp136
sg21
I0
sba(iArchitecture
Entity
p137
(dp138
g11
(lp139
sg13
S'android.app.AppOpsManager$1'
p140
sg15
(lp141
sg17
(lp142
sg19
(lp143
sg21
I0
sba(iArchitecture
Entity
p144
(dp145
g11
(lp146
sg13
S'android.app.AppOpsManager$OnOpChangedInternalListener'
p147
sg15
(lp148
sg17
(lp149
sg19
(lp150
sg21
I0
sba(iArchitecture
Entity
p151
(dp152
g11
(lp153
sg13
S'android.app.AppOpsManager$OnOpChangedListener'
p154
sg15
(lp155
sg17
(lp156
sg19
(lp157
sg21
I0
sba(iArchitecture
Entity
p158
(dp159
g11
(lp160
sg13
S'android.app.AppOpsManager$OpEntry'
p161
sg15
(lp162
sg17
(lp163
sg19
(lp164
sg21
I0
sba(iArchitecture
Entity
p165
(dp166
g11
(lp167
sg13
S'android.app.AppOpsManager$OpEntry$1'
p168
sg15
(lp169
sg17
(lp170
sg19
(lp171
sg21
I0
sba(iArchitecture
Entity
p172
(dp173
g11
(lp174
sg13
S'android.app.AppOpsManager$PackageOps'
p175
sg15
(lp176
sg17
(lp177
sg19
(lp178
sg21
I0
sba(iArchitecture
Entity
p179
(dp180
g11
(lp181
sg13
S'android.app.AppOpsManager$PackageOps$1'
p182
sg15
(lp183
sg17
(lp184
sg19
(lp185
sg21
I0
sbasg22
(lp186
g133
ag140
ag147
ag154
ag161
ag168
ag175
ag182
asg21
I0
sg24
S'1032'
p187
sba(iArchitecture
Cluster
p188
(dp189
g7
(lp190
(iArchitecture
Entity
p191
(dp192
g11
(lp193
sg13
S'com.android.server.telecom.TelecomLoaderService'
p194
sg15
(lp195
sg17
(lp196
sg19
(lp197
sg21
I0
sba(iArchitecture
Entity
p198
(dp199
g11
(lp200
sg13
S'com.android.server.telecom.TelecomLoaderService$1'
p201
sg15
(lp202
sg17
(lp203
sg19
(lp204
sg21
I0
sba(iArchitecture
Entity
p205
(dp206
g11
(lp207
sg13
S'com.android.server.telecom.TelecomLoaderService$2'
p208
sg15
(lp209
sg17
(lp210
sg19
(lp211
sg21
I0
sba(iArchitecture
Entity
p212
(dp213
g11
(lp214
sg13
S'com.android.server.telecom.TelecomLoaderService$3'
p215
sg15
(lp216
sg17
(lp217
sg19
(lp218
sg21
I0
sba(iArchitecture
Entity
p219
(dp220
g11
(lp221
sg13
S'com.android.server.telecom.TelecomLoaderService$4'
p222
sg15
(lp223
sg17
(lp224
sg19
(lp225
sg21
I0
sba(iArchitecture
Entity
p226
(dp227
g11
(lp228
sg13
S'com.android.server.telecom.TelecomLoaderService$5'
p229
sg15
(lp230
sg17
(lp231
sg19
(lp232
sg21
I0
sba(iArchitecture
Entity
p233
(dp234
g11
(lp235
sg13
S'com.android.server.telecom.TelecomLoaderService$TelecomServiceConnection'
p236
sg15
(lp237
sg17
(lp238
sg19
(lp239
sg21
I0
sba(iArchitecture
Entity
p240
(dp241
g11
(lp242
sg13
S'com.android.server.telecom.TelecomLoaderService$TelecomServiceConnection$1'
p243
sg15
(lp244
sg17
(lp245
sg19
(lp246
sg21
I0
sbasg22
(lp247
g194
ag201
ag208
ag215
ag222
ag229
ag236
ag243
asg21
I0
sg24
S'1033'
p248
sba(iArchitecture
Cluster
p249
(dp250
g7
(lp251
(iArchitecture
Entity
p252
(dp253
g11
(lp254
sg13
S'com.android.internal.widget.ActionBarOverlayLayout'
p255
sg15
(lp256
sg17
(lp257
sg19
(lp258
sg21
I0
sba(iArchitecture
Entity
p259
(dp260
g11
(lp261
sg13
S'com.android.internal.widget.ActionBarOverlayLayout$1'
p262
sg15
(lp263
sg17
(lp264
sg19
(lp265
sg21
I0
sba(iArchitecture
Entity
p266
(dp267
g11
(lp268
sg13
S'com.android.internal.widget.ActionBarOverlayLayout$2'
p269
sg15
(lp270
sg17
(lp271
sg19
(lp272
sg21
I0
sba(iArchitecture
Entity
p273
(dp274
g11
(lp275
sg13
S'com.android.internal.widget.ActionBarOverlayLayout$3'
p276
sg15
(lp277
sg17
(lp278
sg19
(lp279
sg21
I0
sba(iArchitecture
Entity
p280
(dp281
g11
(lp282
sg13
S'com.android.internal.widget.ActionBarOverlayLayout$4'
p283
sg15
(lp284
sg17
(lp285
sg19
(lp286
sg21
I0
sba(iArchitecture
Entity
p287
(dp288
g11
(lp289
sg13
S'com.android.internal.widget.ActionBarOverlayLayout$5'
p290
sg15
(lp291
sg17
(lp292
sg19
(lp293
sg21
I0
sba(iArchitecture
Entity
p294
(dp295
g11
(lp296
sg13
S'com.android.internal.widget.ActionBarOverlayLayout$ActionBarVisibilityCallback'
p297
sg15
(lp298
sg17
(lp299
sg19
(lp300
sg21
I0
sba(iArchitecture
Entity
p301
(dp302
g11
(lp303
sg13
S'com.android.internal.widget.ActionBarOverlayLayout$LayoutParams'
p304
sg15
(lp305
sg17
(lp306
sg19
(lp307
sg21
I0
sbasg22
(lp308
g255
ag262
ag269
ag276
ag283
ag290
ag297
ag304
asg21
I0
sg24
S'1034'
p309
sba(iArchitecture
Cluster
p310
(dp311
g7
(lp312
(iArchitecture
Entity
p313
(dp314
g11
(lp315
sg13
S'android.security.keystore.KeyProperties'
p316
sg15
(lp317
sg17
(lp318
sg19
(lp319
sg21
I0
sba(iArchitecture
Entity
p320
(dp321
g11
(lp322
sg13
S'android.security.keystore.KeyProperties$BlockMode'
p323
sg15
(lp324
sg17
(lp325
sg19
(lp326
sg21
I0
sba(iArchitecture
Entity
p327
(dp328
g11
(lp329
sg13
S'android.security.keystore.KeyProperties$Digest'
p330
sg15
(lp331
sg17
(lp332
sg19
(lp333
sg21
I0
sba(iArchitecture
Entity
p334
(dp335
g11
(lp336
sg13
S'android.security.keystore.KeyProperties$EncryptionPadding'
p337
sg15
(lp338
sg17
(lp339
sg19
(lp340
sg21
I0
sba(iArchitecture
Entity
p341
(dp342
g11
(lp343
sg13
S'android.security.keystore.KeyProperties$KeyAlgorithm'
p344
sg15
(lp345
sg17
(lp346
sg19
(lp347
sg21
I0
sba(iArchitecture
Entity
p348
(dp349
g11
(lp350
sg13
S'android.security.keystore.KeyProperties$Origin'
p351
sg15
(lp352
sg17
(lp353
sg19
(lp354
sg21
I0
sba(iArchitecture
Entity
p355
(dp356
g11
(lp357
sg13
S'android.security.keystore.KeyProperties$Purpose'
p358
sg15
(lp359
sg17
(lp360
sg19
(lp361
sg21
I0
sba(iArchitecture
Entity
p362
(dp363
g11
(lp364
sg13
S'android.security.keystore.KeyProperties$SignaturePadding'
p365
sg15
(lp366
sg17
(lp367
sg19
(lp368
sg21
I0
sbasg22
(lp369
g316
ag323
ag330
ag337
ag344
ag351
ag358
ag365
asg21
I0
sg24
S'1035'
p370
sba(iArchitecture
Cluster
p371
(dp372
g7
(lp373
(iArchitecture
Entity
p374
(dp375
g11
(lp376
sg13
S'android.widget.ProgressBar'
p377
sg15
(lp378
sg17
(lp379
sg19
(lp380
sg21
I0
sba(iArchitecture
Entity
p381
(dp382
g11
(lp383
sg13
S'android.widget.ProgressBar$AccessibilityEventSender'
p384
sg15
(lp385
sg17
(lp386
sg19
(lp387
sg21
I0
sba(iArchitecture
Entity
p388
(dp389
g11
(lp390
sg13
S'android.widget.ProgressBar$ProgressTintInfo'
p391
sg15
(lp392
sg17
(lp393
sg19
(lp394
sg21
I0
sba(iArchitecture
Entity
p395
(dp396
g11
(lp397
sg13
S'android.widget.ProgressBar$RefreshData'
p398
sg15
(lp399
sg17
(lp400
sg19
(lp401
sg21
I0
sba(iArchitecture
Entity
p402
(dp403
g11
(lp404
sg13
S'android.widget.ProgressBar$RefreshProgressRunnable'
p405
sg15
(lp406
sg17
(lp407
sg19
(lp408
sg21
I0
sba(iArchitecture
Entity
p409
(dp410
g11
(lp411
sg13
S'android.widget.ProgressBar$SavedState'
p412
sg15
(lp413
sg17
(lp414
sg19
(lp415
sg21
I0
sba(iArchitecture
Entity
p416
(dp417
g11
(lp418
sg13
S'android.widget.ProgressBar$SavedState$1'
p419
sg15
(lp420
sg17
(lp421
sg19
(lp422
sg21
I0
sbasg22
(lp423
g377
ag384
ag391
ag398
ag405
ag412
ag419
asg21
I0
sg24
S'1036'
p424
sba(iArchitecture
Cluster
p425
(dp426
g7
(lp427
(iArchitecture
Entity
p428
(dp429
g11
(lp430
sg13
S'com.android.server.media.RemoteDisplayProviderProxy'
p431
sg15
(lp432
sg17
(lp433
sg19
(lp434
sg21
I0
sba(iArchitecture
Entity
p435
(dp436
g11
(lp437
sg13
S'com.android.server.media.RemoteDisplayProviderProxy$1'
p438
sg15
(lp439
sg17
(lp440
sg19
(lp441
sg21
I0
sba(iArchitecture
Entity
p442
(dp443
g11
(lp444
sg13
S'com.android.server.media.RemoteDisplayProviderProxy$Callback'
p445
sg15
(lp446
sg17
(lp447
sg19
(lp448
sg21
I0
sba(iArchitecture
Entity
p449
(dp450
g11
(lp451
sg13
S'com.android.server.media.RemoteDisplayProviderProxy$Connection'
p452
sg15
(lp453
sg17
(lp454
sg19
(lp455
sg21
I0
sba(iArchitecture
Entity
p456
(dp457
g11
(lp458
sg13
S'com.android.server.media.RemoteDisplayProviderProxy$Connection$1'
p459
sg15
(lp460
sg17
(lp461
sg19
(lp462
sg21
I0
sba(iArchitecture
Entity
p463
(dp464
g11
(lp465
sg13
S'com.android.server.media.RemoteDisplayProviderProxy$Connection$2'
p466
sg15
(lp467
sg17
(lp468
sg19
(lp469
sg21
I0
sba(iArchitecture
Entity
p470
(dp471
g11
(lp472
sg13
S'com.android.server.media.RemoteDisplayProviderProxy$Connection$3'
p473
sg15
(lp474
sg17
(lp475
sg19
(lp476
sg21
I0
sba(iArchitecture
Entity
p477
(dp478
g11
(lp479
sg13
S'com.android.server.media.RemoteDisplayProviderProxy$ProviderCallback'
p480
sg15
(lp481
sg17
(lp482
sg19
(lp483
sg21
I0
sbasg22
(lp484
g431
ag438
ag445
ag452
ag459
ag466
ag473
ag480
asg21
I0
sg24
S'1037'
p485
sba(iArchitecture
Cluster
p486
(dp487
g7
(lp488
(iArchitecture
Entity
p489
(dp490
g11
(lp491
sg13
S'android.renderscript.Script'
p492
sg15
(lp493
sg17
(lp494
sg19
(lp495
sg21
I0
sba(iArchitecture
Entity
p496
(dp497
g11
(lp498
sg13
S'android.renderscript.Script$Builder'
p499
sg15
(lp500
sg17
(lp501
sg19
(lp502
sg21
I0
sba(iArchitecture
Entity
p503
(dp504
g11
(lp505
sg13
S'android.renderscript.Script$FieldBase'
p506
sg15
(lp507
sg17
(lp508
sg19
(lp509
sg21
I0
sba(iArchitecture
Entity
p510
(dp511
g11
(lp512
sg13
S'android.renderscript.Script$FieldID'
p513
sg15
(lp514
sg17
(lp515
sg19
(lp516
sg21
I0
sba(iArchitecture
Entity
p517
(dp518
g11
(lp519
sg13
S'android.renderscript.Script$InvokeID'
p520
sg15
(lp521
sg17
(lp522
sg19
(lp523
sg21
I0
sba(iArchitecture
Entity
p524
(dp525
g11
(lp526
sg13
S'android.renderscript.Script$KernelID'
p527
sg15
(lp528
sg17
(lp529
sg19
(lp530
sg21
I0
sba(iArchitecture
Entity
p531
(dp532
g11
(lp533
sg13
S'android.renderscript.Script$LaunchOptions'
p534
sg15
(lp535
sg17
(lp536
sg19
(lp537
sg21
I0
sbasg22
(lp538
g492
ag499
ag506
ag513
ag520
ag527
ag534
asg21
I0
sg24
S'1038'
p539
sba(iArchitecture
Cluster
p540
(dp541
g7
(lp542
(iArchitecture
Entity
p543
(dp544
g11
(lp545
sg13
S'android.widget.ExpandableListView'
p546
sg15
(lp547
sg17
(lp548
sg19
(lp549
sg21
I0
sba(iArchitecture
Entity
p550
(dp551
g11
(lp552
sg13
S'android.widget.ExpandableListView$ExpandableListContextMenuInfo'
p553
sg15
(lp554
sg17
(lp555
sg19
(lp556
sg21
I0
sba(iArchitecture
Entity
p557
(dp558
g11
(lp559
sg13
S'android.widget.ExpandableListView$OnChildClickListener'
p560
sg15
(lp561
sg17
(lp562
sg19
(lp563
sg21
I0
sba(iArchitecture
Entity
p564
(dp565
g11
(lp566
sg13
S'android.widget.ExpandableListView$OnGroupClickListener'
p567
sg15
(lp568
sg17
(lp569
sg19
(lp570
sg21
I0
sba(iArchitecture
Entity
p571
(dp572
g11
(lp573
sg13
S'android.widget.ExpandableListView$OnGroupCollapseListener'
p574
sg15
(lp575
sg17
(lp576
sg19
(lp577
sg21
I0
sba(iArchitecture
Entity
p578
(dp579
g11
(lp580
sg13
S'android.widget.ExpandableListView$OnGroupExpandListener'
p581
sg15
(lp582
sg17
(lp583
sg19
(lp584
sg21
I0
sba(iArchitecture
Entity
p585
(dp586
g11
(lp587
sg13
S'android.widget.ExpandableListView$SavedState'
p588
sg15
(lp589
sg17
(lp590
sg19
(lp591
sg21
I0
sba(iArchitecture
Entity
p592
(dp593
g11
(lp594
sg13
S'android.widget.ExpandableListView$SavedState$1'
p595
sg15
(lp596
sg17
(lp597
sg19
(lp598
sg21
I0
sbasg22
(lp599
g546
ag553
ag560
ag567
ag574
ag581
ag588
ag595
asg21
I0
sg24
S'1039'
p600
sba(iArchitecture
Cluster
p601
(dp602
g7
(lp603
(iArchitecture
Entity
p604
(dp605
g11
(lp606
sg13
S'android.telecom.AudioState'
p607
sg15
(lp608
sg17
(lp609
sg19
(lp610
sg21
I0
sba(iArchitecture
Entity
p611
(dp612
g11
(lp613
sg13
S'android.telecom.AudioState$1'
p614
sg15
(lp615
sg17
(lp616
sg19
(lp617
sg21
I0
sba(iArchitecture
Entity
p618
(dp619
g11
(lp620
sg13
S'android.telecom.CallAudioState'
p621
sg15
(lp622
sg17
(lp623
sg19
(lp624
sg21
I0
sba(iArchitecture
Entity
p625
(dp626
g11
(lp627
sg13
S'android.telecom.CallAudioState$1'
p628
sg15
(lp629
sg17
(lp630
sg19
(lp631
sg21
I0
sbasg22
(lp632
g607
ag614
ag621
ag628
asg21
I0
sg24
S'1103'
p633
sbasS'target_sub'
p634
S'103'
p635
sg22
(lp636
sS'is_component_arch'
p637
I01
sg24
S'6.0.0_r1'
p638
sba.