(lp0
(iArchitecture
Architecture
p1
(dp2
S'clusters'
p3
(lp4
(iArchitecture
Cluster
p5
(dp6
S'entities'
p7
(lp8
(iArchitecture
Entity
p9
(dp10
S'issue_ids'
p11
(lp12
sS'name'
p13
S'android.nfc.cardemulation.HostApduService'
p14
sS'descs'
p15
(lp16
sS'labels'
p17
(lp18
sS'titles'
p19
(lp20
sS'change'
p21
I0
sba(iArchitecture
Entity
p22
(dp23
g11
(lp24
sg13
S'android.nfc.cardemulation.HostApduService$MsgHandler'
p25
sg15
(lp26
sg17
(lp27
sg19
(lp28
sg21
I0
sba(iArchitecture
Entity
p29
(dp30
g11
(lp31
sg13
S'android.nfc.cardemulation.OffHostApduService'
p32
sg15
(lp33
sg17
(lp34
sg19
(lp35
sg21
I0
sbasS'classes'
p36
(lp37
g14
ag25
ag32
asg21
I0
sS'label'
p38
S'1112'
p39
sba(iArchitecture
Cluster
p40
(dp41
g7
(lp42
(iArchitecture
Entity
p43
(dp44
g11
(lp45
sg13
S'android.transition.VisibilityPropagation'
p46
sg15
(lp47
sg17
(lp48
sg19
(lp49
sg21
I0
sbasg36
(lp50
g46
asg21
I0
sg38
S'112'
p51
sba(iArchitecture
Cluster
p52
(dp53
g7
(lp54
(iArchitecture
Entity
p55
(dp56
g11
(lp57
sg13
S'android.view.accessibility.AccessibilityCache'
p58
sg15
(lp59
sg17
(lp60
sg19
(lp61
sg21
I0
sba(iArchitecture
Entity
p62
(dp63
g11
(lp64
sg13
S'android.view.accessibility.AccessibilityInteractionClient'
p65
sg15
(lp66
sg17
(lp67
sg19
(lp68
sg21
I0
sbasg36
(lp69
g58
ag65
asg21
I0
sg38
S'1120'
p70
sba(iArchitecture
Cluster
p71
(dp72
g7
(lp73
(iArchitecture
Entity
p74
(dp75
g11
(lp76
sg13
S'android.media.browse.MediaBrowser'
p77
sg15
(lp78
sg17
(lp79
sg19
(lp80
sg21
I0
sba(iArchitecture
Entity
p81
(dp82
g11
(lp83
sg13
S'android.media.browse.MediaBrowser$1'
p84
sg15
(lp85
sg17
(lp86
sg19
(lp87
sg21
I0
sba(iArchitecture
Entity
p88
(dp89
g11
(lp90
sg13
S'android.media.browse.MediaBrowser$2'
p91
sg15
(lp92
sg17
(lp93
sg19
(lp94
sg21
I0
sba(iArchitecture
Entity
p95
(dp96
g11
(lp97
sg13
S'android.media.browse.MediaBrowser$3'
p98
sg15
(lp99
sg17
(lp100
sg19
(lp101
sg21
I0
sba(iArchitecture
Entity
p102
(dp103
g11
(lp104
sg13
S'android.media.browse.MediaBrowser$4'
p105
sg15
(lp106
sg17
(lp107
sg19
(lp108
sg21
I0
sba(iArchitecture
Entity
p109
(dp110
g11
(lp111
sg13
S'android.media.browse.MediaBrowser$5'
p112
sg15
(lp113
sg17
(lp114
sg19
(lp115
sg21
I0
sba(iArchitecture
Entity
p116
(dp117
g11
(lp118
sg13
S'android.media.browse.MediaBrowser$6'
p119
sg15
(lp120
sg17
(lp121
sg19
(lp122
sg21
I0
sba(iArchitecture
Entity
p123
(dp124
g11
(lp125
sg13
S'android.media.browse.MediaBrowser$7'
p126
sg15
(lp127
sg17
(lp128
sg19
(lp129
sg21
I0
sba(iArchitecture
Entity
p130
(dp131
g11
(lp132
sg13
S'android.media.browse.MediaBrowser$ConnectionCallback'
p133
sg15
(lp134
sg17
(lp135
sg19
(lp136
sg21
I0
sba(iArchitecture
Entity
p137
(dp138
g11
(lp139
sg13
S'android.media.browse.MediaBrowser$ItemCallback'
p140
sg15
(lp141
sg17
(lp142
sg19
(lp143
sg21
I0
sba(iArchitecture
Entity
p144
(dp145
g11
(lp146
sg13
S'android.media.browse.MediaBrowser$MediaItem'
p147
sg15
(lp148
sg17
(lp149
sg19
(lp150
sg21
I0
sba(iArchitecture
Entity
p151
(dp152
g11
(lp153
sg13
S'android.media.browse.MediaBrowser$MediaItem$1'
p154
sg15
(lp155
sg17
(lp156
sg19
(lp157
sg21
I0
sba(iArchitecture
Entity
p158
(dp159
g11
(lp160
sg13
S'android.media.browse.MediaBrowser$MediaServiceConnection'
p161
sg15
(lp162
sg17
(lp163
sg19
(lp164
sg21
I0
sba(iArchitecture
Entity
p165
(dp166
g11
(lp167
sg13
S'android.media.browse.MediaBrowser$ServiceCallbacks'
p168
sg15
(lp169
sg17
(lp170
sg19
(lp171
sg21
I0
sba(iArchitecture
Entity
p172
(dp173
g11
(lp174
sg13
S'android.media.browse.MediaBrowser$Subscription'
p175
sg15
(lp176
sg17
(lp177
sg19
(lp178
sg21
I0
sba(iArchitecture
Entity
p179
(dp180
g11
(lp181
sg13
S'android.media.browse.MediaBrowser$SubscriptionCallback'
p182
sg15
(lp183
sg17
(lp184
sg19
(lp185
sg21
I0
sba(iArchitecture
Entity
p186
(dp187
g11
(lp188
sg13
S'android.service.media.MediaBrowserService'
p189
sg15
(lp190
sg17
(lp191
sg19
(lp192
sg21
I0
sba(iArchitecture
Entity
p193
(dp194
g11
(lp195
sg13
S'android.service.media.MediaBrowserService$1'
p196
sg15
(lp197
sg17
(lp198
sg19
(lp199
sg21
I0
sba(iArchitecture
Entity
p200
(dp201
g11
(lp202
sg13
S'android.service.media.MediaBrowserService$2'
p203
sg15
(lp204
sg17
(lp205
sg19
(lp206
sg21
I0
sba(iArchitecture
Entity
p207
(dp208
g11
(lp209
sg13
S'android.service.media.MediaBrowserService$3'
p210
sg15
(lp211
sg17
(lp212
sg19
(lp213
sg21
I0
sba(iArchitecture
Entity
p214
(dp215
g11
(lp216
sg13
S'android.service.media.MediaBrowserService$4'
p217
sg15
(lp218
sg17
(lp219
sg19
(lp220
sg21
I0
sba(iArchitecture
Entity
p221
(dp222
g11
(lp223
sg13
S'android.service.media.MediaBrowserService$BrowserRoot'
p224
sg15
(lp225
sg17
(lp226
sg19
(lp227
sg21
I0
sba(iArchitecture
Entity
p228
(dp229
g11
(lp230
sg13
S'android.service.media.MediaBrowserService$ConnectionRecord'
p231
sg15
(lp232
sg17
(lp233
sg19
(lp234
sg21
I0
sba(iArchitecture
Entity
p235
(dp236
g11
(lp237
sg13
S'android.service.media.MediaBrowserService$Result'
p238
sg15
(lp239
sg17
(lp240
sg19
(lp241
sg21
I0
sba(iArchitecture
Entity
p242
(dp243
g11
(lp244
sg13
S'android.service.media.MediaBrowserService$ServiceBinder'
p245
sg15
(lp246
sg17
(lp247
sg19
(lp248
sg21
I0
sba(iArchitecture
Entity
p249
(dp250
g11
(lp251
sg13
S'android.service.media.MediaBrowserService$ServiceBinder$1'
p252
sg15
(lp253
sg17
(lp254
sg19
(lp255
sg21
I0
sba(iArchitecture
Entity
p256
(dp257
g11
(lp258
sg13
S'android.service.media.MediaBrowserService$ServiceBinder$2'
p259
sg15
(lp260
sg17
(lp261
sg19
(lp262
sg21
I0
sba(iArchitecture
Entity
p263
(dp264
g11
(lp265
sg13
S'android.service.media.MediaBrowserService$ServiceBinder$3'
p266
sg15
(lp267
sg17
(lp268
sg19
(lp269
sg21
I0
sba(iArchitecture
Entity
p270
(dp271
g11
(lp272
sg13
S'android.service.media.MediaBrowserService$ServiceBinder$4'
p273
sg15
(lp274
sg17
(lp275
sg19
(lp276
sg21
I0
sba(iArchitecture
Entity
p277
(dp278
g11
(lp279
sg13
S'android.service.media.MediaBrowserService$ServiceBinder$5'
p280
sg15
(lp281
sg17
(lp282
sg19
(lp283
sg21
I0
sbasg36
(lp284
g77
ag84
ag91
ag98
ag105
ag112
ag119
ag126
ag133
ag140
ag147
ag154
ag161
ag168
ag175
ag182
ag189
ag196
ag203
ag210
ag217
ag224
ag231
ag238
ag245
ag252
ag259
ag266
ag273
ag280
asg21
I0
sg38
S'1121'
p285
sba(iArchitecture
Cluster
p286
(dp287
g7
(lp288
(iArchitecture
Entity
p289
(dp290
g11
(lp291
sg13
S'com.android.server.input.InputWindowHandle'
p292
sg15
(lp293
sg17
(lp294
sg19
(lp295
sg21
I0
sba(iArchitecture
Entity
p296
(dp297
g11
(lp298
sg13
S'com.android.server.wm.InputConsumerImpl'
p299
sg15
(lp300
sg17
(lp301
sg19
(lp302
sg21
I0
sbasg36
(lp303
g292
ag299
asg21
I0
sg38
S'1122'
p304
sba(iArchitecture
Cluster
p305
(dp306
g7
(lp307
(iArchitecture
Entity
p308
(dp309
g11
(lp310
sg13
S'android.provider.SyncConstValue'
p311
sg15
(lp312
sg17
(lp313
sg19
(lp314
sg21
I0
sba(iArchitecture
Entity
p315
(dp316
g11
(lp317
sg13
S'android.webkit.WebSyncManager'
p318
sg15
(lp319
sg17
(lp320
sg19
(lp321
sg21
I0
sbasg36
(lp322
g311
ag318
asg21
I0
sg38
S'1123'
p323
sba(iArchitecture
Cluster
p324
(dp325
g7
(lp326
(iArchitecture
Entity
p327
(dp328
g11
(lp329
sg13
S'android.animation.ArgbEvaluator'
p330
sg15
(lp331
sg17
(lp332
sg19
(lp333
sg21
I0
sba(iArchitecture
Entity
p334
(dp335
g11
(lp336
sg13
S'android.animation.PointFEvaluator'
p337
sg15
(lp338
sg17
(lp339
sg19
(lp340
sg21
I0
sbasg36
(lp341
g330
ag337
asg21
I0
sg38
S'1124'
p342
sba(iArchitecture
Cluster
p343
(dp344
g7
(lp345
(iArchitecture
Entity
p346
(dp347
g11
(lp348
sg13
S'android.app.backup.RestoreDescription'
p349
sg15
(lp350
sg17
(lp351
sg19
(lp352
sg21
I0
sba(iArchitecture
Entity
p353
(dp354
g11
(lp355
sg13
S'android.app.backup.RestoreDescription$1'
p356
sg15
(lp357
sg17
(lp358
sg19
(lp359
sg21
I0
sba(iArchitecture
Entity
p360
(dp361
g11
(lp362
sg13
S'android.content.res.ObbScanner'
p363
sg15
(lp364
sg17
(lp365
sg19
(lp366
sg21
I0
sbasg36
(lp367
g349
ag356
ag363
asg21
I0
sg38
S'1125'
p368
sba(iArchitecture
Cluster
p369
(dp370
g7
(lp371
(iArchitecture
Entity
p372
(dp373
g11
(lp374
sg13
S'android.text.PackedIntVector'
p375
sg15
(lp376
sg17
(lp377
sg19
(lp378
sg21
I0
sba(iArchitecture
Entity
p379
(dp380
g11
(lp381
sg13
S'android.text.PackedObjectVector'
p382
sg15
(lp383
sg17
(lp384
sg19
(lp385
sg21
I0
sbasg36
(lp386
g375
ag382
asg21
I0
sg38
S'1126'
p387
sba(iArchitecture
Cluster
p388
(dp389
g7
(lp390
(iArchitecture
Entity
p391
(dp392
g11
(lp393
sg13
S'android.media.AudioDevicePortConfig'
p394
sg15
(lp395
sg17
(lp396
sg19
(lp397
sg21
I0
sba(iArchitecture
Entity
p398
(dp399
g11
(lp400
sg13
S'android.media.AudioMixPort'
p401
sg15
(lp402
sg17
(lp403
sg19
(lp404
sg21
I0
sba(iArchitecture
Entity
p405
(dp406
g11
(lp407
sg13
S'android.media.AudioMixPortConfig'
p408
sg15
(lp409
sg17
(lp410
sg19
(lp411
sg21
I0
sba(iArchitecture
Entity
p412
(dp413
g11
(lp414
sg13
S'android.media.AudioPortConfig'
p415
sg15
(lp416
sg17
(lp417
sg19
(lp418
sg21
I0
sbasg36
(lp419
g394
ag401
ag408
ag415
asg21
I0
sg38
S'1127'
p420
sba(iArchitecture
Cluster
p421
(dp422
g7
(lp423
(iArchitecture
Entity
p424
(dp425
g11
(lp426
sg13
S'android.widget.PopupMenu'
p427
sg15
(lp428
sg17
(lp429
sg19
(lp430
sg21
I0
sba(iArchitecture
Entity
p431
(dp432
g11
(lp433
sg13
S'android.widget.PopupMenu$1'
p434
sg15
(lp435
sg17
(lp436
sg19
(lp437
sg21
I0
sba(iArchitecture
Entity
p438
(dp439
g11
(lp440
sg13
S'android.widget.PopupMenu$OnDismissListener'
p441
sg15
(lp442
sg17
(lp443
sg19
(lp444
sg21
I0
sba(iArchitecture
Entity
p445
(dp446
g11
(lp447
sg13
S'android.widget.PopupMenu$OnMenuItemClickListener'
p448
sg15
(lp449
sg17
(lp450
sg19
(lp451
sg21
I0
sba(iArchitecture
Entity
p452
(dp453
g11
(lp454
sg13
S'com.android.internal.view.menu.MenuPopupHelper'
p455
sg15
(lp456
sg17
(lp457
sg19
(lp458
sg21
I0
sba(iArchitecture
Entity
p459
(dp460
g11
(lp461
sg13
S'com.android.internal.view.menu.MenuPopupHelper$MenuAdapter'
p462
sg15
(lp463
sg17
(lp464
sg19
(lp465
sg21
I0
sbasg36
(lp466
g427
ag434
ag441
ag448
ag455
ag462
asg21
I0
sg38
S'1128'
p467
sba(iArchitecture
Cluster
p468
(dp469
g7
(lp470
(iArchitecture
Entity
p471
(dp472
g11
(lp473
sg13
S'android.bluetooth.BluetoothGattCallback'
p474
sg15
(lp475
sg17
(lp476
sg19
(lp477
sg21
I0
sba(iArchitecture
Entity
p478
(dp479
g11
(lp480
sg13
S'android.bluetooth.BluetoothGattServerCallback'
p481
sg15
(lp482
sg17
(lp483
sg19
(lp484
sg21
I0
sbasg36
(lp485
g474
ag481
asg21
I0
sg38
S'1129'
p486
sbasS'target_sub'
p487
S'112'
p488
sg36
(lp489
sS'is_component_arch'
p490
I01
sg38
S'6.0.0_r1'
p491
sba.