(lp0
(iArchitecture
Architecture
p1
(dp2
S'clusters'
p3
(lp4
(iArchitecture
Cluster
p5
(dp6
S'entities'
p7
(lp8
(iArchitecture
Entity
p9
(dp10
S'issue_ids'
p11
(lp12
sS'name'
p13
S'android.opengl.GLSurfaceView'
p14
sS'descs'
p15
(lp16
sS'labels'
p17
(lp18
sS'titles'
p19
(lp20
sS'change'
p21
I0
sba(iArchitecture
Entity
p22
(dp23
g11
(lp24
sg13
S'android.opengl.GLSurfaceView$BaseConfigChooser'
p25
sg15
(lp26
sg17
(lp27
sg19
(lp28
sg21
I0
sba(iArchitecture
Entity
p29
(dp30
g11
(lp31
sg13
S'android.opengl.GLSurfaceView$ComponentSizeChooser'
p32
sg15
(lp33
sg17
(lp34
sg19
(lp35
sg21
I0
sba(iArchitecture
Entity
p36
(dp37
g11
(lp38
sg13
S'android.opengl.GLSurfaceView$DefaultContextFactory'
p39
sg15
(lp40
sg17
(lp41
sg19
(lp42
sg21
I0
sba(iArchitecture
Entity
p43
(dp44
g11
(lp45
sg13
S'android.opengl.GLSurfaceView$DefaultWindowSurfaceFactory'
p46
sg15
(lp47
sg17
(lp48
sg19
(lp49
sg21
I0
sba(iArchitecture
Entity
p50
(dp51
g11
(lp52
sg13
S'android.opengl.GLSurfaceView$EGLConfigChooser'
p53
sg15
(lp54
sg17
(lp55
sg19
(lp56
sg21
I0
sba(iArchitecture
Entity
p57
(dp58
g11
(lp59
sg13
S'android.opengl.GLSurfaceView$EGLContextFactory'
p60
sg15
(lp61
sg17
(lp62
sg19
(lp63
sg21
I0
sba(iArchitecture
Entity
p64
(dp65
g11
(lp66
sg13
S'android.opengl.GLSurfaceView$EGLWindowSurfaceFactory'
p67
sg15
(lp68
sg17
(lp69
sg19
(lp70
sg21
I0
sba(iArchitecture
Entity
p71
(dp72
g11
(lp73
sg13
S'android.opengl.GLSurfaceView$EglHelper'
p74
sg15
(lp75
sg17
(lp76
sg19
(lp77
sg21
I0
sba(iArchitecture
Entity
p78
(dp79
g11
(lp80
sg13
S'android.opengl.GLSurfaceView$GLThread'
p81
sg15
(lp82
sg17
(lp83
sg19
(lp84
sg21
I0
sba(iArchitecture
Entity
p85
(dp86
g11
(lp87
sg13
S'android.opengl.GLSurfaceView$GLThreadManager'
p88
sg15
(lp89
sg17
(lp90
sg19
(lp91
sg21
I0
sba(iArchitecture
Entity
p92
(dp93
g11
(lp94
sg13
S'android.opengl.GLSurfaceView$GLWrapper'
p95
sg15
(lp96
sg17
(lp97
sg19
(lp98
sg21
I0
sba(iArchitecture
Entity
p99
(dp100
g11
(lp101
sg13
S'android.opengl.GLSurfaceView$LogWriter'
p102
sg15
(lp103
sg17
(lp104
sg19
(lp105
sg21
I0
sba(iArchitecture
Entity
p106
(dp107
g11
(lp108
sg13
S'android.opengl.GLSurfaceView$Renderer'
p109
sg15
(lp110
sg17
(lp111
sg19
(lp112
sg21
I0
sba(iArchitecture
Entity
p113
(dp114
g11
(lp115
sg13
S'android.opengl.GLSurfaceView$SimpleEGLConfigChooser'
p116
sg15
(lp117
sg17
(lp118
sg19
(lp119
sg21
I0
sbasS'classes'
p120
(lp121
g14
ag25
ag32
ag39
ag46
ag53
ag60
ag67
ag74
ag81
ag88
ag95
ag102
ag109
ag116
asg21
I0
sS'label'
p122
S'1083'
p123
sba(iArchitecture
Cluster
p124
(dp125
g7
(lp126
(iArchitecture
Entity
p127
(dp128
g11
(lp129
sg13
S'android.content.UndoManager'
p130
sg15
(lp131
sg17
(lp132
sg19
(lp133
sg21
I0
sba(iArchitecture
Entity
p134
(dp135
g11
(lp136
sg13
S'android.content.UndoManager$UndoState'
p137
sg15
(lp138
sg17
(lp139
sg19
(lp140
sg21
I0
sba(iArchitecture
Entity
p141
(dp142
g11
(lp143
sg13
S'android.inputmethodservice.Keyboard'
p144
sg15
(lp145
sg17
(lp146
sg19
(lp147
sg21
I0
sba(iArchitecture
Entity
p148
(dp149
g11
(lp150
sg13
S'android.inputmethodservice.Keyboard$Key'
p151
sg15
(lp152
sg17
(lp153
sg19
(lp154
sg21
I0
sba(iArchitecture
Entity
p155
(dp156
g11
(lp157
sg13
S'android.inputmethodservice.Keyboard$Row'
p158
sg15
(lp159
sg17
(lp160
sg19
(lp161
sg21
I0
sba(iArchitecture
Entity
p162
(dp163
g11
(lp164
sg13
S'android.inputmethodservice.KeyboardView'
p165
sg15
(lp166
sg17
(lp167
sg19
(lp168
sg21
I0
sba(iArchitecture
Entity
p169
(dp170
g11
(lp171
sg13
S'android.inputmethodservice.KeyboardView$1'
p172
sg15
(lp173
sg17
(lp174
sg19
(lp175
sg21
I0
sba(iArchitecture
Entity
p176
(dp177
g11
(lp178
sg13
S'android.inputmethodservice.KeyboardView$2'
p179
sg15
(lp180
sg17
(lp181
sg19
(lp182
sg21
I0
sba(iArchitecture
Entity
p183
(dp184
g11
(lp185
sg13
S'android.inputmethodservice.KeyboardView$3'
p186
sg15
(lp187
sg17
(lp188
sg19
(lp189
sg21
I0
sba(iArchitecture
Entity
p190
(dp191
g11
(lp192
sg13
S'android.inputmethodservice.KeyboardView$OnKeyboardActionListener'
p193
sg15
(lp194
sg17
(lp195
sg19
(lp196
sg21
I0
sba(iArchitecture
Entity
p197
(dp198
g11
(lp199
sg13
S'android.inputmethodservice.KeyboardView$SwipeTracker'
p200
sg15
(lp201
sg17
(lp202
sg19
(lp203
sg21
I0
sba(iArchitecture
Entity
p204
(dp205
g11
(lp206
sg13
S'android.view.inputmethod.BaseInputConnection'
p207
sg15
(lp208
sg17
(lp209
sg19
(lp210
sg21
I0
sba(iArchitecture
Entity
p211
(dp212
g11
(lp213
sg13
S'android.widget.AbsSeekBar'
p214
sg15
(lp215
sg17
(lp216
sg19
(lp217
sg21
I0
sba(iArchitecture
Entity
p218
(dp219
g11
(lp220
sg13
S'android.widget.Switch'
p221
sg15
(lp222
sg17
(lp223
sg19
(lp224
sg21
I0
sba(iArchitecture
Entity
p225
(dp226
g11
(lp227
sg13
S'android.widget.Switch$1'
p228
sg15
(lp229
sg17
(lp230
sg19
(lp231
sg21
I0
sbasg120
(lp232
g130
ag137
ag144
ag151
ag158
ag165
ag172
ag179
ag186
ag193
ag200
ag207
ag214
ag221
ag228
asg21
I0
sg122
S'1183'
p233
sba(iArchitecture
Cluster
p234
(dp235
g7
(lp236
(iArchitecture
Entity
p237
(dp238
g11
(lp239
sg13
S'android.net.TrafficStats'
p240
sg15
(lp241
sg17
(lp242
sg19
(lp243
sg21
I0
sbasg120
(lp244
g240
asg21
I0
sg122
S'183'
p245
sba(iArchitecture
Cluster
p246
(dp247
g7
(lp248
(iArchitecture
Entity
p249
(dp250
g11
(lp251
sg13
S'android.graphics.EmbossMaskFilter'
p252
sg15
(lp253
sg17
(lp254
sg19
(lp255
sg21
I0
sbasg120
(lp256
g252
asg21
I0
sg122
S'283'
p257
sba(iArchitecture
Cluster
p258
(dp259
g7
(lp260
(iArchitecture
Entity
p261
(dp262
g11
(lp263
sg13
S'android.telephony.DisconnectCause'
p264
sg15
(lp265
sg17
(lp266
sg19
(lp267
sg21
I0
sbasg120
(lp268
g264
asg21
I0
sg122
S'383'
p269
sba(iArchitecture
Cluster
p270
(dp271
g7
(lp272
(iArchitecture
Entity
p273
(dp274
g11
(lp275
sg13
S'android.media.VolumeProvider'
p276
sg15
(lp277
sg17
(lp278
sg19
(lp279
sg21
I0
sba(iArchitecture
Entity
p280
(dp281
g11
(lp282
sg13
S'android.media.VolumeProvider$Callback'
p283
sg15
(lp284
sg17
(lp285
sg19
(lp286
sg21
I0
sbasg120
(lp287
g276
ag283
asg21
I0
sg122
S'483'
p288
sba(iArchitecture
Cluster
p289
(dp290
g7
(lp291
(iArchitecture
Entity
p292
(dp293
g11
(lp294
sg13
S'android.hardware.GeomagneticField'
p295
sg15
(lp296
sg17
(lp297
sg19
(lp298
sg21
I0
sba(iArchitecture
Entity
p299
(dp300
g11
(lp301
sg13
S'android.hardware.GeomagneticField$LegendreTable'
p302
sg15
(lp303
sg17
(lp304
sg19
(lp305
sg21
I0
sbasg120
(lp306
g295
ag302
asg21
I0
sg122
S'583'
p307
sba(iArchitecture
Cluster
p308
(dp309
g7
(lp310
(iArchitecture
Entity
p311
(dp312
g11
(lp313
sg13
S'android.telecom.GatewayInfo'
p314
sg15
(lp315
sg17
(lp316
sg19
(lp317
sg21
I0
sba(iArchitecture
Entity
p318
(dp319
g11
(lp320
sg13
S'android.telecom.GatewayInfo$1'
p321
sg15
(lp322
sg17
(lp323
sg19
(lp324
sg21
I0
sbasg120
(lp325
g314
ag321
asg21
I0
sg122
S'683'
p326
sba(iArchitecture
Cluster
p327
(dp328
g7
(lp329
(iArchitecture
Entity
p330
(dp331
g11
(lp332
sg13
S'android.media.tv.TvStreamConfig'
p333
sg15
(lp334
sg17
(lp335
sg19
(lp336
sg21
I0
sba(iArchitecture
Entity
p337
(dp338
g11
(lp339
sg13
S'android.media.tv.TvStreamConfig$1'
p340
sg15
(lp341
sg17
(lp342
sg19
(lp343
sg21
I0
sba(iArchitecture
Entity
p344
(dp345
g11
(lp346
sg13
S'android.media.tv.TvStreamConfig$Builder'
p347
sg15
(lp348
sg17
(lp349
sg19
(lp350
sg21
I0
sbasg120
(lp351
g333
ag340
ag347
asg21
I0
sg122
S'783'
p352
sba(iArchitecture
Cluster
p353
(dp354
g7
(lp355
(iArchitecture
Entity
p356
(dp357
g11
(lp358
sg13
S'android.view.HardwareLayer'
p359
sg15
(lp360
sg17
(lp361
sg19
(lp362
sg21
I0
sbasg120
(lp363
g359
asg21
I0
sg122
S'83'
p364
sba(iArchitecture
Cluster
p365
(dp366
g7
(lp367
(iArchitecture
Entity
p368
(dp369
g11
(lp370
sg13
S'android.renderscript.Type'
p371
sg15
(lp372
sg17
(lp373
sg19
(lp374
sg21
I0
sba(iArchitecture
Entity
p375
(dp376
g11
(lp377
sg13
S'android.renderscript.Type$Builder'
p378
sg15
(lp379
sg17
(lp380
sg19
(lp381
sg21
I0
sba(iArchitecture
Entity
p382
(dp383
g11
(lp384
sg13
S'android.renderscript.Type$CubemapFace'
p385
sg15
(lp386
sg17
(lp387
sg19
(lp388
sg21
I0
sbasg120
(lp389
g371
ag378
ag385
asg21
I0
sg122
S'830'
p390
sba(iArchitecture
Cluster
p391
(dp392
g7
(lp393
(iArchitecture
Entity
p394
(dp395
g11
(lp396
sg13
S'com.android.server.location.GeofenceProxy'
p397
sg15
(lp398
sg17
(lp399
sg19
(lp400
sg21
I0
sba(iArchitecture
Entity
p401
(dp402
g11
(lp403
sg13
S'com.android.server.location.GeofenceProxy$1'
p404
sg15
(lp405
sg17
(lp406
sg19
(lp407
sg21
I0
sba(iArchitecture
Entity
p408
(dp409
g11
(lp410
sg13
S'com.android.server.location.GeofenceProxy$2'
p411
sg15
(lp412
sg17
(lp413
sg19
(lp414
sg21
I0
sba(iArchitecture
Entity
p415
(dp416
g11
(lp417
sg13
S'com.android.server.location.GeofenceProxy$3'
p418
sg15
(lp419
sg17
(lp420
sg19
(lp421
sg21
I0
sbasg120
(lp422
g397
ag404
ag411
ag418
asg21
I0
sg122
S'831'
p423
sba(iArchitecture
Cluster
p424
(dp425
g7
(lp426
(iArchitecture
Entity
p427
(dp428
g11
(lp429
sg13
S'android.content.ContentProviderOperation'
p430
sg15
(lp431
sg17
(lp432
sg19
(lp433
sg21
I0
sba(iArchitecture
Entity
p434
(dp435
g11
(lp436
sg13
S'android.content.ContentProviderOperation$1'
p437
sg15
(lp438
sg17
(lp439
sg19
(lp440
sg21
I0
sba(iArchitecture
Entity
p441
(dp442
g11
(lp443
sg13
S'android.content.ContentProviderOperation$Builder'
p444
sg15
(lp445
sg17
(lp446
sg19
(lp447
sg21
I0
sbasg120
(lp448
g430
ag437
ag444
asg21
I0
sg122
S'832'
p449
sba(iArchitecture
Cluster
p450
(dp451
g7
(lp452
(iArchitecture
Entity
p453
(dp454
g11
(lp455
sg13
S'android.os.storage.VolumeInfo'
p456
sg15
(lp457
sg17
(lp458
sg19
(lp459
sg21
I0
sba(iArchitecture
Entity
p460
(dp461
g11
(lp462
sg13
S'android.os.storage.VolumeInfo$1'
p463
sg15
(lp464
sg17
(lp465
sg19
(lp466
sg21
I0
sba(iArchitecture
Entity
p467
(dp468
g11
(lp469
sg13
S'android.os.storage.VolumeInfo$2'
p470
sg15
(lp471
sg17
(lp472
sg19
(lp473
sg21
I0
sbasg120
(lp474
g456
ag463
ag470
asg21
I0
sg122
S'833'
p475
sba(iArchitecture
Cluster
p476
(dp477
g7
(lp478
(iArchitecture
Entity
p479
(dp480
g11
(lp481
sg13
S'com.android.server.accessibility.AccessibilityInputFilter'
p482
sg15
(lp483
sg17
(lp484
sg19
(lp485
sg21
I0
sba(iArchitecture
Entity
p486
(dp487
g11
(lp488
sg13
S'com.android.server.accessibility.AccessibilityInputFilter$1'
p489
sg15
(lp490
sg17
(lp491
sg19
(lp492
sg21
I0
sba(iArchitecture
Entity
p493
(dp494
g11
(lp495
sg13
S'com.android.server.accessibility.AccessibilityInputFilter$MotionEventHolder'
p496
sg15
(lp497
sg17
(lp498
sg19
(lp499
sg21
I0
sbasg120
(lp500
g482
ag489
ag496
asg21
I0
sg122
S'834'
p501
sba(iArchitecture
Cluster
p502
(dp503
g7
(lp504
(iArchitecture
Entity
p505
(dp506
g11
(lp507
sg13
S'android.hardware.radio.RadioMetadata'
p508
sg15
(lp509
sg17
(lp510
sg19
(lp511
sg21
I0
sba(iArchitecture
Entity
p512
(dp513
g11
(lp514
sg13
S'android.hardware.radio.RadioMetadata$1'
p515
sg15
(lp516
sg17
(lp517
sg19
(lp518
sg21
I0
sba(iArchitecture
Entity
p519
(dp520
g11
(lp521
sg13
S'android.hardware.radio.RadioMetadata$Builder'
p522
sg15
(lp523
sg17
(lp524
sg19
(lp525
sg21
I0
sbasg120
(lp526
g508
ag515
ag522
asg21
I0
sg122
S'835'
p527
sba(iArchitecture
Cluster
p528
(dp529
g7
(lp530
(iArchitecture
Entity
p531
(dp532
g11
(lp533
sg13
S'android.print.PrintJobInfo'
p534
sg15
(lp535
sg17
(lp536
sg19
(lp537
sg21
I0
sba(iArchitecture
Entity
p538
(dp539
g11
(lp540
sg13
S'android.print.PrintJobInfo$1'
p541
sg15
(lp542
sg17
(lp543
sg19
(lp544
sg21
I0
sba(iArchitecture
Entity
p545
(dp546
g11
(lp547
sg13
S'android.print.PrintJobInfo$Builder'
p548
sg15
(lp549
sg17
(lp550
sg19
(lp551
sg21
I0
sbasg120
(lp552
g534
ag541
ag548
asg21
I0
sg122
S'836'
p553
sba(iArchitecture
Cluster
p554
(dp555
g7
(lp556
(iArchitecture
Entity
p557
(dp558
g11
(lp559
sg13
S'android.transition.Visibility'
p560
sg15
(lp561
sg17
(lp562
sg19
(lp563
sg21
I0
sba(iArchitecture
Entity
p564
(dp565
g11
(lp566
sg13
S'android.transition.Visibility$1'
p567
sg15
(lp568
sg17
(lp569
sg19
(lp570
sg21
I0
sba(iArchitecture
Entity
p571
(dp572
g11
(lp573
sg13
S'android.transition.Visibility$DisappearListener'
p574
sg15
(lp575
sg17
(lp576
sg19
(lp577
sg21
I0
sba(iArchitecture
Entity
p578
(dp579
g11
(lp580
sg13
S'android.transition.Visibility$VisibilityInfo'
p581
sg15
(lp582
sg17
(lp583
sg19
(lp584
sg21
I0
sbasg120
(lp585
g560
ag567
ag574
ag581
asg21
I0
sg122
S'837'
p586
sba(iArchitecture
Cluster
p587
(dp588
g7
(lp589
(iArchitecture
Entity
p590
(dp591
g11
(lp592
sg13
S'android.app.NotificationManager'
p593
sg15
(lp594
sg17
(lp595
sg19
(lp596
sg21
I0
sba(iArchitecture
Entity
p597
(dp598
g11
(lp599
sg13
S'android.app.NotificationManager$Policy'
p600
sg15
(lp601
sg17
(lp602
sg19
(lp603
sg21
I0
sba(iArchitecture
Entity
p604
(dp605
g11
(lp606
sg13
S'android.app.NotificationManager$Policy$1'
p607
sg15
(lp608
sg17
(lp609
sg19
(lp610
sg21
I0
sbasg120
(lp611
g593
ag600
ag607
asg21
I0
sg122
S'838'
p612
sba(iArchitecture
Cluster
p613
(dp614
g7
(lp615
(iArchitecture
Entity
p616
(dp617
g11
(lp618
sg13
S'android.text.style.LeadingMarginSpan'
p619
sg15
(lp620
sg17
(lp621
sg19
(lp622
sg21
I0
sba(iArchitecture
Entity
p623
(dp624
g11
(lp625
sg13
S'android.text.style.LeadingMarginSpan$LeadingMarginSpan2'
p626
sg15
(lp627
sg17
(lp628
sg19
(lp629
sg21
I0
sba(iArchitecture
Entity
p630
(dp631
g11
(lp632
sg13
S'android.text.style.LeadingMarginSpan$Standard'
p633
sg15
(lp634
sg17
(lp635
sg19
(lp636
sg21
I0
sbasg120
(lp637
g619
ag626
ag633
asg21
I0
sg122
S'839'
p638
sba(iArchitecture
Cluster
p639
(dp640
g7
(lp641
(iArchitecture
Entity
p642
(dp643
g11
(lp644
sg13
S'android.net.wifi.p2p.WifiP2pGroupList'
p645
sg15
(lp646
sg17
(lp647
sg19
(lp648
sg21
I0
sba(iArchitecture
Entity
p649
(dp650
g11
(lp651
sg13
S'android.net.wifi.p2p.WifiP2pGroupList$1'
p652
sg15
(lp653
sg17
(lp654
sg19
(lp655
sg21
I0
sba(iArchitecture
Entity
p656
(dp657
g11
(lp658
sg13
S'android.net.wifi.p2p.WifiP2pGroupList$2'
p659
sg15
(lp660
sg17
(lp661
sg19
(lp662
sg21
I0
sba(iArchitecture
Entity
p663
(dp664
g11
(lp665
sg13
S'android.net.wifi.p2p.WifiP2pGroupList$GroupDeleteListener'
p666
sg15
(lp667
sg17
(lp668
sg19
(lp669
sg21
I0
sbasg120
(lp670
g645
ag652
ag659
ag666
asg21
I0
sg122
S'883'
p671
sba(iArchitecture
Cluster
p672
(dp673
g7
(lp674
(iArchitecture
Entity
p675
(dp676
g11
(lp677
sg13
S'com.android.server.NetworkTimeUpdateService'
p678
sg15
(lp679
sg17
(lp680
sg19
(lp681
sg21
I0
sba(iArchitecture
Entity
p682
(dp683
g11
(lp684
sg13
S'com.android.server.NetworkTimeUpdateService$1'
p685
sg15
(lp686
sg17
(lp687
sg19
(lp688
sg21
I0
sba(iArchitecture
Entity
p689
(dp690
g11
(lp691
sg13
S'com.android.server.NetworkTimeUpdateService$2'
p692
sg15
(lp693
sg17
(lp694
sg19
(lp695
sg21
I0
sba(iArchitecture
Entity
p696
(dp697
g11
(lp698
sg13
S'com.android.server.NetworkTimeUpdateService$3'
p699
sg15
(lp700
sg17
(lp701
sg19
(lp702
sg21
I0
sba(iArchitecture
Entity
p703
(dp704
g11
(lp705
sg13
S'com.android.server.NetworkTimeUpdateService$MyHandler'
p706
sg15
(lp707
sg17
(lp708
sg19
(lp709
sg21
I0
sba(iArchitecture
Entity
p710
(dp711
g11
(lp712
sg13
S'com.android.server.NetworkTimeUpdateService$SettingsObserver'
p713
sg15
(lp714
sg17
(lp715
sg19
(lp716
sg21
I0
sbasg120
(lp717
g678
ag685
ag692
ag699
ag706
ag713
asg21
I0
sg122
S'983'
p718
sbasS'target_sub'
p719
S'83'
p720
sg120
(lp721
sS'is_component_arch'
p722
I01
sg122
S'6.0.0_r1'
p723
sba.