(lp0
(iArchitecture
Architecture
p1
(dp2
S'clusters'
p3
(lp4
(iArchitecture
Cluster
p5
(dp6
S'entities'
p7
(lp8
(iArchitecture
Entity
p9
(dp10
S'issue_ids'
p11
(lp12
sS'name'
p13
S'android.widget.MediaController'
p14
sS'descs'
p15
(lp16
sS'labels'
p17
(lp18
sS'titles'
p19
(lp20
sS'change'
p21
I0
sba(iArchitecture
Entity
p22
(dp23
g11
(lp24
sg13
S'android.widget.MediaController$1'
p25
sg15
(lp26
sg17
(lp27
sg19
(lp28
sg21
I0
sba(iArchitecture
Entity
p29
(dp30
g11
(lp31
sg13
S'android.widget.MediaController$2'
p32
sg15
(lp33
sg17
(lp34
sg19
(lp35
sg21
I0
sba(iArchitecture
Entity
p36
(dp37
g11
(lp38
sg13
S'android.widget.MediaController$3'
p39
sg15
(lp40
sg17
(lp41
sg19
(lp42
sg21
I0
sba(iArchitecture
Entity
p43
(dp44
g11
(lp45
sg13
S'android.widget.MediaController$4'
p46
sg15
(lp47
sg17
(lp48
sg19
(lp49
sg21
I0
sba(iArchitecture
Entity
p50
(dp51
g11
(lp52
sg13
S'android.widget.MediaController$5'
p53
sg15
(lp54
sg17
(lp55
sg19
(lp56
sg21
I0
sba(iArchitecture
Entity
p57
(dp58
g11
(lp59
sg13
S'android.widget.MediaController$6'
p60
sg15
(lp61
sg17
(lp62
sg19
(lp63
sg21
I0
sba(iArchitecture
Entity
p64
(dp65
g11
(lp66
sg13
S'android.widget.MediaController$7'
p67
sg15
(lp68
sg17
(lp69
sg19
(lp70
sg21
I0
sba(iArchitecture
Entity
p71
(dp72
g11
(lp73
sg13
S'android.widget.MediaController$MediaPlayerControl'
p74
sg15
(lp75
sg17
(lp76
sg19
(lp77
sg21
I0
sbasS'classes'
p78
(lp79
g14
ag25
ag32
ag39
ag46
ag53
ag60
ag67
ag74
asg21
I0
sS'label'
p80
S'1052'
p81
sba(iArchitecture
Cluster
p82
(dp83
g7
(lp84
(iArchitecture
Entity
p85
(dp86
g11
(lp87
sg13
S'android.os.Registrant'
p88
sg15
(lp89
sg17
(lp90
sg19
(lp91
sg21
I0
sba(iArchitecture
Entity
p92
(dp93
g11
(lp94
sg13
S'android.os.RegistrantList'
p95
sg15
(lp96
sg17
(lp97
sg19
(lp98
sg21
I0
sbasg78
(lp99
g88
ag95
asg21
I0
sg80
S'1152'
p100
sba(iArchitecture
Cluster
p101
(dp102
g7
(lp103
(iArchitecture
Entity
p104
(dp105
g11
(lp106
sg13
S'android.security.KeyChainException'
p107
sg15
(lp108
sg17
(lp109
sg19
(lp110
sg21
I0
sba(iArchitecture
Entity
p111
(dp112
g11
(lp113
sg13
S'android.text.AlteredCharSequence'
p114
sg15
(lp115
sg17
(lp116
sg19
(lp117
sg21
I0
sba(iArchitecture
Entity
p118
(dp119
g11
(lp120
sg13
S'android.text.AlteredCharSequence$AlteredSpanned'
p121
sg15
(lp122
sg17
(lp123
sg19
(lp124
sg21
I0
sba(iArchitecture
Entity
p125
(dp126
g11
(lp127
sg13
S'android.util.JsonToken'
p128
sg15
(lp129
sg17
(lp130
sg19
(lp131
sg21
I0
sba(iArchitecture
Entity
p132
(dp133
g11
(lp134
sg13
S'com.android.server.am.UserState'
p135
sg15
(lp136
sg17
(lp137
sg19
(lp138
sg21
I0
sbasg78
(lp139
g107
ag114
ag121
ag128
ag135
asg21
I0
sg80
S'1252'
p140
sba(iArchitecture
Cluster
p141
(dp142
g7
(lp143
(iArchitecture
Entity
p144
(dp145
g11
(lp146
sg13
S'android.graphics.PorterDuffColorFilter'
p147
sg15
(lp148
sg17
(lp149
sg19
(lp150
sg21
I0
sbasg78
(lp151
g147
asg21
I0
sg80
S'152'
p152
sba(iArchitecture
Cluster
p153
(dp154
g7
(lp155
(iArchitecture
Entity
p156
(dp157
g11
(lp158
sg13
S'android.view.ViewConfiguration'
p159
sg15
(lp160
sg17
(lp161
sg19
(lp162
sg21
I0
sbasg78
(lp163
g159
asg21
I0
sg80
S'252'
p164
sba(iArchitecture
Cluster
p165
(dp166
g7
(lp167
(iArchitecture
Entity
p168
(dp169
g11
(lp170
sg13
S'android.appwidget.AppWidgetManager'
p171
sg15
(lp172
sg17
(lp173
sg19
(lp174
sg21
I0
sbasg78
(lp175
g171
asg21
I0
sg80
S'352'
p176
sba(iArchitecture
Cluster
p177
(dp178
g7
(lp179
(iArchitecture
Entity
p180
(dp181
g11
(lp182
sg13
S'android.telephony.CellInfoGsm'
p183
sg15
(lp184
sg17
(lp185
sg19
(lp186
sg21
I0
sba(iArchitecture
Entity
p187
(dp188
g11
(lp189
sg13
S'android.telephony.CellInfoGsm$1'
p190
sg15
(lp191
sg17
(lp192
sg19
(lp193
sg21
I0
sbasg78
(lp194
g183
ag190
asg21
I0
sg80
S'452'
p195
sba(iArchitecture
Cluster
p196
(dp197
g7
(lp198
(iArchitecture
Entity
p199
(dp200
g11
(lp201
sg13
S'android.webkit.WebViewDatabase'
p202
sg15
(lp203
sg17
(lp204
sg19
(lp205
sg21
I0
sbasg78
(lp206
g202
asg21
I0
sg80
S'52'
p207
sba(iArchitecture
Cluster
p208
(dp209
g7
(lp210
(iArchitecture
Entity
p211
(dp212
g11
(lp213
sg13
S'android.content.PeriodicSync'
p214
sg15
(lp215
sg17
(lp216
sg19
(lp217
sg21
I0
sba(iArchitecture
Entity
p218
(dp219
g11
(lp220
sg13
S'android.content.PeriodicSync$1'
p221
sg15
(lp222
sg17
(lp223
sg19
(lp224
sg21
I0
sbasg78
(lp225
g214
ag221
asg21
I0
sg80
S'520'
p226
sba(iArchitecture
Cluster
p227
(dp228
g7
(lp229
(iArchitecture
Entity
p230
(dp231
g11
(lp232
sg13
S'android.net.LinkQualityInfo'
p233
sg15
(lp234
sg17
(lp235
sg19
(lp236
sg21
I0
sba(iArchitecture
Entity
p237
(dp238
g11
(lp239
sg13
S'android.net.LinkQualityInfo$1'
p240
sg15
(lp241
sg17
(lp242
sg19
(lp243
sg21
I0
sbasg78
(lp244
g233
ag240
asg21
I0
sg80
S'521'
p245
sba(iArchitecture
Cluster
p246
(dp247
g7
(lp248
(iArchitecture
Entity
p249
(dp250
g11
(lp251
sg13
S'android.telephony.SubscriptionInfo'
p252
sg15
(lp253
sg17
(lp254
sg19
(lp255
sg21
I0
sba(iArchitecture
Entity
p256
(dp257
g11
(lp258
sg13
S'android.telephony.SubscriptionInfo$1'
p259
sg15
(lp260
sg17
(lp261
sg19
(lp262
sg21
I0
sbasg78
(lp263
g252
ag259
asg21
I0
sg80
S'522'
p264
sba(iArchitecture
Cluster
p265
(dp266
g7
(lp267
(iArchitecture
Entity
p268
(dp269
g11
(lp270
sg13
S'com.android.server.job.controllers.ConnectivityController'
p271
sg15
(lp272
sg17
(lp273
sg19
(lp274
sg21
I0
sba(iArchitecture
Entity
p275
(dp276
g11
(lp277
sg13
S'com.android.server.job.controllers.ConnectivityController$ConnectivityChangedReceiver'
p278
sg15
(lp279
sg17
(lp280
sg19
(lp281
sg21
I0
sbasg78
(lp282
g271
ag278
asg21
I0
sg80
S'523'
p283
sba(iArchitecture
Cluster
p284
(dp285
g7
(lp286
(iArchitecture
Entity
p287
(dp288
g11
(lp289
sg13
S'android.content.AsyncTaskLoader'
p290
sg15
(lp291
sg17
(lp292
sg19
(lp293
sg21
I0
sba(iArchitecture
Entity
p294
(dp295
g11
(lp296
sg13
S'android.content.AsyncTaskLoader$LoadTask'
p297
sg15
(lp298
sg17
(lp299
sg19
(lp300
sg21
I0
sbasg78
(lp301
g290
ag297
asg21
I0
sg80
S'524'
p302
sba(iArchitecture
Cluster
p303
(dp304
g7
(lp305
(iArchitecture
Entity
p306
(dp307
g11
(lp308
sg13
S'android.location.GpsMeasurement'
p309
sg15
(lp310
sg17
(lp311
sg19
(lp312
sg21
I0
sba(iArchitecture
Entity
p313
(dp314
g11
(lp315
sg13
S'android.location.GpsMeasurement$1'
p316
sg15
(lp317
sg17
(lp318
sg19
(lp319
sg21
I0
sbasg78
(lp320
g309
ag316
asg21
I0
sg80
S'525'
p321
sba(iArchitecture
Cluster
p322
(dp323
g7
(lp324
(iArchitecture
Entity
p325
(dp326
g11
(lp327
sg13
S'android.transition.TranslationAnimationCreator'
p328
sg15
(lp329
sg17
(lp330
sg19
(lp331
sg21
I0
sba(iArchitecture
Entity
p332
(dp333
g11
(lp334
sg13
S'android.transition.TranslationAnimationCreator$TransitionPositionListener'
p335
sg15
(lp336
sg17
(lp337
sg19
(lp338
sg21
I0
sbasg78
(lp339
g328
ag335
asg21
I0
sg80
S'526'
p340
sba(iArchitecture
Cluster
p341
(dp342
g7
(lp343
(iArchitecture
Entity
p344
(dp345
g11
(lp346
sg13
S'android.filterpacks.videosrc.CameraSource'
p347
sg15
(lp348
sg17
(lp349
sg19
(lp350
sg21
I0
sba(iArchitecture
Entity
p351
(dp352
g11
(lp353
sg13
S'android.filterpacks.videosrc.CameraSource$1'
p354
sg15
(lp355
sg17
(lp356
sg19
(lp357
sg21
I0
sbasg78
(lp358
g347
ag354
asg21
I0
sg80
S'527'
p359
sba(iArchitecture
Cluster
p360
(dp361
g7
(lp362
(iArchitecture
Entity
p363
(dp364
g11
(lp365
sg13
S'android.location.Country'
p366
sg15
(lp367
sg17
(lp368
sg19
(lp369
sg21
I0
sba(iArchitecture
Entity
p370
(dp371
g11
(lp372
sg13
S'android.location.Country$1'
p373
sg15
(lp374
sg17
(lp375
sg19
(lp376
sg21
I0
sbasg78
(lp377
g366
ag373
asg21
I0
sg80
S'528'
p378
sba(iArchitecture
Cluster
p379
(dp380
g7
(lp381
(iArchitecture
Entity
p382
(dp383
g11
(lp384
sg13
S'android.telephony.CellInfoCdma'
p385
sg15
(lp386
sg17
(lp387
sg19
(lp388
sg21
I0
sba(iArchitecture
Entity
p389
(dp390
g11
(lp391
sg13
S'android.telephony.CellInfoCdma$1'
p392
sg15
(lp393
sg17
(lp394
sg19
(lp395
sg21
I0
sbasg78
(lp396
g385
ag392
asg21
I0
sg80
S'529'
p397
sba(iArchitecture
Cluster
p398
(dp399
g7
(lp400
(iArchitecture
Entity
p401
(dp402
g11
(lp403
sg13
S'com.android.internal.util.FastPrintWriter'
p404
sg15
(lp405
sg17
(lp406
sg19
(lp407
sg21
I0
sba(iArchitecture
Entity
p408
(dp409
g11
(lp410
sg13
S'com.android.internal.util.FastPrintWriter$DummyWriter'
p411
sg15
(lp412
sg17
(lp413
sg19
(lp414
sg21
I0
sbasg78
(lp415
g404
ag411
asg21
I0
sg80
S'552'
p416
sba(iArchitecture
Cluster
p417
(dp418
g7
(lp419
(iArchitecture
Entity
p420
(dp421
g11
(lp422
sg13
S'android.net.ScoredNetwork'
p423
sg15
(lp424
sg17
(lp425
sg19
(lp426
sg21
I0
sba(iArchitecture
Entity
p427
(dp428
g11
(lp429
sg13
S'android.net.ScoredNetwork$1'
p430
sg15
(lp431
sg17
(lp432
sg19
(lp433
sg21
I0
sbasg78
(lp434
g423
ag430
asg21
I0
sg80
S'652'
p435
sba(iArchitecture
Cluster
p436
(dp437
g7
(lp438
(iArchitecture
Entity
p439
(dp440
g11
(lp441
sg13
S'android.graphics.Matrix'
p442
sg15
(lp443
sg17
(lp444
sg19
(lp445
sg21
I0
sba(iArchitecture
Entity
p446
(dp447
g11
(lp448
sg13
S'android.graphics.Matrix$1'
p449
sg15
(lp450
sg17
(lp451
sg19
(lp452
sg21
I0
sba(iArchitecture
Entity
p453
(dp454
g11
(lp455
sg13
S'android.graphics.Matrix$ScaleToFit'
p456
sg15
(lp457
sg17
(lp458
sg19
(lp459
sg21
I0
sbasg78
(lp460
g442
ag449
ag456
asg21
I0
sg80
S'752'
p461
sba(iArchitecture
Cluster
p462
(dp463
g7
(lp464
(iArchitecture
Entity
p465
(dp466
g11
(lp467
sg13
S'android.graphics.Canvas'
p468
sg15
(lp469
sg17
(lp470
sg19
(lp471
sg21
I0
sba(iArchitecture
Entity
p472
(dp473
g11
(lp474
sg13
S'android.graphics.Canvas$CanvasFinalizer'
p475
sg15
(lp476
sg17
(lp477
sg19
(lp478
sg21
I0
sba(iArchitecture
Entity
p479
(dp480
g11
(lp481
sg13
S'android.graphics.Canvas$EdgeType'
p482
sg15
(lp483
sg17
(lp484
sg19
(lp485
sg21
I0
sba(iArchitecture
Entity
p486
(dp487
g11
(lp488
sg13
S'android.graphics.Canvas$VertexMode'
p489
sg15
(lp490
sg17
(lp491
sg19
(lp492
sg21
I0
sbasg78
(lp493
g468
ag475
ag482
ag489
asg21
I0
sg80
S'852'
p494
sba(iArchitecture
Cluster
p495
(dp496
g7
(lp497
(iArchitecture
Entity
p498
(dp499
g11
(lp500
sg13
S'com.android.server.usage.UserUsageStatsService'
p501
sg15
(lp502
sg17
(lp503
sg19
(lp504
sg21
I0
sba(iArchitecture
Entity
p505
(dp506
g11
(lp507
sg13
S'com.android.server.usage.UserUsageStatsService$1'
p508
sg15
(lp509
sg17
(lp510
sg19
(lp511
sg21
I0
sba(iArchitecture
Entity
p512
(dp513
g11
(lp514
sg13
S'com.android.server.usage.UserUsageStatsService$2'
p515
sg15
(lp516
sg17
(lp517
sg19
(lp518
sg21
I0
sba(iArchitecture
Entity
p519
(dp520
g11
(lp521
sg13
S'com.android.server.usage.UserUsageStatsService$3'
p522
sg15
(lp523
sg17
(lp524
sg19
(lp525
sg21
I0
sba(iArchitecture
Entity
p526
(dp527
g11
(lp528
sg13
S'com.android.server.usage.UserUsageStatsService$4'
p529
sg15
(lp530
sg17
(lp531
sg19
(lp532
sg21
I0
sba(iArchitecture
Entity
p533
(dp534
g11
(lp535
sg13
S'com.android.server.usage.UserUsageStatsService$StatsUpdatedListener'
p536
sg15
(lp537
sg17
(lp538
sg19
(lp539
sg21
I0
sbasg78
(lp540
g501
ag508
ag515
ag522
ag529
ag536
asg21
I0
sg80
S'952'
p541
sbasS'target_sub'
p542
S'52'
p543
sg78
(lp544
sS'is_component_arch'
p545
I01
sg80
S'6.0.0_r1'
p546
sba.