(lp0
(iArchitecture
Architecture
p1
(dp2
S'clusters'
p3
(lp4
(iArchitecture
Cluster
p5
(dp6
S'entities'
p7
(lp8
(iArchitecture
Entity
p9
(dp10
S'issue_ids'
p11
(lp12
sS'name'
p13
S'android.provider.Contacts'
p14
sS'descs'
p15
(lp16
sS'labels'
p17
(lp18
sS'titles'
p19
(lp20
sS'change'
p21
I0
sba(iArchitecture
Entity
p22
(dp23
g11
(lp24
sg13
S'android.provider.Contacts$ContactMethods'
p25
sg15
(lp26
sg17
(lp27
sg19
(lp28
sg21
I0
sba(iArchitecture
Entity
p29
(dp30
g11
(lp31
sg13
S'android.provider.Contacts$ContactMethods$ProviderNames'
p32
sg15
(lp33
sg17
(lp34
sg19
(lp35
sg21
I0
sba(iArchitecture
Entity
p36
(dp37
g11
(lp38
sg13
S'android.provider.Contacts$ContactMethodsColumns'
p39
sg15
(lp40
sg17
(lp41
sg19
(lp42
sg21
I0
sba(iArchitecture
Entity
p43
(dp44
g11
(lp45
sg13
S'android.provider.Contacts$Extensions'
p46
sg15
(lp47
sg17
(lp48
sg19
(lp49
sg21
I0
sba(iArchitecture
Entity
p50
(dp51
g11
(lp52
sg13
S'android.provider.Contacts$ExtensionsColumns'
p53
sg15
(lp54
sg17
(lp55
sg19
(lp56
sg21
I0
sba(iArchitecture
Entity
p57
(dp58
g11
(lp59
sg13
S'android.provider.Contacts$GroupMembership'
p60
sg15
(lp61
sg17
(lp62
sg19
(lp63
sg21
I0
sba(iArchitecture
Entity
p64
(dp65
g11
(lp66
sg13
S'android.provider.Contacts$Groups'
p67
sg15
(lp68
sg17
(lp69
sg19
(lp70
sg21
I0
sba(iArchitecture
Entity
p71
(dp72
g11
(lp73
sg13
S'android.provider.Contacts$GroupsColumns'
p74
sg15
(lp75
sg17
(lp76
sg19
(lp77
sg21
I0
sba(iArchitecture
Entity
p78
(dp79
g11
(lp80
sg13
S'android.provider.Contacts$Intents'
p81
sg15
(lp82
sg17
(lp83
sg19
(lp84
sg21
I0
sba(iArchitecture
Entity
p85
(dp86
g11
(lp87
sg13
S'android.provider.Contacts$Intents$Insert'
p88
sg15
(lp89
sg17
(lp90
sg19
(lp91
sg21
I0
sba(iArchitecture
Entity
p92
(dp93
g11
(lp94
sg13
S'android.provider.Contacts$Intents$UI'
p95
sg15
(lp96
sg17
(lp97
sg19
(lp98
sg21
I0
sba(iArchitecture
Entity
p99
(dp100
g11
(lp101
sg13
S'android.provider.Contacts$OrganizationColumns'
p102
sg15
(lp103
sg17
(lp104
sg19
(lp105
sg21
I0
sba(iArchitecture
Entity
p106
(dp107
g11
(lp108
sg13
S'android.provider.Contacts$Organizations'
p109
sg15
(lp110
sg17
(lp111
sg19
(lp112
sg21
I0
sba(iArchitecture
Entity
p113
(dp114
g11
(lp115
sg13
S'android.provider.Contacts$People'
p116
sg15
(lp117
sg17
(lp118
sg19
(lp119
sg21
I0
sba(iArchitecture
Entity
p120
(dp121
g11
(lp122
sg13
S'android.provider.Contacts$People$ContactMethods'
p123
sg15
(lp124
sg17
(lp125
sg19
(lp126
sg21
I0
sba(iArchitecture
Entity
p127
(dp128
g11
(lp129
sg13
S'android.provider.Contacts$People$Extensions'
p130
sg15
(lp131
sg17
(lp132
sg19
(lp133
sg21
I0
sba(iArchitecture
Entity
p134
(dp135
g11
(lp136
sg13
S'android.provider.Contacts$People$Phones'
p137
sg15
(lp138
sg17
(lp139
sg19
(lp140
sg21
I0
sba(iArchitecture
Entity
p141
(dp142
g11
(lp143
sg13
S'android.provider.Contacts$PeopleColumns'
p144
sg15
(lp145
sg17
(lp146
sg19
(lp147
sg21
I0
sba(iArchitecture
Entity
p148
(dp149
g11
(lp150
sg13
S'android.provider.Contacts$Phones'
p151
sg15
(lp152
sg17
(lp153
sg19
(lp154
sg21
I0
sba(iArchitecture
Entity
p155
(dp156
g11
(lp157
sg13
S'android.provider.Contacts$PhonesColumns'
p158
sg15
(lp159
sg17
(lp160
sg19
(lp161
sg21
I0
sba(iArchitecture
Entity
p162
(dp163
g11
(lp164
sg13
S'android.provider.Contacts$Photos'
p165
sg15
(lp166
sg17
(lp167
sg19
(lp168
sg21
I0
sba(iArchitecture
Entity
p169
(dp170
g11
(lp171
sg13
S'android.provider.Contacts$PhotosColumns'
p172
sg15
(lp173
sg17
(lp174
sg19
(lp175
sg21
I0
sba(iArchitecture
Entity
p176
(dp177
g11
(lp178
sg13
S'android.provider.Contacts$Presence'
p179
sg15
(lp180
sg17
(lp181
sg19
(lp182
sg21
I0
sba(iArchitecture
Entity
p183
(dp184
g11
(lp185
sg13
S'android.provider.Contacts$PresenceColumns'
p186
sg15
(lp187
sg17
(lp188
sg19
(lp189
sg21
I0
sba(iArchitecture
Entity
p190
(dp191
g11
(lp192
sg13
S'android.provider.Contacts$Settings'
p193
sg15
(lp194
sg17
(lp195
sg19
(lp196
sg21
I0
sba(iArchitecture
Entity
p197
(dp198
g11
(lp199
sg13
S'android.provider.Contacts$SettingsColumns'
p200
sg15
(lp201
sg17
(lp202
sg19
(lp203
sg21
I0
sbasS'classes'
p204
(lp205
g14
ag25
ag32
ag39
ag46
ag53
ag60
ag67
ag74
ag81
ag88
ag95
ag102
ag109
ag116
ag123
ag130
ag137
ag144
ag151
ag158
ag165
ag172
ag179
ag186
ag193
ag200
asg21
I0
sS'label'
p206
S'1097'
p207
sba(iArchitecture
Cluster
p208
(dp209
g7
(lp210
(iArchitecture
Entity
p211
(dp212
g11
(lp213
sg13
S'android.content.res.ResourcesKey'
p214
sg15
(lp215
sg17
(lp216
sg19
(lp217
sg21
I0
sba(iArchitecture
Entity
p218
(dp219
g11
(lp220
sg13
S'android.webkit.FindActionModeCallback'
p221
sg15
(lp222
sg17
(lp223
sg19
(lp224
sg21
I0
sba(iArchitecture
Entity
p225
(dp226
g11
(lp227
sg13
S'android.webkit.FindActionModeCallback$NoAction'
p228
sg15
(lp229
sg17
(lp230
sg19
(lp231
sg21
I0
sbasg204
(lp232
g214
ag221
ag228
asg21
I0
sg206
S'1197'
p233
sba(iArchitecture
Cluster
p234
(dp235
g7
(lp236
(iArchitecture
Entity
p237
(dp238
g11
(lp239
sg13
S'android.graphics.YuvImage'
p240
sg15
(lp241
sg17
(lp242
sg19
(lp243
sg21
I0
sbasg204
(lp244
g240
asg21
I0
sg206
S'197'
p245
sba(iArchitecture
Cluster
p246
(dp247
g7
(lp248
(iArchitecture
Entity
p249
(dp250
g11
(lp251
sg13
S'android.graphics.ComposeShader'
p252
sg15
(lp253
sg17
(lp254
sg19
(lp255
sg21
I0
sbasg204
(lp256
g252
asg21
I0
sg206
S'297'
p257
sba(iArchitecture
Cluster
p258
(dp259
g7
(lp260
(iArchitecture
Entity
p261
(dp262
g11
(lp263
sg13
S'com.android.server.pm.PackageManagerException'
p264
sg15
(lp265
sg17
(lp266
sg19
(lp267
sg21
I0
sbasg204
(lp268
g264
asg21
I0
sg206
S'397'
p269
sba(iArchitecture
Cluster
p270
(dp271
g7
(lp272
(iArchitecture
Entity
p273
(dp274
g11
(lp275
sg13
S'android.graphics.drawable.BitmapDrawable'
p276
sg15
(lp277
sg17
(lp278
sg19
(lp279
sg21
I0
sba(iArchitecture
Entity
p280
(dp281
g11
(lp282
sg13
S'android.graphics.drawable.BitmapDrawable$BitmapState'
p283
sg15
(lp284
sg17
(lp285
sg19
(lp286
sg21
I0
sbasg204
(lp287
g276
ag283
asg21
I0
sg206
S'497'
p288
sba(iArchitecture
Cluster
p289
(dp290
g7
(lp291
(iArchitecture
Entity
p292
(dp293
g11
(lp294
sg13
S'com.android.server.wm.BlackFrame'
p295
sg15
(lp296
sg17
(lp297
sg19
(lp298
sg21
I0
sba(iArchitecture
Entity
p299
(dp300
g11
(lp301
sg13
S'com.android.server.wm.BlackFrame$BlackSurface'
p302
sg15
(lp303
sg17
(lp304
sg19
(lp305
sg21
I0
sbasg204
(lp306
g295
ag302
asg21
I0
sg206
S'597'
p307
sba(iArchitecture
Cluster
p308
(dp309
g7
(lp310
(iArchitecture
Entity
p311
(dp312
g11
(lp313
sg13
S'com.android.server.am.ContentProviderRecord'
p314
sg15
(lp315
sg17
(lp316
sg19
(lp317
sg21
I0
sba(iArchitecture
Entity
p318
(dp319
g11
(lp320
sg13
S'com.android.server.am.ContentProviderRecord$ExternalProcessHandle'
p321
sg15
(lp322
sg17
(lp323
sg19
(lp324
sg21
I0
sbasg204
(lp325
g314
ag321
asg21
I0
sg206
S'697'
p326
sba(iArchitecture
Cluster
p327
(dp328
g7
(lp329
(iArchitecture
Entity
p330
(dp331
g11
(lp332
sg13
S'android.app.job.JobInfo'
p333
sg15
(lp334
sg17
(lp335
sg19
(lp336
sg21
I0
sba(iArchitecture
Entity
p337
(dp338
g11
(lp339
sg13
S'android.app.job.JobInfo$1'
p340
sg15
(lp341
sg17
(lp342
sg19
(lp343
sg21
I0
sba(iArchitecture
Entity
p344
(dp345
g11
(lp346
sg13
S'android.app.job.JobInfo$Builder'
p347
sg15
(lp348
sg17
(lp349
sg19
(lp350
sg21
I0
sbasg204
(lp351
g333
ag340
ag347
asg21
I0
sg206
S'797'
p352
sba(iArchitecture
Cluster
p353
(dp354
g7
(lp355
(iArchitecture
Entity
p356
(dp357
g11
(lp358
sg13
S'android.util.Xml'
p359
sg15
(lp360
sg17
(lp361
sg19
(lp362
sg21
I0
sba(iArchitecture
Entity
p363
(dp364
g11
(lp365
sg13
S'android.util.Xml$Encoding'
p366
sg15
(lp367
sg17
(lp368
sg19
(lp369
sg21
I0
sba(iArchitecture
Entity
p370
(dp371
g11
(lp372
sg13
S'android.util.Xml$XmlSerializerFactory'
p373
sg15
(lp374
sg17
(lp375
sg19
(lp376
sg21
I0
sbasg204
(lp377
g359
ag366
ag373
asg21
I0
sg206
S'897'
p378
sba(iArchitecture
Cluster
p379
(dp380
g7
(lp381
(iArchitecture
Entity
p382
(dp383
g11
(lp384
sg13
S'com.android.server.job.controllers.StateController'
p385
sg15
(lp386
sg17
(lp387
sg19
(lp388
sg21
I0
sbasg204
(lp389
g385
asg21
I0
sg206
S'97'
p390
sba(iArchitecture
Cluster
p391
(dp392
g7
(lp393
(iArchitecture
Entity
p394
(dp395
g11
(lp396
sg13
S'com.android.internal.widget.LockPatternChecker'
p397
sg15
(lp398
sg17
(lp399
sg19
(lp400
sg21
I0
sba(iArchitecture
Entity
p401
(dp402
g11
(lp403
sg13
S'com.android.internal.widget.LockPatternChecker$1'
p404
sg15
(lp405
sg17
(lp406
sg19
(lp407
sg21
I0
sba(iArchitecture
Entity
p408
(dp409
g11
(lp410
sg13
S'com.android.internal.widget.LockPatternChecker$2'
p411
sg15
(lp412
sg17
(lp413
sg19
(lp414
sg21
I0
sba(iArchitecture
Entity
p415
(dp416
g11
(lp417
sg13
S'com.android.internal.widget.LockPatternChecker$3'
p418
sg15
(lp419
sg17
(lp420
sg19
(lp421
sg21
I0
sba(iArchitecture
Entity
p422
(dp423
g11
(lp424
sg13
S'com.android.internal.widget.LockPatternChecker$4'
p425
sg15
(lp426
sg17
(lp427
sg19
(lp428
sg21
I0
sba(iArchitecture
Entity
p429
(dp430
g11
(lp431
sg13
S'com.android.internal.widget.LockPatternChecker$OnCheckCallback'
p432
sg15
(lp433
sg17
(lp434
sg19
(lp435
sg21
I0
sba(iArchitecture
Entity
p436
(dp437
g11
(lp438
sg13
S'com.android.internal.widget.LockPatternChecker$OnVerifyCallback'
p439
sg15
(lp440
sg17
(lp441
sg19
(lp442
sg21
I0
sbasg204
(lp443
g397
ag404
ag411
ag418
ag425
ag432
ag439
asg21
I0
sg206
S'970'
p444
sba(iArchitecture
Cluster
p445
(dp446
g7
(lp447
(iArchitecture
Entity
p448
(dp449
g11
(lp450
sg13
S'android.media.session.MediaSessionManager'
p451
sg15
(lp452
sg17
(lp453
sg19
(lp454
sg21
I0
sba(iArchitecture
Entity
p455
(dp456
g11
(lp457
sg13
S'android.media.session.MediaSessionManager$OnActiveSessionsChangedListener'
p458
sg15
(lp459
sg17
(lp460
sg19
(lp461
sg21
I0
sba(iArchitecture
Entity
p462
(dp463
g11
(lp464
sg13
S'android.media.session.MediaSessionManager$SessionsChangedWrapper'
p465
sg15
(lp466
sg17
(lp467
sg19
(lp468
sg21
I0
sba(iArchitecture
Entity
p469
(dp470
g11
(lp471
sg13
S'android.media.session.MediaSessionManager$SessionsChangedWrapper$1'
p472
sg15
(lp473
sg17
(lp474
sg19
(lp475
sg21
I0
sba(iArchitecture
Entity
p476
(dp477
g11
(lp478
sg13
S'android.media.session.MediaSessionManager$SessionsChangedWrapper$1$1'
p479
sg15
(lp480
sg17
(lp481
sg19
(lp482
sg21
I0
sbasg204
(lp483
g451
ag458
ag465
ag472
ag479
asg21
I0
sg206
S'971'
p484
sba(iArchitecture
Cluster
p485
(dp486
g7
(lp487
(iArchitecture
Entity
p488
(dp489
g11
(lp490
sg13
S'android.gesture.GestureOverlayView'
p491
sg15
(lp492
sg17
(lp493
sg19
(lp494
sg21
I0
sba(iArchitecture
Entity
p495
(dp496
g11
(lp497
sg13
S'android.gesture.GestureOverlayView$FadeOutRunnable'
p498
sg15
(lp499
sg17
(lp500
sg19
(lp501
sg21
I0
sba(iArchitecture
Entity
p502
(dp503
g11
(lp504
sg13
S'android.gesture.GestureOverlayView$OnGestureListener'
p505
sg15
(lp506
sg17
(lp507
sg19
(lp508
sg21
I0
sba(iArchitecture
Entity
p509
(dp510
g11
(lp511
sg13
S'android.gesture.GestureOverlayView$OnGesturePerformedListener'
p512
sg15
(lp513
sg17
(lp514
sg19
(lp515
sg21
I0
sba(iArchitecture
Entity
p516
(dp517
g11
(lp518
sg13
S'android.gesture.GestureOverlayView$OnGesturingListener'
p519
sg15
(lp520
sg17
(lp521
sg19
(lp522
sg21
I0
sbasg204
(lp523
g491
ag498
ag505
ag512
ag519
asg21
I0
sg206
S'972'
p524
sba(iArchitecture
Cluster
p525
(dp526
g7
(lp527
(iArchitecture
Entity
p528
(dp529
g11
(lp530
sg13
S'android.media.session.PlaybackState'
p531
sg15
(lp532
sg17
(lp533
sg19
(lp534
sg21
I0
sba(iArchitecture
Entity
p535
(dp536
g11
(lp537
sg13
S'android.media.session.PlaybackState$1'
p538
sg15
(lp539
sg17
(lp540
sg19
(lp541
sg21
I0
sba(iArchitecture
Entity
p542
(dp543
g11
(lp544
sg13
S'android.media.session.PlaybackState$Builder'
p545
sg15
(lp546
sg17
(lp547
sg19
(lp548
sg21
I0
sba(iArchitecture
Entity
p549
(dp550
g11
(lp551
sg13
S'android.media.session.PlaybackState$CustomAction'
p552
sg15
(lp553
sg17
(lp554
sg19
(lp555
sg21
I0
sba(iArchitecture
Entity
p556
(dp557
g11
(lp558
sg13
S'android.media.session.PlaybackState$CustomAction$1'
p559
sg15
(lp560
sg17
(lp561
sg19
(lp562
sg21
I0
sba(iArchitecture
Entity
p563
(dp564
g11
(lp565
sg13
S'android.media.session.PlaybackState$CustomAction$Builder'
p566
sg15
(lp567
sg17
(lp568
sg19
(lp569
sg21
I0
sbasg204
(lp570
g531
ag538
ag545
ag552
ag559
ag566
asg21
I0
sg206
S'973'
p571
sba(iArchitecture
Cluster
p572
(dp573
g7
(lp574
(iArchitecture
Entity
p575
(dp576
g11
(lp577
sg13
S'android.text.util.Linkify'
p578
sg15
(lp579
sg17
(lp580
sg19
(lp581
sg21
I0
sba(iArchitecture
Entity
p582
(dp583
g11
(lp584
sg13
S'android.text.util.Linkify$1'
p585
sg15
(lp586
sg17
(lp587
sg19
(lp588
sg21
I0
sba(iArchitecture
Entity
p589
(dp590
g11
(lp591
sg13
S'android.text.util.Linkify$2'
p592
sg15
(lp593
sg17
(lp594
sg19
(lp595
sg21
I0
sba(iArchitecture
Entity
p596
(dp597
g11
(lp598
sg13
S'android.text.util.Linkify$3'
p599
sg15
(lp600
sg17
(lp601
sg19
(lp602
sg21
I0
sba(iArchitecture
Entity
p603
(dp604
g11
(lp605
sg13
S'android.text.util.Linkify$4'
p606
sg15
(lp607
sg17
(lp608
sg19
(lp609
sg21
I0
sba(iArchitecture
Entity
p610
(dp611
g11
(lp612
sg13
S'android.text.util.Linkify$MatchFilter'
p613
sg15
(lp614
sg17
(lp615
sg19
(lp616
sg21
I0
sba(iArchitecture
Entity
p617
(dp618
g11
(lp619
sg13
S'android.text.util.Linkify$TransformFilter'
p620
sg15
(lp621
sg17
(lp622
sg19
(lp623
sg21
I0
sbasg204
(lp624
g578
ag585
ag592
ag599
ag606
ag613
ag620
asg21
I0
sg206
S'974'
p625
sba(iArchitecture
Cluster
p626
(dp627
g7
(lp628
(iArchitecture
Entity
p629
(dp630
g11
(lp631
sg13
S'android.os.CommonClock'
p632
sg15
(lp633
sg17
(lp634
sg19
(lp635
sg21
I0
sba(iArchitecture
Entity
p636
(dp637
g11
(lp638
sg13
S'android.os.CommonClock$1'
p639
sg15
(lp640
sg17
(lp641
sg19
(lp642
sg21
I0
sba(iArchitecture
Entity
p643
(dp644
g11
(lp645
sg13
S'android.os.CommonClock$OnServerDiedListener'
p646
sg15
(lp647
sg17
(lp648
sg19
(lp649
sg21
I0
sba(iArchitecture
Entity
p650
(dp651
g11
(lp652
sg13
S'android.os.CommonClock$OnTimelineChangedListener'
p653
sg15
(lp654
sg17
(lp655
sg19
(lp656
sg21
I0
sba(iArchitecture
Entity
p657
(dp658
g11
(lp659
sg13
S'android.os.CommonClock$TimelineChangedListener'
p660
sg15
(lp661
sg17
(lp662
sg19
(lp663
sg21
I0
sbasg204
(lp664
g632
ag639
ag646
ag653
ag660
asg21
I0
sg206
S'975'
p665
sba(iArchitecture
Cluster
p666
(dp667
g7
(lp668
(iArchitecture
Entity
p669
(dp670
g11
(lp671
sg13
S'com.android.server.display.LocalDisplayAdapter'
p672
sg15
(lp673
sg17
(lp674
sg19
(lp675
sg21
I0
sba(iArchitecture
Entity
p676
(dp677
g11
(lp678
sg13
S'com.android.server.display.LocalDisplayAdapter$DisplayModeRecord'
p679
sg15
(lp680
sg17
(lp681
sg19
(lp682
sg21
I0
sba(iArchitecture
Entity
p683
(dp684
g11
(lp685
sg13
S'com.android.server.display.LocalDisplayAdapter$HotplugDisplayEventReceiver'
p686
sg15
(lp687
sg17
(lp688
sg19
(lp689
sg21
I0
sba(iArchitecture
Entity
p690
(dp691
g11
(lp692
sg13
S'com.android.server.display.LocalDisplayAdapter$LocalDisplayDevice'
p693
sg15
(lp694
sg17
(lp695
sg19
(lp696
sg21
I0
sba(iArchitecture
Entity
p697
(dp698
g11
(lp699
sg13
S'com.android.server.display.LocalDisplayAdapter$LocalDisplayDevice$1'
p700
sg15
(lp701
sg17
(lp702
sg19
(lp703
sg21
I0
sbasg204
(lp704
g672
ag679
ag686
ag693
ag700
asg21
I0
sg206
S'976'
p705
sba(iArchitecture
Cluster
p706
(dp707
g7
(lp708
(iArchitecture
Entity
p709
(dp710
g11
(lp711
sg13
S'com.android.server.firewall.IntentFirewall'
p712
sg15
(lp713
sg17
(lp714
sg19
(lp715
sg21
I0
sba(iArchitecture
Entity
p716
(dp717
g11
(lp718
sg13
S'com.android.server.firewall.IntentFirewall$AMSInterface'
p719
sg15
(lp720
sg17
(lp721
sg19
(lp722
sg21
I0
sba(iArchitecture
Entity
p723
(dp724
g11
(lp725
sg13
S'com.android.server.firewall.IntentFirewall$FirewallHandler'
p726
sg15
(lp727
sg17
(lp728
sg19
(lp729
sg21
I0
sba(iArchitecture
Entity
p730
(dp731
g11
(lp732
sg13
S'com.android.server.firewall.IntentFirewall$FirewallIntentFilter'
p733
sg15
(lp734
sg17
(lp735
sg19
(lp736
sg21
I0
sba(iArchitecture
Entity
p737
(dp738
g11
(lp739
sg13
S'com.android.server.firewall.IntentFirewall$FirewallIntentResolver'
p740
sg15
(lp741
sg17
(lp742
sg19
(lp743
sg21
I0
sba(iArchitecture
Entity
p744
(dp745
g11
(lp746
sg13
S'com.android.server.firewall.IntentFirewall$Rule'
p747
sg15
(lp748
sg17
(lp749
sg19
(lp750
sg21
I0
sba(iArchitecture
Entity
p751
(dp752
g11
(lp753
sg13
S'com.android.server.firewall.IntentFirewall$RuleObserver'
p754
sg15
(lp755
sg17
(lp756
sg19
(lp757
sg21
I0
sbasg204
(lp758
g712
ag719
ag726
ag733
ag740
ag747
ag754
asg21
I0
sg206
S'977'
p759
sba(iArchitecture
Cluster
p760
(dp761
g7
(lp762
(iArchitecture
Entity
p763
(dp764
g11
(lp765
sg13
S'com.android.server.CommonTimeManagementService'
p766
sg15
(lp767
sg17
(lp768
sg19
(lp769
sg21
I0
sba(iArchitecture
Entity
p770
(dp771
g11
(lp772
sg13
S'com.android.server.CommonTimeManagementService$1'
p773
sg15
(lp774
sg17
(lp775
sg19
(lp776
sg21
I0
sba(iArchitecture
Entity
p777
(dp778
g11
(lp779
sg13
S'com.android.server.CommonTimeManagementService$2'
p780
sg15
(lp781
sg17
(lp782
sg19
(lp783
sg21
I0
sba(iArchitecture
Entity
p784
(dp785
g11
(lp786
sg13
S'com.android.server.CommonTimeManagementService$3'
p787
sg15
(lp788
sg17
(lp789
sg19
(lp790
sg21
I0
sba(iArchitecture
Entity
p791
(dp792
g11
(lp793
sg13
S'com.android.server.CommonTimeManagementService$4'
p794
sg15
(lp795
sg17
(lp796
sg19
(lp797
sg21
I0
sba(iArchitecture
Entity
p798
(dp799
g11
(lp800
sg13
S'com.android.server.CommonTimeManagementService$5'
p801
sg15
(lp802
sg17
(lp803
sg19
(lp804
sg21
I0
sba(iArchitecture
Entity
p805
(dp806
g11
(lp807
sg13
S'com.android.server.CommonTimeManagementService$InterfaceScoreRule'
p808
sg15
(lp809
sg17
(lp810
sg19
(lp811
sg21
I0
sbasg204
(lp812
g766
ag773
ag780
ag787
ag794
ag801
ag808
asg21
I0
sg206
S'978'
p813
sba(iArchitecture
Cluster
p814
(dp815
g7
(lp816
(iArchitecture
Entity
p817
(dp818
g11
(lp819
sg13
S'com.android.server.AnyMotionDetector'
p820
sg15
(lp821
sg17
(lp822
sg19
(lp823
sg21
I0
sba(iArchitecture
Entity
p824
(dp825
g11
(lp826
sg13
S'com.android.server.AnyMotionDetector$1'
p827
sg15
(lp828
sg17
(lp829
sg19
(lp830
sg21
I0
sba(iArchitecture
Entity
p831
(dp832
g11
(lp833
sg13
S'com.android.server.AnyMotionDetector$2'
p834
sg15
(lp835
sg17
(lp836
sg19
(lp837
sg21
I0
sba(iArchitecture
Entity
p838
(dp839
g11
(lp840
sg13
S'com.android.server.AnyMotionDetector$3'
p841
sg15
(lp842
sg17
(lp843
sg19
(lp844
sg21
I0
sba(iArchitecture
Entity
p845
(dp846
g11
(lp847
sg13
S'com.android.server.AnyMotionDetector$DeviceIdleCallback'
p848
sg15
(lp849
sg17
(lp850
sg19
(lp851
sg21
I0
sba(iArchitecture
Entity
p852
(dp853
g11
(lp854
sg13
S'com.android.server.AnyMotionDetector$RunningSignalStats'
p855
sg15
(lp856
sg17
(lp857
sg19
(lp858
sg21
I0
sba(iArchitecture
Entity
p859
(dp860
g11
(lp861
sg13
S'com.android.server.AnyMotionDetector$Vector3'
p862
sg15
(lp863
sg17
(lp864
sg19
(lp865
sg21
I0
sbasg204
(lp866
g820
ag827
ag834
ag841
ag848
ag855
ag862
asg21
I0
sg206
S'979'
p867
sba(iArchitecture
Cluster
p868
(dp869
g7
(lp870
(iArchitecture
Entity
p871
(dp872
g11
(lp873
sg13
S'android.graphics.Paint'
p874
sg15
(lp875
sg17
(lp876
sg19
(lp877
sg21
I0
sba(iArchitecture
Entity
p878
(dp879
g11
(lp880
sg13
S'android.graphics.Paint$Align'
p881
sg15
(lp882
sg17
(lp883
sg19
(lp884
sg21
I0
sba(iArchitecture
Entity
p885
(dp886
g11
(lp887
sg13
S'android.graphics.Paint$Cap'
p888
sg15
(lp889
sg17
(lp890
sg19
(lp891
sg21
I0
sba(iArchitecture
Entity
p892
(dp893
g11
(lp894
sg13
S'android.graphics.Paint$FontMetrics'
p895
sg15
(lp896
sg17
(lp897
sg19
(lp898
sg21
I0
sba(iArchitecture
Entity
p899
(dp900
g11
(lp901
sg13
S'android.graphics.Paint$FontMetricsInt'
p902
sg15
(lp903
sg17
(lp904
sg19
(lp905
sg21
I0
sba(iArchitecture
Entity
p906
(dp907
g11
(lp908
sg13
S'android.graphics.Paint$Join'
p909
sg15
(lp910
sg17
(lp911
sg19
(lp912
sg21
I0
sba(iArchitecture
Entity
p913
(dp914
g11
(lp915
sg13
S'android.graphics.Paint$Style'
p916
sg15
(lp917
sg17
(lp918
sg19
(lp919
sg21
I0
sbasg204
(lp920
g874
ag881
ag888
ag895
ag902
ag909
ag916
asg21
I0
sg206
S'997'
p921
sbasS'target_sub'
p922
S'97'
p923
sg204
(lp924
sS'is_component_arch'
p925
I01
sg206
S'6.0.0_r1'
p926
sba.