(lp0
(iArchitecture
Architecture
p1
(dp2
S'clusters'
p3
(lp4
(iArchitecture
Cluster
p5
(dp6
S'entities'
p7
(lp8
(iArchitecture
Entity
p9
(dp10
S'issue_ids'
p11
(lp12
sS'name'
p13
S'com.android.server.media.MediaRouterService'
p14
sS'descs'
p15
(lp16
sS'labels'
p17
(lp18
sS'titles'
p19
(lp20
sS'change'
p21
I0
sba(iArchitecture
Entity
p22
(dp23
g11
(lp24
sg13
S'com.android.server.media.MediaRouterService$1'
p25
sg15
(lp26
sg17
(lp27
sg19
(lp28
sg21
I0
sba(iArchitecture
Entity
p29
(dp30
g11
(lp31
sg13
S'com.android.server.media.MediaRouterService$ClientRecord'
p32
sg15
(lp33
sg17
(lp34
sg19
(lp35
sg21
I0
sba(iArchitecture
Entity
p36
(dp37
g11
(lp38
sg13
S'com.android.server.media.MediaRouterService$UserHandler'
p39
sg15
(lp40
sg17
(lp41
sg19
(lp42
sg21
I0
sba(iArchitecture
Entity
p43
(dp44
g11
(lp45
sg13
S'com.android.server.media.MediaRouterService$UserHandler$ProviderRecord'
p46
sg15
(lp47
sg17
(lp48
sg19
(lp49
sg21
I0
sba(iArchitecture
Entity
p50
(dp51
g11
(lp52
sg13
S'com.android.server.media.MediaRouterService$UserHandler$RouteRecord'
p53
sg15
(lp54
sg17
(lp55
sg19
(lp56
sg21
I0
sba(iArchitecture
Entity
p57
(dp58
g11
(lp59
sg13
S'com.android.server.media.MediaRouterService$UserRecord'
p60
sg15
(lp61
sg17
(lp62
sg19
(lp63
sg21
I0
sba(iArchitecture
Entity
p64
(dp65
g11
(lp66
sg13
S'com.android.server.media.MediaRouterService$UserRecord$1'
p67
sg15
(lp68
sg17
(lp69
sg19
(lp70
sg21
I0
sbasS'classes'
p71
(lp72
g14
ag25
ag32
ag39
ag46
ag53
ag60
ag67
asg21
I0
sS'label'
p73
S'1048'
p74
sba(iArchitecture
Cluster
p75
(dp76
g7
(lp77
(iArchitecture
Entity
p78
(dp79
g11
(lp80
sg13
S'android.hardware.usb.UsbManager'
p81
sg15
(lp82
sg17
(lp83
sg19
(lp84
sg21
I0
sba(iArchitecture
Entity
p85
(dp86
g11
(lp87
sg13
S'com.android.server.usb.UsbDeviceManager'
p88
sg15
(lp89
sg17
(lp90
sg19
(lp91
sg21
I0
sba(iArchitecture
Entity
p92
(dp93
g11
(lp94
sg13
S'com.android.server.usb.UsbDeviceManager$1'
p95
sg15
(lp96
sg17
(lp97
sg19
(lp98
sg21
I0
sba(iArchitecture
Entity
p99
(dp100
g11
(lp101
sg13
S'com.android.server.usb.UsbDeviceManager$AdbSettingsObserver'
p102
sg15
(lp103
sg17
(lp104
sg19
(lp105
sg21
I0
sba(iArchitecture
Entity
p106
(dp107
g11
(lp108
sg13
S'com.android.server.usb.UsbDeviceManager$UsbHandler'
p109
sg15
(lp110
sg17
(lp111
sg19
(lp112
sg21
I0
sba(iArchitecture
Entity
p113
(dp114
g11
(lp115
sg13
S'com.android.server.usb.UsbService'
p116
sg15
(lp117
sg17
(lp118
sg19
(lp119
sg21
I0
sba(iArchitecture
Entity
p120
(dp121
g11
(lp122
sg13
S'com.android.server.usb.UsbService$1'
p123
sg15
(lp124
sg17
(lp125
sg19
(lp126
sg21
I0
sba(iArchitecture
Entity
p127
(dp128
g11
(lp129
sg13
S'com.android.server.usb.UsbService$Lifecycle'
p130
sg15
(lp131
sg17
(lp132
sg19
(lp133
sg21
I0
sbasg71
(lp134
g81
ag88
ag95
ag102
ag109
ag116
ag123
ag130
asg21
I0
sg73
S'1148'
p135
sba(iArchitecture
Cluster
p136
(dp137
g7
(lp138
(iArchitecture
Entity
p139
(dp140
g11
(lp141
sg13
S'android.hardware.input.InputManager'
p142
sg15
(lp143
sg17
(lp144
sg19
(lp145
sg21
I0
sba(iArchitecture
Entity
p146
(dp147
g11
(lp148
sg13
S'android.hardware.input.InputManager$InputDeviceListener'
p149
sg15
(lp150
sg17
(lp151
sg19
(lp152
sg21
I0
sba(iArchitecture
Entity
p153
(dp154
g11
(lp155
sg13
S'android.hardware.input.InputManager$InputDeviceListenerDelegate'
p156
sg15
(lp157
sg17
(lp158
sg19
(lp159
sg21
I0
sba(iArchitecture
Entity
p160
(dp161
g11
(lp162
sg13
S'android.hardware.input.InputManager$InputDeviceVibrator'
p163
sg15
(lp164
sg17
(lp165
sg19
(lp166
sg21
I0
sba(iArchitecture
Entity
p167
(dp168
g11
(lp169
sg13
S'android.hardware.input.InputManager$InputDevicesChangedListener'
p170
sg15
(lp171
sg17
(lp172
sg19
(lp173
sg21
I0
sba(iArchitecture
Entity
p174
(dp175
g11
(lp176
sg13
S'com.android.server.input.InputManagerService'
p177
sg15
(lp178
sg17
(lp179
sg19
(lp180
sg21
I0
sba(iArchitecture
Entity
p181
(dp182
g11
(lp183
sg13
S'com.android.server.input.InputManagerService$1'
p184
sg15
(lp185
sg17
(lp186
sg19
(lp187
sg21
I0
sba(iArchitecture
Entity
p188
(dp189
g11
(lp190
sg13
S'com.android.server.input.InputManagerService$2'
p191
sg15
(lp192
sg17
(lp193
sg19
(lp194
sg21
I0
sba(iArchitecture
Entity
p195
(dp196
g11
(lp197
sg13
S'com.android.server.input.InputManagerService$3'
p198
sg15
(lp199
sg17
(lp200
sg19
(lp201
sg21
I0
sba(iArchitecture
Entity
p202
(dp203
g11
(lp204
sg13
S'com.android.server.input.InputManagerService$4'
p205
sg15
(lp206
sg17
(lp207
sg19
(lp208
sg21
I0
sba(iArchitecture
Entity
p209
(dp210
g11
(lp211
sg13
S'com.android.server.input.InputManagerService$5'
p212
sg15
(lp213
sg17
(lp214
sg19
(lp215
sg21
I0
sba(iArchitecture
Entity
p216
(dp217
g11
(lp218
sg13
S'com.android.server.input.InputManagerService$6'
p219
sg15
(lp220
sg17
(lp221
sg19
(lp222
sg21
I0
sba(iArchitecture
Entity
p223
(dp224
g11
(lp225
sg13
S'com.android.server.input.InputManagerService$7'
p226
sg15
(lp227
sg17
(lp228
sg19
(lp229
sg21
I0
sba(iArchitecture
Entity
p230
(dp231
g11
(lp232
sg13
S'com.android.server.input.InputManagerService$8'
p233
sg15
(lp234
sg17
(lp235
sg19
(lp236
sg21
I0
sba(iArchitecture
Entity
p237
(dp238
g11
(lp239
sg13
S'com.android.server.input.InputManagerService$9'
p240
sg15
(lp241
sg17
(lp242
sg19
(lp243
sg21
I0
sba(iArchitecture
Entity
p244
(dp245
g11
(lp246
sg13
S'com.android.server.input.InputManagerService$InputDevicesChangedListenerRecord'
p247
sg15
(lp248
sg17
(lp249
sg19
(lp250
sg21
I0
sba(iArchitecture
Entity
p251
(dp252
g11
(lp253
sg13
S'com.android.server.input.InputManagerService$InputFilterHost'
p254
sg15
(lp255
sg17
(lp256
sg19
(lp257
sg21
I0
sba(iArchitecture
Entity
p258
(dp259
g11
(lp260
sg13
S'com.android.server.input.InputManagerService$InputManagerHandler'
p261
sg15
(lp262
sg17
(lp263
sg19
(lp264
sg21
I0
sba(iArchitecture
Entity
p265
(dp266
g11
(lp267
sg13
S'com.android.server.input.InputManagerService$KeyboardLayoutDescriptor'
p268
sg15
(lp269
sg17
(lp270
sg19
(lp271
sg21
I0
sba(iArchitecture
Entity
p272
(dp273
g11
(lp274
sg13
S'com.android.server.input.InputManagerService$KeyboardLayoutVisitor'
p275
sg15
(lp276
sg17
(lp277
sg19
(lp278
sg21
I0
sba(iArchitecture
Entity
p279
(dp280
g11
(lp281
sg13
S'com.android.server.input.InputManagerService$LocalService'
p282
sg15
(lp283
sg17
(lp284
sg19
(lp285
sg21
I0
sba(iArchitecture
Entity
p286
(dp287
g11
(lp288
sg13
S'com.android.server.input.InputManagerService$VibratorToken'
p289
sg15
(lp290
sg17
(lp291
sg19
(lp292
sg21
I0
sba(iArchitecture
Entity
p293
(dp294
g11
(lp295
sg13
S'com.android.server.input.InputManagerService$WindowManagerCallbacks'
p296
sg15
(lp297
sg17
(lp298
sg19
(lp299
sg21
I0
sba(iArchitecture
Entity
p300
(dp301
g11
(lp302
sg13
S'com.android.server.input.InputManagerService$WiredAccessoryCallbacks'
p303
sg15
(lp304
sg17
(lp305
sg19
(lp306
sg21
I0
sba(iArchitecture
Entity
p307
(dp308
g11
(lp309
sg13
S'com.android.server.input.PersistentDataStore'
p310
sg15
(lp311
sg17
(lp312
sg19
(lp313
sg21
I0
sba(iArchitecture
Entity
p314
(dp315
g11
(lp316
sg13
S'com.android.server.input.PersistentDataStore$InputDeviceState'
p317
sg15
(lp318
sg17
(lp319
sg19
(lp320
sg21
I0
sbasg71
(lp321
g142
ag149
ag156
ag163
ag170
ag177
ag184
ag191
ag198
ag205
ag212
ag219
ag226
ag233
ag240
ag247
ag254
ag261
ag268
ag275
ag282
ag289
ag296
ag303
ag310
ag317
asg21
I0
sg73
S'1248'
p322
sba(iArchitecture
Cluster
p323
(dp324
g7
(lp325
(iArchitecture
Entity
p326
(dp327
g11
(lp328
sg13
S'android.text.format.DateUtils'
p329
sg15
(lp330
sg17
(lp331
sg19
(lp332
sg21
I0
sbasg71
(lp333
g329
asg21
I0
sg73
S'148'
p334
sba(iArchitecture
Cluster
p335
(dp336
g7
(lp337
(iArchitecture
Entity
p338
(dp339
g11
(lp340
sg13
S'com.android.server.SystemService'
p341
sg15
(lp342
sg17
(lp343
sg19
(lp344
sg21
I0
sbasg71
(lp345
g341
asg21
I0
sg73
S'248'
p346
sba(iArchitecture
Cluster
p347
(dp348
g7
(lp349
(iArchitecture
Entity
p350
(dp351
g11
(lp352
sg13
S'android.view.TouchDelegate'
p353
sg15
(lp354
sg17
(lp355
sg19
(lp356
sg21
I0
sbasg71
(lp357
g353
asg21
I0
sg73
S'348'
p358
sba(iArchitecture
Cluster
p359
(dp360
g7
(lp361
(iArchitecture
Entity
p362
(dp363
g11
(lp364
sg13
S'com.android.server.policy.BarController'
p365
sg15
(lp366
sg17
(lp367
sg19
(lp368
sg21
I0
sba(iArchitecture
Entity
p369
(dp370
g11
(lp371
sg13
S'com.android.server.policy.BarController$1'
p372
sg15
(lp373
sg17
(lp374
sg19
(lp375
sg21
I0
sbasg71
(lp376
g365
ag372
asg21
I0
sg73
S'448'
p377
sba(iArchitecture
Cluster
p378
(dp379
g7
(lp380
(iArchitecture
Entity
p381
(dp382
g11
(lp383
sg13
S'android.bluetooth.BluetoothGattService'
p384
sg15
(lp385
sg17
(lp386
sg19
(lp387
sg21
I0
sbasg71
(lp388
g384
asg21
I0
sg73
S'48'
p389
sba(iArchitecture
Cluster
p390
(dp391
g7
(lp392
(iArchitecture
Entity
p393
(dp394
g11
(lp395
sg13
S'android.content.pm.ConfigurationInfo'
p396
sg15
(lp397
sg17
(lp398
sg19
(lp399
sg21
I0
sba(iArchitecture
Entity
p400
(dp401
g11
(lp402
sg13
S'android.content.pm.ConfigurationInfo$1'
p403
sg15
(lp404
sg17
(lp405
sg19
(lp406
sg21
I0
sbasg71
(lp407
g396
ag403
asg21
I0
sg73
S'480'
p408
sba(iArchitecture
Cluster
p409
(dp410
g7
(lp411
(iArchitecture
Entity
p412
(dp413
g11
(lp414
sg13
S'com.android.server.display.ColorFade'
p415
sg15
(lp416
sg17
(lp417
sg19
(lp418
sg21
I0
sba(iArchitecture
Entity
p419
(dp420
g11
(lp421
sg13
S'com.android.server.display.ColorFade$NaturalSurfaceLayout'
p422
sg15
(lp423
sg17
(lp424
sg19
(lp425
sg21
I0
sbasg71
(lp426
g415
ag422
asg21
I0
sg73
S'481'
p427
sba(iArchitecture
Cluster
p428
(dp429
g7
(lp430
(iArchitecture
Entity
p431
(dp432
g11
(lp433
sg13
S'com.android.server.am.UserSwitchingDialog'
p434
sg15
(lp435
sg17
(lp436
sg19
(lp437
sg21
I0
sba(iArchitecture
Entity
p438
(dp439
g11
(lp440
sg13
S'com.android.server.am.UserSwitchingDialog$1'
p441
sg15
(lp442
sg17
(lp443
sg19
(lp444
sg21
I0
sbasg71
(lp445
g434
ag441
asg21
I0
sg73
S'482'
p446
sba(iArchitecture
Cluster
p447
(dp448
g7
(lp449
(iArchitecture
Entity
p450
(dp451
g11
(lp452
sg13
S'android.media.VolumeProvider'
p453
sg15
(lp454
sg17
(lp455
sg19
(lp456
sg21
I0
sba(iArchitecture
Entity
p457
(dp458
g11
(lp459
sg13
S'android.media.VolumeProvider$Callback'
p460
sg15
(lp461
sg17
(lp462
sg19
(lp463
sg21
I0
sbasg71
(lp464
g453
ag460
asg21
I0
sg73
S'483'
p465
sba(iArchitecture
Cluster
p466
(dp467
g7
(lp468
(iArchitecture
Entity
p469
(dp470
g11
(lp471
sg13
S'android.app.admin.DevicePolicyManagerInternal'
p472
sg15
(lp473
sg17
(lp474
sg19
(lp475
sg21
I0
sba(iArchitecture
Entity
p476
(dp477
g11
(lp478
sg13
S'android.app.admin.DevicePolicyManagerInternal$OnCrossProfileWidgetProvidersChangeListener'
p479
sg15
(lp480
sg17
(lp481
sg19
(lp482
sg21
I0
sbasg71
(lp483
g472
ag479
asg21
I0
sg73
S'484'
p484
sba(iArchitecture
Cluster
p485
(dp486
g7
(lp487
(iArchitecture
Entity
p488
(dp489
g11
(lp490
sg13
S'android.provider.UserDictionary'
p491
sg15
(lp492
sg17
(lp493
sg19
(lp494
sg21
I0
sba(iArchitecture
Entity
p495
(dp496
g11
(lp497
sg13
S'android.provider.UserDictionary$Words'
p498
sg15
(lp499
sg17
(lp500
sg19
(lp501
sg21
I0
sbasg71
(lp502
g491
ag498
asg21
I0
sg73
S'485'
p503
sba(iArchitecture
Cluster
p504
(dp505
g7
(lp506
(iArchitecture
Entity
p507
(dp508
g11
(lp509
sg13
S'com.android.server.policy.SystemGesturesPointerEventListener'
p510
sg15
(lp511
sg17
(lp512
sg19
(lp513
sg21
I0
sba(iArchitecture
Entity
p514
(dp515
g11
(lp516
sg13
S'com.android.server.policy.SystemGesturesPointerEventListener$Callbacks'
p517
sg15
(lp518
sg17
(lp519
sg19
(lp520
sg21
I0
sbasg71
(lp521
g510
ag517
asg21
I0
sg73
S'486'
p522
sba(iArchitecture
Cluster
p523
(dp524
g7
(lp525
(iArchitecture
Entity
p526
(dp527
g11
(lp528
sg13
S'android.content.ClipDescription'
p529
sg15
(lp530
sg17
(lp531
sg19
(lp532
sg21
I0
sba(iArchitecture
Entity
p533
(dp534
g11
(lp535
sg13
S'android.content.ClipDescription$1'
p536
sg15
(lp537
sg17
(lp538
sg19
(lp539
sg21
I0
sbasg71
(lp540
g529
ag536
asg21
I0
sg73
S'487'
p541
sba(iArchitecture
Cluster
p542
(dp543
g7
(lp544
(iArchitecture
Entity
p545
(dp546
g11
(lp547
sg13
S'android.content.RestrictionEntry'
p548
sg15
(lp549
sg17
(lp550
sg19
(lp551
sg21
I0
sba(iArchitecture
Entity
p552
(dp553
g11
(lp554
sg13
S'android.content.RestrictionEntry$1'
p555
sg15
(lp556
sg17
(lp557
sg19
(lp558
sg21
I0
sbasg71
(lp559
g548
ag555
asg21
I0
sg73
S'488'
p560
sba(iArchitecture
Cluster
p561
(dp562
g7
(lp563
(iArchitecture
Entity
p564
(dp565
g11
(lp566
sg13
S'android.database.CursorToBulkCursorAdaptor'
p567
sg15
(lp568
sg17
(lp569
sg19
(lp570
sg21
I0
sba(iArchitecture
Entity
p571
(dp572
g11
(lp573
sg13
S'android.database.CursorToBulkCursorAdaptor$ContentObserverProxy'
p574
sg15
(lp575
sg17
(lp576
sg19
(lp577
sg21
I0
sbasg71
(lp578
g567
ag574
asg21
I0
sg73
S'489'
p579
sba(iArchitecture
Cluster
p580
(dp581
g7
(lp582
(iArchitecture
Entity
p583
(dp584
g11
(lp585
sg13
S'android.app.usage.ConfigurationStats'
p586
sg15
(lp587
sg17
(lp588
sg19
(lp589
sg21
I0
sba(iArchitecture
Entity
p590
(dp591
g11
(lp592
sg13
S'android.app.usage.ConfigurationStats$1'
p593
sg15
(lp594
sg17
(lp595
sg19
(lp596
sg21
I0
sbasg71
(lp597
g586
ag593
asg21
I0
sg73
S'548'
p598
sba(iArchitecture
Cluster
p599
(dp600
g7
(lp601
(iArchitecture
Entity
p602
(dp603
g11
(lp604
sg13
S'android.bluetooth.BluetoothHealthAppConfiguration'
p605
sg15
(lp606
sg17
(lp607
sg19
(lp608
sg21
I0
sba(iArchitecture
Entity
p609
(dp610
g11
(lp611
sg13
S'android.bluetooth.BluetoothHealthAppConfiguration$1'
p612
sg15
(lp613
sg17
(lp614
sg19
(lp615
sg21
I0
sbasg71
(lp616
g605
ag612
asg21
I0
sg73
S'648'
p617
sba(iArchitecture
Cluster
p618
(dp619
g7
(lp620
(iArchitecture
Entity
p621
(dp622
g11
(lp623
sg13
S'android.preference.PreferenceGroupAdapter'
p624
sg15
(lp625
sg17
(lp626
sg19
(lp627
sg21
I0
sba(iArchitecture
Entity
p628
(dp629
g11
(lp630
sg13
S'android.preference.PreferenceGroupAdapter$1'
p631
sg15
(lp632
sg17
(lp633
sg19
(lp634
sg21
I0
sba(iArchitecture
Entity
p635
(dp636
g11
(lp637
sg13
S'android.preference.PreferenceGroupAdapter$PreferenceLayout'
p638
sg15
(lp639
sg17
(lp640
sg19
(lp641
sg21
I0
sbasg71
(lp642
g624
ag631
ag638
asg21
I0
sg73
S'748'
p643
sba(iArchitecture
Cluster
p644
(dp645
g7
(lp646
(iArchitecture
Entity
p647
(dp648
g11
(lp649
sg13
S'android.view.RenderNodeAnimator'
p650
sg15
(lp651
sg17
(lp652
sg19
(lp653
sg21
I0
sba(iArchitecture
Entity
p654
(dp655
g11
(lp656
sg13
S'android.view.RenderNodeAnimator$1'
p657
sg15
(lp658
sg17
(lp659
sg19
(lp660
sg21
I0
sba(iArchitecture
Entity
p661
(dp662
g11
(lp663
sg13
S'android.view.RenderNodeAnimator$DelayedAnimationHelper'
p664
sg15
(lp665
sg17
(lp666
sg19
(lp667
sg21
I0
sbasg71
(lp668
g650
ag657
ag664
asg21
I0
sg73
S'848'
p669
sba(iArchitecture
Cluster
p670
(dp671
g7
(lp672
(iArchitecture
Entity
p673
(dp674
g11
(lp675
sg13
S'android.location.GpsStatus'
p676
sg15
(lp677
sg17
(lp678
sg19
(lp679
sg21
I0
sba(iArchitecture
Entity
p680
(dp681
g11
(lp682
sg13
S'android.location.GpsStatus$1'
p683
sg15
(lp684
sg17
(lp685
sg19
(lp686
sg21
I0
sba(iArchitecture
Entity
p687
(dp688
g11
(lp689
sg13
S'android.location.GpsStatus$Listener'
p690
sg15
(lp691
sg17
(lp692
sg19
(lp693
sg21
I0
sba(iArchitecture
Entity
p694
(dp695
g11
(lp696
sg13
S'android.location.GpsStatus$NmeaListener'
p697
sg15
(lp698
sg17
(lp699
sg19
(lp700
sg21
I0
sba(iArchitecture
Entity
p701
(dp702
g11
(lp703
sg13
S'android.location.GpsStatus$SatelliteIterator'
p704
sg15
(lp705
sg17
(lp706
sg19
(lp707
sg21
I0
sbasg71
(lp708
g676
ag683
ag690
ag697
ag704
asg21
I0
sg73
S'948'
p709
sbasS'target_sub'
p710
S'48'
p711
sg71
(lp712
sS'is_component_arch'
p713
I01
sg73
S'6.0.0_r1'
p714
sba.