(lp0
(iArchitecture
Architecture
p1
(dp2
S'clusters'
p3
(lp4
(iArchitecture
Cluster
p5
(dp6
S'entities'
p7
(lp8
(iArchitecture
Entity
p9
(dp10
S'issue_ids'
p11
(lp12
sS'name'
p13
S'android.view.textservice.SpellCheckerSession'
p14
sS'descs'
p15
(lp16
sS'labels'
p17
(lp18
sS'titles'
p19
(lp20
sS'change'
p21
I0
sba(iArchitecture
Entity
p22
(dp23
g11
(lp24
sg13
S'android.view.textservice.SpellCheckerSession$1'
p25
sg15
(lp26
sg17
(lp27
sg19
(lp28
sg21
I0
sba(iArchitecture
Entity
p29
(dp30
g11
(lp31
sg13
S'android.view.textservice.SpellCheckerSession$InternalListener'
p32
sg15
(lp33
sg17
(lp34
sg19
(lp35
sg21
I0
sba(iArchitecture
Entity
p36
(dp37
g11
(lp38
sg13
S'android.view.textservice.SpellCheckerSession$SpellCheckerSessionListener'
p39
sg15
(lp40
sg17
(lp41
sg19
(lp42
sg21
I0
sba(iArchitecture
Entity
p43
(dp44
g11
(lp45
sg13
S'android.view.textservice.SpellCheckerSession$SpellCheckerSessionListenerImpl'
p46
sg15
(lp47
sg17
(lp48
sg19
(lp49
sg21
I0
sba(iArchitecture
Entity
p50
(dp51
g11
(lp52
sg13
S'android.view.textservice.SpellCheckerSession$SpellCheckerSessionListenerImpl$1'
p53
sg15
(lp54
sg17
(lp55
sg19
(lp56
sg21
I0
sba(iArchitecture
Entity
p57
(dp58
g11
(lp59
sg13
S'android.view.textservice.SpellCheckerSession$SpellCheckerSessionListenerImpl$SpellCheckerParams'
p60
sg15
(lp61
sg17
(lp62
sg19
(lp63
sg21
I0
sbasS'classes'
p64
(lp65
g14
ag25
ag32
ag39
ag46
ag53
ag60
asg21
I0
sS'label'
p66
S'1043'
p67
sba(iArchitecture
Cluster
p68
(dp69
g7
(lp70
(iArchitecture
Entity
p71
(dp72
g11
(lp73
sg13
S'android.os.UserManager'
p74
sg15
(lp75
sg17
(lp76
sg19
(lp77
sg21
I0
sba(iArchitecture
Entity
p78
(dp79
g11
(lp80
sg13
S'com.android.server.pm.UserManagerService'
p81
sg15
(lp82
sg17
(lp83
sg19
(lp84
sg21
I0
sba(iArchitecture
Entity
p85
(dp86
g11
(lp87
sg13
S'com.android.server.pm.UserManagerService$1'
p88
sg15
(lp89
sg17
(lp90
sg19
(lp91
sg21
I0
sba(iArchitecture
Entity
p92
(dp93
g11
(lp94
sg13
S'com.android.server.pm.UserManagerService$2'
p95
sg15
(lp96
sg17
(lp97
sg19
(lp98
sg21
I0
sba(iArchitecture
Entity
p99
(dp100
g11
(lp101
sg13
S'com.android.server.pm.UserManagerService$2$1'
p102
sg15
(lp103
sg17
(lp104
sg19
(lp105
sg21
I0
sba(iArchitecture
Entity
p106
(dp107
g11
(lp108
sg13
S'com.android.server.pm.UserManagerService$3'
p109
sg15
(lp110
sg17
(lp111
sg19
(lp112
sg21
I0
sba(iArchitecture
Entity
p113
(dp114
g11
(lp115
sg13
S'com.android.server.pm.UserManagerService$MainHandler'
p116
sg15
(lp117
sg17
(lp118
sg19
(lp119
sg21
I0
sbasg64
(lp120
g74
ag81
ag88
ag95
ag102
ag109
ag116
asg21
I0
sg66
S'1143'
p121
sba(iArchitecture
Cluster
p122
(dp123
g7
(lp124
(iArchitecture
Entity
p125
(dp126
g11
(lp127
sg13
S'android.app.ActivityGroup'
p128
sg15
(lp129
sg17
(lp130
sg19
(lp131
sg21
I0
sba(iArchitecture
Entity
p132
(dp133
g11
(lp134
sg13
S'android.app.ActivityManagerNative'
p135
sg15
(lp136
sg17
(lp137
sg19
(lp138
sg21
I0
sba(iArchitecture
Entity
p139
(dp140
g11
(lp141
sg13
S'android.app.ActivityManagerNative$1'
p142
sg15
(lp143
sg17
(lp144
sg19
(lp145
sg21
I0
sba(iArchitecture
Entity
p146
(dp147
g11
(lp148
sg13
S'android.app.AppGlobals'
p149
sg15
(lp150
sg17
(lp151
sg19
(lp152
sg21
I0
sba(iArchitecture
Entity
p153
(dp154
g11
(lp155
sg13
S'com.android.internal.app.ShutdownActivity'
p156
sg15
(lp157
sg17
(lp158
sg19
(lp159
sg21
I0
sba(iArchitecture
Entity
p160
(dp161
g11
(lp162
sg13
S'com.android.internal.app.ShutdownActivity$1'
p163
sg15
(lp164
sg17
(lp165
sg19
(lp166
sg21
I0
sba(iArchitecture
Entity
p167
(dp168
g11
(lp169
sg13
S'com.android.server.location.FlpHardwareProvider'
p170
sg15
(lp171
sg17
(lp172
sg19
(lp173
sg21
I0
sba(iArchitecture
Entity
p174
(dp175
g11
(lp176
sg13
S'com.android.server.location.FlpHardwareProvider$1'
p177
sg15
(lp178
sg17
(lp179
sg19
(lp180
sg21
I0
sba(iArchitecture
Entity
p181
(dp182
g11
(lp183
sg13
S'com.android.server.location.FlpHardwareProvider$2'
p184
sg15
(lp185
sg17
(lp186
sg19
(lp187
sg21
I0
sba(iArchitecture
Entity
p188
(dp189
g11
(lp190
sg13
S'com.android.server.location.FlpHardwareProvider$NetworkLocationListener'
p191
sg15
(lp192
sg17
(lp193
sg19
(lp194
sg21
I0
sbasg64
(lp195
g128
ag135
ag142
ag149
ag156
ag163
ag170
ag177
ag184
ag191
asg21
I0
sg66
S'1243'
p196
sba(iArchitecture
Cluster
p197
(dp198
g7
(lp199
(iArchitecture
Entity
p200
(dp201
g11
(lp202
sg13
S'com.android.server.notification.ZenModeConditions'
p203
sg15
(lp204
sg17
(lp205
sg19
(lp206
sg21
I0
sbasg64
(lp207
g203
asg21
I0
sg66
S'143'
p208
sba(iArchitecture
Cluster
p209
(dp210
g7
(lp211
(iArchitecture
Entity
p212
(dp213
g11
(lp214
sg13
S'android.text.SpanSet'
p215
sg15
(lp216
sg17
(lp217
sg19
(lp218
sg21
I0
sbasg64
(lp219
g215
asg21
I0
sg66
S'243'
p220
sba(iArchitecture
Cluster
p221
(dp222
g7
(lp223
(iArchitecture
Entity
p224
(dp225
g11
(lp226
sg13
S'android.media.MediaHTTPConnection'
p227
sg15
(lp228
sg17
(lp229
sg19
(lp230
sg21
I0
sbasg64
(lp231
g227
asg21
I0
sg66
S'343'
p232
sba(iArchitecture
Cluster
p233
(dp234
g7
(lp235
(iArchitecture
Entity
p236
(dp237
g11
(lp238
sg13
S'android.app.admin.DevicePolicyManager'
p239
sg15
(lp240
sg17
(lp241
sg19
(lp242
sg21
I0
sbasg64
(lp243
g239
asg21
I0
sg66
S'43'
p244
sba(iArchitecture
Cluster
p245
(dp246
g7
(lp247
(iArchitecture
Entity
p248
(dp249
g11
(lp250
sg13
S'com.android.server.location.GeocoderProxy'
p251
sg15
(lp252
sg17
(lp253
sg19
(lp254
sg21
I0
sbasg64
(lp255
g251
asg21
I0
sg66
S'430'
p256
sba(iArchitecture
Cluster
p257
(dp258
g7
(lp259
(iArchitecture
Entity
p260
(dp261
g11
(lp262
sg13
S'android.net.WebAddress'
p263
sg15
(lp264
sg17
(lp265
sg19
(lp266
sg21
I0
sbasg64
(lp267
g263
asg21
I0
sg66
S'431'
p268
sba(iArchitecture
Cluster
p269
(dp270
g7
(lp271
(iArchitecture
Entity
p272
(dp273
g11
(lp274
sg13
S'android.os.Looper'
p275
sg15
(lp276
sg17
(lp277
sg19
(lp278
sg21
I0
sbasg64
(lp279
g275
asg21
I0
sg66
S'432'
p280
sba(iArchitecture
Cluster
p281
(dp282
g7
(lp283
(iArchitecture
Entity
p284
(dp285
g11
(lp286
sg13
S'com.android.internal.midi.MidiFramer'
p287
sg15
(lp288
sg17
(lp289
sg19
(lp290
sg21
I0
sbasg64
(lp291
g287
asg21
I0
sg66
S'433'
p292
sba(iArchitecture
Cluster
p293
(dp294
g7
(lp295
(iArchitecture
Entity
p296
(dp297
g11
(lp298
sg13
S'com.android.server.pm.PackageSettingBase'
p299
sg15
(lp300
sg17
(lp301
sg19
(lp302
sg21
I0
sbasg64
(lp303
g299
asg21
I0
sg66
S'434'
p304
sba(iArchitecture
Cluster
p305
(dp306
g7
(lp307
(iArchitecture
Entity
p308
(dp309
g11
(lp310
sg13
S'android.app.FragmentHostCallback'
p311
sg15
(lp312
sg17
(lp313
sg19
(lp314
sg21
I0
sbasg64
(lp315
g311
asg21
I0
sg66
S'435'
p316
sba(iArchitecture
Cluster
p317
(dp318
g7
(lp319
(iArchitecture
Entity
p320
(dp321
g11
(lp322
sg13
S'android.filterfw.core.NativeProgram'
p323
sg15
(lp324
sg17
(lp325
sg19
(lp326
sg21
I0
sbasg64
(lp327
g323
asg21
I0
sg66
S'436'
p328
sba(iArchitecture
Cluster
p329
(dp330
g7
(lp331
(iArchitecture
Entity
p332
(dp333
g11
(lp334
sg13
S'android.hardware.camera2.CaptureFailure'
p335
sg15
(lp336
sg17
(lp337
sg19
(lp338
sg21
I0
sbasg64
(lp339
g335
asg21
I0
sg66
S'437'
p340
sba(iArchitecture
Cluster
p341
(dp342
g7
(lp343
(iArchitecture
Entity
p344
(dp345
g11
(lp346
sg13
S'android.security.keystore.AndroidKeyStoreKeyFactorySpi'
p347
sg15
(lp348
sg17
(lp349
sg19
(lp350
sg21
I0
sbasg64
(lp351
g347
asg21
I0
sg66
S'438'
p352
sba(iArchitecture
Cluster
p353
(dp354
g7
(lp355
(iArchitecture
Entity
p356
(dp357
g11
(lp358
sg13
S'android.net.MailTo'
p359
sg15
(lp360
sg17
(lp361
sg19
(lp362
sg21
I0
sbasg64
(lp363
g359
asg21
I0
sg66
S'439'
p364
sba(iArchitecture
Cluster
p365
(dp366
g7
(lp367
(iArchitecture
Entity
p368
(dp369
g11
(lp370
sg13
S'android.view.InputChannel'
p371
sg15
(lp372
sg17
(lp373
sg19
(lp374
sg21
I0
sba(iArchitecture
Entity
p375
(dp376
g11
(lp377
sg13
S'android.view.InputChannel$1'
p378
sg15
(lp379
sg17
(lp380
sg19
(lp381
sg21
I0
sbasg64
(lp382
g371
ag378
asg21
I0
sg66
S'443'
p383
sba(iArchitecture
Cluster
p384
(dp385
g7
(lp386
(iArchitecture
Entity
p387
(dp388
g11
(lp389
sg13
S'android.graphics.drawable.InsetDrawable'
p390
sg15
(lp391
sg17
(lp392
sg19
(lp393
sg21
I0
sba(iArchitecture
Entity
p394
(dp395
g11
(lp396
sg13
S'android.graphics.drawable.InsetDrawable$InsetState'
p397
sg15
(lp398
sg17
(lp399
sg19
(lp400
sg21
I0
sbasg64
(lp401
g390
ag397
asg21
I0
sg66
S'543'
p402
sba(iArchitecture
Cluster
p403
(dp404
g7
(lp405
(iArchitecture
Entity
p406
(dp407
g11
(lp408
sg13
S'com.android.internal.telephony.CellNetworkScanResult'
p409
sg15
(lp410
sg17
(lp411
sg19
(lp412
sg21
I0
sba(iArchitecture
Entity
p413
(dp414
g11
(lp415
sg13
S'com.android.internal.telephony.CellNetworkScanResult$1'
p416
sg15
(lp417
sg17
(lp418
sg19
(lp419
sg21
I0
sbasg64
(lp420
g409
ag416
asg21
I0
sg66
S'643'
p421
sba(iArchitecture
Cluster
p422
(dp423
g7
(lp424
(iArchitecture
Entity
p425
(dp426
g11
(lp427
sg13
S'android.view.inputmethod.InputMethodSubtype'
p428
sg15
(lp429
sg17
(lp430
sg19
(lp431
sg21
I0
sba(iArchitecture
Entity
p432
(dp433
g11
(lp434
sg13
S'android.view.inputmethod.InputMethodSubtype$1'
p435
sg15
(lp436
sg17
(lp437
sg19
(lp438
sg21
I0
sba(iArchitecture
Entity
p439
(dp440
g11
(lp441
sg13
S'android.view.inputmethod.InputMethodSubtype$InputMethodSubtypeBuilder'
p442
sg15
(lp443
sg17
(lp444
sg19
(lp445
sg21
I0
sbasg64
(lp446
g428
ag435
ag442
asg21
I0
sg66
S'743'
p447
sba(iArchitecture
Cluster
p448
(dp449
g7
(lp450
(iArchitecture
Entity
p451
(dp452
g11
(lp453
sg13
S'com.android.internal.midi.EventScheduler'
p454
sg15
(lp455
sg17
(lp456
sg19
(lp457
sg21
I0
sba(iArchitecture
Entity
p458
(dp459
g11
(lp460
sg13
S'com.android.internal.midi.EventScheduler$FastEventQueue'
p461
sg15
(lp462
sg17
(lp463
sg19
(lp464
sg21
I0
sba(iArchitecture
Entity
p465
(dp466
g11
(lp467
sg13
S'com.android.internal.midi.EventScheduler$SchedulableEvent'
p468
sg15
(lp469
sg17
(lp470
sg19
(lp471
sg21
I0
sbasg64
(lp472
g454
ag461
ag468
asg21
I0
sg66
S'843'
p473
sba(iArchitecture
Cluster
p474
(dp475
g7
(lp476
(iArchitecture
Entity
p477
(dp478
g11
(lp479
sg13
S'com.android.server.accounts.TokenCache'
p480
sg15
(lp481
sg17
(lp482
sg19
(lp483
sg21
I0
sba(iArchitecture
Entity
p484
(dp485
g11
(lp486
sg13
S'com.android.server.accounts.TokenCache$Key'
p487
sg15
(lp488
sg17
(lp489
sg19
(lp490
sg21
I0
sba(iArchitecture
Entity
p491
(dp492
g11
(lp493
sg13
S'com.android.server.accounts.TokenCache$TokenLruCache'
p494
sg15
(lp495
sg17
(lp496
sg19
(lp497
sg21
I0
sba(iArchitecture
Entity
p498
(dp499
g11
(lp500
sg13
S'com.android.server.accounts.TokenCache$TokenLruCache$Evictor'
p501
sg15
(lp502
sg17
(lp503
sg19
(lp504
sg21
I0
sba(iArchitecture
Entity
p505
(dp506
g11
(lp507
sg13
S'com.android.server.accounts.TokenCache$Value'
p508
sg15
(lp509
sg17
(lp510
sg19
(lp511
sg21
I0
sbasg64
(lp512
g480
ag487
ag494
ag501
ag508
asg21
I0
sg66
S'943'
p513
sbasS'target_sub'
p514
S'43'
p515
sg64
(lp516
sS'is_component_arch'
p517
I01
sg66
S'6.0.0_r1'
p518
sba.