(lp0
(iArchitecture
Architecture
p1
(dp2
S'clusters'
p3
(lp4
(iArchitecture
Cluster
p5
(dp6
S'entities'
p7
(lp8
(iArchitecture
Entity
p9
(dp10
S'issue_ids'
p11
(lp12
sS'name'
p13
S'android.app.SystemServiceRegistry'
p14
sS'descs'
p15
(lp16
sS'labels'
p17
(lp18
sS'titles'
p19
(lp20
sS'change'
p21
I0
sba(iArchitecture
Entity
p22
(dp23
g11
(lp24
sg13
S'android.app.SystemServiceRegistry$1'
p25
sg15
(lp26
sg17
(lp27
sg19
(lp28
sg21
I0
sba(iArchitecture
Entity
p29
(dp30
g11
(lp31
sg13
S'android.app.SystemServiceRegistry$10'
p32
sg15
(lp33
sg17
(lp34
sg19
(lp35
sg21
I0
sba(iArchitecture
Entity
p36
(dp37
g11
(lp38
sg13
S'android.app.SystemServiceRegistry$11'
p39
sg15
(lp40
sg17
(lp41
sg19
(lp42
sg21
I0
sba(iArchitecture
Entity
p43
(dp44
g11
(lp45
sg13
S'android.app.SystemServiceRegistry$12'
p46
sg15
(lp47
sg17
(lp48
sg19
(lp49
sg21
I0
sba(iArchitecture
Entity
p50
(dp51
g11
(lp52
sg13
S'android.app.SystemServiceRegistry$13'
p53
sg15
(lp54
sg17
(lp55
sg19
(lp56
sg21
I0
sba(iArchitecture
Entity
p57
(dp58
g11
(lp59
sg13
S'android.app.SystemServiceRegistry$14'
p60
sg15
(lp61
sg17
(lp62
sg19
(lp63
sg21
I0
sba(iArchitecture
Entity
p64
(dp65
g11
(lp66
sg13
S'android.app.SystemServiceRegistry$15'
p67
sg15
(lp68
sg17
(lp69
sg19
(lp70
sg21
I0
sba(iArchitecture
Entity
p71
(dp72
g11
(lp73
sg13
S'android.app.SystemServiceRegistry$16'
p74
sg15
(lp75
sg17
(lp76
sg19
(lp77
sg21
I0
sba(iArchitecture
Entity
p78
(dp79
g11
(lp80
sg13
S'android.app.SystemServiceRegistry$17'
p81
sg15
(lp82
sg17
(lp83
sg19
(lp84
sg21
I0
sba(iArchitecture
Entity
p85
(dp86
g11
(lp87
sg13
S'android.app.SystemServiceRegistry$18'
p88
sg15
(lp89
sg17
(lp90
sg19
(lp91
sg21
I0
sba(iArchitecture
Entity
p92
(dp93
g11
(lp94
sg13
S'android.app.SystemServiceRegistry$19'
p95
sg15
(lp96
sg17
(lp97
sg19
(lp98
sg21
I0
sba(iArchitecture
Entity
p99
(dp100
g11
(lp101
sg13
S'android.app.SystemServiceRegistry$2'
p102
sg15
(lp103
sg17
(lp104
sg19
(lp105
sg21
I0
sba(iArchitecture
Entity
p106
(dp107
g11
(lp108
sg13
S'android.app.SystemServiceRegistry$20'
p109
sg15
(lp110
sg17
(lp111
sg19
(lp112
sg21
I0
sba(iArchitecture
Entity
p113
(dp114
g11
(lp115
sg13
S'android.app.SystemServiceRegistry$21'
p116
sg15
(lp117
sg17
(lp118
sg19
(lp119
sg21
I0
sba(iArchitecture
Entity
p120
(dp121
g11
(lp122
sg13
S'android.app.SystemServiceRegistry$22'
p123
sg15
(lp124
sg17
(lp125
sg19
(lp126
sg21
I0
sba(iArchitecture
Entity
p127
(dp128
g11
(lp129
sg13
S'android.app.SystemServiceRegistry$23'
p130
sg15
(lp131
sg17
(lp132
sg19
(lp133
sg21
I0
sba(iArchitecture
Entity
p134
(dp135
g11
(lp136
sg13
S'android.app.SystemServiceRegistry$24'
p137
sg15
(lp138
sg17
(lp139
sg19
(lp140
sg21
I0
sba(iArchitecture
Entity
p141
(dp142
g11
(lp143
sg13
S'android.app.SystemServiceRegistry$25'
p144
sg15
(lp145
sg17
(lp146
sg19
(lp147
sg21
I0
sba(iArchitecture
Entity
p148
(dp149
g11
(lp150
sg13
S'android.app.SystemServiceRegistry$26'
p151
sg15
(lp152
sg17
(lp153
sg19
(lp154
sg21
I0
sba(iArchitecture
Entity
p155
(dp156
g11
(lp157
sg13
S'android.app.SystemServiceRegistry$27'
p158
sg15
(lp159
sg17
(lp160
sg19
(lp161
sg21
I0
sba(iArchitecture
Entity
p162
(dp163
g11
(lp164
sg13
S'android.app.SystemServiceRegistry$28'
p165
sg15
(lp166
sg17
(lp167
sg19
(lp168
sg21
I0
sba(iArchitecture
Entity
p169
(dp170
g11
(lp171
sg13
S'android.app.SystemServiceRegistry$29'
p172
sg15
(lp173
sg17
(lp174
sg19
(lp175
sg21
I0
sba(iArchitecture
Entity
p176
(dp177
g11
(lp178
sg13
S'android.app.SystemServiceRegistry$3'
p179
sg15
(lp180
sg17
(lp181
sg19
(lp182
sg21
I0
sba(iArchitecture
Entity
p183
(dp184
g11
(lp185
sg13
S'android.app.SystemServiceRegistry$30'
p186
sg15
(lp187
sg17
(lp188
sg19
(lp189
sg21
I0
sba(iArchitecture
Entity
p190
(dp191
g11
(lp192
sg13
S'android.app.SystemServiceRegistry$31'
p193
sg15
(lp194
sg17
(lp195
sg19
(lp196
sg21
I0
sba(iArchitecture
Entity
p197
(dp198
g11
(lp199
sg13
S'android.app.SystemServiceRegistry$32'
p200
sg15
(lp201
sg17
(lp202
sg19
(lp203
sg21
I0
sba(iArchitecture
Entity
p204
(dp205
g11
(lp206
sg13
S'android.app.SystemServiceRegistry$33'
p207
sg15
(lp208
sg17
(lp209
sg19
(lp210
sg21
I0
sba(iArchitecture
Entity
p211
(dp212
g11
(lp213
sg13
S'android.app.SystemServiceRegistry$34'
p214
sg15
(lp215
sg17
(lp216
sg19
(lp217
sg21
I0
sba(iArchitecture
Entity
p218
(dp219
g11
(lp220
sg13
S'android.app.SystemServiceRegistry$35'
p221
sg15
(lp222
sg17
(lp223
sg19
(lp224
sg21
I0
sba(iArchitecture
Entity
p225
(dp226
g11
(lp227
sg13
S'android.app.SystemServiceRegistry$36'
p228
sg15
(lp229
sg17
(lp230
sg19
(lp231
sg21
I0
sba(iArchitecture
Entity
p232
(dp233
g11
(lp234
sg13
S'android.app.SystemServiceRegistry$37'
p235
sg15
(lp236
sg17
(lp237
sg19
(lp238
sg21
I0
sba(iArchitecture
Entity
p239
(dp240
g11
(lp241
sg13
S'android.app.SystemServiceRegistry$38'
p242
sg15
(lp243
sg17
(lp244
sg19
(lp245
sg21
I0
sba(iArchitecture
Entity
p246
(dp247
g11
(lp248
sg13
S'android.app.SystemServiceRegistry$39'
p249
sg15
(lp250
sg17
(lp251
sg19
(lp252
sg21
I0
sba(iArchitecture
Entity
p253
(dp254
g11
(lp255
sg13
S'android.app.SystemServiceRegistry$4'
p256
sg15
(lp257
sg17
(lp258
sg19
(lp259
sg21
I0
sba(iArchitecture
Entity
p260
(dp261
g11
(lp262
sg13
S'android.app.SystemServiceRegistry$40'
p263
sg15
(lp264
sg17
(lp265
sg19
(lp266
sg21
I0
sba(iArchitecture
Entity
p267
(dp268
g11
(lp269
sg13
S'android.app.SystemServiceRegistry$41'
p270
sg15
(lp271
sg17
(lp272
sg19
(lp273
sg21
I0
sba(iArchitecture
Entity
p274
(dp275
g11
(lp276
sg13
S'android.app.SystemServiceRegistry$42'
p277
sg15
(lp278
sg17
(lp279
sg19
(lp280
sg21
I0
sba(iArchitecture
Entity
p281
(dp282
g11
(lp283
sg13
S'android.app.SystemServiceRegistry$43'
p284
sg15
(lp285
sg17
(lp286
sg19
(lp287
sg21
I0
sba(iArchitecture
Entity
p288
(dp289
g11
(lp290
sg13
S'android.app.SystemServiceRegistry$44'
p291
sg15
(lp292
sg17
(lp293
sg19
(lp294
sg21
I0
sba(iArchitecture
Entity
p295
(dp296
g11
(lp297
sg13
S'android.app.SystemServiceRegistry$45'
p298
sg15
(lp299
sg17
(lp300
sg19
(lp301
sg21
I0
sba(iArchitecture
Entity
p302
(dp303
g11
(lp304
sg13
S'android.app.SystemServiceRegistry$46'
p305
sg15
(lp306
sg17
(lp307
sg19
(lp308
sg21
I0
sba(iArchitecture
Entity
p309
(dp310
g11
(lp311
sg13
S'android.app.SystemServiceRegistry$47'
p312
sg15
(lp313
sg17
(lp314
sg19
(lp315
sg21
I0
sba(iArchitecture
Entity
p316
(dp317
g11
(lp318
sg13
S'android.app.SystemServiceRegistry$48'
p319
sg15
(lp320
sg17
(lp321
sg19
(lp322
sg21
I0
sba(iArchitecture
Entity
p323
(dp324
g11
(lp325
sg13
S'android.app.SystemServiceRegistry$49'
p326
sg15
(lp327
sg17
(lp328
sg19
(lp329
sg21
I0
sba(iArchitecture
Entity
p330
(dp331
g11
(lp332
sg13
S'android.app.SystemServiceRegistry$5'
p333
sg15
(lp334
sg17
(lp335
sg19
(lp336
sg21
I0
sba(iArchitecture
Entity
p337
(dp338
g11
(lp339
sg13
S'android.app.SystemServiceRegistry$50'
p340
sg15
(lp341
sg17
(lp342
sg19
(lp343
sg21
I0
sba(iArchitecture
Entity
p344
(dp345
g11
(lp346
sg13
S'android.app.SystemServiceRegistry$51'
p347
sg15
(lp348
sg17
(lp349
sg19
(lp350
sg21
I0
sba(iArchitecture
Entity
p351
(dp352
g11
(lp353
sg13
S'android.app.SystemServiceRegistry$52'
p354
sg15
(lp355
sg17
(lp356
sg19
(lp357
sg21
I0
sba(iArchitecture
Entity
p358
(dp359
g11
(lp360
sg13
S'android.app.SystemServiceRegistry$53'
p361
sg15
(lp362
sg17
(lp363
sg19
(lp364
sg21
I0
sba(iArchitecture
Entity
p365
(dp366
g11
(lp367
sg13
S'android.app.SystemServiceRegistry$54'
p368
sg15
(lp369
sg17
(lp370
sg19
(lp371
sg21
I0
sba(iArchitecture
Entity
p372
(dp373
g11
(lp374
sg13
S'android.app.SystemServiceRegistry$55'
p375
sg15
(lp376
sg17
(lp377
sg19
(lp378
sg21
I0
sba(iArchitecture
Entity
p379
(dp380
g11
(lp381
sg13
S'android.app.SystemServiceRegistry$56'
p382
sg15
(lp383
sg17
(lp384
sg19
(lp385
sg21
I0
sba(iArchitecture
Entity
p386
(dp387
g11
(lp388
sg13
S'android.app.SystemServiceRegistry$57'
p389
sg15
(lp390
sg17
(lp391
sg19
(lp392
sg21
I0
sba(iArchitecture
Entity
p393
(dp394
g11
(lp395
sg13
S'android.app.SystemServiceRegistry$58'
p396
sg15
(lp397
sg17
(lp398
sg19
(lp399
sg21
I0
sba(iArchitecture
Entity
p400
(dp401
g11
(lp402
sg13
S'android.app.SystemServiceRegistry$59'
p403
sg15
(lp404
sg17
(lp405
sg19
(lp406
sg21
I0
sba(iArchitecture
Entity
p407
(dp408
g11
(lp409
sg13
S'android.app.SystemServiceRegistry$6'
p410
sg15
(lp411
sg17
(lp412
sg19
(lp413
sg21
I0
sba(iArchitecture
Entity
p414
(dp415
g11
(lp416
sg13
S'android.app.SystemServiceRegistry$60'
p417
sg15
(lp418
sg17
(lp419
sg19
(lp420
sg21
I0
sba(iArchitecture
Entity
p421
(dp422
g11
(lp423
sg13
S'android.app.SystemServiceRegistry$61'
p424
sg15
(lp425
sg17
(lp426
sg19
(lp427
sg21
I0
sba(iArchitecture
Entity
p428
(dp429
g11
(lp430
sg13
S'android.app.SystemServiceRegistry$62'
p431
sg15
(lp432
sg17
(lp433
sg19
(lp434
sg21
I0
sba(iArchitecture
Entity
p435
(dp436
g11
(lp437
sg13
S'android.app.SystemServiceRegistry$63'
p438
sg15
(lp439
sg17
(lp440
sg19
(lp441
sg21
I0
sba(iArchitecture
Entity
p442
(dp443
g11
(lp444
sg13
S'android.app.SystemServiceRegistry$64'
p445
sg15
(lp446
sg17
(lp447
sg19
(lp448
sg21
I0
sba(iArchitecture
Entity
p449
(dp450
g11
(lp451
sg13
S'android.app.SystemServiceRegistry$65'
p452
sg15
(lp453
sg17
(lp454
sg19
(lp455
sg21
I0
sba(iArchitecture
Entity
p456
(dp457
g11
(lp458
sg13
S'android.app.SystemServiceRegistry$66'
p459
sg15
(lp460
sg17
(lp461
sg19
(lp462
sg21
I0
sba(iArchitecture
Entity
p463
(dp464
g11
(lp465
sg13
S'android.app.SystemServiceRegistry$67'
p466
sg15
(lp467
sg17
(lp468
sg19
(lp469
sg21
I0
sba(iArchitecture
Entity
p470
(dp471
g11
(lp472
sg13
S'android.app.SystemServiceRegistry$68'
p473
sg15
(lp474
sg17
(lp475
sg19
(lp476
sg21
I0
sba(iArchitecture
Entity
p477
(dp478
g11
(lp479
sg13
S'android.app.SystemServiceRegistry$7'
p480
sg15
(lp481
sg17
(lp482
sg19
(lp483
sg21
I0
sba(iArchitecture
Entity
p484
(dp485
g11
(lp486
sg13
S'android.app.SystemServiceRegistry$8'
p487
sg15
(lp488
sg17
(lp489
sg19
(lp490
sg21
I0
sba(iArchitecture
Entity
p491
(dp492
g11
(lp493
sg13
S'android.app.SystemServiceRegistry$9'
p494
sg15
(lp495
sg17
(lp496
sg19
(lp497
sg21
I0
sba(iArchitecture
Entity
p498
(dp499
g11
(lp500
sg13
S'android.app.SystemServiceRegistry$CachedServiceFetcher'
p501
sg15
(lp502
sg17
(lp503
sg19
(lp504
sg21
I0
sba(iArchitecture
Entity
p505
(dp506
g11
(lp507
sg13
S'android.app.SystemServiceRegistry$ServiceFetcher'
p508
sg15
(lp509
sg17
(lp510
sg19
(lp511
sg21
I0
sba(iArchitecture
Entity
p512
(dp513
g11
(lp514
sg13
S'android.app.SystemServiceRegistry$StaticOuterContextServiceFetcher'
p515
sg15
(lp516
sg17
(lp517
sg19
(lp518
sg21
I0
sba(iArchitecture
Entity
p519
(dp520
g11
(lp521
sg13
S'android.app.SystemServiceRegistry$StaticServiceFetcher'
p522
sg15
(lp523
sg17
(lp524
sg19
(lp525
sg21
I0
sbasS'classes'
p526
(lp527
g14
ag25
ag32
ag39
ag46
ag53
ag60
ag67
ag74
ag81
ag88
ag95
ag102
ag109
ag116
ag123
ag130
ag137
ag144
ag151
ag158
ag165
ag172
ag179
ag186
ag193
ag200
ag207
ag214
ag221
ag228
ag235
ag242
ag249
ag256
ag263
ag270
ag277
ag284
ag291
ag298
ag305
ag312
ag319
ag326
ag333
ag340
ag347
ag354
ag361
ag368
ag375
ag382
ag389
ag396
ag403
ag410
ag417
ag424
ag431
ag438
ag445
ag452
ag459
ag466
ag473
ag480
ag487
ag494
ag501
ag508
ag515
ag522
asg21
I0
sS'label'
p528
S'1099'
p529
sba(iArchitecture
Cluster
p530
(dp531
g7
(lp532
(iArchitecture
Entity
p533
(dp534
g11
(lp535
sg13
S'android.app.trust.TrustManager'
p536
sg15
(lp537
sg17
(lp538
sg19
(lp539
sg21
I0
sba(iArchitecture
Entity
p540
(dp541
g11
(lp542
sg13
S'android.app.trust.TrustManager$1'
p543
sg15
(lp544
sg17
(lp545
sg19
(lp546
sg21
I0
sba(iArchitecture
Entity
p547
(dp548
g11
(lp549
sg13
S'android.app.trust.TrustManager$2'
p550
sg15
(lp551
sg17
(lp552
sg19
(lp553
sg21
I0
sba(iArchitecture
Entity
p554
(dp555
g11
(lp556
sg13
S'android.app.trust.TrustManager$TrustListener'
p557
sg15
(lp558
sg17
(lp559
sg19
(lp560
sg21
I0
sba(iArchitecture
Entity
p561
(dp562
g11
(lp563
sg13
S'android.app.usage.UsageStatsManagerInternal'
p564
sg15
(lp565
sg17
(lp566
sg19
(lp567
sg21
I0
sba(iArchitecture
Entity
p568
(dp569
g11
(lp570
sg13
S'android.app.usage.UsageStatsManagerInternal$AppIdleStateChangeListener'
p571
sg15
(lp572
sg17
(lp573
sg19
(lp574
sg21
I0
sbasg526
(lp575
g536
ag543
ag550
ag557
ag564
ag571
asg21
I0
sg528
S'1199'
p576
sba(iArchitecture
Cluster
p577
(dp578
g7
(lp579
(iArchitecture
Entity
p580
(dp581
g11
(lp582
sg13
S'android.bluetooth.BluetoothGattDescriptor'
p583
sg15
(lp584
sg17
(lp585
sg19
(lp586
sg21
I0
sbasg526
(lp587
g583
asg21
I0
sg528
S'199'
p588
sba(iArchitecture
Cluster
p589
(dp590
g7
(lp591
(iArchitecture
Entity
p592
(dp593
g11
(lp594
sg13
S'android.view.FrameStats'
p595
sg15
(lp596
sg17
(lp597
sg19
(lp598
sg21
I0
sbasg526
(lp599
g595
asg21
I0
sg528
S'299'
p600
sba(iArchitecture
Cluster
p601
(dp602
g7
(lp603
(iArchitecture
Entity
p604
(dp605
g11
(lp606
sg13
S'com.android.server.content.SyncOperation'
p607
sg15
(lp608
sg17
(lp609
sg19
(lp610
sg21
I0
sbasg526
(lp611
g607
asg21
I0
sg528
S'399'
p612
sba(iArchitecture
Cluster
p613
(dp614
g7
(lp615
(iArchitecture
Entity
p616
(dp617
g11
(lp618
sg13
S'android.service.chooser.ChooserTarget'
p619
sg15
(lp620
sg17
(lp621
sg19
(lp622
sg21
I0
sba(iArchitecture
Entity
p623
(dp624
g11
(lp625
sg13
S'android.service.chooser.ChooserTarget$1'
p626
sg15
(lp627
sg17
(lp628
sg19
(lp629
sg21
I0
sbasg526
(lp630
g619
ag626
asg21
I0
sg528
S'499'
p631
sba(iArchitecture
Cluster
p632
(dp633
g7
(lp634
(iArchitecture
Entity
p635
(dp636
g11
(lp637
sg13
S'android.content.pm.PermissionInfo'
p638
sg15
(lp639
sg17
(lp640
sg19
(lp641
sg21
I0
sba(iArchitecture
Entity
p642
(dp643
g11
(lp644
sg13
S'android.content.pm.PermissionInfo$1'
p645
sg15
(lp646
sg17
(lp647
sg19
(lp648
sg21
I0
sbasg526
(lp649
g638
ag645
asg21
I0
sg528
S'599'
p650
sba(iArchitecture
Cluster
p651
(dp652
g7
(lp653
(iArchitecture
Entity
p654
(dp655
g11
(lp656
sg13
S'android.widget.RatingBar'
p657
sg15
(lp658
sg17
(lp659
sg19
(lp660
sg21
I0
sba(iArchitecture
Entity
p661
(dp662
g11
(lp663
sg13
S'android.widget.RatingBar$OnRatingBarChangeListener'
p664
sg15
(lp665
sg17
(lp666
sg19
(lp667
sg21
I0
sbasg526
(lp668
g657
ag664
asg21
I0
sg528
S'699'
p669
sba(iArchitecture
Cluster
p670
(dp671
g7
(lp672
(iArchitecture
Entity
p673
(dp674
g11
(lp675
sg13
S'android.app.admin.DeviceAdminInfo'
p676
sg15
(lp677
sg17
(lp678
sg19
(lp679
sg21
I0
sba(iArchitecture
Entity
p680
(dp681
g11
(lp682
sg13
S'android.app.admin.DeviceAdminInfo$1'
p683
sg15
(lp684
sg17
(lp685
sg19
(lp686
sg21
I0
sba(iArchitecture
Entity
p687
(dp688
g11
(lp689
sg13
S'android.app.admin.DeviceAdminInfo$PolicyInfo'
p690
sg15
(lp691
sg17
(lp692
sg19
(lp693
sg21
I0
sbasg526
(lp694
g676
ag683
ag690
asg21
I0
sg528
S'799'
p695
sba(iArchitecture
Cluster
p696
(dp697
g7
(lp698
(iArchitecture
Entity
p699
(dp700
g11
(lp701
sg13
S'com.android.server.wm.AppTransition'
p702
sg15
(lp703
sg17
(lp704
sg19
(lp705
sg21
I0
sba(iArchitecture
Entity
p706
(dp707
g11
(lp708
sg13
S'com.android.server.wm.AppTransition$1'
p709
sg15
(lp710
sg17
(lp711
sg19
(lp712
sg21
I0
sba(iArchitecture
Entity
p713
(dp714
g11
(lp715
sg13
S'com.android.server.wm.AppTransition$2'
p716
sg15
(lp717
sg17
(lp718
sg19
(lp719
sg21
I0
sbasg526
(lp720
g702
ag709
ag716
asg21
I0
sg528
S'899'
p721
sba(iArchitecture
Cluster
p722
(dp723
g7
(lp724
(iArchitecture
Entity
p725
(dp726
g11
(lp727
sg13
S'android.mtp.MtpObjectInfo'
p728
sg15
(lp729
sg17
(lp730
sg19
(lp731
sg21
I0
sbasg526
(lp732
g728
asg21
I0
sg528
S'99'
p733
sba(iArchitecture
Cluster
p734
(dp735
g7
(lp736
(iArchitecture
Entity
p737
(dp738
g11
(lp739
sg13
S'com.android.server.display.OverlayDisplayWindow'
p740
sg15
(lp741
sg17
(lp742
sg19
(lp743
sg21
I0
sba(iArchitecture
Entity
p744
(dp745
g11
(lp746
sg13
S'com.android.server.display.OverlayDisplayWindow$1'
p747
sg15
(lp748
sg17
(lp749
sg19
(lp750
sg21
I0
sba(iArchitecture
Entity
p751
(dp752
g11
(lp753
sg13
S'com.android.server.display.OverlayDisplayWindow$2'
p754
sg15
(lp755
sg17
(lp756
sg19
(lp757
sg21
I0
sba(iArchitecture
Entity
p758
(dp759
g11
(lp760
sg13
S'com.android.server.display.OverlayDisplayWindow$3'
p761
sg15
(lp762
sg17
(lp763
sg19
(lp764
sg21
I0
sba(iArchitecture
Entity
p765
(dp766
g11
(lp767
sg13
S'com.android.server.display.OverlayDisplayWindow$4'
p768
sg15
(lp769
sg17
(lp770
sg19
(lp771
sg21
I0
sba(iArchitecture
Entity
p772
(dp773
g11
(lp774
sg13
S'com.android.server.display.OverlayDisplayWindow$5'
p775
sg15
(lp776
sg17
(lp777
sg19
(lp778
sg21
I0
sba(iArchitecture
Entity
p779
(dp780
g11
(lp781
sg13
S'com.android.server.display.OverlayDisplayWindow$Listener'
p782
sg15
(lp783
sg17
(lp784
sg19
(lp785
sg21
I0
sbasg526
(lp786
g740
ag747
ag754
ag761
ag768
ag775
ag782
asg21
I0
sg528
S'990'
p787
sba(iArchitecture
Cluster
p788
(dp789
g7
(lp790
(iArchitecture
Entity
p791
(dp792
g11
(lp793
sg13
S'android.media.MediaSync'
p794
sg15
(lp795
sg17
(lp796
sg19
(lp797
sg21
I0
sba(iArchitecture
Entity
p798
(dp799
g11
(lp800
sg13
S'android.media.MediaSync$1'
p801
sg15
(lp802
sg17
(lp803
sg19
(lp804
sg21
I0
sba(iArchitecture
Entity
p805
(dp806
g11
(lp807
sg13
S'android.media.MediaSync$2'
p808
sg15
(lp809
sg17
(lp810
sg19
(lp811
sg21
I0
sba(iArchitecture
Entity
p812
(dp813
g11
(lp814
sg13
S'android.media.MediaSync$3'
p815
sg15
(lp816
sg17
(lp817
sg19
(lp818
sg21
I0
sba(iArchitecture
Entity
p819
(dp820
g11
(lp821
sg13
S'android.media.MediaSync$AudioBuffer'
p822
sg15
(lp823
sg17
(lp824
sg19
(lp825
sg21
I0
sba(iArchitecture
Entity
p826
(dp827
g11
(lp828
sg13
S'android.media.MediaSync$Callback'
p829
sg15
(lp830
sg17
(lp831
sg19
(lp832
sg21
I0
sba(iArchitecture
Entity
p833
(dp834
g11
(lp835
sg13
S'android.media.MediaSync$OnErrorListener'
p836
sg15
(lp837
sg17
(lp838
sg19
(lp839
sg21
I0
sbasg526
(lp840
g794
ag801
ag808
ag815
ag822
ag829
ag836
asg21
I0
sg528
S'991'
p841
sba(iArchitecture
Cluster
p842
(dp843
g7
(lp844
(iArchitecture
Entity
p845
(dp846
g11
(lp847
sg13
S'com.android.server.NativeDaemonConnector'
p848
sg15
(lp849
sg17
(lp850
sg19
(lp851
sg21
I0
sba(iArchitecture
Entity
p852
(dp853
g11
(lp854
sg13
S'com.android.server.NativeDaemonConnector$Command'
p855
sg15
(lp856
sg17
(lp857
sg19
(lp858
sg21
I0
sba(iArchitecture
Entity
p859
(dp860
g11
(lp861
sg13
S'com.android.server.NativeDaemonConnector$NativeDaemonArgumentException'
p862
sg15
(lp863
sg17
(lp864
sg19
(lp865
sg21
I0
sba(iArchitecture
Entity
p866
(dp867
g11
(lp868
sg13
S'com.android.server.NativeDaemonConnector$NativeDaemonFailureException'
p869
sg15
(lp870
sg17
(lp871
sg19
(lp872
sg21
I0
sba(iArchitecture
Entity
p873
(dp874
g11
(lp875
sg13
S'com.android.server.NativeDaemonConnector$ResponseQueue'
p876
sg15
(lp877
sg17
(lp878
sg19
(lp879
sg21
I0
sba(iArchitecture
Entity
p880
(dp881
g11
(lp882
sg13
S'com.android.server.NativeDaemonConnector$ResponseQueue$PendingCmd'
p883
sg15
(lp884
sg17
(lp885
sg19
(lp886
sg21
I0
sba(iArchitecture
Entity
p887
(dp888
g11
(lp889
sg13
S'com.android.server.NativeDaemonConnector$SensitiveArg'
p890
sg15
(lp891
sg17
(lp892
sg19
(lp893
sg21
I0
sbasg526
(lp894
g848
ag855
ag862
ag869
ag876
ag883
ag890
asg21
I0
sg528
S'992'
p895
sba(iArchitecture
Cluster
p896
(dp897
g7
(lp898
(iArchitecture
Entity
p899
(dp900
g11
(lp901
sg13
S'com.android.server.usb.UsbPortManager'
p902
sg15
(lp903
sg17
(lp904
sg19
(lp905
sg21
I0
sba(iArchitecture
Entity
p906
(dp907
g11
(lp908
sg13
S'com.android.server.usb.UsbPortManager$1'
p909
sg15
(lp910
sg17
(lp911
sg19
(lp912
sg21
I0
sba(iArchitecture
Entity
p913
(dp914
g11
(lp915
sg13
S'com.android.server.usb.UsbPortManager$2'
p916
sg15
(lp917
sg17
(lp918
sg19
(lp919
sg21
I0
sba(iArchitecture
Entity
p920
(dp921
g11
(lp922
sg13
S'com.android.server.usb.UsbPortManager$3'
p923
sg15
(lp924
sg17
(lp925
sg19
(lp926
sg21
I0
sba(iArchitecture
Entity
p927
(dp928
g11
(lp929
sg13
S'com.android.server.usb.UsbPortManager$PortInfo'
p930
sg15
(lp931
sg17
(lp932
sg19
(lp933
sg21
I0
sba(iArchitecture
Entity
p934
(dp935
g11
(lp936
sg13
S'com.android.server.usb.UsbPortManager$SimulatedPortInfo'
p937
sg15
(lp938
sg17
(lp939
sg19
(lp940
sg21
I0
sbasg526
(lp941
g902
ag909
ag916
ag923
ag930
ag937
asg21
I0
sg528
S'993'
p942
sba(iArchitecture
Cluster
p943
(dp944
g7
(lp945
(iArchitecture
Entity
p946
(dp947
g11
(lp948
sg13
S'android.hardware.display.DisplayManagerGlobal'
p949
sg15
(lp950
sg17
(lp951
sg19
(lp952
sg21
I0
sba(iArchitecture
Entity
p953
(dp954
g11
(lp955
sg13
S'android.hardware.display.DisplayManagerGlobal$DisplayListenerDelegate'
p956
sg15
(lp957
sg17
(lp958
sg19
(lp959
sg21
I0
sba(iArchitecture
Entity
p960
(dp961
g11
(lp962
sg13
S'android.hardware.display.DisplayManagerGlobal$DisplayManagerCallback'
p963
sg15
(lp964
sg17
(lp965
sg19
(lp966
sg21
I0
sba(iArchitecture
Entity
p967
(dp968
g11
(lp969
sg13
S'android.hardware.display.DisplayManagerGlobal$VirtualDisplayCallback'
p970
sg15
(lp971
sg17
(lp972
sg19
(lp973
sg21
I0
sba(iArchitecture
Entity
p974
(dp975
g11
(lp976
sg13
S'android.hardware.display.DisplayManagerGlobal$VirtualDisplayCallbackDelegate'
p977
sg15
(lp978
sg17
(lp979
sg19
(lp980
sg21
I0
sbasg526
(lp981
g949
ag956
ag963
ag970
ag977
asg21
I0
sg528
S'994'
p982
sba(iArchitecture
Cluster
p983
(dp984
g7
(lp985
(iArchitecture
Entity
p986
(dp987
g11
(lp988
sg13
S'android.hardware.SystemSensorManager'
p989
sg15
(lp990
sg17
(lp991
sg19
(lp992
sg21
I0
sba(iArchitecture
Entity
p993
(dp994
g11
(lp995
sg13
S'android.hardware.SystemSensorManager$BaseEventQueue'
p996
sg15
(lp997
sg17
(lp998
sg19
(lp999
sg21
I0
sba(iArchitecture
Entity
p1000
(dp1001
g11
(lp1002
sg13
S'android.hardware.SystemSensorManager$InjectEventQueue'
p1003
sg15
(lp1004
sg17
(lp1005
sg19
(lp1006
sg21
I0
sba(iArchitecture
Entity
p1007
(dp1008
g11
(lp1009
sg13
S'android.hardware.SystemSensorManager$SensorEventQueue'
p1010
sg15
(lp1011
sg17
(lp1012
sg19
(lp1013
sg21
I0
sba(iArchitecture
Entity
p1014
(dp1015
g11
(lp1016
sg13
S'android.hardware.SystemSensorManager$TriggerEventQueue'
p1017
sg15
(lp1018
sg17
(lp1019
sg19
(lp1020
sg21
I0
sbasg526
(lp1021
g989
ag996
ag1003
ag1010
ag1017
asg21
I0
sg528
S'995'
p1022
sba(iArchitecture
Cluster
p1023
(dp1024
g7
(lp1025
(iArchitecture
Entity
p1026
(dp1027
g11
(lp1028
sg13
S'com.android.server.am.TaskPersister'
p1029
sg15
(lp1030
sg17
(lp1031
sg19
(lp1032
sg21
I0
sba(iArchitecture
Entity
p1033
(dp1034
g11
(lp1035
sg13
S'com.android.server.am.TaskPersister$1'
p1036
sg15
(lp1037
sg17
(lp1038
sg19
(lp1039
sg21
I0
sba(iArchitecture
Entity
p1040
(dp1041
g11
(lp1042
sg13
S'com.android.server.am.TaskPersister$ImageWriteQueueItem'
p1043
sg15
(lp1044
sg17
(lp1045
sg19
(lp1046
sg21
I0
sba(iArchitecture
Entity
p1047
(dp1048
g11
(lp1049
sg13
S'com.android.server.am.TaskPersister$LazyTaskWriterThread'
p1050
sg15
(lp1051
sg17
(lp1052
sg19
(lp1053
sg21
I0
sba(iArchitecture
Entity
p1054
(dp1055
g11
(lp1056
sg13
S'com.android.server.am.TaskPersister$TaskWriteQueueItem'
p1057
sg15
(lp1058
sg17
(lp1059
sg19
(lp1060
sg21
I0
sba(iArchitecture
Entity
p1061
(dp1062
g11
(lp1063
sg13
S'com.android.server.am.TaskPersister$WriteQueueItem'
p1064
sg15
(lp1065
sg17
(lp1066
sg19
(lp1067
sg21
I0
sbasg526
(lp1068
g1029
ag1036
ag1043
ag1050
ag1057
ag1064
asg21
I0
sg528
S'996'
p1069
sba(iArchitecture
Cluster
p1070
(dp1071
g7
(lp1072
(iArchitecture
Entity
p1073
(dp1074
g11
(lp1075
sg13
S'android.graphics.Paint'
p1076
sg15
(lp1077
sg17
(lp1078
sg19
(lp1079
sg21
I0
sba(iArchitecture
Entity
p1080
(dp1081
g11
(lp1082
sg13
S'android.graphics.Paint$Align'
p1083
sg15
(lp1084
sg17
(lp1085
sg19
(lp1086
sg21
I0
sba(iArchitecture
Entity
p1087
(dp1088
g11
(lp1089
sg13
S'android.graphics.Paint$Cap'
p1090
sg15
(lp1091
sg17
(lp1092
sg19
(lp1093
sg21
I0
sba(iArchitecture
Entity
p1094
(dp1095
g11
(lp1096
sg13
S'android.graphics.Paint$FontMetrics'
p1097
sg15
(lp1098
sg17
(lp1099
sg19
(lp1100
sg21
I0
sba(iArchitecture
Entity
p1101
(dp1102
g11
(lp1103
sg13
S'android.graphics.Paint$FontMetricsInt'
p1104
sg15
(lp1105
sg17
(lp1106
sg19
(lp1107
sg21
I0
sba(iArchitecture
Entity
p1108
(dp1109
g11
(lp1110
sg13
S'android.graphics.Paint$Join'
p1111
sg15
(lp1112
sg17
(lp1113
sg19
(lp1114
sg21
I0
sba(iArchitecture
Entity
p1115
(dp1116
g11
(lp1117
sg13
S'android.graphics.Paint$Style'
p1118
sg15
(lp1119
sg17
(lp1120
sg19
(lp1121
sg21
I0
sbasg526
(lp1122
g1076
ag1083
ag1090
ag1097
ag1104
ag1111
ag1118
asg21
I0
sg528
S'997'
p1123
sba(iArchitecture
Cluster
p1124
(dp1125
g7
(lp1126
(iArchitecture
Entity
p1127
(dp1128
g11
(lp1129
sg13
S'com.android.server.notification.ZenModeHelper'
p1130
sg15
(lp1131
sg17
(lp1132
sg19
(lp1133
sg21
I0
sba(iArchitecture
Entity
p1134
(dp1135
g11
(lp1136
sg13
S'com.android.server.notification.ZenModeHelper$1'
p1137
sg15
(lp1138
sg17
(lp1139
sg19
(lp1140
sg21
I0
sba(iArchitecture
Entity
p1141
(dp1142
g11
(lp1143
sg13
S'com.android.server.notification.ZenModeHelper$Callback'
p1144
sg15
(lp1145
sg17
(lp1146
sg19
(lp1147
sg21
I0
sba(iArchitecture
Entity
p1148
(dp1149
g11
(lp1150
sg13
S'com.android.server.notification.ZenModeHelper$H'
p1151
sg15
(lp1152
sg17
(lp1153
sg19
(lp1154
sg21
I0
sba(iArchitecture
Entity
p1155
(dp1156
g11
(lp1157
sg13
S'com.android.server.notification.ZenModeHelper$Metrics'
p1158
sg15
(lp1159
sg17
(lp1160
sg19
(lp1161
sg21
I0
sba(iArchitecture
Entity
p1162
(dp1163
g11
(lp1164
sg13
S'com.android.server.notification.ZenModeHelper$RingerModeDelegate'
p1165
sg15
(lp1166
sg17
(lp1167
sg19
(lp1168
sg21
I0
sba(iArchitecture
Entity
p1169
(dp1170
g11
(lp1171
sg13
S'com.android.server.notification.ZenModeHelper$SettingsObserver'
p1172
sg15
(lp1173
sg17
(lp1174
sg19
(lp1175
sg21
I0
sbasg526
(lp1176
g1130
ag1137
ag1144
ag1151
ag1158
ag1165
ag1172
asg21
I0
sg528
S'998'
p1177
sba(iArchitecture
Cluster
p1178
(dp1179
g7
(lp1180
(iArchitecture
Entity
p1181
(dp1182
g11
(lp1183
sg13
S'android.graphics.drawable.RippleForeground'
p1184
sg15
(lp1185
sg17
(lp1186
sg19
(lp1187
sg21
I0
sba(iArchitecture
Entity
p1188
(dp1189
g11
(lp1190
sg13
S'android.graphics.drawable.RippleForeground$1'
p1191
sg15
(lp1192
sg17
(lp1193
sg19
(lp1194
sg21
I0
sba(iArchitecture
Entity
p1195
(dp1196
g11
(lp1197
sg13
S'android.graphics.drawable.RippleForeground$2'
p1198
sg15
(lp1199
sg17
(lp1200
sg19
(lp1201
sg21
I0
sba(iArchitecture
Entity
p1202
(dp1203
g11
(lp1204
sg13
S'android.graphics.drawable.RippleForeground$3'
p1205
sg15
(lp1206
sg17
(lp1207
sg19
(lp1208
sg21
I0
sba(iArchitecture
Entity
p1209
(dp1210
g11
(lp1211
sg13
S'android.graphics.drawable.RippleForeground$4'
p1212
sg15
(lp1213
sg17
(lp1214
sg19
(lp1215
sg21
I0
sba(iArchitecture
Entity
p1216
(dp1217
g11
(lp1218
sg13
S'android.graphics.drawable.RippleForeground$LogDecelerateInterpolator'
p1219
sg15
(lp1220
sg17
(lp1221
sg19
(lp1222
sg21
I0
sbasg526
(lp1223
g1184
ag1191
ag1198
ag1205
ag1212
ag1219
asg21
I0
sg528
S'999'
p1224
sbasS'target_sub'
p1225
S'99'
p1226
sg526
(lp1227
sS'is_component_arch'
p1228
I01
sg528
S'6.0.0_r1'
p1229
sba.