(lp0
(iArchitecture
Architecture
p1
(dp2
S'clusters'
p3
(lp4
(iArchitecture
Cluster
p5
(dp6
S'entities'
p7
(lp8
(iArchitecture
Entity
p9
(dp10
S'issue_ids'
p11
(lp12
sS'name'
p13
S'com.android.internal.widget.ActionBarOverlayLayout'
p14
sS'descs'
p15
(lp16
sS'labels'
p17
(lp18
sS'titles'
p19
(lp20
sS'change'
p21
I0
sba(iArchitecture
Entity
p22
(dp23
g11
(lp24
sg13
S'com.android.internal.widget.ActionBarOverlayLayout$1'
p25
sg15
(lp26
sg17
(lp27
sg19
(lp28
sg21
I0
sba(iArchitecture
Entity
p29
(dp30
g11
(lp31
sg13
S'com.android.internal.widget.ActionBarOverlayLayout$2'
p32
sg15
(lp33
sg17
(lp34
sg19
(lp35
sg21
I0
sba(iArchitecture
Entity
p36
(dp37
g11
(lp38
sg13
S'com.android.internal.widget.ActionBarOverlayLayout$3'
p39
sg15
(lp40
sg17
(lp41
sg19
(lp42
sg21
I0
sba(iArchitecture
Entity
p43
(dp44
g11
(lp45
sg13
S'com.android.internal.widget.ActionBarOverlayLayout$4'
p46
sg15
(lp47
sg17
(lp48
sg19
(lp49
sg21
I0
sba(iArchitecture
Entity
p50
(dp51
g11
(lp52
sg13
S'com.android.internal.widget.ActionBarOverlayLayout$5'
p53
sg15
(lp54
sg17
(lp55
sg19
(lp56
sg21
I0
sba(iArchitecture
Entity
p57
(dp58
g11
(lp59
sg13
S'com.android.internal.widget.ActionBarOverlayLayout$ActionBarVisibilityCallback'
p60
sg15
(lp61
sg17
(lp62
sg19
(lp63
sg21
I0
sba(iArchitecture
Entity
p64
(dp65
g11
(lp66
sg13
S'com.android.internal.widget.ActionBarOverlayLayout$LayoutParams'
p67
sg15
(lp68
sg17
(lp69
sg19
(lp70
sg21
I0
sbasS'classes'
p71
(lp72
g14
ag25
ag32
ag39
ag46
ag53
ag60
ag67
asg21
I0
sS'label'
p73
S'1034'
p74
sba(iArchitecture
Cluster
p75
(dp76
g7
(lp77
(iArchitecture
Entity
p78
(dp79
g11
(lp80
sg13
S'android.widget.ResourceCursorTreeAdapter'
p81
sg15
(lp82
sg17
(lp83
sg19
(lp84
sg21
I0
sba(iArchitecture
Entity
p85
(dp86
g11
(lp87
sg13
S'android.widget.SimpleCursorTreeAdapter'
p88
sg15
(lp89
sg17
(lp90
sg19
(lp91
sg21
I0
sba(iArchitecture
Entity
p92
(dp93
g11
(lp94
sg13
S'android.widget.SimpleCursorTreeAdapter$ViewBinder'
p95
sg15
(lp96
sg17
(lp97
sg19
(lp98
sg21
I0
sba(iArchitecture
Entity
p99
(dp100
g11
(lp101
sg13
S'android.widget.SimpleExpandableListAdapter'
p102
sg15
(lp103
sg17
(lp104
sg19
(lp105
sg21
I0
sbasg71
(lp106
g81
ag88
ag95
ag102
asg21
I0
sg73
S'1134'
p107
sba(iArchitecture
Cluster
p108
(dp109
g7
(lp110
(iArchitecture
Entity
p111
(dp112
g11
(lp113
sg13
S'android.media.MediaCrypto'
p114
sg15
(lp115
sg17
(lp116
sg19
(lp117
sg21
I0
sba(iArchitecture
Entity
p118
(dp119
g11
(lp120
sg13
S'android.view.SoundEffectConstants'
p121
sg15
(lp122
sg17
(lp123
sg19
(lp124
sg21
I0
sbasg71
(lp125
g114
ag121
asg21
I0
sg73
S'1234'
p126
sba(iArchitecture
Cluster
p127
(dp128
g7
(lp129
(iArchitecture
Entity
p130
(dp131
g11
(lp132
sg13
S'android.hardware.soundtrigger.KeyphraseEnrollmentInfo'
p133
sg15
(lp134
sg17
(lp135
sg19
(lp136
sg21
I0
sbasg71
(lp137
g133
asg21
I0
sg73
S'134'
p138
sba(iArchitecture
Cluster
p139
(dp140
g7
(lp141
(iArchitecture
Entity
p142
(dp143
g11
(lp144
sg13
S'android.nfc.NfcEvent'
p145
sg15
(lp146
sg17
(lp147
sg19
(lp148
sg21
I0
sbasg71
(lp149
g145
asg21
I0
sg73
S'234'
p150
sba(iArchitecture
Cluster
p151
(dp152
g7
(lp153
(iArchitecture
Entity
p154
(dp155
g11
(lp156
sg13
S'android.test.AndroidTestCase'
p157
sg15
(lp158
sg17
(lp159
sg19
(lp160
sg21
I0
sbasg71
(lp161
g157
asg21
I0
sg73
S'334'
p162
sba(iArchitecture
Cluster
p163
(dp164
g7
(lp165
(iArchitecture
Entity
p166
(dp167
g11
(lp168
sg13
S'com.android.internal.app.IntentForwarderActivity'
p169
sg15
(lp170
sg17
(lp171
sg19
(lp172
sg21
I0
sbasg71
(lp173
g169
asg21
I0
sg73
S'34'
p174
sba(iArchitecture
Cluster
p175
(dp176
g7
(lp177
(iArchitecture
Entity
p178
(dp179
g11
(lp180
sg13
S'android.security.keystore.ArrayUtils'
p181
sg15
(lp182
sg17
(lp183
sg19
(lp184
sg21
I0
sbasg71
(lp185
g181
asg21
I0
sg73
S'340'
p186
sba(iArchitecture
Cluster
p187
(dp188
g7
(lp189
(iArchitecture
Entity
p190
(dp191
g11
(lp192
sg13
S'android.net.netlink.NetlinkConstants'
p193
sg15
(lp194
sg17
(lp195
sg19
(lp196
sg21
I0
sbasg71
(lp197
g193
asg21
I0
sg73
S'341'
p198
sba(iArchitecture
Cluster
p199
(dp200
g7
(lp201
(iArchitecture
Entity
p202
(dp203
g11
(lp204
sg13
S'com.android.server.SystemServiceManager'
p205
sg15
(lp206
sg17
(lp207
sg19
(lp208
sg21
I0
sbasg71
(lp209
g205
asg21
I0
sg73
S'342'
p210
sba(iArchitecture
Cluster
p211
(dp212
g7
(lp213
(iArchitecture
Entity
p214
(dp215
g11
(lp216
sg13
S'android.media.MediaHTTPConnection'
p217
sg15
(lp218
sg17
(lp219
sg19
(lp220
sg21
I0
sbasg71
(lp221
g217
asg21
I0
sg73
S'343'
p222
sba(iArchitecture
Cluster
p223
(dp224
g7
(lp225
(iArchitecture
Entity
p226
(dp227
g11
(lp228
sg13
S'com.android.server.updates.TzDataInstallReceiver'
p229
sg15
(lp230
sg17
(lp231
sg19
(lp232
sg21
I0
sbasg71
(lp233
g229
asg21
I0
sg73
S'344'
p234
sba(iArchitecture
Cluster
p235
(dp236
g7
(lp237
(iArchitecture
Entity
p238
(dp239
g11
(lp240
sg13
S'android.content.UriMatcher'
p241
sg15
(lp242
sg17
(lp243
sg19
(lp244
sg21
I0
sbasg71
(lp245
g241
asg21
I0
sg73
S'345'
p246
sba(iArchitecture
Cluster
p247
(dp248
g7
(lp249
(iArchitecture
Entity
p250
(dp251
g11
(lp252
sg13
S'com.android.server.pm.SharedUserSetting'
p253
sg15
(lp254
sg17
(lp255
sg19
(lp256
sg21
I0
sbasg71
(lp257
g253
asg21
I0
sg73
S'346'
p258
sba(iArchitecture
Cluster
p259
(dp260
g7
(lp261
(iArchitecture
Entity
p262
(dp263
g11
(lp264
sg13
S'android.util.Rational'
p265
sg15
(lp266
sg17
(lp267
sg19
(lp268
sg21
I0
sbasg71
(lp269
g265
asg21
I0
sg73
S'347'
p270
sba(iArchitecture
Cluster
p271
(dp272
g7
(lp273
(iArchitecture
Entity
p274
(dp275
g11
(lp276
sg13
S'android.view.TouchDelegate'
p277
sg15
(lp278
sg17
(lp279
sg19
(lp280
sg21
I0
sbasg71
(lp281
g277
asg21
I0
sg73
S'348'
p282
sba(iArchitecture
Cluster
p283
(dp284
g7
(lp285
(iArchitecture
Entity
p286
(dp287
g11
(lp288
sg13
S'android.net.netlink.StructNdMsg'
p289
sg15
(lp290
sg17
(lp291
sg19
(lp292
sg21
I0
sbasg71
(lp293
g289
asg21
I0
sg73
S'349'
p294
sba(iArchitecture
Cluster
p295
(dp296
g7
(lp297
(iArchitecture
Entity
p298
(dp299
g11
(lp300
sg13
S'com.android.server.pm.PackageSettingBase'
p301
sg15
(lp302
sg17
(lp303
sg19
(lp304
sg21
I0
sbasg71
(lp305
g301
asg21
I0
sg73
S'434'
p306
sba(iArchitecture
Cluster
p307
(dp308
g7
(lp309
(iArchitecture
Entity
p310
(dp311
g11
(lp312
sg13
S'android.content.pm.ActivityInfo'
p313
sg15
(lp314
sg17
(lp315
sg19
(lp316
sg21
I0
sba(iArchitecture
Entity
p317
(dp318
g11
(lp319
sg13
S'android.content.pm.ActivityInfo$1'
p320
sg15
(lp321
sg17
(lp322
sg19
(lp323
sg21
I0
sbasg71
(lp324
g313
ag320
asg21
I0
sg73
S'534'
p325
sba(iArchitecture
Cluster
p326
(dp327
g7
(lp328
(iArchitecture
Entity
p329
(dp330
g11
(lp331
sg13
S'android.security.keystore.AndroidKeyStoreSpi'
p332
sg15
(lp333
sg17
(lp334
sg19
(lp335
sg21
I0
sba(iArchitecture
Entity
p336
(dp337
g11
(lp338
sg13
S'android.security.keystore.AndroidKeyStoreSpi$KeyStoreX509Certificate'
p339
sg15
(lp340
sg17
(lp341
sg19
(lp342
sg21
I0
sbasg71
(lp343
g332
ag339
asg21
I0
sg73
S'634'
p344
sba(iArchitecture
Cluster
p345
(dp346
g7
(lp347
(iArchitecture
Entity
p348
(dp349
g11
(lp350
sg13
S'android.preference.SwitchPreference'
p351
sg15
(lp352
sg17
(lp353
sg19
(lp354
sg21
I0
sba(iArchitecture
Entity
p355
(dp356
g11
(lp357
sg13
S'android.preference.SwitchPreference$Listener'
p358
sg15
(lp359
sg17
(lp360
sg19
(lp361
sg21
I0
sbasg71
(lp362
g351
ag358
asg21
I0
sg73
S'734'
p363
sba(iArchitecture
Cluster
p364
(dp365
g7
(lp366
(iArchitecture
Entity
p367
(dp368
g11
(lp369
sg13
S'com.android.server.accessibility.AccessibilityInputFilter'
p370
sg15
(lp371
sg17
(lp372
sg19
(lp373
sg21
I0
sba(iArchitecture
Entity
p374
(dp375
g11
(lp376
sg13
S'com.android.server.accessibility.AccessibilityInputFilter$1'
p377
sg15
(lp378
sg17
(lp379
sg19
(lp380
sg21
I0
sba(iArchitecture
Entity
p381
(dp382
g11
(lp383
sg13
S'com.android.server.accessibility.AccessibilityInputFilter$MotionEventHolder'
p384
sg15
(lp385
sg17
(lp386
sg19
(lp387
sg21
I0
sbasg71
(lp388
g370
ag377
ag384
asg21
I0
sg73
S'834'
p389
sba(iArchitecture
Cluster
p390
(dp391
g7
(lp392
(iArchitecture
Entity
p393
(dp394
g11
(lp395
sg13
S'android.graphics.Bitmap'
p396
sg15
(lp397
sg17
(lp398
sg19
(lp399
sg21
I0
sba(iArchitecture
Entity
p400
(dp401
g11
(lp402
sg13
S'android.graphics.Bitmap$1'
p403
sg15
(lp404
sg17
(lp405
sg19
(lp406
sg21
I0
sba(iArchitecture
Entity
p407
(dp408
g11
(lp409
sg13
S'android.graphics.Bitmap$BitmapFinalizer'
p410
sg15
(lp411
sg17
(lp412
sg19
(lp413
sg21
I0
sba(iArchitecture
Entity
p414
(dp415
g11
(lp416
sg13
S'android.graphics.Bitmap$CompressFormat'
p417
sg15
(lp418
sg17
(lp419
sg19
(lp420
sg21
I0
sba(iArchitecture
Entity
p421
(dp422
g11
(lp423
sg13
S'android.graphics.Bitmap$Config'
p424
sg15
(lp425
sg17
(lp426
sg19
(lp427
sg21
I0
sbasg71
(lp428
g396
ag403
ag410
ag417
ag424
asg21
I0
sg73
S'934'
p429
sbasS'target_sub'
p430
S'34'
p431
sg71
(lp432
sS'is_component_arch'
p433
I01
sg73
S'6.0.0_r1'
p434
sba.