(lp0
(iArchitecture
Architecture
p1
(dp2
S'clusters'
p3
(lp4
(iArchitecture
Cluster
p5
(dp6
S'entities'
p7
(lp8
(iArchitecture
Entity
p9
(dp10
S'issue_ids'
p11
(lp12
sS'name'
p13
S'android.service.notification.ZenModeConfig'
p14
sS'descs'
p15
(lp16
sS'labels'
p17
(lp18
sS'titles'
p19
(lp20
sS'change'
p21
I0
sba(iArchitecture
Entity
p22
(dp23
g11
(lp24
sg13
S'android.service.notification.ZenModeConfig$1'
p25
sg15
(lp26
sg17
(lp27
sg19
(lp28
sg21
I0
sba(iArchitecture
Entity
p29
(dp30
g11
(lp31
sg13
S'android.service.notification.ZenModeConfig$Diff'
p32
sg15
(lp33
sg17
(lp34
sg19
(lp35
sg21
I0
sba(iArchitecture
Entity
p36
(dp37
g11
(lp38
sg13
S'android.service.notification.ZenModeConfig$EventInfo'
p39
sg15
(lp40
sg17
(lp41
sg19
(lp42
sg21
I0
sba(iArchitecture
Entity
p43
(dp44
g11
(lp45
sg13
S'android.service.notification.ZenModeConfig$Migration'
p46
sg15
(lp47
sg17
(lp48
sg19
(lp49
sg21
I0
sba(iArchitecture
Entity
p50
(dp51
g11
(lp52
sg13
S'android.service.notification.ZenModeConfig$ScheduleInfo'
p53
sg15
(lp54
sg17
(lp55
sg19
(lp56
sg21
I0
sba(iArchitecture
Entity
p57
(dp58
g11
(lp59
sg13
S'android.service.notification.ZenModeConfig$XmlV1'
p60
sg15
(lp61
sg17
(lp62
sg19
(lp63
sg21
I0
sba(iArchitecture
Entity
p64
(dp65
g11
(lp66
sg13
S'android.service.notification.ZenModeConfig$ZenRule'
p67
sg15
(lp68
sg17
(lp69
sg19
(lp70
sg21
I0
sba(iArchitecture
Entity
p71
(dp72
g11
(lp73
sg13
S'android.service.notification.ZenModeConfig$ZenRule$1'
p74
sg15
(lp75
sg17
(lp76
sg19
(lp77
sg21
I0
sbasS'classes'
p78
(lp79
g14
ag25
ag32
ag39
ag46
ag53
ag60
ag67
ag74
asg21
I0
sS'label'
p80
S'1059'
p81
sba(iArchitecture
Cluster
p82
(dp83
g7
(lp84
(iArchitecture
Entity
p85
(dp86
g11
(lp87
sg13
S'android.preference.GenericInflater'
p88
sg15
(lp89
sg17
(lp90
sg19
(lp91
sg21
I0
sba(iArchitecture
Entity
p92
(dp93
g11
(lp94
sg13
S'android.preference.GenericInflater$Factory'
p95
sg15
(lp96
sg17
(lp97
sg19
(lp98
sg21
I0
sba(iArchitecture
Entity
p99
(dp100
g11
(lp101
sg13
S'android.preference.GenericInflater$FactoryMerger'
p102
sg15
(lp103
sg17
(lp104
sg19
(lp105
sg21
I0
sba(iArchitecture
Entity
p106
(dp107
g11
(lp108
sg13
S'android.preference.GenericInflater$Parent'
p109
sg15
(lp110
sg17
(lp111
sg19
(lp112
sg21
I0
sba(iArchitecture
Entity
p113
(dp114
g11
(lp115
sg13
S'android.view.LayoutInflater'
p116
sg15
(lp117
sg17
(lp118
sg19
(lp119
sg21
I0
sba(iArchitecture
Entity
p120
(dp121
g11
(lp122
sg13
S'android.view.LayoutInflater$BlinkLayout'
p123
sg15
(lp124
sg17
(lp125
sg19
(lp126
sg21
I0
sba(iArchitecture
Entity
p127
(dp128
g11
(lp129
sg13
S'android.view.LayoutInflater$BlinkLayout$1'
p130
sg15
(lp131
sg17
(lp132
sg19
(lp133
sg21
I0
sba(iArchitecture
Entity
p134
(dp135
g11
(lp136
sg13
S'android.view.LayoutInflater$Factory'
p137
sg15
(lp138
sg17
(lp139
sg19
(lp140
sg21
I0
sba(iArchitecture
Entity
p141
(dp142
g11
(lp143
sg13
S'android.view.LayoutInflater$Factory2'
p144
sg15
(lp145
sg17
(lp146
sg19
(lp147
sg21
I0
sba(iArchitecture
Entity
p148
(dp149
g11
(lp150
sg13
S'android.view.LayoutInflater$FactoryMerger'
p151
sg15
(lp152
sg17
(lp153
sg19
(lp154
sg21
I0
sba(iArchitecture
Entity
p155
(dp156
g11
(lp157
sg13
S'android.view.LayoutInflater$Filter'
p158
sg15
(lp159
sg17
(lp160
sg19
(lp161
sg21
I0
sbasg78
(lp162
g88
ag95
ag102
ag109
ag116
ag123
ag130
ag137
ag144
ag151
ag158
asg21
I0
sg80
S'1159'
p163
sba(iArchitecture
Cluster
p164
(dp165
g7
(lp166
(iArchitecture
Entity
p167
(dp168
g11
(lp169
sg13
S'android.app.usage.TimeSparseArray'
p170
sg15
(lp171
sg17
(lp172
sg19
(lp173
sg21
I0
sba(iArchitecture
Entity
p174
(dp175
g11
(lp176
sg13
S'com.android.internal.os.BluetoothPowerCalculator'
p177
sg15
(lp178
sg17
(lp179
sg19
(lp180
sg21
I0
sba(iArchitecture
Entity
p181
(dp182
g11
(lp183
sg13
S'com.android.internal.os.CpuPowerCalculator'
p184
sg15
(lp185
sg17
(lp186
sg19
(lp187
sg21
I0
sba(iArchitecture
Entity
p188
(dp189
g11
(lp190
sg13
S'com.android.internal.os.SensorPowerCalculator'
p191
sg15
(lp192
sg17
(lp193
sg19
(lp194
sg21
I0
sba(iArchitecture
Entity
p195
(dp196
g11
(lp197
sg13
S'com.android.internal.os.WifiPowerCalculator'
p198
sg15
(lp199
sg17
(lp200
sg19
(lp201
sg21
I0
sbasg78
(lp202
g170
ag177
ag184
ag191
ag198
asg21
I0
sg80
S'1259'
p203
sba(iArchitecture
Cluster
p204
(dp205
g7
(lp206
(iArchitecture
Entity
p207
(dp208
g11
(lp209
sg13
S'com.android.internal.os.PowerCalculator'
p210
sg15
(lp211
sg17
(lp212
sg19
(lp213
sg21
I0
sbasg78
(lp214
g210
asg21
I0
sg80
S'159'
p215
sba(iArchitecture
Cluster
p216
(dp217
g7
(lp218
(iArchitecture
Entity
p219
(dp220
g11
(lp221
sg13
S'android.media.MediaInserter'
p222
sg15
(lp223
sg17
(lp224
sg19
(lp225
sg21
I0
sbasg78
(lp226
g222
asg21
I0
sg80
S'259'
p227
sba(iArchitecture
Cluster
p228
(dp229
g7
(lp230
(iArchitecture
Entity
p231
(dp232
g11
(lp233
sg13
S'android.hardware.camera2.DngCreator'
p234
sg15
(lp235
sg17
(lp236
sg19
(lp237
sg21
I0
sbasg78
(lp238
g234
asg21
I0
sg80
S'359'
p239
sba(iArchitecture
Cluster
p240
(dp241
g7
(lp242
(iArchitecture
Entity
p243
(dp244
g11
(lp245
sg13
S'android.net.http.SslCertificate'
p246
sg15
(lp247
sg17
(lp248
sg19
(lp249
sg21
I0
sba(iArchitecture
Entity
p250
(dp251
g11
(lp252
sg13
S'android.net.http.SslCertificate$DName'
p253
sg15
(lp254
sg17
(lp255
sg19
(lp256
sg21
I0
sbasg78
(lp257
g246
ag253
asg21
I0
sg80
S'459'
p258
sba(iArchitecture
Cluster
p259
(dp260
g7
(lp261
(iArchitecture
Entity
p262
(dp263
g11
(lp264
sg13
S'android.net.wifi.p2p.WifiP2pDevice'
p265
sg15
(lp266
sg17
(lp267
sg19
(lp268
sg21
I0
sba(iArchitecture
Entity
p269
(dp270
g11
(lp271
sg13
S'android.net.wifi.p2p.WifiP2pDevice$1'
p272
sg15
(lp273
sg17
(lp274
sg19
(lp275
sg21
I0
sbasg78
(lp276
g265
ag272
asg21
I0
sg80
S'559'
p277
sba(iArchitecture
Cluster
p278
(dp279
g7
(lp280
(iArchitecture
Entity
p281
(dp282
g11
(lp283
sg13
S'com.android.internal.os.WakelockPowerCalculator'
p284
sg15
(lp285
sg17
(lp286
sg19
(lp287
sg21
I0
sbasg78
(lp288
g284
asg21
I0
sg80
S'59'
p289
sba(iArchitecture
Cluster
p290
(dp291
g7
(lp292
(iArchitecture
Entity
p293
(dp294
g11
(lp295
sg13
S'android.inputmethodservice.IInputMethodSessionWrapper'
p296
sg15
(lp297
sg17
(lp298
sg19
(lp299
sg21
I0
sba(iArchitecture
Entity
p300
(dp301
g11
(lp302
sg13
S'android.inputmethodservice.IInputMethodSessionWrapper$ImeInputEventReceiver'
p303
sg15
(lp304
sg17
(lp305
sg19
(lp306
sg21
I0
sbasg78
(lp307
g296
ag303
asg21
I0
sg80
S'590'
p308
sba(iArchitecture
Cluster
p309
(dp310
g7
(lp311
(iArchitecture
Entity
p312
(dp313
g11
(lp314
sg13
S'android.nfc.cardemulation.AidGroup'
p315
sg15
(lp316
sg17
(lp317
sg19
(lp318
sg21
I0
sba(iArchitecture
Entity
p319
(dp320
g11
(lp321
sg13
S'android.nfc.cardemulation.AidGroup$1'
p322
sg15
(lp323
sg17
(lp324
sg19
(lp325
sg21
I0
sbasg78
(lp326
g315
ag322
asg21
I0
sg80
S'591'
p327
sba(iArchitecture
Cluster
p328
(dp329
g7
(lp330
(iArchitecture
Entity
p331
(dp332
g11
(lp333
sg13
S'android.net.InterfaceConfiguration'
p334
sg15
(lp335
sg17
(lp336
sg19
(lp337
sg21
I0
sba(iArchitecture
Entity
p338
(dp339
g11
(lp340
sg13
S'android.net.InterfaceConfiguration$1'
p341
sg15
(lp342
sg17
(lp343
sg19
(lp344
sg21
I0
sbasg78
(lp345
g334
ag341
asg21
I0
sg80
S'592'
p346
sba(iArchitecture
Cluster
p347
(dp348
g7
(lp349
(iArchitecture
Entity
p350
(dp351
g11
(lp352
sg13
S'com.android.server.tv.PersistentDataStore'
p353
sg15
(lp354
sg17
(lp355
sg19
(lp356
sg21
I0
sba(iArchitecture
Entity
p357
(dp358
g11
(lp359
sg13
S'com.android.server.tv.PersistentDataStore$1'
p360
sg15
(lp361
sg17
(lp362
sg19
(lp363
sg21
I0
sbasg78
(lp364
g353
ag360
asg21
I0
sg80
S'593'
p365
sba(iArchitecture
Cluster
p366
(dp367
g7
(lp368
(iArchitecture
Entity
p369
(dp370
g11
(lp371
sg13
S'android.telecom.PhoneAccountHandle'
p372
sg15
(lp373
sg17
(lp374
sg19
(lp375
sg21
I0
sba(iArchitecture
Entity
p376
(dp377
g11
(lp378
sg13
S'android.telecom.PhoneAccountHandle$1'
p379
sg15
(lp380
sg17
(lp381
sg19
(lp382
sg21
I0
sbasg78
(lp383
g372
ag379
asg21
I0
sg80
S'594'
p384
sba(iArchitecture
Cluster
p385
(dp386
g7
(lp387
(iArchitecture
Entity
p388
(dp389
g11
(lp390
sg13
S'android.media.MediaFile'
p391
sg15
(lp392
sg17
(lp393
sg19
(lp394
sg21
I0
sba(iArchitecture
Entity
p395
(dp396
g11
(lp397
sg13
S'android.media.MediaFile$MediaFileType'
p398
sg15
(lp399
sg17
(lp400
sg19
(lp401
sg21
I0
sbasg78
(lp402
g391
ag398
asg21
I0
sg80
S'595'
p403
sba(iArchitecture
Cluster
p404
(dp405
g7
(lp406
(iArchitecture
Entity
p407
(dp408
g11
(lp409
sg13
S'android.opengl.ETC1Util'
p410
sg15
(lp411
sg17
(lp412
sg19
(lp413
sg21
I0
sba(iArchitecture
Entity
p414
(dp415
g11
(lp416
sg13
S'android.opengl.ETC1Util$ETC1Texture'
p417
sg15
(lp418
sg17
(lp419
sg19
(lp420
sg21
I0
sbasg78
(lp421
g410
ag417
asg21
I0
sg80
S'596'
p422
sba(iArchitecture
Cluster
p423
(dp424
g7
(lp425
(iArchitecture
Entity
p426
(dp427
g11
(lp428
sg13
S'com.android.server.wm.BlackFrame'
p429
sg15
(lp430
sg17
(lp431
sg19
(lp432
sg21
I0
sba(iArchitecture
Entity
p433
(dp434
g11
(lp435
sg13
S'com.android.server.wm.BlackFrame$BlackSurface'
p436
sg15
(lp437
sg17
(lp438
sg19
(lp439
sg21
I0
sbasg78
(lp440
g429
ag436
asg21
I0
sg80
S'597'
p441
sba(iArchitecture
Cluster
p442
(dp443
g7
(lp444
(iArchitecture
Entity
p445
(dp446
g11
(lp447
sg13
S'android.location.GpsClock'
p448
sg15
(lp449
sg17
(lp450
sg19
(lp451
sg21
I0
sba(iArchitecture
Entity
p452
(dp453
g11
(lp454
sg13
S'android.location.GpsClock$1'
p455
sg15
(lp456
sg17
(lp457
sg19
(lp458
sg21
I0
sbasg78
(lp459
g448
ag455
asg21
I0
sg80
S'598'
p460
sba(iArchitecture
Cluster
p461
(dp462
g7
(lp463
(iArchitecture
Entity
p464
(dp465
g11
(lp466
sg13
S'android.content.pm.PermissionInfo'
p467
sg15
(lp468
sg17
(lp469
sg19
(lp470
sg21
I0
sba(iArchitecture
Entity
p471
(dp472
g11
(lp473
sg13
S'android.content.pm.PermissionInfo$1'
p474
sg15
(lp475
sg17
(lp476
sg19
(lp477
sg21
I0
sbasg78
(lp478
g467
ag474
asg21
I0
sg80
S'599'
p479
sba(iArchitecture
Cluster
p480
(dp481
g7
(lp482
(iArchitecture
Entity
p483
(dp484
g11
(lp485
sg13
S'android.hardware.camera2.marshal.impl.MarshalQueryableRggbChannelVector'
p486
sg15
(lp487
sg17
(lp488
sg19
(lp489
sg21
I0
sba(iArchitecture
Entity
p490
(dp491
g11
(lp492
sg13
S'android.hardware.camera2.marshal.impl.MarshalQueryableRggbChannelVector$MarshalerRggbChannelVector'
p493
sg15
(lp494
sg17
(lp495
sg19
(lp496
sg21
I0
sbasg78
(lp497
g486
ag493
asg21
I0
sg80
S'659'
p498
sba(iArchitecture
Cluster
p499
(dp500
g7
(lp501
(iArchitecture
Entity
p502
(dp503
g11
(lp504
sg13
S'android.app.TimePickerDialog'
p505
sg15
(lp506
sg17
(lp507
sg19
(lp508
sg21
I0
sba(iArchitecture
Entity
p509
(dp510
g11
(lp511
sg13
S'android.app.TimePickerDialog$1'
p512
sg15
(lp513
sg17
(lp514
sg19
(lp515
sg21
I0
sba(iArchitecture
Entity
p516
(dp517
g11
(lp518
sg13
S'android.app.TimePickerDialog$OnTimeSetListener'
p519
sg15
(lp520
sg17
(lp521
sg19
(lp522
sg21
I0
sbasg78
(lp523
g505
ag512
ag519
asg21
I0
sg80
S'759'
p524
sba(iArchitecture
Cluster
p525
(dp526
g7
(lp527
(iArchitecture
Entity
p528
(dp529
g11
(lp530
sg13
S'com.android.internal.widget.LockPatternUtils'
p531
sg15
(lp532
sg17
(lp533
sg19
(lp534
sg21
I0
sba(iArchitecture
Entity
p535
(dp536
g11
(lp537
sg13
S'com.android.internal.widget.LockPatternUtils$1'
p538
sg15
(lp539
sg17
(lp540
sg19
(lp541
sg21
I0
sba(iArchitecture
Entity
p542
(dp543
g11
(lp544
sg13
S'com.android.internal.widget.LockPatternUtils$RequestThrottledException'
p545
sg15
(lp546
sg17
(lp547
sg19
(lp548
sg21
I0
sbasg78
(lp549
g531
ag538
ag545
asg21
I0
sg80
S'859'
p550
sba(iArchitecture
Cluster
p551
(dp552
g7
(lp553
(iArchitecture
Entity
p554
(dp555
g11
(lp556
sg13
S'android.widget.YearPickerView'
p557
sg15
(lp558
sg17
(lp559
sg19
(lp560
sg21
I0
sba(iArchitecture
Entity
p561
(dp562
g11
(lp563
sg13
S'android.widget.YearPickerView$1'
p564
sg15
(lp565
sg17
(lp566
sg19
(lp567
sg21
I0
sba(iArchitecture
Entity
p568
(dp569
g11
(lp570
sg13
S'android.widget.YearPickerView$2'
p571
sg15
(lp572
sg17
(lp573
sg19
(lp574
sg21
I0
sba(iArchitecture
Entity
p575
(dp576
g11
(lp577
sg13
S'android.widget.YearPickerView$OnYearSelectedListener'
p578
sg15
(lp579
sg17
(lp580
sg19
(lp581
sg21
I0
sba(iArchitecture
Entity
p582
(dp583
g11
(lp584
sg13
S'android.widget.YearPickerView$YearAdapter'
p585
sg15
(lp586
sg17
(lp587
sg19
(lp588
sg21
I0
sbasg78
(lp589
g557
ag564
ag571
ag578
ag585
asg21
I0
sg80
S'959'
p590
sbasS'target_sub'
p591
S'59'
p592
sg78
(lp593
sS'is_component_arch'
p594
I01
sg80
S'6.0.0_r1'
p595
sba.