(lp0
(iArchitecture
Architecture
p1
(dp2
S'clusters'
p3
(lp4
(iArchitecture
Cluster
p5
(dp6
S'entities'
p7
(lp8
(iArchitecture
Entity
p9
(dp10
S'issue_ids'
p11
(lp12
sS'name'
p13
S'com.android.server.display.DisplayPowerController'
p14
sS'descs'
p15
(lp16
sS'labels'
p17
(lp18
sS'titles'
p19
(lp20
sS'change'
p21
I0
sba(iArchitecture
Entity
p22
(dp23
g11
(lp24
sg13
S'com.android.server.display.DisplayPowerController$1'
p25
sg15
(lp26
sg17
(lp27
sg19
(lp28
sg21
I0
sba(iArchitecture
Entity
p29
(dp30
g11
(lp31
sg13
S'com.android.server.display.DisplayPowerController$2'
p32
sg15
(lp33
sg17
(lp34
sg19
(lp35
sg21
I0
sba(iArchitecture
Entity
p36
(dp37
g11
(lp38
sg13
S'com.android.server.display.DisplayPowerController$3'
p39
sg15
(lp40
sg17
(lp41
sg19
(lp42
sg21
I0
sba(iArchitecture
Entity
p43
(dp44
g11
(lp45
sg13
S'com.android.server.display.DisplayPowerController$4'
p46
sg15
(lp47
sg17
(lp48
sg19
(lp49
sg21
I0
sba(iArchitecture
Entity
p50
(dp51
g11
(lp52
sg13
S'com.android.server.display.DisplayPowerController$5'
p53
sg15
(lp54
sg17
(lp55
sg19
(lp56
sg21
I0
sba(iArchitecture
Entity
p57
(dp58
g11
(lp59
sg13
S'com.android.server.display.DisplayPowerController$6'
p60
sg15
(lp61
sg17
(lp62
sg19
(lp63
sg21
I0
sba(iArchitecture
Entity
p64
(dp65
g11
(lp66
sg13
S'com.android.server.display.DisplayPowerController$7'
p67
sg15
(lp68
sg17
(lp69
sg19
(lp70
sg21
I0
sba(iArchitecture
Entity
p71
(dp72
g11
(lp73
sg13
S'com.android.server.display.DisplayPowerController$8'
p74
sg15
(lp75
sg17
(lp76
sg19
(lp77
sg21
I0
sba(iArchitecture
Entity
p78
(dp79
g11
(lp80
sg13
S'com.android.server.display.DisplayPowerController$DisplayControllerHandler'
p81
sg15
(lp82
sg17
(lp83
sg19
(lp84
sg21
I0
sba(iArchitecture
Entity
p85
(dp86
g11
(lp87
sg13
S'com.android.server.display.DisplayPowerController$ScreenOnUnblocker'
p88
sg15
(lp89
sg17
(lp90
sg19
(lp91
sg21
I0
sbasS'classes'
p92
(lp93
g14
ag25
ag32
ag39
ag46
ag53
ag60
ag67
ag74
ag81
ag88
asg21
I0
sS'label'
p94
S'1068'
p95
sba(iArchitecture
Cluster
p96
(dp97
g7
(lp98
(iArchitecture
Entity
p99
(dp100
g11
(lp101
sg13
S'com.android.internal.app.MediaRouteChooserDialogFragment'
p102
sg15
(lp103
sg17
(lp104
sg19
(lp105
sg21
I0
sba(iArchitecture
Entity
p106
(dp107
g11
(lp108
sg13
S'com.android.internal.app.MediaRouteDialogPresenter'
p109
sg15
(lp110
sg17
(lp111
sg19
(lp112
sg21
I0
sbasg92
(lp113
g102
ag109
asg21
I0
sg94
S'1168'
p114
sba(iArchitecture
Cluster
p115
(dp116
g7
(lp117
(iArchitecture
Entity
p118
(dp119
g11
(lp120
sg13
S'android.view.FocusFinderHelper'
p121
sg15
(lp122
sg17
(lp123
sg19
(lp124
sg21
I0
sbasg92
(lp125
g121
asg21
I0
sg94
S'168'
p126
sba(iArchitecture
Cluster
p127
(dp128
g7
(lp129
(iArchitecture
Entity
p130
(dp131
g11
(lp132
sg13
S'com.google.android.collect.Sets'
p133
sg15
(lp134
sg17
(lp135
sg19
(lp136
sg21
I0
sbasg92
(lp137
g133
asg21
I0
sg94
S'268'
p138
sba(iArchitecture
Cluster
p139
(dp140
g7
(lp141
(iArchitecture
Entity
p142
(dp143
g11
(lp144
sg13
S'android.app.ApplicationLoaders'
p145
sg15
(lp146
sg17
(lp147
sg19
(lp148
sg21
I0
sbasg92
(lp149
g145
asg21
I0
sg94
S'368'
p150
sba(iArchitecture
Cluster
p151
(dp152
g7
(lp153
(iArchitecture
Entity
p154
(dp155
g11
(lp156
sg13
S'android.service.chooser.ChooserTargetService'
p157
sg15
(lp158
sg17
(lp159
sg19
(lp160
sg21
I0
sba(iArchitecture
Entity
p161
(dp162
g11
(lp163
sg13
S'android.service.chooser.ChooserTargetService$IChooserTargetServiceWrapper'
p164
sg15
(lp165
sg17
(lp166
sg19
(lp167
sg21
I0
sbasg92
(lp168
g157
ag164
asg21
I0
sg94
S'468'
p169
sba(iArchitecture
Cluster
p170
(dp171
g7
(lp172
(iArchitecture
Entity
p173
(dp174
g11
(lp175
sg13
S'android.bluetooth.BluetoothHeadsetClientCall'
p176
sg15
(lp177
sg17
(lp178
sg19
(lp179
sg21
I0
sba(iArchitecture
Entity
p180
(dp181
g11
(lp182
sg13
S'android.bluetooth.BluetoothHeadsetClientCall$1'
p183
sg15
(lp184
sg17
(lp185
sg19
(lp186
sg21
I0
sbasg92
(lp187
g176
ag183
asg21
I0
sg94
S'568'
p188
sba(iArchitecture
Cluster
p189
(dp190
g7
(lp191
(iArchitecture
Entity
p192
(dp193
g11
(lp194
sg13
S'android.ddm.DdmHandleViewDebug'
p195
sg15
(lp196
sg17
(lp197
sg19
(lp198
sg21
I0
sba(iArchitecture
Entity
p199
(dp200
g11
(lp201
sg13
S'android.ddm.DdmHandleViewDebug$1'
p202
sg15
(lp203
sg17
(lp204
sg19
(lp205
sg21
I0
sbasg92
(lp206
g195
ag202
asg21
I0
sg94
S'668'
p207
sba(iArchitecture
Cluster
p208
(dp209
g7
(lp210
(iArchitecture
Entity
p211
(dp212
g11
(lp213
sg13
S'android.hardware.camera2.params.RggbChannelVector'
p214
sg15
(lp215
sg17
(lp216
sg19
(lp217
sg21
I0
sbasg92
(lp218
g214
asg21
I0
sg94
S'68'
p219
sba(iArchitecture
Cluster
p220
(dp221
g7
(lp222
(iArchitecture
Entity
p223
(dp224
g11
(lp225
sg13
S'android.hardware.camera2.legacy.LegacyFaceDetectMapper'
p226
sg15
(lp227
sg17
(lp228
sg19
(lp229
sg21
I0
sba(iArchitecture
Entity
p230
(dp231
g11
(lp232
sg13
S'android.hardware.camera2.legacy.LegacyFaceDetectMapper$1'
p233
sg15
(lp234
sg17
(lp235
sg19
(lp236
sg21
I0
sbasg92
(lp237
g226
ag233
asg21
I0
sg94
S'680'
p238
sba(iArchitecture
Cluster
p239
(dp240
g7
(lp241
(iArchitecture
Entity
p242
(dp243
g11
(lp244
sg13
S'android.content.SyncStats'
p245
sg15
(lp246
sg17
(lp247
sg19
(lp248
sg21
I0
sba(iArchitecture
Entity
p249
(dp250
g11
(lp251
sg13
S'android.content.SyncStats$1'
p252
sg15
(lp253
sg17
(lp254
sg19
(lp255
sg21
I0
sbasg92
(lp256
g245
ag252
asg21
I0
sg94
S'681'
p257
sba(iArchitecture
Cluster
p258
(dp259
g7
(lp260
(iArchitecture
Entity
p261
(dp262
g11
(lp263
sg13
S'android.opengl.GLES31Ext'
p264
sg15
(lp265
sg17
(lp266
sg19
(lp267
sg21
I0
sba(iArchitecture
Entity
p268
(dp269
g11
(lp270
sg13
S'android.opengl.GLES31Ext$DebugProcKHR'
p271
sg15
(lp272
sg17
(lp273
sg19
(lp274
sg21
I0
sbasg92
(lp275
g264
ag271
asg21
I0
sg94
S'682'
p276
sba(iArchitecture
Cluster
p277
(dp278
g7
(lp279
(iArchitecture
Entity
p280
(dp281
g11
(lp282
sg13
S'android.telecom.GatewayInfo'
p283
sg15
(lp284
sg17
(lp285
sg19
(lp286
sg21
I0
sba(iArchitecture
Entity
p287
(dp288
g11
(lp289
sg13
S'android.telecom.GatewayInfo$1'
p290
sg15
(lp291
sg17
(lp292
sg19
(lp293
sg21
I0
sbasg92
(lp294
g283
ag290
asg21
I0
sg94
S'683'
p295
sba(iArchitecture
Cluster
p296
(dp297
g7
(lp298
(iArchitecture
Entity
p299
(dp300
g11
(lp301
sg13
S'android.text.DynamicLayout'
p302
sg15
(lp303
sg17
(lp304
sg19
(lp305
sg21
I0
sba(iArchitecture
Entity
p306
(dp307
g11
(lp308
sg13
S'android.text.DynamicLayout$ChangeWatcher'
p309
sg15
(lp310
sg17
(lp311
sg19
(lp312
sg21
I0
sbasg92
(lp313
g302
ag309
asg21
I0
sg94
S'684'
p314
sba(iArchitecture
Cluster
p315
(dp316
g7
(lp317
(iArchitecture
Entity
p318
(dp319
g11
(lp320
sg13
S'com.android.internal.http.HttpDateTime'
p321
sg15
(lp322
sg17
(lp323
sg19
(lp324
sg21
I0
sba(iArchitecture
Entity
p325
(dp326
g11
(lp327
sg13
S'com.android.internal.http.HttpDateTime$TimeOfDay'
p328
sg15
(lp329
sg17
(lp330
sg19
(lp331
sg21
I0
sbasg92
(lp332
g321
ag328
asg21
I0
sg94
S'685'
p333
sba(iArchitecture
Cluster
p334
(dp335
g7
(lp336
(iArchitecture
Entity
p337
(dp338
g11
(lp339
sg13
S'android.os.BatteryProperties'
p340
sg15
(lp341
sg17
(lp342
sg19
(lp343
sg21
I0
sba(iArchitecture
Entity
p344
(dp345
g11
(lp346
sg13
S'android.os.BatteryProperties$1'
p347
sg15
(lp348
sg17
(lp349
sg19
(lp350
sg21
I0
sbasg92
(lp351
g340
ag347
asg21
I0
sg94
S'686'
p352
sba(iArchitecture
Cluster
p353
(dp354
g7
(lp355
(iArchitecture
Entity
p356
(dp357
g11
(lp358
sg13
S'com.android.server.policy.BurnInProtectionHelper'
p359
sg15
(lp360
sg17
(lp361
sg19
(lp362
sg21
I0
sba(iArchitecture
Entity
p363
(dp364
g11
(lp365
sg13
S'com.android.server.policy.BurnInProtectionHelper$1'
p366
sg15
(lp367
sg17
(lp368
sg19
(lp369
sg21
I0
sbasg92
(lp370
g359
ag366
asg21
I0
sg94
S'687'
p371
sba(iArchitecture
Cluster
p372
(dp373
g7
(lp374
(iArchitecture
Entity
p375
(dp376
g11
(lp377
sg13
S'android.app.IntentService'
p378
sg15
(lp379
sg17
(lp380
sg19
(lp381
sg21
I0
sba(iArchitecture
Entity
p382
(dp383
g11
(lp384
sg13
S'android.app.IntentService$ServiceHandler'
p385
sg15
(lp386
sg17
(lp387
sg19
(lp388
sg21
I0
sbasg92
(lp389
g378
ag385
asg21
I0
sg94
S'688'
p390
sba(iArchitecture
Cluster
p391
(dp392
g7
(lp393
(iArchitecture
Entity
p394
(dp395
g11
(lp396
sg13
S'android.telephony.VoLteServiceState'
p397
sg15
(lp398
sg17
(lp399
sg19
(lp400
sg21
I0
sba(iArchitecture
Entity
p401
(dp402
g11
(lp403
sg13
S'android.telephony.VoLteServiceState$1'
p404
sg15
(lp405
sg17
(lp406
sg19
(lp407
sg21
I0
sbasg92
(lp408
g397
ag404
asg21
I0
sg94
S'689'
p409
sba(iArchitecture
Cluster
p410
(dp411
g7
(lp412
(iArchitecture
Entity
p413
(dp414
g11
(lp415
sg13
S'android.widget.DoubleDigitManager'
p416
sg15
(lp417
sg17
(lp418
sg19
(lp419
sg21
I0
sba(iArchitecture
Entity
p420
(dp421
g11
(lp422
sg13
S'android.widget.DoubleDigitManager$1'
p423
sg15
(lp424
sg17
(lp425
sg19
(lp426
sg21
I0
sba(iArchitecture
Entity
p427
(dp428
g11
(lp429
sg13
S'android.widget.DoubleDigitManager$CallBack'
p430
sg15
(lp431
sg17
(lp432
sg19
(lp433
sg21
I0
sbasg92
(lp434
g416
ag423
ag430
asg21
I0
sg94
S'768'
p435
sba(iArchitecture
Cluster
p436
(dp437
g7
(lp438
(iArchitecture
Entity
p439
(dp440
g11
(lp441
sg13
S'android.view.InputDevice'
p442
sg15
(lp443
sg17
(lp444
sg19
(lp445
sg21
I0
sba(iArchitecture
Entity
p446
(dp447
g11
(lp448
sg13
S'android.view.InputDevice$1'
p449
sg15
(lp450
sg17
(lp451
sg19
(lp452
sg21
I0
sba(iArchitecture
Entity
p453
(dp454
g11
(lp455
sg13
S'android.view.InputDevice$MotionRange'
p456
sg15
(lp457
sg17
(lp458
sg19
(lp459
sg21
I0
sbasg92
(lp460
g442
ag449
ag456
asg21
I0
sg94
S'868'
p461
sba(iArchitecture
Cluster
p462
(dp463
g7
(lp464
(iArchitecture
Entity
p465
(dp466
g11
(lp467
sg13
S'com.android.server.MmsServiceBroker'
p468
sg15
(lp469
sg17
(lp470
sg19
(lp471
sg21
I0
sba(iArchitecture
Entity
p472
(dp473
g11
(lp474
sg13
S'com.android.server.MmsServiceBroker$1'
p475
sg15
(lp476
sg17
(lp477
sg19
(lp478
sg21
I0
sba(iArchitecture
Entity
p479
(dp480
g11
(lp481
sg13
S'com.android.server.MmsServiceBroker$2'
p482
sg15
(lp483
sg17
(lp484
sg19
(lp485
sg21
I0
sba(iArchitecture
Entity
p486
(dp487
g11
(lp488
sg13
S'com.android.server.MmsServiceBroker$3'
p489
sg15
(lp490
sg17
(lp491
sg19
(lp492
sg21
I0
sba(iArchitecture
Entity
p493
(dp494
g11
(lp495
sg13
S'com.android.server.MmsServiceBroker$BinderService'
p496
sg15
(lp497
sg17
(lp498
sg19
(lp499
sg21
I0
sbasg92
(lp500
g468
ag475
ag482
ag489
ag496
asg21
I0
sg94
S'968'
p501
sbasS'target_sub'
p502
S'68'
p503
sg92
(lp504
sS'is_component_arch'
p505
I01
sg94
S'6.0.0_r1'
p506
sba.