(lp0
(iArchitecture
Architecture
p1
(dp2
S'clusters'
p3
(lp4
(iArchitecture
Cluster
p5
(dp6
S'entities'
p7
(lp8
(iArchitecture
Entity
p9
(dp10
S'issue_ids'
p11
(lp12
sS'name'
p13
S'android.net.netlink.NetlinkMessage'
p14
sS'descs'
p15
(lp16
sS'labels'
p17
(lp18
sS'titles'
p19
(lp20
sS'change'
p21
I0
sbasS'classes'
p22
(lp23
g14
asg21
I0
sS'label'
p24
S'106'
p25
sba(iArchitecture
Cluster
p26
(dp27
g7
(lp28
(iArchitecture
Entity
p29
(dp30
g11
(lp31
sg13
S'android.widget.Toolbar'
p32
sg15
(lp33
sg17
(lp34
sg19
(lp35
sg21
I0
sba(iArchitecture
Entity
p36
(dp37
g11
(lp38
sg13
S'android.widget.Toolbar$1'
p39
sg15
(lp40
sg17
(lp41
sg19
(lp42
sg21
I0
sba(iArchitecture
Entity
p43
(dp44
g11
(lp45
sg13
S'android.widget.Toolbar$2'
p46
sg15
(lp47
sg17
(lp48
sg19
(lp49
sg21
I0
sba(iArchitecture
Entity
p50
(dp51
g11
(lp52
sg13
S'android.widget.Toolbar$3'
p53
sg15
(lp54
sg17
(lp55
sg19
(lp56
sg21
I0
sba(iArchitecture
Entity
p57
(dp58
g11
(lp59
sg13
S'android.widget.Toolbar$ExpandedActionViewMenuPresenter'
p60
sg15
(lp61
sg17
(lp62
sg19
(lp63
sg21
I0
sba(iArchitecture
Entity
p64
(dp65
g11
(lp66
sg13
S'android.widget.Toolbar$LayoutParams'
p67
sg15
(lp68
sg17
(lp69
sg19
(lp70
sg21
I0
sba(iArchitecture
Entity
p71
(dp72
g11
(lp73
sg13
S'android.widget.Toolbar$OnMenuItemClickListener'
p74
sg15
(lp75
sg17
(lp76
sg19
(lp77
sg21
I0
sba(iArchitecture
Entity
p78
(dp79
g11
(lp80
sg13
S'android.widget.Toolbar$SavedState'
p81
sg15
(lp82
sg17
(lp83
sg19
(lp84
sg21
I0
sba(iArchitecture
Entity
p85
(dp86
g11
(lp87
sg13
S'android.widget.Toolbar$SavedState$1'
p88
sg15
(lp89
sg17
(lp90
sg19
(lp91
sg21
I0
sbasg22
(lp92
g32
ag39
ag46
ag53
ag60
ag67
ag74
ag81
ag88
asg21
I0
sg24
S'1060'
p93
sba(iArchitecture
Cluster
p94
(dp95
g7
(lp96
(iArchitecture
Entity
p97
(dp98
g11
(lp99
sg13
S'android.service.carrier.CarrierMessagingService'
p100
sg15
(lp101
sg17
(lp102
sg19
(lp103
sg21
I0
sba(iArchitecture
Entity
p104
(dp105
g11
(lp106
sg13
S'android.service.carrier.CarrierMessagingService$ICarrierMessagingWrapper'
p107
sg15
(lp108
sg17
(lp109
sg19
(lp110
sg21
I0
sba(iArchitecture
Entity
p111
(dp112
g11
(lp113
sg13
S'android.service.carrier.CarrierMessagingService$ICarrierMessagingWrapper$1'
p114
sg15
(lp115
sg17
(lp116
sg19
(lp117
sg21
I0
sba(iArchitecture
Entity
p118
(dp119
g11
(lp120
sg13
S'android.service.carrier.CarrierMessagingService$ICarrierMessagingWrapper$2'
p121
sg15
(lp122
sg17
(lp123
sg19
(lp124
sg21
I0
sba(iArchitecture
Entity
p125
(dp126
g11
(lp127
sg13
S'android.service.carrier.CarrierMessagingService$ICarrierMessagingWrapper$3'
p128
sg15
(lp129
sg17
(lp130
sg19
(lp131
sg21
I0
sba(iArchitecture
Entity
p132
(dp133
g11
(lp134
sg13
S'android.service.carrier.CarrierMessagingService$ICarrierMessagingWrapper$4'
p135
sg15
(lp136
sg17
(lp137
sg19
(lp138
sg21
I0
sba(iArchitecture
Entity
p139
(dp140
g11
(lp141
sg13
S'android.service.carrier.CarrierMessagingService$ICarrierMessagingWrapper$5'
p142
sg15
(lp143
sg17
(lp144
sg19
(lp145
sg21
I0
sba(iArchitecture
Entity
p146
(dp147
g11
(lp148
sg13
S'android.service.carrier.CarrierMessagingService$ICarrierMessagingWrapper$6'
p149
sg15
(lp150
sg17
(lp151
sg19
(lp152
sg21
I0
sba(iArchitecture
Entity
p153
(dp154
g11
(lp155
sg13
S'android.service.carrier.CarrierMessagingService$ResultCallback'
p156
sg15
(lp157
sg17
(lp158
sg19
(lp159
sg21
I0
sba(iArchitecture
Entity
p160
(dp161
g11
(lp162
sg13
S'android.service.carrier.CarrierMessagingService$SendMmsResult'
p163
sg15
(lp164
sg17
(lp165
sg19
(lp166
sg21
I0
sba(iArchitecture
Entity
p167
(dp168
g11
(lp169
sg13
S'android.service.carrier.CarrierMessagingService$SendMultipartSmsResult'
p170
sg15
(lp171
sg17
(lp172
sg19
(lp173
sg21
I0
sba(iArchitecture
Entity
p174
(dp175
g11
(lp176
sg13
S'android.service.carrier.CarrierMessagingService$SendSmsResult'
p177
sg15
(lp178
sg17
(lp179
sg19
(lp180
sg21
I0
sbasg22
(lp181
g100
ag107
ag114
ag121
ag128
ag135
ag142
ag149
ag156
ag163
ag170
ag177
asg21
I0
sg24
S'1061'
p182
sba(iArchitecture
Cluster
p183
(dp184
g7
(lp185
(iArchitecture
Entity
p186
(dp187
g11
(lp188
sg13
S'com.android.server.tv.TvInputHardwareManager'
p189
sg15
(lp190
sg17
(lp191
sg19
(lp192
sg21
I0
sba(iArchitecture
Entity
p193
(dp194
g11
(lp195
sg13
S'com.android.server.tv.TvInputHardwareManager$1'
p196
sg15
(lp197
sg17
(lp198
sg19
(lp199
sg21
I0
sba(iArchitecture
Entity
p200
(dp201
g11
(lp202
sg13
S'com.android.server.tv.TvInputHardwareManager$2'
p203
sg15
(lp204
sg17
(lp205
sg19
(lp206
sg21
I0
sba(iArchitecture
Entity
p207
(dp208
g11
(lp209
sg13
S'com.android.server.tv.TvInputHardwareManager$Connection'
p210
sg15
(lp211
sg17
(lp212
sg19
(lp213
sg21
I0
sba(iArchitecture
Entity
p214
(dp215
g11
(lp216
sg13
S'com.android.server.tv.TvInputHardwareManager$HdmiDeviceEventListener'
p217
sg15
(lp218
sg17
(lp219
sg19
(lp220
sg21
I0
sba(iArchitecture
Entity
p221
(dp222
g11
(lp223
sg13
S'com.android.server.tv.TvInputHardwareManager$HdmiHotplugEventListener'
p224
sg15
(lp225
sg17
(lp226
sg19
(lp227
sg21
I0
sba(iArchitecture
Entity
p228
(dp229
g11
(lp230
sg13
S'com.android.server.tv.TvInputHardwareManager$HdmiSystemAudioModeChangeListener'
p231
sg15
(lp232
sg17
(lp233
sg19
(lp234
sg21
I0
sba(iArchitecture
Entity
p235
(dp236
g11
(lp237
sg13
S'com.android.server.tv.TvInputHardwareManager$Listener'
p238
sg15
(lp239
sg17
(lp240
sg19
(lp241
sg21
I0
sba(iArchitecture
Entity
p242
(dp243
g11
(lp244
sg13
S'com.android.server.tv.TvInputHardwareManager$ListenerHandler'
p245
sg15
(lp246
sg17
(lp247
sg19
(lp248
sg21
I0
sba(iArchitecture
Entity
p249
(dp250
g11
(lp251
sg13
S'com.android.server.tv.TvInputHardwareManager$TvInputHardwareImpl'
p252
sg15
(lp253
sg17
(lp254
sg19
(lp255
sg21
I0
sba(iArchitecture
Entity
p256
(dp257
g11
(lp258
sg13
S'com.android.server.tv.TvInputHardwareManager$TvInputHardwareImpl$1'
p259
sg15
(lp260
sg17
(lp261
sg19
(lp262
sg21
I0
sbasg22
(lp263
g189
ag196
ag203
ag210
ag217
ag224
ag231
ag238
ag245
ag252
ag259
asg21
I0
sg24
S'1062'
p264
sba(iArchitecture
Cluster
p265
(dp266
g7
(lp267
(iArchitecture
Entity
p268
(dp269
g11
(lp270
sg13
S'android.os.AsyncTask'
p271
sg15
(lp272
sg17
(lp273
sg19
(lp274
sg21
I0
sba(iArchitecture
Entity
p275
(dp276
g11
(lp277
sg13
S'android.os.AsyncTask$1'
p278
sg15
(lp279
sg17
(lp280
sg19
(lp281
sg21
I0
sba(iArchitecture
Entity
p282
(dp283
g11
(lp284
sg13
S'android.os.AsyncTask$2'
p285
sg15
(lp286
sg17
(lp287
sg19
(lp288
sg21
I0
sba(iArchitecture
Entity
p289
(dp290
g11
(lp291
sg13
S'android.os.AsyncTask$3'
p292
sg15
(lp293
sg17
(lp294
sg19
(lp295
sg21
I0
sba(iArchitecture
Entity
p296
(dp297
g11
(lp298
sg13
S'android.os.AsyncTask$AsyncTaskResult'
p299
sg15
(lp300
sg17
(lp301
sg19
(lp302
sg21
I0
sba(iArchitecture
Entity
p303
(dp304
g11
(lp305
sg13
S'android.os.AsyncTask$InternalHandler'
p306
sg15
(lp307
sg17
(lp308
sg19
(lp309
sg21
I0
sba(iArchitecture
Entity
p310
(dp311
g11
(lp312
sg13
S'android.os.AsyncTask$SerialExecutor'
p313
sg15
(lp314
sg17
(lp315
sg19
(lp316
sg21
I0
sba(iArchitecture
Entity
p317
(dp318
g11
(lp319
sg13
S'android.os.AsyncTask$SerialExecutor$1'
p320
sg15
(lp321
sg17
(lp322
sg19
(lp323
sg21
I0
sba(iArchitecture
Entity
p324
(dp325
g11
(lp326
sg13
S'android.os.AsyncTask$Status'
p327
sg15
(lp328
sg17
(lp329
sg19
(lp330
sg21
I0
sba(iArchitecture
Entity
p331
(dp332
g11
(lp333
sg13
S'android.os.AsyncTask$WorkerRunnable'
p334
sg15
(lp335
sg17
(lp336
sg19
(lp337
sg21
I0
sbasg22
(lp338
g271
ag278
ag285
ag292
ag299
ag306
ag313
ag320
ag327
ag334
asg21
I0
sg24
S'1063'
p339
sba(iArchitecture
Cluster
p340
(dp341
g7
(lp342
(iArchitecture
Entity
p343
(dp344
g11
(lp345
sg13
S'com.android.server.VibratorService'
p346
sg15
(lp347
sg17
(lp348
sg19
(lp349
sg21
I0
sba(iArchitecture
Entity
p350
(dp351
g11
(lp352
sg13
S'com.android.server.VibratorService$1'
p353
sg15
(lp354
sg17
(lp355
sg19
(lp356
sg21
I0
sba(iArchitecture
Entity
p357
(dp358
g11
(lp359
sg13
S'com.android.server.VibratorService$2'
p360
sg15
(lp361
sg17
(lp362
sg19
(lp363
sg21
I0
sba(iArchitecture
Entity
p364
(dp365
g11
(lp366
sg13
S'com.android.server.VibratorService$3'
p367
sg15
(lp368
sg17
(lp369
sg19
(lp370
sg21
I0
sba(iArchitecture
Entity
p371
(dp372
g11
(lp373
sg13
S'com.android.server.VibratorService$4'
p374
sg15
(lp375
sg17
(lp376
sg19
(lp377
sg21
I0
sba(iArchitecture
Entity
p378
(dp379
g11
(lp380
sg13
S'com.android.server.VibratorService$SettingsObserver'
p381
sg15
(lp382
sg17
(lp383
sg19
(lp384
sg21
I0
sba(iArchitecture
Entity
p385
(dp386
g11
(lp387
sg13
S'com.android.server.VibratorService$VibrateThread'
p388
sg15
(lp389
sg17
(lp390
sg19
(lp391
sg21
I0
sba(iArchitecture
Entity
p392
(dp393
g11
(lp394
sg13
S'com.android.server.VibratorService$Vibration'
p395
sg15
(lp396
sg17
(lp397
sg19
(lp398
sg21
I0
sba(iArchitecture
Entity
p399
(dp400
g11
(lp401
sg13
S'com.android.server.VibratorService$VibrationInfo'
p402
sg15
(lp403
sg17
(lp404
sg19
(lp405
sg21
I0
sbasg22
(lp406
g346
ag353
ag360
ag367
ag374
ag381
ag388
ag395
ag402
asg21
I0
sg24
S'1064'
p407
sba(iArchitecture
Cluster
p408
(dp409
g7
(lp410
(iArchitecture
Entity
p411
(dp412
g11
(lp413
sg13
S'com.android.server.NsdService'
p414
sg15
(lp415
sg17
(lp416
sg19
(lp417
sg21
I0
sba(iArchitecture
Entity
p418
(dp419
g11
(lp420
sg13
S'com.android.server.NsdService$ClientInfo'
p421
sg15
(lp422
sg17
(lp423
sg19
(lp424
sg21
I0
sba(iArchitecture
Entity
p425
(dp426
g11
(lp427
sg13
S'com.android.server.NsdService$NativeCallbackReceiver'
p428
sg15
(lp429
sg17
(lp430
sg19
(lp431
sg21
I0
sba(iArchitecture
Entity
p432
(dp433
g11
(lp434
sg13
S'com.android.server.NsdService$NativeEvent'
p435
sg15
(lp436
sg17
(lp437
sg19
(lp438
sg21
I0
sba(iArchitecture
Entity
p439
(dp440
g11
(lp441
sg13
S'com.android.server.NsdService$NativeResponseCode'
p442
sg15
(lp443
sg17
(lp444
sg19
(lp445
sg21
I0
sba(iArchitecture
Entity
p446
(dp447
g11
(lp448
sg13
S'com.android.server.NsdService$NsdStateMachine'
p449
sg15
(lp450
sg17
(lp451
sg19
(lp452
sg21
I0
sba(iArchitecture
Entity
p453
(dp454
g11
(lp455
sg13
S'com.android.server.NsdService$NsdStateMachine$1'
p456
sg15
(lp457
sg17
(lp458
sg19
(lp459
sg21
I0
sba(iArchitecture
Entity
p460
(dp461
g11
(lp462
sg13
S'com.android.server.NsdService$NsdStateMachine$DefaultState'
p463
sg15
(lp464
sg17
(lp465
sg19
(lp466
sg21
I0
sba(iArchitecture
Entity
p467
(dp468
g11
(lp469
sg13
S'com.android.server.NsdService$NsdStateMachine$DisabledState'
p470
sg15
(lp471
sg17
(lp472
sg19
(lp473
sg21
I0
sba(iArchitecture
Entity
p474
(dp475
g11
(lp476
sg13
S'com.android.server.NsdService$NsdStateMachine$EnabledState'
p477
sg15
(lp478
sg17
(lp479
sg19
(lp480
sg21
I0
sbasg22
(lp481
g414
ag421
ag428
ag435
ag442
ag449
ag456
ag463
ag470
ag477
asg21
I0
sg24
S'1065'
p482
sba(iArchitecture
Cluster
p483
(dp484
g7
(lp485
(iArchitecture
Entity
p486
(dp487
g11
(lp488
sg13
S'android.media.midi.MidiManager'
p489
sg15
(lp490
sg17
(lp491
sg19
(lp492
sg21
I0
sba(iArchitecture
Entity
p493
(dp494
g11
(lp495
sg13
S'android.media.midi.MidiManager$1'
p496
sg15
(lp497
sg17
(lp498
sg19
(lp499
sg21
I0
sba(iArchitecture
Entity
p500
(dp501
g11
(lp502
sg13
S'android.media.midi.MidiManager$2'
p503
sg15
(lp504
sg17
(lp505
sg19
(lp506
sg21
I0
sba(iArchitecture
Entity
p507
(dp508
g11
(lp509
sg13
S'android.media.midi.MidiManager$3'
p510
sg15
(lp511
sg17
(lp512
sg19
(lp513
sg21
I0
sba(iArchitecture
Entity
p514
(dp515
g11
(lp516
sg13
S'android.media.midi.MidiManager$DeviceCallback'
p517
sg15
(lp518
sg17
(lp519
sg19
(lp520
sg21
I0
sba(iArchitecture
Entity
p521
(dp522
g11
(lp523
sg13
S'android.media.midi.MidiManager$DeviceListener'
p524
sg15
(lp525
sg17
(lp526
sg19
(lp527
sg21
I0
sba(iArchitecture
Entity
p528
(dp529
g11
(lp530
sg13
S'android.media.midi.MidiManager$DeviceListener$1'
p531
sg15
(lp532
sg17
(lp533
sg19
(lp534
sg21
I0
sba(iArchitecture
Entity
p535
(dp536
g11
(lp537
sg13
S'android.media.midi.MidiManager$DeviceListener$2'
p538
sg15
(lp539
sg17
(lp540
sg19
(lp541
sg21
I0
sba(iArchitecture
Entity
p542
(dp543
g11
(lp544
sg13
S'android.media.midi.MidiManager$DeviceListener$3'
p545
sg15
(lp546
sg17
(lp547
sg19
(lp548
sg21
I0
sba(iArchitecture
Entity
p549
(dp550
g11
(lp551
sg13
S'android.media.midi.MidiManager$OnDeviceOpenedListener'
p552
sg15
(lp553
sg17
(lp554
sg19
(lp555
sg21
I0
sbasg22
(lp556
g489
ag496
ag503
ag510
ag517
ag524
ag531
ag538
ag545
ag552
asg21
I0
sg24
S'1066'
p557
sba(iArchitecture
Cluster
p558
(dp559
g7
(lp560
(iArchitecture
Entity
p561
(dp562
g11
(lp563
sg13
S'android.hardware.fingerprint.FingerprintManager'
p564
sg15
(lp565
sg17
(lp566
sg19
(lp567
sg21
I0
sba(iArchitecture
Entity
p568
(dp569
g11
(lp570
sg13
S'android.hardware.fingerprint.FingerprintManager$1'
p571
sg15
(lp572
sg17
(lp573
sg19
(lp574
sg21
I0
sba(iArchitecture
Entity
p575
(dp576
g11
(lp577
sg13
S'android.hardware.fingerprint.FingerprintManager$AuthenticationCallback'
p578
sg15
(lp579
sg17
(lp580
sg19
(lp581
sg21
I0
sba(iArchitecture
Entity
p582
(dp583
g11
(lp584
sg13
S'android.hardware.fingerprint.FingerprintManager$AuthenticationResult'
p585
sg15
(lp586
sg17
(lp587
sg19
(lp588
sg21
I0
sba(iArchitecture
Entity
p589
(dp590
g11
(lp591
sg13
S'android.hardware.fingerprint.FingerprintManager$CryptoObject'
p592
sg15
(lp593
sg17
(lp594
sg19
(lp595
sg21
I0
sba(iArchitecture
Entity
p596
(dp597
g11
(lp598
sg13
S'android.hardware.fingerprint.FingerprintManager$EnrollmentCallback'
p599
sg15
(lp600
sg17
(lp601
sg19
(lp602
sg21
I0
sba(iArchitecture
Entity
p603
(dp604
g11
(lp605
sg13
S'android.hardware.fingerprint.FingerprintManager$MyHandler'
p606
sg15
(lp607
sg17
(lp608
sg19
(lp609
sg21
I0
sba(iArchitecture
Entity
p610
(dp611
g11
(lp612
sg13
S'android.hardware.fingerprint.FingerprintManager$OnAuthenticationCancelListener'
p613
sg15
(lp614
sg17
(lp615
sg19
(lp616
sg21
I0
sba(iArchitecture
Entity
p617
(dp618
g11
(lp619
sg13
S'android.hardware.fingerprint.FingerprintManager$OnEnrollCancelListener'
p620
sg15
(lp621
sg17
(lp622
sg19
(lp623
sg21
I0
sba(iArchitecture
Entity
p624
(dp625
g11
(lp626
sg13
S'android.hardware.fingerprint.FingerprintManager$RemovalCallback'
p627
sg15
(lp628
sg17
(lp629
sg19
(lp630
sg21
I0
sbasg22
(lp631
g564
ag571
ag578
ag585
ag592
ag599
ag606
ag613
ag620
ag627
asg21
I0
sg24
S'1067'
p632
sba(iArchitecture
Cluster
p633
(dp634
g7
(lp635
(iArchitecture
Entity
p636
(dp637
g11
(lp638
sg13
S'com.android.server.display.DisplayPowerController'
p639
sg15
(lp640
sg17
(lp641
sg19
(lp642
sg21
I0
sba(iArchitecture
Entity
p643
(dp644
g11
(lp645
sg13
S'com.android.server.display.DisplayPowerController$1'
p646
sg15
(lp647
sg17
(lp648
sg19
(lp649
sg21
I0
sba(iArchitecture
Entity
p650
(dp651
g11
(lp652
sg13
S'com.android.server.display.DisplayPowerController$2'
p653
sg15
(lp654
sg17
(lp655
sg19
(lp656
sg21
I0
sba(iArchitecture
Entity
p657
(dp658
g11
(lp659
sg13
S'com.android.server.display.DisplayPowerController$3'
p660
sg15
(lp661
sg17
(lp662
sg19
(lp663
sg21
I0
sba(iArchitecture
Entity
p664
(dp665
g11
(lp666
sg13
S'com.android.server.display.DisplayPowerController$4'
p667
sg15
(lp668
sg17
(lp669
sg19
(lp670
sg21
I0
sba(iArchitecture
Entity
p671
(dp672
g11
(lp673
sg13
S'com.android.server.display.DisplayPowerController$5'
p674
sg15
(lp675
sg17
(lp676
sg19
(lp677
sg21
I0
sba(iArchitecture
Entity
p678
(dp679
g11
(lp680
sg13
S'com.android.server.display.DisplayPowerController$6'
p681
sg15
(lp682
sg17
(lp683
sg19
(lp684
sg21
I0
sba(iArchitecture
Entity
p685
(dp686
g11
(lp687
sg13
S'com.android.server.display.DisplayPowerController$7'
p688
sg15
(lp689
sg17
(lp690
sg19
(lp691
sg21
I0
sba(iArchitecture
Entity
p692
(dp693
g11
(lp694
sg13
S'com.android.server.display.DisplayPowerController$8'
p695
sg15
(lp696
sg17
(lp697
sg19
(lp698
sg21
I0
sba(iArchitecture
Entity
p699
(dp700
g11
(lp701
sg13
S'com.android.server.display.DisplayPowerController$DisplayControllerHandler'
p702
sg15
(lp703
sg17
(lp704
sg19
(lp705
sg21
I0
sba(iArchitecture
Entity
p706
(dp707
g11
(lp708
sg13
S'com.android.server.display.DisplayPowerController$ScreenOnUnblocker'
p709
sg15
(lp710
sg17
(lp711
sg19
(lp712
sg21
I0
sbasg22
(lp713
g639
ag646
ag653
ag660
ag667
ag674
ag681
ag688
ag695
ag702
ag709
asg21
I0
sg24
S'1068'
p714
sba(iArchitecture
Cluster
p715
(dp716
g7
(lp717
(iArchitecture
Entity
p718
(dp719
g11
(lp720
sg13
S'android.renderscript.ScriptGroup'
p721
sg15
(lp722
sg17
(lp723
sg19
(lp724
sg21
I0
sba(iArchitecture
Entity
p725
(dp726
g11
(lp727
sg13
S'android.renderscript.ScriptGroup$Binding'
p728
sg15
(lp729
sg17
(lp730
sg19
(lp731
sg21
I0
sba(iArchitecture
Entity
p732
(dp733
g11
(lp734
sg13
S'android.renderscript.ScriptGroup$Builder'
p735
sg15
(lp736
sg17
(lp737
sg19
(lp738
sg21
I0
sba(iArchitecture
Entity
p739
(dp740
g11
(lp741
sg13
S'android.renderscript.ScriptGroup$Builder2'
p742
sg15
(lp743
sg17
(lp744
sg19
(lp745
sg21
I0
sba(iArchitecture
Entity
p746
(dp747
g11
(lp748
sg13
S'android.renderscript.ScriptGroup$Closure'
p749
sg15
(lp750
sg17
(lp751
sg19
(lp752
sg21
I0
sba(iArchitecture
Entity
p753
(dp754
g11
(lp755
sg13
S'android.renderscript.ScriptGroup$Closure$ValueAndSize'
p756
sg15
(lp757
sg17
(lp758
sg19
(lp759
sg21
I0
sba(iArchitecture
Entity
p760
(dp761
g11
(lp762
sg13
S'android.renderscript.ScriptGroup$ConnectLine'
p763
sg15
(lp764
sg17
(lp765
sg19
(lp766
sg21
I0
sba(iArchitecture
Entity
p767
(dp768
g11
(lp769
sg13
S'android.renderscript.ScriptGroup$Future'
p770
sg15
(lp771
sg17
(lp772
sg19
(lp773
sg21
I0
sba(iArchitecture
Entity
p774
(dp775
g11
(lp776
sg13
S'android.renderscript.ScriptGroup$IO'
p777
sg15
(lp778
sg17
(lp779
sg19
(lp780
sg21
I0
sba(iArchitecture
Entity
p781
(dp782
g11
(lp783
sg13
S'android.renderscript.ScriptGroup$Input'
p784
sg15
(lp785
sg17
(lp786
sg19
(lp787
sg21
I0
sba(iArchitecture
Entity
p788
(dp789
g11
(lp790
sg13
S'android.renderscript.ScriptGroup$Node'
p791
sg15
(lp792
sg17
(lp793
sg19
(lp794
sg21
I0
sbasg22
(lp795
g721
ag728
ag735
ag742
ag749
ag756
ag763
ag770
ag777
ag784
ag791
asg21
I0
sg24
S'1069'
p796
sba(iArchitecture
Cluster
p797
(dp798
g7
(lp799
(iArchitecture
Entity
p800
(dp801
g11
(lp802
sg13
S'android.view.InputEventReceiver'
p803
sg15
(lp804
sg17
(lp805
sg19
(lp806
sg21
I0
sba(iArchitecture
Entity
p807
(dp808
g11
(lp809
sg13
S'android.view.InputEventReceiver$Factory'
p810
sg15
(lp811
sg17
(lp812
sg19
(lp813
sg21
I0
sba(iArchitecture
Entity
p814
(dp815
g11
(lp816
sg13
S'android.view.InputEventSender'
p817
sg15
(lp818
sg17
(lp819
sg19
(lp820
sg21
I0
sbasg22
(lp821
g803
ag810
ag817
asg21
I0
sg24
S'1106'
p822
sbasS'target_sub'
p823
S'106'
p824
sg22
(lp825
sS'is_component_arch'
p826
I01
sg24
S'6.0.0_r1'
p827
sba.