(lp0
(iArchitecture
Architecture
p1
(dp2
S'clusters'
p3
(lp4
(iArchitecture
Cluster
p5
(dp6
S'entities'
p7
(lp8
(iArchitecture
Entity
p9
(dp10
S'issue_ids'
p11
(lp12
sS'name'
p13
S'android.util.MapCollections'
p14
sS'descs'
p15
(lp16
sS'labels'
p17
(lp18
sS'titles'
p19
(lp20
sS'change'
p21
I0
sba(iArchitecture
Entity
p22
(dp23
g11
(lp24
sg13
S'android.util.MapCollections$ArrayIterator'
p25
sg15
(lp26
sg17
(lp27
sg19
(lp28
sg21
I0
sba(iArchitecture
Entity
p29
(dp30
g11
(lp31
sg13
S'android.util.MapCollections$EntrySet'
p32
sg15
(lp33
sg17
(lp34
sg19
(lp35
sg21
I0
sba(iArchitecture
Entity
p36
(dp37
g11
(lp38
sg13
S'android.util.MapCollections$KeySet'
p39
sg15
(lp40
sg17
(lp41
sg19
(lp42
sg21
I0
sba(iArchitecture
Entity
p43
(dp44
g11
(lp45
sg13
S'android.util.MapCollections$MapIterator'
p46
sg15
(lp47
sg17
(lp48
sg19
(lp49
sg21
I0
sba(iArchitecture
Entity
p50
(dp51
g11
(lp52
sg13
S'android.util.MapCollections$ValuesCollection'
p53
sg15
(lp54
sg17
(lp55
sg19
(lp56
sg21
I0
sbasS'classes'
p57
(lp58
g14
ag25
ag32
ag39
ag46
ag53
asg21
I0
sS'label'
p59
S'1029'
p60
sba(iArchitecture
Cluster
p61
(dp62
g7
(lp63
(iArchitecture
Entity
p64
(dp65
g11
(lp66
sg13
S'android.bluetooth.BluetoothGattCallback'
p67
sg15
(lp68
sg17
(lp69
sg19
(lp70
sg21
I0
sba(iArchitecture
Entity
p71
(dp72
g11
(lp73
sg13
S'android.bluetooth.BluetoothGattServerCallback'
p74
sg15
(lp75
sg17
(lp76
sg19
(lp77
sg21
I0
sbasg57
(lp78
g67
ag74
asg21
I0
sg59
S'1129'
p79
sba(iArchitecture
Cluster
p80
(dp81
g7
(lp82
(iArchitecture
Entity
p83
(dp84
g11
(lp85
sg13
S'android.sax.Element'
p86
sg15
(lp87
sg17
(lp88
sg19
(lp89
sg21
I0
sba(iArchitecture
Entity
p90
(dp91
g11
(lp92
sg13
S'android.widget.ExpandableListPosition'
p93
sg15
(lp94
sg17
(lp95
sg19
(lp96
sg21
I0
sbasg57
(lp97
g86
ag93
asg21
I0
sg59
S'1229'
p98
sba(iArchitecture
Cluster
p99
(dp100
g7
(lp101
(iArchitecture
Entity
p102
(dp103
g11
(lp104
sg13
S'android.view.RenderNode'
p105
sg15
(lp106
sg17
(lp107
sg19
(lp108
sg21
I0
sbasg57
(lp109
g105
asg21
I0
sg59
S'129'
p110
sba(iArchitecture
Cluster
p111
(dp112
g7
(lp113
(iArchitecture
Entity
p114
(dp115
g11
(lp116
sg13
S'com.android.internal.view.animation.FallbackLUTInterpolator'
p117
sg15
(lp118
sg17
(lp119
sg19
(lp120
sg21
I0
sbasg57
(lp121
g117
asg21
I0
sg59
S'229'
p122
sba(iArchitecture
Cluster
p123
(dp124
g7
(lp125
(iArchitecture
Entity
p126
(dp127
g11
(lp128
sg13
S'android.gesture.GestureStroke'
p129
sg15
(lp130
sg17
(lp131
sg19
(lp132
sg21
I0
sbasg57
(lp133
g129
asg21
I0
sg59
S'29'
p134
sba(iArchitecture
Cluster
p135
(dp136
g7
(lp137
(iArchitecture
Entity
p138
(dp139
g11
(lp140
sg13
S'android.renderscript.AllocationAdapter'
p141
sg15
(lp142
sg17
(lp143
sg19
(lp144
sg21
I0
sbasg57
(lp145
g141
asg21
I0
sg59
S'290'
p146
sba(iArchitecture
Cluster
p147
(dp148
g7
(lp149
(iArchitecture
Entity
p150
(dp151
g11
(lp152
sg13
S'android.webkit.WebResourceResponse'
p153
sg15
(lp154
sg17
(lp155
sg19
(lp156
sg21
I0
sbasg57
(lp157
g153
asg21
I0
sg59
S'291'
p158
sba(iArchitecture
Cluster
p159
(dp160
g7
(lp161
(iArchitecture
Entity
p162
(dp163
g11
(lp164
sg13
S'android.security.keymaster.KeymasterDefs'
p165
sg15
(lp166
sg17
(lp167
sg19
(lp168
sg21
I0
sbasg57
(lp169
g165
asg21
I0
sg59
S'292'
p170
sba(iArchitecture
Cluster
p171
(dp172
g7
(lp173
(iArchitecture
Entity
p174
(dp175
g11
(lp176
sg13
S'android.telephony.Rlog'
p177
sg15
(lp178
sg17
(lp179
sg19
(lp180
sg21
I0
sbasg57
(lp181
g177
asg21
I0
sg59
S'293'
p182
sba(iArchitecture
Cluster
p183
(dp184
g7
(lp185
(iArchitecture
Entity
p186
(dp187
g11
(lp188
sg13
S'android.media.ToneGenerator'
p189
sg15
(lp190
sg17
(lp191
sg19
(lp192
sg21
I0
sbasg57
(lp193
g189
asg21
I0
sg59
S'294'
p194
sba(iArchitecture
Cluster
p195
(dp196
g7
(lp197
(iArchitecture
Entity
p198
(dp199
g11
(lp200
sg13
S'android.provider.SearchIndexablesProvider'
p201
sg15
(lp202
sg17
(lp203
sg19
(lp204
sg21
I0
sbasg57
(lp205
g201
asg21
I0
sg59
S'295'
p206
sba(iArchitecture
Cluster
p207
(dp208
g7
(lp209
(iArchitecture
Entity
p210
(dp211
g11
(lp212
sg13
S'com.android.server.am.AppTimeTracker'
p213
sg15
(lp214
sg17
(lp215
sg19
(lp216
sg21
I0
sbasg57
(lp217
g213
asg21
I0
sg59
S'296'
p218
sba(iArchitecture
Cluster
p219
(dp220
g7
(lp221
(iArchitecture
Entity
p222
(dp223
g11
(lp224
sg13
S'android.graphics.ComposeShader'
p225
sg15
(lp226
sg17
(lp227
sg19
(lp228
sg21
I0
sbasg57
(lp229
g225
asg21
I0
sg59
S'297'
p230
sba(iArchitecture
Cluster
p231
(dp232
g7
(lp233
(iArchitecture
Entity
p234
(dp235
g11
(lp236
sg13
S'com.android.server.location.GeofenceState'
p237
sg15
(lp238
sg17
(lp239
sg19
(lp240
sg21
I0
sbasg57
(lp241
g237
asg21
I0
sg59
S'298'
p242
sba(iArchitecture
Cluster
p243
(dp244
g7
(lp245
(iArchitecture
Entity
p246
(dp247
g11
(lp248
sg13
S'android.view.FrameStats'
p249
sg15
(lp250
sg17
(lp251
sg19
(lp252
sg21
I0
sbasg57
(lp253
g249
asg21
I0
sg59
S'299'
p254
sba(iArchitecture
Cluster
p255
(dp256
g7
(lp257
(iArchitecture
Entity
p258
(dp259
g11
(lp260
sg13
S'android.appwidget.AppWidgetProvider'
p261
sg15
(lp262
sg17
(lp263
sg19
(lp264
sg21
I0
sbasg57
(lp265
g261
asg21
I0
sg59
S'329'
p266
sba(iArchitecture
Cluster
p267
(dp268
g7
(lp269
(iArchitecture
Entity
p270
(dp271
g11
(lp272
sg13
S'android.hardware.camera2.legacy.PerfMeasurement'
p273
sg15
(lp274
sg17
(lp275
sg19
(lp276
sg21
I0
sbasg57
(lp277
g273
asg21
I0
sg59
S'429'
p278
sba(iArchitecture
Cluster
p279
(dp280
g7
(lp281
(iArchitecture
Entity
p282
(dp283
g11
(lp284
sg13
S'android.telephony.CellInfoCdma'
p285
sg15
(lp286
sg17
(lp287
sg19
(lp288
sg21
I0
sba(iArchitecture
Entity
p289
(dp290
g11
(lp291
sg13
S'android.telephony.CellInfoCdma$1'
p292
sg15
(lp293
sg17
(lp294
sg19
(lp295
sg21
I0
sbasg57
(lp296
g285
ag292
asg21
I0
sg59
S'529'
p297
sba(iArchitecture
Cluster
p298
(dp299
g7
(lp300
(iArchitecture
Entity
p301
(dp302
g11
(lp303
sg13
S'android.view.ThreadedRenderer'
p304
sg15
(lp305
sg17
(lp306
sg19
(lp307
sg21
I0
sba(iArchitecture
Entity
p308
(dp309
g11
(lp310
sg13
S'android.view.ThreadedRenderer$ProcessInitializer'
p311
sg15
(lp312
sg17
(lp313
sg19
(lp314
sg21
I0
sbasg57
(lp315
g304
ag311
asg21
I0
sg59
S'629'
p316
sba(iArchitecture
Cluster
p317
(dp318
g7
(lp319
(iArchitecture
Entity
p320
(dp321
g11
(lp322
sg13
S'android.net.DhcpInfo'
p323
sg15
(lp324
sg17
(lp325
sg19
(lp326
sg21
I0
sba(iArchitecture
Entity
p327
(dp328
g11
(lp329
sg13
S'android.net.DhcpInfo$1'
p330
sg15
(lp331
sg17
(lp332
sg19
(lp333
sg21
I0
sbasg57
(lp334
g323
ag330
asg21
I0
sg59
S'729'
p335
sba(iArchitecture
Cluster
p336
(dp337
g7
(lp338
(iArchitecture
Entity
p339
(dp340
g11
(lp341
sg13
S'android.app.SharedElementCallback'
p342
sg15
(lp343
sg17
(lp344
sg19
(lp345
sg21
I0
sba(iArchitecture
Entity
p346
(dp347
g11
(lp348
sg13
S'android.app.SharedElementCallback$1'
p349
sg15
(lp350
sg17
(lp351
sg19
(lp352
sg21
I0
sba(iArchitecture
Entity
p353
(dp354
g11
(lp355
sg13
S'android.app.SharedElementCallback$OnSharedElementsReadyListener'
p356
sg15
(lp357
sg17
(lp358
sg19
(lp359
sg21
I0
sbasg57
(lp360
g342
ag349
ag356
asg21
I0
sg59
S'829'
p361
sba(iArchitecture
Cluster
p362
(dp363
g7
(lp364
(iArchitecture
Entity
p365
(dp366
g11
(lp367
sg13
S'android.telecom.RemoteConnectionService'
p368
sg15
(lp369
sg17
(lp370
sg19
(lp371
sg21
I0
sba(iArchitecture
Entity
p372
(dp373
g11
(lp374
sg13
S'android.telecom.RemoteConnectionService$1'
p375
sg15
(lp376
sg17
(lp377
sg19
(lp378
sg21
I0
sba(iArchitecture
Entity
p379
(dp380
g11
(lp381
sg13
S'android.telecom.RemoteConnectionService$1$1'
p382
sg15
(lp383
sg17
(lp384
sg19
(lp385
sg21
I0
sba(iArchitecture
Entity
p386
(dp387
g11
(lp388
sg13
S'android.telecom.RemoteConnectionService$2'
p389
sg15
(lp390
sg17
(lp391
sg19
(lp392
sg21
I0
sba(iArchitecture
Entity
p393
(dp394
g11
(lp395
sg13
S'android.telecom.RemoteConnectionService$3'
p396
sg15
(lp397
sg17
(lp398
sg19
(lp399
sg21
I0
sbasg57
(lp400
g368
ag375
ag382
ag389
ag396
asg21
I0
sg59
S'929'
p401
sbasS'target_sub'
p402
S'29'
p403
sg57
(lp404
sS'is_component_arch'
p405
I01
sg59
S'6.0.0_r1'
p406
sba.