(lp0
(iArchitecture
Architecture
p1
(dp2
S'clusters'
p3
(lp4
(iArchitecture
Cluster
p5
(dp6
S'entities'
p7
(lp8
(iArchitecture
Entity
p9
(dp10
S'issue_ids'
p11
(lp12
sS'name'
p13
S'com.android.internal.widget.LockPatternView'
p14
sS'descs'
p15
(lp16
sS'labels'
p17
(lp18
sS'titles'
p19
(lp20
sS'change'
p21
I0
sba(iArchitecture
Entity
p22
(dp23
g11
(lp24
sg13
S'com.android.internal.widget.LockPatternView$1'
p25
sg15
(lp26
sg17
(lp27
sg19
(lp28
sg21
I0
sba(iArchitecture
Entity
p29
(dp30
g11
(lp31
sg13
S'com.android.internal.widget.LockPatternView$2'
p32
sg15
(lp33
sg17
(lp34
sg19
(lp35
sg21
I0
sba(iArchitecture
Entity
p36
(dp37
g11
(lp38
sg13
S'com.android.internal.widget.LockPatternView$3'
p39
sg15
(lp40
sg17
(lp41
sg19
(lp42
sg21
I0
sba(iArchitecture
Entity
p43
(dp44
g11
(lp45
sg13
S'com.android.internal.widget.LockPatternView$4'
p46
sg15
(lp47
sg17
(lp48
sg19
(lp49
sg21
I0
sba(iArchitecture
Entity
p50
(dp51
g11
(lp52
sg13
S'com.android.internal.widget.LockPatternView$5'
p53
sg15
(lp54
sg17
(lp55
sg19
(lp56
sg21
I0
sba(iArchitecture
Entity
p57
(dp58
g11
(lp59
sg13
S'com.android.internal.widget.LockPatternView$6'
p60
sg15
(lp61
sg17
(lp62
sg19
(lp63
sg21
I0
sba(iArchitecture
Entity
p64
(dp65
g11
(lp66
sg13
S'com.android.internal.widget.LockPatternView$7'
p67
sg15
(lp68
sg17
(lp69
sg19
(lp70
sg21
I0
sba(iArchitecture
Entity
p71
(dp72
g11
(lp73
sg13
S'com.android.internal.widget.LockPatternView$8'
p74
sg15
(lp75
sg17
(lp76
sg19
(lp77
sg21
I0
sba(iArchitecture
Entity
p78
(dp79
g11
(lp80
sg13
S'com.android.internal.widget.LockPatternView$Cell'
p81
sg15
(lp82
sg17
(lp83
sg19
(lp84
sg21
I0
sba(iArchitecture
Entity
p85
(dp86
g11
(lp87
sg13
S'com.android.internal.widget.LockPatternView$CellState'
p88
sg15
(lp89
sg17
(lp90
sg19
(lp91
sg21
I0
sba(iArchitecture
Entity
p92
(dp93
g11
(lp94
sg13
S'com.android.internal.widget.LockPatternView$DisplayMode'
p95
sg15
(lp96
sg17
(lp97
sg19
(lp98
sg21
I0
sba(iArchitecture
Entity
p99
(dp100
g11
(lp101
sg13
S'com.android.internal.widget.LockPatternView$OnPatternListener'
p102
sg15
(lp103
sg17
(lp104
sg19
(lp105
sg21
I0
sba(iArchitecture
Entity
p106
(dp107
g11
(lp108
sg13
S'com.android.internal.widget.LockPatternView$PatternExploreByTouchHelper'
p109
sg15
(lp110
sg17
(lp111
sg19
(lp112
sg21
I0
sba(iArchitecture
Entity
p113
(dp114
g11
(lp115
sg13
S'com.android.internal.widget.LockPatternView$PatternExploreByTouchHelper$VirtualViewContainer'
p116
sg15
(lp117
sg17
(lp118
sg19
(lp119
sg21
I0
sba(iArchitecture
Entity
p120
(dp121
g11
(lp122
sg13
S'com.android.internal.widget.LockPatternView$SavedState'
p123
sg15
(lp124
sg17
(lp125
sg19
(lp126
sg21
I0
sba(iArchitecture
Entity
p127
(dp128
g11
(lp129
sg13
S'com.android.internal.widget.LockPatternView$SavedState$1'
p130
sg15
(lp131
sg17
(lp132
sg19
(lp133
sg21
I0
sbasS'classes'
p134
(lp135
g14
ag25
ag32
ag39
ag46
ag53
ag60
ag67
ag74
ag81
ag88
ag95
ag102
ag109
ag116
ag123
ag130
asg21
I0
sS'label'
p136
S'1087'
p137
sba(iArchitecture
Cluster
p138
(dp139
g7
(lp140
(iArchitecture
Entity
p141
(dp142
g11
(lp143
sg13
S'android.hardware.camera2.marshal.impl.MarshalQueryableHighSpeedVideoConfiguration'
p144
sg15
(lp145
sg17
(lp146
sg19
(lp147
sg21
I0
sba(iArchitecture
Entity
p148
(dp149
g11
(lp150
sg13
S'android.hardware.camera2.marshal.impl.MarshalQueryableHighSpeedVideoConfiguration$MarshalerHighSpeedVideoConfiguration'
p151
sg15
(lp152
sg17
(lp153
sg19
(lp154
sg21
I0
sba(iArchitecture
Entity
p155
(dp156
g11
(lp157
sg13
S'android.hardware.camera2.params.HighSpeedVideoConfiguration'
p158
sg15
(lp159
sg17
(lp160
sg19
(lp161
sg21
I0
sbasg134
(lp162
g144
ag151
ag158
asg21
I0
sg136
S'1187'
p163
sba(iArchitecture
Cluster
p164
(dp165
g7
(lp166
(iArchitecture
Entity
p167
(dp168
g11
(lp169
sg13
S'com.android.server.policy.keyguard.KeyguardStateMonitor'
p170
sg15
(lp171
sg17
(lp172
sg19
(lp173
sg21
I0
sbasg134
(lp174
g170
asg21
I0
sg136
S'187'
p175
sba(iArchitecture
Cluster
p176
(dp177
g7
(lp178
(iArchitecture
Entity
p179
(dp180
g11
(lp181
sg13
S'android.hardware.camera2.legacy.BurstHolder'
p182
sg15
(lp183
sg17
(lp184
sg19
(lp185
sg21
I0
sbasg134
(lp186
g182
asg21
I0
sg136
S'287'
p187
sba(iArchitecture
Cluster
p188
(dp189
g7
(lp190
(iArchitecture
Entity
p191
(dp192
g11
(lp193
sg13
S'android.widget.EdgeEffect'
p194
sg15
(lp195
sg17
(lp196
sg19
(lp197
sg21
I0
sbasg134
(lp198
g194
asg21
I0
sg136
S'387'
p199
sba(iArchitecture
Cluster
p200
(dp201
g7
(lp202
(iArchitecture
Entity
p203
(dp204
g11
(lp205
sg13
S'android.content.ClipDescription'
p206
sg15
(lp207
sg17
(lp208
sg19
(lp209
sg21
I0
sba(iArchitecture
Entity
p210
(dp211
g11
(lp212
sg13
S'android.content.ClipDescription$1'
p213
sg15
(lp214
sg17
(lp215
sg19
(lp216
sg21
I0
sbasg134
(lp217
g206
ag213
asg21
I0
sg136
S'487'
p218
sba(iArchitecture
Cluster
p219
(dp220
g7
(lp221
(iArchitecture
Entity
p222
(dp223
g11
(lp224
sg13
S'com.android.server.location.FusedProxy'
p225
sg15
(lp226
sg17
(lp227
sg19
(lp228
sg21
I0
sba(iArchitecture
Entity
p229
(dp230
g11
(lp231
sg13
S'com.android.server.location.FusedProxy$1'
p232
sg15
(lp233
sg17
(lp234
sg19
(lp235
sg21
I0
sbasg134
(lp236
g225
ag232
asg21
I0
sg136
S'587'
p237
sba(iArchitecture
Cluster
p238
(dp239
g7
(lp240
(iArchitecture
Entity
p241
(dp242
g11
(lp243
sg13
S'com.android.server.policy.BurnInProtectionHelper'
p244
sg15
(lp245
sg17
(lp246
sg19
(lp247
sg21
I0
sba(iArchitecture
Entity
p248
(dp249
g11
(lp250
sg13
S'com.android.server.policy.BurnInProtectionHelper$1'
p251
sg15
(lp252
sg17
(lp253
sg19
(lp254
sg21
I0
sbasg134
(lp255
g244
ag251
asg21
I0
sg136
S'687'
p256
sba(iArchitecture
Cluster
p257
(dp258
g7
(lp259
(iArchitecture
Entity
p260
(dp261
g11
(lp262
sg13
S'android.hardware.soundtrigger.SoundTriggerModule'
p263
sg15
(lp264
sg17
(lp265
sg19
(lp266
sg21
I0
sba(iArchitecture
Entity
p267
(dp268
g11
(lp269
sg13
S'android.hardware.soundtrigger.SoundTriggerModule$NativeEventHandlerDelegate'
p270
sg15
(lp271
sg17
(lp272
sg19
(lp273
sg21
I0
sba(iArchitecture
Entity
p274
(dp275
g11
(lp276
sg13
S'android.hardware.soundtrigger.SoundTriggerModule$NativeEventHandlerDelegate$1'
p277
sg15
(lp278
sg17
(lp279
sg19
(lp280
sg21
I0
sbasg134
(lp281
g263
ag270
ag277
asg21
I0
sg136
S'787'
p282
sba(iArchitecture
Cluster
p283
(dp284
g7
(lp285
(iArchitecture
Entity
p286
(dp287
g11
(lp288
sg13
S'android.media.tv.TvContentRating'
p289
sg15
(lp290
sg17
(lp291
sg19
(lp292
sg21
I0
sbasg134
(lp293
g289
asg21
I0
sg136
S'87'
p294
sba(iArchitecture
Cluster
p295
(dp296
g7
(lp297
(iArchitecture
Entity
p298
(dp299
g11
(lp300
sg13
S'android.telecom.VideoProfile'
p301
sg15
(lp302
sg17
(lp303
sg19
(lp304
sg21
I0
sba(iArchitecture
Entity
p305
(dp306
g11
(lp307
sg13
S'android.telecom.VideoProfile$1'
p308
sg15
(lp309
sg17
(lp310
sg19
(lp311
sg21
I0
sba(iArchitecture
Entity
p312
(dp313
g11
(lp314
sg13
S'android.telecom.VideoProfile$CameraCapabilities'
p315
sg15
(lp316
sg17
(lp317
sg19
(lp318
sg21
I0
sba(iArchitecture
Entity
p319
(dp320
g11
(lp321
sg13
S'android.telecom.VideoProfile$CameraCapabilities$1'
p322
sg15
(lp323
sg17
(lp324
sg19
(lp325
sg21
I0
sbasg134
(lp326
g301
ag308
ag315
ag322
asg21
I0
sg136
S'870'
p327
sba(iArchitecture
Cluster
p328
(dp329
g7
(lp330
(iArchitecture
Entity
p331
(dp332
g11
(lp333
sg13
S'android.content.res.AssetFileDescriptor'
p334
sg15
(lp335
sg17
(lp336
sg19
(lp337
sg21
I0
sba(iArchitecture
Entity
p338
(dp339
g11
(lp340
sg13
S'android.content.res.AssetFileDescriptor$1'
p341
sg15
(lp342
sg17
(lp343
sg19
(lp344
sg21
I0
sba(iArchitecture
Entity
p345
(dp346
g11
(lp347
sg13
S'android.content.res.AssetFileDescriptor$AutoCloseInputStream'
p348
sg15
(lp349
sg17
(lp350
sg19
(lp351
sg21
I0
sba(iArchitecture
Entity
p352
(dp353
g11
(lp354
sg13
S'android.content.res.AssetFileDescriptor$AutoCloseOutputStream'
p355
sg15
(lp356
sg17
(lp357
sg19
(lp358
sg21
I0
sbasg134
(lp359
g334
ag341
ag348
ag355
asg21
I0
sg136
S'871'
p360
sba(iArchitecture
Cluster
p361
(dp362
g7
(lp363
(iArchitecture
Entity
p364
(dp365
g11
(lp366
sg13
S'android.renderscript.Element'
p367
sg15
(lp368
sg17
(lp369
sg19
(lp370
sg21
I0
sba(iArchitecture
Entity
p371
(dp372
g11
(lp373
sg13
S'android.renderscript.Element$Builder'
p374
sg15
(lp375
sg17
(lp376
sg19
(lp377
sg21
I0
sba(iArchitecture
Entity
p378
(dp379
g11
(lp380
sg13
S'android.renderscript.Element$DataKind'
p381
sg15
(lp382
sg17
(lp383
sg19
(lp384
sg21
I0
sba(iArchitecture
Entity
p385
(dp386
g11
(lp387
sg13
S'android.renderscript.Element$DataType'
p388
sg15
(lp389
sg17
(lp390
sg19
(lp391
sg21
I0
sbasg134
(lp392
g367
ag374
ag381
ag388
asg21
I0
sg136
S'872'
p393
sba(iArchitecture
Cluster
p394
(dp395
g7
(lp396
(iArchitecture
Entity
p397
(dp398
g11
(lp399
sg13
S'android.hardware.camera2.impl.CallbackProxies'
p400
sg15
(lp401
sg17
(lp402
sg19
(lp403
sg21
I0
sba(iArchitecture
Entity
p404
(dp405
g11
(lp406
sg13
S'android.hardware.camera2.impl.CallbackProxies$DeviceCaptureCallbackProxy'
p407
sg15
(lp408
sg17
(lp409
sg19
(lp410
sg21
I0
sba(iArchitecture
Entity
p411
(dp412
g11
(lp413
sg13
S'android.hardware.camera2.impl.CallbackProxies$DeviceStateCallbackProxy'
p414
sg15
(lp415
sg17
(lp416
sg19
(lp417
sg21
I0
sba(iArchitecture
Entity
p418
(dp419
g11
(lp420
sg13
S'android.hardware.camera2.impl.CallbackProxies$SessionStateCallbackProxy'
p421
sg15
(lp422
sg17
(lp423
sg19
(lp424
sg21
I0
sbasg134
(lp425
g400
ag407
ag414
ag421
asg21
I0
sg136
S'873'
p426
sba(iArchitecture
Cluster
p427
(dp428
g7
(lp429
(iArchitecture
Entity
p430
(dp431
g11
(lp432
sg13
S'android.animation.Keyframe'
p433
sg15
(lp434
sg17
(lp435
sg19
(lp436
sg21
I0
sba(iArchitecture
Entity
p437
(dp438
g11
(lp439
sg13
S'android.animation.Keyframe$FloatKeyframe'
p440
sg15
(lp441
sg17
(lp442
sg19
(lp443
sg21
I0
sba(iArchitecture
Entity
p444
(dp445
g11
(lp446
sg13
S'android.animation.Keyframe$IntKeyframe'
p447
sg15
(lp448
sg17
(lp449
sg19
(lp450
sg21
I0
sba(iArchitecture
Entity
p451
(dp452
g11
(lp453
sg13
S'android.animation.Keyframe$ObjectKeyframe'
p454
sg15
(lp455
sg17
(lp456
sg19
(lp457
sg21
I0
sbasg134
(lp458
g433
ag440
ag447
ag454
asg21
I0
sg136
S'874'
p459
sba(iArchitecture
Cluster
p460
(dp461
g7
(lp462
(iArchitecture
Entity
p463
(dp464
g11
(lp465
sg13
S'android.content.IntentFilter'
p466
sg15
(lp467
sg17
(lp468
sg19
(lp469
sg21
I0
sba(iArchitecture
Entity
p470
(dp471
g11
(lp472
sg13
S'android.content.IntentFilter$1'
p473
sg15
(lp474
sg17
(lp475
sg19
(lp476
sg21
I0
sba(iArchitecture
Entity
p477
(dp478
g11
(lp479
sg13
S'android.content.IntentFilter$AuthorityEntry'
p480
sg15
(lp481
sg17
(lp482
sg19
(lp483
sg21
I0
sba(iArchitecture
Entity
p484
(dp485
g11
(lp486
sg13
S'android.content.IntentFilter$MalformedMimeTypeException'
p487
sg15
(lp488
sg17
(lp489
sg19
(lp490
sg21
I0
sbasg134
(lp491
g466
ag473
ag480
ag487
asg21
I0
sg136
S'875'
p492
sba(iArchitecture
Cluster
p493
(dp494
g7
(lp495
(iArchitecture
Entity
p496
(dp497
g11
(lp498
sg13
S'android.widget.DateTimeView'
p499
sg15
(lp500
sg17
(lp501
sg19
(lp502
sg21
I0
sba(iArchitecture
Entity
p503
(dp504
g11
(lp505
sg13
S'android.widget.DateTimeView$ReceiverInfo'
p506
sg15
(lp507
sg17
(lp508
sg19
(lp509
sg21
I0
sba(iArchitecture
Entity
p510
(dp511
g11
(lp512
sg13
S'android.widget.DateTimeView$ReceiverInfo$1'
p513
sg15
(lp514
sg17
(lp515
sg19
(lp516
sg21
I0
sba(iArchitecture
Entity
p517
(dp518
g11
(lp519
sg13
S'android.widget.DateTimeView$ReceiverInfo$2'
p520
sg15
(lp521
sg17
(lp522
sg19
(lp523
sg21
I0
sbasg134
(lp524
g499
ag506
ag513
ag520
asg21
I0
sg136
S'876'
p525
sba(iArchitecture
Cluster
p526
(dp527
g7
(lp528
(iArchitecture
Entity
p529
(dp530
g11
(lp531
sg13
S'android.hardware.display.DisplayManagerInternal'
p532
sg15
(lp533
sg17
(lp534
sg19
(lp535
sg21
I0
sba(iArchitecture
Entity
p536
(dp537
g11
(lp538
sg13
S'android.hardware.display.DisplayManagerInternal$DisplayPowerCallbacks'
p539
sg15
(lp540
sg17
(lp541
sg19
(lp542
sg21
I0
sba(iArchitecture
Entity
p543
(dp544
g11
(lp545
sg13
S'android.hardware.display.DisplayManagerInternal$DisplayPowerRequest'
p546
sg15
(lp547
sg17
(lp548
sg19
(lp549
sg21
I0
sba(iArchitecture
Entity
p550
(dp551
g11
(lp552
sg13
S'android.hardware.display.DisplayManagerInternal$DisplayTransactionListener'
p553
sg15
(lp554
sg17
(lp555
sg19
(lp556
sg21
I0
sbasg134
(lp557
g532
ag539
ag546
ag553
asg21
I0
sg136
S'877'
p558
sba(iArchitecture
Cluster
p559
(dp560
g7
(lp561
(iArchitecture
Entity
p562
(dp563
g11
(lp564
sg13
S'com.android.server.display.RampAnimator'
p565
sg15
(lp566
sg17
(lp567
sg19
(lp568
sg21
I0
sba(iArchitecture
Entity
p569
(dp570
g11
(lp571
sg13
S'com.android.server.display.RampAnimator$1'
p572
sg15
(lp573
sg17
(lp574
sg19
(lp575
sg21
I0
sba(iArchitecture
Entity
p576
(dp577
g11
(lp578
sg13
S'com.android.server.display.RampAnimator$Listener'
p579
sg15
(lp580
sg17
(lp581
sg19
(lp582
sg21
I0
sbasg134
(lp583
g565
ag572
ag579
asg21
I0
sg136
S'878'
p584
sba(iArchitecture
Cluster
p585
(dp586
g7
(lp587
(iArchitecture
Entity
p588
(dp589
g11
(lp590
sg13
S'android.media.session.MediaSessionLegacyHelper'
p591
sg15
(lp592
sg17
(lp593
sg19
(lp594
sg21
I0
sba(iArchitecture
Entity
p595
(dp596
g11
(lp597
sg13
S'android.media.session.MediaSessionLegacyHelper$MediaButtonListener'
p598
sg15
(lp599
sg17
(lp600
sg19
(lp601
sg21
I0
sba(iArchitecture
Entity
p602
(dp603
g11
(lp604
sg13
S'android.media.session.MediaSessionLegacyHelper$SessionHolder'
p605
sg15
(lp606
sg17
(lp607
sg19
(lp608
sg21
I0
sba(iArchitecture
Entity
p609
(dp610
g11
(lp611
sg13
S'android.media.session.MediaSessionLegacyHelper$SessionHolder$SessionCallback'
p612
sg15
(lp613
sg17
(lp614
sg19
(lp615
sg21
I0
sbasg134
(lp616
g591
ag598
ag605
ag612
asg21
I0
sg136
S'879'
p617
sba(iArchitecture
Cluster
p618
(dp619
g7
(lp620
(iArchitecture
Entity
p621
(dp622
g11
(lp623
sg13
S'android.telecom.ConnectionServiceAdapterServant'
p624
sg15
(lp625
sg17
(lp626
sg19
(lp627
sg21
I0
sba(iArchitecture
Entity
p628
(dp629
g11
(lp630
sg13
S'android.telecom.ConnectionServiceAdapterServant$1'
p631
sg15
(lp632
sg17
(lp633
sg19
(lp634
sg21
I0
sba(iArchitecture
Entity
p635
(dp636
g11
(lp637
sg13
S'android.telecom.ConnectionServiceAdapterServant$2'
p638
sg15
(lp639
sg17
(lp640
sg19
(lp641
sg21
I0
sbasg134
(lp642
g624
ag631
ag638
asg21
I0
sg136
S'887'
p643
sba(iArchitecture
Cluster
p644
(dp645
g7
(lp646
(iArchitecture
Entity
p647
(dp648
g11
(lp649
sg13
S'android.webkit.WebSettings'
p650
sg15
(lp651
sg17
(lp652
sg19
(lp653
sg21
I0
sba(iArchitecture
Entity
p654
(dp655
g11
(lp656
sg13
S'android.webkit.WebSettings$LayoutAlgorithm'
p657
sg15
(lp658
sg17
(lp659
sg19
(lp660
sg21
I0
sba(iArchitecture
Entity
p661
(dp662
g11
(lp663
sg13
S'android.webkit.WebSettings$PluginState'
p664
sg15
(lp665
sg17
(lp666
sg19
(lp667
sg21
I0
sba(iArchitecture
Entity
p668
(dp669
g11
(lp670
sg13
S'android.webkit.WebSettings$RenderPriority'
p671
sg15
(lp672
sg17
(lp673
sg19
(lp674
sg21
I0
sba(iArchitecture
Entity
p675
(dp676
g11
(lp677
sg13
S'android.webkit.WebSettings$TextSize'
p678
sg15
(lp679
sg17
(lp680
sg19
(lp681
sg21
I0
sba(iArchitecture
Entity
p682
(dp683
g11
(lp684
sg13
S'android.webkit.WebSettings$ZoomDensity'
p685
sg15
(lp686
sg17
(lp687
sg19
(lp688
sg21
I0
sbasg134
(lp689
g650
ag657
ag664
ag671
ag678
ag685
asg21
I0
sg136
S'987'
p690
sbasS'target_sub'
p691
S'87'
p692
sg134
(lp693
sS'is_component_arch'
p694
I01
sg136
S'6.0.0_r1'
p695
sba.