(lp0
(iArchitecture
Architecture
p1
(dp2
S'clusters'
p3
(lp4
(iArchitecture
Cluster
p5
(dp6
S'entities'
p7
(lp8
(iArchitecture
Entity
p9
(dp10
S'issue_ids'
p11
(lp12
sS'name'
p13
S'android.view.GestureDetector'
p14
sS'descs'
p15
(lp16
sS'labels'
p17
(lp18
sS'titles'
p19
(lp20
sS'change'
p21
I0
sba(iArchitecture
Entity
p22
(dp23
g11
(lp24
sg13
S'android.view.GestureDetector$GestureHandler'
p25
sg15
(lp26
sg17
(lp27
sg19
(lp28
sg21
I0
sba(iArchitecture
Entity
p29
(dp30
g11
(lp31
sg13
S'android.view.GestureDetector$OnContextClickListener'
p32
sg15
(lp33
sg17
(lp34
sg19
(lp35
sg21
I0
sba(iArchitecture
Entity
p36
(dp37
g11
(lp38
sg13
S'android.view.GestureDetector$OnDoubleTapListener'
p39
sg15
(lp40
sg17
(lp41
sg19
(lp42
sg21
I0
sba(iArchitecture
Entity
p43
(dp44
g11
(lp45
sg13
S'android.view.GestureDetector$OnGestureListener'
p46
sg15
(lp47
sg17
(lp48
sg19
(lp49
sg21
I0
sba(iArchitecture
Entity
p50
(dp51
g11
(lp52
sg13
S'android.view.GestureDetector$SimpleOnGestureListener'
p53
sg15
(lp54
sg17
(lp55
sg19
(lp56
sg21
I0
sbasS'classes'
p57
(lp58
g14
ag25
ag32
ag39
ag46
ag53
asg21
I0
sS'label'
p59
S'1016'
p60
sba(iArchitecture
Cluster
p61
(dp62
g7
(lp63
(iArchitecture
Entity
p64
(dp65
g11
(lp66
sg13
S'android.telephony.CellSignalStrengthGsm'
p67
sg15
(lp68
sg17
(lp69
sg19
(lp70
sg21
I0
sba(iArchitecture
Entity
p71
(dp72
g11
(lp73
sg13
S'android.telephony.CellSignalStrengthGsm$1'
p74
sg15
(lp75
sg17
(lp76
sg19
(lp77
sg21
I0
sba(iArchitecture
Entity
p78
(dp79
g11
(lp80
sg13
S'android.telephony.CellSignalStrengthWcdma'
p81
sg15
(lp82
sg17
(lp83
sg19
(lp84
sg21
I0
sba(iArchitecture
Entity
p85
(dp86
g11
(lp87
sg13
S'android.telephony.CellSignalStrengthWcdma$1'
p88
sg15
(lp89
sg17
(lp90
sg19
(lp91
sg21
I0
sbasg57
(lp92
g67
ag74
ag81
ag88
asg21
I0
sg59
S'1116'
p93
sba(iArchitecture
Cluster
p94
(dp95
g7
(lp96
(iArchitecture
Entity
p97
(dp98
g11
(lp99
sg13
S'android.graphics.ColorMatrix'
p100
sg15
(lp101
sg17
(lp102
sg19
(lp103
sg21
I0
sbasg57
(lp104
g100
asg21
I0
sg59
S'116'
p105
sba(iArchitecture
Cluster
p106
(dp107
g7
(lp108
(iArchitecture
Entity
p109
(dp110
g11
(lp111
sg13
S'android.renderscript.RSSurfaceView'
p112
sg15
(lp113
sg17
(lp114
sg19
(lp115
sg21
I0
sba(iArchitecture
Entity
p116
(dp117
g11
(lp118
sg13
S'android.renderscript.RSTextureView'
p119
sg15
(lp120
sg17
(lp121
sg19
(lp122
sg21
I0
sbasg57
(lp123
g112
ag119
asg21
I0
sg59
S'1160'
p124
sba(iArchitecture
Cluster
p125
(dp126
g7
(lp127
(iArchitecture
Entity
p128
(dp129
g11
(lp130
sg13
S'android.widget.CursorAdapter'
p131
sg15
(lp132
sg17
(lp133
sg19
(lp134
sg21
I0
sba(iArchitecture
Entity
p135
(dp136
g11
(lp137
sg13
S'android.widget.CursorAdapter$ChangeObserver'
p138
sg15
(lp139
sg17
(lp140
sg19
(lp141
sg21
I0
sba(iArchitecture
Entity
p142
(dp143
g11
(lp144
sg13
S'android.widget.CursorAdapter$MyDataSetObserver'
p145
sg15
(lp146
sg17
(lp147
sg19
(lp148
sg21
I0
sba(iArchitecture
Entity
p149
(dp150
g11
(lp151
sg13
S'android.widget.CursorTreeAdapter'
p152
sg15
(lp153
sg17
(lp154
sg19
(lp155
sg21
I0
sba(iArchitecture
Entity
p156
(dp157
g11
(lp158
sg13
S'android.widget.CursorTreeAdapter$MyCursorHelper'
p159
sg15
(lp160
sg17
(lp161
sg19
(lp162
sg21
I0
sba(iArchitecture
Entity
p163
(dp164
g11
(lp165
sg13
S'android.widget.CursorTreeAdapter$MyCursorHelper$MyContentObserver'
p166
sg15
(lp167
sg17
(lp168
sg19
(lp169
sg21
I0
sba(iArchitecture
Entity
p170
(dp171
g11
(lp172
sg13
S'android.widget.CursorTreeAdapter$MyCursorHelper$MyDataSetObserver'
p173
sg15
(lp174
sg17
(lp175
sg19
(lp176
sg21
I0
sbasg57
(lp177
g131
ag138
ag145
ag152
ag159
ag166
ag173
asg21
I0
sg59
S'1161'
p178
sba(iArchitecture
Cluster
p179
(dp180
g7
(lp181
(iArchitecture
Entity
p182
(dp183
g11
(lp184
sg13
S'com.android.server.notification.CountdownConditionProvider'
p185
sg15
(lp186
sg17
(lp187
sg19
(lp188
sg21
I0
sba(iArchitecture
Entity
p189
(dp190
g11
(lp191
sg13
S'com.android.server.notification.CountdownConditionProvider$Receiver'
p192
sg15
(lp193
sg17
(lp194
sg19
(lp195
sg21
I0
sba(iArchitecture
Entity
p196
(dp197
g11
(lp198
sg13
S'com.android.server.notification.EventConditionProvider'
p199
sg15
(lp200
sg17
(lp201
sg19
(lp202
sg21
I0
sba(iArchitecture
Entity
p203
(dp204
g11
(lp205
sg13
S'com.android.server.notification.EventConditionProvider$1'
p206
sg15
(lp207
sg17
(lp208
sg19
(lp209
sg21
I0
sba(iArchitecture
Entity
p210
(dp211
g11
(lp212
sg13
S'com.android.server.notification.EventConditionProvider$2'
p213
sg15
(lp214
sg17
(lp215
sg19
(lp216
sg21
I0
sba(iArchitecture
Entity
p217
(dp218
g11
(lp219
sg13
S'com.android.server.notification.EventConditionProvider$3'
p220
sg15
(lp221
sg17
(lp222
sg19
(lp223
sg21
I0
sba(iArchitecture
Entity
p224
(dp225
g11
(lp226
sg13
S'com.android.server.notification.EventConditionProvider$4'
p227
sg15
(lp228
sg17
(lp229
sg19
(lp230
sg21
I0
sba(iArchitecture
Entity
p231
(dp232
g11
(lp233
sg13
S'com.android.server.notification.ScheduleConditionProvider'
p234
sg15
(lp235
sg17
(lp236
sg19
(lp237
sg21
I0
sba(iArchitecture
Entity
p238
(dp239
g11
(lp240
sg13
S'com.android.server.notification.ScheduleConditionProvider$1'
p241
sg15
(lp242
sg17
(lp243
sg19
(lp244
sg21
I0
sbasg57
(lp245
g185
ag192
ag199
ag206
ag213
ag220
ag227
ag234
ag241
asg21
I0
sg59
S'1162'
p246
sba(iArchitecture
Cluster
p247
(dp248
g7
(lp249
(iArchitecture
Entity
p250
(dp251
g11
(lp252
sg13
S'com.android.server.hdmi.DevicePowerStatusAction'
p253
sg15
(lp254
sg17
(lp255
sg19
(lp256
sg21
I0
sba(iArchitecture
Entity
p257
(dp258
g11
(lp259
sg13
S'com.android.server.hdmi.DeviceSelectAction'
p260
sg15
(lp261
sg17
(lp262
sg19
(lp263
sg21
I0
sba(iArchitecture
Entity
p264
(dp265
g11
(lp266
sg13
S'com.android.server.hdmi.DeviceSelectAction$1'
p267
sg15
(lp268
sg17
(lp269
sg19
(lp270
sg21
I0
sba(iArchitecture
Entity
p271
(dp272
g11
(lp273
sg13
S'com.android.server.hdmi.OneTouchPlayAction'
p274
sg15
(lp275
sg17
(lp276
sg19
(lp277
sg21
I0
sba(iArchitecture
Entity
p278
(dp279
g11
(lp280
sg13
S'com.android.server.hdmi.PowerStatusMonitorAction'
p281
sg15
(lp282
sg17
(lp283
sg19
(lp284
sg21
I0
sba(iArchitecture
Entity
p285
(dp286
g11
(lp287
sg13
S'com.android.server.hdmi.PowerStatusMonitorAction$1'
p288
sg15
(lp289
sg17
(lp290
sg19
(lp291
sg21
I0
sba(iArchitecture
Entity
p292
(dp293
g11
(lp294
sg13
S'com.android.server.hdmi.RoutingControlAction'
p295
sg15
(lp296
sg17
(lp297
sg19
(lp298
sg21
I0
sba(iArchitecture
Entity
p299
(dp300
g11
(lp301
sg13
S'com.android.server.hdmi.RoutingControlAction$1'
p302
sg15
(lp303
sg17
(lp304
sg19
(lp305
sg21
I0
sbasg57
(lp306
g253
ag260
ag267
ag274
ag281
ag288
ag295
ag302
asg21
I0
sg59
S'1163'
p307
sba(iArchitecture
Cluster
p308
(dp309
g7
(lp310
(iArchitecture
Entity
p311
(dp312
g11
(lp313
sg13
S'android.database.sqlite.SQLiteDatabaseConfiguration'
p314
sg15
(lp315
sg17
(lp316
sg19
(lp317
sg21
I0
sba(iArchitecture
Entity
p318
(dp319
g11
(lp320
sg13
S'android.speech.tts.Voice'
p321
sg15
(lp322
sg17
(lp323
sg19
(lp324
sg21
I0
sba(iArchitecture
Entity
p325
(dp326
g11
(lp327
sg13
S'android.speech.tts.Voice$1'
p328
sg15
(lp329
sg17
(lp330
sg19
(lp331
sg21
I0
sbasg57
(lp332
g314
ag321
ag328
asg21
I0
sg59
S'1164'
p333
sba(iArchitecture
Cluster
p334
(dp335
g7
(lp336
(iArchitecture
Entity
p337
(dp338
g11
(lp339
sg13
S'android.app.UiModeManager'
p340
sg15
(lp341
sg17
(lp342
sg19
(lp343
sg21
I0
sba(iArchitecture
Entity
p344
(dp345
g11
(lp346
sg13
S'com.android.server.UiModeManagerService'
p347
sg15
(lp348
sg17
(lp349
sg19
(lp350
sg21
I0
sba(iArchitecture
Entity
p351
(dp352
g11
(lp353
sg13
S'com.android.server.UiModeManagerService$1'
p354
sg15
(lp355
sg17
(lp356
sg19
(lp357
sg21
I0
sba(iArchitecture
Entity
p358
(dp359
g11
(lp360
sg13
S'com.android.server.UiModeManagerService$2'
p361
sg15
(lp362
sg17
(lp363
sg19
(lp364
sg21
I0
sba(iArchitecture
Entity
p365
(dp366
g11
(lp367
sg13
S'com.android.server.UiModeManagerService$3'
p368
sg15
(lp369
sg17
(lp370
sg19
(lp371
sg21
I0
sba(iArchitecture
Entity
p372
(dp373
g11
(lp374
sg13
S'com.android.server.UiModeManagerService$4'
p375
sg15
(lp376
sg17
(lp377
sg19
(lp378
sg21
I0
sba(iArchitecture
Entity
p379
(dp380
g11
(lp381
sg13
S'com.android.server.UiModeManagerService$5'
p382
sg15
(lp383
sg17
(lp384
sg19
(lp385
sg21
I0
sbasg57
(lp386
g340
ag347
ag354
ag361
ag368
ag375
ag382
asg21
I0
sg59
S'1165'
p387
sba(iArchitecture
Cluster
p388
(dp389
g7
(lp390
(iArchitecture
Entity
p391
(dp392
g11
(lp393
sg13
S'android.service.trust.TrustAgentService'
p394
sg15
(lp395
sg17
(lp396
sg19
(lp397
sg21
I0
sba(iArchitecture
Entity
p398
(dp399
g11
(lp400
sg13
S'android.service.trust.TrustAgentService$1'
p401
sg15
(lp402
sg17
(lp403
sg19
(lp404
sg21
I0
sba(iArchitecture
Entity
p405
(dp406
g11
(lp407
sg13
S'android.service.trust.TrustAgentService$2'
p408
sg15
(lp409
sg17
(lp410
sg19
(lp411
sg21
I0
sba(iArchitecture
Entity
p412
(dp413
g11
(lp414
sg13
S'android.service.trust.TrustAgentService$ConfigurationData'
p415
sg15
(lp416
sg17
(lp417
sg19
(lp418
sg21
I0
sba(iArchitecture
Entity
p419
(dp420
g11
(lp421
sg13
S'android.service.trust.TrustAgentService$TrustAgentServiceWrapper'
p422
sg15
(lp423
sg17
(lp424
sg19
(lp425
sg21
I0
sba(iArchitecture
Entity
p426
(dp427
g11
(lp428
sg13
S'com.android.server.trust.TrustAgentWrapper'
p429
sg15
(lp430
sg17
(lp431
sg19
(lp432
sg21
I0
sba(iArchitecture
Entity
p433
(dp434
g11
(lp435
sg13
S'com.android.server.trust.TrustAgentWrapper$1'
p436
sg15
(lp437
sg17
(lp438
sg19
(lp439
sg21
I0
sba(iArchitecture
Entity
p440
(dp441
g11
(lp442
sg13
S'com.android.server.trust.TrustAgentWrapper$2'
p443
sg15
(lp444
sg17
(lp445
sg19
(lp446
sg21
I0
sba(iArchitecture
Entity
p447
(dp448
g11
(lp449
sg13
S'com.android.server.trust.TrustAgentWrapper$3'
p450
sg15
(lp451
sg17
(lp452
sg19
(lp453
sg21
I0
sba(iArchitecture
Entity
p454
(dp455
g11
(lp456
sg13
S'com.android.server.trust.TrustAgentWrapper$4'
p457
sg15
(lp458
sg17
(lp459
sg19
(lp460
sg21
I0
sbasg57
(lp461
g394
ag401
ag408
ag415
ag422
ag429
ag436
ag443
ag450
ag457
asg21
I0
sg59
S'1166'
p462
sba(iArchitecture
Cluster
p463
(dp464
g7
(lp465
(iArchitecture
Entity
p466
(dp467
g11
(lp468
sg13
S'android.net.dhcp.DhcpClient'
p469
sg15
(lp470
sg17
(lp471
sg19
(lp472
sg21
I0
sba(iArchitecture
Entity
p473
(dp474
g11
(lp475
sg13
S'android.net.dhcp.DhcpClient$1'
p476
sg15
(lp477
sg17
(lp478
sg19
(lp479
sg21
I0
sba(iArchitecture
Entity
p480
(dp481
g11
(lp482
sg13
S'android.net.dhcp.DhcpClient$DhcpBoundState'
p483
sg15
(lp484
sg17
(lp485
sg19
(lp486
sg21
I0
sba(iArchitecture
Entity
p487
(dp488
g11
(lp489
sg13
S'android.net.dhcp.DhcpClient$DhcpHaveAddressState'
p490
sg15
(lp491
sg17
(lp492
sg19
(lp493
sg21
I0
sba(iArchitecture
Entity
p494
(dp495
g11
(lp496
sg13
S'android.net.dhcp.DhcpClient$DhcpInitRebootState'
p497
sg15
(lp498
sg17
(lp499
sg19
(lp500
sg21
I0
sba(iArchitecture
Entity
p501
(dp502
g11
(lp503
sg13
S'android.net.dhcp.DhcpClient$DhcpInitState'
p504
sg15
(lp505
sg17
(lp506
sg19
(lp507
sg21
I0
sba(iArchitecture
Entity
p508
(dp509
g11
(lp510
sg13
S'android.net.dhcp.DhcpClient$DhcpRebindingState'
p511
sg15
(lp512
sg17
(lp513
sg19
(lp514
sg21
I0
sba(iArchitecture
Entity
p515
(dp516
g11
(lp517
sg13
S'android.net.dhcp.DhcpClient$DhcpRebootingState'
p518
sg15
(lp519
sg17
(lp520
sg19
(lp521
sg21
I0
sba(iArchitecture
Entity
p522
(dp523
g11
(lp524
sg13
S'android.net.dhcp.DhcpClient$DhcpRenewingState'
p525
sg15
(lp526
sg17
(lp527
sg19
(lp528
sg21
I0
sba(iArchitecture
Entity
p529
(dp530
g11
(lp531
sg13
S'android.net.dhcp.DhcpClient$DhcpRequestingState'
p532
sg15
(lp533
sg17
(lp534
sg19
(lp535
sg21
I0
sba(iArchitecture
Entity
p536
(dp537
g11
(lp538
sg13
S'android.net.dhcp.DhcpClient$DhcpSelectingState'
p539
sg15
(lp540
sg17
(lp541
sg19
(lp542
sg21
I0
sba(iArchitecture
Entity
p543
(dp544
g11
(lp545
sg13
S'android.net.dhcp.DhcpClient$DhcpState'
p546
sg15
(lp547
sg17
(lp548
sg19
(lp549
sg21
I0
sba(iArchitecture
Entity
p550
(dp551
g11
(lp552
sg13
S'android.net.dhcp.DhcpClient$LoggingState'
p553
sg15
(lp554
sg17
(lp555
sg19
(lp556
sg21
I0
sba(iArchitecture
Entity
p557
(dp558
g11
(lp559
sg13
S'android.net.dhcp.DhcpClient$PacketRetransmittingState'
p560
sg15
(lp561
sg17
(lp562
sg19
(lp563
sg21
I0
sba(iArchitecture
Entity
p564
(dp565
g11
(lp566
sg13
S'android.net.dhcp.DhcpClient$ReceiveThread'
p567
sg15
(lp568
sg17
(lp569
sg19
(lp570
sg21
I0
sba(iArchitecture
Entity
p571
(dp572
g11
(lp573
sg13
S'android.net.dhcp.DhcpClient$StoppedState'
p574
sg15
(lp575
sg17
(lp576
sg19
(lp577
sg21
I0
sba(iArchitecture
Entity
p578
(dp579
g11
(lp580
sg13
S'android.net.dhcp.DhcpClient$WaitBeforeOtherState'
p581
sg15
(lp582
sg17
(lp583
sg19
(lp584
sg21
I0
sba(iArchitecture
Entity
p585
(dp586
g11
(lp587
sg13
S'android.net.dhcp.DhcpClient$WaitBeforeRenewalState'
p588
sg15
(lp589
sg17
(lp590
sg19
(lp591
sg21
I0
sba(iArchitecture
Entity
p592
(dp593
g11
(lp594
sg13
S'android.net.dhcp.DhcpClient$WaitBeforeStartState'
p595
sg15
(lp596
sg17
(lp597
sg19
(lp598
sg21
I0
sba(iArchitecture
Entity
p599
(dp600
g11
(lp601
sg13
S'android.net.dhcp.DhcpPacket'
p602
sg15
(lp603
sg17
(lp604
sg19
(lp605
sg21
I0
sbasg57
(lp606
g469
ag476
ag483
ag490
ag497
ag504
ag511
ag518
ag525
ag532
ag539
ag546
ag553
ag560
ag567
ag574
ag581
ag588
ag595
ag602
asg21
I0
sg59
S'1167'
p607
sba(iArchitecture
Cluster
p608
(dp609
g7
(lp610
(iArchitecture
Entity
p611
(dp612
g11
(lp613
sg13
S'com.android.internal.app.MediaRouteChooserDialogFragment'
p614
sg15
(lp615
sg17
(lp616
sg19
(lp617
sg21
I0
sba(iArchitecture
Entity
p618
(dp619
g11
(lp620
sg13
S'com.android.internal.app.MediaRouteDialogPresenter'
p621
sg15
(lp622
sg17
(lp623
sg19
(lp624
sg21
I0
sbasg57
(lp625
g614
ag621
asg21
I0
sg59
S'1168'
p626
sba(iArchitecture
Cluster
p627
(dp628
g7
(lp629
(iArchitecture
Entity
p630
(dp631
g11
(lp632
sg13
S'android.filterpacks.videosrc.MediaSource'
p633
sg15
(lp634
sg17
(lp635
sg19
(lp636
sg21
I0
sba(iArchitecture
Entity
p637
(dp638
g11
(lp639
sg13
S'android.filterpacks.videosrc.MediaSource$1'
p640
sg15
(lp641
sg17
(lp642
sg19
(lp643
sg21
I0
sba(iArchitecture
Entity
p644
(dp645
g11
(lp646
sg13
S'android.filterpacks.videosrc.MediaSource$2'
p647
sg15
(lp648
sg17
(lp649
sg19
(lp650
sg21
I0
sba(iArchitecture
Entity
p651
(dp652
g11
(lp653
sg13
S'android.filterpacks.videosrc.MediaSource$3'
p654
sg15
(lp655
sg17
(lp656
sg19
(lp657
sg21
I0
sba(iArchitecture
Entity
p658
(dp659
g11
(lp660
sg13
S'android.filterpacks.videosrc.MediaSource$4'
p661
sg15
(lp662
sg17
(lp663
sg19
(lp664
sg21
I0
sba(iArchitecture
Entity
p665
(dp666
g11
(lp667
sg13
S'android.filterpacks.videosrc.SurfaceTextureSource'
p668
sg15
(lp669
sg17
(lp670
sg19
(lp671
sg21
I0
sba(iArchitecture
Entity
p672
(dp673
g11
(lp674
sg13
S'android.filterpacks.videosrc.SurfaceTextureSource$1'
p675
sg15
(lp676
sg17
(lp677
sg19
(lp678
sg21
I0
sba(iArchitecture
Entity
p679
(dp680
g11
(lp681
sg13
S'android.filterpacks.videosrc.SurfaceTextureSource$SurfaceTextureSourceListener'
p682
sg15
(lp683
sg17
(lp684
sg19
(lp685
sg21
I0
sbasg57
(lp686
g633
ag640
ag647
ag654
ag661
ag668
ag675
ag682
asg21
I0
sg59
S'1169'
p687
sba(iArchitecture
Cluster
p688
(dp689
g7
(lp690
(iArchitecture
Entity
p691
(dp692
g11
(lp693
sg13
S'android.database.MergeCursor'
p694
sg15
(lp695
sg17
(lp696
sg19
(lp697
sg21
I0
sba(iArchitecture
Entity
p698
(dp699
g11
(lp700
sg13
S'android.database.MergeCursor$1'
p701
sg15
(lp702
sg17
(lp703
sg19
(lp704
sg21
I0
sba(iArchitecture
Entity
p705
(dp706
g11
(lp707
sg13
S'com.android.internal.database.SortCursor'
p708
sg15
(lp709
sg17
(lp710
sg19
(lp711
sg21
I0
sba(iArchitecture
Entity
p712
(dp713
g11
(lp714
sg13
S'com.android.internal.database.SortCursor$1'
p715
sg15
(lp716
sg17
(lp717
sg19
(lp718
sg21
I0
sba(iArchitecture
Entity
p719
(dp720
g11
(lp721
sg13
S'com.android.internal.logging.MetricsLogger'
p722
sg15
(lp723
sg17
(lp724
sg19
(lp725
sg21
I0
sbasg57
(lp726
g694
ag701
ag708
ag715
ag722
asg21
I0
sg59
S'1216'
p727
sba(iArchitecture
Cluster
p728
(dp729
g7
(lp730
(iArchitecture
Entity
p731
(dp732
g11
(lp733
sg13
S'android.database.ContentObservable'
p734
sg15
(lp735
sg17
(lp736
sg19
(lp737
sg21
I0
sbasg57
(lp738
g734
asg21
I0
sg59
S'16'
p739
sba(iArchitecture
Cluster
p740
(dp741
g7
(lp742
(iArchitecture
Entity
p743
(dp744
g11
(lp745
sg13
S'com.google.android.gles_jni.EGLImpl'
p746
sg15
(lp747
sg17
(lp748
sg19
(lp749
sg21
I0
sbasg57
(lp750
g746
asg21
I0
sg59
S'160'
p751
sba(iArchitecture
Cluster
p752
(dp753
g7
(lp754
(iArchitecture
Entity
p755
(dp756
g11
(lp757
sg13
S'android.media.MediaTimestamp'
p758
sg15
(lp759
sg17
(lp760
sg19
(lp761
sg21
I0
sbasg57
(lp762
g758
asg21
I0
sg59
S'161'
p763
sba(iArchitecture
Cluster
p764
(dp765
g7
(lp766
(iArchitecture
Entity
p767
(dp768
g11
(lp769
sg13
S'android.widget.BaseExpandableListAdapter'
p770
sg15
(lp771
sg17
(lp772
sg19
(lp773
sg21
I0
sbasg57
(lp774
g770
asg21
I0
sg59
S'162'
p775
sba(iArchitecture
Cluster
p776
(dp777
g7
(lp778
(iArchitecture
Entity
p779
(dp780
g11
(lp781
sg13
S'com.android.server.backup.Trampoline'
p782
sg15
(lp783
sg17
(lp784
sg19
(lp785
sg21
I0
sbasg57
(lp786
g782
asg21
I0
sg59
S'163'
p787
sba(iArchitecture
Cluster
p788
(dp789
g7
(lp790
(iArchitecture
Entity
p791
(dp792
g11
(lp793
sg13
S'com.android.server.backup.AccountSyncSettingsBackupHelper'
p794
sg15
(lp795
sg17
(lp796
sg19
(lp797
sg21
I0
sbasg57
(lp798
g794
asg21
I0
sg59
S'164'
p799
sba(iArchitecture
Cluster
p800
(dp801
g7
(lp802
(iArchitecture
Entity
p803
(dp804
g11
(lp805
sg13
S'com.android.server.net.BaseNetworkObserver'
p806
sg15
(lp807
sg17
(lp808
sg19
(lp809
sg21
I0
sbasg57
(lp810
g806
asg21
I0
sg59
S'165'
p811
sba(iArchitecture
Cluster
p812
(dp813
g7
(lp814
(iArchitecture
Entity
p815
(dp816
g11
(lp817
sg13
S'android.view.DisplayListCanvas'
p818
sg15
(lp819
sg17
(lp820
sg19
(lp821
sg21
I0
sbasg57
(lp822
g818
asg21
I0
sg59
S'166'
p823
sba(iArchitecture
Cluster
p824
(dp825
g7
(lp826
(iArchitecture
Entity
p827
(dp828
g11
(lp829
sg13
S'com.android.internal.util.GrowingArrayUtils'
p830
sg15
(lp831
sg17
(lp832
sg19
(lp833
sg21
I0
sbasg57
(lp834
g830
asg21
I0
sg59
S'167'
p835
sba(iArchitecture
Cluster
p836
(dp837
g7
(lp838
(iArchitecture
Entity
p839
(dp840
g11
(lp841
sg13
S'android.view.FocusFinderHelper'
p842
sg15
(lp843
sg17
(lp844
sg19
(lp845
sg21
I0
sbasg57
(lp846
g842
asg21
I0
sg59
S'168'
p847
sba(iArchitecture
Cluster
p848
(dp849
g7
(lp850
(iArchitecture
Entity
p851
(dp852
g11
(lp853
sg13
S'android.util.JsonWriter'
p854
sg15
(lp855
sg17
(lp856
sg19
(lp857
sg21
I0
sbasg57
(lp858
g854
asg21
I0
sg59
S'169'
p859
sba(iArchitecture
Cluster
p860
(dp861
g7
(lp862
(iArchitecture
Entity
p863
(dp864
g11
(lp865
sg13
S'com.android.server.AppWidgetBackupBridge'
p866
sg15
(lp867
sg17
(lp868
sg19
(lp869
sg21
I0
sbasg57
(lp870
g866
asg21
I0
sg59
S'216'
p871
sba(iArchitecture
Cluster
p872
(dp873
g7
(lp874
(iArchitecture
Entity
p875
(dp876
g11
(lp877
sg13
S'com.android.server.usage.UnixCalendar'
p878
sg15
(lp879
sg17
(lp880
sg19
(lp881
sg21
I0
sbasg57
(lp882
g878
asg21
I0
sg59
S'316'
p883
sba(iArchitecture
Cluster
p884
(dp885
g7
(lp886
(iArchitecture
Entity
p887
(dp888
g11
(lp889
sg13
S'android.media.midi.MidiPortImpl'
p890
sg15
(lp891
sg17
(lp892
sg19
(lp893
sg21
I0
sbasg57
(lp894
g890
asg21
I0
sg59
S'416'
p895
sba(iArchitecture
Cluster
p896
(dp897
g7
(lp898
(iArchitecture
Entity
p899
(dp900
g11
(lp901
sg13
S'android.net.NetworkState'
p902
sg15
(lp903
sg17
(lp904
sg19
(lp905
sg21
I0
sba(iArchitecture
Entity
p906
(dp907
g11
(lp908
sg13
S'android.net.NetworkState$1'
p909
sg15
(lp910
sg17
(lp911
sg19
(lp912
sg21
I0
sbasg57
(lp913
g902
ag909
asg21
I0
sg59
S'516'
p914
sba(iArchitecture
Cluster
p915
(dp916
g7
(lp917
(iArchitecture
Entity
p918
(dp919
g11
(lp920
sg13
S'android.media.effect.effects.BackDropperEffect'
p921
sg15
(lp922
sg17
(lp923
sg19
(lp924
sg21
I0
sba(iArchitecture
Entity
p925
(dp926
g11
(lp927
sg13
S'android.media.effect.effects.BackDropperEffect$1'
p928
sg15
(lp929
sg17
(lp930
sg19
(lp931
sg21
I0
sbasg57
(lp932
g921
ag928
asg21
I0
sg59
S'616'
p933
sba(iArchitecture
Cluster
p934
(dp935
g7
(lp936
(iArchitecture
Entity
p937
(dp938
g11
(lp939
sg13
S'android.os.Broadcaster'
p940
sg15
(lp941
sg17
(lp942
sg19
(lp943
sg21
I0
sba(iArchitecture
Entity
p944
(dp945
g11
(lp946
sg13
S'android.os.Broadcaster$Registration'
p947
sg15
(lp948
sg17
(lp949
sg19
(lp950
sg21
I0
sbasg57
(lp951
g940
ag947
asg21
I0
sg59
S'716'
p952
sba(iArchitecture
Cluster
p953
(dp954
g7
(lp955
(iArchitecture
Entity
p956
(dp957
g11
(lp958
sg13
S'android.net.wifi.ScanResult'
p959
sg15
(lp960
sg17
(lp961
sg19
(lp962
sg21
I0
sba(iArchitecture
Entity
p963
(dp964
g11
(lp965
sg13
S'android.net.wifi.ScanResult$1'
p966
sg15
(lp967
sg17
(lp968
sg19
(lp969
sg21
I0
sba(iArchitecture
Entity
p970
(dp971
g11
(lp972
sg13
S'android.net.wifi.ScanResult$InformationElement'
p973
sg15
(lp974
sg17
(lp975
sg19
(lp976
sg21
I0
sbasg57
(lp977
g959
ag966
ag973
asg21
I0
sg59
S'816'
p978
sba(iArchitecture
Cluster
p979
(dp980
g7
(lp981
(iArchitecture
Entity
p982
(dp983
g11
(lp984
sg13
S'com.android.server.usb.UsbSettingsManager'
p985
sg15
(lp986
sg17
(lp987
sg19
(lp988
sg21
I0
sba(iArchitecture
Entity
p989
(dp990
g11
(lp991
sg13
S'com.android.server.usb.UsbSettingsManager$AccessoryFilter'
p992
sg15
(lp993
sg17
(lp994
sg19
(lp995
sg21
I0
sba(iArchitecture
Entity
p996
(dp997
g11
(lp998
sg13
S'com.android.server.usb.UsbSettingsManager$DeviceFilter'
p999
sg15
(lp1000
sg17
(lp1001
sg19
(lp1002
sg21
I0
sba(iArchitecture
Entity
p1003
(dp1004
g11
(lp1005
sg13
S'com.android.server.usb.UsbSettingsManager$MyPackageMonitor'
p1006
sg15
(lp1007
sg17
(lp1008
sg19
(lp1009
sg21
I0
sbasg57
(lp1010
g985
ag992
ag999
ag1006
asg21
I0
sg59
S'916'
p1011
sbasS'target_sub'
p1012
S'16'
p1013
sg57
(lp1014
sS'is_component_arch'
p1015
I01
sg59
S'6.0.0_r1'
p1016
sba.