(lp0
(iArchitecture
Architecture
p1
(dp2
S'clusters'
p3
(lp4
(iArchitecture
Cluster
p5
(dp6
S'entities'
p7
(lp8
(iArchitecture
Entity
p9
(dp10
S'issue_ids'
p11
(lp12
sS'name'
p13
S'com.android.server.policy.ImmersiveModeConfirmation'
p14
sS'descs'
p15
(lp16
sS'labels'
p17
(lp18
sS'titles'
p19
(lp20
sS'change'
p21
I0
sba(iArchitecture
Entity
p22
(dp23
g11
(lp24
sg13
S'com.android.server.policy.ImmersiveModeConfirmation$1'
p25
sg15
(lp26
sg17
(lp27
sg19
(lp28
sg21
I0
sba(iArchitecture
Entity
p29
(dp30
g11
(lp31
sg13
S'com.android.server.policy.ImmersiveModeConfirmation$ClingWindowView'
p32
sg15
(lp33
sg17
(lp34
sg19
(lp35
sg21
I0
sba(iArchitecture
Entity
p36
(dp37
g11
(lp38
sg13
S'com.android.server.policy.ImmersiveModeConfirmation$ClingWindowView$1'
p39
sg15
(lp40
sg17
(lp41
sg19
(lp42
sg21
I0
sba(iArchitecture
Entity
p43
(dp44
g11
(lp45
sg13
S'com.android.server.policy.ImmersiveModeConfirmation$ClingWindowView$2'
p46
sg15
(lp47
sg17
(lp48
sg19
(lp49
sg21
I0
sba(iArchitecture
Entity
p50
(dp51
g11
(lp52
sg13
S'com.android.server.policy.ImmersiveModeConfirmation$ClingWindowView$3'
p53
sg15
(lp54
sg17
(lp55
sg19
(lp56
sg21
I0
sba(iArchitecture
Entity
p57
(dp58
g11
(lp59
sg13
S'com.android.server.policy.ImmersiveModeConfirmation$ClingWindowView$4'
p60
sg15
(lp61
sg17
(lp62
sg19
(lp63
sg21
I0
sba(iArchitecture
Entity
p64
(dp65
g11
(lp66
sg13
S'com.android.server.policy.ImmersiveModeConfirmation$ClingWindowView$5'
p67
sg15
(lp68
sg17
(lp69
sg19
(lp70
sg21
I0
sba(iArchitecture
Entity
p71
(dp72
g11
(lp73
sg13
S'com.android.server.policy.ImmersiveModeConfirmation$ClingWindowView$5$1'
p74
sg15
(lp75
sg17
(lp76
sg19
(lp77
sg21
I0
sba(iArchitecture
Entity
p78
(dp79
g11
(lp80
sg13
S'com.android.server.policy.ImmersiveModeConfirmation$H'
p81
sg15
(lp82
sg17
(lp83
sg19
(lp84
sg21
I0
sbasS'classes'
p85
(lp86
g14
ag25
ag32
ag39
ag46
ag53
ag60
ag67
ag74
ag81
asg21
I0
sS'label'
p87
S'1071'
p88
sba(iArchitecture
Cluster
p89
(dp90
g7
(lp91
(iArchitecture
Entity
p92
(dp93
g11
(lp94
sg13
S'android.media.MediaRouterClientState'
p95
sg15
(lp96
sg17
(lp97
sg19
(lp98
sg21
I0
sba(iArchitecture
Entity
p99
(dp100
g11
(lp101
sg13
S'android.media.MediaRouterClientState$1'
p102
sg15
(lp103
sg17
(lp104
sg19
(lp105
sg21
I0
sba(iArchitecture
Entity
p106
(dp107
g11
(lp108
sg13
S'android.media.MediaRouterClientState$RouteInfo'
p109
sg15
(lp110
sg17
(lp111
sg19
(lp112
sg21
I0
sba(iArchitecture
Entity
p113
(dp114
g11
(lp115
sg13
S'android.media.MediaRouterClientState$RouteInfo$1'
p116
sg15
(lp117
sg17
(lp118
sg19
(lp119
sg21
I0
sba(iArchitecture
Entity
p120
(dp121
g11
(lp122
sg13
S'android.media.RemoteDisplayState'
p123
sg15
(lp124
sg17
(lp125
sg19
(lp126
sg21
I0
sba(iArchitecture
Entity
p127
(dp128
g11
(lp129
sg13
S'android.media.RemoteDisplayState$1'
p130
sg15
(lp131
sg17
(lp132
sg19
(lp133
sg21
I0
sba(iArchitecture
Entity
p134
(dp135
g11
(lp136
sg13
S'android.media.RemoteDisplayState$RemoteDisplayInfo'
p137
sg15
(lp138
sg17
(lp139
sg19
(lp140
sg21
I0
sba(iArchitecture
Entity
p141
(dp142
g11
(lp143
sg13
S'android.media.RemoteDisplayState$RemoteDisplayInfo$1'
p144
sg15
(lp145
sg17
(lp146
sg19
(lp147
sg21
I0
sbasg85
(lp148
g95
ag102
ag109
ag116
ag123
ag130
ag137
ag144
asg21
I0
sg87
S'1171'
p149
sba(iArchitecture
Cluster
p150
(dp151
g7
(lp152
(iArchitecture
Entity
p153
(dp154
g11
(lp155
sg13
S'com.android.server.notification.ZenLog'
p156
sg15
(lp157
sg17
(lp158
sg19
(lp159
sg21
I0
sbasg85
(lp160
g156
asg21
I0
sg87
S'171'
p161
sba(iArchitecture
Cluster
p162
(dp163
g7
(lp164
(iArchitecture
Entity
p165
(dp166
g11
(lp167
sg13
S'com.android.server.am.CoreSettingsObserver'
p168
sg15
(lp169
sg17
(lp170
sg19
(lp171
sg21
I0
sbasg85
(lp172
g168
asg21
I0
sg87
S'271'
p173
sba(iArchitecture
Cluster
p174
(dp175
g7
(lp176
(iArchitecture
Entity
p177
(dp178
g11
(lp179
sg13
S'android.security.keystore.AndroidKeyStoreSecretKeyFactorySpi'
p180
sg15
(lp181
sg17
(lp182
sg19
(lp183
sg21
I0
sbasg85
(lp184
g180
asg21
I0
sg87
S'371'
p185
sba(iArchitecture
Cluster
p186
(dp187
g7
(lp188
(iArchitecture
Entity
p189
(dp190
g11
(lp191
sg13
S'com.android.server.tv.TvInputHal'
p192
sg15
(lp193
sg17
(lp194
sg19
(lp195
sg21
I0
sba(iArchitecture
Entity
p196
(dp197
g11
(lp198
sg13
S'com.android.server.tv.TvInputHal$Callback'
p199
sg15
(lp200
sg17
(lp201
sg19
(lp202
sg21
I0
sbasg85
(lp203
g192
ag199
asg21
I0
sg87
S'471'
p204
sba(iArchitecture
Cluster
p205
(dp206
g7
(lp207
(iArchitecture
Entity
p208
(dp209
g11
(lp210
sg13
S'android.net.nsd.DnsSdTxtRecord'
p211
sg15
(lp212
sg17
(lp213
sg19
(lp214
sg21
I0
sba(iArchitecture
Entity
p215
(dp216
g11
(lp217
sg13
S'android.net.nsd.DnsSdTxtRecord$1'
p218
sg15
(lp219
sg17
(lp220
sg19
(lp221
sg21
I0
sbasg85
(lp222
g211
ag218
asg21
I0
sg87
S'571'
p223
sba(iArchitecture
Cluster
p224
(dp225
g7
(lp226
(iArchitecture
Entity
p227
(dp228
g11
(lp229
sg13
S'android.content.pm.PackageStats'
p230
sg15
(lp231
sg17
(lp232
sg19
(lp233
sg21
I0
sba(iArchitecture
Entity
p234
(dp235
g11
(lp236
sg13
S'android.content.pm.PackageStats$1'
p237
sg15
(lp238
sg17
(lp239
sg19
(lp240
sg21
I0
sbasg85
(lp241
g230
ag237
asg21
I0
sg87
S'671'
p242
sba(iArchitecture
Cluster
p243
(dp244
g7
(lp245
(iArchitecture
Entity
p246
(dp247
g11
(lp248
sg13
S'android.location.SettingInjectorService'
p249
sg15
(lp250
sg17
(lp251
sg19
(lp252
sg21
I0
sbasg85
(lp253
g249
asg21
I0
sg87
S'71'
p254
sba(iArchitecture
Cluster
p255
(dp256
g7
(lp257
(iArchitecture
Entity
p258
(dp259
g11
(lp260
sg13
S'android.filterpacks.videosink.MediaEncoderFilter'
p261
sg15
(lp262
sg17
(lp263
sg19
(lp264
sg21
I0
sba(iArchitecture
Entity
p265
(dp266
g11
(lp267
sg13
S'android.filterpacks.videosink.MediaEncoderFilter$OnRecordingDoneListener'
p268
sg15
(lp269
sg17
(lp270
sg19
(lp271
sg21
I0
sbasg85
(lp272
g261
ag268
asg21
I0
sg87
S'710'
p273
sba(iArchitecture
Cluster
p274
(dp275
g7
(lp276
(iArchitecture
Entity
p277
(dp278
g11
(lp279
sg13
S'android.media.midi.MidiDeviceStatus'
p280
sg15
(lp281
sg17
(lp282
sg19
(lp283
sg21
I0
sba(iArchitecture
Entity
p284
(dp285
g11
(lp286
sg13
S'android.media.midi.MidiDeviceStatus$1'
p287
sg15
(lp288
sg17
(lp289
sg19
(lp290
sg21
I0
sbasg85
(lp291
g280
ag287
asg21
I0
sg87
S'711'
p292
sba(iArchitecture
Cluster
p293
(dp294
g7
(lp295
(iArchitecture
Entity
p296
(dp297
g11
(lp298
sg13
S'com.android.internal.os.BatterySipper'
p299
sg15
(lp300
sg17
(lp301
sg19
(lp302
sg21
I0
sba(iArchitecture
Entity
p303
(dp304
g11
(lp305
sg13
S'com.android.internal.os.BatterySipper$DrainType'
p306
sg15
(lp307
sg17
(lp308
sg19
(lp309
sg21
I0
sbasg85
(lp310
g299
ag306
asg21
I0
sg87
S'712'
p311
sba(iArchitecture
Cluster
p312
(dp313
g7
(lp314
(iArchitecture
Entity
p315
(dp316
g11
(lp317
sg13
S'android.service.carrier.CarrierIdentifier'
p318
sg15
(lp319
sg17
(lp320
sg19
(lp321
sg21
I0
sba(iArchitecture
Entity
p322
(dp323
g11
(lp324
sg13
S'android.service.carrier.CarrierIdentifier$1'
p325
sg15
(lp326
sg17
(lp327
sg19
(lp328
sg21
I0
sbasg85
(lp329
g318
ag325
asg21
I0
sg87
S'713'
p330
sba(iArchitecture
Cluster
p331
(dp332
g7
(lp333
(iArchitecture
Entity
p334
(dp335
g11
(lp336
sg13
S'android.graphics.drawable.RippleComponent'
p337
sg15
(lp338
sg17
(lp339
sg19
(lp340
sg21
I0
sba(iArchitecture
Entity
p341
(dp342
g11
(lp343
sg13
S'android.graphics.drawable.RippleComponent$RenderNodeAnimatorSet'
p344
sg15
(lp345
sg17
(lp346
sg19
(lp347
sg21
I0
sbasg85
(lp348
g337
ag344
asg21
I0
sg87
S'714'
p349
sba(iArchitecture
Cluster
p350
(dp351
g7
(lp352
(iArchitecture
Entity
p353
(dp354
g11
(lp355
sg13
S'com.android.internal.widget.AccountViewAdapter'
p356
sg15
(lp357
sg17
(lp358
sg19
(lp359
sg21
I0
sba(iArchitecture
Entity
p360
(dp361
g11
(lp362
sg13
S'com.android.internal.widget.AccountViewAdapter$AccountElements'
p363
sg15
(lp364
sg17
(lp365
sg19
(lp366
sg21
I0
sbasg85
(lp367
g356
ag363
asg21
I0
sg87
S'715'
p368
sba(iArchitecture
Cluster
p369
(dp370
g7
(lp371
(iArchitecture
Entity
p372
(dp373
g11
(lp374
sg13
S'android.os.Broadcaster'
p375
sg15
(lp376
sg17
(lp377
sg19
(lp378
sg21
I0
sba(iArchitecture
Entity
p379
(dp380
g11
(lp381
sg13
S'android.os.Broadcaster$Registration'
p382
sg15
(lp383
sg17
(lp384
sg19
(lp385
sg21
I0
sbasg85
(lp386
g375
ag382
asg21
I0
sg87
S'716'
p387
sba(iArchitecture
Cluster
p388
(dp389
g7
(lp390
(iArchitecture
Entity
p391
(dp392
g11
(lp393
sg13
S'android.os.Trace'
p394
sg15
(lp395
sg17
(lp396
sg19
(lp397
sg21
I0
sba(iArchitecture
Entity
p398
(dp399
g11
(lp400
sg13
S'android.os.Trace$1'
p401
sg15
(lp402
sg17
(lp403
sg19
(lp404
sg21
I0
sbasg85
(lp405
g394
ag401
asg21
I0
sg87
S'717'
p406
sba(iArchitecture
Cluster
p407
(dp408
g7
(lp409
(iArchitecture
Entity
p410
(dp411
g11
(lp412
sg13
S'android.os.FileBridge'
p413
sg15
(lp414
sg17
(lp415
sg19
(lp416
sg21
I0
sba(iArchitecture
Entity
p417
(dp418
g11
(lp419
sg13
S'android.os.FileBridge$FileBridgeOutputStream'
p420
sg15
(lp421
sg17
(lp422
sg19
(lp423
sg21
I0
sbasg85
(lp424
g413
ag420
asg21
I0
sg87
S'718'
p425
sba(iArchitecture
Cluster
p426
(dp427
g7
(lp428
(iArchitecture
Entity
p429
(dp430
g11
(lp431
sg13
S'com.android.internal.telephony.SmsConstants'
p432
sg15
(lp433
sg17
(lp434
sg19
(lp435
sg21
I0
sba(iArchitecture
Entity
p436
(dp437
g11
(lp438
sg13
S'com.android.internal.telephony.SmsConstants$MessageClass'
p439
sg15
(lp440
sg17
(lp441
sg19
(lp442
sg21
I0
sbasg85
(lp443
g432
ag439
asg21
I0
sg87
S'719'
p444
sba(iArchitecture
Cluster
p445
(dp446
g7
(lp447
(iArchitecture
Entity
p448
(dp449
g11
(lp450
sg13
S'android.inputmethodservice.IInputMethodWrapper'
p451
sg15
(lp452
sg17
(lp453
sg19
(lp454
sg21
I0
sba(iArchitecture
Entity
p455
(dp456
g11
(lp457
sg13
S'android.inputmethodservice.IInputMethodWrapper$InputMethodSessionCallbackWrapper'
p458
sg15
(lp459
sg17
(lp460
sg19
(lp461
sg21
I0
sba(iArchitecture
Entity
p462
(dp463
g11
(lp464
sg13
S'android.inputmethodservice.IInputMethodWrapper$Notifier'
p465
sg15
(lp466
sg17
(lp467
sg19
(lp468
sg21
I0
sbasg85
(lp469
g451
ag458
ag465
asg21
I0
sg87
S'771'
p470
sba(iArchitecture
Cluster
p471
(dp472
g7
(lp473
(iArchitecture
Entity
p474
(dp475
g11
(lp476
sg13
S'android.content.res.AssetFileDescriptor'
p477
sg15
(lp478
sg17
(lp479
sg19
(lp480
sg21
I0
sba(iArchitecture
Entity
p481
(dp482
g11
(lp483
sg13
S'android.content.res.AssetFileDescriptor$1'
p484
sg15
(lp485
sg17
(lp486
sg19
(lp487
sg21
I0
sba(iArchitecture
Entity
p488
(dp489
g11
(lp490
sg13
S'android.content.res.AssetFileDescriptor$AutoCloseInputStream'
p491
sg15
(lp492
sg17
(lp493
sg19
(lp494
sg21
I0
sba(iArchitecture
Entity
p495
(dp496
g11
(lp497
sg13
S'android.content.res.AssetFileDescriptor$AutoCloseOutputStream'
p498
sg15
(lp499
sg17
(lp500
sg19
(lp501
sg21
I0
sbasg85
(lp502
g477
ag484
ag491
ag498
asg21
I0
sg87
S'871'
p503
sba(iArchitecture
Cluster
p504
(dp505
g7
(lp506
(iArchitecture
Entity
p507
(dp508
g11
(lp509
sg13
S'android.media.session.MediaSessionManager'
p510
sg15
(lp511
sg17
(lp512
sg19
(lp513
sg21
I0
sba(iArchitecture
Entity
p514
(dp515
g11
(lp516
sg13
S'android.media.session.MediaSessionManager$OnActiveSessionsChangedListener'
p517
sg15
(lp518
sg17
(lp519
sg19
(lp520
sg21
I0
sba(iArchitecture
Entity
p521
(dp522
g11
(lp523
sg13
S'android.media.session.MediaSessionManager$SessionsChangedWrapper'
p524
sg15
(lp525
sg17
(lp526
sg19
(lp527
sg21
I0
sba(iArchitecture
Entity
p528
(dp529
g11
(lp530
sg13
S'android.media.session.MediaSessionManager$SessionsChangedWrapper$1'
p531
sg15
(lp532
sg17
(lp533
sg19
(lp534
sg21
I0
sba(iArchitecture
Entity
p535
(dp536
g11
(lp537
sg13
S'android.media.session.MediaSessionManager$SessionsChangedWrapper$1$1'
p538
sg15
(lp539
sg17
(lp540
sg19
(lp541
sg21
I0
sbasg85
(lp542
g510
ag517
ag524
ag531
ag538
asg21
I0
sg87
S'971'
p543
sbasS'target_sub'
p544
S'71'
p545
sg85
(lp546
sS'is_component_arch'
p547
I01
sg87
S'6.0.0_r1'
p548
sba.