(lp0
(iArchitecture
Architecture
p1
(dp2
S'clusters'
p3
(lp4
(iArchitecture
Cluster
p5
(dp6
S'entities'
p7
(lp8
(iArchitecture
Entity
p9
(dp10
S'issue_ids'
p11
(lp12
sS'name'
p13
S'com.android.server.NsdService'
p14
sS'descs'
p15
(lp16
sS'labels'
p17
(lp18
sS'titles'
p19
(lp20
sS'change'
p21
I0
sba(iArchitecture
Entity
p22
(dp23
g11
(lp24
sg13
S'com.android.server.NsdService$ClientInfo'
p25
sg15
(lp26
sg17
(lp27
sg19
(lp28
sg21
I0
sba(iArchitecture
Entity
p29
(dp30
g11
(lp31
sg13
S'com.android.server.NsdService$NativeCallbackReceiver'
p32
sg15
(lp33
sg17
(lp34
sg19
(lp35
sg21
I0
sba(iArchitecture
Entity
p36
(dp37
g11
(lp38
sg13
S'com.android.server.NsdService$NativeEvent'
p39
sg15
(lp40
sg17
(lp41
sg19
(lp42
sg21
I0
sba(iArchitecture
Entity
p43
(dp44
g11
(lp45
sg13
S'com.android.server.NsdService$NativeResponseCode'
p46
sg15
(lp47
sg17
(lp48
sg19
(lp49
sg21
I0
sba(iArchitecture
Entity
p50
(dp51
g11
(lp52
sg13
S'com.android.server.NsdService$NsdStateMachine'
p53
sg15
(lp54
sg17
(lp55
sg19
(lp56
sg21
I0
sba(iArchitecture
Entity
p57
(dp58
g11
(lp59
sg13
S'com.android.server.NsdService$NsdStateMachine$1'
p60
sg15
(lp61
sg17
(lp62
sg19
(lp63
sg21
I0
sba(iArchitecture
Entity
p64
(dp65
g11
(lp66
sg13
S'com.android.server.NsdService$NsdStateMachine$DefaultState'
p67
sg15
(lp68
sg17
(lp69
sg19
(lp70
sg21
I0
sba(iArchitecture
Entity
p71
(dp72
g11
(lp73
sg13
S'com.android.server.NsdService$NsdStateMachine$DisabledState'
p74
sg15
(lp75
sg17
(lp76
sg19
(lp77
sg21
I0
sba(iArchitecture
Entity
p78
(dp79
g11
(lp80
sg13
S'com.android.server.NsdService$NsdStateMachine$EnabledState'
p81
sg15
(lp82
sg17
(lp83
sg19
(lp84
sg21
I0
sbasS'classes'
p85
(lp86
g14
ag25
ag32
ag39
ag46
ag53
ag60
ag67
ag74
ag81
asg21
I0
sS'label'
p87
S'1065'
p88
sba(iArchitecture
Cluster
p89
(dp90
g7
(lp91
(iArchitecture
Entity
p92
(dp93
g11
(lp94
sg13
S'android.app.UiModeManager'
p95
sg15
(lp96
sg17
(lp97
sg19
(lp98
sg21
I0
sba(iArchitecture
Entity
p99
(dp100
g11
(lp101
sg13
S'com.android.server.UiModeManagerService'
p102
sg15
(lp103
sg17
(lp104
sg19
(lp105
sg21
I0
sba(iArchitecture
Entity
p106
(dp107
g11
(lp108
sg13
S'com.android.server.UiModeManagerService$1'
p109
sg15
(lp110
sg17
(lp111
sg19
(lp112
sg21
I0
sba(iArchitecture
Entity
p113
(dp114
g11
(lp115
sg13
S'com.android.server.UiModeManagerService$2'
p116
sg15
(lp117
sg17
(lp118
sg19
(lp119
sg21
I0
sba(iArchitecture
Entity
p120
(dp121
g11
(lp122
sg13
S'com.android.server.UiModeManagerService$3'
p123
sg15
(lp124
sg17
(lp125
sg19
(lp126
sg21
I0
sba(iArchitecture
Entity
p127
(dp128
g11
(lp129
sg13
S'com.android.server.UiModeManagerService$4'
p130
sg15
(lp131
sg17
(lp132
sg19
(lp133
sg21
I0
sba(iArchitecture
Entity
p134
(dp135
g11
(lp136
sg13
S'com.android.server.UiModeManagerService$5'
p137
sg15
(lp138
sg17
(lp139
sg19
(lp140
sg21
I0
sbasg85
(lp141
g95
ag102
ag109
ag116
ag123
ag130
ag137
asg21
I0
sg87
S'1165'
p142
sba(iArchitecture
Cluster
p143
(dp144
g7
(lp145
(iArchitecture
Entity
p146
(dp147
g11
(lp148
sg13
S'android.app.TabActivity'
p149
sg15
(lp150
sg17
(lp151
sg19
(lp152
sg21
I0
sba(iArchitecture
Entity
p153
(dp154
g11
(lp155
sg13
S'android.telecom.StatusHints'
p156
sg15
(lp157
sg17
(lp158
sg19
(lp159
sg21
I0
sba(iArchitecture
Entity
p160
(dp161
g11
(lp162
sg13
S'android.telecom.StatusHints$1'
p163
sg15
(lp164
sg17
(lp165
sg19
(lp166
sg21
I0
sba(iArchitecture
Entity
p167
(dp168
g11
(lp169
sg13
S'com.android.server.policy.WakeGestureListener'
p170
sg15
(lp171
sg17
(lp172
sg19
(lp173
sg21
I0
sba(iArchitecture
Entity
p174
(dp175
g11
(lp176
sg13
S'com.android.server.policy.WakeGestureListener$1'
p177
sg15
(lp178
sg17
(lp179
sg19
(lp180
sg21
I0
sba(iArchitecture
Entity
p181
(dp182
g11
(lp183
sg13
S'com.android.server.policy.WakeGestureListener$2'
p184
sg15
(lp185
sg17
(lp186
sg19
(lp187
sg21
I0
sbasg85
(lp188
g149
ag156
ag163
ag170
ag177
ag184
asg21
I0
sg87
S'1265'
p189
sba(iArchitecture
Cluster
p190
(dp191
g7
(lp192
(iArchitecture
Entity
p193
(dp194
g11
(lp195
sg13
S'com.android.server.net.BaseNetworkObserver'
p196
sg15
(lp197
sg17
(lp198
sg19
(lp199
sg21
I0
sbasg85
(lp200
g196
asg21
I0
sg87
S'165'
p201
sba(iArchitecture
Cluster
p202
(dp203
g7
(lp204
(iArchitecture
Entity
p205
(dp206
g11
(lp207
sg13
S'android.media.MiniThumbFile'
p208
sg15
(lp209
sg17
(lp210
sg19
(lp211
sg21
I0
sbasg85
(lp212
g208
asg21
I0
sg87
S'265'
p213
sba(iArchitecture
Cluster
p214
(dp215
g7
(lp216
(iArchitecture
Entity
p217
(dp218
g11
(lp219
sg13
S'android.hardware.camera2.params.TonemapCurve'
p220
sg15
(lp221
sg17
(lp222
sg19
(lp223
sg21
I0
sbasg85
(lp224
g220
asg21
I0
sg87
S'365'
p225
sba(iArchitecture
Cluster
p226
(dp227
g7
(lp228
(iArchitecture
Entity
p229
(dp230
g11
(lp231
sg13
S'android.location.GpsNavigationMessage'
p232
sg15
(lp233
sg17
(lp234
sg19
(lp235
sg21
I0
sba(iArchitecture
Entity
p236
(dp237
g11
(lp238
sg13
S'android.location.GpsNavigationMessage$1'
p239
sg15
(lp240
sg17
(lp241
sg19
(lp242
sg21
I0
sbasg85
(lp243
g232
ag239
asg21
I0
sg87
S'465'
p244
sba(iArchitecture
Cluster
p245
(dp246
g7
(lp247
(iArchitecture
Entity
p248
(dp249
g11
(lp250
sg13
S'android.security.keymaster.KeyCharacteristics'
p251
sg15
(lp252
sg17
(lp253
sg19
(lp254
sg21
I0
sba(iArchitecture
Entity
p255
(dp256
g11
(lp257
sg13
S'android.security.keymaster.KeyCharacteristics$1'
p258
sg15
(lp259
sg17
(lp260
sg19
(lp261
sg21
I0
sbasg85
(lp262
g251
ag258
asg21
I0
sg87
S'565'
p263
sba(iArchitecture
Cluster
p264
(dp265
g7
(lp266
(iArchitecture
Entity
p267
(dp268
g11
(lp269
sg13
S'android.view.animation.TranslateAnimation'
p270
sg15
(lp271
sg17
(lp272
sg19
(lp273
sg21
I0
sbasg85
(lp274
g270
asg21
I0
sg87
S'65'
p275
sba(iArchitecture
Cluster
p276
(dp277
g7
(lp278
(iArchitecture
Entity
p279
(dp280
g11
(lp281
sg13
S'android.service.notification.StatusBarNotification'
p282
sg15
(lp283
sg17
(lp284
sg19
(lp285
sg21
I0
sba(iArchitecture
Entity
p286
(dp287
g11
(lp288
sg13
S'android.service.notification.StatusBarNotification$1'
p289
sg15
(lp290
sg17
(lp291
sg19
(lp292
sg21
I0
sbasg85
(lp293
g282
ag289
asg21
I0
sg87
S'650'
p294
sba(iArchitecture
Cluster
p295
(dp296
g7
(lp297
(iArchitecture
Entity
p298
(dp299
g11
(lp300
sg13
S'android.net.ProxyInfo'
p301
sg15
(lp302
sg17
(lp303
sg19
(lp304
sg21
I0
sba(iArchitecture
Entity
p305
(dp306
g11
(lp307
sg13
S'android.net.ProxyInfo$1'
p308
sg15
(lp309
sg17
(lp310
sg19
(lp311
sg21
I0
sbasg85
(lp312
g301
ag308
asg21
I0
sg87
S'651'
p313
sba(iArchitecture
Cluster
p314
(dp315
g7
(lp316
(iArchitecture
Entity
p317
(dp318
g11
(lp319
sg13
S'android.net.ScoredNetwork'
p320
sg15
(lp321
sg17
(lp322
sg19
(lp323
sg21
I0
sba(iArchitecture
Entity
p324
(dp325
g11
(lp326
sg13
S'android.net.ScoredNetwork$1'
p327
sg15
(lp328
sg17
(lp329
sg19
(lp330
sg21
I0
sbasg85
(lp331
g320
ag327
asg21
I0
sg87
S'652'
p332
sba(iArchitecture
Cluster
p333
(dp334
g7
(lp335
(iArchitecture
Entity
p336
(dp337
g11
(lp338
sg13
S'com.android.server.net.NetlinkTracker'
p339
sg15
(lp340
sg17
(lp341
sg19
(lp342
sg21
I0
sba(iArchitecture
Entity
p343
(dp344
g11
(lp345
sg13
S'com.android.server.net.NetlinkTracker$Callback'
p346
sg15
(lp347
sg17
(lp348
sg19
(lp349
sg21
I0
sbasg85
(lp350
g339
ag346
asg21
I0
sg87
S'653'
p351
sba(iArchitecture
Cluster
p352
(dp353
g7
(lp354
(iArchitecture
Entity
p355
(dp356
g11
(lp357
sg13
S'com.android.server.location.GeofenceManager'
p358
sg15
(lp359
sg17
(lp360
sg19
(lp361
sg21
I0
sba(iArchitecture
Entity
p362
(dp363
g11
(lp364
sg13
S'com.android.server.location.GeofenceManager$GeofenceHandler'
p365
sg15
(lp366
sg17
(lp367
sg19
(lp368
sg21
I0
sbasg85
(lp369
g358
ag365
asg21
I0
sg87
S'654'
p370
sba(iArchitecture
Cluster
p371
(dp372
g7
(lp373
(iArchitecture
Entity
p374
(dp375
g11
(lp376
sg13
S'android.graphics.BitmapFactory'
p377
sg15
(lp378
sg17
(lp379
sg19
(lp380
sg21
I0
sba(iArchitecture
Entity
p381
(dp382
g11
(lp383
sg13
S'android.graphics.BitmapFactory$Options'
p384
sg15
(lp385
sg17
(lp386
sg19
(lp387
sg21
I0
sbasg85
(lp388
g377
ag384
asg21
I0
sg87
S'655'
p389
sba(iArchitecture
Cluster
p390
(dp391
g7
(lp392
(iArchitecture
Entity
p393
(dp394
g11
(lp395
sg13
S'android.view.textservice.SentenceSuggestionsInfo'
p396
sg15
(lp397
sg17
(lp398
sg19
(lp399
sg21
I0
sba(iArchitecture
Entity
p400
(dp401
g11
(lp402
sg13
S'android.view.textservice.SentenceSuggestionsInfo$1'
p403
sg15
(lp404
sg17
(lp405
sg19
(lp406
sg21
I0
sbasg85
(lp407
g396
ag403
asg21
I0
sg87
S'656'
p408
sba(iArchitecture
Cluster
p409
(dp410
g7
(lp411
(iArchitecture
Entity
p412
(dp413
g11
(lp414
sg13
S'com.android.internal.view.InputBindResult'
p415
sg15
(lp416
sg17
(lp417
sg19
(lp418
sg21
I0
sba(iArchitecture
Entity
p419
(dp420
g11
(lp421
sg13
S'com.android.internal.view.InputBindResult$1'
p422
sg15
(lp423
sg17
(lp424
sg19
(lp425
sg21
I0
sbasg85
(lp426
g415
ag422
asg21
I0
sg87
S'657'
p427
sba(iArchitecture
Cluster
p428
(dp429
g7
(lp430
(iArchitecture
Entity
p431
(dp432
g11
(lp433
sg13
S'android.telephony.PreciseDataConnectionState'
p434
sg15
(lp435
sg17
(lp436
sg19
(lp437
sg21
I0
sba(iArchitecture
Entity
p438
(dp439
g11
(lp440
sg13
S'android.telephony.PreciseDataConnectionState$1'
p441
sg15
(lp442
sg17
(lp443
sg19
(lp444
sg21
I0
sbasg85
(lp445
g434
ag441
asg21
I0
sg87
S'658'
p446
sba(iArchitecture
Cluster
p447
(dp448
g7
(lp449
(iArchitecture
Entity
p450
(dp451
g11
(lp452
sg13
S'android.hardware.camera2.marshal.impl.MarshalQueryableRggbChannelVector'
p453
sg15
(lp454
sg17
(lp455
sg19
(lp456
sg21
I0
sba(iArchitecture
Entity
p457
(dp458
g11
(lp459
sg13
S'android.hardware.camera2.marshal.impl.MarshalQueryableRggbChannelVector$MarshalerRggbChannelVector'
p460
sg15
(lp461
sg17
(lp462
sg19
(lp463
sg21
I0
sbasg85
(lp464
g453
ag460
asg21
I0
sg87
S'659'
p465
sba(iArchitecture
Cluster
p466
(dp467
g7
(lp468
(iArchitecture
Entity
p469
(dp470
g11
(lp471
sg13
S'com.android.server.hdmi.TimerRecordingAction'
p472
sg15
(lp473
sg17
(lp474
sg19
(lp475
sg21
I0
sba(iArchitecture
Entity
p476
(dp477
g11
(lp478
sg13
S'com.android.server.hdmi.TimerRecordingAction$1'
p479
sg15
(lp480
sg17
(lp481
sg19
(lp482
sg21
I0
sbasg85
(lp483
g472
ag479
asg21
I0
sg87
S'665'
p484
sba(iArchitecture
Cluster
p485
(dp486
g7
(lp487
(iArchitecture
Entity
p488
(dp489
g11
(lp490
sg13
S'android.telecom.Conference'
p491
sg15
(lp492
sg17
(lp493
sg19
(lp494
sg21
I0
sba(iArchitecture
Entity
p495
(dp496
g11
(lp497
sg13
S'android.telecom.Conference$1'
p498
sg15
(lp499
sg17
(lp500
sg19
(lp501
sg21
I0
sba(iArchitecture
Entity
p502
(dp503
g11
(lp504
sg13
S'android.telecom.Conference$Listener'
p505
sg15
(lp506
sg17
(lp507
sg19
(lp508
sg21
I0
sbasg85
(lp509
g491
ag498
ag505
asg21
I0
sg87
S'765'
p510
sba(iArchitecture
Cluster
p511
(dp512
g7
(lp513
(iArchitecture
Entity
p514
(dp515
g11
(lp516
sg13
S'com.android.server.NetworkManagementSocketTagger'
p517
sg15
(lp518
sg17
(lp519
sg19
(lp520
sg21
I0
sba(iArchitecture
Entity
p521
(dp522
g11
(lp523
sg13
S'com.android.server.NetworkManagementSocketTagger$1'
p524
sg15
(lp525
sg17
(lp526
sg19
(lp527
sg21
I0
sba(iArchitecture
Entity
p528
(dp529
g11
(lp530
sg13
S'com.android.server.NetworkManagementSocketTagger$SocketTags'
p531
sg15
(lp532
sg17
(lp533
sg19
(lp534
sg21
I0
sbasg85
(lp535
g517
ag524
ag531
asg21
I0
sg87
S'865'
p536
sba(iArchitecture
Cluster
p537
(dp538
g7
(lp539
(iArchitecture
Entity
p540
(dp541
g11
(lp542
sg13
S'android.widget.SlidingDrawer'
p543
sg15
(lp544
sg17
(lp545
sg19
(lp546
sg21
I0
sba(iArchitecture
Entity
p547
(dp548
g11
(lp549
sg13
S'android.widget.SlidingDrawer$DrawerToggler'
p550
sg15
(lp551
sg17
(lp552
sg19
(lp553
sg21
I0
sba(iArchitecture
Entity
p554
(dp555
g11
(lp556
sg13
S'android.widget.SlidingDrawer$OnDrawerCloseListener'
p557
sg15
(lp558
sg17
(lp559
sg19
(lp560
sg21
I0
sba(iArchitecture
Entity
p561
(dp562
g11
(lp563
sg13
S'android.widget.SlidingDrawer$OnDrawerOpenListener'
p564
sg15
(lp565
sg17
(lp566
sg19
(lp567
sg21
I0
sba(iArchitecture
Entity
p568
(dp569
g11
(lp570
sg13
S'android.widget.SlidingDrawer$OnDrawerScrollListener'
p571
sg15
(lp572
sg17
(lp573
sg19
(lp574
sg21
I0
sba(iArchitecture
Entity
p575
(dp576
g11
(lp577
sg13
S'android.widget.SlidingDrawer$SlidingHandler'
p578
sg15
(lp579
sg17
(lp580
sg19
(lp581
sg21
I0
sbasg85
(lp582
g543
ag550
ag557
ag564
ag571
ag578
asg21
I0
sg87
S'965'
p583
sbasS'target_sub'
p584
S'65'
p585
sg85
(lp586
sS'is_component_arch'
p587
I01
sg87
S'6.0.0_r1'
p588
sba.