(lp0
(iArchitecture
Architecture
p1
(dp2
S'clusters'
p3
(lp4
(iArchitecture
Cluster
p5
(dp6
S'entities'
p7
(lp8
(iArchitecture
Entity
p9
(dp10
S'issue_ids'
p11
(lp12
sS'name'
p13
S'android.media.MediaDrm'
p14
sS'descs'
p15
(lp16
sS'labels'
p17
(lp18
sS'titles'
p19
(lp20
sS'change'
p21
I0
sba(iArchitecture
Entity
p22
(dp23
g11
(lp24
sg13
S'android.media.MediaDrm$Certificate'
p25
sg15
(lp26
sg17
(lp27
sg19
(lp28
sg21
I0
sba(iArchitecture
Entity
p29
(dp30
g11
(lp31
sg13
S'android.media.MediaDrm$CertificateRequest'
p32
sg15
(lp33
sg17
(lp34
sg19
(lp35
sg21
I0
sba(iArchitecture
Entity
p36
(dp37
g11
(lp38
sg13
S'android.media.MediaDrm$CryptoSession'
p39
sg15
(lp40
sg17
(lp41
sg19
(lp42
sg21
I0
sba(iArchitecture
Entity
p43
(dp44
g11
(lp45
sg13
S'android.media.MediaDrm$EventHandler'
p46
sg15
(lp47
sg17
(lp48
sg19
(lp49
sg21
I0
sba(iArchitecture
Entity
p50
(dp51
g11
(lp52
sg13
S'android.media.MediaDrm$KeyRequest'
p53
sg15
(lp54
sg17
(lp55
sg19
(lp56
sg21
I0
sba(iArchitecture
Entity
p57
(dp58
g11
(lp59
sg13
S'android.media.MediaDrm$KeyStatus'
p60
sg15
(lp61
sg17
(lp62
sg19
(lp63
sg21
I0
sba(iArchitecture
Entity
p64
(dp65
g11
(lp66
sg13
S'android.media.MediaDrm$MediaDrmStateException'
p67
sg15
(lp68
sg17
(lp69
sg19
(lp70
sg21
I0
sba(iArchitecture
Entity
p71
(dp72
g11
(lp73
sg13
S'android.media.MediaDrm$OnEventListener'
p74
sg15
(lp75
sg17
(lp76
sg19
(lp77
sg21
I0
sba(iArchitecture
Entity
p78
(dp79
g11
(lp80
sg13
S'android.media.MediaDrm$OnExpirationUpdateListener'
p81
sg15
(lp82
sg17
(lp83
sg19
(lp84
sg21
I0
sba(iArchitecture
Entity
p85
(dp86
g11
(lp87
sg13
S'android.media.MediaDrm$OnKeyStatusChangeListener'
p88
sg15
(lp89
sg17
(lp90
sg19
(lp91
sg21
I0
sba(iArchitecture
Entity
p92
(dp93
g11
(lp94
sg13
S'android.media.MediaDrm$ProvisionRequest'
p95
sg15
(lp96
sg17
(lp97
sg19
(lp98
sg21
I0
sbasS'classes'
p99
(lp100
g14
ag25
ag32
ag39
ag46
ag53
ag60
ag67
ag74
ag81
ag88
ag95
asg21
I0
sS'label'
p101
S'1074'
p102
sba(iArchitecture
Cluster
p103
(dp104
g7
(lp105
(iArchitecture
Entity
p106
(dp107
g11
(lp108
sg13
S'android.speech.tts.FileSynthesisCallback'
p109
sg15
(lp110
sg17
(lp111
sg19
(lp112
sg21
I0
sba(iArchitecture
Entity
p113
(dp114
g11
(lp115
sg13
S'android.speech.tts.PlaybackSynthesisCallback'
p116
sg15
(lp117
sg17
(lp118
sg19
(lp119
sg21
I0
sbasg99
(lp120
g109
ag116
asg21
I0
sg101
S'1174'
p121
sba(iArchitecture
Cluster
p122
(dp123
g7
(lp124
(iArchitecture
Entity
p125
(dp126
g11
(lp127
sg13
S'com.android.server.wm.DragState'
p128
sg15
(lp129
sg17
(lp130
sg19
(lp131
sg21
I0
sbasg99
(lp132
g128
asg21
I0
sg101
S'174'
p133
sba(iArchitecture
Cluster
p134
(dp135
g7
(lp136
(iArchitecture
Entity
p137
(dp138
g11
(lp139
sg13
S'android.bluetooth.le.AdvertiseCallback'
p140
sg15
(lp141
sg17
(lp142
sg19
(lp143
sg21
I0
sbasg99
(lp144
g140
asg21
I0
sg101
S'274'
p145
sba(iArchitecture
Cluster
p146
(dp147
g7
(lp148
(iArchitecture
Entity
p149
(dp150
g11
(lp151
sg13
S'android.content.ContentInsertHandler'
p152
sg15
(lp153
sg17
(lp154
sg19
(lp155
sg21
I0
sbasg99
(lp156
g152
asg21
I0
sg101
S'374'
p157
sba(iArchitecture
Cluster
p158
(dp159
g7
(lp160
(iArchitecture
Entity
p161
(dp162
g11
(lp163
sg13
S'com.android.server.location.ActivityRecognitionProxy'
p164
sg15
(lp165
sg17
(lp166
sg19
(lp167
sg21
I0
sba(iArchitecture
Entity
p168
(dp169
g11
(lp170
sg13
S'com.android.server.location.ActivityRecognitionProxy$1'
p171
sg15
(lp172
sg17
(lp173
sg19
(lp174
sg21
I0
sbasg99
(lp175
g164
ag171
asg21
I0
sg101
S'474'
p176
sba(iArchitecture
Cluster
p177
(dp178
g7
(lp179
(iArchitecture
Entity
p180
(dp181
g11
(lp182
sg13
S'android.hardware.usb.UsbPort'
p183
sg15
(lp184
sg17
(lp185
sg19
(lp186
sg21
I0
sba(iArchitecture
Entity
p187
(dp188
g11
(lp189
sg13
S'android.hardware.usb.UsbPort$1'
p190
sg15
(lp191
sg17
(lp192
sg19
(lp193
sg21
I0
sbasg99
(lp194
g183
ag190
asg21
I0
sg101
S'574'
p195
sba(iArchitecture
Cluster
p196
(dp197
g7
(lp198
(iArchitecture
Entity
p199
(dp200
g11
(lp201
sg13
S'android.telephony.CellIdentityLte'
p202
sg15
(lp203
sg17
(lp204
sg19
(lp205
sg21
I0
sba(iArchitecture
Entity
p206
(dp207
g11
(lp208
sg13
S'android.telephony.CellIdentityLte$1'
p209
sg15
(lp210
sg17
(lp211
sg19
(lp212
sg21
I0
sbasg99
(lp213
g202
ag209
asg21
I0
sg101
S'674'
p214
sba(iArchitecture
Cluster
p215
(dp216
g7
(lp217
(iArchitecture
Entity
p218
(dp219
g11
(lp220
sg13
S'android.graphics.BitmapRegionDecoder'
p221
sg15
(lp222
sg17
(lp223
sg19
(lp224
sg21
I0
sbasg99
(lp225
g221
asg21
I0
sg101
S'74'
p226
sba(iArchitecture
Cluster
p227
(dp228
g7
(lp229
(iArchitecture
Entity
p230
(dp231
g11
(lp232
sg13
S'android.net.LocalSocketImpl'
p233
sg15
(lp234
sg17
(lp235
sg19
(lp236
sg21
I0
sba(iArchitecture
Entity
p237
(dp238
g11
(lp239
sg13
S'android.net.LocalSocketImpl$SocketInputStream'
p240
sg15
(lp241
sg17
(lp242
sg19
(lp243
sg21
I0
sba(iArchitecture
Entity
p244
(dp245
g11
(lp246
sg13
S'android.net.LocalSocketImpl$SocketOutputStream'
p247
sg15
(lp248
sg17
(lp249
sg19
(lp250
sg21
I0
sbasg99
(lp251
g233
ag240
ag247
asg21
I0
sg101
S'740'
p252
sba(iArchitecture
Cluster
p253
(dp254
g7
(lp255
(iArchitecture
Entity
p256
(dp257
g11
(lp258
sg13
S'android.view.TextureView'
p259
sg15
(lp260
sg17
(lp261
sg19
(lp262
sg21
I0
sba(iArchitecture
Entity
p263
(dp264
g11
(lp265
sg13
S'android.view.TextureView$1'
p266
sg15
(lp267
sg17
(lp268
sg19
(lp269
sg21
I0
sba(iArchitecture
Entity
p270
(dp271
g11
(lp272
sg13
S'android.view.TextureView$SurfaceTextureListener'
p273
sg15
(lp274
sg17
(lp275
sg19
(lp276
sg21
I0
sbasg99
(lp277
g259
ag266
ag273
asg21
I0
sg101
S'741'
p278
sba(iArchitecture
Cluster
p279
(dp280
g7
(lp281
(iArchitecture
Entity
p282
(dp283
g11
(lp284
sg13
S'android.bluetooth.le.ScanFilter'
p285
sg15
(lp286
sg17
(lp287
sg19
(lp288
sg21
I0
sba(iArchitecture
Entity
p289
(dp290
g11
(lp291
sg13
S'android.bluetooth.le.ScanFilter$1'
p292
sg15
(lp293
sg17
(lp294
sg19
(lp295
sg21
I0
sba(iArchitecture
Entity
p296
(dp297
g11
(lp298
sg13
S'android.bluetooth.le.ScanFilter$Builder'
p299
sg15
(lp300
sg17
(lp301
sg19
(lp302
sg21
I0
sbasg99
(lp303
g285
ag292
ag299
asg21
I0
sg101
S'742'
p304
sba(iArchitecture
Cluster
p305
(dp306
g7
(lp307
(iArchitecture
Entity
p308
(dp309
g11
(lp310
sg13
S'android.view.inputmethod.InputMethodSubtype'
p311
sg15
(lp312
sg17
(lp313
sg19
(lp314
sg21
I0
sba(iArchitecture
Entity
p315
(dp316
g11
(lp317
sg13
S'android.view.inputmethod.InputMethodSubtype$1'
p318
sg15
(lp319
sg17
(lp320
sg19
(lp321
sg21
I0
sba(iArchitecture
Entity
p322
(dp323
g11
(lp324
sg13
S'android.view.inputmethod.InputMethodSubtype$InputMethodSubtypeBuilder'
p325
sg15
(lp326
sg17
(lp327
sg19
(lp328
sg21
I0
sbasg99
(lp329
g311
ag318
ag325
asg21
I0
sg101
S'743'
p330
sba(iArchitecture
Cluster
p331
(dp332
g7
(lp333
(iArchitecture
Entity
p334
(dp335
g11
(lp336
sg13
S'android.content.SharedPreferences'
p337
sg15
(lp338
sg17
(lp339
sg19
(lp340
sg21
I0
sba(iArchitecture
Entity
p341
(dp342
g11
(lp343
sg13
S'android.content.SharedPreferences$Editor'
p344
sg15
(lp345
sg17
(lp346
sg19
(lp347
sg21
I0
sba(iArchitecture
Entity
p348
(dp349
g11
(lp350
sg13
S'android.content.SharedPreferences$OnSharedPreferenceChangeListener'
p351
sg15
(lp352
sg17
(lp353
sg19
(lp354
sg21
I0
sbasg99
(lp355
g337
ag344
ag351
asg21
I0
sg101
S'744'
p356
sba(iArchitecture
Cluster
p357
(dp358
g7
(lp359
(iArchitecture
Entity
p360
(dp361
g11
(lp362
sg13
S'android.widget.DigitalClock'
p363
sg15
(lp364
sg17
(lp365
sg19
(lp366
sg21
I0
sba(iArchitecture
Entity
p367
(dp368
g11
(lp369
sg13
S'android.widget.DigitalClock$1'
p370
sg15
(lp371
sg17
(lp372
sg19
(lp373
sg21
I0
sba(iArchitecture
Entity
p374
(dp375
g11
(lp376
sg13
S'android.widget.DigitalClock$FormatChangeObserver'
p377
sg15
(lp378
sg17
(lp379
sg19
(lp380
sg21
I0
sbasg99
(lp381
g363
ag370
ag377
asg21
I0
sg101
S'745'
p382
sba(iArchitecture
Cluster
p383
(dp384
g7
(lp385
(iArchitecture
Entity
p386
(dp387
g11
(lp388
sg13
S'android.media.AsyncPlayer'
p389
sg15
(lp390
sg17
(lp391
sg19
(lp392
sg21
I0
sba(iArchitecture
Entity
p393
(dp394
g11
(lp395
sg13
S'android.media.AsyncPlayer$Command'
p396
sg15
(lp397
sg17
(lp398
sg19
(lp399
sg21
I0
sba(iArchitecture
Entity
p400
(dp401
g11
(lp402
sg13
S'android.media.AsyncPlayer$Thread'
p403
sg15
(lp404
sg17
(lp405
sg19
(lp406
sg21
I0
sbasg99
(lp407
g389
ag396
ag403
asg21
I0
sg101
S'746'
p408
sba(iArchitecture
Cluster
p409
(dp410
g7
(lp411
(iArchitecture
Entity
p412
(dp413
g11
(lp414
sg13
S'com.android.internal.widget.PointerLocationView'
p415
sg15
(lp416
sg17
(lp417
sg19
(lp418
sg21
I0
sba(iArchitecture
Entity
p419
(dp420
g11
(lp421
sg13
S'com.android.internal.widget.PointerLocationView$FasterStringBuilder'
p422
sg15
(lp423
sg17
(lp424
sg19
(lp425
sg21
I0
sba(iArchitecture
Entity
p426
(dp427
g11
(lp428
sg13
S'com.android.internal.widget.PointerLocationView$PointerState'
p429
sg15
(lp430
sg17
(lp431
sg19
(lp432
sg21
I0
sbasg99
(lp433
g415
ag422
ag429
asg21
I0
sg101
S'747'
p434
sba(iArchitecture
Cluster
p435
(dp436
g7
(lp437
(iArchitecture
Entity
p438
(dp439
g11
(lp440
sg13
S'android.preference.PreferenceGroupAdapter'
p441
sg15
(lp442
sg17
(lp443
sg19
(lp444
sg21
I0
sba(iArchitecture
Entity
p445
(dp446
g11
(lp447
sg13
S'android.preference.PreferenceGroupAdapter$1'
p448
sg15
(lp449
sg17
(lp450
sg19
(lp451
sg21
I0
sba(iArchitecture
Entity
p452
(dp453
g11
(lp454
sg13
S'android.preference.PreferenceGroupAdapter$PreferenceLayout'
p455
sg15
(lp456
sg17
(lp457
sg19
(lp458
sg21
I0
sbasg99
(lp459
g441
ag448
ag455
asg21
I0
sg101
S'748'
p460
sba(iArchitecture
Cluster
p461
(dp462
g7
(lp463
(iArchitecture
Entity
p464
(dp465
g11
(lp466
sg13
S'com.android.server.am.UriPermission'
p467
sg15
(lp468
sg17
(lp469
sg19
(lp470
sg21
I0
sba(iArchitecture
Entity
p471
(dp472
g11
(lp473
sg13
S'com.android.server.am.UriPermission$PersistedTimeComparator'
p474
sg15
(lp475
sg17
(lp476
sg19
(lp477
sg21
I0
sba(iArchitecture
Entity
p478
(dp479
g11
(lp480
sg13
S'com.android.server.am.UriPermission$Snapshot'
p481
sg15
(lp482
sg17
(lp483
sg19
(lp484
sg21
I0
sbasg99
(lp485
g467
ag474
ag481
asg21
I0
sg101
S'749'
p486
sba(iArchitecture
Cluster
p487
(dp488
g7
(lp489
(iArchitecture
Entity
p490
(dp491
g11
(lp492
sg13
S'android.content.res.ColorStateList'
p493
sg15
(lp494
sg17
(lp495
sg19
(lp496
sg21
I0
sba(iArchitecture
Entity
p497
(dp498
g11
(lp499
sg13
S'android.content.res.ColorStateList$1'
p500
sg15
(lp501
sg17
(lp502
sg19
(lp503
sg21
I0
sba(iArchitecture
Entity
p504
(dp505
g11
(lp506
sg13
S'android.content.res.ColorStateList$ColorStateListFactory'
p507
sg15
(lp508
sg17
(lp509
sg19
(lp510
sg21
I0
sbasg99
(lp511
g493
ag500
ag507
asg21
I0
sg101
S'774'
p512
sba(iArchitecture
Cluster
p513
(dp514
g7
(lp515
(iArchitecture
Entity
p516
(dp517
g11
(lp518
sg13
S'android.animation.Keyframe'
p519
sg15
(lp520
sg17
(lp521
sg19
(lp522
sg21
I0
sba(iArchitecture
Entity
p523
(dp524
g11
(lp525
sg13
S'android.animation.Keyframe$FloatKeyframe'
p526
sg15
(lp527
sg17
(lp528
sg19
(lp529
sg21
I0
sba(iArchitecture
Entity
p530
(dp531
g11
(lp532
sg13
S'android.animation.Keyframe$IntKeyframe'
p533
sg15
(lp534
sg17
(lp535
sg19
(lp536
sg21
I0
sba(iArchitecture
Entity
p537
(dp538
g11
(lp539
sg13
S'android.animation.Keyframe$ObjectKeyframe'
p540
sg15
(lp541
sg17
(lp542
sg19
(lp543
sg21
I0
sbasg99
(lp544
g519
ag526
ag533
ag540
asg21
I0
sg101
S'874'
p545
sba(iArchitecture
Cluster
p546
(dp547
g7
(lp548
(iArchitecture
Entity
p549
(dp550
g11
(lp551
sg13
S'android.text.util.Linkify'
p552
sg15
(lp553
sg17
(lp554
sg19
(lp555
sg21
I0
sba(iArchitecture
Entity
p556
(dp557
g11
(lp558
sg13
S'android.text.util.Linkify$1'
p559
sg15
(lp560
sg17
(lp561
sg19
(lp562
sg21
I0
sba(iArchitecture
Entity
p563
(dp564
g11
(lp565
sg13
S'android.text.util.Linkify$2'
p566
sg15
(lp567
sg17
(lp568
sg19
(lp569
sg21
I0
sba(iArchitecture
Entity
p570
(dp571
g11
(lp572
sg13
S'android.text.util.Linkify$3'
p573
sg15
(lp574
sg17
(lp575
sg19
(lp576
sg21
I0
sba(iArchitecture
Entity
p577
(dp578
g11
(lp579
sg13
S'android.text.util.Linkify$4'
p580
sg15
(lp581
sg17
(lp582
sg19
(lp583
sg21
I0
sba(iArchitecture
Entity
p584
(dp585
g11
(lp586
sg13
S'android.text.util.Linkify$MatchFilter'
p587
sg15
(lp588
sg17
(lp589
sg19
(lp590
sg21
I0
sba(iArchitecture
Entity
p591
(dp592
g11
(lp593
sg13
S'android.text.util.Linkify$TransformFilter'
p594
sg15
(lp595
sg17
(lp596
sg19
(lp597
sg21
I0
sbasg99
(lp598
g552
ag559
ag566
ag573
ag580
ag587
ag594
asg21
I0
sg101
S'974'
p599
sbasS'target_sub'
p600
S'74'
p601
sg99
(lp602
sS'is_component_arch'
p603
I01
sg101
S'6.0.0_r1'
p604
sba.