(lp0
(iArchitecture
Architecture
p1
(dp2
S'clusters'
p3
(lp4
(iArchitecture
Cluster
p5
(dp6
S'entities'
p7
(lp8
(iArchitecture
Entity
p9
(dp10
S'issue_ids'
p11
(lp12
sS'name'
p13
S'android.provider.CalendarContract'
p14
sS'descs'
p15
(lp16
sS'labels'
p17
(lp18
sS'titles'
p19
(lp20
sS'change'
p21
I0
sba(iArchitecture
Entity
p22
(dp23
g11
(lp24
sg13
S'android.provider.CalendarContract$Attendees'
p25
sg15
(lp26
sg17
(lp27
sg19
(lp28
sg21
I0
sba(iArchitecture
Entity
p29
(dp30
g11
(lp31
sg13
S'android.provider.CalendarContract$AttendeesColumns'
p32
sg15
(lp33
sg17
(lp34
sg19
(lp35
sg21
I0
sba(iArchitecture
Entity
p36
(dp37
g11
(lp38
sg13
S'android.provider.CalendarContract$CalendarAlerts'
p39
sg15
(lp40
sg17
(lp41
sg19
(lp42
sg21
I0
sba(iArchitecture
Entity
p43
(dp44
g11
(lp45
sg13
S'android.provider.CalendarContract$CalendarAlertsColumns'
p46
sg15
(lp47
sg17
(lp48
sg19
(lp49
sg21
I0
sba(iArchitecture
Entity
p50
(dp51
g11
(lp52
sg13
S'android.provider.CalendarContract$CalendarCache'
p53
sg15
(lp54
sg17
(lp55
sg19
(lp56
sg21
I0
sba(iArchitecture
Entity
p57
(dp58
g11
(lp59
sg13
S'android.provider.CalendarContract$CalendarCacheColumns'
p60
sg15
(lp61
sg17
(lp62
sg19
(lp63
sg21
I0
sba(iArchitecture
Entity
p64
(dp65
g11
(lp66
sg13
S'android.provider.CalendarContract$CalendarColumns'
p67
sg15
(lp68
sg17
(lp69
sg19
(lp70
sg21
I0
sba(iArchitecture
Entity
p71
(dp72
g11
(lp73
sg13
S'android.provider.CalendarContract$CalendarEntity'
p74
sg15
(lp75
sg17
(lp76
sg19
(lp77
sg21
I0
sba(iArchitecture
Entity
p78
(dp79
g11
(lp80
sg13
S'android.provider.CalendarContract$CalendarEntity$EntityIteratorImpl'
p81
sg15
(lp82
sg17
(lp83
sg19
(lp84
sg21
I0
sba(iArchitecture
Entity
p85
(dp86
g11
(lp87
sg13
S'android.provider.CalendarContract$CalendarMetaData'
p88
sg15
(lp89
sg17
(lp90
sg19
(lp91
sg21
I0
sba(iArchitecture
Entity
p92
(dp93
g11
(lp94
sg13
S'android.provider.CalendarContract$CalendarMetaDataColumns'
p95
sg15
(lp96
sg17
(lp97
sg19
(lp98
sg21
I0
sba(iArchitecture
Entity
p99
(dp100
g11
(lp101
sg13
S'android.provider.CalendarContract$CalendarSyncColumns'
p102
sg15
(lp103
sg17
(lp104
sg19
(lp105
sg21
I0
sba(iArchitecture
Entity
p106
(dp107
g11
(lp108
sg13
S'android.provider.CalendarContract$Calendars'
p109
sg15
(lp110
sg17
(lp111
sg19
(lp112
sg21
I0
sba(iArchitecture
Entity
p113
(dp114
g11
(lp115
sg13
S'android.provider.CalendarContract$Colors'
p116
sg15
(lp117
sg17
(lp118
sg19
(lp119
sg21
I0
sba(iArchitecture
Entity
p120
(dp121
g11
(lp122
sg13
S'android.provider.CalendarContract$ColorsColumns'
p123
sg15
(lp124
sg17
(lp125
sg19
(lp126
sg21
I0
sba(iArchitecture
Entity
p127
(dp128
g11
(lp129
sg13
S'android.provider.CalendarContract$EventDays'
p130
sg15
(lp131
sg17
(lp132
sg19
(lp133
sg21
I0
sba(iArchitecture
Entity
p134
(dp135
g11
(lp136
sg13
S'android.provider.CalendarContract$EventDaysColumns'
p137
sg15
(lp138
sg17
(lp139
sg19
(lp140
sg21
I0
sba(iArchitecture
Entity
p141
(dp142
g11
(lp143
sg13
S'android.provider.CalendarContract$Events'
p144
sg15
(lp145
sg17
(lp146
sg19
(lp147
sg21
I0
sba(iArchitecture
Entity
p148
(dp149
g11
(lp150
sg13
S'android.provider.CalendarContract$EventsColumns'
p151
sg15
(lp152
sg17
(lp153
sg19
(lp154
sg21
I0
sba(iArchitecture
Entity
p155
(dp156
g11
(lp157
sg13
S'android.provider.CalendarContract$EventsEntity'
p158
sg15
(lp159
sg17
(lp160
sg19
(lp161
sg21
I0
sba(iArchitecture
Entity
p162
(dp163
g11
(lp164
sg13
S'android.provider.CalendarContract$EventsEntity$EntityIteratorImpl'
p165
sg15
(lp166
sg17
(lp167
sg19
(lp168
sg21
I0
sba(iArchitecture
Entity
p169
(dp170
g11
(lp171
sg13
S'android.provider.CalendarContract$EventsRawTimes'
p172
sg15
(lp173
sg17
(lp174
sg19
(lp175
sg21
I0
sba(iArchitecture
Entity
p176
(dp177
g11
(lp178
sg13
S'android.provider.CalendarContract$EventsRawTimesColumns'
p179
sg15
(lp180
sg17
(lp181
sg19
(lp182
sg21
I0
sba(iArchitecture
Entity
p183
(dp184
g11
(lp185
sg13
S'android.provider.CalendarContract$ExtendedProperties'
p186
sg15
(lp187
sg17
(lp188
sg19
(lp189
sg21
I0
sba(iArchitecture
Entity
p190
(dp191
g11
(lp192
sg13
S'android.provider.CalendarContract$ExtendedPropertiesColumns'
p193
sg15
(lp194
sg17
(lp195
sg19
(lp196
sg21
I0
sba(iArchitecture
Entity
p197
(dp198
g11
(lp199
sg13
S'android.provider.CalendarContract$Instances'
p200
sg15
(lp201
sg17
(lp202
sg19
(lp203
sg21
I0
sba(iArchitecture
Entity
p204
(dp205
g11
(lp206
sg13
S'android.provider.CalendarContract$Reminders'
p207
sg15
(lp208
sg17
(lp209
sg19
(lp210
sg21
I0
sba(iArchitecture
Entity
p211
(dp212
g11
(lp213
sg13
S'android.provider.CalendarContract$RemindersColumns'
p214
sg15
(lp215
sg17
(lp216
sg19
(lp217
sg21
I0
sba(iArchitecture
Entity
p218
(dp219
g11
(lp220
sg13
S'android.provider.CalendarContract$SyncColumns'
p221
sg15
(lp222
sg17
(lp223
sg19
(lp224
sg21
I0
sba(iArchitecture
Entity
p225
(dp226
g11
(lp227
sg13
S'android.provider.CalendarContract$SyncState'
p228
sg15
(lp229
sg17
(lp230
sg19
(lp231
sg21
I0
sbasS'classes'
p232
(lp233
g14
ag25
ag32
ag39
ag46
ag53
ag60
ag67
ag74
ag81
ag88
ag95
ag102
ag109
ag116
ag123
ag130
ag137
ag144
ag151
ag158
ag165
ag172
ag179
ag186
ag193
ag200
ag207
ag214
ag221
ag228
asg21
I0
sS'label'
p234
S'1096'
p235
sba(iArchitecture
Cluster
p236
(dp237
g7
(lp238
(iArchitecture
Entity
p239
(dp240
g11
(lp241
sg13
S'android.provider.Browser'
p242
sg15
(lp243
sg17
(lp244
sg19
(lp245
sg21
I0
sba(iArchitecture
Entity
p246
(dp247
g11
(lp248
sg13
S'android.provider.Browser$BookmarkColumns'
p249
sg15
(lp250
sg17
(lp251
sg19
(lp252
sg21
I0
sba(iArchitecture
Entity
p253
(dp254
g11
(lp255
sg13
S'android.provider.Browser$SearchColumns'
p256
sg15
(lp257
sg17
(lp258
sg19
(lp259
sg21
I0
sba(iArchitecture
Entity
p260
(dp261
g11
(lp262
sg13
S'android.provider.BrowserContract'
p263
sg15
(lp264
sg17
(lp265
sg19
(lp266
sg21
I0
sba(iArchitecture
Entity
p267
(dp268
g11
(lp269
sg13
S'android.provider.BrowserContract$Accounts'
p270
sg15
(lp271
sg17
(lp272
sg19
(lp273
sg21
I0
sba(iArchitecture
Entity
p274
(dp275
g11
(lp276
sg13
S'android.provider.BrowserContract$BaseSyncColumns'
p277
sg15
(lp278
sg17
(lp279
sg19
(lp280
sg21
I0
sba(iArchitecture
Entity
p281
(dp282
g11
(lp283
sg13
S'android.provider.BrowserContract$Bookmarks'
p284
sg15
(lp285
sg17
(lp286
sg19
(lp287
sg21
I0
sba(iArchitecture
Entity
p288
(dp289
g11
(lp290
sg13
S'android.provider.BrowserContract$ChromeSyncColumns'
p291
sg15
(lp292
sg17
(lp293
sg19
(lp294
sg21
I0
sba(iArchitecture
Entity
p295
(dp296
g11
(lp297
sg13
S'android.provider.BrowserContract$Combined'
p298
sg15
(lp299
sg17
(lp300
sg19
(lp301
sg21
I0
sba(iArchitecture
Entity
p302
(dp303
g11
(lp304
sg13
S'android.provider.BrowserContract$CommonColumns'
p305
sg15
(lp306
sg17
(lp307
sg19
(lp308
sg21
I0
sba(iArchitecture
Entity
p309
(dp310
g11
(lp311
sg13
S'android.provider.BrowserContract$History'
p312
sg15
(lp313
sg17
(lp314
sg19
(lp315
sg21
I0
sba(iArchitecture
Entity
p316
(dp317
g11
(lp318
sg13
S'android.provider.BrowserContract$HistoryColumns'
p319
sg15
(lp320
sg17
(lp321
sg19
(lp322
sg21
I0
sba(iArchitecture
Entity
p323
(dp324
g11
(lp325
sg13
S'android.provider.BrowserContract$ImageColumns'
p326
sg15
(lp327
sg17
(lp328
sg19
(lp329
sg21
I0
sba(iArchitecture
Entity
p330
(dp331
g11
(lp332
sg13
S'android.provider.BrowserContract$ImageMappingColumns'
p333
sg15
(lp334
sg17
(lp335
sg19
(lp336
sg21
I0
sba(iArchitecture
Entity
p337
(dp338
g11
(lp339
sg13
S'android.provider.BrowserContract$ImageMappings'
p340
sg15
(lp341
sg17
(lp342
sg19
(lp343
sg21
I0
sba(iArchitecture
Entity
p344
(dp345
g11
(lp346
sg13
S'android.provider.BrowserContract$Images'
p347
sg15
(lp348
sg17
(lp349
sg19
(lp350
sg21
I0
sba(iArchitecture
Entity
p351
(dp352
g11
(lp353
sg13
S'android.provider.BrowserContract$Searches'
p354
sg15
(lp355
sg17
(lp356
sg19
(lp357
sg21
I0
sba(iArchitecture
Entity
p358
(dp359
g11
(lp360
sg13
S'android.provider.BrowserContract$Settings'
p361
sg15
(lp362
sg17
(lp363
sg19
(lp364
sg21
I0
sba(iArchitecture
Entity
p365
(dp366
g11
(lp367
sg13
S'android.provider.BrowserContract$SyncColumns'
p368
sg15
(lp369
sg17
(lp370
sg19
(lp371
sg21
I0
sba(iArchitecture
Entity
p372
(dp373
g11
(lp374
sg13
S'android.provider.BrowserContract$SyncState'
p375
sg15
(lp376
sg17
(lp377
sg19
(lp378
sg21
I0
sbasg232
(lp379
g242
ag249
ag256
ag263
ag270
ag277
ag284
ag291
ag298
ag305
ag312
ag319
ag326
ag333
ag340
ag347
ag354
ag361
ag368
ag375
asg21
I0
sg234
S'1196'
p380
sba(iArchitecture
Cluster
p381
(dp382
g7
(lp383
(iArchitecture
Entity
p384
(dp385
g11
(lp386
sg13
S'android.view.inputmethod.InputConnectionWrapper'
p387
sg15
(lp388
sg17
(lp389
sg19
(lp390
sg21
I0
sbasg232
(lp391
g387
asg21
I0
sg234
S'196'
p392
sba(iArchitecture
Cluster
p393
(dp394
g7
(lp395
(iArchitecture
Entity
p396
(dp397
g11
(lp398
sg13
S'com.android.server.am.AppTimeTracker'
p399
sg15
(lp400
sg17
(lp401
sg19
(lp402
sg21
I0
sbasg232
(lp403
g399
asg21
I0
sg234
S'296'
p404
sba(iArchitecture
Cluster
p405
(dp406
g7
(lp407
(iArchitecture
Entity
p408
(dp409
g11
(lp410
sg13
S'android.webkit.WebViewClient'
p411
sg15
(lp412
sg17
(lp413
sg19
(lp414
sg21
I0
sbasg232
(lp415
g411
asg21
I0
sg234
S'396'
p416
sba(iArchitecture
Cluster
p417
(dp418
g7
(lp419
(iArchitecture
Entity
p420
(dp421
g11
(lp422
sg13
S'android.preference.PreferenceFrameLayout'
p423
sg15
(lp424
sg17
(lp425
sg19
(lp426
sg21
I0
sba(iArchitecture
Entity
p427
(dp428
g11
(lp429
sg13
S'android.preference.PreferenceFrameLayout$LayoutParams'
p430
sg15
(lp431
sg17
(lp432
sg19
(lp433
sg21
I0
sbasg232
(lp434
g423
ag430
asg21
I0
sg234
S'496'
p435
sba(iArchitecture
Cluster
p436
(dp437
g7
(lp438
(iArchitecture
Entity
p439
(dp440
g11
(lp441
sg13
S'android.opengl.ETC1Util'
p442
sg15
(lp443
sg17
(lp444
sg19
(lp445
sg21
I0
sba(iArchitecture
Entity
p446
(dp447
g11
(lp448
sg13
S'android.opengl.ETC1Util$ETC1Texture'
p449
sg15
(lp450
sg17
(lp451
sg19
(lp452
sg21
I0
sbasg232
(lp453
g442
ag449
asg21
I0
sg234
S'596'
p454
sba(iArchitecture
Cluster
p455
(dp456
g7
(lp457
(iArchitecture
Entity
p458
(dp459
g11
(lp460
sg13
S'com.android.internal.statusbar.StatusBarIcon'
p461
sg15
(lp462
sg17
(lp463
sg19
(lp464
sg21
I0
sba(iArchitecture
Entity
p465
(dp466
g11
(lp467
sg13
S'com.android.internal.statusbar.StatusBarIcon$1'
p468
sg15
(lp469
sg17
(lp470
sg19
(lp471
sg21
I0
sbasg232
(lp472
g461
ag468
asg21
I0
sg234
S'696'
p473
sba(iArchitecture
Cluster
p474
(dp475
g7
(lp476
(iArchitecture
Entity
p477
(dp478
g11
(lp479
sg13
S'android.util.Spline'
p480
sg15
(lp481
sg17
(lp482
sg19
(lp483
sg21
I0
sba(iArchitecture
Entity
p484
(dp485
g11
(lp486
sg13
S'android.util.Spline$LinearSpline'
p487
sg15
(lp488
sg17
(lp489
sg19
(lp490
sg21
I0
sba(iArchitecture
Entity
p491
(dp492
g11
(lp493
sg13
S'android.util.Spline$MonotoneCubicSpline'
p494
sg15
(lp495
sg17
(lp496
sg19
(lp497
sg21
I0
sbasg232
(lp498
g480
ag487
ag494
asg21
I0
sg234
S'796'
p499
sba(iArchitecture
Cluster
p500
(dp501
g7
(lp502
(iArchitecture
Entity
p503
(dp504
g11
(lp505
sg13
S'android.view.MotionEvent'
p506
sg15
(lp507
sg17
(lp508
sg19
(lp509
sg21
I0
sba(iArchitecture
Entity
p510
(dp511
g11
(lp512
sg13
S'android.view.MotionEvent$1'
p513
sg15
(lp514
sg17
(lp515
sg19
(lp516
sg21
I0
sba(iArchitecture
Entity
p517
(dp518
g11
(lp519
sg13
S'android.view.MotionEvent$PointerCoords'
p520
sg15
(lp521
sg17
(lp522
sg19
(lp523
sg21
I0
sba(iArchitecture
Entity
p524
(dp525
g11
(lp526
sg13
S'android.view.MotionEvent$PointerProperties'
p527
sg15
(lp528
sg17
(lp529
sg19
(lp530
sg21
I0
sbasg232
(lp531
g506
ag513
ag520
ag527
asg21
I0
sg234
S'896'
p532
sba(iArchitecture
Cluster
p533
(dp534
g7
(lp535
(iArchitecture
Entity
p536
(dp537
g11
(lp538
sg13
S'com.android.internal.os.CameraPowerCalculator'
p539
sg15
(lp540
sg17
(lp541
sg19
(lp542
sg21
I0
sbasg232
(lp543
g539
asg21
I0
sg234
S'96'
p544
sba(iArchitecture
Cluster
p545
(dp546
g7
(lp547
(iArchitecture
Entity
p548
(dp549
g11
(lp550
sg13
S'android.view.accessibility.CaptioningManager'
p551
sg15
(lp552
sg17
(lp553
sg19
(lp554
sg21
I0
sba(iArchitecture
Entity
p555
(dp556
g11
(lp557
sg13
S'android.view.accessibility.CaptioningManager$1'
p558
sg15
(lp559
sg17
(lp560
sg19
(lp561
sg21
I0
sba(iArchitecture
Entity
p562
(dp563
g11
(lp564
sg13
S'android.view.accessibility.CaptioningManager$CaptionStyle'
p565
sg15
(lp566
sg17
(lp567
sg19
(lp568
sg21
I0
sba(iArchitecture
Entity
p569
(dp570
g11
(lp571
sg13
S'android.view.accessibility.CaptioningManager$CaptioningChangeListener'
p572
sg15
(lp573
sg17
(lp574
sg19
(lp575
sg21
I0
sba(iArchitecture
Entity
p576
(dp577
g11
(lp578
sg13
S'android.view.accessibility.CaptioningManager$MyContentObserver'
p579
sg15
(lp580
sg17
(lp581
sg19
(lp582
sg21
I0
sbasg232
(lp583
g551
ag558
ag565
ag572
ag579
asg21
I0
sg234
S'960'
p584
sba(iArchitecture
Cluster
p585
(dp586
g7
(lp587
(iArchitecture
Entity
p588
(dp589
g11
(lp590
sg13
S'android.hardware.hdmi.HdmiPlaybackClient'
p591
sg15
(lp592
sg17
(lp593
sg19
(lp594
sg21
I0
sba(iArchitecture
Entity
p595
(dp596
g11
(lp597
sg13
S'android.hardware.hdmi.HdmiPlaybackClient$1'
p598
sg15
(lp599
sg17
(lp600
sg19
(lp601
sg21
I0
sba(iArchitecture
Entity
p602
(dp603
g11
(lp604
sg13
S'android.hardware.hdmi.HdmiPlaybackClient$2'
p605
sg15
(lp606
sg17
(lp607
sg19
(lp608
sg21
I0
sba(iArchitecture
Entity
p609
(dp610
g11
(lp611
sg13
S'android.hardware.hdmi.HdmiPlaybackClient$DisplayStatusCallback'
p612
sg15
(lp613
sg17
(lp614
sg19
(lp615
sg21
I0
sba(iArchitecture
Entity
p616
(dp617
g11
(lp618
sg13
S'android.hardware.hdmi.HdmiPlaybackClient$OneTouchPlayCallback'
p619
sg15
(lp620
sg17
(lp621
sg19
(lp622
sg21
I0
sbasg232
(lp623
g591
ag598
ag605
ag612
ag619
asg21
I0
sg234
S'961'
p624
sba(iArchitecture
Cluster
p625
(dp626
g7
(lp627
(iArchitecture
Entity
p628
(dp629
g11
(lp630
sg13
S'android.net.NetworkStatsHistory'
p631
sg15
(lp632
sg17
(lp633
sg19
(lp634
sg21
I0
sba(iArchitecture
Entity
p635
(dp636
g11
(lp637
sg13
S'android.net.NetworkStatsHistory$1'
p638
sg15
(lp639
sg17
(lp640
sg19
(lp641
sg21
I0
sba(iArchitecture
Entity
p642
(dp643
g11
(lp644
sg13
S'android.net.NetworkStatsHistory$DataStreamUtils'
p645
sg15
(lp646
sg17
(lp647
sg19
(lp648
sg21
I0
sba(iArchitecture
Entity
p649
(dp650
g11
(lp651
sg13
S'android.net.NetworkStatsHistory$Entry'
p652
sg15
(lp653
sg17
(lp654
sg19
(lp655
sg21
I0
sba(iArchitecture
Entity
p656
(dp657
g11
(lp658
sg13
S'android.net.NetworkStatsHistory$ParcelUtils'
p659
sg15
(lp660
sg17
(lp661
sg19
(lp662
sg21
I0
sbasg232
(lp663
g631
ag638
ag645
ag652
ag659
asg21
I0
sg234
S'962'
p664
sba(iArchitecture
Cluster
p665
(dp666
g7
(lp667
(iArchitecture
Entity
p668
(dp669
g11
(lp670
sg13
S'android.media.MediaScannerConnection'
p671
sg15
(lp672
sg17
(lp673
sg19
(lp674
sg21
I0
sba(iArchitecture
Entity
p675
(dp676
g11
(lp677
sg13
S'android.media.MediaScannerConnection$1'
p678
sg15
(lp679
sg17
(lp680
sg19
(lp681
sg21
I0
sba(iArchitecture
Entity
p682
(dp683
g11
(lp684
sg13
S'android.media.MediaScannerConnection$ClientProxy'
p685
sg15
(lp686
sg17
(lp687
sg19
(lp688
sg21
I0
sba(iArchitecture
Entity
p689
(dp690
g11
(lp691
sg13
S'android.media.MediaScannerConnection$MediaScannerConnectionClient'
p692
sg15
(lp693
sg17
(lp694
sg19
(lp695
sg21
I0
sba(iArchitecture
Entity
p696
(dp697
g11
(lp698
sg13
S'android.media.MediaScannerConnection$OnScanCompletedListener'
p699
sg15
(lp700
sg17
(lp701
sg19
(lp702
sg21
I0
sbasg232
(lp703
g671
ag678
ag685
ag692
ag699
asg21
I0
sg234
S'963'
p704
sba(iArchitecture
Cluster
p705
(dp706
g7
(lp707
(iArchitecture
Entity
p708
(dp709
g11
(lp710
sg13
S'android.media.RemoteDisplay'
p711
sg15
(lp712
sg17
(lp713
sg19
(lp714
sg21
I0
sba(iArchitecture
Entity
p715
(dp716
g11
(lp717
sg13
S'android.media.RemoteDisplay$1'
p718
sg15
(lp719
sg17
(lp720
sg19
(lp721
sg21
I0
sba(iArchitecture
Entity
p722
(dp723
g11
(lp724
sg13
S'android.media.RemoteDisplay$2'
p725
sg15
(lp726
sg17
(lp727
sg19
(lp728
sg21
I0
sba(iArchitecture
Entity
p729
(dp730
g11
(lp731
sg13
S'android.media.RemoteDisplay$3'
p732
sg15
(lp733
sg17
(lp734
sg19
(lp735
sg21
I0
sba(iArchitecture
Entity
p736
(dp737
g11
(lp738
sg13
S'android.media.RemoteDisplay$Listener'
p739
sg15
(lp740
sg17
(lp741
sg19
(lp742
sg21
I0
sbasg232
(lp743
g711
ag718
ag725
ag732
ag739
asg21
I0
sg234
S'964'
p744
sba(iArchitecture
Cluster
p745
(dp746
g7
(lp747
(iArchitecture
Entity
p748
(dp749
g11
(lp750
sg13
S'android.widget.SlidingDrawer'
p751
sg15
(lp752
sg17
(lp753
sg19
(lp754
sg21
I0
sba(iArchitecture
Entity
p755
(dp756
g11
(lp757
sg13
S'android.widget.SlidingDrawer$DrawerToggler'
p758
sg15
(lp759
sg17
(lp760
sg19
(lp761
sg21
I0
sba(iArchitecture
Entity
p762
(dp763
g11
(lp764
sg13
S'android.widget.SlidingDrawer$OnDrawerCloseListener'
p765
sg15
(lp766
sg17
(lp767
sg19
(lp768
sg21
I0
sba(iArchitecture
Entity
p769
(dp770
g11
(lp771
sg13
S'android.widget.SlidingDrawer$OnDrawerOpenListener'
p772
sg15
(lp773
sg17
(lp774
sg19
(lp775
sg21
I0
sba(iArchitecture
Entity
p776
(dp777
g11
(lp778
sg13
S'android.widget.SlidingDrawer$OnDrawerScrollListener'
p779
sg15
(lp780
sg17
(lp781
sg19
(lp782
sg21
I0
sba(iArchitecture
Entity
p783
(dp784
g11
(lp785
sg13
S'android.widget.SlidingDrawer$SlidingHandler'
p786
sg15
(lp787
sg17
(lp788
sg19
(lp789
sg21
I0
sbasg232
(lp790
g751
ag758
ag765
ag772
ag779
ag786
asg21
I0
sg234
S'965'
p791
sba(iArchitecture
Cluster
p792
(dp793
g7
(lp794
(iArchitecture
Entity
p795
(dp796
g11
(lp797
sg13
S'com.android.internal.util.AsyncChannel'
p798
sg15
(lp799
sg17
(lp800
sg19
(lp801
sg21
I0
sba(iArchitecture
Entity
p802
(dp803
g11
(lp804
sg13
S'com.android.internal.util.AsyncChannel$1ConnectAsync'
p805
sg15
(lp806
sg17
(lp807
sg19
(lp808
sg21
I0
sba(iArchitecture
Entity
p809
(dp810
g11
(lp811
sg13
S'com.android.internal.util.AsyncChannel$AsyncChannelConnection'
p812
sg15
(lp813
sg17
(lp814
sg19
(lp815
sg21
I0
sba(iArchitecture
Entity
p816
(dp817
g11
(lp818
sg13
S'com.android.internal.util.AsyncChannel$DeathMonitor'
p819
sg15
(lp820
sg17
(lp821
sg19
(lp822
sg21
I0
sba(iArchitecture
Entity
p823
(dp824
g11
(lp825
sg13
S'com.android.internal.util.AsyncChannel$SyncMessenger'
p826
sg15
(lp827
sg17
(lp828
sg19
(lp829
sg21
I0
sba(iArchitecture
Entity
p830
(dp831
g11
(lp832
sg13
S'com.android.internal.util.AsyncChannel$SyncMessenger$SyncHandler'
p833
sg15
(lp834
sg17
(lp835
sg19
(lp836
sg21
I0
sbasg232
(lp837
g798
ag805
ag812
ag819
ag826
ag833
asg21
I0
sg234
S'966'
p838
sba(iArchitecture
Cluster
p839
(dp840
g7
(lp841
(iArchitecture
Entity
p842
(dp843
g11
(lp844
sg13
S'com.android.server.hdmi.HdmiCecStandbyModeHandler'
p845
sg15
(lp846
sg17
(lp847
sg19
(lp848
sg21
I0
sba(iArchitecture
Entity
p849
(dp850
g11
(lp851
sg13
S'com.android.server.hdmi.HdmiCecStandbyModeHandler$Aborter'
p852
sg15
(lp853
sg17
(lp854
sg19
(lp855
sg21
I0
sba(iArchitecture
Entity
p856
(dp857
g11
(lp858
sg13
S'com.android.server.hdmi.HdmiCecStandbyModeHandler$AutoOnHandler'
p859
sg15
(lp860
sg17
(lp861
sg19
(lp862
sg21
I0
sba(iArchitecture
Entity
p863
(dp864
g11
(lp865
sg13
S'com.android.server.hdmi.HdmiCecStandbyModeHandler$Bypasser'
p866
sg15
(lp867
sg17
(lp868
sg19
(lp869
sg21
I0
sba(iArchitecture
Entity
p870
(dp871
g11
(lp872
sg13
S'com.android.server.hdmi.HdmiCecStandbyModeHandler$Bystander'
p873
sg15
(lp874
sg17
(lp875
sg19
(lp876
sg21
I0
sba(iArchitecture
Entity
p877
(dp878
g11
(lp879
sg13
S'com.android.server.hdmi.HdmiCecStandbyModeHandler$CecMessageHandler'
p880
sg15
(lp881
sg17
(lp882
sg19
(lp883
sg21
I0
sba(iArchitecture
Entity
p884
(dp885
g11
(lp886
sg13
S'com.android.server.hdmi.HdmiCecStandbyModeHandler$UserControlProcessedHandler'
p887
sg15
(lp888
sg17
(lp889
sg19
(lp890
sg21
I0
sbasg232
(lp891
g845
ag852
ag859
ag866
ag873
ag880
ag887
asg21
I0
sg234
S'967'
p892
sba(iArchitecture
Cluster
p893
(dp894
g7
(lp895
(iArchitecture
Entity
p896
(dp897
g11
(lp898
sg13
S'com.android.server.MmsServiceBroker'
p899
sg15
(lp900
sg17
(lp901
sg19
(lp902
sg21
I0
sba(iArchitecture
Entity
p903
(dp904
g11
(lp905
sg13
S'com.android.server.MmsServiceBroker$1'
p906
sg15
(lp907
sg17
(lp908
sg19
(lp909
sg21
I0
sba(iArchitecture
Entity
p910
(dp911
g11
(lp912
sg13
S'com.android.server.MmsServiceBroker$2'
p913
sg15
(lp914
sg17
(lp915
sg19
(lp916
sg21
I0
sba(iArchitecture
Entity
p917
(dp918
g11
(lp919
sg13
S'com.android.server.MmsServiceBroker$3'
p920
sg15
(lp921
sg17
(lp922
sg19
(lp923
sg21
I0
sba(iArchitecture
Entity
p924
(dp925
g11
(lp926
sg13
S'com.android.server.MmsServiceBroker$BinderService'
p927
sg15
(lp928
sg17
(lp929
sg19
(lp930
sg21
I0
sbasg232
(lp931
g899
ag906
ag913
ag920
ag927
asg21
I0
sg234
S'968'
p932
sba(iArchitecture
Cluster
p933
(dp934
g7
(lp935
(iArchitecture
Entity
p936
(dp937
g11
(lp938
sg13
S'com.android.server.search.SearchManagerService'
p939
sg15
(lp940
sg17
(lp941
sg19
(lp942
sg21
I0
sba(iArchitecture
Entity
p943
(dp944
g11
(lp945
sg13
S'com.android.server.search.SearchManagerService$BootCompletedReceiver'
p946
sg15
(lp947
sg17
(lp948
sg19
(lp949
sg21
I0
sba(iArchitecture
Entity
p950
(dp951
g11
(lp952
sg13
S'com.android.server.search.SearchManagerService$BootCompletedReceiver$1'
p953
sg15
(lp954
sg17
(lp955
sg19
(lp956
sg21
I0
sba(iArchitecture
Entity
p957
(dp958
g11
(lp959
sg13
S'com.android.server.search.SearchManagerService$GlobalSearchProviderObserver'
p960
sg15
(lp961
sg17
(lp962
sg19
(lp963
sg21
I0
sba(iArchitecture
Entity
p964
(dp965
g11
(lp966
sg13
S'com.android.server.search.SearchManagerService$MyPackageMonitor'
p967
sg15
(lp968
sg17
(lp969
sg19
(lp970
sg21
I0
sba(iArchitecture
Entity
p971
(dp972
g11
(lp973
sg13
S'com.android.server.search.SearchManagerService$UserReceiver'
p974
sg15
(lp975
sg17
(lp976
sg19
(lp977
sg21
I0
sbasg232
(lp978
g939
ag946
ag953
ag960
ag967
ag974
asg21
I0
sg234
S'969'
p979
sba(iArchitecture
Cluster
p980
(dp981
g7
(lp982
(iArchitecture
Entity
p983
(dp984
g11
(lp985
sg13
S'com.android.server.am.TaskPersister'
p986
sg15
(lp987
sg17
(lp988
sg19
(lp989
sg21
I0
sba(iArchitecture
Entity
p990
(dp991
g11
(lp992
sg13
S'com.android.server.am.TaskPersister$1'
p993
sg15
(lp994
sg17
(lp995
sg19
(lp996
sg21
I0
sba(iArchitecture
Entity
p997
(dp998
g11
(lp999
sg13
S'com.android.server.am.TaskPersister$ImageWriteQueueItem'
p1000
sg15
(lp1001
sg17
(lp1002
sg19
(lp1003
sg21
I0
sba(iArchitecture
Entity
p1004
(dp1005
g11
(lp1006
sg13
S'com.android.server.am.TaskPersister$LazyTaskWriterThread'
p1007
sg15
(lp1008
sg17
(lp1009
sg19
(lp1010
sg21
I0
sba(iArchitecture
Entity
p1011
(dp1012
g11
(lp1013
sg13
S'com.android.server.am.TaskPersister$TaskWriteQueueItem'
p1014
sg15
(lp1015
sg17
(lp1016
sg19
(lp1017
sg21
I0
sba(iArchitecture
Entity
p1018
(dp1019
g11
(lp1020
sg13
S'com.android.server.am.TaskPersister$WriteQueueItem'
p1021
sg15
(lp1022
sg17
(lp1023
sg19
(lp1024
sg21
I0
sbasg232
(lp1025
g986
ag993
ag1000
ag1007
ag1014
ag1021
asg21
I0
sg234
S'996'
p1026
sbasS'target_sub'
p1027
S'96'
p1028
sg232
(lp1029
sS'is_component_arch'
p1030
I01
sg234
S'6.0.0_r1'
p1031
sba.