(lp0
(iArchitecture
Architecture
p1
(dp2
S'clusters'
p3
(lp4
(iArchitecture
Cluster
p5
(dp6
S'entities'
p7
(lp8
(iArchitecture
Entity
p9
(dp10
S'issue_ids'
p11
(lp12
sS'name'
p13
S'com.google.android.util.AbstractMessageParser'
p14
sS'descs'
p15
(lp16
sS'labels'
p17
(lp18
sS'titles'
p19
(lp20
sS'change'
p21
I0
sba(iArchitecture
Entity
p22
(dp23
g11
(lp24
sg13
S'com.google.android.util.AbstractMessageParser$Acronym'
p25
sg15
(lp26
sg17
(lp27
sg19
(lp28
sg21
I0
sba(iArchitecture
Entity
p29
(dp30
g11
(lp31
sg13
S'com.google.android.util.AbstractMessageParser$FlickrPhoto'
p32
sg15
(lp33
sg17
(lp34
sg19
(lp35
sg21
I0
sba(iArchitecture
Entity
p36
(dp37
g11
(lp38
sg13
S'com.google.android.util.AbstractMessageParser$Format'
p39
sg15
(lp40
sg17
(lp41
sg19
(lp42
sg21
I0
sba(iArchitecture
Entity
p43
(dp44
g11
(lp45
sg13
S'com.google.android.util.AbstractMessageParser$Html'
p46
sg15
(lp47
sg17
(lp48
sg19
(lp49
sg21
I0
sba(iArchitecture
Entity
p50
(dp51
g11
(lp52
sg13
S'com.google.android.util.AbstractMessageParser$Link'
p53
sg15
(lp54
sg17
(lp55
sg19
(lp56
sg21
I0
sba(iArchitecture
Entity
p57
(dp58
g11
(lp59
sg13
S'com.google.android.util.AbstractMessageParser$MusicTrack'
p60
sg15
(lp61
sg17
(lp62
sg19
(lp63
sg21
I0
sba(iArchitecture
Entity
p64
(dp65
g11
(lp66
sg13
S'com.google.android.util.AbstractMessageParser$Part'
p67
sg15
(lp68
sg17
(lp69
sg19
(lp70
sg21
I0
sba(iArchitecture
Entity
p71
(dp72
g11
(lp73
sg13
S'com.google.android.util.AbstractMessageParser$Photo'
p74
sg15
(lp75
sg17
(lp76
sg19
(lp77
sg21
I0
sba(iArchitecture
Entity
p78
(dp79
g11
(lp80
sg13
S'com.google.android.util.AbstractMessageParser$Resources'
p81
sg15
(lp82
sg17
(lp83
sg19
(lp84
sg21
I0
sba(iArchitecture
Entity
p85
(dp86
g11
(lp87
sg13
S'com.google.android.util.AbstractMessageParser$Smiley'
p88
sg15
(lp89
sg17
(lp90
sg19
(lp91
sg21
I0
sba(iArchitecture
Entity
p92
(dp93
g11
(lp94
sg13
S'com.google.android.util.AbstractMessageParser$Token'
p95
sg15
(lp96
sg17
(lp97
sg19
(lp98
sg21
I0
sba(iArchitecture
Entity
p99
(dp100
g11
(lp101
sg13
S'com.google.android.util.AbstractMessageParser$Token$Type'
p102
sg15
(lp103
sg17
(lp104
sg19
(lp105
sg21
I0
sba(iArchitecture
Entity
p106
(dp107
g11
(lp108
sg13
S'com.google.android.util.AbstractMessageParser$TrieNode'
p109
sg15
(lp110
sg17
(lp111
sg19
(lp112
sg21
I0
sba(iArchitecture
Entity
p113
(dp114
g11
(lp115
sg13
S'com.google.android.util.AbstractMessageParser$Video'
p116
sg15
(lp117
sg17
(lp118
sg19
(lp119
sg21
I0
sba(iArchitecture
Entity
p120
(dp121
g11
(lp122
sg13
S'com.google.android.util.AbstractMessageParser$YouTubeVideo'
p123
sg15
(lp124
sg17
(lp125
sg19
(lp126
sg21
I0
sbasS'classes'
p127
(lp128
g14
ag25
ag32
ag39
ag46
ag53
ag60
ag67
ag74
ag81
ag88
ag95
ag102
ag109
ag116
ag123
asg21
I0
sS'label'
p129
S'1085'
p130
sba(iArchitecture
Cluster
p131
(dp132
g7
(lp133
(iArchitecture
Entity
p134
(dp135
g11
(lp136
sg13
S'android.graphics.drawable.AnimatedRotateDrawable'
p137
sg15
(lp138
sg17
(lp139
sg19
(lp140
sg21
I0
sba(iArchitecture
Entity
p141
(dp142
g11
(lp143
sg13
S'android.graphics.drawable.AnimatedRotateDrawable$1'
p144
sg15
(lp145
sg17
(lp146
sg19
(lp147
sg21
I0
sba(iArchitecture
Entity
p148
(dp149
g11
(lp150
sg13
S'android.graphics.drawable.AnimatedRotateDrawable$AnimatedRotateState'
p151
sg15
(lp152
sg17
(lp153
sg19
(lp154
sg21
I0
sba(iArchitecture
Entity
p155
(dp156
g11
(lp157
sg13
S'android.util.StateSet'
p158
sg15
(lp159
sg17
(lp160
sg19
(lp161
sg21
I0
sbasg127
(lp162
g137
ag144
ag151
ag158
asg21
I0
sg129
S'1185'
p163
sba(iArchitecture
Cluster
p164
(dp165
g7
(lp166
(iArchitecture
Entity
p167
(dp168
g11
(lp169
sg13
S'android.util.TimingLogger'
p170
sg15
(lp171
sg17
(lp172
sg19
(lp173
sg21
I0
sbasg127
(lp174
g170
asg21
I0
sg129
S'185'
p175
sba(iArchitecture
Cluster
p176
(dp177
g7
(lp178
(iArchitecture
Entity
p179
(dp180
g11
(lp181
sg13
S'android.accounts.AccountManagerFuture'
p182
sg15
(lp183
sg17
(lp184
sg19
(lp185
sg21
I0
sbasg127
(lp186
g182
asg21
I0
sg129
S'285'
p187
sba(iArchitecture
Cluster
p188
(dp189
g7
(lp190
(iArchitecture
Entity
p191
(dp192
g11
(lp193
sg13
S'android.webkit.WebHistoryItem'
p194
sg15
(lp195
sg17
(lp196
sg19
(lp197
sg21
I0
sbasg127
(lp198
g194
asg21
I0
sg129
S'385'
p199
sba(iArchitecture
Cluster
p200
(dp201
g7
(lp202
(iArchitecture
Entity
p203
(dp204
g11
(lp205
sg13
S'android.provider.UserDictionary'
p206
sg15
(lp207
sg17
(lp208
sg19
(lp209
sg21
I0
sba(iArchitecture
Entity
p210
(dp211
g11
(lp212
sg13
S'android.provider.UserDictionary$Words'
p213
sg15
(lp214
sg17
(lp215
sg19
(lp216
sg21
I0
sbasg127
(lp217
g206
ag213
asg21
I0
sg129
S'485'
p218
sba(iArchitecture
Cluster
p219
(dp220
g7
(lp221
(iArchitecture
Entity
p222
(dp223
g11
(lp224
sg13
S'android.net.wifi.SupplicantState'
p225
sg15
(lp226
sg17
(lp227
sg19
(lp228
sg21
I0
sba(iArchitecture
Entity
p229
(dp230
g11
(lp231
sg13
S'android.net.wifi.SupplicantState$1'
p232
sg15
(lp233
sg17
(lp234
sg19
(lp235
sg21
I0
sbasg127
(lp236
g225
ag232
asg21
I0
sg129
S'585'
p237
sba(iArchitecture
Cluster
p238
(dp239
g7
(lp240
(iArchitecture
Entity
p241
(dp242
g11
(lp243
sg13
S'com.android.internal.http.HttpDateTime'
p244
sg15
(lp245
sg17
(lp246
sg19
(lp247
sg21
I0
sba(iArchitecture
Entity
p248
(dp249
g11
(lp250
sg13
S'com.android.internal.http.HttpDateTime$TimeOfDay'
p251
sg15
(lp252
sg17
(lp253
sg19
(lp254
sg21
I0
sbasg127
(lp255
g244
ag251
asg21
I0
sg129
S'685'
p256
sba(iArchitecture
Cluster
p257
(dp258
g7
(lp259
(iArchitecture
Entity
p260
(dp261
g11
(lp262
sg13
S'android.view.ViewOutlineProvider'
p263
sg15
(lp264
sg17
(lp265
sg19
(lp266
sg21
I0
sba(iArchitecture
Entity
p267
(dp268
g11
(lp269
sg13
S'android.view.ViewOutlineProvider$1'
p270
sg15
(lp271
sg17
(lp272
sg19
(lp273
sg21
I0
sba(iArchitecture
Entity
p274
(dp275
g11
(lp276
sg13
S'android.view.ViewOutlineProvider$2'
p277
sg15
(lp278
sg17
(lp279
sg19
(lp280
sg21
I0
sba(iArchitecture
Entity
p281
(dp282
g11
(lp283
sg13
S'android.view.ViewOutlineProvider$3'
p284
sg15
(lp285
sg17
(lp286
sg19
(lp287
sg21
I0
sbasg127
(lp288
g263
ag270
ag277
ag284
asg21
I0
sg129
S'785'
p289
sba(iArchitecture
Cluster
p290
(dp291
g7
(lp292
(iArchitecture
Entity
p293
(dp294
g11
(lp295
sg13
S'android.telephony.CarrierConfigManager'
p296
sg15
(lp297
sg17
(lp298
sg19
(lp299
sg21
I0
sbasg127
(lp300
g296
asg21
I0
sg129
S'85'
p301
sba(iArchitecture
Cluster
p302
(dp303
g7
(lp304
(iArchitecture
Entity
p305
(dp306
g11
(lp307
sg13
S'android.webkit.JsDialogHelper'
p308
sg15
(lp309
sg17
(lp310
sg19
(lp311
sg21
I0
sba(iArchitecture
Entity
p312
(dp313
g11
(lp314
sg13
S'android.webkit.JsDialogHelper$CancelListener'
p315
sg15
(lp316
sg17
(lp317
sg19
(lp318
sg21
I0
sba(iArchitecture
Entity
p319
(dp320
g11
(lp321
sg13
S'android.webkit.JsDialogHelper$PositiveListener'
p322
sg15
(lp323
sg17
(lp324
sg19
(lp325
sg21
I0
sbasg127
(lp326
g308
ag315
ag322
asg21
I0
sg129
S'850'
p327
sba(iArchitecture
Cluster
p328
(dp329
g7
(lp330
(iArchitecture
Entity
p331
(dp332
g11
(lp333
sg13
S'android.text.Html'
p334
sg15
(lp335
sg17
(lp336
sg19
(lp337
sg21
I0
sba(iArchitecture
Entity
p338
(dp339
g11
(lp340
sg13
S'android.text.Html$HtmlParser'
p341
sg15
(lp342
sg17
(lp343
sg19
(lp344
sg21
I0
sba(iArchitecture
Entity
p345
(dp346
g11
(lp347
sg13
S'android.text.Html$ImageGetter'
p348
sg15
(lp349
sg17
(lp350
sg19
(lp351
sg21
I0
sba(iArchitecture
Entity
p352
(dp353
g11
(lp354
sg13
S'android.text.Html$TagHandler'
p355
sg15
(lp356
sg17
(lp357
sg19
(lp358
sg21
I0
sbasg127
(lp359
g334
ag341
ag348
ag355
asg21
I0
sg129
S'851'
p360
sba(iArchitecture
Cluster
p361
(dp362
g7
(lp363
(iArchitecture
Entity
p364
(dp365
g11
(lp366
sg13
S'android.graphics.Canvas'
p367
sg15
(lp368
sg17
(lp369
sg19
(lp370
sg21
I0
sba(iArchitecture
Entity
p371
(dp372
g11
(lp373
sg13
S'android.graphics.Canvas$CanvasFinalizer'
p374
sg15
(lp375
sg17
(lp376
sg19
(lp377
sg21
I0
sba(iArchitecture
Entity
p378
(dp379
g11
(lp380
sg13
S'android.graphics.Canvas$EdgeType'
p381
sg15
(lp382
sg17
(lp383
sg19
(lp384
sg21
I0
sba(iArchitecture
Entity
p385
(dp386
g11
(lp387
sg13
S'android.graphics.Canvas$VertexMode'
p388
sg15
(lp389
sg17
(lp390
sg19
(lp391
sg21
I0
sbasg127
(lp392
g367
ag374
ag381
ag388
asg21
I0
sg129
S'852'
p393
sba(iArchitecture
Cluster
p394
(dp395
g7
(lp396
(iArchitecture
Entity
p397
(dp398
g11
(lp399
sg13
S'android.graphics.Path'
p400
sg15
(lp401
sg17
(lp402
sg19
(lp403
sg21
I0
sba(iArchitecture
Entity
p404
(dp405
g11
(lp406
sg13
S'android.graphics.Path$Direction'
p407
sg15
(lp408
sg17
(lp409
sg19
(lp410
sg21
I0
sba(iArchitecture
Entity
p411
(dp412
g11
(lp413
sg13
S'android.graphics.Path$FillType'
p414
sg15
(lp415
sg17
(lp416
sg19
(lp417
sg21
I0
sba(iArchitecture
Entity
p418
(dp419
g11
(lp420
sg13
S'android.graphics.Path$Op'
p421
sg15
(lp422
sg17
(lp423
sg19
(lp424
sg21
I0
sbasg127
(lp425
g400
ag407
ag414
ag421
asg21
I0
sg129
S'853'
p426
sba(iArchitecture
Cluster
p427
(dp428
g7
(lp429
(iArchitecture
Entity
p430
(dp431
g11
(lp432
sg13
S'android.provider.SyncStateContract'
p433
sg15
(lp434
sg17
(lp435
sg19
(lp436
sg21
I0
sba(iArchitecture
Entity
p437
(dp438
g11
(lp439
sg13
S'android.provider.SyncStateContract$Columns'
p440
sg15
(lp441
sg17
(lp442
sg19
(lp443
sg21
I0
sba(iArchitecture
Entity
p444
(dp445
g11
(lp446
sg13
S'android.provider.SyncStateContract$Constants'
p447
sg15
(lp448
sg17
(lp449
sg19
(lp450
sg21
I0
sba(iArchitecture
Entity
p451
(dp452
g11
(lp453
sg13
S'android.provider.SyncStateContract$Helpers'
p454
sg15
(lp455
sg17
(lp456
sg19
(lp457
sg21
I0
sbasg127
(lp458
g433
ag440
ag447
ag454
asg21
I0
sg129
S'854'
p459
sba(iArchitecture
Cluster
p460
(dp461
g7
(lp462
(iArchitecture
Entity
p463
(dp464
g11
(lp465
sg13
S'android.graphics.drawable.RippleBackground'
p466
sg15
(lp467
sg17
(lp468
sg19
(lp469
sg21
I0
sba(iArchitecture
Entity
p470
(dp471
g11
(lp472
sg13
S'android.graphics.drawable.RippleBackground$1'
p473
sg15
(lp474
sg17
(lp475
sg19
(lp476
sg21
I0
sba(iArchitecture
Entity
p477
(dp478
g11
(lp479
sg13
S'android.graphics.drawable.RippleBackground$BackgroundProperty'
p480
sg15
(lp481
sg17
(lp482
sg19
(lp483
sg21
I0
sbasg127
(lp484
g466
ag473
ag480
asg21
I0
sg129
S'855'
p485
sba(iArchitecture
Cluster
p486
(dp487
g7
(lp488
(iArchitecture
Entity
p489
(dp490
g11
(lp491
sg13
S'android.media.Utils'
p492
sg15
(lp493
sg17
(lp494
sg19
(lp495
sg21
I0
sba(iArchitecture
Entity
p496
(dp497
g11
(lp498
sg13
S'android.media.Utils$1'
p499
sg15
(lp500
sg17
(lp501
sg19
(lp502
sg21
I0
sba(iArchitecture
Entity
p503
(dp504
g11
(lp505
sg13
S'android.media.Utils$2'
p506
sg15
(lp507
sg17
(lp508
sg19
(lp509
sg21
I0
sbasg127
(lp510
g492
ag499
ag506
asg21
I0
sg129
S'856'
p511
sba(iArchitecture
Cluster
p512
(dp513
g7
(lp514
(iArchitecture
Entity
p515
(dp516
g11
(lp517
sg13
S'android.content.Loader'
p518
sg15
(lp519
sg17
(lp520
sg19
(lp521
sg21
I0
sba(iArchitecture
Entity
p522
(dp523
g11
(lp524
sg13
S'android.content.Loader$ForceLoadContentObserver'
p525
sg15
(lp526
sg17
(lp527
sg19
(lp528
sg21
I0
sba(iArchitecture
Entity
p529
(dp530
g11
(lp531
sg13
S'android.content.Loader$OnLoadCanceledListener'
p532
sg15
(lp533
sg17
(lp534
sg19
(lp535
sg21
I0
sba(iArchitecture
Entity
p536
(dp537
g11
(lp538
sg13
S'android.content.Loader$OnLoadCompleteListener'
p539
sg15
(lp540
sg17
(lp541
sg19
(lp542
sg21
I0
sbasg127
(lp543
g518
ag525
ag532
ag539
asg21
I0
sg129
S'857'
p544
sba(iArchitecture
Cluster
p545
(dp546
g7
(lp547
(iArchitecture
Entity
p548
(dp549
g11
(lp550
sg13
S'android.location.CountryDetector'
p551
sg15
(lp552
sg17
(lp553
sg19
(lp554
sg21
I0
sba(iArchitecture
Entity
p555
(dp556
g11
(lp557
sg13
S'android.location.CountryDetector$ListenerTransport'
p558
sg15
(lp559
sg17
(lp560
sg19
(lp561
sg21
I0
sba(iArchitecture
Entity
p562
(dp563
g11
(lp564
sg13
S'android.location.CountryDetector$ListenerTransport$1'
p565
sg15
(lp566
sg17
(lp567
sg19
(lp568
sg21
I0
sbasg127
(lp569
g551
ag558
ag565
asg21
I0
sg129
S'858'
p570
sba(iArchitecture
Cluster
p571
(dp572
g7
(lp573
(iArchitecture
Entity
p574
(dp575
g11
(lp576
sg13
S'com.android.internal.widget.LockPatternUtils'
p577
sg15
(lp578
sg17
(lp579
sg19
(lp580
sg21
I0
sba(iArchitecture
Entity
p581
(dp582
g11
(lp583
sg13
S'com.android.internal.widget.LockPatternUtils$1'
p584
sg15
(lp585
sg17
(lp586
sg19
(lp587
sg21
I0
sba(iArchitecture
Entity
p588
(dp589
g11
(lp590
sg13
S'com.android.internal.widget.LockPatternUtils$RequestThrottledException'
p591
sg15
(lp592
sg17
(lp593
sg19
(lp594
sg21
I0
sbasg127
(lp595
g577
ag584
ag591
asg21
I0
sg129
S'859'
p596
sba(iArchitecture
Cluster
p597
(dp598
g7
(lp599
(iArchitecture
Entity
p600
(dp601
g11
(lp602
sg13
S'com.android.server.lights.LightsService'
p603
sg15
(lp604
sg17
(lp605
sg19
(lp606
sg21
I0
sba(iArchitecture
Entity
p607
(dp608
g11
(lp609
sg13
S'com.android.server.lights.LightsService$1'
p610
sg15
(lp611
sg17
(lp612
sg19
(lp613
sg21
I0
sba(iArchitecture
Entity
p614
(dp615
g11
(lp616
sg13
S'com.android.server.lights.LightsService$2'
p617
sg15
(lp618
sg17
(lp619
sg19
(lp620
sg21
I0
sba(iArchitecture
Entity
p621
(dp622
g11
(lp623
sg13
S'com.android.server.lights.LightsService$LightImpl'
p624
sg15
(lp625
sg17
(lp626
sg19
(lp627
sg21
I0
sbasg127
(lp628
g603
ag610
ag617
ag624
asg21
I0
sg129
S'885'
p629
sba(iArchitecture
Cluster
p630
(dp631
g7
(lp632
(iArchitecture
Entity
p633
(dp634
g11
(lp635
sg13
S'android.bluetooth.le.BluetoothLeScanner'
p636
sg15
(lp637
sg17
(lp638
sg19
(lp639
sg21
I0
sba(iArchitecture
Entity
p640
(dp641
g11
(lp642
sg13
S'android.bluetooth.le.BluetoothLeScanner$1'
p643
sg15
(lp644
sg17
(lp645
sg19
(lp646
sg21
I0
sba(iArchitecture
Entity
p647
(dp648
g11
(lp649
sg13
S'android.bluetooth.le.BluetoothLeScanner$BleScanCallbackWrapper'
p650
sg15
(lp651
sg17
(lp652
sg19
(lp653
sg21
I0
sba(iArchitecture
Entity
p654
(dp655
g11
(lp656
sg13
S'android.bluetooth.le.BluetoothLeScanner$BleScanCallbackWrapper$1'
p657
sg15
(lp658
sg17
(lp659
sg19
(lp660
sg21
I0
sba(iArchitecture
Entity
p661
(dp662
g11
(lp663
sg13
S'android.bluetooth.le.BluetoothLeScanner$BleScanCallbackWrapper$2'
p664
sg15
(lp665
sg17
(lp666
sg19
(lp667
sg21
I0
sba(iArchitecture
Entity
p668
(dp669
g11
(lp670
sg13
S'android.bluetooth.le.BluetoothLeScanner$BleScanCallbackWrapper$3'
p671
sg15
(lp672
sg17
(lp673
sg19
(lp674
sg21
I0
sbasg127
(lp675
g636
ag643
ag650
ag657
ag664
ag671
asg21
I0
sg129
S'985'
p676
sbasS'target_sub'
p677
S'85'
p678
sg127
(lp679
sS'is_component_arch'
p680
I01
sg129
S'6.0.0_r1'
p681
sba.