(lp0
(iArchitecture
Architecture
p1
(dp2
S'clusters'
p3
(lp4
(iArchitecture
Cluster
p5
(dp6
S'entities'
p7
(lp8
(iArchitecture
Entity
p9
(dp10
S'issue_ids'
p11
(lp12
sS'name'
p13
S'com.android.server.content.SyncStorageEngine'
p14
sS'descs'
p15
(lp16
sS'labels'
p17
(lp18
sS'titles'
p19
(lp20
sS'change'
p21
I0
sba(iArchitecture
Entity
p22
(dp23
g11
(lp24
sg13
S'com.android.server.content.SyncStorageEngine$AccountInfo'
p25
sg15
(lp26
sg17
(lp27
sg19
(lp28
sg21
I0
sba(iArchitecture
Entity
p29
(dp30
g11
(lp31
sg13
S'com.android.server.content.SyncStorageEngine$AuthorityInfo'
p32
sg15
(lp33
sg17
(lp34
sg19
(lp35
sg21
I0
sba(iArchitecture
Entity
p36
(dp37
g11
(lp38
sg13
S'com.android.server.content.SyncStorageEngine$DayStats'
p39
sg15
(lp40
sg17
(lp41
sg19
(lp42
sg21
I0
sba(iArchitecture
Entity
p43
(dp44
g11
(lp45
sg13
S'com.android.server.content.SyncStorageEngine$EndPoint'
p46
sg15
(lp47
sg17
(lp48
sg19
(lp49
sg21
I0
sba(iArchitecture
Entity
p50
(dp51
g11
(lp52
sg13
S'com.android.server.content.SyncStorageEngine$OnSyncRequestListener'
p53
sg15
(lp54
sg17
(lp55
sg19
(lp56
sg21
I0
sba(iArchitecture
Entity
p57
(dp58
g11
(lp59
sg13
S'com.android.server.content.SyncStorageEngine$PendingOperation'
p60
sg15
(lp61
sg17
(lp62
sg19
(lp63
sg21
I0
sba(iArchitecture
Entity
p64
(dp65
g11
(lp66
sg13
S'com.android.server.content.SyncStorageEngine$SyncHistoryItem'
p67
sg15
(lp68
sg17
(lp69
sg19
(lp70
sg21
I0
sbasS'classes'
p71
(lp72
g14
ag25
ag32
ag39
ag46
ag53
ag60
ag67
asg21
I0
sS'label'
p73
S'1040'
p74
sba(iArchitecture
Cluster
p75
(dp76
g7
(lp77
(iArchitecture
Entity
p78
(dp79
g11
(lp80
sg13
S'android.renderscript.ProgramFragment'
p81
sg15
(lp82
sg17
(lp83
sg19
(lp84
sg21
I0
sba(iArchitecture
Entity
p85
(dp86
g11
(lp87
sg13
S'android.renderscript.ProgramFragment$Builder'
p88
sg15
(lp89
sg17
(lp90
sg19
(lp91
sg21
I0
sba(iArchitecture
Entity
p92
(dp93
g11
(lp94
sg13
S'android.renderscript.ProgramFragmentFixedFunction'
p95
sg15
(lp96
sg17
(lp97
sg19
(lp98
sg21
I0
sba(iArchitecture
Entity
p99
(dp100
g11
(lp101
sg13
S'android.renderscript.ProgramFragmentFixedFunction$Builder'
p102
sg15
(lp103
sg17
(lp104
sg19
(lp105
sg21
I0
sba(iArchitecture
Entity
p106
(dp107
g11
(lp108
sg13
S'android.renderscript.ProgramFragmentFixedFunction$Builder$EnvMode'
p109
sg15
(lp110
sg17
(lp111
sg19
(lp112
sg21
I0
sba(iArchitecture
Entity
p113
(dp114
g11
(lp115
sg13
S'android.renderscript.ProgramFragmentFixedFunction$Builder$Format'
p116
sg15
(lp117
sg17
(lp118
sg19
(lp119
sg21
I0
sba(iArchitecture
Entity
p120
(dp121
g11
(lp122
sg13
S'android.renderscript.ProgramFragmentFixedFunction$Builder$Slot'
p123
sg15
(lp124
sg17
(lp125
sg19
(lp126
sg21
I0
sba(iArchitecture
Entity
p127
(dp128
g11
(lp129
sg13
S'android.renderscript.ProgramFragmentFixedFunction$InternalBuilder'
p130
sg15
(lp131
sg17
(lp132
sg19
(lp133
sg21
I0
sba(iArchitecture
Entity
p134
(dp135
g11
(lp136
sg13
S'android.renderscript.ProgramVertex'
p137
sg15
(lp138
sg17
(lp139
sg19
(lp140
sg21
I0
sba(iArchitecture
Entity
p141
(dp142
g11
(lp143
sg13
S'android.renderscript.ProgramVertex$Builder'
p144
sg15
(lp145
sg17
(lp146
sg19
(lp147
sg21
I0
sba(iArchitecture
Entity
p148
(dp149
g11
(lp150
sg13
S'android.renderscript.ProgramVertexFixedFunction'
p151
sg15
(lp152
sg17
(lp153
sg19
(lp154
sg21
I0
sba(iArchitecture
Entity
p155
(dp156
g11
(lp157
sg13
S'android.renderscript.ProgramVertexFixedFunction$Builder'
p158
sg15
(lp159
sg17
(lp160
sg19
(lp161
sg21
I0
sba(iArchitecture
Entity
p162
(dp163
g11
(lp164
sg13
S'android.renderscript.ProgramVertexFixedFunction$Constants'
p165
sg15
(lp166
sg17
(lp167
sg19
(lp168
sg21
I0
sba(iArchitecture
Entity
p169
(dp170
g11
(lp171
sg13
S'android.renderscript.ProgramVertexFixedFunction$InternalBuilder'
p172
sg15
(lp173
sg17
(lp174
sg19
(lp175
sg21
I0
sbasg71
(lp176
g81
ag88
ag95
ag102
ag109
ag116
ag123
ag130
ag137
ag144
ag151
ag158
ag165
ag172
asg21
I0
sg73
S'1140'
p177
sba(iArchitecture
Cluster
p178
(dp179
g7
(lp180
(iArchitecture
Entity
p181
(dp182
g11
(lp183
sg13
S'android.app.StatusBarManager'
p184
sg15
(lp185
sg17
(lp186
sg19
(lp187
sg21
I0
sba(iArchitecture
Entity
p188
(dp189
g11
(lp190
sg13
S'android.preference.PreferenceFragment'
p191
sg15
(lp192
sg17
(lp193
sg19
(lp194
sg21
I0
sba(iArchitecture
Entity
p195
(dp196
g11
(lp197
sg13
S'android.preference.PreferenceFragment$1'
p198
sg15
(lp199
sg17
(lp200
sg19
(lp201
sg21
I0
sba(iArchitecture
Entity
p202
(dp203
g11
(lp204
sg13
S'android.preference.PreferenceFragment$2'
p205
sg15
(lp206
sg17
(lp207
sg19
(lp208
sg21
I0
sba(iArchitecture
Entity
p209
(dp210
g11
(lp211
sg13
S'android.preference.PreferenceFragment$3'
p212
sg15
(lp213
sg17
(lp214
sg19
(lp215
sg21
I0
sba(iArchitecture
Entity
p216
(dp217
g11
(lp218
sg13
S'android.preference.PreferenceFragment$OnPreferenceStartFragmentCallback'
p219
sg15
(lp220
sg17
(lp221
sg19
(lp222
sg21
I0
sba(iArchitecture
Entity
p223
(dp224
g11
(lp225
sg13
S'android.preference.PreferenceScreen'
p226
sg15
(lp227
sg17
(lp228
sg19
(lp229
sg21
I0
sba(iArchitecture
Entity
p230
(dp231
g11
(lp232
sg13
S'android.preference.PreferenceScreen$SavedState'
p233
sg15
(lp234
sg17
(lp235
sg19
(lp236
sg21
I0
sba(iArchitecture
Entity
p237
(dp238
g11
(lp239
sg13
S'android.preference.PreferenceScreen$SavedState$1'
p240
sg15
(lp241
sg17
(lp242
sg19
(lp243
sg21
I0
sba(iArchitecture
Entity
p244
(dp245
g11
(lp246
sg13
S'com.android.server.statusbar.StatusBarManagerService'
p247
sg15
(lp248
sg17
(lp249
sg19
(lp250
sg21
I0
sba(iArchitecture
Entity
p251
(dp252
g11
(lp253
sg13
S'com.android.server.statusbar.StatusBarManagerService$1'
p254
sg15
(lp255
sg17
(lp256
sg19
(lp257
sg21
I0
sba(iArchitecture
Entity
p258
(dp259
g11
(lp260
sg13
S'com.android.server.statusbar.StatusBarManagerService$2'
p261
sg15
(lp262
sg17
(lp263
sg19
(lp264
sg21
I0
sba(iArchitecture
Entity
p265
(dp266
g11
(lp267
sg13
S'com.android.server.statusbar.StatusBarManagerService$3'
p268
sg15
(lp269
sg17
(lp270
sg19
(lp271
sg21
I0
sba(iArchitecture
Entity
p272
(dp273
g11
(lp274
sg13
S'com.android.server.statusbar.StatusBarManagerService$4'
p275
sg15
(lp276
sg17
(lp277
sg19
(lp278
sg21
I0
sba(iArchitecture
Entity
p279
(dp280
g11
(lp281
sg13
S'com.android.server.statusbar.StatusBarManagerService$5'
p282
sg15
(lp283
sg17
(lp284
sg19
(lp285
sg21
I0
sba(iArchitecture
Entity
p286
(dp287
g11
(lp288
sg13
S'com.android.server.statusbar.StatusBarManagerService$DisableRecord'
p289
sg15
(lp290
sg17
(lp291
sg19
(lp292
sg21
I0
sbasg71
(lp293
g184
ag191
ag198
ag205
ag212
ag219
ag226
ag233
ag240
ag247
ag254
ag261
ag268
ag275
ag282
ag289
asg21
I0
sg73
S'1240'
p294
sba(iArchitecture
Cluster
p295
(dp296
g7
(lp297
(iArchitecture
Entity
p298
(dp299
g11
(lp300
sg13
S'android.opengl.GLDebugHelper'
p301
sg15
(lp302
sg17
(lp303
sg19
(lp304
sg21
I0
sbasg71
(lp305
g301
asg21
I0
sg73
S'140'
p306
sba(iArchitecture
Cluster
p307
(dp308
g7
(lp309
(iArchitecture
Entity
p310
(dp311
g11
(lp312
sg13
S'android.bluetooth.BluetoothDevicePicker'
p313
sg15
(lp314
sg17
(lp315
sg19
(lp316
sg21
I0
sbasg71
(lp317
g313
asg21
I0
sg73
S'240'
p318
sba(iArchitecture
Cluster
p319
(dp320
g7
(lp321
(iArchitecture
Entity
p322
(dp323
g11
(lp324
sg13
S'android.security.keystore.ArrayUtils'
p325
sg15
(lp326
sg17
(lp327
sg19
(lp328
sg21
I0
sbasg71
(lp329
g325
asg21
I0
sg73
S'340'
p330
sba(iArchitecture
Cluster
p331
(dp332
g7
(lp333
(iArchitecture
Entity
p334
(dp335
g11
(lp336
sg13
S'com.android.internal.content.PackageHelper'
p337
sg15
(lp338
sg17
(lp339
sg19
(lp340
sg21
I0
sbasg71
(lp341
g337
asg21
I0
sg73
S'40'
p342
sba(iArchitecture
Cluster
p343
(dp344
g7
(lp345
(iArchitecture
Entity
p346
(dp347
g11
(lp348
sg13
S'android.filterfw.core.CachedFrameManager'
p349
sg15
(lp350
sg17
(lp351
sg19
(lp352
sg21
I0
sbasg71
(lp353
g349
asg21
I0
sg73
S'400'
p354
sba(iArchitecture
Cluster
p355
(dp356
g7
(lp357
(iArchitecture
Entity
p358
(dp359
g11
(lp360
sg13
S'android.service.dreams.Sandman'
p361
sg15
(lp362
sg17
(lp363
sg19
(lp364
sg21
I0
sbasg71
(lp365
g361
asg21
I0
sg73
S'401'
p366
sba(iArchitecture
Cluster
p367
(dp368
g7
(lp369
(iArchitecture
Entity
p370
(dp371
g11
(lp372
sg13
S'android.content.CursorLoader'
p373
sg15
(lp374
sg17
(lp375
sg19
(lp376
sg21
I0
sbasg71
(lp377
g373
asg21
I0
sg73
S'402'
p378
sba(iArchitecture
Cluster
p379
(dp380
g7
(lp381
(iArchitecture
Entity
p382
(dp383
g11
(lp384
sg13
S'com.android.server.pm.InstructionSets'
p385
sg15
(lp386
sg17
(lp387
sg19
(lp388
sg21
I0
sbasg71
(lp389
g385
asg21
I0
sg73
S'403'
p390
sba(iArchitecture
Cluster
p391
(dp392
g7
(lp393
(iArchitecture
Entity
p394
(dp395
g11
(lp396
sg13
S'android.webkit.PluginList'
p397
sg15
(lp398
sg17
(lp399
sg19
(lp400
sg21
I0
sbasg71
(lp401
g397
asg21
I0
sg73
S'404'
p402
sba(iArchitecture
Cluster
p403
(dp404
g7
(lp405
(iArchitecture
Entity
p406
(dp407
g11
(lp408
sg13
S'android.os.storage.OnObbStateChangeListener'
p409
sg15
(lp410
sg17
(lp411
sg19
(lp412
sg21
I0
sbasg71
(lp413
g409
asg21
I0
sg73
S'405'
p414
sba(iArchitecture
Cluster
p415
(dp416
g7
(lp417
(iArchitecture
Entity
p418
(dp419
g11
(lp420
sg13
S'android.graphics.Color'
p421
sg15
(lp422
sg17
(lp423
sg19
(lp424
sg21
I0
sbasg71
(lp425
g421
asg21
I0
sg73
S'406'
p426
sba(iArchitecture
Cluster
p427
(dp428
g7
(lp429
(iArchitecture
Entity
p430
(dp431
g11
(lp432
sg13
S'android.graphics.PixelFormat'
p433
sg15
(lp434
sg17
(lp435
sg19
(lp436
sg21
I0
sbasg71
(lp437
g433
asg21
I0
sg73
S'407'
p438
sba(iArchitecture
Cluster
p439
(dp440
g7
(lp441
(iArchitecture
Entity
p442
(dp443
g11
(lp444
sg13
S'android.hardware.camera2.params.Face'
p445
sg15
(lp446
sg17
(lp447
sg19
(lp448
sg21
I0
sbasg71
(lp449
g445
asg21
I0
sg73
S'408'
p450
sba(iArchitecture
Cluster
p451
(dp452
g7
(lp453
(iArchitecture
Entity
p454
(dp455
g11
(lp456
sg13
S'android.provider.AlarmClock'
p457
sg15
(lp458
sg17
(lp459
sg19
(lp460
sg21
I0
sbasg71
(lp461
g457
asg21
I0
sg73
S'409'
p462
sba(iArchitecture
Cluster
p463
(dp464
g7
(lp465
(iArchitecture
Entity
p466
(dp467
g11
(lp468
sg13
S'android.graphics.PaintFlagsDrawFilter'
p469
sg15
(lp470
sg17
(lp471
sg19
(lp472
sg21
I0
sbasg71
(lp473
g469
asg21
I0
sg73
S'440'
p474
sba(iArchitecture
Cluster
p475
(dp476
g7
(lp477
(iArchitecture
Entity
p478
(dp479
g11
(lp480
sg13
S'com.android.server.location.LocationFudger'
p481
sg15
(lp482
sg17
(lp483
sg19
(lp484
sg21
I0
sba(iArchitecture
Entity
p485
(dp486
g11
(lp487
sg13
S'com.android.server.location.LocationFudger$1'
p488
sg15
(lp489
sg17
(lp490
sg19
(lp491
sg21
I0
sbasg71
(lp492
g481
ag488
asg21
I0
sg73
S'540'
p493
sba(iArchitecture
Cluster
p494
(dp495
g7
(lp496
(iArchitecture
Entity
p497
(dp498
g11
(lp499
sg13
S'android.view.textservice.SpellCheckerSubtype'
p500
sg15
(lp501
sg17
(lp502
sg19
(lp503
sg21
I0
sba(iArchitecture
Entity
p504
(dp505
g11
(lp506
sg13
S'android.view.textservice.SpellCheckerSubtype$1'
p507
sg15
(lp508
sg17
(lp509
sg19
(lp510
sg21
I0
sbasg71
(lp511
g500
ag507
asg21
I0
sg73
S'640'
p512
sba(iArchitecture
Cluster
p513
(dp514
g7
(lp515
(iArchitecture
Entity
p516
(dp517
g11
(lp518
sg13
S'android.net.LocalSocketImpl'
p519
sg15
(lp520
sg17
(lp521
sg19
(lp522
sg21
I0
sba(iArchitecture
Entity
p523
(dp524
g11
(lp525
sg13
S'android.net.LocalSocketImpl$SocketInputStream'
p526
sg15
(lp527
sg17
(lp528
sg19
(lp529
sg21
I0
sba(iArchitecture
Entity
p530
(dp531
g11
(lp532
sg13
S'android.net.LocalSocketImpl$SocketOutputStream'
p533
sg15
(lp534
sg17
(lp535
sg19
(lp536
sg21
I0
sbasg71
(lp537
g519
ag526
ag533
asg21
I0
sg73
S'740'
p538
sba(iArchitecture
Cluster
p539
(dp540
g7
(lp541
(iArchitecture
Entity
p542
(dp543
g11
(lp544
sg13
S'android.media.EncoderCapabilities'
p545
sg15
(lp546
sg17
(lp547
sg19
(lp548
sg21
I0
sba(iArchitecture
Entity
p549
(dp550
g11
(lp551
sg13
S'android.media.EncoderCapabilities$AudioEncoderCap'
p552
sg15
(lp553
sg17
(lp554
sg19
(lp555
sg21
I0
sba(iArchitecture
Entity
p556
(dp557
g11
(lp558
sg13
S'android.media.EncoderCapabilities$VideoEncoderCap'
p559
sg15
(lp560
sg17
(lp561
sg19
(lp562
sg21
I0
sbasg71
(lp563
g545
ag552
ag559
asg21
I0
sg73
S'840'
p564
sba(iArchitecture
Cluster
p565
(dp566
g7
(lp567
(iArchitecture
Entity
p568
(dp569
g11
(lp570
sg13
S'android.media.audiofx.Visualizer'
p571
sg15
(lp572
sg17
(lp573
sg19
(lp574
sg21
I0
sba(iArchitecture
Entity
p575
(dp576
g11
(lp577
sg13
S'android.media.audiofx.Visualizer$MeasurementPeakRms'
p578
sg15
(lp579
sg17
(lp580
sg19
(lp581
sg21
I0
sba(iArchitecture
Entity
p582
(dp583
g11
(lp584
sg13
S'android.media.audiofx.Visualizer$NativeEventHandler'
p585
sg15
(lp586
sg17
(lp587
sg19
(lp588
sg21
I0
sba(iArchitecture
Entity
p589
(dp590
g11
(lp591
sg13
S'android.media.audiofx.Visualizer$OnDataCaptureListener'
p592
sg15
(lp593
sg17
(lp594
sg19
(lp595
sg21
I0
sba(iArchitecture
Entity
p596
(dp597
g11
(lp598
sg13
S'android.media.audiofx.Visualizer$OnServerDiedListener'
p599
sg15
(lp600
sg17
(lp601
sg19
(lp602
sg21
I0
sbasg71
(lp603
g571
ag578
ag585
ag592
ag599
asg21
I0
sg73
S'940'
p604
sbasS'target_sub'
p605
S'40'
p606
sg71
(lp607
sS'is_component_arch'
p608
I01
sg73
S'6.0.0_r1'
p609
sba.