(lp0
(iArchitecture
Architecture
p1
(dp2
S'clusters'
p3
(lp4
(iArchitecture
Cluster
p5
(dp6
S'entities'
p7
(lp8
(iArchitecture
Entity
p9
(dp10
S'issue_ids'
p11
(lp12
sS'name'
p13
S'android.app.ActivityView'
p14
sS'descs'
p15
(lp16
sS'labels'
p17
(lp18
sS'titles'
p19
(lp20
sS'change'
p21
I0
sba(iArchitecture
Entity
p22
(dp23
g11
(lp24
sg13
S'android.app.ActivityView$1'
p25
sg15
(lp26
sg17
(lp27
sg19
(lp28
sg21
I0
sba(iArchitecture
Entity
p29
(dp30
g11
(lp31
sg13
S'android.app.ActivityView$ActivityContainerCallback'
p32
sg15
(lp33
sg17
(lp34
sg19
(lp35
sg21
I0
sba(iArchitecture
Entity
p36
(dp37
g11
(lp38
sg13
S'android.app.ActivityView$ActivityContainerCallback$1'
p39
sg15
(lp40
sg17
(lp41
sg19
(lp42
sg21
I0
sba(iArchitecture
Entity
p43
(dp44
g11
(lp45
sg13
S'android.app.ActivityView$ActivityContainerWrapper'
p46
sg15
(lp47
sg17
(lp48
sg19
(lp49
sg21
I0
sba(iArchitecture
Entity
p50
(dp51
g11
(lp52
sg13
S'android.app.ActivityView$ActivityViewCallback'
p53
sg15
(lp54
sg17
(lp55
sg19
(lp56
sg21
I0
sba(iArchitecture
Entity
p57
(dp58
g11
(lp59
sg13
S'android.app.ActivityView$ActivityViewSurfaceTextureListener'
p60
sg15
(lp61
sg17
(lp62
sg19
(lp63
sg21
I0
sbasS'classes'
p64
(lp65
g14
ag25
ag32
ag39
ag46
ag53
ag60
asg21
I0
sS'label'
p66
S'1042'
p67
sba(iArchitecture
Cluster
p68
(dp69
g7
(lp70
(iArchitecture
Entity
p71
(dp72
g11
(lp73
sg13
S'android.graphics.LinearGradient'
p74
sg15
(lp75
sg17
(lp76
sg19
(lp77
sg21
I0
sba(iArchitecture
Entity
p78
(dp79
g11
(lp80
sg13
S'android.graphics.SweepGradient'
p81
sg15
(lp82
sg17
(lp83
sg19
(lp84
sg21
I0
sbasg64
(lp85
g74
ag81
asg21
I0
sg66
S'1142'
p86
sba(iArchitecture
Cluster
p87
(dp88
g7
(lp89
(iArchitecture
Entity
p90
(dp91
g11
(lp92
sg13
S'android.hardware.display.WifiDisplay'
p93
sg15
(lp94
sg17
(lp95
sg19
(lp96
sg21
I0
sba(iArchitecture
Entity
p97
(dp98
g11
(lp99
sg13
S'android.hardware.display.WifiDisplay$1'
p100
sg15
(lp101
sg17
(lp102
sg19
(lp103
sg21
I0
sba(iArchitecture
Entity
p104
(dp105
g11
(lp106
sg13
S'android.net.wifi.WifiSsid'
p107
sg15
(lp108
sg17
(lp109
sg19
(lp110
sg21
I0
sba(iArchitecture
Entity
p111
(dp112
g11
(lp113
sg13
S'android.net.wifi.WifiSsid$1'
p114
sg15
(lp115
sg17
(lp116
sg19
(lp117
sg21
I0
sba(iArchitecture
Entity
p118
(dp119
g11
(lp120
sg13
S'com.android.server.display.PersistentDataStore'
p121
sg15
(lp122
sg17
(lp123
sg19
(lp124
sg21
I0
sbasg64
(lp125
g93
ag100
ag107
ag114
ag121
asg21
I0
sg66
S'1242'
p126
sba(iArchitecture
Cluster
p127
(dp128
g7
(lp129
(iArchitecture
Entity
p130
(dp131
g11
(lp132
sg13
S'android.content.CursorEntityIterator'
p133
sg15
(lp134
sg17
(lp135
sg19
(lp136
sg21
I0
sbasg64
(lp137
g133
asg21
I0
sg66
S'142'
p138
sba(iArchitecture
Cluster
p139
(dp140
g7
(lp141
(iArchitecture
Entity
p142
(dp143
g11
(lp144
sg13
S'com.android.server.am.ActivityManagerDebugConfig'
p145
sg15
(lp146
sg17
(lp147
sg19
(lp148
sg21
I0
sbasg64
(lp149
g145
asg21
I0
sg66
S'242'
p150
sba(iArchitecture
Cluster
p151
(dp152
g7
(lp153
(iArchitecture
Entity
p154
(dp155
g11
(lp156
sg13
S'com.android.server.SystemServiceManager'
p157
sg15
(lp158
sg17
(lp159
sg19
(lp160
sg21
I0
sbasg64
(lp161
g157
asg21
I0
sg66
S'342'
p162
sba(iArchitecture
Cluster
p163
(dp164
g7
(lp165
(iArchitecture
Entity
p166
(dp167
g11
(lp168
sg13
S'android.app.AliasActivity'
p169
sg15
(lp170
sg17
(lp171
sg19
(lp172
sg21
I0
sbasg64
(lp173
g169
asg21
I0
sg66
S'42'
p174
sba(iArchitecture
Cluster
p175
(dp176
g7
(lp177
(iArchitecture
Entity
p178
(dp179
g11
(lp180
sg13
S'com.android.internal.util.ScreenShapeHelper'
p181
sg15
(lp182
sg17
(lp183
sg19
(lp184
sg21
I0
sbasg64
(lp185
g181
asg21
I0
sg66
S'420'
p186
sba(iArchitecture
Cluster
p187
(dp188
g7
(lp189
(iArchitecture
Entity
p190
(dp191
g11
(lp192
sg13
S'android.test.InstrumentationTestSuite'
p193
sg15
(lp194
sg17
(lp195
sg19
(lp196
sg21
I0
sbasg64
(lp197
g193
asg21
I0
sg66
S'421'
p198
sba(iArchitecture
Cluster
p199
(dp200
g7
(lp201
(iArchitecture
Entity
p202
(dp203
g11
(lp204
sg13
S'android.security.keystore.KeyPermanentlyInvalidatedException'
p205
sg15
(lp206
sg17
(lp207
sg19
(lp208
sg21
I0
sbasg64
(lp209
g205
asg21
I0
sg66
S'422'
p210
sba(iArchitecture
Cluster
p211
(dp212
g7
(lp213
(iArchitecture
Entity
p214
(dp215
g11
(lp216
sg13
S'com.android.internal.os.FlashlightPowerCalculator'
p217
sg15
(lp218
sg17
(lp219
sg19
(lp220
sg21
I0
sbasg64
(lp221
g217
asg21
I0
sg66
S'423'
p222
sba(iArchitecture
Cluster
p223
(dp224
g7
(lp225
(iArchitecture
Entity
p226
(dp227
g11
(lp228
sg13
S'android.location.Geocoder'
p229
sg15
(lp230
sg17
(lp231
sg19
(lp232
sg21
I0
sbasg64
(lp233
g229
asg21
I0
sg66
S'424'
p234
sba(iArchitecture
Cluster
p235
(dp236
g7
(lp237
(iArchitecture
Entity
p238
(dp239
g11
(lp240
sg13
S'android.media.MediaFormat'
p241
sg15
(lp242
sg17
(lp243
sg19
(lp244
sg21
I0
sbasg64
(lp245
g241
asg21
I0
sg66
S'425'
p246
sba(iArchitecture
Cluster
p247
(dp248
g7
(lp249
(iArchitecture
Entity
p250
(dp251
g11
(lp252
sg13
S'android.text.style.EasyEditSpan'
p253
sg15
(lp254
sg17
(lp255
sg19
(lp256
sg21
I0
sbasg64
(lp257
g253
asg21
I0
sg66
S'426'
p258
sba(iArchitecture
Cluster
p259
(dp260
g7
(lp261
(iArchitecture
Entity
p262
(dp263
g11
(lp264
sg13
S'android.webkit.PluginData'
p265
sg15
(lp266
sg17
(lp267
sg19
(lp268
sg21
I0
sbasg64
(lp269
g265
asg21
I0
sg66
S'427'
p270
sba(iArchitecture
Cluster
p271
(dp272
g7
(lp273
(iArchitecture
Entity
p274
(dp275
g11
(lp276
sg13
S'android.preference.PreferenceGroup'
p277
sg15
(lp278
sg17
(lp279
sg19
(lp280
sg21
I0
sbasg64
(lp281
g277
asg21
I0
sg66
S'428'
p282
sba(iArchitecture
Cluster
p283
(dp284
g7
(lp285
(iArchitecture
Entity
p286
(dp287
g11
(lp288
sg13
S'android.hardware.camera2.legacy.PerfMeasurement'
p289
sg15
(lp290
sg17
(lp291
sg19
(lp292
sg21
I0
sbasg64
(lp293
g289
asg21
I0
sg66
S'429'
p294
sba(iArchitecture
Cluster
p295
(dp296
g7
(lp297
(iArchitecture
Entity
p298
(dp299
g11
(lp300
sg13
S'android.content.ComponentCallbacks2'
p301
sg15
(lp302
sg17
(lp303
sg19
(lp304
sg21
I0
sbasg64
(lp305
g301
asg21
I0
sg66
S'442'
p306
sba(iArchitecture
Cluster
p307
(dp308
g7
(lp309
(iArchitecture
Entity
p310
(dp311
g11
(lp312
sg13
S'android.telephony.cdma.CdmaSmsCbProgramResults'
p313
sg15
(lp314
sg17
(lp315
sg19
(lp316
sg21
I0
sba(iArchitecture
Entity
p317
(dp318
g11
(lp319
sg13
S'android.telephony.cdma.CdmaSmsCbProgramResults$1'
p320
sg15
(lp321
sg17
(lp322
sg19
(lp323
sg21
I0
sbasg64
(lp324
g313
ag320
asg21
I0
sg66
S'542'
p325
sba(iArchitecture
Cluster
p326
(dp327
g7
(lp328
(iArchitecture
Entity
p329
(dp330
g11
(lp331
sg13
S'com.android.internal.telephony.IccCardConstants'
p332
sg15
(lp333
sg17
(lp334
sg19
(lp335
sg21
I0
sba(iArchitecture
Entity
p336
(dp337
g11
(lp338
sg13
S'com.android.internal.telephony.IccCardConstants$State'
p339
sg15
(lp340
sg17
(lp341
sg19
(lp342
sg21
I0
sbasg64
(lp343
g332
ag339
asg21
I0
sg66
S'642'
p344
sba(iArchitecture
Cluster
p345
(dp346
g7
(lp347
(iArchitecture
Entity
p348
(dp349
g11
(lp350
sg13
S'android.bluetooth.le.ScanFilter'
p351
sg15
(lp352
sg17
(lp353
sg19
(lp354
sg21
I0
sba(iArchitecture
Entity
p355
(dp356
g11
(lp357
sg13
S'android.bluetooth.le.ScanFilter$1'
p358
sg15
(lp359
sg17
(lp360
sg19
(lp361
sg21
I0
sba(iArchitecture
Entity
p362
(dp363
g11
(lp364
sg13
S'android.bluetooth.le.ScanFilter$Builder'
p365
sg15
(lp366
sg17
(lp367
sg19
(lp368
sg21
I0
sbasg64
(lp369
g351
ag358
ag365
asg21
I0
sg66
S'742'
p370
sba(iArchitecture
Cluster
p371
(dp372
g7
(lp373
(iArchitecture
Entity
p374
(dp375
g11
(lp376
sg13
S'android.webkit.Plugin'
p377
sg15
(lp378
sg17
(lp379
sg19
(lp380
sg21
I0
sba(iArchitecture
Entity
p381
(dp382
g11
(lp383
sg13
S'android.webkit.Plugin$DefaultClickHandler'
p384
sg15
(lp385
sg17
(lp386
sg19
(lp387
sg21
I0
sba(iArchitecture
Entity
p388
(dp389
g11
(lp390
sg13
S'android.webkit.Plugin$PreferencesClickHandler'
p391
sg15
(lp392
sg17
(lp393
sg19
(lp394
sg21
I0
sbasg64
(lp395
g377
ag384
ag391
asg21
I0
sg66
S'842'
p396
sba(iArchitecture
Cluster
p397
(dp398
g7
(lp399
(iArchitecture
Entity
p400
(dp401
g11
(lp402
sg13
S'android.view.AccessibilityIterators'
p403
sg15
(lp404
sg17
(lp405
sg19
(lp406
sg21
I0
sba(iArchitecture
Entity
p407
(dp408
g11
(lp409
sg13
S'android.view.AccessibilityIterators$AbstractTextSegmentIterator'
p410
sg15
(lp411
sg17
(lp412
sg19
(lp413
sg21
I0
sba(iArchitecture
Entity
p414
(dp415
g11
(lp416
sg13
S'android.view.AccessibilityIterators$CharacterTextSegmentIterator'
p417
sg15
(lp418
sg17
(lp419
sg19
(lp420
sg21
I0
sba(iArchitecture
Entity
p421
(dp422
g11
(lp423
sg13
S'android.view.AccessibilityIterators$ParagraphTextSegmentIterator'
p424
sg15
(lp425
sg17
(lp426
sg19
(lp427
sg21
I0
sba(iArchitecture
Entity
p428
(dp429
g11
(lp430
sg13
S'android.view.AccessibilityIterators$TextSegmentIterator'
p431
sg15
(lp432
sg17
(lp433
sg19
(lp434
sg21
I0
sba(iArchitecture
Entity
p435
(dp436
g11
(lp437
sg13
S'android.view.AccessibilityIterators$WordTextSegmentIterator'
p438
sg15
(lp439
sg17
(lp440
sg19
(lp441
sg21
I0
sbasg64
(lp442
g403
ag410
ag417
ag424
ag431
ag438
asg21
I0
sg66
S'942'
p443
sbasS'target_sub'
p444
S'42'
p445
sg64
(lp446
sS'is_component_arch'
p447
I01
sg66
S'6.0.0_r1'
p448
sba.