(lp0
(iArchitecture
Architecture
p1
(dp2
S'clusters'
p3
(lp4
(iArchitecture
Cluster
p5
(dp6
S'entities'
p7
(lp8
(iArchitecture
Entity
p9
(dp10
S'issue_ids'
p11
(lp12
sS'name'
p13
S'android.net.wifi.WifiScanner'
p14
sS'descs'
p15
(lp16
sS'labels'
p17
(lp18
sS'titles'
p19
(lp20
sS'change'
p21
I0
sba(iArchitecture
Entity
p22
(dp23
g11
(lp24
sg13
S'android.net.wifi.WifiScanner$ActionListener'
p25
sg15
(lp26
sg17
(lp27
sg19
(lp28
sg21
I0
sba(iArchitecture
Entity
p29
(dp30
g11
(lp31
sg13
S'android.net.wifi.WifiScanner$BssidInfo'
p32
sg15
(lp33
sg17
(lp34
sg19
(lp35
sg21
I0
sba(iArchitecture
Entity
p36
(dp37
g11
(lp38
sg13
S'android.net.wifi.WifiScanner$BssidListener'
p39
sg15
(lp40
sg17
(lp41
sg19
(lp42
sg21
I0
sba(iArchitecture
Entity
p43
(dp44
g11
(lp45
sg13
S'android.net.wifi.WifiScanner$ChannelSpec'
p46
sg15
(lp47
sg17
(lp48
sg19
(lp49
sg21
I0
sba(iArchitecture
Entity
p50
(dp51
g11
(lp52
sg13
S'android.net.wifi.WifiScanner$HotlistSettings'
p53
sg15
(lp54
sg17
(lp55
sg19
(lp56
sg21
I0
sba(iArchitecture
Entity
p57
(dp58
g11
(lp59
sg13
S'android.net.wifi.WifiScanner$HotlistSettings$1'
p60
sg15
(lp61
sg17
(lp62
sg19
(lp63
sg21
I0
sba(iArchitecture
Entity
p64
(dp65
g11
(lp66
sg13
S'android.net.wifi.WifiScanner$OperationResult'
p67
sg15
(lp68
sg17
(lp69
sg19
(lp70
sg21
I0
sba(iArchitecture
Entity
p71
(dp72
g11
(lp73
sg13
S'android.net.wifi.WifiScanner$OperationResult$1'
p74
sg15
(lp75
sg17
(lp76
sg19
(lp77
sg21
I0
sba(iArchitecture
Entity
p78
(dp79
g11
(lp80
sg13
S'android.net.wifi.WifiScanner$ParcelableScanData'
p81
sg15
(lp82
sg17
(lp83
sg19
(lp84
sg21
I0
sba(iArchitecture
Entity
p85
(dp86
g11
(lp87
sg13
S'android.net.wifi.WifiScanner$ParcelableScanData$1'
p88
sg15
(lp89
sg17
(lp90
sg19
(lp91
sg21
I0
sba(iArchitecture
Entity
p92
(dp93
g11
(lp94
sg13
S'android.net.wifi.WifiScanner$ParcelableScanResults'
p95
sg15
(lp96
sg17
(lp97
sg19
(lp98
sg21
I0
sba(iArchitecture
Entity
p99
(dp100
g11
(lp101
sg13
S'android.net.wifi.WifiScanner$ParcelableScanResults$1'
p102
sg15
(lp103
sg17
(lp104
sg19
(lp105
sg21
I0
sba(iArchitecture
Entity
p106
(dp107
g11
(lp108
sg13
S'android.net.wifi.WifiScanner$ScanData'
p109
sg15
(lp110
sg17
(lp111
sg19
(lp112
sg21
I0
sba(iArchitecture
Entity
p113
(dp114
g11
(lp115
sg13
S'android.net.wifi.WifiScanner$ScanData$1'
p116
sg15
(lp117
sg17
(lp118
sg19
(lp119
sg21
I0
sba(iArchitecture
Entity
p120
(dp121
g11
(lp122
sg13
S'android.net.wifi.WifiScanner$ScanListener'
p123
sg15
(lp124
sg17
(lp125
sg19
(lp126
sg21
I0
sba(iArchitecture
Entity
p127
(dp128
g11
(lp129
sg13
S'android.net.wifi.WifiScanner$ScanSettings'
p130
sg15
(lp131
sg17
(lp132
sg19
(lp133
sg21
I0
sba(iArchitecture
Entity
p134
(dp135
g11
(lp136
sg13
S'android.net.wifi.WifiScanner$ScanSettings$1'
p137
sg15
(lp138
sg17
(lp139
sg19
(lp140
sg21
I0
sba(iArchitecture
Entity
p141
(dp142
g11
(lp143
sg13
S'android.net.wifi.WifiScanner$ServiceHandler'
p144
sg15
(lp145
sg17
(lp146
sg19
(lp147
sg21
I0
sba(iArchitecture
Entity
p148
(dp149
g11
(lp150
sg13
S'android.net.wifi.WifiScanner$WifiChangeListener'
p151
sg15
(lp152
sg17
(lp153
sg19
(lp154
sg21
I0
sba(iArchitecture
Entity
p155
(dp156
g11
(lp157
sg13
S'android.net.wifi.WifiScanner$WifiChangeSettings'
p158
sg15
(lp159
sg17
(lp160
sg19
(lp161
sg21
I0
sba(iArchitecture
Entity
p162
(dp163
g11
(lp164
sg13
S'android.net.wifi.WifiScanner$WifiChangeSettings$1'
p165
sg15
(lp166
sg17
(lp167
sg19
(lp168
sg21
I0
sbasS'classes'
p169
(lp170
g14
ag25
ag32
ag39
ag46
ag53
ag60
ag67
ag74
ag81
ag88
ag95
ag102
ag109
ag116
ag123
ag130
ag137
ag144
ag151
ag158
ag165
asg21
I0
sS'label'
p171
S'1090'
p172
sba(iArchitecture
Cluster
p173
(dp174
g7
(lp175
(iArchitecture
Entity
p176
(dp177
g11
(lp178
sg13
S'android.app.backup.BackupAgent'
p179
sg15
(lp180
sg17
(lp181
sg19
(lp182
sg21
I0
sba(iArchitecture
Entity
p183
(dp184
g11
(lp185
sg13
S'android.app.backup.BackupAgent$BackupServiceBinder'
p186
sg15
(lp187
sg17
(lp188
sg19
(lp189
sg21
I0
sba(iArchitecture
Entity
p190
(dp191
g11
(lp192
sg13
S'android.app.backup.BackupAgent$FailRunnable'
p193
sg15
(lp194
sg17
(lp195
sg19
(lp196
sg21
I0
sba(iArchitecture
Entity
p197
(dp198
g11
(lp199
sg13
S'android.app.backup.BackupAgent$SharedPrefsSynchronizer'
p200
sg15
(lp201
sg17
(lp202
sg19
(lp203
sg21
I0
sba(iArchitecture
Entity
p204
(dp205
g11
(lp206
sg13
S'android.app.backup.BackupManager'
p207
sg15
(lp208
sg17
(lp209
sg19
(lp210
sg21
I0
sba(iArchitecture
Entity
p211
(dp212
g11
(lp213
sg13
S'android.app.backup.BackupTransport'
p214
sg15
(lp215
sg17
(lp216
sg19
(lp217
sg21
I0
sba(iArchitecture
Entity
p218
(dp219
g11
(lp220
sg13
S'android.app.backup.BackupTransport$TransportImpl'
p221
sg15
(lp222
sg17
(lp223
sg19
(lp224
sg21
I0
sba(iArchitecture
Entity
p225
(dp226
g11
(lp227
sg13
S'android.app.backup.FullBackup'
p228
sg15
(lp229
sg17
(lp230
sg19
(lp231
sg21
I0
sba(iArchitecture
Entity
p232
(dp233
g11
(lp234
sg13
S'android.app.backup.FullBackup$BackupScheme'
p235
sg15
(lp236
sg17
(lp237
sg19
(lp238
sg21
I0
sba(iArchitecture
Entity
p239
(dp240
g11
(lp241
sg13
S'android.app.backup.RestoreSession'
p242
sg15
(lp243
sg17
(lp244
sg19
(lp245
sg21
I0
sba(iArchitecture
Entity
p246
(dp247
g11
(lp248
sg13
S'android.app.backup.RestoreSession$RestoreObserverWrapper'
p249
sg15
(lp250
sg17
(lp251
sg19
(lp252
sg21
I0
sba(iArchitecture
Entity
p253
(dp254
g11
(lp255
sg13
S'android.app.backup.RestoreSession$RestoreObserverWrapper$1'
p256
sg15
(lp257
sg17
(lp258
sg19
(lp259
sg21
I0
sba(iArchitecture
Entity
p260
(dp261
g11
(lp262
sg13
S'android.content.pm.PackageInstaller'
p263
sg15
(lp264
sg17
(lp265
sg19
(lp266
sg21
I0
sba(iArchitecture
Entity
p267
(dp268
g11
(lp269
sg13
S'android.content.pm.PackageInstaller$Session'
p270
sg15
(lp271
sg17
(lp272
sg19
(lp273
sg21
I0
sba(iArchitecture
Entity
p274
(dp275
g11
(lp276
sg13
S'android.content.pm.PackageInstaller$SessionCallback'
p277
sg15
(lp278
sg17
(lp279
sg19
(lp280
sg21
I0
sba(iArchitecture
Entity
p281
(dp282
g11
(lp283
sg13
S'android.content.pm.PackageInstaller$SessionCallbackDelegate'
p284
sg15
(lp285
sg17
(lp286
sg19
(lp287
sg21
I0
sba(iArchitecture
Entity
p288
(dp289
g11
(lp290
sg13
S'android.content.pm.PackageInstaller$SessionInfo'
p291
sg15
(lp292
sg17
(lp293
sg19
(lp294
sg21
I0
sba(iArchitecture
Entity
p295
(dp296
g11
(lp297
sg13
S'android.content.pm.PackageInstaller$SessionInfo$1'
p298
sg15
(lp299
sg17
(lp300
sg19
(lp301
sg21
I0
sba(iArchitecture
Entity
p302
(dp303
g11
(lp304
sg13
S'android.content.pm.PackageInstaller$SessionParams'
p305
sg15
(lp306
sg17
(lp307
sg19
(lp308
sg21
I0
sba(iArchitecture
Entity
p309
(dp310
g11
(lp311
sg13
S'android.content.pm.PackageInstaller$SessionParams$1'
p312
sg15
(lp313
sg17
(lp314
sg19
(lp315
sg21
I0
sba(iArchitecture
Entity
p316
(dp317
g11
(lp318
sg13
S'android.content.pm.RegisteredServicesCache'
p319
sg15
(lp320
sg17
(lp321
sg19
(lp322
sg21
I0
sba(iArchitecture
Entity
p323
(dp324
g11
(lp325
sg13
S'android.content.pm.RegisteredServicesCache$1'
p326
sg15
(lp327
sg17
(lp328
sg19
(lp329
sg21
I0
sba(iArchitecture
Entity
p330
(dp331
g11
(lp332
sg13
S'android.content.pm.RegisteredServicesCache$2'
p333
sg15
(lp334
sg17
(lp335
sg19
(lp336
sg21
I0
sba(iArchitecture
Entity
p337
(dp338
g11
(lp339
sg13
S'android.content.pm.RegisteredServicesCache$3'
p340
sg15
(lp341
sg17
(lp342
sg19
(lp343
sg21
I0
sba(iArchitecture
Entity
p344
(dp345
g11
(lp346
sg13
S'android.content.pm.RegisteredServicesCache$4'
p347
sg15
(lp348
sg17
(lp349
sg19
(lp350
sg21
I0
sba(iArchitecture
Entity
p351
(dp352
g11
(lp353
sg13
S'android.content.pm.RegisteredServicesCache$ServiceInfo'
p354
sg15
(lp355
sg17
(lp356
sg19
(lp357
sg21
I0
sba(iArchitecture
Entity
p358
(dp359
g11
(lp360
sg13
S'android.content.pm.RegisteredServicesCache$UserServices'
p361
sg15
(lp362
sg17
(lp363
sg19
(lp364
sg21
I0
sba(iArchitecture
Entity
p365
(dp366
g11
(lp367
sg13
S'com.android.internal.backup.LocalTransport'
p368
sg15
(lp369
sg17
(lp370
sg19
(lp371
sg21
I0
sba(iArchitecture
Entity
p372
(dp373
g11
(lp374
sg13
S'com.android.internal.backup.LocalTransport$DecodedFilename'
p375
sg15
(lp376
sg17
(lp377
sg19
(lp378
sg21
I0
sba(iArchitecture
Entity
p379
(dp380
g11
(lp381
sg13
S'com.android.server.ServiceWatcher'
p382
sg15
(lp383
sg17
(lp384
sg19
(lp385
sg21
I0
sba(iArchitecture
Entity
p386
(dp387
g11
(lp388
sg13
S'com.android.server.ServiceWatcher$1'
p389
sg15
(lp390
sg17
(lp391
sg19
(lp392
sg21
I0
sba(iArchitecture
Entity
p393
(dp394
g11
(lp395
sg13
S'com.android.server.ServiceWatcher$2'
p396
sg15
(lp397
sg17
(lp398
sg19
(lp399
sg21
I0
sba(iArchitecture
Entity
p400
(dp401
g11
(lp402
sg13
S'com.android.server.connectivity.PermissionMonitor'
p403
sg15
(lp404
sg17
(lp405
sg19
(lp406
sg21
I0
sba(iArchitecture
Entity
p407
(dp408
g11
(lp409
sg13
S'com.android.server.connectivity.PermissionMonitor$1'
p410
sg15
(lp411
sg17
(lp412
sg19
(lp413
sg21
I0
sba(iArchitecture
Entity
p414
(dp415
g11
(lp416
sg13
S'com.android.server.pm.PackageInstallerService'
p417
sg15
(lp418
sg17
(lp419
sg19
(lp420
sg21
I0
sba(iArchitecture
Entity
p421
(dp422
g11
(lp423
sg13
S'com.android.server.pm.PackageInstallerService$1'
p424
sg15
(lp425
sg17
(lp426
sg19
(lp427
sg21
I0
sba(iArchitecture
Entity
p428
(dp429
g11
(lp430
sg13
S'com.android.server.pm.PackageInstallerService$2'
p431
sg15
(lp432
sg17
(lp433
sg19
(lp434
sg21
I0
sba(iArchitecture
Entity
p435
(dp436
g11
(lp437
sg13
S'com.android.server.pm.PackageInstallerService$Callbacks'
p438
sg15
(lp439
sg17
(lp440
sg19
(lp441
sg21
I0
sba(iArchitecture
Entity
p442
(dp443
g11
(lp444
sg13
S'com.android.server.pm.PackageInstallerService$InternalCallback'
p445
sg15
(lp446
sg17
(lp447
sg19
(lp448
sg21
I0
sba(iArchitecture
Entity
p449
(dp450
g11
(lp451
sg13
S'com.android.server.pm.PackageInstallerService$InternalCallback$1'
p452
sg15
(lp453
sg17
(lp454
sg19
(lp455
sg21
I0
sba(iArchitecture
Entity
p456
(dp457
g11
(lp458
sg13
S'com.android.server.pm.PackageInstallerService$PackageDeleteObserverAdapter'
p459
sg15
(lp460
sg17
(lp461
sg19
(lp462
sg21
I0
sba(iArchitecture
Entity
p463
(dp464
g11
(lp465
sg13
S'com.android.server.pm.PackageInstallerService$PackageInstallObserverAdapter'
p466
sg15
(lp467
sg17
(lp468
sg19
(lp469
sg21
I0
sba(iArchitecture
Entity
p470
(dp471
g11
(lp472
sg13
S'com.android.server.voiceinteraction.VoiceInteractionManagerServiceImpl'
p473
sg15
(lp474
sg17
(lp475
sg19
(lp476
sg21
I0
sba(iArchitecture
Entity
p477
(dp478
g11
(lp479
sg13
S'com.android.server.voiceinteraction.VoiceInteractionManagerServiceImpl$1'
p480
sg15
(lp481
sg17
(lp482
sg19
(lp483
sg21
I0
sba(iArchitecture
Entity
p484
(dp485
g11
(lp486
sg13
S'com.android.server.voiceinteraction.VoiceInteractionManagerServiceImpl$2'
p487
sg15
(lp488
sg17
(lp489
sg19
(lp490
sg21
I0
sba(iArchitecture
Entity
p491
(dp492
g11
(lp493
sg13
S'com.android.server.voiceinteraction.VoiceInteractionSessionConnection'
p494
sg15
(lp495
sg17
(lp496
sg19
(lp497
sg21
I0
sba(iArchitecture
Entity
p498
(dp499
g11
(lp500
sg13
S'com.android.server.voiceinteraction.VoiceInteractionSessionConnection$1'
p501
sg15
(lp502
sg17
(lp503
sg19
(lp504
sg21
I0
sba(iArchitecture
Entity
p505
(dp506
g11
(lp507
sg13
S'com.android.server.voiceinteraction.VoiceInteractionSessionConnection$2'
p508
sg15
(lp509
sg17
(lp510
sg19
(lp511
sg21
I0
sba(iArchitecture
Entity
p512
(dp513
g11
(lp514
sg13
S'com.android.server.voiceinteraction.VoiceInteractionSessionConnection$3'
p515
sg15
(lp516
sg17
(lp517
sg19
(lp518
sg21
I0
sba(iArchitecture
Entity
p519
(dp520
g11
(lp521
sg13
S'com.android.server.voiceinteraction.VoiceInteractionSessionConnection$4'
p522
sg15
(lp523
sg17
(lp524
sg19
(lp525
sg21
I0
sba(iArchitecture
Entity
p526
(dp527
g11
(lp528
sg13
S'com.android.server.voiceinteraction.VoiceInteractionSessionConnection$5'
p529
sg15
(lp530
sg17
(lp531
sg19
(lp532
sg21
I0
sba(iArchitecture
Entity
p533
(dp534
g11
(lp535
sg13
S'com.android.server.voiceinteraction.VoiceInteractionSessionConnection$Callback'
p536
sg15
(lp537
sg17
(lp538
sg19
(lp539
sg21
I0
sbasg169
(lp540
g179
ag186
ag193
ag200
ag207
ag214
ag221
ag228
ag235
ag242
ag249
ag256
ag263
ag270
ag277
ag284
ag291
ag298
ag305
ag312
ag319
ag326
ag333
ag340
ag347
ag354
ag361
ag368
ag375
ag382
ag389
ag396
ag403
ag410
ag417
ag424
ag431
ag438
ag445
ag452
ag459
ag466
ag473
ag480
ag487
ag494
ag501
ag508
ag515
ag522
ag529
ag536
asg21
I0
sg171
S'1190'
p541
sba(iArchitecture
Cluster
p542
(dp543
g7
(lp544
(iArchitecture
Entity
p545
(dp546
g11
(lp547
sg13
S'android.filterfw.core.FrameFormat'
p548
sg15
(lp549
sg17
(lp550
sg19
(lp551
sg21
I0
sbasg169
(lp552
g548
asg21
I0
sg171
S'190'
p553
sba(iArchitecture
Cluster
p554
(dp555
g7
(lp556
(iArchitecture
Entity
p557
(dp558
g11
(lp559
sg13
S'android.renderscript.AllocationAdapter'
p560
sg15
(lp561
sg17
(lp562
sg19
(lp563
sg21
I0
sbasg169
(lp564
g560
asg21
I0
sg171
S'290'
p565
sba(iArchitecture
Cluster
p566
(dp567
g7
(lp568
(iArchitecture
Entity
p569
(dp570
g11
(lp571
sg13
S'android.view.ContextThemeWrapper'
p572
sg15
(lp573
sg17
(lp574
sg19
(lp575
sg21
I0
sbasg169
(lp576
g572
asg21
I0
sg171
S'390'
p577
sba(iArchitecture
Cluster
p578
(dp579
g7
(lp580
(iArchitecture
Entity
p581
(dp582
g11
(lp583
sg13
S'android.app.ProgressDialog'
p584
sg15
(lp585
sg17
(lp586
sg19
(lp587
sg21
I0
sba(iArchitecture
Entity
p588
(dp589
g11
(lp590
sg13
S'android.app.ProgressDialog$1'
p591
sg15
(lp592
sg17
(lp593
sg19
(lp594
sg21
I0
sbasg169
(lp595
g584
ag591
asg21
I0
sg171
S'490'
p596
sba(iArchitecture
Cluster
p597
(dp598
g7
(lp599
(iArchitecture
Entity
p600
(dp601
g11
(lp602
sg13
S'android.inputmethodservice.IInputMethodSessionWrapper'
p603
sg15
(lp604
sg17
(lp605
sg19
(lp606
sg21
I0
sba(iArchitecture
Entity
p607
(dp608
g11
(lp609
sg13
S'android.inputmethodservice.IInputMethodSessionWrapper$ImeInputEventReceiver'
p610
sg15
(lp611
sg17
(lp612
sg19
(lp613
sg21
I0
sbasg169
(lp614
g603
ag610
asg21
I0
sg171
S'590'
p615
sba(iArchitecture
Cluster
p616
(dp617
g7
(lp618
(iArchitecture
Entity
p619
(dp620
g11
(lp621
sg13
S'android.hardware.hdmi.HdmiDeviceInfo'
p622
sg15
(lp623
sg17
(lp624
sg19
(lp625
sg21
I0
sba(iArchitecture
Entity
p626
(dp627
g11
(lp628
sg13
S'android.hardware.hdmi.HdmiDeviceInfo$1'
p629
sg15
(lp630
sg17
(lp631
sg19
(lp632
sg21
I0
sbasg169
(lp633
g622
ag629
asg21
I0
sg171
S'690'
p634
sba(iArchitecture
Cluster
p635
(dp636
g7
(lp637
(iArchitecture
Entity
p638
(dp639
g11
(lp640
sg13
S'android.bluetooth.le.AdvertiseSettings'
p641
sg15
(lp642
sg17
(lp643
sg19
(lp644
sg21
I0
sba(iArchitecture
Entity
p645
(dp646
g11
(lp647
sg13
S'android.bluetooth.le.AdvertiseSettings$1'
p648
sg15
(lp649
sg17
(lp650
sg19
(lp651
sg21
I0
sba(iArchitecture
Entity
p652
(dp653
g11
(lp654
sg13
S'android.bluetooth.le.AdvertiseSettings$Builder'
p655
sg15
(lp656
sg17
(lp657
sg19
(lp658
sg21
I0
sbasg169
(lp659
g641
ag648
ag655
asg21
I0
sg171
S'790'
p660
sba(iArchitecture
Cluster
p661
(dp662
g7
(lp663
(iArchitecture
Entity
p664
(dp665
g11
(lp666
sg13
S'android.widget.CompoundButton'
p667
sg15
(lp668
sg17
(lp669
sg19
(lp670
sg21
I0
sba(iArchitecture
Entity
p671
(dp672
g11
(lp673
sg13
S'android.widget.CompoundButton$OnCheckedChangeListener'
p674
sg15
(lp675
sg17
(lp676
sg19
(lp677
sg21
I0
sba(iArchitecture
Entity
p678
(dp679
g11
(lp680
sg13
S'android.widget.CompoundButton$SavedState'
p681
sg15
(lp682
sg17
(lp683
sg19
(lp684
sg21
I0
sba(iArchitecture
Entity
p685
(dp686
g11
(lp687
sg13
S'android.widget.CompoundButton$SavedState$1'
p688
sg15
(lp689
sg17
(lp690
sg19
(lp691
sg21
I0
sbasg169
(lp692
g667
ag674
ag681
ag688
asg21
I0
sg171
S'890'
p693
sba(iArchitecture
Cluster
p694
(dp695
g7
(lp696
(iArchitecture
Entity
p697
(dp698
g11
(lp699
sg13
S'android.hardware.location.GeofenceHardwareRequest'
p700
sg15
(lp701
sg17
(lp702
sg19
(lp703
sg21
I0
sbasg169
(lp704
g700
asg21
I0
sg171
S'90'
p705
sba(iArchitecture
Cluster
p706
(dp707
g7
(lp708
(iArchitecture
Entity
p709
(dp710
g11
(lp711
sg13
S'android.security.KeyChain'
p712
sg15
(lp713
sg17
(lp714
sg19
(lp715
sg21
I0
sba(iArchitecture
Entity
p716
(dp717
g11
(lp718
sg13
S'android.security.KeyChain$1'
p719
sg15
(lp720
sg17
(lp721
sg19
(lp722
sg21
I0
sba(iArchitecture
Entity
p723
(dp724
g11
(lp725
sg13
S'android.security.KeyChain$AliasResponse'
p726
sg15
(lp727
sg17
(lp728
sg19
(lp729
sg21
I0
sba(iArchitecture
Entity
p730
(dp731
g11
(lp732
sg13
S'android.security.KeyChain$KeyChainConnection'
p733
sg15
(lp734
sg17
(lp735
sg19
(lp736
sg21
I0
sbasg169
(lp737
g712
ag719
ag726
ag733
asg21
I0
sg171
S'900'
p738
sba(iArchitecture
Cluster
p739
(dp740
g7
(lp741
(iArchitecture
Entity
p742
(dp743
g11
(lp744
sg13
S'android.net.NetworkStats'
p745
sg15
(lp746
sg17
(lp747
sg19
(lp748
sg21
I0
sba(iArchitecture
Entity
p749
(dp750
g11
(lp751
sg13
S'android.net.NetworkStats$1'
p752
sg15
(lp753
sg17
(lp754
sg19
(lp755
sg21
I0
sba(iArchitecture
Entity
p756
(dp757
g11
(lp758
sg13
S'android.net.NetworkStats$Entry'
p759
sg15
(lp760
sg17
(lp761
sg19
(lp762
sg21
I0
sba(iArchitecture
Entity
p763
(dp764
g11
(lp765
sg13
S'android.net.NetworkStats$NonMonotonicObserver'
p766
sg15
(lp767
sg17
(lp768
sg19
(lp769
sg21
I0
sbasg169
(lp770
g745
ag752
ag759
ag766
asg21
I0
sg171
S'901'
p771
sba(iArchitecture
Cluster
p772
(dp773
g7
(lp774
(iArchitecture
Entity
p775
(dp776
g11
(lp777
sg13
S'android.widget.ShareActionProvider'
p778
sg15
(lp779
sg17
(lp780
sg19
(lp781
sg21
I0
sba(iArchitecture
Entity
p782
(dp783
g11
(lp784
sg13
S'android.widget.ShareActionProvider$OnShareTargetSelectedListener'
p785
sg15
(lp786
sg17
(lp787
sg19
(lp788
sg21
I0
sba(iArchitecture
Entity
p789
(dp790
g11
(lp791
sg13
S'android.widget.ShareActionProvider$ShareActivityChooserModelPolicy'
p792
sg15
(lp793
sg17
(lp794
sg19
(lp795
sg21
I0
sba(iArchitecture
Entity
p796
(dp797
g11
(lp798
sg13
S'android.widget.ShareActionProvider$ShareMenuItemOnMenuItemClickListener'
p799
sg15
(lp800
sg17
(lp801
sg19
(lp802
sg21
I0
sbasg169
(lp803
g778
ag785
ag792
ag799
asg21
I0
sg171
S'902'
p804
sba(iArchitecture
Cluster
p805
(dp806
g7
(lp807
(iArchitecture
Entity
p808
(dp809
g11
(lp810
sg13
S'android.os.MessageQueue'
p811
sg15
(lp812
sg17
(lp813
sg19
(lp814
sg21
I0
sba(iArchitecture
Entity
p815
(dp816
g11
(lp817
sg13
S'android.os.MessageQueue$FileDescriptorRecord'
p818
sg15
(lp819
sg17
(lp820
sg19
(lp821
sg21
I0
sba(iArchitecture
Entity
p822
(dp823
g11
(lp824
sg13
S'android.os.MessageQueue$IdleHandler'
p825
sg15
(lp826
sg17
(lp827
sg19
(lp828
sg21
I0
sba(iArchitecture
Entity
p829
(dp830
g11
(lp831
sg13
S'android.os.MessageQueue$OnFileDescriptorEventListener'
p832
sg15
(lp833
sg17
(lp834
sg19
(lp835
sg21
I0
sbasg169
(lp836
g811
ag818
ag825
ag832
asg21
I0
sg171
S'903'
p837
sba(iArchitecture
Cluster
p838
(dp839
g7
(lp840
(iArchitecture
Entity
p841
(dp842
g11
(lp843
sg13
S'android.content.res.CompatibilityInfo'
p844
sg15
(lp845
sg17
(lp846
sg19
(lp847
sg21
I0
sba(iArchitecture
Entity
p848
(dp849
g11
(lp850
sg13
S'android.content.res.CompatibilityInfo$1'
p851
sg15
(lp852
sg17
(lp853
sg19
(lp854
sg21
I0
sba(iArchitecture
Entity
p855
(dp856
g11
(lp857
sg13
S'android.content.res.CompatibilityInfo$2'
p858
sg15
(lp859
sg17
(lp860
sg19
(lp861
sg21
I0
sba(iArchitecture
Entity
p862
(dp863
g11
(lp864
sg13
S'android.content.res.CompatibilityInfo$Translator'
p865
sg15
(lp866
sg17
(lp867
sg19
(lp868
sg21
I0
sbasg169
(lp869
g844
ag851
ag858
ag865
asg21
I0
sg171
S'904'
p870
sba(iArchitecture
Cluster
p871
(dp872
g7
(lp873
(iArchitecture
Entity
p874
(dp875
g11
(lp876
sg13
S'com.android.server.WiredAccessoryManager'
p877
sg15
(lp878
sg17
(lp879
sg19
(lp880
sg21
I0
sba(iArchitecture
Entity
p881
(dp882
g11
(lp883
sg13
S'com.android.server.WiredAccessoryManager$1'
p884
sg15
(lp885
sg17
(lp886
sg19
(lp887
sg21
I0
sba(iArchitecture
Entity
p888
(dp889
g11
(lp890
sg13
S'com.android.server.WiredAccessoryManager$WiredAccessoryObserver'
p891
sg15
(lp892
sg17
(lp893
sg19
(lp894
sg21
I0
sba(iArchitecture
Entity
p895
(dp896
g11
(lp897
sg13
S'com.android.server.WiredAccessoryManager$WiredAccessoryObserver$UEventInfo'
p898
sg15
(lp899
sg17
(lp900
sg19
(lp901
sg21
I0
sbasg169
(lp902
g877
ag884
ag891
ag898
asg21
I0
sg171
S'905'
p903
sba(iArchitecture
Cluster
p904
(dp905
g7
(lp906
(iArchitecture
Entity
p907
(dp908
g11
(lp909
sg13
S'android.util.Log'
p910
sg15
(lp911
sg17
(lp912
sg19
(lp913
sg21
I0
sba(iArchitecture
Entity
p914
(dp915
g11
(lp916
sg13
S'android.util.Log$1'
p917
sg15
(lp918
sg17
(lp919
sg19
(lp920
sg21
I0
sba(iArchitecture
Entity
p921
(dp922
g11
(lp923
sg13
S'android.util.Log$TerribleFailure'
p924
sg15
(lp925
sg17
(lp926
sg19
(lp927
sg21
I0
sba(iArchitecture
Entity
p928
(dp929
g11
(lp930
sg13
S'android.util.Log$TerribleFailureHandler'
p931
sg15
(lp932
sg17
(lp933
sg19
(lp934
sg21
I0
sbasg169
(lp935
g910
ag917
ag924
ag931
asg21
I0
sg171
S'906'
p936
sba(iArchitecture
Cluster
p937
(dp938
g7
(lp939
(iArchitecture
Entity
p940
(dp941
g11
(lp942
sg13
S'android.view.ScaleGestureDetector'
p943
sg15
(lp944
sg17
(lp945
sg19
(lp946
sg21
I0
sba(iArchitecture
Entity
p947
(dp948
g11
(lp949
sg13
S'android.view.ScaleGestureDetector$1'
p950
sg15
(lp951
sg17
(lp952
sg19
(lp953
sg21
I0
sba(iArchitecture
Entity
p954
(dp955
g11
(lp956
sg13
S'android.view.ScaleGestureDetector$OnScaleGestureListener'
p957
sg15
(lp958
sg17
(lp959
sg19
(lp960
sg21
I0
sba(iArchitecture
Entity
p961
(dp962
g11
(lp963
sg13
S'android.view.ScaleGestureDetector$SimpleOnScaleGestureListener'
p964
sg15
(lp965
sg17
(lp966
sg19
(lp967
sg21
I0
sbasg169
(lp968
g943
ag950
ag957
ag964
asg21
I0
sg171
S'907'
p969
sba(iArchitecture
Cluster
p970
(dp971
g7
(lp972
(iArchitecture
Entity
p973
(dp974
g11
(lp975
sg13
S'android.view.ActionMode'
p976
sg15
(lp977
sg17
(lp978
sg19
(lp979
sg21
I0
sba(iArchitecture
Entity
p980
(dp981
g11
(lp982
sg13
S'android.view.ActionMode$Callback'
p983
sg15
(lp984
sg17
(lp985
sg19
(lp986
sg21
I0
sba(iArchitecture
Entity
p987
(dp988
g11
(lp989
sg13
S'android.view.ActionMode$Callback2'
p990
sg15
(lp991
sg17
(lp992
sg19
(lp993
sg21
I0
sbasg169
(lp994
g976
ag983
ag990
asg21
I0
sg171
S'908'
p995
sba(iArchitecture
Cluster
p996
(dp997
g7
(lp998
(iArchitecture
Entity
p999
(dp1000
g11
(lp1001
sg13
S'android.hardware.LegacySensorManager'
p1002
sg15
(lp1003
sg17
(lp1004
sg19
(lp1005
sg21
I0
sba(iArchitecture
Entity
p1006
(dp1007
g11
(lp1008
sg13
S'android.hardware.LegacySensorManager$1'
p1009
sg15
(lp1010
sg17
(lp1011
sg19
(lp1012
sg21
I0
sba(iArchitecture
Entity
p1013
(dp1014
g11
(lp1015
sg13
S'android.hardware.LegacySensorManager$LegacyListener'
p1016
sg15
(lp1017
sg17
(lp1018
sg19
(lp1019
sg21
I0
sba(iArchitecture
Entity
p1020
(dp1021
g11
(lp1022
sg13
S'android.hardware.LegacySensorManager$LmsFilter'
p1023
sg15
(lp1024
sg17
(lp1025
sg19
(lp1026
sg21
I0
sbasg169
(lp1027
g1002
ag1009
ag1016
ag1023
asg21
I0
sg171
S'909'
p1028
sba(iArchitecture
Cluster
p1029
(dp1030
g7
(lp1031
(iArchitecture
Entity
p1032
(dp1033
g11
(lp1034
sg13
S'com.android.server.display.OverlayDisplayWindow'
p1035
sg15
(lp1036
sg17
(lp1037
sg19
(lp1038
sg21
I0
sba(iArchitecture
Entity
p1039
(dp1040
g11
(lp1041
sg13
S'com.android.server.display.OverlayDisplayWindow$1'
p1042
sg15
(lp1043
sg17
(lp1044
sg19
(lp1045
sg21
I0
sba(iArchitecture
Entity
p1046
(dp1047
g11
(lp1048
sg13
S'com.android.server.display.OverlayDisplayWindow$2'
p1049
sg15
(lp1050
sg17
(lp1051
sg19
(lp1052
sg21
I0
sba(iArchitecture
Entity
p1053
(dp1054
g11
(lp1055
sg13
S'com.android.server.display.OverlayDisplayWindow$3'
p1056
sg15
(lp1057
sg17
(lp1058
sg19
(lp1059
sg21
I0
sba(iArchitecture
Entity
p1060
(dp1061
g11
(lp1062
sg13
S'com.android.server.display.OverlayDisplayWindow$4'
p1063
sg15
(lp1064
sg17
(lp1065
sg19
(lp1066
sg21
I0
sba(iArchitecture
Entity
p1067
(dp1068
g11
(lp1069
sg13
S'com.android.server.display.OverlayDisplayWindow$5'
p1070
sg15
(lp1071
sg17
(lp1072
sg19
(lp1073
sg21
I0
sba(iArchitecture
Entity
p1074
(dp1075
g11
(lp1076
sg13
S'com.android.server.display.OverlayDisplayWindow$Listener'
p1077
sg15
(lp1078
sg17
(lp1079
sg19
(lp1080
sg21
I0
sbasg169
(lp1081
g1035
ag1042
ag1049
ag1056
ag1063
ag1070
ag1077
asg21
I0
sg171
S'990'
p1082
sbasS'target_sub'
p1083
S'90'
p1084
sg169
(lp1085
sS'is_component_arch'
p1086
I01
sg171
S'6.0.0_r1'
p1087
sba.