(lp0
(iArchitecture
Architecture
p1
(dp2
S'clusters'
p3
(lp4
(iArchitecture
Cluster
p5
(dp6
S'entities'
p7
(lp8
(iArchitecture
Entity
p9
(dp10
S'issue_ids'
p11
(lp12
sS'name'
p13
S'android.provider.SyncConstValue'
p14
sS'descs'
p15
(lp16
sS'labels'
p17
(lp18
sS'titles'
p19
(lp20
sS'change'
p21
I0
sba(iArchitecture
Entity
p22
(dp23
g11
(lp24
sg13
S'android.webkit.WebSyncManager'
p25
sg15
(lp26
sg17
(lp27
sg19
(lp28
sg21
I0
sbasS'classes'
p29
(lp30
g14
ag25
asg21
I0
sS'label'
p31
S'1123'
p32
sba(iArchitecture
Cluster
p33
(dp34
g7
(lp35
(iArchitecture
Entity
p36
(dp37
g11
(lp38
sg13
S'com.android.server.policy.keyguard.KeyguardServiceWrapper'
p39
sg15
(lp40
sg17
(lp41
sg19
(lp42
sg21
I0
sbasg29
(lp43
g39
asg21
I0
sg31
S'123'
p44
sba(iArchitecture
Cluster
p45
(dp46
g7
(lp47
(iArchitecture
Entity
p48
(dp49
g11
(lp50
sg13
S'android.database.sqlite.SQLiteConnection'
p51
sg15
(lp52
sg17
(lp53
sg19
(lp54
sg21
I0
sba(iArchitecture
Entity
p55
(dp56
g11
(lp57
sg13
S'android.database.sqlite.SQLiteConnection$Operation'
p58
sg15
(lp59
sg17
(lp60
sg19
(lp61
sg21
I0
sba(iArchitecture
Entity
p62
(dp63
g11
(lp64
sg13
S'android.database.sqlite.SQLiteConnection$OperationLog'
p65
sg15
(lp66
sg17
(lp67
sg19
(lp68
sg21
I0
sba(iArchitecture
Entity
p69
(dp70
g11
(lp71
sg13
S'android.database.sqlite.SQLiteConnection$PreparedStatement'
p72
sg15
(lp73
sg17
(lp74
sg19
(lp75
sg21
I0
sba(iArchitecture
Entity
p76
(dp77
g11
(lp78
sg13
S'android.database.sqlite.SQLiteConnection$PreparedStatementCache'
p79
sg15
(lp80
sg17
(lp81
sg19
(lp82
sg21
I0
sba(iArchitecture
Entity
p83
(dp84
g11
(lp85
sg13
S'android.database.sqlite.SQLiteSession'
p86
sg15
(lp87
sg17
(lp88
sg19
(lp89
sg21
I0
sba(iArchitecture
Entity
p90
(dp91
g11
(lp92
sg13
S'android.database.sqlite.SQLiteSession$Transaction'
p93
sg15
(lp94
sg17
(lp95
sg19
(lp96
sg21
I0
sbasg29
(lp97
g51
ag58
ag65
ag72
ag79
ag86
ag93
asg21
I0
sg31
S'1230'
p98
sba(iArchitecture
Cluster
p99
(dp100
g7
(lp101
(iArchitecture
Entity
p102
(dp103
g11
(lp104
sg13
S'android.filterfw.core.Frame'
p105
sg15
(lp106
sg17
(lp107
sg19
(lp108
sg21
I0
sba(iArchitecture
Entity
p109
(dp110
g11
(lp111
sg13
S'android.filterfw.core.GLFrame'
p112
sg15
(lp113
sg17
(lp114
sg19
(lp115
sg21
I0
sba(iArchitecture
Entity
p116
(dp117
g11
(lp118
sg13
S'android.filterfw.core.NativeFrame'
p119
sg15
(lp120
sg17
(lp121
sg19
(lp122
sg21
I0
sba(iArchitecture
Entity
p123
(dp124
g11
(lp125
sg13
S'android.filterfw.core.SerializedFrame'
p126
sg15
(lp127
sg17
(lp128
sg19
(lp129
sg21
I0
sba(iArchitecture
Entity
p130
(dp131
g11
(lp132
sg13
S'android.filterfw.core.SerializedFrame$DirectByteInputStream'
p133
sg15
(lp134
sg17
(lp135
sg19
(lp136
sg21
I0
sba(iArchitecture
Entity
p137
(dp138
g11
(lp139
sg13
S'android.filterfw.core.SerializedFrame$DirectByteOutputStream'
p140
sg15
(lp141
sg17
(lp142
sg19
(lp143
sg21
I0
sba(iArchitecture
Entity
p144
(dp145
g11
(lp146
sg13
S'android.filterfw.core.SimpleFrame'
p147
sg15
(lp148
sg17
(lp149
sg19
(lp150
sg21
I0
sbasg29
(lp151
g105
ag112
ag119
ag126
ag133
ag140
ag147
asg21
I0
sg31
S'1231'
p152
sba(iArchitecture
Cluster
p153
(dp154
g7
(lp155
(iArchitecture
Entity
p156
(dp157
g11
(lp158
sg13
S'android.accessibilityservice.AccessibilityService'
p159
sg15
(lp160
sg17
(lp161
sg19
(lp162
sg21
I0
sba(iArchitecture
Entity
p163
(dp164
g11
(lp165
sg13
S'android.accessibilityservice.AccessibilityService$1'
p166
sg15
(lp167
sg17
(lp168
sg19
(lp169
sg21
I0
sba(iArchitecture
Entity
p170
(dp171
g11
(lp172
sg13
S'android.accessibilityservice.AccessibilityService$Callbacks'
p173
sg15
(lp174
sg17
(lp175
sg19
(lp176
sg21
I0
sba(iArchitecture
Entity
p177
(dp178
g11
(lp179
sg13
S'android.accessibilityservice.AccessibilityService$IAccessibilityServiceClientWrapper'
p180
sg15
(lp181
sg17
(lp182
sg19
(lp183
sg21
I0
sba(iArchitecture
Entity
p184
(dp185
g11
(lp186
sg13
S'android.accessibilityservice.AccessibilityServiceInfo'
p187
sg15
(lp188
sg17
(lp189
sg19
(lp190
sg21
I0
sba(iArchitecture
Entity
p191
(dp192
g11
(lp193
sg13
S'android.accessibilityservice.AccessibilityServiceInfo$1'
p194
sg15
(lp195
sg17
(lp196
sg19
(lp197
sg21
I0
sba(iArchitecture
Entity
p198
(dp199
g11
(lp200
sg13
S'android.accessibilityservice.AccessibilityServiceInfo$CapabilityInfo'
p201
sg15
(lp202
sg17
(lp203
sg19
(lp204
sg21
I0
sba(iArchitecture
Entity
p205
(dp206
g11
(lp207
sg13
S'android.accounts.AccountManager'
p208
sg15
(lp209
sg17
(lp210
sg19
(lp211
sg21
I0
sba(iArchitecture
Entity
p212
(dp213
g11
(lp214
sg13
S'android.accounts.AccountManager$1'
p215
sg15
(lp216
sg17
(lp217
sg19
(lp218
sg21
I0
sba(iArchitecture
Entity
p219
(dp220
g11
(lp221
sg13
S'android.accounts.AccountManager$10'
p222
sg15
(lp223
sg17
(lp224
sg19
(lp225
sg21
I0
sba(iArchitecture
Entity
p226
(dp227
g11
(lp228
sg13
S'android.accounts.AccountManager$11'
p229
sg15
(lp230
sg17
(lp231
sg19
(lp232
sg21
I0
sba(iArchitecture
Entity
p233
(dp234
g11
(lp235
sg13
S'android.accounts.AccountManager$12'
p236
sg15
(lp237
sg17
(lp238
sg19
(lp239
sg21
I0
sba(iArchitecture
Entity
p240
(dp241
g11
(lp242
sg13
S'android.accounts.AccountManager$13'
p243
sg15
(lp244
sg17
(lp245
sg19
(lp246
sg21
I0
sba(iArchitecture
Entity
p247
(dp248
g11
(lp249
sg13
S'android.accounts.AccountManager$14'
p250
sg15
(lp251
sg17
(lp252
sg19
(lp253
sg21
I0
sba(iArchitecture
Entity
p254
(dp255
g11
(lp256
sg13
S'android.accounts.AccountManager$15'
p257
sg15
(lp258
sg17
(lp259
sg19
(lp260
sg21
I0
sba(iArchitecture
Entity
p261
(dp262
g11
(lp263
sg13
S'android.accounts.AccountManager$16'
p264
sg15
(lp265
sg17
(lp266
sg19
(lp267
sg21
I0
sba(iArchitecture
Entity
p268
(dp269
g11
(lp270
sg13
S'android.accounts.AccountManager$17'
p271
sg15
(lp272
sg17
(lp273
sg19
(lp274
sg21
I0
sba(iArchitecture
Entity
p275
(dp276
g11
(lp277
sg13
S'android.accounts.AccountManager$18'
p278
sg15
(lp279
sg17
(lp280
sg19
(lp281
sg21
I0
sba(iArchitecture
Entity
p282
(dp283
g11
(lp284
sg13
S'android.accounts.AccountManager$19'
p285
sg15
(lp286
sg17
(lp287
sg19
(lp288
sg21
I0
sba(iArchitecture
Entity
p289
(dp290
g11
(lp291
sg13
S'android.accounts.AccountManager$2'
p292
sg15
(lp293
sg17
(lp294
sg19
(lp295
sg21
I0
sba(iArchitecture
Entity
p296
(dp297
g11
(lp298
sg13
S'android.accounts.AccountManager$3'
p299
sg15
(lp300
sg17
(lp301
sg19
(lp302
sg21
I0
sba(iArchitecture
Entity
p303
(dp304
g11
(lp305
sg13
S'android.accounts.AccountManager$4'
p306
sg15
(lp307
sg17
(lp308
sg19
(lp309
sg21
I0
sba(iArchitecture
Entity
p310
(dp311
g11
(lp312
sg13
S'android.accounts.AccountManager$5'
p313
sg15
(lp314
sg17
(lp315
sg19
(lp316
sg21
I0
sba(iArchitecture
Entity
p317
(dp318
g11
(lp319
sg13
S'android.accounts.AccountManager$6'
p320
sg15
(lp321
sg17
(lp322
sg19
(lp323
sg21
I0
sba(iArchitecture
Entity
p324
(dp325
g11
(lp326
sg13
S'android.accounts.AccountManager$7'
p327
sg15
(lp328
sg17
(lp329
sg19
(lp330
sg21
I0
sba(iArchitecture
Entity
p331
(dp332
g11
(lp333
sg13
S'android.accounts.AccountManager$8'
p334
sg15
(lp335
sg17
(lp336
sg19
(lp337
sg21
I0
sba(iArchitecture
Entity
p338
(dp339
g11
(lp340
sg13
S'android.accounts.AccountManager$9'
p341
sg15
(lp342
sg17
(lp343
sg19
(lp344
sg21
I0
sba(iArchitecture
Entity
p345
(dp346
g11
(lp347
sg13
S'android.accounts.AccountManager$AmsTask'
p348
sg15
(lp349
sg17
(lp350
sg19
(lp351
sg21
I0
sba(iArchitecture
Entity
p352
(dp353
g11
(lp354
sg13
S'android.accounts.AccountManager$AmsTask$1'
p355
sg15
(lp356
sg17
(lp357
sg19
(lp358
sg21
I0
sba(iArchitecture
Entity
p359
(dp360
g11
(lp361
sg13
S'android.accounts.AccountManager$AmsTask$Response'
p362
sg15
(lp363
sg17
(lp364
sg19
(lp365
sg21
I0
sba(iArchitecture
Entity
p366
(dp367
g11
(lp368
sg13
S'android.accounts.AccountManager$BaseFutureTask'
p369
sg15
(lp370
sg17
(lp371
sg19
(lp372
sg21
I0
sba(iArchitecture
Entity
p373
(dp374
g11
(lp375
sg13
S'android.accounts.AccountManager$BaseFutureTask$1'
p376
sg15
(lp377
sg17
(lp378
sg19
(lp379
sg21
I0
sba(iArchitecture
Entity
p380
(dp381
g11
(lp382
sg13
S'android.accounts.AccountManager$BaseFutureTask$Response'
p383
sg15
(lp384
sg17
(lp385
sg19
(lp386
sg21
I0
sba(iArchitecture
Entity
p387
(dp388
g11
(lp389
sg13
S'android.accounts.AccountManager$Future2Task'
p390
sg15
(lp391
sg17
(lp392
sg19
(lp393
sg21
I0
sba(iArchitecture
Entity
p394
(dp395
g11
(lp396
sg13
S'android.accounts.AccountManager$Future2Task$1'
p397
sg15
(lp398
sg17
(lp399
sg19
(lp400
sg21
I0
sba(iArchitecture
Entity
p401
(dp402
g11
(lp403
sg13
S'android.accounts.AccountManager$GetAuthTokenByTypeAndFeaturesTask'
p404
sg15
(lp405
sg17
(lp406
sg19
(lp407
sg21
I0
sba(iArchitecture
Entity
p408
(dp409
g11
(lp410
sg13
S'android.accounts.AccountManager$GetAuthTokenByTypeAndFeaturesTask$1'
p411
sg15
(lp412
sg17
(lp413
sg19
(lp414
sg21
I0
sba(iArchitecture
Entity
p415
(dp416
g11
(lp417
sg13
S'android.accounts.AccountManager$GetAuthTokenByTypeAndFeaturesTask$1$1'
p418
sg15
(lp419
sg17
(lp420
sg19
(lp421
sg21
I0
sba(iArchitecture
Entity
p422
(dp423
g11
(lp424
sg13
S'android.animation.AnimatorInflater'
p425
sg15
(lp426
sg17
(lp427
sg19
(lp428
sg21
I0
sba(iArchitecture
Entity
p429
(dp430
g11
(lp431
sg13
S'android.animation.AnimatorInflater$PathDataEvaluator'
p432
sg15
(lp433
sg17
(lp434
sg19
(lp435
sg21
I0
sba(iArchitecture
Entity
p436
(dp437
g11
(lp438
sg13
S'android.animation.StateListAnimator'
p439
sg15
(lp440
sg17
(lp441
sg19
(lp442
sg21
I0
sba(iArchitecture
Entity
p443
(dp444
g11
(lp445
sg13
S'android.animation.StateListAnimator$1'
p446
sg15
(lp447
sg17
(lp448
sg19
(lp449
sg21
I0
sba(iArchitecture
Entity
p450
(dp451
g11
(lp452
sg13
S'android.animation.StateListAnimator$StateListAnimatorConstantState'
p453
sg15
(lp454
sg17
(lp455
sg19
(lp456
sg21
I0
sba(iArchitecture
Entity
p457
(dp458
g11
(lp459
sg13
S'android.animation.StateListAnimator$Tuple'
p460
sg15
(lp461
sg17
(lp462
sg19
(lp463
sg21
I0
sba(iArchitecture
Entity
p464
(dp465
g11
(lp466
sg13
S'android.app.ActivityManagerInternal'
p467
sg15
(lp468
sg17
(lp469
sg19
(lp470
sg21
I0
sba(iArchitecture
Entity
p471
(dp472
g11
(lp473
sg13
S'android.app.ActivityManagerInternal$SleepToken'
p474
sg15
(lp475
sg17
(lp476
sg19
(lp477
sg21
I0
sba(iArchitecture
Entity
p478
(dp479
g11
(lp480
sg13
S'android.app.Dialog'
p481
sg15
(lp482
sg17
(lp483
sg19
(lp484
sg21
I0
sba(iArchitecture
Entity
p485
(dp486
g11
(lp487
sg13
S'android.app.Dialog$1'
p488
sg15
(lp489
sg17
(lp490
sg19
(lp491
sg21
I0
sba(iArchitecture
Entity
p492
(dp493
g11
(lp494
sg13
S'android.app.Dialog$ListenersHandler'
p495
sg15
(lp496
sg17
(lp497
sg19
(lp498
sg21
I0
sba(iArchitecture
Entity
p499
(dp500
g11
(lp501
sg13
S'android.app.ExpandableListActivity'
p502
sg15
(lp503
sg17
(lp504
sg19
(lp505
sg21
I0
sba(iArchitecture
Entity
p506
(dp507
g11
(lp508
sg13
S'android.app.KeyguardManager'
p509
sg15
(lp510
sg17
(lp511
sg19
(lp512
sg21
I0
sba(iArchitecture
Entity
p513
(dp514
g11
(lp515
sg13
S'android.app.KeyguardManager$1'
p516
sg15
(lp517
sg17
(lp518
sg19
(lp519
sg21
I0
sba(iArchitecture
Entity
p520
(dp521
g11
(lp522
sg13
S'android.app.KeyguardManager$KeyguardLock'
p523
sg15
(lp524
sg17
(lp525
sg19
(lp526
sg21
I0
sba(iArchitecture
Entity
p527
(dp528
g11
(lp529
sg13
S'android.app.KeyguardManager$OnKeyguardExitResult'
p530
sg15
(lp531
sg17
(lp532
sg19
(lp533
sg21
I0
sba(iArchitecture
Entity
p534
(dp535
g11
(lp536
sg13
S'android.app.LauncherActivity'
p537
sg15
(lp538
sg17
(lp539
sg19
(lp540
sg21
I0
sba(iArchitecture
Entity
p541
(dp542
g11
(lp543
sg13
S'android.app.LauncherActivity$1'
p544
sg15
(lp545
sg17
(lp546
sg19
(lp547
sg21
I0
sba(iArchitecture
Entity
p548
(dp549
g11
(lp550
sg13
S'android.app.LauncherActivity$ActivityAdapter'
p551
sg15
(lp552
sg17
(lp553
sg19
(lp554
sg21
I0
sba(iArchitecture
Entity
p555
(dp556
g11
(lp557
sg13
S'android.app.LauncherActivity$ActivityAdapter$ArrayFilter'
p558
sg15
(lp559
sg17
(lp560
sg19
(lp561
sg21
I0
sba(iArchitecture
Entity
p562
(dp563
g11
(lp564
sg13
S'android.app.LauncherActivity$IconResizer'
p565
sg15
(lp566
sg17
(lp567
sg19
(lp568
sg21
I0
sba(iArchitecture
Entity
p569
(dp570
g11
(lp571
sg13
S'android.app.LauncherActivity$ListItem'
p572
sg15
(lp573
sg17
(lp574
sg19
(lp575
sg21
I0
sba(iArchitecture
Entity
p576
(dp577
g11
(lp578
sg13
S'android.app.ListActivity'
p579
sg15
(lp580
sg17
(lp581
sg19
(lp582
sg21
I0
sba(iArchitecture
Entity
p583
(dp584
g11
(lp585
sg13
S'android.app.ListActivity$1'
p586
sg15
(lp587
sg17
(lp588
sg19
(lp589
sg21
I0
sba(iArchitecture
Entity
p590
(dp591
g11
(lp592
sg13
S'android.app.ListActivity$2'
p593
sg15
(lp594
sg17
(lp595
sg19
(lp596
sg21
I0
sba(iArchitecture
Entity
p597
(dp598
g11
(lp599
sg13
S'android.app.ListFragment'
p600
sg15
(lp601
sg17
(lp602
sg19
(lp603
sg21
I0
sba(iArchitecture
Entity
p604
(dp605
g11
(lp606
sg13
S'android.app.ListFragment$1'
p607
sg15
(lp608
sg17
(lp609
sg19
(lp610
sg21
I0
sba(iArchitecture
Entity
p611
(dp612
g11
(lp613
sg13
S'android.app.ListFragment$2'
p614
sg15
(lp615
sg17
(lp616
sg19
(lp617
sg21
I0
sba(iArchitecture
Entity
p618
(dp619
g11
(lp620
sg13
S'android.app.UiAutomation'
p621
sg15
(lp622
sg17
(lp623
sg19
(lp624
sg21
I0
sba(iArchitecture
Entity
p625
(dp626
g11
(lp627
sg13
S'android.app.UiAutomation$AccessibilityEventFilter'
p628
sg15
(lp629
sg17
(lp630
sg19
(lp631
sg21
I0
sba(iArchitecture
Entity
p632
(dp633
g11
(lp634
sg13
S'android.app.UiAutomation$IAccessibilityServiceClientImpl'
p635
sg15
(lp636
sg17
(lp637
sg19
(lp638
sg21
I0
sba(iArchitecture
Entity
p639
(dp640
g11
(lp641
sg13
S'android.app.UiAutomation$IAccessibilityServiceClientImpl$1'
p642
sg15
(lp643
sg17
(lp644
sg19
(lp645
sg21
I0
sba(iArchitecture
Entity
p646
(dp647
g11
(lp648
sg13
S'android.app.UiAutomation$OnAccessibilityEventListener'
p649
sg15
(lp650
sg17
(lp651
sg19
(lp652
sg21
I0
sba(iArchitecture
Entity
p653
(dp654
g11
(lp655
sg13
S'android.app.UiAutomationConnection'
p656
sg15
(lp657
sg17
(lp658
sg19
(lp659
sg21
I0
sba(iArchitecture
Entity
p660
(dp661
g11
(lp662
sg13
S'android.app.UiAutomationConnection$1'
p663
sg15
(lp664
sg17
(lp665
sg19
(lp666
sg21
I0
sba(iArchitecture
Entity
p667
(dp668
g11
(lp669
sg13
S'android.app.WallpaperInfo'
p670
sg15
(lp671
sg17
(lp672
sg19
(lp673
sg21
I0
sba(iArchitecture
Entity
p674
(dp675
g11
(lp676
sg13
S'android.app.WallpaperInfo$1'
p677
sg15
(lp678
sg17
(lp679
sg19
(lp680
sg21
I0
sba(iArchitecture
Entity
p681
(dp682
g11
(lp683
sg13
S'android.app.job.JobParameters'
p684
sg15
(lp685
sg17
(lp686
sg19
(lp687
sg21
I0
sba(iArchitecture
Entity
p688
(dp689
g11
(lp690
sg13
S'android.app.job.JobParameters$1'
p691
sg15
(lp692
sg17
(lp693
sg19
(lp694
sg21
I0
sba(iArchitecture
Entity
p695
(dp696
g11
(lp697
sg13
S'android.app.job.JobScheduler'
p698
sg15
(lp699
sg17
(lp700
sg19
(lp701
sg21
I0
sba(iArchitecture
Entity
p702
(dp703
g11
(lp704
sg13
S'android.bluetooth.BluetoothA2dpSink'
p705
sg15
(lp706
sg17
(lp707
sg19
(lp708
sg21
I0
sba(iArchitecture
Entity
p709
(dp710
g11
(lp711
sg13
S'android.bluetooth.BluetoothA2dpSink$1'
p712
sg15
(lp713
sg17
(lp714
sg19
(lp715
sg21
I0
sba(iArchitecture
Entity
p716
(dp717
g11
(lp718
sg13
S'android.bluetooth.BluetoothA2dpSink$2'
p719
sg15
(lp720
sg17
(lp721
sg19
(lp722
sg21
I0
sba(iArchitecture
Entity
p723
(dp724
g11
(lp725
sg13
S'android.bluetooth.BluetoothAdapter'
p726
sg15
(lp727
sg17
(lp728
sg19
(lp729
sg21
I0
sba(iArchitecture
Entity
p730
(dp731
g11
(lp732
sg13
S'android.bluetooth.BluetoothAdapter$1'
p733
sg15
(lp734
sg17
(lp735
sg19
(lp736
sg21
I0
sba(iArchitecture
Entity
p737
(dp738
g11
(lp739
sg13
S'android.bluetooth.BluetoothAdapter$2'
p740
sg15
(lp741
sg17
(lp742
sg19
(lp743
sg21
I0
sba(iArchitecture
Entity
p744
(dp745
g11
(lp746
sg13
S'android.bluetooth.BluetoothAdapter$BluetoothStateChangeCallback'
p747
sg15
(lp748
sg17
(lp749
sg19
(lp750
sg21
I0
sba(iArchitecture
Entity
p751
(dp752
g11
(lp753
sg13
S'android.bluetooth.BluetoothAdapter$LeScanCallback'
p754
sg15
(lp755
sg17
(lp756
sg19
(lp757
sg21
I0
sba(iArchitecture
Entity
p758
(dp759
g11
(lp760
sg13
S'android.bluetooth.BluetoothAdapter$StateChangeCallbackWrapper'
p761
sg15
(lp762
sg17
(lp763
sg19
(lp764
sg21
I0
sba(iArchitecture
Entity
p765
(dp766
g11
(lp767
sg13
S'android.bluetooth.BluetoothAvrcpController'
p768
sg15
(lp769
sg17
(lp770
sg19
(lp771
sg21
I0
sba(iArchitecture
Entity
p772
(dp773
g11
(lp774
sg13
S'android.bluetooth.BluetoothAvrcpController$1'
p775
sg15
(lp776
sg17
(lp777
sg19
(lp778
sg21
I0
sba(iArchitecture
Entity
p779
(dp780
g11
(lp781
sg13
S'android.bluetooth.BluetoothAvrcpController$2'
p782
sg15
(lp783
sg17
(lp784
sg19
(lp785
sg21
I0
sba(iArchitecture
Entity
p786
(dp787
g11
(lp788
sg13
S'android.bluetooth.BluetoothDevice'
p789
sg15
(lp790
sg17
(lp791
sg19
(lp792
sg21
I0
sba(iArchitecture
Entity
p793
(dp794
g11
(lp795
sg13
S'android.bluetooth.BluetoothDevice$1'
p796
sg15
(lp797
sg17
(lp798
sg19
(lp799
sg21
I0
sba(iArchitecture
Entity
p800
(dp801
g11
(lp802
sg13
S'android.bluetooth.BluetoothDevice$2'
p803
sg15
(lp804
sg17
(lp805
sg19
(lp806
sg21
I0
sba(iArchitecture
Entity
p807
(dp808
g11
(lp809
sg13
S'android.bluetooth.BluetoothHeadset'
p810
sg15
(lp811
sg17
(lp812
sg19
(lp813
sg21
I0
sba(iArchitecture
Entity
p814
(dp815
g11
(lp816
sg13
S'android.bluetooth.BluetoothHeadset$1'
p817
sg15
(lp818
sg17
(lp819
sg19
(lp820
sg21
I0
sba(iArchitecture
Entity
p821
(dp822
g11
(lp823
sg13
S'android.bluetooth.BluetoothHeadset$2'
p824
sg15
(lp825
sg17
(lp826
sg19
(lp827
sg21
I0
sba(iArchitecture
Entity
p828
(dp829
g11
(lp830
sg13
S'android.bluetooth.BluetoothHeadset$3'
p831
sg15
(lp832
sg17
(lp833
sg19
(lp834
sg21
I0
sba(iArchitecture
Entity
p835
(dp836
g11
(lp837
sg13
S'android.bluetooth.BluetoothHeadsetClient'
p838
sg15
(lp839
sg17
(lp840
sg19
(lp841
sg21
I0
sba(iArchitecture
Entity
p842
(dp843
g11
(lp844
sg13
S'android.bluetooth.BluetoothHeadsetClient$1'
p845
sg15
(lp846
sg17
(lp847
sg19
(lp848
sg21
I0
sba(iArchitecture
Entity
p849
(dp850
g11
(lp851
sg13
S'android.bluetooth.BluetoothHeadsetClient$2'
p852
sg15
(lp853
sg17
(lp854
sg19
(lp855
sg21
I0
sba(iArchitecture
Entity
p856
(dp857
g11
(lp858
sg13
S'android.bluetooth.BluetoothInputDevice'
p859
sg15
(lp860
sg17
(lp861
sg19
(lp862
sg21
I0
sba(iArchitecture
Entity
p863
(dp864
g11
(lp865
sg13
S'android.bluetooth.BluetoothInputDevice$1'
p866
sg15
(lp867
sg17
(lp868
sg19
(lp869
sg21
I0
sba(iArchitecture
Entity
p870
(dp871
g11
(lp872
sg13
S'android.bluetooth.BluetoothInputDevice$2'
p873
sg15
(lp874
sg17
(lp875
sg19
(lp876
sg21
I0
sba(iArchitecture
Entity
p877
(dp878
g11
(lp879
sg13
S'android.bluetooth.BluetoothMap'
p880
sg15
(lp881
sg17
(lp882
sg19
(lp883
sg21
I0
sba(iArchitecture
Entity
p884
(dp885
g11
(lp886
sg13
S'android.bluetooth.BluetoothMap$1'
p887
sg15
(lp888
sg17
(lp889
sg19
(lp890
sg21
I0
sba(iArchitecture
Entity
p891
(dp892
g11
(lp893
sg13
S'android.bluetooth.BluetoothMap$2'
p894
sg15
(lp895
sg17
(lp896
sg19
(lp897
sg21
I0
sba(iArchitecture
Entity
p898
(dp899
g11
(lp900
sg13
S'android.bluetooth.BluetoothPan'
p901
sg15
(lp902
sg17
(lp903
sg19
(lp904
sg21
I0
sba(iArchitecture
Entity
p905
(dp906
g11
(lp907
sg13
S'android.bluetooth.BluetoothPan$1'
p908
sg15
(lp909
sg17
(lp910
sg19
(lp911
sg21
I0
sba(iArchitecture
Entity
p912
(dp913
g11
(lp914
sg13
S'android.bluetooth.BluetoothPan$2'
p915
sg15
(lp916
sg17
(lp917
sg19
(lp918
sg21
I0
sba(iArchitecture
Entity
p919
(dp920
g11
(lp921
sg13
S'android.bluetooth.BluetoothPbap'
p922
sg15
(lp923
sg17
(lp924
sg19
(lp925
sg21
I0
sba(iArchitecture
Entity
p926
(dp927
g11
(lp928
sg13
S'android.bluetooth.BluetoothPbap$1'
p929
sg15
(lp930
sg17
(lp931
sg19
(lp932
sg21
I0
sba(iArchitecture
Entity
p933
(dp934
g11
(lp935
sg13
S'android.bluetooth.BluetoothPbap$2'
p936
sg15
(lp937
sg17
(lp938
sg19
(lp939
sg21
I0
sba(iArchitecture
Entity
p940
(dp941
g11
(lp942
sg13
S'android.bluetooth.BluetoothPbap$ServiceListener'
p943
sg15
(lp944
sg17
(lp945
sg19
(lp946
sg21
I0
sba(iArchitecture
Entity
p947
(dp948
g11
(lp949
sg13
S'android.bluetooth.BluetoothSap'
p950
sg15
(lp951
sg17
(lp952
sg19
(lp953
sg21
I0
sba(iArchitecture
Entity
p954
(dp955
g11
(lp956
sg13
S'android.bluetooth.BluetoothSap$1'
p957
sg15
(lp958
sg17
(lp959
sg19
(lp960
sg21
I0
sba(iArchitecture
Entity
p961
(dp962
g11
(lp963
sg13
S'android.bluetooth.BluetoothSap$2'
p964
sg15
(lp965
sg17
(lp966
sg19
(lp967
sg21
I0
sba(iArchitecture
Entity
p968
(dp969
g11
(lp970
sg13
S'android.content.pm.PackageItemInfo'
p971
sg15
(lp972
sg17
(lp973
sg19
(lp974
sg21
I0
sba(iArchitecture
Entity
p975
(dp976
g11
(lp977
sg13
S'android.content.pm.PackageItemInfo$DisplayNameComparator'
p978
sg15
(lp979
sg17
(lp980
sg19
(lp981
sg21
I0
sba(iArchitecture
Entity
p982
(dp983
g11
(lp984
sg13
S'android.content.pm.ResolveInfo'
p985
sg15
(lp986
sg17
(lp987
sg19
(lp988
sg21
I0
sba(iArchitecture
Entity
p989
(dp990
g11
(lp991
sg13
S'android.content.pm.ResolveInfo$1'
p992
sg15
(lp993
sg17
(lp994
sg19
(lp995
sg21
I0
sba(iArchitecture
Entity
p996
(dp997
g11
(lp998
sg13
S'android.content.pm.ResolveInfo$DisplayNameComparator'
p999
sg15
(lp1000
sg17
(lp1001
sg19
(lp1002
sg21
I0
sba(iArchitecture
Entity
p1003
(dp1004
g11
(lp1005
sg13
S'android.content.res.Resources'
p1006
sg15
(lp1007
sg17
(lp1008
sg19
(lp1009
sg21
I0
sba(iArchitecture
Entity
p1010
(dp1011
g11
(lp1012
sg13
S'android.content.res.Resources$NotFoundException'
p1013
sg15
(lp1014
sg17
(lp1015
sg19
(lp1016
sg21
I0
sba(iArchitecture
Entity
p1017
(dp1018
g11
(lp1019
sg13
S'android.content.res.Resources$Theme'
p1020
sg15
(lp1021
sg17
(lp1022
sg19
(lp1023
sg21
I0
sba(iArchitecture
Entity
p1024
(dp1025
g11
(lp1026
sg13
S'android.content.res.Resources$ThemeKey'
p1027
sg15
(lp1028
sg17
(lp1029
sg19
(lp1030
sg21
I0
sba(iArchitecture
Entity
p1031
(dp1032
g11
(lp1033
sg13
S'android.graphics.drawable.Drawable'
p1034
sg15
(lp1035
sg17
(lp1036
sg19
(lp1037
sg21
I0
sba(iArchitecture
Entity
p1038
(dp1039
g11
(lp1040
sg13
S'android.graphics.drawable.Drawable$Callback'
p1041
sg15
(lp1042
sg17
(lp1043
sg19
(lp1044
sg21
I0
sba(iArchitecture
Entity
p1045
(dp1046
g11
(lp1047
sg13
S'android.graphics.drawable.Drawable$ConstantState'
p1048
sg15
(lp1049
sg17
(lp1050
sg19
(lp1051
sg21
I0
sba(iArchitecture
Entity
p1052
(dp1053
g11
(lp1054
sg13
S'android.inputmethodservice.InputMethodService'
p1055
sg15
(lp1056
sg17
(lp1057
sg19
(lp1058
sg21
I0
sba(iArchitecture
Entity
p1059
(dp1060
g11
(lp1061
sg13
S'android.inputmethodservice.InputMethodService$1'
p1062
sg15
(lp1063
sg17
(lp1064
sg19
(lp1065
sg21
I0
sba(iArchitecture
Entity
p1066
(dp1067
g11
(lp1068
sg13
S'android.inputmethodservice.InputMethodService$2'
p1069
sg15
(lp1070
sg17
(lp1071
sg19
(lp1072
sg21
I0
sba(iArchitecture
Entity
p1073
(dp1074
g11
(lp1075
sg13
S'android.inputmethodservice.InputMethodService$InputMethodImpl'
p1076
sg15
(lp1077
sg17
(lp1078
sg19
(lp1079
sg21
I0
sba(iArchitecture
Entity
p1080
(dp1081
g11
(lp1082
sg13
S'android.inputmethodservice.InputMethodService$InputMethodSessionImpl'
p1083
sg15
(lp1084
sg17
(lp1085
sg19
(lp1086
sg21
I0
sba(iArchitecture
Entity
p1087
(dp1088
g11
(lp1089
sg13
S'android.inputmethodservice.InputMethodService$Insets'
p1090
sg15
(lp1091
sg17
(lp1092
sg19
(lp1093
sg21
I0
sba(iArchitecture
Entity
p1094
(dp1095
g11
(lp1096
sg13
S'android.media.AudioFocusInfo'
p1097
sg15
(lp1098
sg17
(lp1099
sg19
(lp1100
sg21
I0
sba(iArchitecture
Entity
p1101
(dp1102
g11
(lp1103
sg13
S'android.media.AudioFocusInfo$1'
p1104
sg15
(lp1105
sg17
(lp1106
sg19
(lp1107
sg21
I0
sba(iArchitecture
Entity
p1108
(dp1109
g11
(lp1110
sg13
S'android.media.tv.TvInputInfo'
p1111
sg15
(lp1112
sg17
(lp1113
sg19
(lp1114
sg21
I0
sba(iArchitecture
Entity
p1115
(dp1116
g11
(lp1117
sg13
S'android.media.tv.TvInputInfo$1'
p1118
sg15
(lp1119
sg17
(lp1120
sg19
(lp1121
sg21
I0
sba(iArchitecture
Entity
p1122
(dp1123
g11
(lp1124
sg13
S'android.media.tv.TvInputInfo$TvInputSettings'
p1125
sg15
(lp1126
sg17
(lp1127
sg19
(lp1128
sg21
I0
sba(iArchitecture
Entity
p1129
(dp1130
g11
(lp1131
sg13
S'android.net.NetworkInfo'
p1132
sg15
(lp1133
sg17
(lp1134
sg19
(lp1135
sg21
I0
sba(iArchitecture
Entity
p1136
(dp1137
g11
(lp1138
sg13
S'android.net.NetworkInfo$1'
p1139
sg15
(lp1140
sg17
(lp1141
sg19
(lp1142
sg21
I0
sba(iArchitecture
Entity
p1143
(dp1144
g11
(lp1145
sg13
S'android.net.NetworkInfo$DetailedState'
p1146
sg15
(lp1147
sg17
(lp1148
sg19
(lp1149
sg21
I0
sba(iArchitecture
Entity
p1150
(dp1151
g11
(lp1152
sg13
S'android.net.NetworkInfo$State'
p1153
sg15
(lp1154
sg17
(lp1155
sg19
(lp1156
sg21
I0
sba(iArchitecture
Entity
p1157
(dp1158
g11
(lp1159
sg13
S'android.net.wifi.WifiManager'
p1160
sg15
(lp1161
sg17
(lp1162
sg19
(lp1163
sg21
I0
sba(iArchitecture
Entity
p1164
(dp1165
g11
(lp1166
sg13
S'android.net.wifi.WifiManager$ActionListener'
p1167
sg15
(lp1168
sg17
(lp1169
sg19
(lp1170
sg21
I0
sba(iArchitecture
Entity
p1171
(dp1172
g11
(lp1173
sg13
S'android.net.wifi.WifiManager$MulticastLock'
p1174
sg15
(lp1175
sg17
(lp1176
sg19
(lp1177
sg21
I0
sba(iArchitecture
Entity
p1178
(dp1179
g11
(lp1180
sg13
S'android.net.wifi.WifiManager$PinningNetworkCallback'
p1181
sg15
(lp1182
sg17
(lp1183
sg19
(lp1184
sg21
I0
sba(iArchitecture
Entity
p1185
(dp1186
g11
(lp1187
sg13
S'android.net.wifi.WifiManager$ServiceHandler'
p1188
sg15
(lp1189
sg17
(lp1190
sg19
(lp1191
sg21
I0
sba(iArchitecture
Entity
p1192
(dp1193
g11
(lp1194
sg13
S'android.net.wifi.WifiManager$TxPacketCountListener'
p1195
sg15
(lp1196
sg17
(lp1197
sg19
(lp1198
sg21
I0
sba(iArchitecture
Entity
p1199
(dp1200
g11
(lp1201
sg13
S'android.net.wifi.WifiManager$WifiLock'
p1202
sg15
(lp1203
sg17
(lp1204
sg19
(lp1205
sg21
I0
sba(iArchitecture
Entity
p1206
(dp1207
g11
(lp1208
sg13
S'android.net.wifi.WifiManager$WpsCallback'
p1209
sg15
(lp1210
sg17
(lp1211
sg19
(lp1212
sg21
I0
sba(iArchitecture
Entity
p1213
(dp1214
g11
(lp1215
sg13
S'android.os.RemoteCallbackList'
p1216
sg15
(lp1217
sg17
(lp1218
sg19
(lp1219
sg21
I0
sba(iArchitecture
Entity
p1220
(dp1221
g11
(lp1222
sg13
S'android.os.RemoteCallbackList$Callback'
p1223
sg15
(lp1224
sg17
(lp1225
sg19
(lp1226
sg21
I0
sba(iArchitecture
Entity
p1227
(dp1228
g11
(lp1229
sg13
S'android.print.PrintManager'
p1230
sg15
(lp1231
sg17
(lp1232
sg19
(lp1233
sg21
I0
sba(iArchitecture
Entity
p1234
(dp1235
g11
(lp1236
sg13
S'android.print.PrintManager$1'
p1237
sg15
(lp1238
sg17
(lp1239
sg19
(lp1240
sg21
I0
sba(iArchitecture
Entity
p1241
(dp1242
g11
(lp1243
sg13
S'android.print.PrintManager$PrintDocumentAdapterDelegate'
p1244
sg15
(lp1245
sg17
(lp1246
sg19
(lp1247
sg21
I0
sba(iArchitecture
Entity
p1248
(dp1249
g11
(lp1250
sg13
S'android.print.PrintManager$PrintDocumentAdapterDelegate$DestroyableCallback'
p1251
sg15
(lp1252
sg17
(lp1253
sg19
(lp1254
sg21
I0
sba(iArchitecture
Entity
p1255
(dp1256
g11
(lp1257
sg13
S'android.print.PrintManager$PrintDocumentAdapterDelegate$MyHandler'
p1258
sg15
(lp1259
sg17
(lp1260
sg19
(lp1261
sg21
I0
sba(iArchitecture
Entity
p1262
(dp1263
g11
(lp1264
sg13
S'android.print.PrintManager$PrintDocumentAdapterDelegate$MyLayoutResultCallback'
p1265
sg15
(lp1266
sg17
(lp1267
sg19
(lp1268
sg21
I0
sba(iArchitecture
Entity
p1269
(dp1270
g11
(lp1271
sg13
S'android.print.PrintManager$PrintDocumentAdapterDelegate$MyWriteResultCallback'
p1272
sg15
(lp1273
sg17
(lp1274
sg19
(lp1275
sg21
I0
sba(iArchitecture
Entity
p1276
(dp1277
g11
(lp1278
sg13
S'android.print.PrintManager$PrintJobStateChangeListener'
p1279
sg15
(lp1280
sg17
(lp1281
sg19
(lp1282
sg21
I0
sba(iArchitecture
Entity
p1283
(dp1284
g11
(lp1285
sg13
S'android.print.PrintManager$PrintJobStateChangeListenerWrapper'
p1286
sg15
(lp1287
sg17
(lp1288
sg19
(lp1289
sg21
I0
sba(iArchitecture
Entity
p1290
(dp1291
g11
(lp1292
sg13
S'android.printservice.PrintService'
p1293
sg15
(lp1294
sg17
(lp1295
sg19
(lp1296
sg21
I0
sba(iArchitecture
Entity
p1297
(dp1298
g11
(lp1299
sg13
S'android.printservice.PrintService$1'
p1300
sg15
(lp1301
sg17
(lp1302
sg19
(lp1303
sg21
I0
sba(iArchitecture
Entity
p1304
(dp1305
g11
(lp1306
sg13
S'android.printservice.PrintService$ServiceHandler'
p1307
sg15
(lp1308
sg17
(lp1309
sg19
(lp1310
sg21
I0
sba(iArchitecture
Entity
p1311
(dp1312
g11
(lp1313
sg13
S'android.provider.CallLog'
p1314
sg15
(lp1315
sg17
(lp1316
sg19
(lp1317
sg21
I0
sba(iArchitecture
Entity
p1318
(dp1319
g11
(lp1320
sg13
S'android.provider.CallLog$Calls'
p1321
sg15
(lp1322
sg17
(lp1323
sg19
(lp1324
sg21
I0
sba(iArchitecture
Entity
p1325
(dp1326
g11
(lp1327
sg13
S'android.service.notification.NotificationListenerService'
p1328
sg15
(lp1329
sg17
(lp1330
sg19
(lp1331
sg21
I0
sba(iArchitecture
Entity
p1332
(dp1333
g11
(lp1334
sg13
S'android.service.notification.NotificationListenerService$INotificationListenerWrapper'
p1335
sg15
(lp1336
sg17
(lp1337
sg19
(lp1338
sg21
I0
sba(iArchitecture
Entity
p1339
(dp1340
g11
(lp1341
sg13
S'android.service.notification.NotificationListenerService$Ranking'
p1342
sg15
(lp1343
sg17
(lp1344
sg19
(lp1345
sg21
I0
sba(iArchitecture
Entity
p1346
(dp1347
g11
(lp1348
sg13
S'android.service.notification.NotificationListenerService$RankingMap'
p1349
sg15
(lp1350
sg17
(lp1351
sg19
(lp1352
sg21
I0
sba(iArchitecture
Entity
p1353
(dp1354
g11
(lp1355
sg13
S'android.service.notification.NotificationListenerService$RankingMap$1'
p1356
sg15
(lp1357
sg17
(lp1358
sg19
(lp1359
sg21
I0
sba(iArchitecture
Entity
p1360
(dp1361
g11
(lp1362
sg13
S'android.speech.RecognitionService'
p1363
sg15
(lp1364
sg17
(lp1365
sg19
(lp1366
sg21
I0
sba(iArchitecture
Entity
p1367
(dp1368
g11
(lp1369
sg13
S'android.speech.RecognitionService$1'
p1370
sg15
(lp1371
sg17
(lp1372
sg19
(lp1373
sg21
I0
sba(iArchitecture
Entity
p1374
(dp1375
g11
(lp1376
sg13
S'android.speech.RecognitionService$2'
p1377
sg15
(lp1378
sg17
(lp1379
sg19
(lp1380
sg21
I0
sba(iArchitecture
Entity
p1381
(dp1382
g11
(lp1383
sg13
S'android.speech.RecognitionService$Callback'
p1384
sg15
(lp1385
sg17
(lp1386
sg19
(lp1387
sg21
I0
sba(iArchitecture
Entity
p1388
(dp1389
g11
(lp1390
sg13
S'android.speech.RecognitionService$RecognitionServiceBinder'
p1391
sg15
(lp1392
sg17
(lp1393
sg19
(lp1394
sg21
I0
sba(iArchitecture
Entity
p1395
(dp1396
g11
(lp1397
sg13
S'android.speech.RecognitionService$StartListeningArgs'
p1398
sg15
(lp1399
sg17
(lp1400
sg19
(lp1401
sg21
I0
sba(iArchitecture
Entity
p1402
(dp1403
g11
(lp1404
sg13
S'android.telecom.Call'
p1405
sg15
(lp1406
sg17
(lp1407
sg19
(lp1408
sg21
I0
sba(iArchitecture
Entity
p1409
(dp1410
g11
(lp1411
sg13
S'android.telecom.Call$1'
p1412
sg15
(lp1413
sg17
(lp1414
sg19
(lp1415
sg21
I0
sba(iArchitecture
Entity
p1416
(dp1417
g11
(lp1418
sg13
S'android.telecom.Call$2'
p1419
sg15
(lp1420
sg17
(lp1421
sg19
(lp1422
sg21
I0
sba(iArchitecture
Entity
p1423
(dp1424
g11
(lp1425
sg13
S'android.telecom.Call$3'
p1426
sg15
(lp1427
sg17
(lp1428
sg19
(lp1429
sg21
I0
sba(iArchitecture
Entity
p1430
(dp1431
g11
(lp1432
sg13
S'android.telecom.Call$4'
p1433
sg15
(lp1434
sg17
(lp1435
sg19
(lp1436
sg21
I0
sba(iArchitecture
Entity
p1437
(dp1438
g11
(lp1439
sg13
S'android.telecom.Call$5'
p1440
sg15
(lp1441
sg17
(lp1442
sg19
(lp1443
sg21
I0
sba(iArchitecture
Entity
p1444
(dp1445
g11
(lp1446
sg13
S'android.telecom.Call$6'
p1447
sg15
(lp1448
sg17
(lp1449
sg19
(lp1450
sg21
I0
sba(iArchitecture
Entity
p1451
(dp1452
g11
(lp1453
sg13
S'android.telecom.Call$7'
p1454
sg15
(lp1455
sg17
(lp1456
sg19
(lp1457
sg21
I0
sba(iArchitecture
Entity
p1458
(dp1459
g11
(lp1460
sg13
S'android.telecom.Call$8'
p1461
sg15
(lp1462
sg17
(lp1463
sg19
(lp1464
sg21
I0
sba(iArchitecture
Entity
p1465
(dp1466
g11
(lp1467
sg13
S'android.telecom.Call$9'
p1468
sg15
(lp1469
sg17
(lp1470
sg19
(lp1471
sg21
I0
sba(iArchitecture
Entity
p1472
(dp1473
g11
(lp1474
sg13
S'android.telecom.Call$Callback'
p1475
sg15
(lp1476
sg17
(lp1477
sg19
(lp1478
sg21
I0
sba(iArchitecture
Entity
p1479
(dp1480
g11
(lp1481
sg13
S'android.telecom.Call$Details'
p1482
sg15
(lp1483
sg17
(lp1484
sg19
(lp1485
sg21
I0
sba(iArchitecture
Entity
p1486
(dp1487
g11
(lp1488
sg13
S'android.telecom.Call$Listener'
p1489
sg15
(lp1490
sg17
(lp1491
sg19
(lp1492
sg21
I0
sba(iArchitecture
Entity
p1493
(dp1494
g11
(lp1495
sg13
S'android.telecom.InCallAdapter'
p1496
sg15
(lp1497
sg17
(lp1498
sg19
(lp1499
sg21
I0
sba(iArchitecture
Entity
p1500
(dp1501
g11
(lp1502
sg13
S'android.telecom.Log'
p1503
sg15
(lp1504
sg17
(lp1505
sg19
(lp1506
sg21
I0
sba(iArchitecture
Entity
p1507
(dp1508
g11
(lp1509
sg13
S'android.telecom.Phone'
p1510
sg15
(lp1511
sg17
(lp1512
sg19
(lp1513
sg21
I0
sba(iArchitecture
Entity
p1514
(dp1515
g11
(lp1516
sg13
S'android.telecom.Phone$Listener'
p1517
sg15
(lp1518
sg17
(lp1519
sg19
(lp1520
sg21
I0
sba(iArchitecture
Entity
p1521
(dp1522
g11
(lp1523
sg13
S'android.telephony.PreciseDisconnectCause'
p1524
sg15
(lp1525
sg17
(lp1526
sg19
(lp1527
sg21
I0
sba(iArchitecture
Entity
p1528
(dp1529
g11
(lp1530
sg13
S'android.telephony.TelephonyManager'
p1531
sg15
(lp1532
sg17
(lp1533
sg19
(lp1534
sg21
I0
sba(iArchitecture
Entity
p1535
(dp1536
g11
(lp1537
sg13
S'android.telephony.TelephonyManager$MultiSimVariants'
p1538
sg15
(lp1539
sg17
(lp1540
sg19
(lp1541
sg21
I0
sba(iArchitecture
Entity
p1542
(dp1543
g11
(lp1544
sg13
S'android.telephony.TelephonyManager$WifiCallingChoices'
p1545
sg15
(lp1546
sg17
(lp1547
sg19
(lp1548
sg21
I0
sba(iArchitecture
Entity
p1549
(dp1550
g11
(lp1551
sg13
S'android.transition.Scene'
p1552
sg15
(lp1553
sg17
(lp1554
sg19
(lp1555
sg21
I0
sba(iArchitecture
Entity
p1556
(dp1557
g11
(lp1558
sg13
S'android.view.FocusFinder'
p1559
sg15
(lp1560
sg17
(lp1561
sg19
(lp1562
sg21
I0
sba(iArchitecture
Entity
p1563
(dp1564
g11
(lp1565
sg13
S'android.view.FocusFinder$1'
p1566
sg15
(lp1567
sg17
(lp1568
sg19
(lp1569
sg21
I0
sba(iArchitecture
Entity
p1570
(dp1571
g11
(lp1572
sg13
S'android.view.FocusFinder$SequentialFocusComparator'
p1573
sg15
(lp1574
sg17
(lp1575
sg19
(lp1576
sg21
I0
sba(iArchitecture
Entity
p1577
(dp1578
g11
(lp1579
sg13
S'android.view.Gravity'
p1580
sg15
(lp1581
sg17
(lp1582
sg19
(lp1583
sg21
I0
sba(iArchitecture
Entity
p1584
(dp1585
g11
(lp1586
sg13
S'android.view.ViewOverlay'
p1587
sg15
(lp1588
sg17
(lp1589
sg19
(lp1590
sg21
I0
sba(iArchitecture
Entity
p1591
(dp1592
g11
(lp1593
sg13
S'android.view.ViewOverlay$OverlayViewGroup'
p1594
sg15
(lp1595
sg17
(lp1596
sg19
(lp1597
sg21
I0
sba(iArchitecture
Entity
p1598
(dp1599
g11
(lp1600
sg13
S'android.view.ViewParent'
p1601
sg15
(lp1602
sg17
(lp1603
sg19
(lp1604
sg21
I0
sba(iArchitecture
Entity
p1605
(dp1606
g11
(lp1607
sg13
S'android.view.ViewStructure'
p1608
sg15
(lp1609
sg17
(lp1610
sg19
(lp1611
sg21
I0
sba(iArchitecture
Entity
p1612
(dp1613
g11
(lp1614
sg13
S'android.view.Window'
p1615
sg15
(lp1616
sg17
(lp1617
sg19
(lp1618
sg21
I0
sba(iArchitecture
Entity
p1619
(dp1620
g11
(lp1621
sg13
S'android.view.Window$Callback'
p1622
sg15
(lp1623
sg17
(lp1624
sg19
(lp1625
sg21
I0
sba(iArchitecture
Entity
p1626
(dp1627
g11
(lp1628
sg13
S'android.view.Window$OnWindowDismissedCallback'
p1629
sg15
(lp1630
sg17
(lp1631
sg19
(lp1632
sg21
I0
sba(iArchitecture
Entity
p1633
(dp1634
g11
(lp1635
sg13
S'android.view.WindowManagerInternal'
p1636
sg15
(lp1637
sg17
(lp1638
sg19
(lp1639
sg21
I0
sba(iArchitecture
Entity
p1640
(dp1641
g11
(lp1642
sg13
S'android.view.WindowManagerInternal$AppTransitionListener'
p1643
sg15
(lp1644
sg17
(lp1645
sg19
(lp1646
sg21
I0
sba(iArchitecture
Entity
p1647
(dp1648
g11
(lp1649
sg13
S'android.view.WindowManagerInternal$MagnificationCallbacks'
p1650
sg15
(lp1651
sg17
(lp1652
sg19
(lp1653
sg21
I0
sba(iArchitecture
Entity
p1654
(dp1655
g11
(lp1656
sg13
S'android.view.WindowManagerInternal$WindowsForAccessibilityCallback'
p1657
sg15
(lp1658
sg17
(lp1659
sg19
(lp1660
sg21
I0
sba(iArchitecture
Entity
p1661
(dp1662
g11
(lp1663
sg13
S'android.view.accessibility.AccessibilityNodeProvider'
p1664
sg15
(lp1665
sg17
(lp1666
sg19
(lp1667
sg21
I0
sba(iArchitecture
Entity
p1668
(dp1669
g11
(lp1670
sg13
S'android.view.inputmethod.InputConnection'
p1671
sg15
(lp1672
sg17
(lp1673
sg19
(lp1674
sg21
I0
sba(iArchitecture
Entity
p1675
(dp1676
g11
(lp1677
sg13
S'android.view.inputmethod.InputMethod'
p1678
sg15
(lp1679
sg17
(lp1680
sg19
(lp1681
sg21
I0
sba(iArchitecture
Entity
p1682
(dp1683
g11
(lp1684
sg13
S'android.view.inputmethod.InputMethod$SessionCallback'
p1685
sg15
(lp1686
sg17
(lp1687
sg19
(lp1688
sg21
I0
sba(iArchitecture
Entity
p1689
(dp1690
g11
(lp1691
sg13
S'android.view.inputmethod.InputMethodManager'
p1692
sg15
(lp1693
sg17
(lp1694
sg19
(lp1695
sg21
I0
sba(iArchitecture
Entity
p1696
(dp1697
g11
(lp1698
sg13
S'android.view.inputmethod.InputMethodManager$1'
p1699
sg15
(lp1700
sg17
(lp1701
sg19
(lp1702
sg21
I0
sba(iArchitecture
Entity
p1703
(dp1704
g11
(lp1705
sg13
S'android.view.inputmethod.InputMethodManager$2'
p1706
sg15
(lp1707
sg17
(lp1708
sg19
(lp1709
sg21
I0
sba(iArchitecture
Entity
p1710
(dp1711
g11
(lp1712
sg13
S'android.view.inputmethod.InputMethodManager$ControlledInputConnectionWrapper'
p1713
sg15
(lp1714
sg17
(lp1715
sg19
(lp1716
sg21
I0
sba(iArchitecture
Entity
p1717
(dp1718
g11
(lp1719
sg13
S'android.view.inputmethod.InputMethodManager$FinishedInputEventCallback'
p1720
sg15
(lp1721
sg17
(lp1722
sg19
(lp1723
sg21
I0
sba(iArchitecture
Entity
p1724
(dp1725
g11
(lp1726
sg13
S'android.view.inputmethod.InputMethodManager$H'
p1727
sg15
(lp1728
sg17
(lp1729
sg19
(lp1730
sg21
I0
sba(iArchitecture
Entity
p1731
(dp1732
g11
(lp1733
sg13
S'android.view.inputmethod.InputMethodManager$ImeInputEventSender'
p1734
sg15
(lp1735
sg17
(lp1736
sg19
(lp1737
sg21
I0
sba(iArchitecture
Entity
p1738
(dp1739
g11
(lp1740
sg13
S'android.view.inputmethod.InputMethodManager$PendingEvent'
p1741
sg15
(lp1742
sg17
(lp1743
sg19
(lp1744
sg21
I0
sba(iArchitecture
Entity
p1745
(dp1746
g11
(lp1747
sg13
S'android.view.inputmethod.InputMethodSession'
p1748
sg15
(lp1749
sg17
(lp1750
sg19
(lp1751
sg21
I0
sba(iArchitecture
Entity
p1752
(dp1753
g11
(lp1754
sg13
S'android.view.inputmethod.InputMethodSession$EventCallback'
p1755
sg15
(lp1756
sg17
(lp1757
sg19
(lp1758
sg21
I0
sba(iArchitecture
Entity
p1759
(dp1760
g11
(lp1761
sg13
S'android.webkit.WebChromeClient'
p1762
sg15
(lp1763
sg17
(lp1764
sg19
(lp1765
sg21
I0
sba(iArchitecture
Entity
p1766
(dp1767
g11
(lp1768
sg13
S'android.webkit.WebChromeClient$CustomViewCallback'
p1769
sg15
(lp1770
sg17
(lp1771
sg19
(lp1772
sg21
I0
sba(iArchitecture
Entity
p1773
(dp1774
g11
(lp1775
sg13
S'android.webkit.WebChromeClient$FileChooserParams'
p1776
sg15
(lp1777
sg17
(lp1778
sg19
(lp1779
sg21
I0
sba(iArchitecture
Entity
p1780
(dp1781
g11
(lp1782
sg13
S'android.webkit.WebView'
p1783
sg15
(lp1784
sg17
(lp1785
sg19
(lp1786
sg21
I0
sba(iArchitecture
Entity
p1787
(dp1788
g11
(lp1789
sg13
S'android.webkit.WebView$FindListener'
p1790
sg15
(lp1791
sg17
(lp1792
sg19
(lp1793
sg21
I0
sba(iArchitecture
Entity
p1794
(dp1795
g11
(lp1796
sg13
S'android.webkit.WebView$FindListenerDistributor'
p1797
sg15
(lp1798
sg17
(lp1799
sg19
(lp1800
sg21
I0
sba(iArchitecture
Entity
p1801
(dp1802
g11
(lp1803
sg13
S'android.webkit.WebView$HitTestResult'
p1804
sg15
(lp1805
sg17
(lp1806
sg19
(lp1807
sg21
I0
sba(iArchitecture
Entity
p1808
(dp1809
g11
(lp1810
sg13
S'android.webkit.WebView$PictureListener'
p1811
sg15
(lp1812
sg17
(lp1813
sg19
(lp1814
sg21
I0
sba(iArchitecture
Entity
p1815
(dp1816
g11
(lp1817
sg13
S'android.webkit.WebView$PrivateAccess'
p1818
sg15
(lp1819
sg17
(lp1820
sg19
(lp1821
sg21
I0
sba(iArchitecture
Entity
p1822
(dp1823
g11
(lp1824
sg13
S'android.webkit.WebView$VisualStateCallback'
p1825
sg15
(lp1826
sg17
(lp1827
sg19
(lp1828
sg21
I0
sba(iArchitecture
Entity
p1829
(dp1830
g11
(lp1831
sg13
S'android.webkit.WebView$WebViewTransport'
p1832
sg15
(lp1833
sg17
(lp1834
sg19
(lp1835
sg21
I0
sba(iArchitecture
Entity
p1836
(dp1837
g11
(lp1838
sg13
S'android.widget.ArrayAdapter'
p1839
sg15
(lp1840
sg17
(lp1841
sg19
(lp1842
sg21
I0
sba(iArchitecture
Entity
p1843
(dp1844
g11
(lp1845
sg13
S'android.widget.ArrayAdapter$ArrayFilter'
p1846
sg15
(lp1847
sg17
(lp1848
sg19
(lp1849
sg21
I0
sba(iArchitecture
Entity
p1850
(dp1851
g11
(lp1852
sg13
S'android.widget.ImageView'
p1853
sg15
(lp1854
sg17
(lp1855
sg19
(lp1856
sg21
I0
sba(iArchitecture
Entity
p1857
(dp1858
g11
(lp1859
sg13
S'android.widget.ImageView$ImageViewBitmapDrawable'
p1860
sg15
(lp1861
sg17
(lp1862
sg19
(lp1863
sg21
I0
sba(iArchitecture
Entity
p1864
(dp1865
g11
(lp1866
sg13
S'android.widget.ImageView$ScaleType'
p1867
sg15
(lp1868
sg17
(lp1869
sg19
(lp1870
sg21
I0
sba(iArchitecture
Entity
p1871
(dp1872
g11
(lp1873
sg13
S'android.widget.PopupWindow'
p1874
sg15
(lp1875
sg17
(lp1876
sg19
(lp1877
sg21
I0
sba(iArchitecture
Entity
p1878
(dp1879
g11
(lp1880
sg13
S'android.widget.PopupWindow$1'
p1881
sg15
(lp1882
sg17
(lp1883
sg19
(lp1884
sg21
I0
sba(iArchitecture
Entity
p1885
(dp1886
g11
(lp1887
sg13
S'android.widget.PopupWindow$2'
p1888
sg15
(lp1889
sg17
(lp1890
sg19
(lp1891
sg21
I0
sba(iArchitecture
Entity
p1892
(dp1893
g11
(lp1894
sg13
S'android.widget.PopupWindow$3'
p1895
sg15
(lp1896
sg17
(lp1897
sg19
(lp1898
sg21
I0
sba(iArchitecture
Entity
p1899
(dp1900
g11
(lp1901
sg13
S'android.widget.PopupWindow$OnDismissListener'
p1902
sg15
(lp1903
sg17
(lp1904
sg19
(lp1905
sg21
I0
sba(iArchitecture
Entity
p1906
(dp1907
g11
(lp1908
sg13
S'android.widget.PopupWindow$PopupBackgroundView'
p1909
sg15
(lp1910
sg17
(lp1911
sg19
(lp1912
sg21
I0
sba(iArchitecture
Entity
p1913
(dp1914
g11
(lp1915
sg13
S'android.widget.PopupWindow$PopupDecorView'
p1916
sg15
(lp1917
sg17
(lp1918
sg19
(lp1919
sg21
I0
sba(iArchitecture
Entity
p1920
(dp1921
g11
(lp1922
sg13
S'android.widget.PopupWindow$PopupDecorView$1'
p1923
sg15
(lp1924
sg17
(lp1925
sg19
(lp1926
sg21
I0
sba(iArchitecture
Entity
p1927
(dp1928
g11
(lp1929
sg13
S'android.widget.PopupWindow$PopupDecorView$1$1'
p1930
sg15
(lp1931
sg17
(lp1932
sg19
(lp1933
sg21
I0
sba(iArchitecture
Entity
p1934
(dp1935
g11
(lp1936
sg13
S'android.widget.PopupWindow$PopupDecorView$2'
p1937
sg15
(lp1938
sg17
(lp1939
sg19
(lp1940
sg21
I0
sba(iArchitecture
Entity
p1941
(dp1942
g11
(lp1943
sg13
S'android.widget.RadioGroup'
p1944
sg15
(lp1945
sg17
(lp1946
sg19
(lp1947
sg21
I0
sba(iArchitecture
Entity
p1948
(dp1949
g11
(lp1950
sg13
S'android.widget.RadioGroup$CheckedStateTracker'
p1951
sg15
(lp1952
sg17
(lp1953
sg19
(lp1954
sg21
I0
sba(iArchitecture
Entity
p1955
(dp1956
g11
(lp1957
sg13
S'android.widget.RadioGroup$LayoutParams'
p1958
sg15
(lp1959
sg17
(lp1960
sg19
(lp1961
sg21
I0
sba(iArchitecture
Entity
p1962
(dp1963
g11
(lp1964
sg13
S'android.widget.RadioGroup$OnCheckedChangeListener'
p1965
sg15
(lp1966
sg17
(lp1967
sg19
(lp1968
sg21
I0
sba(iArchitecture
Entity
p1969
(dp1970
g11
(lp1971
sg13
S'android.widget.RadioGroup$PassThroughHierarchyChangeListener'
p1972
sg15
(lp1973
sg17
(lp1974
sg19
(lp1975
sg21
I0
sba(iArchitecture
Entity
p1976
(dp1977
g11
(lp1978
sg13
S'android.widget.ResourceCursorAdapter'
p1979
sg15
(lp1980
sg17
(lp1981
sg19
(lp1982
sg21
I0
sba(iArchitecture
Entity
p1983
(dp1984
g11
(lp1985
sg13
S'android.widget.SimpleAdapter'
p1986
sg15
(lp1987
sg17
(lp1988
sg19
(lp1989
sg21
I0
sba(iArchitecture
Entity
p1990
(dp1991
g11
(lp1992
sg13
S'android.widget.SimpleAdapter$SimpleFilter'
p1993
sg15
(lp1994
sg17
(lp1995
sg19
(lp1996
sg21
I0
sba(iArchitecture
Entity
p1997
(dp1998
g11
(lp1999
sg13
S'android.widget.SimpleAdapter$ViewBinder'
p2000
sg15
(lp2001
sg17
(lp2002
sg19
(lp2003
sg21
I0
sba(iArchitecture
Entity
p2004
(dp2005
g11
(lp2006
sg13
S'android.widget.Spinner'
p2007
sg15
(lp2008
sg17
(lp2009
sg19
(lp2010
sg21
I0
sba(iArchitecture
Entity
p2011
(dp2012
g11
(lp2013
sg13
S'android.widget.Spinner$1'
p2014
sg15
(lp2015
sg17
(lp2016
sg19
(lp2017
sg21
I0
sba(iArchitecture
Entity
p2018
(dp2019
g11
(lp2020
sg13
S'android.widget.Spinner$2'
p2021
sg15
(lp2022
sg17
(lp2023
sg19
(lp2024
sg21
I0
sba(iArchitecture
Entity
p2025
(dp2026
g11
(lp2027
sg13
S'android.widget.Spinner$DialogPopup'
p2028
sg15
(lp2029
sg17
(lp2030
sg19
(lp2031
sg21
I0
sba(iArchitecture
Entity
p2032
(dp2033
g11
(lp2034
sg13
S'android.widget.Spinner$DropDownAdapter'
p2035
sg15
(lp2036
sg17
(lp2037
sg19
(lp2038
sg21
I0
sba(iArchitecture
Entity
p2039
(dp2040
g11
(lp2041
sg13
S'android.widget.Spinner$DropdownPopup'
p2042
sg15
(lp2043
sg17
(lp2044
sg19
(lp2045
sg21
I0
sba(iArchitecture
Entity
p2046
(dp2047
g11
(lp2048
sg13
S'android.widget.Spinner$DropdownPopup$1'
p2049
sg15
(lp2050
sg17
(lp2051
sg19
(lp2052
sg21
I0
sba(iArchitecture
Entity
p2053
(dp2054
g11
(lp2055
sg13
S'android.widget.Spinner$DropdownPopup$2'
p2056
sg15
(lp2057
sg17
(lp2058
sg19
(lp2059
sg21
I0
sba(iArchitecture
Entity
p2060
(dp2061
g11
(lp2062
sg13
S'android.widget.Spinner$DropdownPopup$3'
p2063
sg15
(lp2064
sg17
(lp2065
sg19
(lp2066
sg21
I0
sba(iArchitecture
Entity
p2067
(dp2068
g11
(lp2069
sg13
S'android.widget.Spinner$SavedState'
p2070
sg15
(lp2071
sg17
(lp2072
sg19
(lp2073
sg21
I0
sba(iArchitecture
Entity
p2074
(dp2075
g11
(lp2076
sg13
S'android.widget.Spinner$SavedState$1'
p2077
sg15
(lp2078
sg17
(lp2079
sg19
(lp2080
sg21
I0
sba(iArchitecture
Entity
p2081
(dp2082
g11
(lp2083
sg13
S'android.widget.Spinner$SpinnerPopup'
p2084
sg15
(lp2085
sg17
(lp2086
sg19
(lp2087
sg21
I0
sba(iArchitecture
Entity
p2088
(dp2089
g11
(lp2090
sg13
S'android.widget.TabHost'
p2091
sg15
(lp2092
sg17
(lp2093
sg19
(lp2094
sg21
I0
sba(iArchitecture
Entity
p2095
(dp2096
g11
(lp2097
sg13
S'android.widget.TabHost$1'
p2098
sg15
(lp2099
sg17
(lp2100
sg19
(lp2101
sg21
I0
sba(iArchitecture
Entity
p2102
(dp2103
g11
(lp2104
sg13
S'android.widget.TabHost$2'
p2105
sg15
(lp2106
sg17
(lp2107
sg19
(lp2108
sg21
I0
sba(iArchitecture
Entity
p2109
(dp2110
g11
(lp2111
sg13
S'android.widget.TabHost$ContentStrategy'
p2112
sg15
(lp2113
sg17
(lp2114
sg19
(lp2115
sg21
I0
sba(iArchitecture
Entity
p2116
(dp2117
g11
(lp2118
sg13
S'android.widget.TabHost$FactoryContentStrategy'
p2119
sg15
(lp2120
sg17
(lp2121
sg19
(lp2122
sg21
I0
sba(iArchitecture
Entity
p2123
(dp2124
g11
(lp2125
sg13
S'android.widget.TabHost$IndicatorStrategy'
p2126
sg15
(lp2127
sg17
(lp2128
sg19
(lp2129
sg21
I0
sba(iArchitecture
Entity
p2130
(dp2131
g11
(lp2132
sg13
S'android.widget.TabHost$IntentContentStrategy'
p2133
sg15
(lp2134
sg17
(lp2135
sg19
(lp2136
sg21
I0
sba(iArchitecture
Entity
p2137
(dp2138
g11
(lp2139
sg13
S'android.widget.TabHost$LabelAndIconIndicatorStrategy'
p2140
sg15
(lp2141
sg17
(lp2142
sg19
(lp2143
sg21
I0
sba(iArchitecture
Entity
p2144
(dp2145
g11
(lp2146
sg13
S'android.widget.TabHost$LabelIndicatorStrategy'
p2147
sg15
(lp2148
sg17
(lp2149
sg19
(lp2150
sg21
I0
sba(iArchitecture
Entity
p2151
(dp2152
g11
(lp2153
sg13
S'android.widget.TabHost$OnTabChangeListener'
p2154
sg15
(lp2155
sg17
(lp2156
sg19
(lp2157
sg21
I0
sba(iArchitecture
Entity
p2158
(dp2159
g11
(lp2160
sg13
S'android.widget.TabHost$TabContentFactory'
p2161
sg15
(lp2162
sg17
(lp2163
sg19
(lp2164
sg21
I0
sba(iArchitecture
Entity
p2165
(dp2166
g11
(lp2167
sg13
S'android.widget.TabHost$TabSpec'
p2168
sg15
(lp2169
sg17
(lp2170
sg19
(lp2171
sg21
I0
sba(iArchitecture
Entity
p2172
(dp2173
g11
(lp2174
sg13
S'android.widget.TabHost$ViewIdContentStrategy'
p2175
sg15
(lp2176
sg17
(lp2177
sg19
(lp2178
sg21
I0
sba(iArchitecture
Entity
p2179
(dp2180
g11
(lp2181
sg13
S'android.widget.TabHost$ViewIndicatorStrategy'
p2182
sg15
(lp2183
sg17
(lp2184
sg19
(lp2185
sg21
I0
sba(iArchitecture
Entity
p2186
(dp2187
g11
(lp2188
sg13
S'android.widget.TabWidget'
p2189
sg15
(lp2190
sg17
(lp2191
sg19
(lp2192
sg21
I0
sba(iArchitecture
Entity
p2193
(dp2194
g11
(lp2195
sg13
S'android.widget.TabWidget$OnTabSelectionChanged'
p2196
sg15
(lp2197
sg17
(lp2198
sg19
(lp2199
sg21
I0
sba(iArchitecture
Entity
p2200
(dp2201
g11
(lp2202
sg13
S'android.widget.TabWidget$TabClickListener'
p2203
sg15
(lp2204
sg17
(lp2205
sg19
(lp2206
sg21
I0
sba(iArchitecture
Entity
p2207
(dp2208
g11
(lp2209
sg13
S'android.widget.TableLayout'
p2210
sg15
(lp2211
sg17
(lp2212
sg19
(lp2213
sg21
I0
sba(iArchitecture
Entity
p2214
(dp2215
g11
(lp2216
sg13
S'android.widget.TableLayout$LayoutParams'
p2217
sg15
(lp2218
sg17
(lp2219
sg19
(lp2220
sg21
I0
sba(iArchitecture
Entity
p2221
(dp2222
g11
(lp2223
sg13
S'android.widget.TableLayout$PassThroughHierarchyChangeListener'
p2224
sg15
(lp2225
sg17
(lp2226
sg19
(lp2227
sg21
I0
sba(iArchitecture
Entity
p2228
(dp2229
g11
(lp2230
sg13
S'android.widget.TableRow'
p2231
sg15
(lp2232
sg17
(lp2233
sg19
(lp2234
sg21
I0
sba(iArchitecture
Entity
p2235
(dp2236
g11
(lp2237
sg13
S'android.widget.TableRow$ChildrenTracker'
p2238
sg15
(lp2239
sg17
(lp2240
sg19
(lp2241
sg21
I0
sba(iArchitecture
Entity
p2242
(dp2243
g11
(lp2244
sg13
S'android.widget.TableRow$LayoutParams'
p2245
sg15
(lp2246
sg17
(lp2247
sg19
(lp2248
sg21
I0
sba(iArchitecture
Entity
p2249
(dp2250
g11
(lp2251
sg13
S'com.android.ims.ImsCallProfile'
p2252
sg15
(lp2253
sg17
(lp2254
sg19
(lp2255
sg21
I0
sba(iArchitecture
Entity
p2256
(dp2257
g11
(lp2258
sg13
S'com.android.ims.ImsCallProfile$1'
p2259
sg15
(lp2260
sg17
(lp2261
sg19
(lp2262
sg21
I0
sba(iArchitecture
Entity
p2263
(dp2264
g11
(lp2265
sg13
S'com.android.ims.ImsReasonInfo'
p2266
sg15
(lp2267
sg17
(lp2268
sg19
(lp2269
sg21
I0
sba(iArchitecture
Entity
p2270
(dp2271
g11
(lp2272
sg13
S'com.android.ims.ImsReasonInfo$1'
p2273
sg15
(lp2274
sg17
(lp2275
sg19
(lp2276
sg21
I0
sba(iArchitecture
Entity
p2277
(dp2278
g11
(lp2279
sg13
S'com.android.internal.app.LocalePicker'
p2280
sg15
(lp2281
sg17
(lp2282
sg19
(lp2283
sg21
I0
sba(iArchitecture
Entity
p2284
(dp2285
g11
(lp2286
sg13
S'com.android.internal.app.LocalePicker$1'
p2287
sg15
(lp2288
sg17
(lp2289
sg19
(lp2290
sg21
I0
sba(iArchitecture
Entity
p2291
(dp2292
g11
(lp2293
sg13
S'com.android.internal.app.LocalePicker$LocaleInfo'
p2294
sg15
(lp2295
sg17
(lp2296
sg19
(lp2297
sg21
I0
sba(iArchitecture
Entity
p2298
(dp2299
g11
(lp2300
sg13
S'com.android.internal.app.LocalePicker$LocaleSelectionListener'
p2301
sg15
(lp2302
sg17
(lp2303
sg19
(lp2304
sg21
I0
sba(iArchitecture
Entity
p2305
(dp2306
g11
(lp2307
sg13
S'com.android.internal.app.ToolbarActionBar'
p2308
sg15
(lp2309
sg17
(lp2310
sg19
(lp2311
sg21
I0
sba(iArchitecture
Entity
p2312
(dp2313
g11
(lp2314
sg13
S'com.android.internal.app.ToolbarActionBar$1'
p2315
sg15
(lp2316
sg17
(lp2317
sg19
(lp2318
sg21
I0
sba(iArchitecture
Entity
p2319
(dp2320
g11
(lp2321
sg13
S'com.android.internal.app.ToolbarActionBar$2'
p2322
sg15
(lp2323
sg17
(lp2324
sg19
(lp2325
sg21
I0
sba(iArchitecture
Entity
p2326
(dp2327
g11
(lp2328
sg13
S'com.android.internal.app.ToolbarActionBar$ActionMenuPresenterCallback'
p2329
sg15
(lp2330
sg17
(lp2331
sg19
(lp2332
sg21
I0
sba(iArchitecture
Entity
p2333
(dp2334
g11
(lp2335
sg13
S'com.android.internal.app.ToolbarActionBar$MenuBuilderCallback'
p2336
sg15
(lp2337
sg17
(lp2338
sg19
(lp2339
sg21
I0
sba(iArchitecture
Entity
p2340
(dp2341
g11
(lp2342
sg13
S'com.android.internal.app.ToolbarActionBar$ToolbarCallbackWrapper'
p2343
sg15
(lp2344
sg17
(lp2345
sg19
(lp2346
sg21
I0
sba(iArchitecture
Entity
p2347
(dp2348
g11
(lp2349
sg13
S'com.android.internal.app.WindowDecorActionBar'
p2350
sg15
(lp2351
sg17
(lp2352
sg19
(lp2353
sg21
I0
sba(iArchitecture
Entity
p2354
(dp2355
g11
(lp2356
sg13
S'com.android.internal.app.WindowDecorActionBar$1'
p2357
sg15
(lp2358
sg17
(lp2359
sg19
(lp2360
sg21
I0
sba(iArchitecture
Entity
p2361
(dp2362
g11
(lp2363
sg13
S'com.android.internal.app.WindowDecorActionBar$2'
p2364
sg15
(lp2365
sg17
(lp2366
sg19
(lp2367
sg21
I0
sba(iArchitecture
Entity
p2368
(dp2369
g11
(lp2370
sg13
S'com.android.internal.app.WindowDecorActionBar$3'
p2371
sg15
(lp2372
sg17
(lp2373
sg19
(lp2374
sg21
I0
sba(iArchitecture
Entity
p2375
(dp2376
g11
(lp2377
sg13
S'com.android.internal.app.WindowDecorActionBar$ActionModeImpl'
p2378
sg15
(lp2379
sg17
(lp2380
sg19
(lp2381
sg21
I0
sba(iArchitecture
Entity
p2382
(dp2383
g11
(lp2384
sg13
S'com.android.internal.app.WindowDecorActionBar$TabImpl'
p2385
sg15
(lp2386
sg17
(lp2387
sg19
(lp2388
sg21
I0
sba(iArchitecture
Entity
p2389
(dp2390
g11
(lp2391
sg13
S'com.android.internal.policy.PhoneFallbackEventHandler'
p2392
sg15
(lp2393
sg17
(lp2394
sg19
(lp2395
sg21
I0
sba(iArchitecture
Entity
p2396
(dp2397
g11
(lp2398
sg13
S'com.android.internal.policy.PhoneWindow'
p2399
sg15
(lp2400
sg17
(lp2401
sg19
(lp2402
sg21
I0
sba(iArchitecture
Entity
p2403
(dp2404
g11
(lp2405
sg13
S'com.android.internal.policy.PhoneWindow$1'
p2406
sg15
(lp2407
sg17
(lp2408
sg19
(lp2409
sg21
I0
sba(iArchitecture
Entity
p2410
(dp2411
g11
(lp2412
sg13
S'com.android.internal.policy.PhoneWindow$2'
p2413
sg15
(lp2414
sg17
(lp2415
sg19
(lp2416
sg21
I0
sba(iArchitecture
Entity
p2417
(dp2418
g11
(lp2419
sg13
S'com.android.internal.policy.PhoneWindow$3'
p2420
sg15
(lp2421
sg17
(lp2422
sg19
(lp2423
sg21
I0
sba(iArchitecture
Entity
p2424
(dp2425
g11
(lp2426
sg13
S'com.android.internal.policy.PhoneWindow$ActionMenuPresenterCallback'
p2427
sg15
(lp2428
sg17
(lp2429
sg19
(lp2430
sg21
I0
sba(iArchitecture
Entity
p2431
(dp2432
g11
(lp2433
sg13
S'com.android.internal.policy.PhoneWindow$ColorViewState'
p2434
sg15
(lp2435
sg17
(lp2436
sg19
(lp2437
sg21
I0
sba(iArchitecture
Entity
p2438
(dp2439
g11
(lp2440
sg13
S'com.android.internal.policy.PhoneWindow$DecorView'
p2441
sg15
(lp2442
sg17
(lp2443
sg19
(lp2444
sg21
I0
sba(iArchitecture
Entity
p2445
(dp2446
g11
(lp2447
sg13
S'com.android.internal.policy.PhoneWindow$DecorView$1'
p2448
sg15
(lp2449
sg17
(lp2450
sg19
(lp2451
sg21
I0
sba(iArchitecture
Entity
p2452
(dp2453
g11
(lp2454
sg13
S'com.android.internal.policy.PhoneWindow$DecorView$2'
p2455
sg15
(lp2456
sg17
(lp2457
sg19
(lp2458
sg21
I0
sba(iArchitecture
Entity
p2459
(dp2460
g11
(lp2461
sg13
S'com.android.internal.policy.PhoneWindow$DecorView$2$1'
p2462
sg15
(lp2463
sg17
(lp2464
sg19
(lp2465
sg21
I0
sba(iArchitecture
Entity
p2466
(dp2467
g11
(lp2468
sg13
S'com.android.internal.policy.PhoneWindow$DecorView$3'
p2469
sg15
(lp2470
sg17
(lp2471
sg19
(lp2472
sg21
I0
sba(iArchitecture
Entity
p2473
(dp2474
g11
(lp2475
sg13
S'com.android.internal.policy.PhoneWindow$DecorView$4'
p2476
sg15
(lp2477
sg17
(lp2478
sg19
(lp2479
sg21
I0
sba(iArchitecture
Entity
p2480
(dp2481
g11
(lp2482
sg13
S'com.android.internal.policy.PhoneWindow$DecorView$ActionModeCallback2Wrapper'
p2483
sg15
(lp2484
sg17
(lp2485
sg19
(lp2486
sg21
I0
sba(iArchitecture
Entity
p2487
(dp2488
g11
(lp2489
sg13
S'com.android.internal.policy.PhoneWindow$DecorView$ActionModeCallback2Wrapper$1'
p2490
sg15
(lp2491
sg17
(lp2492
sg19
(lp2493
sg21
I0
sba(iArchitecture
Entity
p2494
(dp2495
g11
(lp2496
sg13
S'com.android.internal.policy.PhoneWindow$DialogMenuCallback'
p2497
sg15
(lp2498
sg17
(lp2499
sg19
(lp2500
sg21
I0
sba(iArchitecture
Entity
p2501
(dp2502
g11
(lp2503
sg13
S'com.android.internal.policy.PhoneWindow$DrawableFeatureState'
p2504
sg15
(lp2505
sg17
(lp2506
sg19
(lp2507
sg21
I0
sba(iArchitecture
Entity
p2508
(dp2509
g11
(lp2510
sg13
S'com.android.internal.policy.PhoneWindow$PanelFeatureState'
p2511
sg15
(lp2512
sg17
(lp2513
sg19
(lp2514
sg21
I0
sba(iArchitecture
Entity
p2515
(dp2516
g11
(lp2517
sg13
S'com.android.internal.policy.PhoneWindow$PanelFeatureState$SavedState'
p2518
sg15
(lp2519
sg17
(lp2520
sg19
(lp2521
sg21
I0
sba(iArchitecture
Entity
p2522
(dp2523
g11
(lp2524
sg13
S'com.android.internal.policy.PhoneWindow$PanelFeatureState$SavedState$1'
p2525
sg15
(lp2526
sg17
(lp2527
sg19
(lp2528
sg21
I0
sba(iArchitecture
Entity
p2529
(dp2530
g11
(lp2531
sg13
S'com.android.internal.policy.PhoneWindow$PanelMenuPresenterCallback'
p2532
sg15
(lp2533
sg17
(lp2534
sg19
(lp2535
sg21
I0
sba(iArchitecture
Entity
p2536
(dp2537
g11
(lp2538
sg13
S'com.android.internal.policy.PhoneWindow$RotationWatcher'
p2539
sg15
(lp2540
sg17
(lp2541
sg19
(lp2542
sg21
I0
sba(iArchitecture
Entity
p2543
(dp2544
g11
(lp2545
sg13
S'com.android.internal.policy.PhoneWindow$RotationWatcher$1'
p2546
sg15
(lp2547
sg17
(lp2548
sg19
(lp2549
sg21
I0
sba(iArchitecture
Entity
p2550
(dp2551
g11
(lp2552
sg13
S'com.android.internal.policy.PhoneWindow$WindowManagerHolder'
p2553
sg15
(lp2554
sg17
(lp2555
sg19
(lp2556
sg21
I0
sba(iArchitecture
Entity
p2557
(dp2558
g11
(lp2559
sg13
S'com.android.internal.telephony.CallerInfo'
p2560
sg15
(lp2561
sg17
(lp2562
sg19
(lp2563
sg21
I0
sba(iArchitecture
Entity
p2564
(dp2565
g11
(lp2566
sg13
S'com.android.internal.telephony.CallerInfoAsyncQuery'
p2567
sg15
(lp2568
sg17
(lp2569
sg19
(lp2570
sg21
I0
sba(iArchitecture
Entity
p2571
(dp2572
g11
(lp2573
sg13
S'com.android.internal.telephony.CallerInfoAsyncQuery$CallerInfoAsyncQueryHandler'
p2574
sg15
(lp2575
sg17
(lp2576
sg19
(lp2577
sg21
I0
sba(iArchitecture
Entity
p2578
(dp2579
g11
(lp2580
sg13
S'com.android.internal.telephony.CallerInfoAsyncQuery$CallerInfoAsyncQueryHandler$CallerInfoWorkerHandler'
p2581
sg15
(lp2582
sg17
(lp2583
sg19
(lp2584
sg21
I0
sba(iArchitecture
Entity
p2585
(dp2586
g11
(lp2587
sg13
S'com.android.internal.telephony.CallerInfoAsyncQuery$CookieWrapper'
p2588
sg15
(lp2589
sg17
(lp2590
sg19
(lp2591
sg21
I0
sba(iArchitecture
Entity
p2592
(dp2593
g11
(lp2594
sg13
S'com.android.internal.telephony.CallerInfoAsyncQuery$OnQueryCompleteListener'
p2595
sg15
(lp2596
sg17
(lp2597
sg19
(lp2598
sg21
I0
sba(iArchitecture
Entity
p2599
(dp2600
g11
(lp2601
sg13
S'com.android.internal.telephony.CallerInfoAsyncQuery$QueryPoolException'
p2602
sg15
(lp2603
sg17
(lp2604
sg19
(lp2605
sg21
I0
sba(iArchitecture
Entity
p2606
(dp2607
g11
(lp2608
sg13
S'com.android.internal.telephony.TelephonyIntents'
p2609
sg15
(lp2610
sg17
(lp2611
sg19
(lp2612
sg21
I0
sba(iArchitecture
Entity
p2613
(dp2614
g11
(lp2615
sg13
S'com.android.internal.telephony.TelephonyProperties'
p2616
sg15
(lp2617
sg17
(lp2618
sg19
(lp2619
sg21
I0
sba(iArchitecture
Entity
p2620
(dp2621
g11
(lp2622
sg13
S'com.android.internal.widget.ActionBarContextView'
p2623
sg15
(lp2624
sg17
(lp2625
sg19
(lp2626
sg21
I0
sba(iArchitecture
Entity
p2627
(dp2628
g11
(lp2629
sg13
S'com.android.internal.widget.ActionBarContextView$1'
p2630
sg15
(lp2631
sg17
(lp2632
sg19
(lp2633
sg21
I0
sba(iArchitecture
Entity
p2634
(dp2635
g11
(lp2636
sg13
S'com.android.internal.widget.ActionBarView'
p2637
sg15
(lp2638
sg17
(lp2639
sg19
(lp2640
sg21
I0
sba(iArchitecture
Entity
p2641
(dp2642
g11
(lp2643
sg13
S'com.android.internal.widget.ActionBarView$1'
p2644
sg15
(lp2645
sg17
(lp2646
sg19
(lp2647
sg21
I0
sba(iArchitecture
Entity
p2648
(dp2649
g11
(lp2650
sg13
S'com.android.internal.widget.ActionBarView$2'
p2651
sg15
(lp2652
sg17
(lp2653
sg19
(lp2654
sg21
I0
sba(iArchitecture
Entity
p2655
(dp2656
g11
(lp2657
sg13
S'com.android.internal.widget.ActionBarView$ExpandedActionViewMenuPresenter'
p2658
sg15
(lp2659
sg17
(lp2660
sg19
(lp2661
sg21
I0
sba(iArchitecture
Entity
p2662
(dp2663
g11
(lp2664
sg13
S'com.android.internal.widget.ActionBarView$HomeView'
p2665
sg15
(lp2666
sg17
(lp2667
sg19
(lp2668
sg21
I0
sba(iArchitecture
Entity
p2669
(dp2670
g11
(lp2671
sg13
S'com.android.internal.widget.ActionBarView$SavedState'
p2672
sg15
(lp2673
sg17
(lp2674
sg19
(lp2675
sg21
I0
sba(iArchitecture
Entity
p2676
(dp2677
g11
(lp2678
sg13
S'com.android.internal.widget.ActionBarView$SavedState$1'
p2679
sg15
(lp2680
sg17
(lp2681
sg19
(lp2682
sg21
I0
sba(iArchitecture
Entity
p2683
(dp2684
g11
(lp2685
sg13
S'com.android.internal.widget.ExploreByTouchHelper'
p2686
sg15
(lp2687
sg17
(lp2688
sg19
(lp2689
sg21
I0
sba(iArchitecture
Entity
p2690
(dp2691
g11
(lp2692
sg13
S'com.android.internal.widget.ExploreByTouchHelper$ExploreByTouchNodeProvider'
p2693
sg15
(lp2694
sg17
(lp2695
sg19
(lp2696
sg21
I0
sba(iArchitecture
Entity
p2697
(dp2698
g11
(lp2699
sg13
S'com.android.internal.widget.PagerAdapter'
p2700
sg15
(lp2701
sg17
(lp2702
sg19
(lp2703
sg21
I0
sba(iArchitecture
Entity
p2704
(dp2705
g11
(lp2706
sg13
S'com.android.internal.widget.ScrollingTabContainerView'
p2707
sg15
(lp2708
sg17
(lp2709
sg19
(lp2710
sg21
I0
sba(iArchitecture
Entity
p2711
(dp2712
g11
(lp2713
sg13
S'com.android.internal.widget.ScrollingTabContainerView$1'
p2714
sg15
(lp2715
sg17
(lp2716
sg19
(lp2717
sg21
I0
sba(iArchitecture
Entity
p2718
(dp2719
g11
(lp2720
sg13
S'com.android.internal.widget.ScrollingTabContainerView$TabAdapter'
p2721
sg15
(lp2722
sg17
(lp2723
sg19
(lp2724
sg21
I0
sba(iArchitecture
Entity
p2725
(dp2726
g11
(lp2727
sg13
S'com.android.internal.widget.ScrollingTabContainerView$TabClickListener'
p2728
sg15
(lp2729
sg17
(lp2730
sg19
(lp2731
sg21
I0
sba(iArchitecture
Entity
p2732
(dp2733
g11
(lp2734
sg13
S'com.android.internal.widget.ScrollingTabContainerView$TabView'
p2735
sg15
(lp2736
sg17
(lp2737
sg19
(lp2738
sg21
I0
sba(iArchitecture
Entity
p2739
(dp2740
g11
(lp2741
sg13
S'com.android.internal.widget.ScrollingTabContainerView$VisibilityAnimListener'
p2742
sg15
(lp2743
sg17
(lp2744
sg19
(lp2745
sg21
I0
sba(iArchitecture
Entity
p2746
(dp2747
g11
(lp2748
sg13
S'com.android.internal.widget.SwipeDismissLayout'
p2749
sg15
(lp2750
sg17
(lp2751
sg19
(lp2752
sg21
I0
sba(iArchitecture
Entity
p2753
(dp2754
g11
(lp2755
sg13
S'com.android.internal.widget.SwipeDismissLayout$1'
p2756
sg15
(lp2757
sg17
(lp2758
sg19
(lp2759
sg21
I0
sba(iArchitecture
Entity
p2760
(dp2761
g11
(lp2762
sg13
S'com.android.internal.widget.SwipeDismissLayout$2'
p2763
sg15
(lp2764
sg17
(lp2765
sg19
(lp2766
sg21
I0
sba(iArchitecture
Entity
p2767
(dp2768
g11
(lp2769
sg13
S'com.android.internal.widget.SwipeDismissLayout$OnDismissedListener'
p2770
sg15
(lp2771
sg17
(lp2772
sg19
(lp2773
sg21
I0
sba(iArchitecture
Entity
p2774
(dp2775
g11
(lp2776
sg13
S'com.android.internal.widget.SwipeDismissLayout$OnSwipeProgressChangedListener'
p2777
sg15
(lp2778
sg17
(lp2779
sg19
(lp2780
sg21
I0
sba(iArchitecture
Entity
p2781
(dp2782
g11
(lp2783
sg13
S'com.android.internal.widget.ToolbarWidgetWrapper'
p2784
sg15
(lp2785
sg17
(lp2786
sg19
(lp2787
sg21
I0
sba(iArchitecture
Entity
p2788
(dp2789
g11
(lp2790
sg13
S'com.android.internal.widget.ToolbarWidgetWrapper$1'
p2791
sg15
(lp2792
sg17
(lp2793
sg19
(lp2794
sg21
I0
sba(iArchitecture
Entity
p2795
(dp2796
g11
(lp2797
sg13
S'com.android.internal.widget.ToolbarWidgetWrapper$2'
p2798
sg15
(lp2799
sg17
(lp2800
sg19
(lp2801
sg21
I0
sba(iArchitecture
Entity
p2802
(dp2803
g11
(lp2804
sg13
S'com.android.internal.widget.ToolbarWidgetWrapper$3'
p2805
sg15
(lp2806
sg17
(lp2807
sg19
(lp2808
sg21
I0
sba(iArchitecture
Entity
p2809
(dp2810
g11
(lp2811
sg13
S'com.android.server.am.ProcessRecord'
p2812
sg15
(lp2813
sg17
(lp2814
sg19
(lp2815
sg21
I0
sba(iArchitecture
Entity
p2816
(dp2817
g11
(lp2818
sg13
S'com.android.server.am.ServiceRecord'
p2819
sg15
(lp2820
sg17
(lp2821
sg19
(lp2822
sg21
I0
sba(iArchitecture
Entity
p2823
(dp2824
g11
(lp2825
sg13
S'com.android.server.am.ServiceRecord$1'
p2826
sg15
(lp2827
sg17
(lp2828
sg19
(lp2829
sg21
I0
sba(iArchitecture
Entity
p2830
(dp2831
g11
(lp2832
sg13
S'com.android.server.am.ServiceRecord$2'
p2833
sg15
(lp2834
sg17
(lp2835
sg19
(lp2836
sg21
I0
sba(iArchitecture
Entity
p2837
(dp2838
g11
(lp2839
sg13
S'com.android.server.am.ServiceRecord$3'
p2840
sg15
(lp2841
sg17
(lp2842
sg19
(lp2843
sg21
I0
sba(iArchitecture
Entity
p2844
(dp2845
g11
(lp2846
sg13
S'com.android.server.am.ServiceRecord$StartItem'
p2847
sg15
(lp2848
sg17
(lp2849
sg19
(lp2850
sg21
I0
sba(iArchitecture
Entity
p2851
(dp2852
g11
(lp2853
sg13
S'com.android.server.job.JobServiceContext'
p2854
sg15
(lp2855
sg17
(lp2856
sg19
(lp2857
sg21
I0
sba(iArchitecture
Entity
p2858
(dp2859
g11
(lp2860
sg13
S'com.android.server.job.JobServiceContext$JobServiceHandler'
p2861
sg15
(lp2862
sg17
(lp2863
sg19
(lp2864
sg21
I0
sba(iArchitecture
Entity
p2865
(dp2866
g11
(lp2867
sg13
S'com.android.server.notification.ManagedServices'
p2868
sg15
(lp2869
sg17
(lp2870
sg19
(lp2871
sg21
I0
sba(iArchitecture
Entity
p2872
(dp2873
g11
(lp2874
sg13
S'com.android.server.notification.ManagedServices$1'
p2875
sg15
(lp2876
sg17
(lp2877
sg19
(lp2878
sg21
I0
sba(iArchitecture
Entity
p2879
(dp2880
g11
(lp2881
sg13
S'com.android.server.notification.ManagedServices$Config'
p2882
sg15
(lp2883
sg17
(lp2884
sg19
(lp2885
sg21
I0
sba(iArchitecture
Entity
p2886
(dp2887
g11
(lp2888
sg13
S'com.android.server.notification.ManagedServices$ManagedServiceInfo'
p2889
sg15
(lp2890
sg17
(lp2891
sg19
(lp2892
sg21
I0
sba(iArchitecture
Entity
p2893
(dp2894
g11
(lp2895
sg13
S'com.android.server.notification.ManagedServices$SettingRestoredReceiver'
p2896
sg15
(lp2897
sg17
(lp2898
sg19
(lp2899
sg21
I0
sba(iArchitecture
Entity
p2900
(dp2901
g11
(lp2902
sg13
S'com.android.server.notification.ManagedServices$SettingsObserver'
p2903
sg15
(lp2904
sg17
(lp2905
sg19
(lp2906
sg21
I0
sba(iArchitecture
Entity
p2907
(dp2908
g11
(lp2909
sg13
S'com.android.server.notification.ManagedServices$UserProfiles'
p2910
sg15
(lp2911
sg17
(lp2912
sg19
(lp2913
sg21
I0
sba(iArchitecture
Entity
p2914
(dp2915
g11
(lp2916
sg13
S'com.android.server.notification.NotificationRecord'
p2917
sg15
(lp2918
sg17
(lp2919
sg19
(lp2920
sg21
I0
sba(iArchitecture
Entity
p2921
(dp2922
g11
(lp2923
sg13
S'com.android.server.print.RemotePrintService'
p2924
sg15
(lp2925
sg17
(lp2926
sg19
(lp2927
sg21
I0
sba(iArchitecture
Entity
p2928
(dp2929
g11
(lp2930
sg13
S'com.android.server.print.RemotePrintService$1'
p2931
sg15
(lp2932
sg17
(lp2933
sg19
(lp2934
sg21
I0
sba(iArchitecture
Entity
p2935
(dp2936
g11
(lp2937
sg13
S'com.android.server.print.RemotePrintService$10'
p2938
sg15
(lp2939
sg17
(lp2940
sg19
(lp2941
sg21
I0
sba(iArchitecture
Entity
p2942
(dp2943
g11
(lp2944
sg13
S'com.android.server.print.RemotePrintService$2'
p2945
sg15
(lp2946
sg17
(lp2947
sg19
(lp2948
sg21
I0
sba(iArchitecture
Entity
p2949
(dp2950
g11
(lp2951
sg13
S'com.android.server.print.RemotePrintService$3'
p2952
sg15
(lp2953
sg17
(lp2954
sg19
(lp2955
sg21
I0
sba(iArchitecture
Entity
p2956
(dp2957
g11
(lp2958
sg13
S'com.android.server.print.RemotePrintService$4'
p2959
sg15
(lp2960
sg17
(lp2961
sg19
(lp2962
sg21
I0
sba(iArchitecture
Entity
p2963
(dp2964
g11
(lp2965
sg13
S'com.android.server.print.RemotePrintService$5'
p2966
sg15
(lp2967
sg17
(lp2968
sg19
(lp2969
sg21
I0
sba(iArchitecture
Entity
p2970
(dp2971
g11
(lp2972
sg13
S'com.android.server.print.RemotePrintService$6'
p2973
sg15
(lp2974
sg17
(lp2975
sg19
(lp2976
sg21
I0
sba(iArchitecture
Entity
p2977
(dp2978
g11
(lp2979
sg13
S'com.android.server.print.RemotePrintService$7'
p2980
sg15
(lp2981
sg17
(lp2982
sg19
(lp2983
sg21
I0
sba(iArchitecture
Entity
p2984
(dp2985
g11
(lp2986
sg13
S'com.android.server.print.RemotePrintService$8'
p2987
sg15
(lp2988
sg17
(lp2989
sg19
(lp2990
sg21
I0
sba(iArchitecture
Entity
p2991
(dp2992
g11
(lp2993
sg13
S'com.android.server.print.RemotePrintService$9'
p2994
sg15
(lp2995
sg17
(lp2996
sg19
(lp2997
sg21
I0
sba(iArchitecture
Entity
p2998
(dp2999
g11
(lp3000
sg13
S'com.android.server.print.RemotePrintService$MyHandler'
p3001
sg15
(lp3002
sg17
(lp3003
sg19
(lp3004
sg21
I0
sba(iArchitecture
Entity
p3005
(dp3006
g11
(lp3007
sg13
S'com.android.server.print.RemotePrintService$PrintServiceCallbacks'
p3008
sg15
(lp3009
sg17
(lp3010
sg19
(lp3011
sg21
I0
sba(iArchitecture
Entity
p3012
(dp3013
g11
(lp3014
sg13
S'com.android.server.print.RemotePrintService$RemotePrintServiceClient'
p3015
sg15
(lp3016
sg17
(lp3017
sg19
(lp3018
sg21
I0
sba(iArchitecture
Entity
p3019
(dp3020
g11
(lp3021
sg13
S'com.android.server.print.RemotePrintService$RemoteServiceConneciton'
p3022
sg15
(lp3023
sg17
(lp3024
sg19
(lp3025
sg21
I0
sba(iArchitecture
Entity
p3026
(dp3027
g11
(lp3028
sg13
S'com.android.server.print.UserState'
p3029
sg15
(lp3030
sg17
(lp3031
sg19
(lp3032
sg21
I0
sba(iArchitecture
Entity
p3033
(dp3034
g11
(lp3035
sg13
S'com.android.server.print.UserState$1'
p3036
sg15
(lp3037
sg17
(lp3038
sg19
(lp3039
sg21
I0
sba(iArchitecture
Entity
p3040
(dp3041
g11
(lp3042
sg13
S'com.android.server.print.UserState$2'
p3043
sg15
(lp3044
sg17
(lp3045
sg19
(lp3046
sg21
I0
sba(iArchitecture
Entity
p3047
(dp3048
g11
(lp3049
sg13
S'com.android.server.print.UserState$3'
p3050
sg15
(lp3051
sg17
(lp3052
sg19
(lp3053
sg21
I0
sba(iArchitecture
Entity
p3054
(dp3055
g11
(lp3056
sg13
S'com.android.server.print.UserState$4'
p3057
sg15
(lp3058
sg17
(lp3059
sg19
(lp3060
sg21
I0
sba(iArchitecture
Entity
p3061
(dp3062
g11
(lp3063
sg13
S'com.android.server.print.UserState$PrintJobForAppCache'
p3064
sg15
(lp3065
sg17
(lp3066
sg19
(lp3067
sg21
I0
sba(iArchitecture
Entity
p3068
(dp3069
g11
(lp3070
sg13
S'com.android.server.print.UserState$PrintJobForAppCache$1'
p3071
sg15
(lp3072
sg17
(lp3073
sg19
(lp3074
sg21
I0
sba(iArchitecture
Entity
p3075
(dp3076
g11
(lp3077
sg13
S'com.android.server.print.UserState$PrintJobStateChangeListenerRecord'
p3078
sg15
(lp3079
sg17
(lp3080
sg19
(lp3081
sg21
I0
sba(iArchitecture
Entity
p3082
(dp3083
g11
(lp3084
sg13
S'com.android.server.print.UserState$PrinterDiscoverySessionMediator'
p3085
sg15
(lp3086
sg17
(lp3087
sg19
(lp3088
sg21
I0
sba(iArchitecture
Entity
p3089
(dp3090
g11
(lp3091
sg13
S'com.android.server.print.UserState$PrinterDiscoverySessionMediator$1'
p3092
sg15
(lp3093
sg17
(lp3094
sg19
(lp3095
sg21
I0
sba(iArchitecture
Entity
p3096
(dp3097
g11
(lp3098
sg13
S'com.android.server.print.UserState$PrinterDiscoverySessionMediator$SessionHandler'
p3099
sg15
(lp3100
sg17
(lp3101
sg19
(lp3102
sg21
I0
sba(iArchitecture
Entity
p3103
(dp3104
g11
(lp3105
sg13
S'com.android.server.print.UserState$UserStateHandler'
p3106
sg15
(lp3107
sg17
(lp3108
sg19
(lp3109
sg21
I0
sba(iArchitecture
Entity
p3110
(dp3111
g11
(lp3112
sg13
S'com.android.server.webkit.WebViewUpdateService'
p3113
sg15
(lp3114
sg17
(lp3115
sg19
(lp3116
sg21
I0
sba(iArchitecture
Entity
p3117
(dp3118
g11
(lp3119
sg13
S'com.android.server.webkit.WebViewUpdateService$1'
p3120
sg15
(lp3121
sg17
(lp3122
sg19
(lp3123
sg21
I0
sba(iArchitecture
Entity
p3124
(dp3125
g11
(lp3126
sg13
S'com.android.server.webkit.WebViewUpdateService$BinderService'
p3127
sg15
(lp3128
sg17
(lp3129
sg19
(lp3130
sg21
I0
sba(iArchitecture
Entity
p3131
(dp3132
g11
(lp3133
sg13
S'com.android.server.wm.Task'
p3134
sg15
(lp3135
sg17
(lp3136
sg19
(lp3137
sg21
I0
sba(iArchitecture
Entity
p3138
(dp3139
g11
(lp3140
sg13
S'com.android.server.wm.TaskStack'
p3141
sg15
(lp3142
sg17
(lp3143
sg19
(lp3144
sg21
I0
sbasg29
(lp3145
g159
ag166
ag173
ag180
ag187
ag194
ag201
ag208
ag215
ag222
ag229
ag236
ag243
ag250
ag257
ag264
ag271
ag278
ag285
ag292
ag299
ag306
ag313
ag320
ag327
ag334
ag341
ag348
ag355
ag362
ag369
ag376
ag383
ag390
ag397
ag404
ag411
ag418
ag425
ag432
ag439
ag446
ag453
ag460
ag467
ag474
ag481
ag488
ag495
ag502
ag509
ag516
ag523
ag530
ag537
ag544
ag551
ag558
ag565
ag572
ag579
ag586
ag593
ag600
ag607
ag614
ag621
ag628
ag635
ag642
ag649
ag656
ag663
ag670
ag677
ag684
ag691
ag698
ag705
ag712
ag719
ag726
ag733
ag740
ag747
ag754
ag761
ag768
ag775
ag782
ag789
ag796
ag803
ag810
ag817
ag824
ag831
ag838
ag845
ag852
ag859
ag866
ag873
ag880
ag887
ag894
ag901
ag908
ag915
ag922
ag929
ag936
ag943
ag950
ag957
ag964
ag971
ag978
ag985
ag992
ag999
ag1006
ag1013
ag1020
ag1027
ag1034
ag1041
ag1048
ag1055
ag1062
ag1069
ag1076
ag1083
ag1090
ag1097
ag1104
ag1111
ag1118
ag1125
ag1132
ag1139
ag1146
ag1153
ag1160
ag1167
ag1174
ag1181
ag1188
ag1195
ag1202
ag1209
ag1216
ag1223
ag1230
ag1237
ag1244
ag1251
ag1258
ag1265
ag1272
ag1279
ag1286
ag1293
ag1300
ag1307
ag1314
ag1321
ag1328
ag1335
ag1342
ag1349
ag1356
ag1363
ag1370
ag1377
ag1384
ag1391
ag1398
ag1405
ag1412
ag1419
ag1426
ag1433
ag1440
ag1447
ag1454
ag1461
ag1468
ag1475
ag1482
ag1489
ag1496
ag1503
ag1510
ag1517
ag1524
ag1531
ag1538
ag1545
ag1552
ag1559
ag1566
ag1573
ag1580
ag1587
ag1594
ag1601
ag1608
ag1615
ag1622
ag1629
ag1636
ag1643
ag1650
ag1657
ag1664
ag1671
ag1678
ag1685
ag1692
ag1699
ag1706
ag1713
ag1720
ag1727
ag1734
ag1741
ag1748
ag1755
ag1762
ag1769
ag1776
ag1783
ag1790
ag1797
ag1804
ag1811
ag1818
ag1825
ag1832
ag1839
ag1846
ag1853
ag1860
ag1867
ag1874
ag1881
ag1888
ag1895
ag1902
ag1909
ag1916
ag1923
ag1930
ag1937
ag1944
ag1951
ag1958
ag1965
ag1972
ag1979
ag1986
ag1993
ag2000
ag2007
ag2014
ag2021
ag2028
ag2035
ag2042
ag2049
ag2056
ag2063
ag2070
ag2077
ag2084
ag2091
ag2098
ag2105
ag2112
ag2119
ag2126
ag2133
ag2140
ag2147
ag2154
ag2161
ag2168
ag2175
ag2182
ag2189
ag2196
ag2203
ag2210
ag2217
ag2224
ag2231
ag2238
ag2245
ag2252
ag2259
ag2266
ag2273
ag2280
ag2287
ag2294
ag2301
ag2308
ag2315
ag2322
ag2329
ag2336
ag2343
ag2350
ag2357
ag2364
ag2371
ag2378
ag2385
ag2392
ag2399
ag2406
ag2413
ag2420
ag2427
ag2434
ag2441
ag2448
ag2455
ag2462
ag2469
ag2476
ag2483
ag2490
ag2497
ag2504
ag2511
ag2518
ag2525
ag2532
ag2539
ag2546
ag2553
ag2560
ag2567
ag2574
ag2581
ag2588
ag2595
ag2602
ag2609
ag2616
ag2623
ag2630
ag2637
ag2644
ag2651
ag2658
ag2665
ag2672
ag2679
ag2686
ag2693
ag2700
ag2707
ag2714
ag2721
ag2728
ag2735
ag2742
ag2749
ag2756
ag2763
ag2770
ag2777
ag2784
ag2791
ag2798
ag2805
ag2812
ag2819
ag2826
ag2833
ag2840
ag2847
ag2854
ag2861
ag2868
ag2875
ag2882
ag2889
ag2896
ag2903
ag2910
ag2917
ag2924
ag2931
ag2938
ag2945
ag2952
ag2959
ag2966
ag2973
ag2980
ag2987
ag2994
ag3001
ag3008
ag3015
ag3022
ag3029
ag3036
ag3043
ag3050
ag3057
ag3064
ag3071
ag3078
ag3085
ag3092
ag3099
ag3106
ag3113
ag3120
ag3127
ag3134
ag3141
asg21
I0
sg31
S'1232'
p3146
sba(iArchitecture
Cluster
p3147
(dp3148
g7
(lp3149
(iArchitecture
Entity
p3150
(dp3151
g11
(lp3152
sg13
S'com.android.server.am.PendingIntentRecord'
p3153
sg15
(lp3154
sg17
(lp3155
sg19
(lp3156
sg21
I0
sba(iArchitecture
Entity
p3157
(dp3158
g11
(lp3159
sg13
S'com.android.server.am.PendingIntentRecord$Key'
p3160
sg15
(lp3161
sg17
(lp3162
sg19
(lp3163
sg21
I0
sba(iArchitecture
Entity
p3164
(dp3165
g11
(lp3166
sg13
S'com.android.server.am.ProviderMap'
p3167
sg15
(lp3168
sg17
(lp3169
sg19
(lp3170
sg21
I0
sba(iArchitecture
Entity
p3171
(dp3172
g11
(lp3173
sg13
S'com.android.server.notification.ConditionProviders'
p3174
sg15
(lp3175
sg17
(lp3176
sg19
(lp3177
sg21
I0
sba(iArchitecture
Entity
p3178
(dp3179
g11
(lp3180
sg13
S'com.android.server.notification.ConditionProviders$Callback'
p3181
sg15
(lp3182
sg17
(lp3183
sg19
(lp3184
sg21
I0
sba(iArchitecture
Entity
p3185
(dp3186
g11
(lp3187
sg13
S'com.android.server.notification.ConditionProviders$ConditionRecord'
p3188
sg15
(lp3189
sg17
(lp3190
sg19
(lp3191
sg21
I0
sba(iArchitecture
Entity
p3192
(dp3193
g11
(lp3194
sg13
S'com.android.server.restrictions.RestrictionsManagerService'
p3195
sg15
(lp3196
sg17
(lp3197
sg19
(lp3198
sg21
I0
sba(iArchitecture
Entity
p3199
(dp3200
g11
(lp3201
sg13
S'com.android.server.restrictions.RestrictionsManagerService$RestrictionsManagerImpl'
p3202
sg15
(lp3203
sg17
(lp3204
sg19
(lp3205
sg21
I0
sbasg29
(lp3206
g3153
ag3160
ag3167
ag3174
ag3181
ag3188
ag3195
ag3202
asg21
I0
sg31
S'1233'
p3207
sba(iArchitecture
Cluster
p3208
(dp3209
g7
(lp3210
(iArchitecture
Entity
p3211
(dp3212
g11
(lp3213
sg13
S'android.media.MediaCrypto'
p3214
sg15
(lp3215
sg17
(lp3216
sg19
(lp3217
sg21
I0
sba(iArchitecture
Entity
p3218
(dp3219
g11
(lp3220
sg13
S'android.view.SoundEffectConstants'
p3221
sg15
(lp3222
sg17
(lp3223
sg19
(lp3224
sg21
I0
sbasg29
(lp3225
g3214
ag3221
asg21
I0
sg31
S'1234'
p3226
sba(iArchitecture
Cluster
p3227
(dp3228
g7
(lp3229
(iArchitecture
Entity
p3230
(dp3231
g11
(lp3232
sg13
S'android.graphics.drawable.DrawableContainer'
p3233
sg15
(lp3234
sg17
(lp3235
sg19
(lp3236
sg21
I0
sba(iArchitecture
Entity
p3237
(dp3238
g11
(lp3239
sg13
S'android.graphics.drawable.DrawableContainer$1'
p3240
sg15
(lp3241
sg17
(lp3242
sg19
(lp3243
sg21
I0
sba(iArchitecture
Entity
p3244
(dp3245
g11
(lp3246
sg13
S'android.graphics.drawable.DrawableContainer$DrawableContainerState'
p3247
sg15
(lp3248
sg17
(lp3249
sg19
(lp3250
sg21
I0
sba(iArchitecture
Entity
p3251
(dp3252
g11
(lp3253
sg13
S'android.graphics.drawable.DrawableContainer$DrawableContainerState$ConstantStateFuture'
p3254
sg15
(lp3255
sg17
(lp3256
sg19
(lp3257
sg21
I0
sba(iArchitecture
Entity
p3258
(dp3259
g11
(lp3260
sg13
S'android.graphics.drawable.DrawableWrapper'
p3261
sg15
(lp3262
sg17
(lp3263
sg19
(lp3264
sg21
I0
sba(iArchitecture
Entity
p3265
(dp3266
g11
(lp3267
sg13
S'android.graphics.drawable.DrawableWrapper$DrawableWrapperState'
p3268
sg15
(lp3269
sg17
(lp3270
sg19
(lp3271
sg21
I0
sba(iArchitecture
Entity
p3272
(dp3273
g11
(lp3274
sg13
S'android.graphics.drawable.NinePatchDrawable'
p3275
sg15
(lp3276
sg17
(lp3277
sg19
(lp3278
sg21
I0
sba(iArchitecture
Entity
p3279
(dp3280
g11
(lp3281
sg13
S'android.graphics.drawable.NinePatchDrawable$NinePatchState'
p3282
sg15
(lp3283
sg17
(lp3284
sg19
(lp3285
sg21
I0
sbasg29
(lp3286
g3233
ag3240
ag3247
ag3254
ag3261
ag3268
ag3275
ag3282
asg21
I0
sg31
S'1235'
p3287
sba(iArchitecture
Cluster
p3288
(dp3289
g7
(lp3290
(iArchitecture
Entity
p3291
(dp3292
g11
(lp3293
sg13
S'android.security.KeyPairGeneratorSpec'
p3294
sg15
(lp3295
sg17
(lp3296
sg19
(lp3297
sg21
I0
sba(iArchitecture
Entity
p3298
(dp3299
g11
(lp3300
sg13
S'android.security.KeyPairGeneratorSpec$Builder'
p3301
sg15
(lp3302
sg17
(lp3303
sg19
(lp3304
sg21
I0
sba(iArchitecture
Entity
p3305
(dp3306
g11
(lp3307
sg13
S'android.security.KeyStoreParameter'
p3308
sg15
(lp3309
sg17
(lp3310
sg19
(lp3311
sg21
I0
sba(iArchitecture
Entity
p3312
(dp3313
g11
(lp3314
sg13
S'android.security.KeyStoreParameter$Builder'
p3315
sg15
(lp3316
sg17
(lp3317
sg19
(lp3318
sg21
I0
sba(iArchitecture
Entity
p3319
(dp3320
g11
(lp3321
sg13
S'android.security.keystore.KeyGenParameterSpec'
p3322
sg15
(lp3323
sg17
(lp3324
sg19
(lp3325
sg21
I0
sba(iArchitecture
Entity
p3326
(dp3327
g11
(lp3328
sg13
S'android.security.keystore.KeyGenParameterSpec$Builder'
p3329
sg15
(lp3330
sg17
(lp3331
sg19
(lp3332
sg21
I0
sba(iArchitecture
Entity
p3333
(dp3334
g11
(lp3335
sg13
S'android.security.keystore.KeyInfo'
p3336
sg15
(lp3337
sg17
(lp3338
sg19
(lp3339
sg21
I0
sba(iArchitecture
Entity
p3340
(dp3341
g11
(lp3342
sg13
S'android.security.keystore.KeyProtection'
p3343
sg15
(lp3344
sg17
(lp3345
sg19
(lp3346
sg21
I0
sba(iArchitecture
Entity
p3347
(dp3348
g11
(lp3349
sg13
S'android.security.keystore.KeyProtection$Builder'
p3350
sg15
(lp3351
sg17
(lp3352
sg19
(lp3353
sg21
I0
sbasg29
(lp3354
g3294
ag3301
ag3308
ag3315
ag3322
ag3329
ag3336
ag3343
ag3350
asg21
I0
sg31
S'1236'
p3355
sba(iArchitecture
Cluster
p3356
(dp3357
g7
(lp3358
(iArchitecture
Entity
p3359
(dp3360
g11
(lp3361
sg13
S'android.accounts.Account'
p3362
sg15
(lp3363
sg17
(lp3364
sg19
(lp3365
sg21
I0
sba(iArchitecture
Entity
p3366
(dp3367
g11
(lp3368
sg13
S'android.accounts.Account$1'
p3369
sg15
(lp3370
sg17
(lp3371
sg19
(lp3372
sg21
I0
sba(iArchitecture
Entity
p3373
(dp3374
g11
(lp3375
sg13
S'android.animation.FloatArrayEvaluator'
p3376
sg15
(lp3377
sg17
(lp3378
sg19
(lp3379
sg21
I0
sba(iArchitecture
Entity
p3380
(dp3381
g11
(lp3382
sg13
S'android.animation.FloatEvaluator'
p3383
sg15
(lp3384
sg17
(lp3385
sg19
(lp3386
sg21
I0
sba(iArchitecture
Entity
p3387
(dp3388
g11
(lp3389
sg13
S'android.animation.IntArrayEvaluator'
p3390
sg15
(lp3391
sg17
(lp3392
sg19
(lp3393
sg21
I0
sba(iArchitecture
Entity
p3394
(dp3395
g11
(lp3396
sg13
S'android.animation.IntEvaluator'
p3397
sg15
(lp3398
sg17
(lp3399
sg19
(lp3400
sg21
I0
sba(iArchitecture
Entity
p3401
(dp3402
g11
(lp3403
sg13
S'android.animation.RectEvaluator'
p3404
sg15
(lp3405
sg17
(lp3406
sg19
(lp3407
sg21
I0
sba(iArchitecture
Entity
p3408
(dp3409
g11
(lp3410
sg13
S'android.animation.TypeEvaluator'
p3411
sg15
(lp3412
sg17
(lp3413
sg19
(lp3414
sg21
I0
sba(iArchitecture
Entity
p3415
(dp3416
g11
(lp3417
sg13
S'android.annotation.CheckResult'
p3418
sg15
(lp3419
sg17
(lp3420
sg19
(lp3421
sg21
I0
sba(iArchitecture
Entity
p3422
(dp3423
g11
(lp3424
sg13
S'android.annotation.FloatRange'
p3425
sg15
(lp3426
sg17
(lp3427
sg19
(lp3428
sg21
I0
sba(iArchitecture
Entity
p3429
(dp3430
g11
(lp3431
sg13
S'android.app.FragmentContainer'
p3432
sg15
(lp3433
sg17
(lp3434
sg19
(lp3435
sg21
I0
sba(iArchitecture
Entity
p3436
(dp3437
g11
(lp3438
sg13
S'android.app.JobSchedulerImpl'
p3439
sg15
(lp3440
sg17
(lp3441
sg19
(lp3442
sg21
I0
sba(iArchitecture
Entity
p3443
(dp3444
g11
(lp3445
sg13
S'android.app.ProfilerInfo'
p3446
sg15
(lp3447
sg17
(lp3448
sg19
(lp3449
sg21
I0
sba(iArchitecture
Entity
p3450
(dp3451
g11
(lp3452
sg13
S'android.app.ProfilerInfo$1'
p3453
sg15
(lp3454
sg17
(lp3455
sg19
(lp3456
sg21
I0
sba(iArchitecture
Entity
p3457
(dp3458
g11
(lp3459
sg13
S'android.app.ResultInfo'
p3460
sg15
(lp3461
sg17
(lp3462
sg19
(lp3463
sg21
I0
sba(iArchitecture
Entity
p3464
(dp3465
g11
(lp3466
sg13
S'android.app.ResultInfo$1'
p3467
sg15
(lp3468
sg17
(lp3469
sg19
(lp3470
sg21
I0
sba(iArchitecture
Entity
p3471
(dp3472
g11
(lp3473
sg13
S'android.app.backup.AbsoluteFileBackupHelper'
p3474
sg15
(lp3475
sg17
(lp3476
sg19
(lp3477
sg21
I0
sba(iArchitecture
Entity
p3478
(dp3479
g11
(lp3480
sg13
S'android.app.backup.BackupAgentHelper'
p3481
sg15
(lp3482
sg17
(lp3483
sg19
(lp3484
sg21
I0
sba(iArchitecture
Entity
p3485
(dp3486
g11
(lp3487
sg13
S'android.app.backup.BackupDataInput'
p3488
sg15
(lp3489
sg17
(lp3490
sg19
(lp3491
sg21
I0
sba(iArchitecture
Entity
p3492
(dp3493
g11
(lp3494
sg13
S'android.app.backup.BackupDataInput$EntityHeader'
p3495
sg15
(lp3496
sg17
(lp3497
sg19
(lp3498
sg21
I0
sba(iArchitecture
Entity
p3499
(dp3500
g11
(lp3501
sg13
S'android.app.backup.BackupDataInputStream'
p3502
sg15
(lp3503
sg17
(lp3504
sg19
(lp3505
sg21
I0
sba(iArchitecture
Entity
p3506
(dp3507
g11
(lp3508
sg13
S'android.app.backup.BackupDataOutput'
p3509
sg15
(lp3510
sg17
(lp3511
sg19
(lp3512
sg21
I0
sba(iArchitecture
Entity
p3513
(dp3514
g11
(lp3515
sg13
S'android.app.backup.BackupHelper'
p3516
sg15
(lp3517
sg17
(lp3518
sg19
(lp3519
sg21
I0
sba(iArchitecture
Entity
p3520
(dp3521
g11
(lp3522
sg13
S'android.app.backup.BackupHelperDispatcher'
p3523
sg15
(lp3524
sg17
(lp3525
sg19
(lp3526
sg21
I0
sba(iArchitecture
Entity
p3527
(dp3528
g11
(lp3529
sg13
S'android.app.backup.BackupHelperDispatcher$Header'
p3530
sg15
(lp3531
sg17
(lp3532
sg19
(lp3533
sg21
I0
sba(iArchitecture
Entity
p3534
(dp3535
g11
(lp3536
sg13
S'android.app.backup.FileBackupHelper'
p3537
sg15
(lp3538
sg17
(lp3539
sg19
(lp3540
sg21
I0
sba(iArchitecture
Entity
p3541
(dp3542
g11
(lp3543
sg13
S'android.app.backup.FileBackupHelperBase'
p3544
sg15
(lp3545
sg17
(lp3546
sg19
(lp3547
sg21
I0
sba(iArchitecture
Entity
p3548
(dp3549
g11
(lp3550
sg13
S'android.app.backup.RestoreSet'
p3551
sg15
(lp3552
sg17
(lp3553
sg19
(lp3554
sg21
I0
sba(iArchitecture
Entity
p3555
(dp3556
g11
(lp3557
sg13
S'android.app.backup.RestoreSet$1'
p3558
sg15
(lp3559
sg17
(lp3560
sg19
(lp3561
sg21
I0
sba(iArchitecture
Entity
p3562
(dp3563
g11
(lp3564
sg13
S'android.app.backup.SharedPreferencesBackupHelper'
p3565
sg15
(lp3566
sg17
(lp3567
sg19
(lp3568
sg21
I0
sba(iArchitecture
Entity
p3569
(dp3570
g11
(lp3571
sg13
S'android.bluetooth.BluetoothInputStream'
p3572
sg15
(lp3573
sg17
(lp3574
sg19
(lp3575
sg21
I0
sba(iArchitecture
Entity
p3576
(dp3577
g11
(lp3578
sg13
S'android.bluetooth.BluetoothMasInstance'
p3579
sg15
(lp3580
sg17
(lp3581
sg19
(lp3582
sg21
I0
sba(iArchitecture
Entity
p3583
(dp3584
g11
(lp3585
sg13
S'android.bluetooth.BluetoothMasInstance$1'
p3586
sg15
(lp3587
sg17
(lp3588
sg19
(lp3589
sg21
I0
sba(iArchitecture
Entity
p3590
(dp3591
g11
(lp3592
sg13
S'android.bluetooth.BluetoothMasInstance$MessageType'
p3593
sg15
(lp3594
sg17
(lp3595
sg19
(lp3596
sg21
I0
sba(iArchitecture
Entity
p3597
(dp3598
g11
(lp3599
sg13
S'android.bluetooth.BluetoothOutputStream'
p3600
sg15
(lp3601
sg17
(lp3602
sg19
(lp3603
sg21
I0
sba(iArchitecture
Entity
p3604
(dp3605
g11
(lp3606
sg13
S'android.bluetooth.SdpMasRecord'
p3607
sg15
(lp3608
sg17
(lp3609
sg19
(lp3610
sg21
I0
sba(iArchitecture
Entity
p3611
(dp3612
g11
(lp3613
sg13
S'android.bluetooth.SdpMasRecord$1'
p3614
sg15
(lp3615
sg17
(lp3616
sg19
(lp3617
sg21
I0
sba(iArchitecture
Entity
p3618
(dp3619
g11
(lp3620
sg13
S'android.bluetooth.SdpMasRecord$MessageType'
p3621
sg15
(lp3622
sg17
(lp3623
sg19
(lp3624
sg21
I0
sba(iArchitecture
Entity
p3625
(dp3626
g11
(lp3627
sg13
S'android.bluetooth.SdpMnsRecord'
p3628
sg15
(lp3629
sg17
(lp3630
sg19
(lp3631
sg21
I0
sba(iArchitecture
Entity
p3632
(dp3633
g11
(lp3634
sg13
S'android.bluetooth.SdpMnsRecord$1'
p3635
sg15
(lp3636
sg17
(lp3637
sg19
(lp3638
sg21
I0
sba(iArchitecture
Entity
p3639
(dp3640
g11
(lp3641
sg13
S'android.bluetooth.SdpOppOpsRecord'
p3642
sg15
(lp3643
sg17
(lp3644
sg19
(lp3645
sg21
I0
sba(iArchitecture
Entity
p3646
(dp3647
g11
(lp3648
sg13
S'android.bluetooth.SdpOppOpsRecord$1'
p3649
sg15
(lp3650
sg17
(lp3651
sg19
(lp3652
sg21
I0
sba(iArchitecture
Entity
p3653
(dp3654
g11
(lp3655
sg13
S'android.bluetooth.SdpPseRecord'
p3656
sg15
(lp3657
sg17
(lp3658
sg19
(lp3659
sg21
I0
sba(iArchitecture
Entity
p3660
(dp3661
g11
(lp3662
sg13
S'android.bluetooth.SdpPseRecord$1'
p3663
sg15
(lp3664
sg17
(lp3665
sg19
(lp3666
sg21
I0
sba(iArchitecture
Entity
p3667
(dp3668
g11
(lp3669
sg13
S'android.bluetooth.SdpRecord'
p3670
sg15
(lp3671
sg17
(lp3672
sg19
(lp3673
sg21
I0
sba(iArchitecture
Entity
p3674
(dp3675
g11
(lp3676
sg13
S'android.bluetooth.SdpRecord$1'
p3677
sg15
(lp3678
sg17
(lp3679
sg19
(lp3680
sg21
I0
sba(iArchitecture
Entity
p3681
(dp3682
g11
(lp3683
sg13
S'android.bluetooth.SdpSapsRecord'
p3684
sg15
(lp3685
sg17
(lp3686
sg19
(lp3687
sg21
I0
sba(iArchitecture
Entity
p3688
(dp3689
g11
(lp3690
sg13
S'android.bluetooth.SdpSapsRecord$1'
p3691
sg15
(lp3692
sg17
(lp3693
sg19
(lp3694
sg21
I0
sba(iArchitecture
Entity
p3695
(dp3696
g11
(lp3697
sg13
S'android.bluetooth.le.ResultStorageDescriptor'
p3698
sg15
(lp3699
sg17
(lp3700
sg19
(lp3701
sg21
I0
sba(iArchitecture
Entity
p3702
(dp3703
g11
(lp3704
sg13
S'android.bluetooth.le.ResultStorageDescriptor$1'
p3705
sg15
(lp3706
sg17
(lp3707
sg19
(lp3708
sg21
I0
sba(iArchitecture
Entity
p3709
(dp3710
g11
(lp3711
sg13
S'android.content.ContentProviderResult'
p3712
sg15
(lp3713
sg17
(lp3714
sg19
(lp3715
sg21
I0
sba(iArchitecture
Entity
p3716
(dp3717
g11
(lp3718
sg13
S'android.content.ContentProviderResult$1'
p3719
sg15
(lp3720
sg17
(lp3721
sg19
(lp3722
sg21
I0
sba(iArchitecture
Entity
p3723
(dp3724
g11
(lp3725
sg13
S'android.content.ContentUris'
p3726
sg15
(lp3727
sg17
(lp3728
sg19
(lp3729
sg21
I0
sba(iArchitecture
Entity
p3730
(dp3731
g11
(lp3732
sg13
S'android.content.Entity'
p3733
sg15
(lp3734
sg17
(lp3735
sg19
(lp3736
sg21
I0
sba(iArchitecture
Entity
p3737
(dp3738
g11
(lp3739
sg13
S'android.content.Entity$NamedContentValues'
p3740
sg15
(lp3741
sg17
(lp3742
sg19
(lp3743
sg21
I0
sba(iArchitecture
Entity
p3744
(dp3745
g11
(lp3746
sg13
S'android.content.OperationApplicationException'
p3747
sg15
(lp3748
sg17
(lp3749
sg19
(lp3750
sg21
I0
sba(iArchitecture
Entity
p3751
(dp3752
g11
(lp3753
sg13
S'android.content.UndoOwner'
p3754
sg15
(lp3755
sg17
(lp3756
sg19
(lp3757
sg21
I0
sba(iArchitecture
Entity
p3758
(dp3759
g11
(lp3760
sg13
S'android.content.pm.FeatureInfo'
p3761
sg15
(lp3762
sg17
(lp3763
sg19
(lp3764
sg21
I0
sba(iArchitecture
Entity
p3765
(dp3766
g11
(lp3767
sg13
S'android.content.pm.FeatureInfo$1'
p3768
sg15
(lp3769
sg17
(lp3770
sg19
(lp3771
sg21
I0
sba(iArchitecture
Entity
p3772
(dp3773
g11
(lp3774
sg13
S'android.content.pm.KeySet'
p3775
sg15
(lp3776
sg17
(lp3777
sg19
(lp3778
sg21
I0
sba(iArchitecture
Entity
p3779
(dp3780
g11
(lp3781
sg13
S'android.content.pm.KeySet$1'
p3782
sg15
(lp3783
sg17
(lp3784
sg19
(lp3785
sg21
I0
sba(iArchitecture
Entity
p3786
(dp3787
g11
(lp3788
sg13
S'android.content.pm.VerifierInfo'
p3789
sg15
(lp3790
sg17
(lp3791
sg19
(lp3792
sg21
I0
sba(iArchitecture
Entity
p3793
(dp3794
g11
(lp3795
sg13
S'android.content.pm.VerifierInfo$1'
p3796
sg15
(lp3797
sg17
(lp3798
sg19
(lp3799
sg21
I0
sba(iArchitecture
Entity
p3800
(dp3801
g11
(lp3802
sg13
S'android.database.IBulkCursor'
p3803
sg15
(lp3804
sg17
(lp3805
sg19
(lp3806
sg21
I0
sba(iArchitecture
Entity
p3807
(dp3808
g11
(lp3809
sg13
S'android.database.sqlite.SQLiteCursorDriver'
p3810
sg15
(lp3811
sg17
(lp3812
sg19
(lp3813
sg21
I0
sba(iArchitecture
Entity
p3814
(dp3815
g11
(lp3816
sg13
S'android.database.sqlite.SQLiteDirectCursorDriver'
p3817
sg15
(lp3818
sg17
(lp3819
sg19
(lp3820
sg21
I0
sba(iArchitecture
Entity
p3821
(dp3822
g11
(lp3823
sg13
S'android.ddm.DdmRegister'
p3824
sg15
(lp3825
sg17
(lp3826
sg19
(lp3827
sg21
I0
sba(iArchitecture
Entity
p3828
(dp3829
g11
(lp3830
sg13
S'android.drm.DrmOutputStream'
p3831
sg15
(lp3832
sg17
(lp3833
sg19
(lp3834
sg21
I0
sba(iArchitecture
Entity
p3835
(dp3836
g11
(lp3837
sg13
S'android.filterfw.core.FinalPort'
p3838
sg15
(lp3839
sg17
(lp3840
sg19
(lp3841
sg21
I0
sba(iArchitecture
Entity
p3842
(dp3843
g11
(lp3844
sg13
S'android.filterfw.core.InputPort'
p3845
sg15
(lp3846
sg17
(lp3847
sg19
(lp3848
sg21
I0
sba(iArchitecture
Entity
p3849
(dp3850
g11
(lp3851
sg13
S'android.filterfw.core.KeyValueMap'
p3852
sg15
(lp3853
sg17
(lp3854
sg19
(lp3855
sg21
I0
sba(iArchitecture
Entity
p3856
(dp3857
g11
(lp3858
sg13
S'android.filterfw.core.Program'
p3859
sg15
(lp3860
sg17
(lp3861
sg19
(lp3862
sg21
I0
sba(iArchitecture
Entity
p3863
(dp3864
g11
(lp3865
sg13
S'android.filterfw.core.RandomScheduler'
p3866
sg15
(lp3867
sg17
(lp3868
sg19
(lp3869
sg21
I0
sba(iArchitecture
Entity
p3870
(dp3871
g11
(lp3872
sg13
S'android.filterfw.core.RoundRobinScheduler'
p3873
sg15
(lp3874
sg17
(lp3875
sg19
(lp3876
sg21
I0
sba(iArchitecture
Entity
p3877
(dp3878
g11
(lp3879
sg13
S'android.filterfw.io.GraphReader'
p3880
sg15
(lp3881
sg17
(lp3882
sg19
(lp3883
sg21
I0
sba(iArchitecture
Entity
p3884
(dp3885
g11
(lp3886
sg13
S'android.filterpacks.base.FrameBranch'
p3887
sg15
(lp3888
sg17
(lp3889
sg19
(lp3890
sg21
I0
sba(iArchitecture
Entity
p3891
(dp3892
g11
(lp3893
sg13
S'android.filterpacks.base.InputStreamSource'
p3894
sg15
(lp3895
sg17
(lp3896
sg19
(lp3897
sg21
I0
sba(iArchitecture
Entity
p3898
(dp3899
g11
(lp3900
sg13
S'android.filterpacks.base.OutputStreamTarget'
p3901
sg15
(lp3902
sg17
(lp3903
sg19
(lp3904
sg21
I0
sba(iArchitecture
Entity
p3905
(dp3906
g11
(lp3907
sg13
S'android.filterpacks.imageproc.ImageEncoder'
p3908
sg15
(lp3909
sg17
(lp3910
sg19
(lp3911
sg21
I0
sba(iArchitecture
Entity
p3912
(dp3913
g11
(lp3914
sg13
S'android.filterpacks.text.StringLogger'
p3915
sg15
(lp3916
sg17
(lp3917
sg19
(lp3918
sg21
I0
sba(iArchitecture
Entity
p3919
(dp3920
g11
(lp3921
sg13
S'android.filterpacks.text.ToUpperCase'
p3922
sg15
(lp3923
sg17
(lp3924
sg19
(lp3925
sg21
I0
sba(iArchitecture
Entity
p3926
(dp3927
g11
(lp3928
sg13
S'android.filterpacks.videosink.MediaRecorderStopException'
p3929
sg15
(lp3930
sg17
(lp3931
sg19
(lp3932
sg21
I0
sba(iArchitecture
Entity
p3933
(dp3934
g11
(lp3935
sg13
S'android.gesture.GesturePoint'
p3936
sg15
(lp3937
sg17
(lp3938
sg19
(lp3939
sg21
I0
sba(iArchitecture
Entity
p3940
(dp3941
g11
(lp3942
sg13
S'android.graphics.CanvasProperty'
p3943
sg15
(lp3944
sg17
(lp3945
sg19
(lp3946
sg21
I0
sba(iArchitecture
Entity
p3947
(dp3948
g11
(lp3949
sg13
S'android.graphics.PathDashPathEffect'
p3950
sg15
(lp3951
sg17
(lp3952
sg19
(lp3953
sg21
I0
sba(iArchitecture
Entity
p3954
(dp3955
g11
(lp3956
sg13
S'android.graphics.PathDashPathEffect$Style'
p3957
sg15
(lp3958
sg17
(lp3959
sg19
(lp3960
sg21
I0
sba(iArchitecture
Entity
p3961
(dp3962
g11
(lp3963
sg13
S'android.graphics.TableMaskFilter'
p3964
sg15
(lp3965
sg17
(lp3966
sg19
(lp3967
sg21
I0
sba(iArchitecture
Entity
p3968
(dp3969
g11
(lp3970
sg13
S'android.graphics.drawable.PictureDrawable'
p3971
sg15
(lp3972
sg17
(lp3973
sg19
(lp3974
sg21
I0
sba(iArchitecture
Entity
p3975
(dp3976
g11
(lp3977
sg13
S'android.graphics.drawable.shapes.PathShape'
p3978
sg15
(lp3979
sg17
(lp3980
sg19
(lp3981
sg21
I0
sba(iArchitecture
Entity
p3982
(dp3983
g11
(lp3984
sg13
S'android.graphics.drawable.shapes.Shape'
p3985
sg15
(lp3986
sg17
(lp3987
sg19
(lp3988
sg21
I0
sba(iArchitecture
Entity
p3989
(dp3990
g11
(lp3991
sg13
S'android.hardware.SerialPort'
p3992
sg15
(lp3993
sg17
(lp3994
sg19
(lp3995
sg21
I0
sba(iArchitecture
Entity
p3996
(dp3997
g11
(lp3998
sg13
S'android.hardware.camera2.dispatch.ArgumentReplacingDispatcher'
p3999
sg15
(lp4000
sg17
(lp4001
sg19
(lp4002
sg21
I0
sba(iArchitecture
Entity
p4003
(dp4004
g11
(lp4005
sg13
S'android.hardware.camera2.dispatch.DuckTypingDispatcher'
p4006
sg15
(lp4007
sg17
(lp4008
sg19
(lp4009
sg21
I0
sba(iArchitecture
Entity
p4010
(dp4011
g11
(lp4012
sg13
S'android.hardware.camera2.impl.CaptureResultExtras'
p4013
sg15
(lp4014
sg17
(lp4015
sg19
(lp4016
sg21
I0
sba(iArchitecture
Entity
p4017
(dp4018
g11
(lp4019
sg13
S'android.hardware.camera2.impl.CaptureResultExtras$1'
p4020
sg15
(lp4021
sg17
(lp4022
sg19
(lp4023
sg21
I0
sba(iArchitecture
Entity
p4024
(dp4025
g11
(lp4026
sg13
S'android.hardware.camera2.marshal.MarshalHelpers'
p4027
sg15
(lp4028
sg17
(lp4029
sg19
(lp4030
sg21
I0
sba(iArchitecture
Entity
p4031
(dp4032
g11
(lp4033
sg13
S'android.hardware.camera2.marshal.MarshalRegistry'
p4034
sg15
(lp4035
sg17
(lp4036
sg19
(lp4037
sg21
I0
sba(iArchitecture
Entity
p4038
(dp4039
g11
(lp4040
sg13
S'android.hardware.camera2.marshal.MarshalRegistry$MarshalToken'
p4041
sg15
(lp4042
sg17
(lp4043
sg19
(lp4044
sg21
I0
sba(iArchitecture
Entity
p4045
(dp4046
g11
(lp4047
sg13
S'android.hardware.camera2.marshal.impl.MarshalQueryableMeteringRectangle'
p4048
sg15
(lp4049
sg17
(lp4050
sg19
(lp4051
sg21
I0
sba(iArchitecture
Entity
p4052
(dp4053
g11
(lp4054
sg13
S'android.hardware.camera2.marshal.impl.MarshalQueryableMeteringRectangle$MarshalerMeteringRectangle'
p4055
sg15
(lp4056
sg17
(lp4057
sg19
(lp4058
sg21
I0
sba(iArchitecture
Entity
p4059
(dp4060
g11
(lp4061
sg13
S'android.hardware.camera2.marshal.impl.MarshalQueryableParcelable'
p4062
sg15
(lp4063
sg17
(lp4064
sg19
(lp4065
sg21
I0
sba(iArchitecture
Entity
p4066
(dp4067
g11
(lp4068
sg13
S'android.hardware.camera2.marshal.impl.MarshalQueryableParcelable$MarshalerParcelable'
p4069
sg15
(lp4070
sg17
(lp4071
sg19
(lp4072
sg21
I0
sba(iArchitecture
Entity
p4073
(dp4074
g11
(lp4075
sg13
S'android.hardware.camera2.marshal.impl.MarshalQueryablePrimitive'
p4076
sg15
(lp4077
sg17
(lp4078
sg19
(lp4079
sg21
I0
sba(iArchitecture
Entity
p4080
(dp4081
g11
(lp4082
sg13
S'android.hardware.camera2.marshal.impl.MarshalQueryablePrimitive$MarshalerPrimitive'
p4083
sg15
(lp4084
sg17
(lp4085
sg19
(lp4086
sg21
I0
sba(iArchitecture
Entity
p4087
(dp4088
g11
(lp4089
sg13
S'android.hardware.camera2.marshal.impl.MarshalQueryableStreamConfiguration'
p4090
sg15
(lp4091
sg17
(lp4092
sg19
(lp4093
sg21
I0
sba(iArchitecture
Entity
p4094
(dp4095
g11
(lp4096
sg13
S'android.hardware.camera2.marshal.impl.MarshalQueryableStreamConfiguration$MarshalerStreamConfiguration'
p4097
sg15
(lp4098
sg17
(lp4099
sg19
(lp4100
sg21
I0
sba(iArchitecture
Entity
p4101
(dp4102
g11
(lp4103
sg13
S'android.hardware.camera2.marshal.impl.MarshalQueryableStreamConfigurationDuration'
p4104
sg15
(lp4105
sg17
(lp4106
sg19
(lp4107
sg21
I0
sba(iArchitecture
Entity
p4108
(dp4109
g11
(lp4110
sg13
S'android.hardware.camera2.marshal.impl.MarshalQueryableStreamConfigurationDuration$MarshalerStreamConfigurationDuration'
p4111
sg15
(lp4112
sg17
(lp4113
sg19
(lp4114
sg21
I0
sba(iArchitecture
Entity
p4115
(dp4116
g11
(lp4117
sg13
S'android.hardware.camera2.utils.ListUtils'
p4118
sg15
(lp4119
sg17
(lp4120
sg19
(lp4121
sg21
I0
sba(iArchitecture
Entity
p4122
(dp4123
g11
(lp4124
sg13
S'android.hardware.input.InputDeviceIdentifier'
p4125
sg15
(lp4126
sg17
(lp4127
sg19
(lp4128
sg21
I0
sba(iArchitecture
Entity
p4129
(dp4130
g11
(lp4131
sg13
S'android.hardware.input.InputDeviceIdentifier$1'
p4132
sg15
(lp4133
sg17
(lp4134
sg19
(lp4135
sg21
I0
sba(iArchitecture
Entity
p4136
(dp4137
g11
(lp4138
sg13
S'android.hardware.usb.UsbConfiguration'
p4139
sg15
(lp4140
sg17
(lp4141
sg19
(lp4142
sg21
I0
sba(iArchitecture
Entity
p4143
(dp4144
g11
(lp4145
sg13
S'android.hardware.usb.UsbConfiguration$1'
p4146
sg15
(lp4147
sg17
(lp4148
sg19
(lp4149
sg21
I0
sba(iArchitecture
Entity
p4150
(dp4151
g11
(lp4152
sg13
S'android.hardware.usb.UsbDevice'
p4153
sg15
(lp4154
sg17
(lp4155
sg19
(lp4156
sg21
I0
sba(iArchitecture
Entity
p4157
(dp4158
g11
(lp4159
sg13
S'android.hardware.usb.UsbDevice$1'
p4160
sg15
(lp4161
sg17
(lp4162
sg19
(lp4163
sg21
I0
sba(iArchitecture
Entity
p4164
(dp4165
g11
(lp4166
sg13
S'android.hardware.usb.UsbDeviceConnection'
p4167
sg15
(lp4168
sg17
(lp4169
sg19
(lp4170
sg21
I0
sba(iArchitecture
Entity
p4171
(dp4172
g11
(lp4173
sg13
S'android.hardware.usb.UsbInterface'
p4174
sg15
(lp4175
sg17
(lp4176
sg19
(lp4177
sg21
I0
sba(iArchitecture
Entity
p4178
(dp4179
g11
(lp4180
sg13
S'android.hardware.usb.UsbInterface$1'
p4181
sg15
(lp4182
sg17
(lp4183
sg19
(lp4184
sg21
I0
sba(iArchitecture
Entity
p4185
(dp4186
g11
(lp4187
sg13
S'android.hardware.usb.UsbRequest'
p4188
sg15
(lp4189
sg17
(lp4190
sg19
(lp4191
sg21
I0
sba(iArchitecture
Entity
p4192
(dp4193
g11
(lp4194
sg13
S'android.media.AudioHandle'
p4195
sg15
(lp4196
sg17
(lp4197
sg19
(lp4198
sg21
I0
sba(iArchitecture
Entity
p4199
(dp4200
g11
(lp4201
sg13
S'android.media.TimedMetaData'
p4202
sg15
(lp4203
sg17
(lp4204
sg19
(lp4205
sg21
I0
sba(iArchitecture
Entity
p4206
(dp4207
g11
(lp4208
sg13
S'android.media.effect.EffectUpdateListener'
p4209
sg15
(lp4210
sg17
(lp4211
sg19
(lp4212
sg21
I0
sba(iArchitecture
Entity
p4213
(dp4214
g11
(lp4215
sg13
S'android.media.effect.effects.AutoFixEffect'
p4216
sg15
(lp4217
sg17
(lp4218
sg19
(lp4219
sg21
I0
sba(iArchitecture
Entity
p4220
(dp4221
g11
(lp4222
sg13
S'android.media.effect.effects.BitmapOverlayEffect'
p4223
sg15
(lp4224
sg17
(lp4225
sg19
(lp4226
sg21
I0
sba(iArchitecture
Entity
p4227
(dp4228
g11
(lp4229
sg13
S'android.media.effect.effects.BlackWhiteEffect'
p4230
sg15
(lp4231
sg17
(lp4232
sg19
(lp4233
sg21
I0
sba(iArchitecture
Entity
p4234
(dp4235
g11
(lp4236
sg13
S'android.media.effect.effects.BrightnessEffect'
p4237
sg15
(lp4238
sg17
(lp4239
sg19
(lp4240
sg21
I0
sba(iArchitecture
Entity
p4241
(dp4242
g11
(lp4243
sg13
S'android.media.effect.effects.ColorTemperatureEffect'
p4244
sg15
(lp4245
sg17
(lp4246
sg19
(lp4247
sg21
I0
sba(iArchitecture
Entity
p4248
(dp4249
g11
(lp4250
sg13
S'android.media.effect.effects.ContrastEffect'
p4251
sg15
(lp4252
sg17
(lp4253
sg19
(lp4254
sg21
I0
sba(iArchitecture
Entity
p4255
(dp4256
g11
(lp4257
sg13
S'android.media.effect.effects.CropEffect'
p4258
sg15
(lp4259
sg17
(lp4260
sg19
(lp4261
sg21
I0
sba(iArchitecture
Entity
p4262
(dp4263
g11
(lp4264
sg13
S'android.media.effect.effects.CrossProcessEffect'
p4265
sg15
(lp4266
sg17
(lp4267
sg19
(lp4268
sg21
I0
sba(iArchitecture
Entity
p4269
(dp4270
g11
(lp4271
sg13
S'android.media.effect.effects.DocumentaryEffect'
p4272
sg15
(lp4273
sg17
(lp4274
sg19
(lp4275
sg21
I0
sba(iArchitecture
Entity
p4276
(dp4277
g11
(lp4278
sg13
S'android.media.effect.effects.DuotoneEffect'
p4279
sg15
(lp4280
sg17
(lp4281
sg19
(lp4282
sg21
I0
sba(iArchitecture
Entity
p4283
(dp4284
g11
(lp4285
sg13
S'android.media.effect.effects.FillLightEffect'
p4286
sg15
(lp4287
sg17
(lp4288
sg19
(lp4289
sg21
I0
sba(iArchitecture
Entity
p4290
(dp4291
g11
(lp4292
sg13
S'android.media.effect.effects.FisheyeEffect'
p4293
sg15
(lp4294
sg17
(lp4295
sg19
(lp4296
sg21
I0
sba(iArchitecture
Entity
p4297
(dp4298
g11
(lp4299
sg13
S'android.media.effect.effects.FlipEffect'
p4300
sg15
(lp4301
sg17
(lp4302
sg19
(lp4303
sg21
I0
sba(iArchitecture
Entity
p4304
(dp4305
g11
(lp4306
sg13
S'android.media.effect.effects.GrainEffect'
p4307
sg15
(lp4308
sg17
(lp4309
sg19
(lp4310
sg21
I0
sba(iArchitecture
Entity
p4311
(dp4312
g11
(lp4313
sg13
S'android.media.effect.effects.GrayscaleEffect'
p4314
sg15
(lp4315
sg17
(lp4316
sg19
(lp4317
sg21
I0
sba(iArchitecture
Entity
p4318
(dp4319
g11
(lp4320
sg13
S'android.media.effect.effects.LomoishEffect'
p4321
sg15
(lp4322
sg17
(lp4323
sg19
(lp4324
sg21
I0
sba(iArchitecture
Entity
p4325
(dp4326
g11
(lp4327
sg13
S'android.media.effect.effects.NegativeEffect'
p4328
sg15
(lp4329
sg17
(lp4330
sg19
(lp4331
sg21
I0
sba(iArchitecture
Entity
p4332
(dp4333
g11
(lp4334
sg13
S'android.media.effect.effects.PosterizeEffect'
p4335
sg15
(lp4336
sg17
(lp4337
sg19
(lp4338
sg21
I0
sba(iArchitecture
Entity
p4339
(dp4340
g11
(lp4341
sg13
S'android.media.effect.effects.RedEyeEffect'
p4342
sg15
(lp4343
sg17
(lp4344
sg19
(lp4345
sg21
I0
sba(iArchitecture
Entity
p4346
(dp4347
g11
(lp4348
sg13
S'android.media.effect.effects.RotateEffect'
p4349
sg15
(lp4350
sg17
(lp4351
sg19
(lp4352
sg21
I0
sba(iArchitecture
Entity
p4353
(dp4354
g11
(lp4355
sg13
S'android.media.effect.effects.SaturateEffect'
p4356
sg15
(lp4357
sg17
(lp4358
sg19
(lp4359
sg21
I0
sba(iArchitecture
Entity
p4360
(dp4361
g11
(lp4362
sg13
S'android.media.effect.effects.SepiaEffect'
p4363
sg15
(lp4364
sg17
(lp4365
sg19
(lp4366
sg21
I0
sba(iArchitecture
Entity
p4367
(dp4368
g11
(lp4369
sg13
S'android.media.effect.effects.SharpenEffect'
p4370
sg15
(lp4371
sg17
(lp4372
sg19
(lp4373
sg21
I0
sba(iArchitecture
Entity
p4374
(dp4375
g11
(lp4376
sg13
S'android.media.effect.effects.StraightenEffect'
p4377
sg15
(lp4378
sg17
(lp4379
sg19
(lp4380
sg21
I0
sba(iArchitecture
Entity
p4381
(dp4382
g11
(lp4383
sg13
S'android.media.effect.effects.TintEffect'
p4384
sg15
(lp4385
sg17
(lp4386
sg19
(lp4387
sg21
I0
sba(iArchitecture
Entity
p4388
(dp4389
g11
(lp4390
sg13
S'android.media.effect.effects.VignetteEffect'
p4391
sg15
(lp4392
sg17
(lp4393
sg19
(lp4394
sg21
I0
sba(iArchitecture
Entity
p4395
(dp4396
g11
(lp4397
sg13
S'android.media.session.ParcelableVolumeInfo'
p4398
sg15
(lp4399
sg17
(lp4400
sg19
(lp4401
sg21
I0
sba(iArchitecture
Entity
p4402
(dp4403
g11
(lp4404
sg13
S'android.media.session.ParcelableVolumeInfo$1'
p4405
sg15
(lp4406
sg17
(lp4407
sg19
(lp4408
sg21
I0
sba(iArchitecture
Entity
p4409
(dp4410
g11
(lp4411
sg13
S'android.media.tv.DvbDeviceInfo'
p4412
sg15
(lp4413
sg17
(lp4414
sg19
(lp4415
sg21
I0
sba(iArchitecture
Entity
p4416
(dp4417
g11
(lp4418
sg13
S'android.media.tv.DvbDeviceInfo$1'
p4419
sg15
(lp4420
sg17
(lp4421
sg19
(lp4422
sg21
I0
sba(iArchitecture
Entity
p4423
(dp4424
g11
(lp4425
sg13
S'android.media.tv.TvContentRatingSystemInfo'
p4426
sg15
(lp4427
sg17
(lp4428
sg19
(lp4429
sg21
I0
sba(iArchitecture
Entity
p4430
(dp4431
g11
(lp4432
sg13
S'android.media.tv.TvContentRatingSystemInfo$1'
p4433
sg15
(lp4434
sg17
(lp4435
sg19
(lp4436
sg21
I0
sba(iArchitecture
Entity
p4437
(dp4438
g11
(lp4439
sg13
S'android.net.WifiLinkQualityInfo'
p4440
sg15
(lp4441
sg17
(lp4442
sg19
(lp4443
sg21
I0
sba(iArchitecture
Entity
p4444
(dp4445
g11
(lp4446
sg13
S'android.net.netlink.NetlinkErrorMessage'
p4447
sg15
(lp4448
sg17
(lp4449
sg19
(lp4450
sg21
I0
sba(iArchitecture
Entity
p4451
(dp4452
g11
(lp4453
sg13
S'android.net.wifi.RssiPacketCountInfo'
p4454
sg15
(lp4455
sg17
(lp4456
sg19
(lp4457
sg21
I0
sba(iArchitecture
Entity
p4458
(dp4459
g11
(lp4460
sg13
S'android.net.wifi.RssiPacketCountInfo$1'
p4461
sg15
(lp4462
sg17
(lp4463
sg19
(lp4464
sg21
I0
sba(iArchitecture
Entity
p4465
(dp4466
g11
(lp4467
sg13
S'android.net.wifi.ScanSettings'
p4468
sg15
(lp4469
sg17
(lp4470
sg19
(lp4471
sg21
I0
sba(iArchitecture
Entity
p4472
(dp4473
g11
(lp4474
sg13
S'android.net.wifi.ScanSettings$1'
p4475
sg15
(lp4476
sg17
(lp4477
sg19
(lp4478
sg21
I0
sba(iArchitecture
Entity
p4479
(dp4480
g11
(lp4481
sg13
S'android.net.wifi.WifiChannel'
p4482
sg15
(lp4483
sg17
(lp4484
sg19
(lp4485
sg21
I0
sba(iArchitecture
Entity
p4486
(dp4487
g11
(lp4488
sg13
S'android.net.wifi.WifiChannel$1'
p4489
sg15
(lp4490
sg17
(lp4491
sg19
(lp4492
sg21
I0
sba(iArchitecture
Entity
p4493
(dp4494
g11
(lp4495
sg13
S'android.net.wifi.WifiConnectionStatistics'
p4496
sg15
(lp4497
sg17
(lp4498
sg19
(lp4499
sg21
I0
sba(iArchitecture
Entity
p4500
(dp4501
g11
(lp4502
sg13
S'android.net.wifi.WifiConnectionStatistics$1'
p4503
sg15
(lp4504
sg17
(lp4505
sg19
(lp4506
sg21
I0
sba(iArchitecture
Entity
p4507
(dp4508
g11
(lp4509
sg13
S'android.net.wifi.WifiNetworkConnectionStatistics'
p4510
sg15
(lp4511
sg17
(lp4512
sg19
(lp4513
sg21
I0
sba(iArchitecture
Entity
p4514
(dp4515
g11
(lp4516
sg13
S'android.net.wifi.WifiNetworkConnectionStatistics$1'
p4517
sg15
(lp4518
sg17
(lp4519
sg19
(lp4520
sg21
I0
sba(iArchitecture
Entity
p4521
(dp4522
g11
(lp4523
sg13
S'android.net.wifi.WpsInfo'
p4524
sg15
(lp4525
sg17
(lp4526
sg19
(lp4527
sg21
I0
sba(iArchitecture
Entity
p4528
(dp4529
g11
(lp4530
sg13
S'android.net.wifi.WpsInfo$1'
p4531
sg15
(lp4532
sg17
(lp4533
sg19
(lp4534
sg21
I0
sba(iArchitecture
Entity
p4535
(dp4536
g11
(lp4537
sg13
S'android.net.wifi.p2p.nsd.WifiP2pUpnpServiceRequest'
p4538
sg15
(lp4539
sg17
(lp4540
sg19
(lp4541
sg21
I0
sba(iArchitecture
Entity
p4542
(dp4543
g11
(lp4544
sg13
S'android.nfc.ApduList'
p4545
sg15
(lp4546
sg17
(lp4547
sg19
(lp4548
sg21
I0
sba(iArchitecture
Entity
p4549
(dp4550
g11
(lp4551
sg13
S'android.nfc.ApduList$1'
p4552
sg15
(lp4553
sg17
(lp4554
sg19
(lp4555
sg21
I0
sba(iArchitecture
Entity
p4556
(dp4557
g11
(lp4558
sg13
S'android.nfc.TechListParcel'
p4559
sg15
(lp4560
sg17
(lp4561
sg19
(lp4562
sg21
I0
sba(iArchitecture
Entity
p4563
(dp4564
g11
(lp4565
sg13
S'android.nfc.TechListParcel$1'
p4566
sg15
(lp4567
sg17
(lp4568
sg19
(lp4569
sg21
I0
sba(iArchitecture
Entity
p4570
(dp4571
g11
(lp4572
sg13
S'android.os.IServiceManager'
p4573
sg15
(lp4574
sg17
(lp4575
sg19
(lp4576
sg21
I0
sba(iArchitecture
Entity
p4577
(dp4578
g11
(lp4579
sg13
S'android.os.NullVibrator'
p4580
sg15
(lp4581
sg17
(lp4582
sg19
(lp4583
sg21
I0
sba(iArchitecture
Entity
p4584
(dp4585
g11
(lp4586
sg13
S'android.os.Parcelable'
p4587
sg15
(lp4588
sg17
(lp4589
sg19
(lp4590
sg21
I0
sba(iArchitecture
Entity
p4591
(dp4592
g11
(lp4593
sg13
S'android.os.Parcelable$ClassLoaderCreator'
p4594
sg15
(lp4595
sg17
(lp4596
sg19
(lp4597
sg21
I0
sba(iArchitecture
Entity
p4598
(dp4599
g11
(lp4600
sg13
S'android.os.Parcelable$Creator'
p4601
sg15
(lp4602
sg17
(lp4603
sg19
(lp4604
sg21
I0
sba(iArchitecture
Entity
p4605
(dp4606
g11
(lp4607
sg13
S'android.os.PersistableBundle'
p4608
sg15
(lp4609
sg17
(lp4610
sg19
(lp4611
sg21
I0
sba(iArchitecture
Entity
p4612
(dp4613
g11
(lp4614
sg13
S'android.os.PersistableBundle$1'
p4615
sg15
(lp4616
sg17
(lp4617
sg19
(lp4618
sg21
I0
sba(iArchitecture
Entity
p4619
(dp4620
g11
(lp4621
sg13
S'android.os.PersistableBundle$MyReadMapCallback'
p4622
sg15
(lp4623
sg17
(lp4624
sg19
(lp4625
sg21
I0
sba(iArchitecture
Entity
p4626
(dp4627
g11
(lp4628
sg13
S'android.os.RemoteCallback'
p4629
sg15
(lp4630
sg17
(lp4631
sg19
(lp4632
sg21
I0
sba(iArchitecture
Entity
p4633
(dp4634
g11
(lp4635
sg13
S'android.os.RemoteCallback$1'
p4636
sg15
(lp4637
sg17
(lp4638
sg19
(lp4639
sg21
I0
sba(iArchitecture
Entity
p4640
(dp4641
g11
(lp4642
sg13
S'android.os.RemoteCallback$DeliverResult'
p4643
sg15
(lp4644
sg17
(lp4645
sg19
(lp4646
sg21
I0
sba(iArchitecture
Entity
p4647
(dp4648
g11
(lp4649
sg13
S'android.os.RemoteCallback$LocalCallback'
p4650
sg15
(lp4651
sg17
(lp4652
sg19
(lp4653
sg21
I0
sba(iArchitecture
Entity
p4654
(dp4655
g11
(lp4656
sg13
S'android.os.RemoteCallback$RemoteCallbackProxy'
p4657
sg15
(lp4658
sg17
(lp4659
sg19
(lp4660
sg21
I0
sba(iArchitecture
Entity
p4661
(dp4662
g11
(lp4663
sg13
S'android.os.SystemProperties'
p4664
sg15
(lp4665
sg17
(lp4666
sg19
(lp4667
sg21
I0
sba(iArchitecture
Entity
p4668
(dp4669
g11
(lp4670
sg13
S'android.os.TransactionTooLargeException'
p4671
sg15
(lp4672
sg17
(lp4673
sg19
(lp4674
sg21
I0
sba(iArchitecture
Entity
p4675
(dp4676
g11
(lp4677
sg13
S'android.preference.SeekBarPreference'
p4678
sg15
(lp4679
sg17
(lp4680
sg19
(lp4681
sg21
I0
sba(iArchitecture
Entity
p4682
(dp4683
g11
(lp4684
sg13
S'android.preference.SeekBarPreference$SavedState'
p4685
sg15
(lp4686
sg17
(lp4687
sg19
(lp4688
sg21
I0
sba(iArchitecture
Entity
p4689
(dp4690
g11
(lp4691
sg13
S'android.preference.SeekBarPreference$SavedState$1'
p4692
sg15
(lp4693
sg17
(lp4694
sg19
(lp4695
sg21
I0
sba(iArchitecture
Entity
p4696
(dp4697
g11
(lp4698
sg13
S'android.print.PageRange'
p4699
sg15
(lp4700
sg17
(lp4701
sg19
(lp4702
sg21
I0
sba(iArchitecture
Entity
p4703
(dp4704
g11
(lp4705
sg13
S'android.print.PageRange$1'
p4706
sg15
(lp4707
sg17
(lp4708
sg19
(lp4709
sg21
I0
sba(iArchitecture
Entity
p4710
(dp4711
g11
(lp4712
sg13
S'android.security.GateKeeper'
p4713
sg15
(lp4714
sg17
(lp4715
sg19
(lp4716
sg21
I0
sba(iArchitecture
Entity
p4717
(dp4718
g11
(lp4719
sg13
S'android.security.KeystoreArguments'
p4720
sg15
(lp4721
sg17
(lp4722
sg19
(lp4723
sg21
I0
sba(iArchitecture
Entity
p4724
(dp4725
g11
(lp4726
sg13
S'android.security.KeystoreArguments$1'
p4727
sg15
(lp4728
sg17
(lp4729
sg19
(lp4730
sg21
I0
sba(iArchitecture
Entity
p4731
(dp4732
g11
(lp4733
sg13
S'android.security.SystemKeyStore'
p4734
sg15
(lp4735
sg17
(lp4736
sg19
(lp4737
sg21
I0
sba(iArchitecture
Entity
p4738
(dp4739
g11
(lp4740
sg13
S'android.security.keystore.AndroidKeyStoreKey'
p4741
sg15
(lp4742
sg17
(lp4743
sg19
(lp4744
sg21
I0
sba(iArchitecture
Entity
p4745
(dp4746
g11
(lp4747
sg13
S'android.security.keystore.AndroidKeyStoreRSAPrivateKey'
p4748
sg15
(lp4749
sg17
(lp4750
sg19
(lp4751
sg21
I0
sba(iArchitecture
Entity
p4752
(dp4753
g11
(lp4754
sg13
S'android.security.keystore.AndroidKeyStoreRSAPublicKey'
p4755
sg15
(lp4756
sg17
(lp4757
sg19
(lp4758
sg21
I0
sba(iArchitecture
Entity
p4759
(dp4760
g11
(lp4761
sg13
S'android.security.keystore.KeyExpiredException'
p4762
sg15
(lp4763
sg17
(lp4764
sg19
(lp4765
sg21
I0
sba(iArchitecture
Entity
p4766
(dp4767
g11
(lp4768
sg13
S'android.security.keystore.KeyNotYetValidException'
p4769
sg15
(lp4770
sg17
(lp4771
sg19
(lp4772
sg21
I0
sba(iArchitecture
Entity
p4773
(dp4774
g11
(lp4775
sg13
S'android.security.keystore.KeyStoreConnectException'
p4776
sg15
(lp4777
sg17
(lp4778
sg19
(lp4779
sg21
I0
sba(iArchitecture
Entity
p4780
(dp4781
g11
(lp4782
sg13
S'android.security.keystore.KeyStoreCryptoOperationStreamer'
p4783
sg15
(lp4784
sg17
(lp4785
sg19
(lp4786
sg21
I0
sba(iArchitecture
Entity
p4787
(dp4788
g11
(lp4789
sg13
S'android.security.keystore.UserNotAuthenticatedException'
p4790
sg15
(lp4791
sg17
(lp4792
sg19
(lp4793
sg21
I0
sba(iArchitecture
Entity
p4794
(dp4795
g11
(lp4796
sg13
S'android.service.carrier.MessagePdu'
p4797
sg15
(lp4798
sg17
(lp4799
sg19
(lp4800
sg21
I0
sba(iArchitecture
Entity
p4801
(dp4802
g11
(lp4803
sg13
S'android.service.carrier.MessagePdu$1'
p4804
sg15
(lp4805
sg17
(lp4806
sg19
(lp4807
sg21
I0
sba(iArchitecture
Entity
p4808
(dp4809
g11
(lp4810
sg13
S'android.service.wallpaper.WallpaperSettingsActivity'
p4811
sg15
(lp4812
sg17
(lp4813
sg19
(lp4814
sg21
I0
sba(iArchitecture
Entity
p4815
(dp4816
g11
(lp4817
sg13
S'android.speech.tts.AbstractSynthesisCallback'
p4818
sg15
(lp4819
sg17
(lp4820
sg19
(lp4821
sg21
I0
sba(iArchitecture
Entity
p4822
(dp4823
g11
(lp4824
sg13
S'android.speech.tts.SilencePlaybackQueueItem'
p4825
sg15
(lp4826
sg17
(lp4827
sg19
(lp4828
sg21
I0
sba(iArchitecture
Entity
p4829
(dp4830
g11
(lp4831
sg13
S'android.text.GraphicsOperations'
p4832
sg15
(lp4833
sg17
(lp4834
sg19
(lp4835
sg21
I0
sba(iArchitecture
Entity
p4836
(dp4837
g11
(lp4838
sg13
S'android.text.InputFilter'
p4839
sg15
(lp4840
sg17
(lp4841
sg19
(lp4842
sg21
I0
sba(iArchitecture
Entity
p4843
(dp4844
g11
(lp4845
sg13
S'android.text.InputFilter$AllCaps'
p4846
sg15
(lp4847
sg17
(lp4848
sg19
(lp4849
sg21
I0
sba(iArchitecture
Entity
p4850
(dp4851
g11
(lp4852
sg13
S'android.text.InputFilter$LengthFilter'
p4853
sg15
(lp4854
sg17
(lp4855
sg19
(lp4856
sg21
I0
sba(iArchitecture
Entity
p4857
(dp4858
g11
(lp4859
sg13
S'android.text.LoginFilter'
p4860
sg15
(lp4861
sg17
(lp4862
sg19
(lp4863
sg21
I0
sba(iArchitecture
Entity
p4864
(dp4865
g11
(lp4866
sg13
S'android.text.LoginFilter$PasswordFilterGMail'
p4867
sg15
(lp4868
sg17
(lp4869
sg19
(lp4870
sg21
I0
sba(iArchitecture
Entity
p4871
(dp4872
g11
(lp4873
sg13
S'android.text.LoginFilter$UsernameFilterGMail'
p4874
sg15
(lp4875
sg17
(lp4876
sg19
(lp4877
sg21
I0
sba(iArchitecture
Entity
p4878
(dp4879
g11
(lp4880
sg13
S'android.text.LoginFilter$UsernameFilterGeneric'
p4881
sg15
(lp4882
sg17
(lp4883
sg19
(lp4884
sg21
I0
sba(iArchitecture
Entity
p4885
(dp4886
g11
(lp4887
sg13
S'android.text.SpanWatcher'
p4888
sg15
(lp4889
sg17
(lp4890
sg19
(lp4891
sg21
I0
sba(iArchitecture
Entity
p4892
(dp4893
g11
(lp4894
sg13
S'android.text.SpannedString'
p4895
sg15
(lp4896
sg17
(lp4897
sg19
(lp4898
sg21
I0
sba(iArchitecture
Entity
p4899
(dp4900
g11
(lp4901
sg13
S'android.text.TextWatcher'
p4902
sg15
(lp4903
sg17
(lp4904
sg19
(lp4905
sg21
I0
sba(iArchitecture
Entity
p4906
(dp4907
g11
(lp4908
sg13
S'android.text.style.CharacterStyle'
p4909
sg15
(lp4910
sg17
(lp4911
sg19
(lp4912
sg21
I0
sba(iArchitecture
Entity
p4913
(dp4914
g11
(lp4915
sg13
S'android.text.style.CharacterStyle$Passthrough'
p4916
sg15
(lp4917
sg17
(lp4918
sg19
(lp4919
sg21
I0
sba(iArchitecture
Entity
p4920
(dp4921
g11
(lp4922
sg13
S'android.text.style.DrawableMarginSpan'
p4923
sg15
(lp4924
sg17
(lp4925
sg19
(lp4926
sg21
I0
sba(iArchitecture
Entity
p4927
(dp4928
g11
(lp4929
sg13
S'android.text.style.DynamicDrawableSpan'
p4930
sg15
(lp4931
sg17
(lp4932
sg19
(lp4933
sg21
I0
sba(iArchitecture
Entity
p4934
(dp4935
g11
(lp4936
sg13
S'android.text.style.IconMarginSpan'
p4937
sg15
(lp4938
sg17
(lp4939
sg19
(lp4940
sg21
I0
sba(iArchitecture
Entity
p4941
(dp4942
g11
(lp4943
sg13
S'android.text.style.MetricAffectingSpan'
p4944
sg15
(lp4945
sg17
(lp4946
sg19
(lp4947
sg21
I0
sba(iArchitecture
Entity
p4948
(dp4949
g11
(lp4950
sg13
S'android.text.style.MetricAffectingSpan$Passthrough'
p4951
sg15
(lp4952
sg17
(lp4953
sg19
(lp4954
sg21
I0
sba(iArchitecture
Entity
p4955
(dp4956
g11
(lp4957
sg13
S'android.text.style.RasterizerSpan'
p4958
sg15
(lp4959
sg17
(lp4960
sg19
(lp4961
sg21
I0
sba(iArchitecture
Entity
p4962
(dp4963
g11
(lp4964
sg13
S'android.transition.TransitionValuesMaps'
p4965
sg15
(lp4966
sg17
(lp4967
sg19
(lp4968
sg21
I0
sba(iArchitecture
Entity
p4969
(dp4970
g11
(lp4971
sg13
S'android.util.AtomicFile'
p4972
sg15
(lp4973
sg17
(lp4974
sg19
(lp4975
sg21
I0
sba(iArchitecture
Entity
p4976
(dp4977
g11
(lp4978
sg13
S'android.util.Base64InputStream'
p4979
sg15
(lp4980
sg17
(lp4981
sg19
(lp4982
sg21
I0
sba(iArchitecture
Entity
p4983
(dp4984
g11
(lp4985
sg13
S'android.util.Base64OutputStream'
p4986
sg15
(lp4987
sg17
(lp4988
sg19
(lp4989
sg21
I0
sba(iArchitecture
Entity
p4990
(dp4991
g11
(lp4992
sg13
S'android.util.LocalLog'
p4993
sg15
(lp4994
sg17
(lp4995
sg19
(lp4996
sg21
I0
sba(iArchitecture
Entity
p4997
(dp4998
g11
(lp4999
sg13
S'android.util.LocalLog$ReadOnlyLocalLog'
p5000
sg15
(lp5001
sg17
(lp5002
sg19
(lp5003
sg21
I0
sba(iArchitecture
Entity
p5004
(dp5005
g11
(lp5006
sg13
S'android.util.LogPrinter'
p5007
sg15
(lp5008
sg17
(lp5009
sg19
(lp5010
sg21
I0
sba(iArchitecture
Entity
p5011
(dp5012
g11
(lp5013
sg13
S'android.util.LogWriter'
p5014
sg15
(lp5015
sg17
(lp5016
sg19
(lp5017
sg21
I0
sba(iArchitecture
Entity
p5018
(dp5019
g11
(lp5020
sg13
S'android.util.PrintStreamPrinter'
p5021
sg15
(lp5022
sg17
(lp5023
sg19
(lp5024
sg21
I0
sba(iArchitecture
Entity
p5025
(dp5026
g11
(lp5027
sg13
S'android.util.PrintWriterPrinter'
p5028
sg15
(lp5029
sg17
(lp5030
sg19
(lp5031
sg21
I0
sba(iArchitecture
Entity
p5032
(dp5033
g11
(lp5034
sg13
S'android.view.CollapsibleActionView'
p5035
sg15
(lp5036
sg17
(lp5037
sg19
(lp5038
sg21
I0
sba(iArchitecture
Entity
p5039
(dp5040
g11
(lp5041
sg13
S'android.view.ViewAnimationUtils'
p5042
sg15
(lp5043
sg17
(lp5044
sg19
(lp5045
sg21
I0
sba(iArchitecture
Entity
p5046
(dp5047
g11
(lp5048
sg13
S'android.view.accessibility.AccessibilityEventSource'
p5049
sg15
(lp5050
sg17
(lp5051
sg19
(lp5052
sg21
I0
sba(iArchitecture
Entity
p5053
(dp5054
g11
(lp5055
sg13
S'android.view.animation.AlphaAnimation'
p5056
sg15
(lp5057
sg17
(lp5058
sg19
(lp5059
sg21
I0
sba(iArchitecture
Entity
p5060
(dp5061
g11
(lp5062
sg13
S'android.view.inputmethod.CorrectionInfo'
p5063
sg15
(lp5064
sg17
(lp5065
sg19
(lp5066
sg21
I0
sba(iArchitecture
Entity
p5067
(dp5068
g11
(lp5069
sg13
S'android.view.inputmethod.CorrectionInfo$1'
p5070
sg15
(lp5071
sg17
(lp5072
sg19
(lp5073
sg21
I0
sba(iArchitecture
Entity
p5074
(dp5075
g11
(lp5076
sg13
S'android.view.textservice.TextInfo'
p5077
sg15
(lp5078
sg17
(lp5079
sg19
(lp5080
sg21
I0
sba(iArchitecture
Entity
p5081
(dp5082
g11
(lp5083
sg13
S'android.view.textservice.TextInfo$1'
p5084
sg15
(lp5085
sg17
(lp5086
sg19
(lp5087
sg21
I0
sba(iArchitecture
Entity
p5088
(dp5089
g11
(lp5090
sg13
S'android.webkit.WebResourceRequest'
p5091
sg15
(lp5092
sg17
(lp5093
sg19
(lp5094
sg21
I0
sba(iArchitecture
Entity
p5095
(dp5096
g11
(lp5097
sg13
S'android.widget.Filterable'
p5098
sg15
(lp5099
sg17
(lp5100
sg19
(lp5101
sg21
I0
sba(iArchitecture
Entity
p5102
(dp5103
g11
(lp5104
sg13
S'android.widget.SeekBar'
p5105
sg15
(lp5106
sg17
(lp5107
sg19
(lp5108
sg21
I0
sba(iArchitecture
Entity
p5109
(dp5110
g11
(lp5111
sg13
S'android.widget.SeekBar$OnSeekBarChangeListener'
p5112
sg15
(lp5113
sg17
(lp5114
sg19
(lp5115
sg21
I0
sba(iArchitecture
Entity
p5116
(dp5117
g11
(lp5118
sg13
S'android.widget.ToggleButton'
p5119
sg15
(lp5120
sg17
(lp5121
sg19
(lp5122
sg21
I0
sba(iArchitecture
Entity
p5123
(dp5124
g11
(lp5125
sg13
S'com.android.ims.ImsCallForwardInfo'
p5126
sg15
(lp5127
sg17
(lp5128
sg19
(lp5129
sg21
I0
sba(iArchitecture
Entity
p5130
(dp5131
g11
(lp5132
sg13
S'com.android.ims.ImsCallForwardInfo$1'
p5133
sg15
(lp5134
sg17
(lp5135
sg19
(lp5136
sg21
I0
sba(iArchitecture
Entity
p5137
(dp5138
g11
(lp5139
sg13
S'com.android.ims.ImsSsInfo'
p5140
sg15
(lp5141
sg17
(lp5142
sg19
(lp5143
sg21
I0
sba(iArchitecture
Entity
p5144
(dp5145
g11
(lp5146
sg13
S'com.android.ims.ImsSsInfo$1'
p5147
sg15
(lp5148
sg17
(lp5149
sg19
(lp5150
sg21
I0
sba(iArchitecture
Entity
p5151
(dp5152
g11
(lp5153
sg13
S'com.android.internal.app.ProcessMap'
p5154
sg15
(lp5155
sg17
(lp5156
sg19
(lp5157
sg21
I0
sba(iArchitecture
Entity
p5158
(dp5159
g11
(lp5160
sg13
S'com.android.internal.net.VpnInfo'
p5161
sg15
(lp5162
sg17
(lp5163
sg19
(lp5164
sg21
I0
sba(iArchitecture
Entity
p5165
(dp5166
g11
(lp5167
sg13
S'com.android.internal.net.VpnInfo$1'
p5168
sg15
(lp5169
sg17
(lp5170
sg19
(lp5171
sg21
I0
sba(iArchitecture
Entity
p5172
(dp5173
g11
(lp5174
sg13
S'com.android.internal.os.AtomicFile'
p5175
sg15
(lp5176
sg17
(lp5177
sg19
(lp5178
sg21
I0
sba(iArchitecture
Entity
p5179
(dp5180
g11
(lp5181
sg13
S'com.android.internal.os.SomeArgs'
p5182
sg15
(lp5183
sg17
(lp5184
sg19
(lp5185
sg21
I0
sba(iArchitecture
Entity
p5186
(dp5187
g11
(lp5188
sg13
S'com.android.internal.util.BitwiseInputStream'
p5189
sg15
(lp5190
sg17
(lp5191
sg19
(lp5192
sg21
I0
sba(iArchitecture
Entity
p5193
(dp5194
g11
(lp5195
sg13
S'com.android.internal.util.BitwiseInputStream$AccessException'
p5196
sg15
(lp5197
sg17
(lp5198
sg19
(lp5199
sg21
I0
sba(iArchitecture
Entity
p5200
(dp5201
g11
(lp5202
sg13
S'com.android.internal.util.BitwiseOutputStream'
p5203
sg15
(lp5204
sg17
(lp5205
sg19
(lp5206
sg21
I0
sba(iArchitecture
Entity
p5207
(dp5208
g11
(lp5209
sg13
S'com.android.internal.util.BitwiseOutputStream$AccessException'
p5210
sg15
(lp5211
sg17
(lp5212
sg19
(lp5213
sg21
I0
sba(iArchitecture
Entity
p5214
(dp5215
g11
(lp5216
sg13
S'com.android.internal.util.CharSequences'
p5217
sg15
(lp5218
sg17
(lp5219
sg19
(lp5220
sg21
I0
sba(iArchitecture
Entity
p5221
(dp5222
g11
(lp5223
sg13
S'com.android.internal.util.CharSequences$1'
p5224
sg15
(lp5225
sg17
(lp5226
sg19
(lp5227
sg21
I0
sba(iArchitecture
Entity
p5228
(dp5229
g11
(lp5230
sg13
S'com.android.internal.util.CharSequences$2'
p5231
sg15
(lp5232
sg17
(lp5233
sg19
(lp5234
sg21
I0
sba(iArchitecture
Entity
p5235
(dp5236
g11
(lp5237
sg13
S'com.android.internal.util.HexDump'
p5238
sg15
(lp5239
sg17
(lp5240
sg19
(lp5241
sg21
I0
sba(iArchitecture
Entity
p5242
(dp5243
g11
(lp5244
sg13
S'com.android.internal.util.JournaledFile'
p5245
sg15
(lp5246
sg17
(lp5247
sg19
(lp5248
sg21
I0
sba(iArchitecture
Entity
p5249
(dp5250
g11
(lp5251
sg13
S'com.android.internal.util.Protocol'
p5252
sg15
(lp5253
sg17
(lp5254
sg19
(lp5255
sg21
I0
sba(iArchitecture
Entity
p5256
(dp5257
g11
(lp5258
sg13
S'com.android.internal.util.SizedInputStream'
p5259
sg15
(lp5260
sg17
(lp5261
sg19
(lp5262
sg21
I0
sba(iArchitecture
Entity
p5263
(dp5264
g11
(lp5265
sg13
S'com.android.internal.view.BaseIWindow'
p5266
sg15
(lp5267
sg17
(lp5268
sg19
(lp5269
sg21
I0
sba(iArchitecture
Entity
p5270
(dp5271
g11
(lp5272
sg13
S'com.android.internal.widget.ButtonBarLayout'
p5273
sg15
(lp5274
sg17
(lp5275
sg19
(lp5276
sg21
I0
sba(iArchitecture
Entity
p5277
(dp5278
g11
(lp5279
sg13
S'com.android.internal.widget.DialogViewAnimator'
p5280
sg15
(lp5281
sg17
(lp5282
sg19
(lp5283
sg21
I0
sba(iArchitecture
Entity
p5284
(dp5285
g11
(lp5286
sg13
S'com.android.server.NativeDaemonConnectorException'
p5287
sg15
(lp5288
sg17
(lp5289
sg19
(lp5290
sg21
I0
sba(iArchitecture
Entity
p5291
(dp5292
g11
(lp5293
sg13
S'com.android.server.ResettableTimeout'
p5294
sg15
(lp5295
sg17
(lp5296
sg19
(lp5297
sg21
I0
sba(iArchitecture
Entity
p5298
(dp5299
g11
(lp5300
sg13
S'com.android.server.ResettableTimeout$T'
p5301
sg15
(lp5302
sg17
(lp5303
sg19
(lp5304
sg21
I0
sba(iArchitecture
Entity
p5305
(dp5306
g11
(lp5307
sg13
S'com.android.server.accounts.IAccountAuthenticatorCache'
p5308
sg15
(lp5309
sg17
(lp5310
sg19
(lp5311
sg21
I0
sba(iArchitecture
Entity
p5312
(dp5313
g11
(lp5314
sg13
S'com.android.server.backup.NotificationBackupHelper'
p5315
sg15
(lp5316
sg17
(lp5317
sg19
(lp5318
sg21
I0
sba(iArchitecture
Entity
p5319
(dp5320
g11
(lp5321
sg13
S'com.android.server.backup.PreferredActivityBackupHelper'
p5322
sg15
(lp5323
sg17
(lp5324
sg19
(lp5325
sg21
I0
sba(iArchitecture
Entity
p5326
(dp5327
g11
(lp5328
sg13
S'com.android.server.hdmi.ActiveSourceHandler'
p5329
sg15
(lp5330
sg17
(lp5331
sg19
(lp5332
sg21
I0
sba(iArchitecture
Entity
p5333
(dp5334
g11
(lp5335
sg13
S'com.android.server.hdmi.HdmiConfig'
p5336
sg15
(lp5337
sg17
(lp5338
sg19
(lp5339
sg21
I0
sba(iArchitecture
Entity
p5340
(dp5341
g11
(lp5342
sg13
S'com.android.server.hdmi.UnmodifiableSparseArray'
p5343
sg15
(lp5344
sg17
(lp5345
sg19
(lp5346
sg21
I0
sba(iArchitecture
Entity
p5347
(dp5348
g11
(lp5349
sg13
S'com.android.server.hdmi.UnmodifiableSparseIntArray'
p5350
sg15
(lp5351
sg17
(lp5352
sg19
(lp5353
sg21
I0
sba(iArchitecture
Entity
p5354
(dp5355
g11
(lp5356
sg13
S'com.android.server.location.CountryDetectorBase'
p5357
sg15
(lp5358
sg17
(lp5359
sg19
(lp5360
sg21
I0
sba(iArchitecture
Entity
p5361
(dp5362
g11
(lp5363
sg13
S'com.android.server.net.NetworkIdentitySet'
p5364
sg15
(lp5365
sg17
(lp5366
sg19
(lp5367
sg21
I0
sba(iArchitecture
Entity
p5368
(dp5369
g11
(lp5370
sg13
S'com.android.server.notification.GlobalSortKeyComparator'
p5371
sg15
(lp5372
sg17
(lp5373
sg19
(lp5374
sg21
I0
sba(iArchitecture
Entity
p5375
(dp5376
g11
(lp5377
sg13
S'com.android.server.notification.NotificationDelegate'
p5378
sg15
(lp5379
sg17
(lp5380
sg19
(lp5381
sg21
I0
sba(iArchitecture
Entity
p5382
(dp5383
g11
(lp5384
sg13
S'com.android.server.notification.NotificationSignalExtractor'
p5385
sg15
(lp5386
sg17
(lp5387
sg19
(lp5388
sg21
I0
sba(iArchitecture
Entity
p5389
(dp5390
g11
(lp5391
sg13
S'com.android.server.notification.RankingReconsideration'
p5392
sg15
(lp5393
sg17
(lp5394
sg19
(lp5395
sg21
I0
sba(iArchitecture
Entity
p5396
(dp5397
g11
(lp5398
sg13
S'com.android.server.pm.CrossProfileIntentResolver'
p5399
sg15
(lp5400
sg17
(lp5401
sg19
(lp5402
sg21
I0
sba(iArchitecture
Entity
p5403
(dp5404
g11
(lp5405
sg13
S'com.android.server.pm.IntentFilterVerificationKey'
p5406
sg15
(lp5407
sg17
(lp5408
sg19
(lp5409
sg21
I0
sba(iArchitecture
Entity
p5410
(dp5411
g11
(lp5412
sg13
S'com.android.server.pm.KeySetHandle'
p5413
sg15
(lp5414
sg17
(lp5415
sg19
(lp5416
sg21
I0
sba(iArchitecture
Entity
p5417
(dp5418
g11
(lp5419
sg13
S'com.android.server.usb.UsbHostManager'
p5420
sg15
(lp5421
sg17
(lp5422
sg19
(lp5423
sg21
I0
sba(iArchitecture
Entity
p5424
(dp5425
g11
(lp5426
sg13
S'com.android.server.usb.UsbHostManager$1'
p5427
sg15
(lp5428
sg17
(lp5429
sg19
(lp5430
sg21
I0
sba(iArchitecture
Entity
p5431
(dp5432
g11
(lp5433
sg13
S'com.google.android.collect.Lists'
p5434
sg15
(lp5435
sg17
(lp5436
sg19
(lp5437
sg21
I0
sbasg29
(lp5438
g3362
ag3369
ag3376
ag3383
ag3390
ag3397
ag3404
ag3411
ag3418
ag3425
ag3432
ag3439
ag3446
ag3453
ag3460
ag3467
ag3474
ag3481
ag3488
ag3495
ag3502
ag3509
ag3516
ag3523
ag3530
ag3537
ag3544
ag3551
ag3558
ag3565
ag3572
ag3579
ag3586
ag3593
ag3600
ag3607
ag3614
ag3621
ag3628
ag3635
ag3642
ag3649
ag3656
ag3663
ag3670
ag3677
ag3684
ag3691
ag3698
ag3705
ag3712
ag3719
ag3726
ag3733
ag3740
ag3747
ag3754
ag3761
ag3768
ag3775
ag3782
ag3789
ag3796
ag3803
ag3810
ag3817
ag3824
ag3831
ag3838
ag3845
ag3852
ag3859
ag3866
ag3873
ag3880
ag3887
ag3894
ag3901
ag3908
ag3915
ag3922
ag3929
ag3936
ag3943
ag3950
ag3957
ag3964
ag3971
ag3978
ag3985
ag3992
ag3999
ag4006
ag4013
ag4020
ag4027
ag4034
ag4041
ag4048
ag4055
ag4062
ag4069
ag4076
ag4083
ag4090
ag4097
ag4104
ag4111
ag4118
ag4125
ag4132
ag4139
ag4146
ag4153
ag4160
ag4167
ag4174
ag4181
ag4188
ag4195
ag4202
ag4209
ag4216
ag4223
ag4230
ag4237
ag4244
ag4251
ag4258
ag4265
ag4272
ag4279
ag4286
ag4293
ag4300
ag4307
ag4314
ag4321
ag4328
ag4335
ag4342
ag4349
ag4356
ag4363
ag4370
ag4377
ag4384
ag4391
ag4398
ag4405
ag4412
ag4419
ag4426
ag4433
ag4440
ag4447
ag4454
ag4461
ag4468
ag4475
ag4482
ag4489
ag4496
ag4503
ag4510
ag4517
ag4524
ag4531
ag4538
ag4545
ag4552
ag4559
ag4566
ag4573
ag4580
ag4587
ag4594
ag4601
ag4608
ag4615
ag4622
ag4629
ag4636
ag4643
ag4650
ag4657
ag4664
ag4671
ag4678
ag4685
ag4692
ag4699
ag4706
ag4713
ag4720
ag4727
ag4734
ag4741
ag4748
ag4755
ag4762
ag4769
ag4776
ag4783
ag4790
ag4797
ag4804
ag4811
ag4818
ag4825
ag4832
ag4839
ag4846
ag4853
ag4860
ag4867
ag4874
ag4881
ag4888
ag4895
ag4902
ag4909
ag4916
ag4923
ag4930
ag4937
ag4944
ag4951
ag4958
ag4965
ag4972
ag4979
ag4986
ag4993
ag5000
ag5007
ag5014
ag5021
ag5028
ag5035
ag5042
ag5049
ag5056
ag5063
ag5070
ag5077
ag5084
ag5091
ag5098
ag5105
ag5112
ag5119
ag5126
ag5133
ag5140
ag5147
ag5154
ag5161
ag5168
ag5175
ag5182
ag5189
ag5196
ag5203
ag5210
ag5217
ag5224
ag5231
ag5238
ag5245
ag5252
ag5259
ag5266
ag5273
ag5280
ag5287
ag5294
ag5301
ag5308
ag5315
ag5322
ag5329
ag5336
ag5343
ag5350
ag5357
ag5364
ag5371
ag5378
ag5385
ag5392
ag5399
ag5406
ag5413
ag5420
ag5427
ag5434
asg21
I0
sg31
S'1237'
p5439
sba(iArchitecture
Cluster
p5440
(dp5441
g7
(lp5442
(iArchitecture
Entity
p5443
(dp5444
g11
(lp5445
sg13
S'android.app.BackStackRecord'
p5446
sg15
(lp5447
sg17
(lp5448
sg19
(lp5449
sg21
I0
sba(iArchitecture
Entity
p5450
(dp5451
g11
(lp5452
sg13
S'android.app.BackStackRecord$1'
p5453
sg15
(lp5454
sg17
(lp5455
sg19
(lp5456
sg21
I0
sba(iArchitecture
Entity
p5457
(dp5458
g11
(lp5459
sg13
S'android.app.BackStackRecord$2'
p5460
sg15
(lp5461
sg17
(lp5462
sg19
(lp5463
sg21
I0
sba(iArchitecture
Entity
p5464
(dp5465
g11
(lp5466
sg13
S'android.app.BackStackRecord$3'
p5467
sg15
(lp5468
sg17
(lp5469
sg19
(lp5470
sg21
I0
sba(iArchitecture
Entity
p5471
(dp5472
g11
(lp5473
sg13
S'android.app.BackStackRecord$4'
p5474
sg15
(lp5475
sg17
(lp5476
sg19
(lp5477
sg21
I0
sba(iArchitecture
Entity
p5478
(dp5479
g11
(lp5480
sg13
S'android.app.BackStackRecord$Op'
p5481
sg15
(lp5482
sg17
(lp5483
sg19
(lp5484
sg21
I0
sba(iArchitecture
Entity
p5485
(dp5486
g11
(lp5487
sg13
S'android.app.BackStackRecord$TransitionState'
p5488
sg15
(lp5489
sg17
(lp5490
sg19
(lp5491
sg21
I0
sba(iArchitecture
Entity
p5492
(dp5493
g11
(lp5494
sg13
S'android.app.DialogFragment'
p5495
sg15
(lp5496
sg17
(lp5497
sg19
(lp5498
sg21
I0
sba(iArchitecture
Entity
p5499
(dp5500
g11
(lp5501
sg13
S'android.app.Fragment'
p5502
sg15
(lp5503
sg17
(lp5504
sg19
(lp5505
sg21
I0
sba(iArchitecture
Entity
p5506
(dp5507
g11
(lp5508
sg13
S'android.app.Fragment$1'
p5509
sg15
(lp5510
sg17
(lp5511
sg19
(lp5512
sg21
I0
sba(iArchitecture
Entity
p5513
(dp5514
g11
(lp5515
sg13
S'android.app.Fragment$InstantiationException'
p5516
sg15
(lp5517
sg17
(lp5518
sg19
(lp5519
sg21
I0
sba(iArchitecture
Entity
p5520
(dp5521
g11
(lp5522
sg13
S'android.app.Fragment$SavedState'
p5523
sg15
(lp5524
sg17
(lp5525
sg19
(lp5526
sg21
I0
sba(iArchitecture
Entity
p5527
(dp5528
g11
(lp5529
sg13
S'android.app.Fragment$SavedState$1'
p5530
sg15
(lp5531
sg17
(lp5532
sg19
(lp5533
sg21
I0
sba(iArchitecture
Entity
p5534
(dp5535
g11
(lp5536
sg13
S'android.app.FragmentBreadCrumbs'
p5537
sg15
(lp5538
sg17
(lp5539
sg19
(lp5540
sg21
I0
sba(iArchitecture
Entity
p5541
(dp5542
g11
(lp5543
sg13
S'android.app.FragmentBreadCrumbs$1'
p5544
sg15
(lp5545
sg17
(lp5546
sg19
(lp5547
sg21
I0
sba(iArchitecture
Entity
p5548
(dp5549
g11
(lp5550
sg13
S'android.app.FragmentBreadCrumbs$OnBreadCrumbClickListener'
p5551
sg15
(lp5552
sg17
(lp5553
sg19
(lp5554
sg21
I0
sba(iArchitecture
Entity
p5555
(dp5556
g11
(lp5557
sg13
S'android.app.FragmentManager'
p5558
sg15
(lp5559
sg17
(lp5560
sg19
(lp5561
sg21
I0
sba(iArchitecture
Entity
p5562
(dp5563
g11
(lp5564
sg13
S'android.app.FragmentManager$BackStackEntry'
p5565
sg15
(lp5566
sg17
(lp5567
sg19
(lp5568
sg21
I0
sba(iArchitecture
Entity
p5569
(dp5570
g11
(lp5571
sg13
S'android.app.FragmentManager$OnBackStackChangedListener'
p5572
sg15
(lp5573
sg17
(lp5574
sg19
(lp5575
sg21
I0
sba(iArchitecture
Entity
p5576
(dp5577
g11
(lp5578
sg13
S'android.app.FragmentTransaction'
p5579
sg15
(lp5580
sg17
(lp5581
sg19
(lp5582
sg21
I0
sba(iArchitecture
Entity
p5583
(dp5584
g11
(lp5585
sg13
S'android.preference.PreferenceActivity'
p5586
sg15
(lp5587
sg17
(lp5588
sg19
(lp5589
sg21
I0
sba(iArchitecture
Entity
p5590
(dp5591
g11
(lp5592
sg13
S'android.preference.PreferenceActivity$1'
p5593
sg15
(lp5594
sg17
(lp5595
sg19
(lp5596
sg21
I0
sba(iArchitecture
Entity
p5597
(dp5598
g11
(lp5599
sg13
S'android.preference.PreferenceActivity$2'
p5600
sg15
(lp5601
sg17
(lp5602
sg19
(lp5603
sg21
I0
sba(iArchitecture
Entity
p5604
(dp5605
g11
(lp5606
sg13
S'android.preference.PreferenceActivity$3'
p5607
sg15
(lp5608
sg17
(lp5609
sg19
(lp5610
sg21
I0
sba(iArchitecture
Entity
p5611
(dp5612
g11
(lp5613
sg13
S'android.preference.PreferenceActivity$4'
p5614
sg15
(lp5615
sg17
(lp5616
sg19
(lp5617
sg21
I0
sba(iArchitecture
Entity
p5618
(dp5619
g11
(lp5620
sg13
S'android.preference.PreferenceActivity$Header'
p5621
sg15
(lp5622
sg17
(lp5623
sg19
(lp5624
sg21
I0
sba(iArchitecture
Entity
p5625
(dp5626
g11
(lp5627
sg13
S'android.preference.PreferenceActivity$Header$1'
p5628
sg15
(lp5629
sg17
(lp5630
sg19
(lp5631
sg21
I0
sba(iArchitecture
Entity
p5632
(dp5633
g11
(lp5634
sg13
S'android.preference.PreferenceActivity$HeaderAdapter'
p5635
sg15
(lp5636
sg17
(lp5637
sg19
(lp5638
sg21
I0
sba(iArchitecture
Entity
p5639
(dp5640
g11
(lp5641
sg13
S'android.preference.PreferenceActivity$HeaderAdapter$HeaderViewHolder'
p5642
sg15
(lp5643
sg17
(lp5644
sg19
(lp5645
sg21
I0
sbasg29
(lp5646
g5446
ag5453
ag5460
ag5467
ag5474
ag5481
ag5488
ag5495
ag5502
ag5509
ag5516
ag5523
ag5530
ag5537
ag5544
ag5551
ag5558
ag5565
ag5572
ag5579
ag5586
ag5593
ag5600
ag5607
ag5614
ag5621
ag5628
ag5635
ag5642
asg21
I0
sg31
S'1238'
p5647
sba(iArchitecture
Cluster
p5648
(dp5649
g7
(lp5650
(iArchitecture
Entity
p5651
(dp5652
g11
(lp5653
sg13
S'android.telecom.ParcelableCall'
p5654
sg15
(lp5655
sg17
(lp5656
sg19
(lp5657
sg21
I0
sba(iArchitecture
Entity
p5658
(dp5659
g11
(lp5660
sg13
S'android.telecom.ParcelableCall$1'
p5661
sg15
(lp5662
sg17
(lp5663
sg19
(lp5664
sg21
I0
sba(iArchitecture
Entity
p5665
(dp5666
g11
(lp5667
sg13
S'android.telecom.ParcelableConnection'
p5668
sg15
(lp5669
sg17
(lp5670
sg19
(lp5671
sg21
I0
sba(iArchitecture
Entity
p5672
(dp5673
g11
(lp5674
sg13
S'android.telecom.ParcelableConnection$1'
p5675
sg15
(lp5676
sg17
(lp5677
sg19
(lp5678
sg21
I0
sbasg29
(lp5679
g5654
ag5661
ag5668
ag5675
asg21
I0
sg31
S'1239'
p5680
sbasS'target_sub'
p5681
S'123'
p5682
sg29
(lp5683
sS'is_component_arch'
p5684
I01
sg31
S'6.0.0_r1'
p5685
sba.