(lp0
(iArchitecture
Architecture
p1
(dp2
S'clusters'
p3
(lp4
(iArchitecture
Cluster
p5
(dp6
S'entities'
p7
(lp8
(iArchitecture
Entity
p9
(dp10
S'issue_ids'
p11
(lp12
sS'name'
p13
S'android.security.keystore.KeyStoreCryptoOperationUtils'
p14
sS'descs'
p15
(lp16
sS'labels'
p17
(lp18
sS'titles'
p19
(lp20
sS'change'
p21
I0
sbasS'classes'
p22
(lp23
g14
asg21
I0
sS'label'
p24
S'102'
p25
sba(iArchitecture
Cluster
p26
(dp27
g7
(lp28
(iArchitecture
Entity
p29
(dp30
g11
(lp31
sg13
S'com.android.server.NetworkManagementService'
p32
sg15
(lp33
sg17
(lp34
sg19
(lp35
sg21
I0
sba(iArchitecture
Entity
p36
(dp37
g11
(lp38
sg13
S'com.android.server.NetworkManagementService$1'
p39
sg15
(lp40
sg17
(lp41
sg19
(lp42
sg21
I0
sba(iArchitecture
Entity
p43
(dp44
g11
(lp45
sg13
S'com.android.server.NetworkManagementService$2'
p46
sg15
(lp47
sg17
(lp48
sg19
(lp49
sg21
I0
sba(iArchitecture
Entity
p50
(dp51
g11
(lp52
sg13
S'com.android.server.NetworkManagementService$3'
p53
sg15
(lp54
sg17
(lp55
sg19
(lp56
sg21
I0
sba(iArchitecture
Entity
p57
(dp58
g11
(lp59
sg13
S'com.android.server.NetworkManagementService$IdleTimerParams'
p60
sg15
(lp61
sg17
(lp62
sg19
(lp63
sg21
I0
sba(iArchitecture
Entity
p64
(dp65
g11
(lp66
sg13
S'com.android.server.NetworkManagementService$NetdCallbackReceiver'
p67
sg15
(lp68
sg17
(lp69
sg19
(lp70
sg21
I0
sba(iArchitecture
Entity
p71
(dp72
g11
(lp73
sg13
S'com.android.server.NetworkManagementService$NetdCallbackReceiver$1'
p74
sg15
(lp75
sg17
(lp76
sg19
(lp77
sg21
I0
sba(iArchitecture
Entity
p78
(dp79
g11
(lp80
sg13
S'com.android.server.NetworkManagementService$NetdResponseCode'
p81
sg15
(lp82
sg17
(lp83
sg19
(lp84
sg21
I0
sbasg22
(lp85
g32
ag39
ag46
ag53
ag60
ag67
ag74
ag81
asg21
I0
sg24
S'1020'
p86
sba(iArchitecture
Cluster
p87
(dp88
g7
(lp89
(iArchitecture
Entity
p90
(dp91
g11
(lp92
sg13
S'android.widget.ActivityChooserView'
p93
sg15
(lp94
sg17
(lp95
sg19
(lp96
sg21
I0
sba(iArchitecture
Entity
p97
(dp98
g11
(lp99
sg13
S'android.widget.ActivityChooserView$1'
p100
sg15
(lp101
sg17
(lp102
sg19
(lp103
sg21
I0
sba(iArchitecture
Entity
p104
(dp105
g11
(lp106
sg13
S'android.widget.ActivityChooserView$2'
p107
sg15
(lp108
sg17
(lp109
sg19
(lp110
sg21
I0
sba(iArchitecture
Entity
p111
(dp112
g11
(lp113
sg13
S'android.widget.ActivityChooserView$3'
p114
sg15
(lp115
sg17
(lp116
sg19
(lp117
sg21
I0
sba(iArchitecture
Entity
p118
(dp119
g11
(lp120
sg13
S'android.widget.ActivityChooserView$4'
p121
sg15
(lp122
sg17
(lp123
sg19
(lp124
sg21
I0
sba(iArchitecture
Entity
p125
(dp126
g11
(lp127
sg13
S'android.widget.ActivityChooserView$5'
p128
sg15
(lp129
sg17
(lp130
sg19
(lp131
sg21
I0
sba(iArchitecture
Entity
p132
(dp133
g11
(lp134
sg13
S'android.widget.ActivityChooserView$ActivityChooserViewAdapter'
p135
sg15
(lp136
sg17
(lp137
sg19
(lp138
sg21
I0
sba(iArchitecture
Entity
p139
(dp140
g11
(lp141
sg13
S'android.widget.ActivityChooserView$Callbacks'
p142
sg15
(lp143
sg17
(lp144
sg19
(lp145
sg21
I0
sbasg22
(lp146
g93
ag100
ag107
ag114
ag121
ag128
ag135
ag142
asg21
I0
sg24
S'1021'
p147
sba(iArchitecture
Cluster
p148
(dp149
g7
(lp150
(iArchitecture
Entity
p151
(dp152
g11
(lp153
sg13
S'com.android.server.wm.AccessibilityController'
p154
sg15
(lp155
sg17
(lp156
sg19
(lp157
sg21
I0
sba(iArchitecture
Entity
p158
(dp159
g11
(lp160
sg13
S'com.android.server.wm.AccessibilityController$DisplayMagnifier'
p161
sg15
(lp162
sg17
(lp163
sg19
(lp164
sg21
I0
sba(iArchitecture
Entity
p165
(dp166
g11
(lp167
sg13
S'com.android.server.wm.AccessibilityController$DisplayMagnifier$MagnifiedViewport'
p168
sg15
(lp169
sg17
(lp170
sg19
(lp171
sg21
I0
sba(iArchitecture
Entity
p172
(dp173
g11
(lp174
sg13
S'com.android.server.wm.AccessibilityController$DisplayMagnifier$MagnifiedViewport$ViewportWindow'
p175
sg15
(lp176
sg17
(lp177
sg19
(lp178
sg21
I0
sba(iArchitecture
Entity
p179
(dp180
g11
(lp181
sg13
S'com.android.server.wm.AccessibilityController$DisplayMagnifier$MagnifiedViewport$ViewportWindow$AnimationController'
p182
sg15
(lp183
sg17
(lp184
sg19
(lp185
sg21
I0
sba(iArchitecture
Entity
p186
(dp187
g11
(lp188
sg13
S'com.android.server.wm.AccessibilityController$DisplayMagnifier$MyHandler'
p189
sg15
(lp190
sg17
(lp191
sg19
(lp192
sg21
I0
sba(iArchitecture
Entity
p193
(dp194
g11
(lp195
sg13
S'com.android.server.wm.AccessibilityController$WindowsForAccessibilityObserver'
p196
sg15
(lp197
sg17
(lp198
sg19
(lp199
sg21
I0
sba(iArchitecture
Entity
p200
(dp201
g11
(lp202
sg13
S'com.android.server.wm.AccessibilityController$WindowsForAccessibilityObserver$MyHandler'
p203
sg15
(lp204
sg17
(lp205
sg19
(lp206
sg21
I0
sbasg22
(lp207
g154
ag161
ag168
ag175
ag182
ag189
ag196
ag203
asg21
I0
sg24
S'1022'
p208
sba(iArchitecture
Cluster
p209
(dp210
g7
(lp211
(iArchitecture
Entity
p212
(dp213
g11
(lp214
sg13
S'android.media.audiopolicy.AudioPolicy'
p215
sg15
(lp216
sg17
(lp217
sg19
(lp218
sg21
I0
sba(iArchitecture
Entity
p219
(dp220
g11
(lp221
sg13
S'android.media.audiopolicy.AudioPolicy$1'
p222
sg15
(lp223
sg17
(lp224
sg19
(lp225
sg21
I0
sba(iArchitecture
Entity
p226
(dp227
g11
(lp228
sg13
S'android.media.audiopolicy.AudioPolicy$AudioPolicyFocusListener'
p229
sg15
(lp230
sg17
(lp231
sg19
(lp232
sg21
I0
sba(iArchitecture
Entity
p233
(dp234
g11
(lp235
sg13
S'android.media.audiopolicy.AudioPolicy$AudioPolicyStatusListener'
p236
sg15
(lp237
sg17
(lp238
sg19
(lp239
sg21
I0
sba(iArchitecture
Entity
p240
(dp241
g11
(lp242
sg13
S'android.media.audiopolicy.AudioPolicy$Builder'
p243
sg15
(lp244
sg17
(lp245
sg19
(lp246
sg21
I0
sba(iArchitecture
Entity
p247
(dp248
g11
(lp249
sg13
S'android.media.audiopolicy.AudioPolicy$EventHandler'
p250
sg15
(lp251
sg17
(lp252
sg19
(lp253
sg21
I0
sbasg22
(lp254
g215
ag222
ag229
ag236
ag243
ag250
asg21
I0
sg24
S'1023'
p255
sba(iArchitecture
Cluster
p256
(dp257
g7
(lp258
(iArchitecture
Entity
p259
(dp260
g11
(lp261
sg13
S'android.transition.ChangeTransform'
p262
sg15
(lp263
sg17
(lp264
sg19
(lp265
sg21
I0
sba(iArchitecture
Entity
p266
(dp267
g11
(lp268
sg13
S'android.transition.ChangeTransform$1'
p269
sg15
(lp270
sg17
(lp271
sg19
(lp272
sg21
I0
sba(iArchitecture
Entity
p273
(dp274
g11
(lp275
sg13
S'android.transition.ChangeTransform$2'
p276
sg15
(lp277
sg17
(lp278
sg19
(lp279
sg21
I0
sba(iArchitecture
Entity
p280
(dp281
g11
(lp282
sg13
S'android.transition.ChangeTransform$3'
p283
sg15
(lp284
sg17
(lp285
sg19
(lp286
sg21
I0
sba(iArchitecture
Entity
p287
(dp288
g11
(lp289
sg13
S'android.transition.ChangeTransform$GhostListener'
p290
sg15
(lp291
sg17
(lp292
sg19
(lp293
sg21
I0
sba(iArchitecture
Entity
p294
(dp295
g11
(lp296
sg13
S'android.transition.ChangeTransform$PathAnimatorMatrix'
p297
sg15
(lp298
sg17
(lp299
sg19
(lp300
sg21
I0
sba(iArchitecture
Entity
p301
(dp302
g11
(lp303
sg13
S'android.transition.ChangeTransform$Transforms'
p304
sg15
(lp305
sg17
(lp306
sg19
(lp307
sg21
I0
sbasg22
(lp308
g262
ag269
ag276
ag283
ag290
ag297
ag304
asg21
I0
sg24
S'1024'
p309
sba(iArchitecture
Cluster
p310
(dp311
g7
(lp312
(iArchitecture
Entity
p313
(dp314
g11
(lp315
sg13
S'com.android.server.policy.keyguard.KeyguardServiceDelegate'
p316
sg15
(lp317
sg17
(lp318
sg19
(lp319
sg21
I0
sba(iArchitecture
Entity
p320
(dp321
g11
(lp322
sg13
S'com.android.server.policy.keyguard.KeyguardServiceDelegate$1'
p323
sg15
(lp324
sg17
(lp325
sg19
(lp326
sg21
I0
sba(iArchitecture
Entity
p327
(dp328
g11
(lp329
sg13
S'com.android.server.policy.keyguard.KeyguardServiceDelegate$2'
p330
sg15
(lp331
sg17
(lp332
sg19
(lp333
sg21
I0
sba(iArchitecture
Entity
p334
(dp335
g11
(lp336
sg13
S'com.android.server.policy.keyguard.KeyguardServiceDelegate$3'
p337
sg15
(lp338
sg17
(lp339
sg19
(lp340
sg21
I0
sba(iArchitecture
Entity
p341
(dp342
g11
(lp343
sg13
S'com.android.server.policy.keyguard.KeyguardServiceDelegate$DrawnListener'
p344
sg15
(lp345
sg17
(lp346
sg19
(lp347
sg21
I0
sba(iArchitecture
Entity
p348
(dp349
g11
(lp350
sg13
S'com.android.server.policy.keyguard.KeyguardServiceDelegate$KeyguardExitDelegate'
p351
sg15
(lp352
sg17
(lp353
sg19
(lp354
sg21
I0
sba(iArchitecture
Entity
p355
(dp356
g11
(lp357
sg13
S'com.android.server.policy.keyguard.KeyguardServiceDelegate$KeyguardShowDelegate'
p358
sg15
(lp359
sg17
(lp360
sg19
(lp361
sg21
I0
sba(iArchitecture
Entity
p362
(dp363
g11
(lp364
sg13
S'com.android.server.policy.keyguard.KeyguardServiceDelegate$KeyguardState'
p365
sg15
(lp366
sg17
(lp367
sg19
(lp368
sg21
I0
sbasg22
(lp369
g316
ag323
ag330
ag337
ag344
ag351
ag358
ag365
asg21
I0
sg24
S'1025'
p370
sba(iArchitecture
Cluster
p371
(dp372
g7
(lp373
(iArchitecture
Entity
p374
(dp375
g11
(lp376
sg13
S'android.service.dreams.DreamService'
p377
sg15
(lp378
sg17
(lp379
sg19
(lp380
sg21
I0
sba(iArchitecture
Entity
p381
(dp382
g11
(lp383
sg13
S'android.service.dreams.DreamService$1'
p384
sg15
(lp385
sg17
(lp386
sg19
(lp387
sg21
I0
sba(iArchitecture
Entity
p388
(dp389
g11
(lp390
sg13
S'android.service.dreams.DreamService$2'
p391
sg15
(lp392
sg17
(lp393
sg19
(lp394
sg21
I0
sba(iArchitecture
Entity
p395
(dp396
g11
(lp397
sg13
S'android.service.dreams.DreamService$DreamServiceWrapper'
p398
sg15
(lp399
sg17
(lp400
sg19
(lp401
sg21
I0
sba(iArchitecture
Entity
p402
(dp403
g11
(lp404
sg13
S'android.service.dreams.DreamService$DreamServiceWrapper$1'
p405
sg15
(lp406
sg17
(lp407
sg19
(lp408
sg21
I0
sba(iArchitecture
Entity
p409
(dp410
g11
(lp411
sg13
S'android.service.dreams.DreamService$DreamServiceWrapper$2'
p412
sg15
(lp413
sg17
(lp414
sg19
(lp415
sg21
I0
sba(iArchitecture
Entity
p416
(dp417
g11
(lp418
sg13
S'android.service.dreams.DreamService$DreamServiceWrapper$3'
p419
sg15
(lp420
sg17
(lp421
sg19
(lp422
sg21
I0
sbasg22
(lp423
g377
ag384
ag391
ag398
ag405
ag412
ag419
asg21
I0
sg24
S'1026'
p424
sba(iArchitecture
Cluster
p425
(dp426
g7
(lp427
(iArchitecture
Entity
p428
(dp429
g11
(lp430
sg13
S'android.media.RemoteControlClient'
p431
sg15
(lp432
sg17
(lp433
sg19
(lp434
sg21
I0
sba(iArchitecture
Entity
p435
(dp436
g11
(lp437
sg13
S'android.media.RemoteControlClient$1'
p438
sg15
(lp439
sg17
(lp440
sg19
(lp441
sg21
I0
sba(iArchitecture
Entity
p442
(dp443
g11
(lp444
sg13
S'android.media.RemoteControlClient$EventHandler'
p445
sg15
(lp446
sg17
(lp447
sg19
(lp448
sg21
I0
sba(iArchitecture
Entity
p449
(dp450
g11
(lp451
sg13
S'android.media.RemoteControlClient$MetadataEditor'
p452
sg15
(lp453
sg17
(lp454
sg19
(lp455
sg21
I0
sba(iArchitecture
Entity
p456
(dp457
g11
(lp458
sg13
S'android.media.RemoteControlClient$OnGetPlaybackPositionListener'
p459
sg15
(lp460
sg17
(lp461
sg19
(lp462
sg21
I0
sba(iArchitecture
Entity
p463
(dp464
g11
(lp465
sg13
S'android.media.RemoteControlClient$OnMetadataUpdateListener'
p466
sg15
(lp467
sg17
(lp468
sg19
(lp469
sg21
I0
sba(iArchitecture
Entity
p470
(dp471
g11
(lp472
sg13
S'android.media.RemoteControlClient$OnPlaybackPositionUpdateListener'
p473
sg15
(lp474
sg17
(lp475
sg19
(lp476
sg21
I0
sbasg22
(lp477
g431
ag438
ag445
ag452
ag459
ag466
ag473
asg21
I0
sg24
S'1027'
p478
sba(iArchitecture
Cluster
p479
(dp480
g7
(lp481
(iArchitecture
Entity
p482
(dp483
g11
(lp484
sg13
S'android.media.SubtitleController'
p485
sg15
(lp486
sg17
(lp487
sg19
(lp488
sg21
I0
sba(iArchitecture
Entity
p489
(dp490
g11
(lp491
sg13
S'android.media.SubtitleController$1'
p492
sg15
(lp493
sg17
(lp494
sg19
(lp495
sg21
I0
sba(iArchitecture
Entity
p496
(dp497
g11
(lp498
sg13
S'android.media.SubtitleController$2'
p499
sg15
(lp500
sg17
(lp501
sg19
(lp502
sg21
I0
sba(iArchitecture
Entity
p503
(dp504
g11
(lp505
sg13
S'android.media.SubtitleController$Anchor'
p506
sg15
(lp507
sg17
(lp508
sg19
(lp509
sg21
I0
sba(iArchitecture
Entity
p510
(dp511
g11
(lp512
sg13
S'android.media.SubtitleController$Listener'
p513
sg15
(lp514
sg17
(lp515
sg19
(lp516
sg21
I0
sba(iArchitecture
Entity
p517
(dp518
g11
(lp519
sg13
S'android.media.SubtitleController$Renderer'
p520
sg15
(lp521
sg17
(lp522
sg19
(lp523
sg21
I0
sbasg22
(lp524
g485
ag492
ag499
ag506
ag513
ag520
asg21
I0
sg24
S'1028'
p525
sba(iArchitecture
Cluster
p526
(dp527
g7
(lp528
(iArchitecture
Entity
p529
(dp530
g11
(lp531
sg13
S'android.util.MapCollections'
p532
sg15
(lp533
sg17
(lp534
sg19
(lp535
sg21
I0
sba(iArchitecture
Entity
p536
(dp537
g11
(lp538
sg13
S'android.util.MapCollections$ArrayIterator'
p539
sg15
(lp540
sg17
(lp541
sg19
(lp542
sg21
I0
sba(iArchitecture
Entity
p543
(dp544
g11
(lp545
sg13
S'android.util.MapCollections$EntrySet'
p546
sg15
(lp547
sg17
(lp548
sg19
(lp549
sg21
I0
sba(iArchitecture
Entity
p550
(dp551
g11
(lp552
sg13
S'android.util.MapCollections$KeySet'
p553
sg15
(lp554
sg17
(lp555
sg19
(lp556
sg21
I0
sba(iArchitecture
Entity
p557
(dp558
g11
(lp559
sg13
S'android.util.MapCollections$MapIterator'
p560
sg15
(lp561
sg17
(lp562
sg19
(lp563
sg21
I0
sba(iArchitecture
Entity
p564
(dp565
g11
(lp566
sg13
S'android.util.MapCollections$ValuesCollection'
p567
sg15
(lp568
sg17
(lp569
sg19
(lp570
sg21
I0
sbasg22
(lp571
g532
ag539
ag546
ag553
ag560
ag567
asg21
I0
sg24
S'1029'
p572
sba(iArchitecture
Cluster
p573
(dp574
g7
(lp575
(iArchitecture
Entity
p576
(dp577
g11
(lp578
sg13
S'android.widget.AdapterViewFlipper'
p579
sg15
(lp580
sg17
(lp581
sg19
(lp582
sg21
I0
sba(iArchitecture
Entity
p583
(dp584
g11
(lp585
sg13
S'android.widget.AdapterViewFlipper$1'
p586
sg15
(lp587
sg17
(lp588
sg19
(lp589
sg21
I0
sba(iArchitecture
Entity
p590
(dp591
g11
(lp592
sg13
S'android.widget.AdapterViewFlipper$2'
p593
sg15
(lp594
sg17
(lp595
sg19
(lp596
sg21
I0
sba(iArchitecture
Entity
p597
(dp598
g11
(lp599
sg13
S'android.widget.ViewFlipper'
p600
sg15
(lp601
sg17
(lp602
sg19
(lp603
sg21
I0
sba(iArchitecture
Entity
p604
(dp605
g11
(lp606
sg13
S'android.widget.ViewFlipper$1'
p607
sg15
(lp608
sg17
(lp609
sg19
(lp610
sg21
I0
sba(iArchitecture
Entity
p611
(dp612
g11
(lp613
sg13
S'android.widget.ViewFlipper$2'
p614
sg15
(lp615
sg17
(lp616
sg19
(lp617
sg21
I0
sbasg22
(lp618
g579
ag586
ag593
ag600
ag607
ag614
asg21
I0
sg24
S'1102'
p619
sbasS'target_sub'
p620
S'102'
p621
sg22
(lp622
sS'is_component_arch'
p623
I01
sg24
S'6.0.0_r1'
p624
sba.