(lp0
(iArchitecture
Architecture
p1
(dp2
S'clusters'
p3
(lp4
(iArchitecture
Cluster
p5
(dp6
S'entities'
p7
(lp8
(iArchitecture
Entity
p9
(dp10
S'issue_ids'
p11
(lp12
sS'name'
p13
S'com.android.server.hdmi.HdmiCecMessageValidator'
p14
sS'descs'
p15
(lp16
sS'labels'
p17
(lp18
sS'titles'
p19
(lp20
sS'change'
p21
I0
sba(iArchitecture
Entity
p22
(dp23
g11
(lp24
sg13
S'com.android.server.hdmi.HdmiCecMessageValidator$FixedLengthValidator'
p25
sg15
(lp26
sg17
(lp27
sg19
(lp28
sg21
I0
sba(iArchitecture
Entity
p29
(dp30
g11
(lp31
sg13
S'com.android.server.hdmi.HdmiCecMessageValidator$ParameterValidator'
p32
sg15
(lp33
sg17
(lp34
sg19
(lp35
sg21
I0
sba(iArchitecture
Entity
p36
(dp37
g11
(lp38
sg13
S'com.android.server.hdmi.HdmiCecMessageValidator$PhysicalAddressValidator'
p39
sg15
(lp40
sg17
(lp41
sg19
(lp42
sg21
I0
sba(iArchitecture
Entity
p43
(dp44
g11
(lp45
sg13
S'com.android.server.hdmi.HdmiCecMessageValidator$ReportPhysicalAddressValidator'
p46
sg15
(lp47
sg17
(lp48
sg19
(lp49
sg21
I0
sba(iArchitecture
Entity
p50
(dp51
g11
(lp52
sg13
S'com.android.server.hdmi.HdmiCecMessageValidator$RoutingChangeValidator'
p53
sg15
(lp54
sg17
(lp55
sg19
(lp56
sg21
I0
sba(iArchitecture
Entity
p57
(dp58
g11
(lp59
sg13
S'com.android.server.hdmi.HdmiCecMessageValidator$SystemAudioModeRequestValidator'
p60
sg15
(lp61
sg17
(lp62
sg19
(lp63
sg21
I0
sba(iArchitecture
Entity
p64
(dp65
g11
(lp66
sg13
S'com.android.server.hdmi.HdmiCecMessageValidator$ValidationInfo'
p67
sg15
(lp68
sg17
(lp69
sg19
(lp70
sg21
I0
sba(iArchitecture
Entity
p71
(dp72
g11
(lp73
sg13
S'com.android.server.hdmi.HdmiCecMessageValidator$VariableLengthValidator'
p74
sg15
(lp75
sg17
(lp76
sg19
(lp77
sg21
I0
sbasS'classes'
p78
(lp79
g14
ag25
ag32
ag39
ag46
ag53
ag60
ag67
ag74
asg21
I0
sS'label'
p80
S'1054'
p81
sba(iArchitecture
Cluster
p82
(dp83
g7
(lp84
(iArchitecture
Entity
p85
(dp86
g11
(lp87
sg13
S'com.android.server.am.ActivityStack'
p88
sg15
(lp89
sg17
(lp90
sg19
(lp91
sg21
I0
sba(iArchitecture
Entity
p92
(dp93
g11
(lp94
sg13
S'com.android.server.am.ActivityStack$ActivityStackHandler'
p95
sg15
(lp96
sg17
(lp97
sg19
(lp98
sg21
I0
sba(iArchitecture
Entity
p99
(dp100
g11
(lp101
sg13
S'com.android.server.am.ActivityStack$ActivityState'
p102
sg15
(lp103
sg17
(lp104
sg19
(lp105
sg21
I0
sba(iArchitecture
Entity
p106
(dp107
g11
(lp108
sg13
S'com.android.server.am.ActivityStack$ScheduleDestroyArgs'
p109
sg15
(lp110
sg17
(lp111
sg19
(lp112
sg21
I0
sba(iArchitecture
Entity
p113
(dp114
g11
(lp115
sg13
S'com.android.server.am.TaskRecord'
p116
sg15
(lp117
sg17
(lp118
sg19
(lp119
sg21
I0
sbasg78
(lp120
g88
ag95
ag102
ag109
ag116
asg21
I0
sg80
S'1154'
p121
sba(iArchitecture
Cluster
p122
(dp123
g7
(lp124
(iArchitecture
Entity
p125
(dp126
g11
(lp127
sg13
S'android.bluetooth.BluetoothServerSocket'
p128
sg15
(lp129
sg17
(lp130
sg19
(lp131
sg21
I0
sba(iArchitecture
Entity
p132
(dp133
g11
(lp134
sg13
S'android.bluetooth.BluetoothSocket'
p135
sg15
(lp136
sg17
(lp137
sg19
(lp138
sg21
I0
sba(iArchitecture
Entity
p139
(dp140
g11
(lp141
sg13
S'android.bluetooth.BluetoothSocket$SocketState'
p142
sg15
(lp143
sg17
(lp144
sg19
(lp145
sg21
I0
sba(iArchitecture
Entity
p146
(dp147
g11
(lp148
sg13
S'android.hardware.display.DisplayManager'
p149
sg15
(lp150
sg17
(lp151
sg19
(lp152
sg21
I0
sba(iArchitecture
Entity
p153
(dp154
g11
(lp155
sg13
S'android.hardware.display.DisplayManager$DisplayListener'
p156
sg15
(lp157
sg17
(lp158
sg19
(lp159
sg21
I0
sba(iArchitecture
Entity
p160
(dp161
g11
(lp162
sg13
S'android.hardware.display.WifiDisplayStatus'
p163
sg15
(lp164
sg17
(lp165
sg19
(lp166
sg21
I0
sba(iArchitecture
Entity
p167
(dp168
g11
(lp169
sg13
S'android.hardware.display.WifiDisplayStatus$1'
p170
sg15
(lp171
sg17
(lp172
sg19
(lp173
sg21
I0
sba(iArchitecture
Entity
p174
(dp175
g11
(lp176
sg13
S'android.view.textservice.SuggestionsInfo'
p177
sg15
(lp178
sg17
(lp179
sg19
(lp180
sg21
I0
sba(iArchitecture
Entity
p181
(dp182
g11
(lp183
sg13
S'android.view.textservice.SuggestionsInfo$1'
p184
sg15
(lp185
sg17
(lp186
sg19
(lp187
sg21
I0
sba(iArchitecture
Entity
p188
(dp189
g11
(lp190
sg13
S'com.android.internal.telephony.OperatorInfo'
p191
sg15
(lp192
sg17
(lp193
sg19
(lp194
sg21
I0
sba(iArchitecture
Entity
p195
(dp196
g11
(lp197
sg13
S'com.android.internal.telephony.OperatorInfo$1'
p198
sg15
(lp199
sg17
(lp200
sg19
(lp201
sg21
I0
sba(iArchitecture
Entity
p202
(dp203
g11
(lp204
sg13
S'com.android.internal.telephony.OperatorInfo$State'
p205
sg15
(lp206
sg17
(lp207
sg19
(lp208
sg21
I0
sba(iArchitecture
Entity
p209
(dp210
g11
(lp211
sg13
S'com.android.server.backup.SystemBackupAgent'
p212
sg15
(lp213
sg17
(lp214
sg19
(lp215
sg21
I0
sbasg78
(lp216
g128
ag135
ag142
ag149
ag156
ag163
ag170
ag177
ag184
ag191
ag198
ag205
ag212
asg21
I0
sg80
S'1254'
p217
sba(iArchitecture
Cluster
p218
(dp219
g7
(lp220
(iArchitecture
Entity
p221
(dp222
g11
(lp223
sg13
S'android.text.style.BulletSpan'
p224
sg15
(lp225
sg17
(lp226
sg19
(lp227
sg21
I0
sbasg78
(lp228
g224
asg21
I0
sg80
S'154'
p229
sba(iArchitecture
Cluster
p230
(dp231
g7
(lp232
(iArchitecture
Entity
p233
(dp234
g11
(lp235
sg13
S'android.database.AbstractWindowedCursor'
p236
sg15
(lp237
sg17
(lp238
sg19
(lp239
sg21
I0
sbasg78
(lp240
g236
asg21
I0
sg80
S'254'
p241
sba(iArchitecture
Cluster
p242
(dp243
g7
(lp244
(iArchitecture
Entity
p245
(dp246
g11
(lp247
sg13
S'android.webkit.LegacyErrorStrings'
p248
sg15
(lp249
sg17
(lp250
sg19
(lp251
sg21
I0
sbasg78
(lp252
g248
asg21
I0
sg80
S'354'
p253
sba(iArchitecture
Cluster
p254
(dp255
g7
(lp256
(iArchitecture
Entity
p257
(dp258
g11
(lp259
sg13
S'android.hardware.camera2.legacy.RequestHandlerThread'
p260
sg15
(lp261
sg17
(lp262
sg19
(lp263
sg21
I0
sba(iArchitecture
Entity
p264
(dp265
g11
(lp266
sg13
S'android.hardware.camera2.legacy.RequestHandlerThread$1'
p267
sg15
(lp268
sg17
(lp269
sg19
(lp270
sg21
I0
sbasg78
(lp271
g260
ag267
asg21
I0
sg80
S'454'
p272
sba(iArchitecture
Cluster
p273
(dp274
g7
(lp275
(iArchitecture
Entity
p276
(dp277
g11
(lp278
sg13
S'android.mtp.MtpConstants'
p279
sg15
(lp280
sg17
(lp281
sg19
(lp282
sg21
I0
sbasg78
(lp283
g279
asg21
I0
sg80
S'54'
p284
sba(iArchitecture
Cluster
p285
(dp286
g7
(lp287
(iArchitecture
Entity
p288
(dp289
g11
(lp290
sg13
S'com.android.server.location.LocationFudger'
p291
sg15
(lp292
sg17
(lp293
sg19
(lp294
sg21
I0
sba(iArchitecture
Entity
p295
(dp296
g11
(lp297
sg13
S'com.android.server.location.LocationFudger$1'
p298
sg15
(lp299
sg17
(lp300
sg19
(lp301
sg21
I0
sbasg78
(lp302
g291
ag298
asg21
I0
sg80
S'540'
p303
sba(iArchitecture
Cluster
p304
(dp305
g7
(lp306
(iArchitecture
Entity
p307
(dp308
g11
(lp309
sg13
S'android.net.CaptivePortal'
p310
sg15
(lp311
sg17
(lp312
sg19
(lp313
sg21
I0
sba(iArchitecture
Entity
p314
(dp315
g11
(lp316
sg13
S'android.net.CaptivePortal$1'
p317
sg15
(lp318
sg17
(lp319
sg19
(lp320
sg21
I0
sbasg78
(lp321
g310
ag317
asg21
I0
sg80
S'541'
p322
sba(iArchitecture
Cluster
p323
(dp324
g7
(lp325
(iArchitecture
Entity
p326
(dp327
g11
(lp328
sg13
S'android.telephony.cdma.CdmaSmsCbProgramResults'
p329
sg15
(lp330
sg17
(lp331
sg19
(lp332
sg21
I0
sba(iArchitecture
Entity
p333
(dp334
g11
(lp335
sg13
S'android.telephony.cdma.CdmaSmsCbProgramResults$1'
p336
sg15
(lp337
sg17
(lp338
sg19
(lp339
sg21
I0
sbasg78
(lp340
g329
ag336
asg21
I0
sg80
S'542'
p341
sba(iArchitecture
Cluster
p342
(dp343
g7
(lp344
(iArchitecture
Entity
p345
(dp346
g11
(lp347
sg13
S'android.graphics.drawable.InsetDrawable'
p348
sg15
(lp349
sg17
(lp350
sg19
(lp351
sg21
I0
sba(iArchitecture
Entity
p352
(dp353
g11
(lp354
sg13
S'android.graphics.drawable.InsetDrawable$InsetState'
p355
sg15
(lp356
sg17
(lp357
sg19
(lp358
sg21
I0
sbasg78
(lp359
g348
ag355
asg21
I0
sg80
S'543'
p360
sba(iArchitecture
Cluster
p361
(dp362
g7
(lp363
(iArchitecture
Entity
p364
(dp365
g11
(lp366
sg13
S'android.content.pm.LabeledIntent'
p367
sg15
(lp368
sg17
(lp369
sg19
(lp370
sg21
I0
sba(iArchitecture
Entity
p371
(dp372
g11
(lp373
sg13
S'android.content.pm.LabeledIntent$1'
p374
sg15
(lp375
sg17
(lp376
sg19
(lp377
sg21
I0
sbasg78
(lp378
g367
ag374
asg21
I0
sg80
S'544'
p379
sba(iArchitecture
Cluster
p380
(dp381
g7
(lp382
(iArchitecture
Entity
p383
(dp384
g11
(lp385
sg13
S'android.graphics.PorterDuff'
p386
sg15
(lp387
sg17
(lp388
sg19
(lp389
sg21
I0
sba(iArchitecture
Entity
p390
(dp391
g11
(lp392
sg13
S'android.graphics.PorterDuff$Mode'
p393
sg15
(lp394
sg17
(lp395
sg19
(lp396
sg21
I0
sbasg78
(lp397
g386
ag393
asg21
I0
sg80
S'545'
p398
sba(iArchitecture
Cluster
p399
(dp400
g7
(lp401
(iArchitecture
Entity
p402
(dp403
g11
(lp404
sg13
S'android.os.PatternMatcher'
p405
sg15
(lp406
sg17
(lp407
sg19
(lp408
sg21
I0
sba(iArchitecture
Entity
p409
(dp410
g11
(lp411
sg13
S'android.os.PatternMatcher$1'
p412
sg15
(lp413
sg17
(lp414
sg19
(lp415
sg21
I0
sbasg78
(lp416
g405
ag412
asg21
I0
sg80
S'546'
p417
sba(iArchitecture
Cluster
p418
(dp419
g7
(lp420
(iArchitecture
Entity
p421
(dp422
g11
(lp423
sg13
S'android.location.Geofence'
p424
sg15
(lp425
sg17
(lp426
sg19
(lp427
sg21
I0
sba(iArchitecture
Entity
p428
(dp429
g11
(lp430
sg13
S'android.location.Geofence$1'
p431
sg15
(lp432
sg17
(lp433
sg19
(lp434
sg21
I0
sbasg78
(lp435
g424
ag431
asg21
I0
sg80
S'547'
p436
sba(iArchitecture
Cluster
p437
(dp438
g7
(lp439
(iArchitecture
Entity
p440
(dp441
g11
(lp442
sg13
S'android.app.usage.ConfigurationStats'
p443
sg15
(lp444
sg17
(lp445
sg19
(lp446
sg21
I0
sba(iArchitecture
Entity
p447
(dp448
g11
(lp449
sg13
S'android.app.usage.ConfigurationStats$1'
p450
sg15
(lp451
sg17
(lp452
sg19
(lp453
sg21
I0
sbasg78
(lp454
g443
ag450
asg21
I0
sg80
S'548'
p455
sba(iArchitecture
Cluster
p456
(dp457
g7
(lp458
(iArchitecture
Entity
p459
(dp460
g11
(lp461
sg13
S'com.android.internal.net.VpnConfig'
p462
sg15
(lp463
sg17
(lp464
sg19
(lp465
sg21
I0
sba(iArchitecture
Entity
p466
(dp467
g11
(lp468
sg13
S'com.android.internal.net.VpnConfig$1'
p469
sg15
(lp470
sg17
(lp471
sg19
(lp472
sg21
I0
sbasg78
(lp473
g462
ag469
asg21
I0
sg80
S'549'
p474
sba(iArchitecture
Cluster
p475
(dp476
g7
(lp477
(iArchitecture
Entity
p478
(dp479
g11
(lp480
sg13
S'android.hardware.hdmi.HdmiRecordListener'
p481
sg15
(lp482
sg17
(lp483
sg19
(lp484
sg21
I0
sba(iArchitecture
Entity
p485
(dp486
g11
(lp487
sg13
S'android.hardware.hdmi.HdmiRecordListener$TimerStatusData'
p488
sg15
(lp489
sg17
(lp490
sg19
(lp491
sg21
I0
sbasg78
(lp492
g481
ag488
asg21
I0
sg80
S'554'
p493
sba(iArchitecture
Cluster
p494
(dp495
g7
(lp496
(iArchitecture
Entity
p497
(dp498
g11
(lp499
sg13
S'com.android.server.location.GeofenceManager'
p500
sg15
(lp501
sg17
(lp502
sg19
(lp503
sg21
I0
sba(iArchitecture
Entity
p504
(dp505
g11
(lp506
sg13
S'com.android.server.location.GeofenceManager$GeofenceHandler'
p507
sg15
(lp508
sg17
(lp509
sg19
(lp510
sg21
I0
sbasg78
(lp511
g500
ag507
asg21
I0
sg80
S'654'
p512
sba(iArchitecture
Cluster
p513
(dp514
g7
(lp515
(iArchitecture
Entity
p516
(dp517
g11
(lp518
sg13
S'android.service.voice.VoiceInteractionSessionService'
p519
sg15
(lp520
sg17
(lp521
sg19
(lp522
sg21
I0
sba(iArchitecture
Entity
p523
(dp524
g11
(lp525
sg13
S'android.service.voice.VoiceInteractionSessionService$1'
p526
sg15
(lp527
sg17
(lp528
sg19
(lp529
sg21
I0
sba(iArchitecture
Entity
p530
(dp531
g11
(lp532
sg13
S'android.service.voice.VoiceInteractionSessionService$2'
p533
sg15
(lp534
sg17
(lp535
sg19
(lp536
sg21
I0
sbasg78
(lp537
g519
ag526
ag533
asg21
I0
sg80
S'754'
p538
sba(iArchitecture
Cluster
p539
(dp540
g7
(lp541
(iArchitecture
Entity
p542
(dp543
g11
(lp544
sg13
S'android.provider.SyncStateContract'
p545
sg15
(lp546
sg17
(lp547
sg19
(lp548
sg21
I0
sba(iArchitecture
Entity
p549
(dp550
g11
(lp551
sg13
S'android.provider.SyncStateContract$Columns'
p552
sg15
(lp553
sg17
(lp554
sg19
(lp555
sg21
I0
sba(iArchitecture
Entity
p556
(dp557
g11
(lp558
sg13
S'android.provider.SyncStateContract$Constants'
p559
sg15
(lp560
sg17
(lp561
sg19
(lp562
sg21
I0
sba(iArchitecture
Entity
p563
(dp564
g11
(lp565
sg13
S'android.provider.SyncStateContract$Helpers'
p566
sg15
(lp567
sg17
(lp568
sg19
(lp569
sg21
I0
sbasg78
(lp570
g545
ag552
ag559
ag566
asg21
I0
sg80
S'854'
p571
sba(iArchitecture
Cluster
p572
(dp573
g7
(lp574
(iArchitecture
Entity
p575
(dp576
g11
(lp577
sg13
S'com.android.server.twilight.TwilightService'
p578
sg15
(lp579
sg17
(lp580
sg19
(lp581
sg21
I0
sba(iArchitecture
Entity
p582
(dp583
g11
(lp584
sg13
S'com.android.server.twilight.TwilightService$1'
p585
sg15
(lp586
sg17
(lp587
sg19
(lp588
sg21
I0
sba(iArchitecture
Entity
p589
(dp590
g11
(lp591
sg13
S'com.android.server.twilight.TwilightService$2'
p592
sg15
(lp593
sg17
(lp594
sg19
(lp595
sg21
I0
sba(iArchitecture
Entity
p596
(dp597
g11
(lp598
sg13
S'com.android.server.twilight.TwilightService$3'
p599
sg15
(lp600
sg17
(lp601
sg19
(lp602
sg21
I0
sba(iArchitecture
Entity
p603
(dp604
g11
(lp605
sg13
S'com.android.server.twilight.TwilightService$4'
p606
sg15
(lp607
sg17
(lp608
sg19
(lp609
sg21
I0
sba(iArchitecture
Entity
p610
(dp611
g11
(lp612
sg13
S'com.android.server.twilight.TwilightService$LocationHandler'
p613
sg15
(lp614
sg17
(lp615
sg19
(lp616
sg21
I0
sba(iArchitecture
Entity
p617
(dp618
g11
(lp619
sg13
S'com.android.server.twilight.TwilightService$TwilightListenerRecord'
p620
sg15
(lp621
sg17
(lp622
sg19
(lp623
sg21
I0
sbasg78
(lp624
g578
ag585
ag592
ag599
ag606
ag613
ag620
asg21
I0
sg80
S'954'
p625
sbasS'target_sub'
p626
S'54'
p627
sg78
(lp628
sS'is_component_arch'
p629
I01
sg80
S'6.0.0_r1'
p630
sba.