(lp0
(iArchitecture
Architecture
p1
(dp2
S'clusters'
p3
(lp4
(iArchitecture
Cluster
p5
(dp6
S'entities'
p7
(lp8
(iArchitecture
Entity
p9
(dp10
S'issue_ids'
p11
(lp12
sS'name'
p13
S'android.hardware.camera2.legacy.CameraDeviceState'
p14
sS'descs'
p15
(lp16
sS'labels'
p17
(lp18
sS'titles'
p19
(lp20
sS'change'
p21
I0
sba(iArchitecture
Entity
p22
(dp23
g11
(lp24
sg13
S'android.hardware.camera2.legacy.CameraDeviceState$1'
p25
sg15
(lp26
sg17
(lp27
sg19
(lp28
sg21
I0
sba(iArchitecture
Entity
p29
(dp30
g11
(lp31
sg13
S'android.hardware.camera2.legacy.CameraDeviceState$2'
p32
sg15
(lp33
sg17
(lp34
sg19
(lp35
sg21
I0
sba(iArchitecture
Entity
p36
(dp37
g11
(lp38
sg13
S'android.hardware.camera2.legacy.CameraDeviceState$3'
p39
sg15
(lp40
sg17
(lp41
sg19
(lp42
sg21
I0
sba(iArchitecture
Entity
p43
(dp44
g11
(lp45
sg13
S'android.hardware.camera2.legacy.CameraDeviceState$4'
p46
sg15
(lp47
sg17
(lp48
sg19
(lp49
sg21
I0
sba(iArchitecture
Entity
p50
(dp51
g11
(lp52
sg13
S'android.hardware.camera2.legacy.CameraDeviceState$5'
p53
sg15
(lp54
sg17
(lp55
sg19
(lp56
sg21
I0
sba(iArchitecture
Entity
p57
(dp58
g11
(lp59
sg13
S'android.hardware.camera2.legacy.CameraDeviceState$6'
p60
sg15
(lp61
sg17
(lp62
sg19
(lp63
sg21
I0
sba(iArchitecture
Entity
p64
(dp65
g11
(lp66
sg13
S'android.hardware.camera2.legacy.CameraDeviceState$7'
p67
sg15
(lp68
sg17
(lp69
sg19
(lp70
sg21
I0
sba(iArchitecture
Entity
p71
(dp72
g11
(lp73
sg13
S'android.hardware.camera2.legacy.CameraDeviceState$8'
p74
sg15
(lp75
sg17
(lp76
sg19
(lp77
sg21
I0
sba(iArchitecture
Entity
p78
(dp79
g11
(lp80
sg13
S'android.hardware.camera2.legacy.CameraDeviceState$CameraDeviceStateListener'
p81
sg15
(lp82
sg17
(lp83
sg19
(lp84
sg21
I0
sbasS'classes'
p85
(lp86
g14
ag25
ag32
ag39
ag46
ag53
ag60
ag67
ag74
ag81
asg21
I0
sS'label'
p87
S'1072'
p88
sba(iArchitecture
Cluster
p89
(dp90
g7
(lp91
(iArchitecture
Entity
p92
(dp93
g11
(lp94
sg13
S'android.bluetooth.le.TruncatedFilter'
p95
sg15
(lp96
sg17
(lp97
sg19
(lp98
sg21
I0
sba(iArchitecture
Entity
p99
(dp100
g11
(lp101
sg13
S'android.filterfw.core.OneShotScheduler'
p102
sg15
(lp103
sg17
(lp104
sg19
(lp105
sg21
I0
sbasg85
(lp106
g95
ag102
asg21
I0
sg87
S'1172'
p107
sba(iArchitecture
Cluster
p108
(dp109
g7
(lp110
(iArchitecture
Entity
p111
(dp112
g11
(lp113
sg13
S'com.android.server.connectivity.Nat464Xlat'
p114
sg15
(lp115
sg17
(lp116
sg19
(lp117
sg21
I0
sbasg85
(lp118
g114
asg21
I0
sg87
S'172'
p119
sba(iArchitecture
Cluster
p120
(dp121
g7
(lp122
(iArchitecture
Entity
p123
(dp124
g11
(lp125
sg13
S'android.telephony.gsm.GsmCellLocation'
p126
sg15
(lp127
sg17
(lp128
sg19
(lp129
sg21
I0
sbasg85
(lp130
g126
asg21
I0
sg87
S'272'
p131
sba(iArchitecture
Cluster
p132
(dp133
g7
(lp134
(iArchitecture
Entity
p135
(dp136
g11
(lp137
sg13
S'android.text.method.WordIterator'
p138
sg15
(lp139
sg17
(lp140
sg19
(lp141
sg21
I0
sbasg85
(lp142
g138
asg21
I0
sg87
S'372'
p143
sba(iArchitecture
Cluster
p144
(dp145
g7
(lp146
(iArchitecture
Entity
p147
(dp148
g11
(lp149
sg13
S'android.content.res.Configuration'
p150
sg15
(lp151
sg17
(lp152
sg19
(lp153
sg21
I0
sba(iArchitecture
Entity
p154
(dp155
g11
(lp156
sg13
S'android.content.res.Configuration$1'
p157
sg15
(lp158
sg17
(lp159
sg19
(lp160
sg21
I0
sbasg85
(lp161
g150
ag157
asg21
I0
sg87
S'472'
p162
sba(iArchitecture
Cluster
p163
(dp164
g7
(lp165
(iArchitecture
Entity
p166
(dp167
g11
(lp168
sg13
S'com.android.server.notification.ZenModeFiltering'
p169
sg15
(lp170
sg17
(lp171
sg19
(lp172
sg21
I0
sba(iArchitecture
Entity
p173
(dp174
g11
(lp175
sg13
S'com.android.server.notification.ZenModeFiltering$RepeatCallers'
p176
sg15
(lp177
sg17
(lp178
sg19
(lp179
sg21
I0
sbasg85
(lp180
g169
ag176
asg21
I0
sg87
S'572'
p181
sba(iArchitecture
Cluster
p182
(dp183
g7
(lp184
(iArchitecture
Entity
p185
(dp186
g11
(lp187
sg13
S'android.view.ViewStub'
p188
sg15
(lp189
sg17
(lp190
sg19
(lp191
sg21
I0
sba(iArchitecture
Entity
p192
(dp193
g11
(lp194
sg13
S'android.view.ViewStub$OnInflateListener'
p195
sg15
(lp196
sg17
(lp197
sg19
(lp198
sg21
I0
sbasg85
(lp199
g188
ag195
asg21
I0
sg87
S'672'
p200
sba(iArchitecture
Cluster
p201
(dp202
g7
(lp203
(iArchitecture
Entity
p204
(dp205
g11
(lp206
sg13
S'android.nfc.tech.NfcBarcode'
p207
sg15
(lp208
sg17
(lp209
sg19
(lp210
sg21
I0
sbasg85
(lp211
g207
asg21
I0
sg87
S'72'
p212
sba(iArchitecture
Cluster
p213
(dp214
g7
(lp215
(iArchitecture
Entity
p216
(dp217
g11
(lp218
sg13
S'android.service.media.CameraPrewarmService'
p219
sg15
(lp220
sg17
(lp221
sg19
(lp222
sg21
I0
sba(iArchitecture
Entity
p223
(dp224
g11
(lp225
sg13
S'android.service.media.CameraPrewarmService$1'
p226
sg15
(lp227
sg17
(lp228
sg19
(lp229
sg21
I0
sbasg85
(lp230
g219
ag226
asg21
I0
sg87
S'720'
p231
sba(iArchitecture
Cluster
p232
(dp233
g7
(lp234
(iArchitecture
Entity
p235
(dp236
g11
(lp237
sg13
S'android.net.LinkAddress'
p238
sg15
(lp239
sg17
(lp240
sg19
(lp241
sg21
I0
sba(iArchitecture
Entity
p242
(dp243
g11
(lp244
sg13
S'android.net.LinkAddress$1'
p245
sg15
(lp246
sg17
(lp247
sg19
(lp248
sg21
I0
sbasg85
(lp249
g238
ag245
asg21
I0
sg87
S'721'
p250
sba(iArchitecture
Cluster
p251
(dp252
g7
(lp253
(iArchitecture
Entity
p254
(dp255
g11
(lp256
sg13
S'com.android.server.am.RecentTasks'
p257
sg15
(lp258
sg17
(lp259
sg19
(lp260
sg21
I0
sba(iArchitecture
Entity
p261
(dp262
g11
(lp263
sg13
S'com.android.server.am.RecentTasks$1'
p264
sg15
(lp265
sg17
(lp266
sg19
(lp267
sg21
I0
sbasg85
(lp268
g257
ag264
asg21
I0
sg87
S'722'
p269
sba(iArchitecture
Cluster
p270
(dp271
g7
(lp272
(iArchitecture
Entity
p273
(dp274
g11
(lp275
sg13
S'android.media.Ringtone'
p276
sg15
(lp277
sg17
(lp278
sg19
(lp279
sg21
I0
sba(iArchitecture
Entity
p280
(dp281
g11
(lp282
sg13
S'android.media.Ringtone$MyOnCompletionListener'
p283
sg15
(lp284
sg17
(lp285
sg19
(lp286
sg21
I0
sbasg85
(lp287
g276
ag283
asg21
I0
sg87
S'723'
p288
sba(iArchitecture
Cluster
p289
(dp290
g7
(lp291
(iArchitecture
Entity
p292
(dp293
g11
(lp294
sg13
S'com.android.server.wm.AppWindowAnimator'
p295
sg15
(lp296
sg17
(lp297
sg19
(lp298
sg21
I0
sba(iArchitecture
Entity
p299
(dp300
g11
(lp301
sg13
S'com.android.server.wm.AppWindowAnimator$DummyAnimation'
p302
sg15
(lp303
sg17
(lp304
sg19
(lp305
sg21
I0
sbasg85
(lp306
g295
ag302
asg21
I0
sg87
S'724'
p307
sba(iArchitecture
Cluster
p308
(dp309
g7
(lp310
(iArchitecture
Entity
p311
(dp312
g11
(lp313
sg13
S'com.android.server.wm.DisplaySettings'
p314
sg15
(lp315
sg17
(lp316
sg19
(lp317
sg21
I0
sba(iArchitecture
Entity
p318
(dp319
g11
(lp320
sg13
S'com.android.server.wm.DisplaySettings$Entry'
p321
sg15
(lp322
sg17
(lp323
sg19
(lp324
sg21
I0
sbasg85
(lp325
g314
ag321
asg21
I0
sg87
S'725'
p326
sba(iArchitecture
Cluster
p327
(dp328
g7
(lp329
(iArchitecture
Entity
p330
(dp331
g11
(lp332
sg13
S'android.location.LocationRequest'
p333
sg15
(lp334
sg17
(lp335
sg19
(lp336
sg21
I0
sba(iArchitecture
Entity
p337
(dp338
g11
(lp339
sg13
S'android.location.LocationRequest$1'
p340
sg15
(lp341
sg17
(lp342
sg19
(lp343
sg21
I0
sbasg85
(lp344
g333
ag340
asg21
I0
sg87
S'726'
p345
sba(iArchitecture
Cluster
p346
(dp347
g7
(lp348
(iArchitecture
Entity
p349
(dp350
g11
(lp351
sg13
S'android.accounts.ChooseTypeAndAccountActivity'
p352
sg15
(lp353
sg17
(lp354
sg19
(lp355
sg21
I0
sba(iArchitecture
Entity
p356
(dp357
g11
(lp358
sg13
S'android.accounts.ChooseTypeAndAccountActivity$1'
p359
sg15
(lp360
sg17
(lp361
sg19
(lp362
sg21
I0
sbasg85
(lp363
g352
ag359
asg21
I0
sg87
S'727'
p364
sba(iArchitecture
Cluster
p365
(dp366
g7
(lp367
(iArchitecture
Entity
p368
(dp369
g11
(lp370
sg13
S'android.location.GeocoderParams'
p371
sg15
(lp372
sg17
(lp373
sg19
(lp374
sg21
I0
sba(iArchitecture
Entity
p375
(dp376
g11
(lp377
sg13
S'android.location.GeocoderParams$1'
p378
sg15
(lp379
sg17
(lp380
sg19
(lp381
sg21
I0
sbasg85
(lp382
g371
ag378
asg21
I0
sg87
S'728'
p383
sba(iArchitecture
Cluster
p384
(dp385
g7
(lp386
(iArchitecture
Entity
p387
(dp388
g11
(lp389
sg13
S'android.net.DhcpInfo'
p390
sg15
(lp391
sg17
(lp392
sg19
(lp393
sg21
I0
sba(iArchitecture
Entity
p394
(dp395
g11
(lp396
sg13
S'android.net.DhcpInfo$1'
p397
sg15
(lp398
sg17
(lp399
sg19
(lp400
sg21
I0
sbasg85
(lp401
g390
ag397
asg21
I0
sg87
S'729'
p402
sba(iArchitecture
Cluster
p403
(dp404
g7
(lp405
(iArchitecture
Entity
p406
(dp407
g11
(lp408
sg13
S'android.app.Application'
p409
sg15
(lp410
sg17
(lp411
sg19
(lp412
sg21
I0
sba(iArchitecture
Entity
p413
(dp414
g11
(lp415
sg13
S'android.app.Application$ActivityLifecycleCallbacks'
p416
sg15
(lp417
sg17
(lp418
sg19
(lp419
sg21
I0
sba(iArchitecture
Entity
p420
(dp421
g11
(lp422
sg13
S'android.app.Application$OnProvideAssistDataListener'
p423
sg15
(lp424
sg17
(lp425
sg19
(lp426
sg21
I0
sbasg85
(lp427
g409
ag416
ag423
asg21
I0
sg87
S'772'
p428
sba(iArchitecture
Cluster
p429
(dp430
g7
(lp431
(iArchitecture
Entity
p432
(dp433
g11
(lp434
sg13
S'android.renderscript.Element'
p435
sg15
(lp436
sg17
(lp437
sg19
(lp438
sg21
I0
sba(iArchitecture
Entity
p439
(dp440
g11
(lp441
sg13
S'android.renderscript.Element$Builder'
p442
sg15
(lp443
sg17
(lp444
sg19
(lp445
sg21
I0
sba(iArchitecture
Entity
p446
(dp447
g11
(lp448
sg13
S'android.renderscript.Element$DataKind'
p449
sg15
(lp450
sg17
(lp451
sg19
(lp452
sg21
I0
sba(iArchitecture
Entity
p453
(dp454
g11
(lp455
sg13
S'android.renderscript.Element$DataType'
p456
sg15
(lp457
sg17
(lp458
sg19
(lp459
sg21
I0
sbasg85
(lp460
g435
ag442
ag449
ag456
asg21
I0
sg87
S'872'
p461
sba(iArchitecture
Cluster
p462
(dp463
g7
(lp464
(iArchitecture
Entity
p465
(dp466
g11
(lp467
sg13
S'android.gesture.GestureOverlayView'
p468
sg15
(lp469
sg17
(lp470
sg19
(lp471
sg21
I0
sba(iArchitecture
Entity
p472
(dp473
g11
(lp474
sg13
S'android.gesture.GestureOverlayView$FadeOutRunnable'
p475
sg15
(lp476
sg17
(lp477
sg19
(lp478
sg21
I0
sba(iArchitecture
Entity
p479
(dp480
g11
(lp481
sg13
S'android.gesture.GestureOverlayView$OnGestureListener'
p482
sg15
(lp483
sg17
(lp484
sg19
(lp485
sg21
I0
sba(iArchitecture
Entity
p486
(dp487
g11
(lp488
sg13
S'android.gesture.GestureOverlayView$OnGesturePerformedListener'
p489
sg15
(lp490
sg17
(lp491
sg19
(lp492
sg21
I0
sba(iArchitecture
Entity
p493
(dp494
g11
(lp495
sg13
S'android.gesture.GestureOverlayView$OnGesturingListener'
p496
sg15
(lp497
sg17
(lp498
sg19
(lp499
sg21
I0
sbasg85
(lp500
g468
ag475
ag482
ag489
ag496
asg21
I0
sg87
S'972'
p501
sbasS'target_sub'
p502
S'72'
p503
sg85
(lp504
sS'is_component_arch'
p505
I01
sg87
S'6.0.0_r1'
p506
sba.