(lp0
(iArchitecture
Architecture
p1
(dp2
S'clusters'
p3
(lp4
(iArchitecture
Cluster
p5
(dp6
S'entities'
p7
(lp8
(iArchitecture
Entity
p9
(dp10
S'issue_ids'
p11
(lp12
sS'name'
p13
S'android.text.style.TtsSpan'
p14
sS'descs'
p15
(lp16
sS'labels'
p17
(lp18
sS'titles'
p19
(lp20
sS'change'
p21
I0
sba(iArchitecture
Entity
p22
(dp23
g11
(lp24
sg13
S'android.text.style.TtsSpan$Builder'
p25
sg15
(lp26
sg17
(lp27
sg19
(lp28
sg21
I0
sba(iArchitecture
Entity
p29
(dp30
g11
(lp31
sg13
S'android.text.style.TtsSpan$CardinalBuilder'
p32
sg15
(lp33
sg17
(lp34
sg19
(lp35
sg21
I0
sba(iArchitecture
Entity
p36
(dp37
g11
(lp38
sg13
S'android.text.style.TtsSpan$DateBuilder'
p39
sg15
(lp40
sg17
(lp41
sg19
(lp42
sg21
I0
sba(iArchitecture
Entity
p43
(dp44
g11
(lp45
sg13
S'android.text.style.TtsSpan$DecimalBuilder'
p46
sg15
(lp47
sg17
(lp48
sg19
(lp49
sg21
I0
sba(iArchitecture
Entity
p50
(dp51
g11
(lp52
sg13
S'android.text.style.TtsSpan$DigitsBuilder'
p53
sg15
(lp54
sg17
(lp55
sg19
(lp56
sg21
I0
sba(iArchitecture
Entity
p57
(dp58
g11
(lp59
sg13
S'android.text.style.TtsSpan$ElectronicBuilder'
p60
sg15
(lp61
sg17
(lp62
sg19
(lp63
sg21
I0
sba(iArchitecture
Entity
p64
(dp65
g11
(lp66
sg13
S'android.text.style.TtsSpan$FractionBuilder'
p67
sg15
(lp68
sg17
(lp69
sg19
(lp70
sg21
I0
sba(iArchitecture
Entity
p71
(dp72
g11
(lp73
sg13
S'android.text.style.TtsSpan$MeasureBuilder'
p74
sg15
(lp75
sg17
(lp76
sg19
(lp77
sg21
I0
sba(iArchitecture
Entity
p78
(dp79
g11
(lp80
sg13
S'android.text.style.TtsSpan$MoneyBuilder'
p81
sg15
(lp82
sg17
(lp83
sg19
(lp84
sg21
I0
sba(iArchitecture
Entity
p85
(dp86
g11
(lp87
sg13
S'android.text.style.TtsSpan$OrdinalBuilder'
p88
sg15
(lp89
sg17
(lp90
sg19
(lp91
sg21
I0
sba(iArchitecture
Entity
p92
(dp93
g11
(lp94
sg13
S'android.text.style.TtsSpan$SemioticClassBuilder'
p95
sg15
(lp96
sg17
(lp97
sg19
(lp98
sg21
I0
sba(iArchitecture
Entity
p99
(dp100
g11
(lp101
sg13
S'android.text.style.TtsSpan$TelephoneBuilder'
p102
sg15
(lp103
sg17
(lp104
sg19
(lp105
sg21
I0
sba(iArchitecture
Entity
p106
(dp107
g11
(lp108
sg13
S'android.text.style.TtsSpan$TextBuilder'
p109
sg15
(lp110
sg17
(lp111
sg19
(lp112
sg21
I0
sba(iArchitecture
Entity
p113
(dp114
g11
(lp115
sg13
S'android.text.style.TtsSpan$TimeBuilder'
p116
sg15
(lp117
sg17
(lp118
sg19
(lp119
sg21
I0
sba(iArchitecture
Entity
p120
(dp121
g11
(lp122
sg13
S'android.text.style.TtsSpan$VerbatimBuilder'
p123
sg15
(lp124
sg17
(lp125
sg19
(lp126
sg21
I0
sbasS'classes'
p127
(lp128
g14
ag25
ag32
ag39
ag46
ag53
ag60
ag67
ag74
ag81
ag88
ag95
ag102
ag109
ag116
ag123
asg21
I0
sS'label'
p129
S'1081'
p130
sba(iArchitecture
Cluster
p131
(dp132
g7
(lp133
(iArchitecture
Entity
p134
(dp135
g11
(lp136
sg13
S'android.net.PacProxySelector'
p137
sg15
(lp138
sg17
(lp139
sg19
(lp140
sg21
I0
sba(iArchitecture
Entity
p141
(dp142
g11
(lp143
sg13
S'android.net.Proxy'
p144
sg15
(lp145
sg17
(lp146
sg19
(lp147
sg21
I0
sba(iArchitecture
Entity
p148
(dp149
g11
(lp150
sg13
S'com.android.server.DockObserver'
p151
sg15
(lp152
sg17
(lp153
sg19
(lp154
sg21
I0
sba(iArchitecture
Entity
p155
(dp156
g11
(lp157
sg13
S'com.android.server.DockObserver$1'
p158
sg15
(lp159
sg17
(lp160
sg19
(lp161
sg21
I0
sba(iArchitecture
Entity
p162
(dp163
g11
(lp164
sg13
S'com.android.server.DockObserver$2'
p165
sg15
(lp166
sg17
(lp167
sg19
(lp168
sg21
I0
sba(iArchitecture
Entity
p169
(dp170
g11
(lp171
sg13
S'com.android.server.DockObserver$BinderService'
p172
sg15
(lp173
sg17
(lp174
sg19
(lp175
sg21
I0
sba(iArchitecture
Entity
p176
(dp177
g11
(lp178
sg13
S'com.android.server.connectivity.PacManager'
p179
sg15
(lp180
sg17
(lp181
sg19
(lp182
sg21
I0
sba(iArchitecture
Entity
p183
(dp184
g11
(lp185
sg13
S'com.android.server.connectivity.PacManager$1'
p186
sg15
(lp187
sg17
(lp188
sg19
(lp189
sg21
I0
sba(iArchitecture
Entity
p190
(dp191
g11
(lp192
sg13
S'com.android.server.connectivity.PacManager$2'
p193
sg15
(lp194
sg17
(lp195
sg19
(lp196
sg21
I0
sba(iArchitecture
Entity
p197
(dp198
g11
(lp199
sg13
S'com.android.server.connectivity.PacManager$3'
p200
sg15
(lp201
sg17
(lp202
sg19
(lp203
sg21
I0
sba(iArchitecture
Entity
p204
(dp205
g11
(lp206
sg13
S'com.android.server.connectivity.PacManager$3$1'
p207
sg15
(lp208
sg17
(lp209
sg19
(lp210
sg21
I0
sba(iArchitecture
Entity
p211
(dp212
g11
(lp213
sg13
S'com.android.server.connectivity.PacManager$PacRefreshIntentReceiver'
p214
sg15
(lp215
sg17
(lp216
sg19
(lp217
sg21
I0
sbasg127
(lp218
g137
ag144
ag151
ag158
ag165
ag172
ag179
ag186
ag193
ag200
ag207
ag214
asg21
I0
sg129
S'1181'
p219
sba(iArchitecture
Cluster
p220
(dp221
g7
(lp222
(iArchitecture
Entity
p223
(dp224
g11
(lp225
sg13
S'com.android.server.notification.NotificationComparator'
p226
sg15
(lp227
sg17
(lp228
sg19
(lp229
sg21
I0
sbasg127
(lp230
g226
asg21
I0
sg129
S'181'
p231
sba(iArchitecture
Cluster
p232
(dp233
g7
(lp234
(iArchitecture
Entity
p235
(dp236
g11
(lp237
sg13
S'android.hardware.display.DisplayViewport'
p238
sg15
(lp239
sg17
(lp240
sg19
(lp241
sg21
I0
sbasg127
(lp242
g238
asg21
I0
sg129
S'281'
p243
sba(iArchitecture
Cluster
p244
(dp245
g7
(lp246
(iArchitecture
Entity
p247
(dp248
g11
(lp249
sg13
S'android.content.SyncContext'
p250
sg15
(lp251
sg17
(lp252
sg19
(lp253
sg21
I0
sbasg127
(lp254
g250
asg21
I0
sg129
S'381'
p255
sba(iArchitecture
Cluster
p256
(dp257
g7
(lp258
(iArchitecture
Entity
p259
(dp260
g11
(lp261
sg13
S'com.android.server.display.ColorFade'
p262
sg15
(lp263
sg17
(lp264
sg19
(lp265
sg21
I0
sba(iArchitecture
Entity
p266
(dp267
g11
(lp268
sg13
S'com.android.server.display.ColorFade$NaturalSurfaceLayout'
p269
sg15
(lp270
sg17
(lp271
sg19
(lp272
sg21
I0
sbasg127
(lp273
g262
ag269
asg21
I0
sg129
S'481'
p274
sba(iArchitecture
Cluster
p275
(dp276
g7
(lp277
(iArchitecture
Entity
p278
(dp279
g11
(lp280
sg13
S'android.app.admin.SystemUpdatePolicy'
p281
sg15
(lp282
sg17
(lp283
sg19
(lp284
sg21
I0
sba(iArchitecture
Entity
p285
(dp286
g11
(lp287
sg13
S'android.app.admin.SystemUpdatePolicy$1'
p288
sg15
(lp289
sg17
(lp290
sg19
(lp291
sg21
I0
sbasg127
(lp292
g281
ag288
asg21
I0
sg129
S'581'
p293
sba(iArchitecture
Cluster
p294
(dp295
g7
(lp296
(iArchitecture
Entity
p297
(dp298
g11
(lp299
sg13
S'android.content.SyncStats'
p300
sg15
(lp301
sg17
(lp302
sg19
(lp303
sg21
I0
sba(iArchitecture
Entity
p304
(dp305
g11
(lp306
sg13
S'android.content.SyncStats$1'
p307
sg15
(lp308
sg17
(lp309
sg19
(lp310
sg21
I0
sbasg127
(lp311
g300
ag307
asg21
I0
sg129
S'681'
p312
sba(iArchitecture
Cluster
p313
(dp314
g7
(lp315
(iArchitecture
Entity
p316
(dp317
g11
(lp318
sg13
S'com.android.server.usb.UsbAlsaManager'
p319
sg15
(lp320
sg17
(lp321
sg19
(lp322
sg21
I0
sba(iArchitecture
Entity
p323
(dp324
g11
(lp325
sg13
S'com.android.server.usb.UsbAlsaManager$1'
p326
sg15
(lp327
sg17
(lp328
sg19
(lp329
sg21
I0
sba(iArchitecture
Entity
p330
(dp331
g11
(lp332
sg13
S'com.android.server.usb.UsbAlsaManager$AlsaDevice'
p333
sg15
(lp334
sg17
(lp335
sg19
(lp336
sg21
I0
sbasg127
(lp337
g319
ag326
ag333
asg21
I0
sg129
S'781'
p338
sba(iArchitecture
Cluster
p339
(dp340
g7
(lp341
(iArchitecture
Entity
p342
(dp343
g11
(lp344
sg13
S'android.content.ContextWrapper'
p345
sg15
(lp346
sg17
(lp347
sg19
(lp348
sg21
I0
sbasg127
(lp349
g345
asg21
I0
sg129
S'81'
p350
sba(iArchitecture
Cluster
p351
(dp352
g7
(lp353
(iArchitecture
Entity
p354
(dp355
g11
(lp356
sg13
S'android.location.GpsMeasurementsEvent'
p357
sg15
(lp358
sg17
(lp359
sg19
(lp360
sg21
I0
sba(iArchitecture
Entity
p361
(dp362
g11
(lp363
sg13
S'android.location.GpsMeasurementsEvent$1'
p364
sg15
(lp365
sg17
(lp366
sg19
(lp367
sg21
I0
sba(iArchitecture
Entity
p368
(dp369
g11
(lp370
sg13
S'android.location.GpsMeasurementsEvent$Listener'
p371
sg15
(lp372
sg17
(lp373
sg19
(lp374
sg21
I0
sbasg127
(lp375
g357
ag364
ag371
asg21
I0
sg129
S'810'
p376
sba(iArchitecture
Cluster
p377
(dp378
g7
(lp379
(iArchitecture
Entity
p380
(dp381
g11
(lp382
sg13
S'android.os.CancellationSignal'
p383
sg15
(lp384
sg17
(lp385
sg19
(lp386
sg21
I0
sba(iArchitecture
Entity
p387
(dp388
g11
(lp389
sg13
S'android.os.CancellationSignal$OnCancelListener'
p390
sg15
(lp391
sg17
(lp392
sg19
(lp393
sg21
I0
sba(iArchitecture
Entity
p394
(dp395
g11
(lp396
sg13
S'android.os.CancellationSignal$Transport'
p397
sg15
(lp398
sg17
(lp399
sg19
(lp400
sg21
I0
sbasg127
(lp401
g383
ag390
ag397
asg21
I0
sg129
S'811'
p402
sba(iArchitecture
Cluster
p403
(dp404
g7
(lp405
(iArchitecture
Entity
p406
(dp407
g11
(lp408
sg13
S'com.android.internal.telephony.GsmAlphabet'
p409
sg15
(lp410
sg17
(lp411
sg19
(lp412
sg21
I0
sba(iArchitecture
Entity
p413
(dp414
g11
(lp415
sg13
S'com.android.internal.telephony.GsmAlphabet$LanguagePairCount'
p416
sg15
(lp417
sg17
(lp418
sg19
(lp419
sg21
I0
sba(iArchitecture
Entity
p420
(dp421
g11
(lp422
sg13
S'com.android.internal.telephony.GsmAlphabet$TextEncodingDetails'
p423
sg15
(lp424
sg17
(lp425
sg19
(lp426
sg21
I0
sbasg127
(lp427
g409
ag416
ag423
asg21
I0
sg129
S'812'
p428
sba(iArchitecture
Cluster
p429
(dp430
g7
(lp431
(iArchitecture
Entity
p432
(dp433
g11
(lp434
sg13
S'android.location.GpsNavigationMessageEvent'
p435
sg15
(lp436
sg17
(lp437
sg19
(lp438
sg21
I0
sba(iArchitecture
Entity
p439
(dp440
g11
(lp441
sg13
S'android.location.GpsNavigationMessageEvent$1'
p442
sg15
(lp443
sg17
(lp444
sg19
(lp445
sg21
I0
sba(iArchitecture
Entity
p446
(dp447
g11
(lp448
sg13
S'android.location.GpsNavigationMessageEvent$Listener'
p449
sg15
(lp450
sg17
(lp451
sg19
(lp452
sg21
I0
sbasg127
(lp453
g435
ag442
ag449
asg21
I0
sg129
S'813'
p454
sba(iArchitecture
Cluster
p455
(dp456
g7
(lp457
(iArchitecture
Entity
p458
(dp459
g11
(lp460
sg13
S'android.media.tv.TvTrackInfo'
p461
sg15
(lp462
sg17
(lp463
sg19
(lp464
sg21
I0
sba(iArchitecture
Entity
p465
(dp466
g11
(lp467
sg13
S'android.media.tv.TvTrackInfo$1'
p468
sg15
(lp469
sg17
(lp470
sg19
(lp471
sg21
I0
sba(iArchitecture
Entity
p472
(dp473
g11
(lp474
sg13
S'android.media.tv.TvTrackInfo$Builder'
p475
sg15
(lp476
sg17
(lp477
sg19
(lp478
sg21
I0
sbasg127
(lp479
g461
ag468
ag475
asg21
I0
sg129
S'814'
p480
sba(iArchitecture
Cluster
p481
(dp482
g7
(lp483
(iArchitecture
Entity
p484
(dp485
g11
(lp486
sg13
S'android.content.ClipData'
p487
sg15
(lp488
sg17
(lp489
sg19
(lp490
sg21
I0
sba(iArchitecture
Entity
p491
(dp492
g11
(lp493
sg13
S'android.content.ClipData$1'
p494
sg15
(lp495
sg17
(lp496
sg19
(lp497
sg21
I0
sba(iArchitecture
Entity
p498
(dp499
g11
(lp500
sg13
S'android.content.ClipData$Item'
p501
sg15
(lp502
sg17
(lp503
sg19
(lp504
sg21
I0
sbasg127
(lp505
g487
ag494
ag501
asg21
I0
sg129
S'815'
p506
sba(iArchitecture
Cluster
p507
(dp508
g7
(lp509
(iArchitecture
Entity
p510
(dp511
g11
(lp512
sg13
S'android.net.wifi.ScanResult'
p513
sg15
(lp514
sg17
(lp515
sg19
(lp516
sg21
I0
sba(iArchitecture
Entity
p517
(dp518
g11
(lp519
sg13
S'android.net.wifi.ScanResult$1'
p520
sg15
(lp521
sg17
(lp522
sg19
(lp523
sg21
I0
sba(iArchitecture
Entity
p524
(dp525
g11
(lp526
sg13
S'android.net.wifi.ScanResult$InformationElement'
p527
sg15
(lp528
sg17
(lp529
sg19
(lp530
sg21
I0
sbasg127
(lp531
g513
ag520
ag527
asg21
I0
sg129
S'816'
p532
sba(iArchitecture
Cluster
p533
(dp534
g7
(lp535
(iArchitecture
Entity
p536
(dp537
g11
(lp538
sg13
S'android.test.InstrumentationTestCase'
p539
sg15
(lp540
sg17
(lp541
sg19
(lp542
sg21
I0
sba(iArchitecture
Entity
p543
(dp544
g11
(lp545
sg13
S'android.test.InstrumentationTestCase$1'
p546
sg15
(lp547
sg17
(lp548
sg19
(lp549
sg21
I0
sba(iArchitecture
Entity
p550
(dp551
g11
(lp552
sg13
S'android.test.InstrumentationTestCase$2'
p553
sg15
(lp554
sg17
(lp555
sg19
(lp556
sg21
I0
sbasg127
(lp557
g539
ag546
ag553
asg21
I0
sg129
S'817'
p558
sba(iArchitecture
Cluster
p559
(dp560
g7
(lp561
(iArchitecture
Entity
p562
(dp563
g11
(lp564
sg13
S'android.hardware.camera2.utils.TypeReference'
p565
sg15
(lp566
sg17
(lp567
sg19
(lp568
sg21
I0
sba(iArchitecture
Entity
p569
(dp570
g11
(lp571
sg13
S'android.hardware.camera2.utils.TypeReference$SpecializedBaseTypeReference'
p572
sg15
(lp573
sg17
(lp574
sg19
(lp575
sg21
I0
sba(iArchitecture
Entity
p576
(dp577
g11
(lp578
sg13
S'android.hardware.camera2.utils.TypeReference$SpecializedTypeReference'
p579
sg15
(lp580
sg17
(lp581
sg19
(lp582
sg21
I0
sbasg127
(lp583
g565
ag572
ag579
asg21
I0
sg129
S'818'
p584
sba(iArchitecture
Cluster
p585
(dp586
g7
(lp587
(iArchitecture
Entity
p588
(dp589
g11
(lp590
sg13
S'com.android.internal.os.HandlerCaller'
p591
sg15
(lp592
sg17
(lp593
sg19
(lp594
sg21
I0
sba(iArchitecture
Entity
p595
(dp596
g11
(lp597
sg13
S'com.android.internal.os.HandlerCaller$Callback'
p598
sg15
(lp599
sg17
(lp600
sg19
(lp601
sg21
I0
sba(iArchitecture
Entity
p602
(dp603
g11
(lp604
sg13
S'com.android.internal.os.HandlerCaller$MyHandler'
p605
sg15
(lp606
sg17
(lp607
sg19
(lp608
sg21
I0
sbasg127
(lp609
g591
ag598
ag605
asg21
I0
sg129
S'819'
p610
sba(iArchitecture
Cluster
p611
(dp612
g7
(lp613
(iArchitecture
Entity
p614
(dp615
g11
(lp616
sg13
S'android.content.ClipboardManager'
p617
sg15
(lp618
sg17
(lp619
sg19
(lp620
sg21
I0
sba(iArchitecture
Entity
p621
(dp622
g11
(lp623
sg13
S'android.content.ClipboardManager$1'
p624
sg15
(lp625
sg17
(lp626
sg19
(lp627
sg21
I0
sba(iArchitecture
Entity
p628
(dp629
g11
(lp630
sg13
S'android.content.ClipboardManager$2'
p631
sg15
(lp632
sg17
(lp633
sg19
(lp634
sg21
I0
sba(iArchitecture
Entity
p635
(dp636
g11
(lp637
sg13
S'android.content.ClipboardManager$OnPrimaryClipChangedListener'
p638
sg15
(lp639
sg17
(lp640
sg19
(lp641
sg21
I0
sbasg127
(lp642
g617
ag624
ag631
ag638
asg21
I0
sg129
S'881'
p643
sba(iArchitecture
Cluster
p644
(dp645
g7
(lp646
(iArchitecture
Entity
p647
(dp648
g11
(lp649
sg13
S'android.graphics.drawable.VectorDrawable'
p650
sg15
(lp651
sg17
(lp652
sg19
(lp653
sg21
I0
sba(iArchitecture
Entity
p654
(dp655
g11
(lp656
sg13
S'android.graphics.drawable.VectorDrawable$VClipPath'
p657
sg15
(lp658
sg17
(lp659
sg19
(lp660
sg21
I0
sba(iArchitecture
Entity
p661
(dp662
g11
(lp663
sg13
S'android.graphics.drawable.VectorDrawable$VFullPath'
p664
sg15
(lp665
sg17
(lp666
sg19
(lp667
sg21
I0
sba(iArchitecture
Entity
p668
(dp669
g11
(lp670
sg13
S'android.graphics.drawable.VectorDrawable$VGroup'
p671
sg15
(lp672
sg17
(lp673
sg19
(lp674
sg21
I0
sba(iArchitecture
Entity
p675
(dp676
g11
(lp677
sg13
S'android.graphics.drawable.VectorDrawable$VPath'
p678
sg15
(lp679
sg17
(lp680
sg19
(lp681
sg21
I0
sba(iArchitecture
Entity
p682
(dp683
g11
(lp684
sg13
S'android.graphics.drawable.VectorDrawable$VPathRenderer'
p685
sg15
(lp686
sg17
(lp687
sg19
(lp688
sg21
I0
sba(iArchitecture
Entity
p689
(dp690
g11
(lp691
sg13
S'android.graphics.drawable.VectorDrawable$VectorDrawableState'
p692
sg15
(lp693
sg17
(lp694
sg19
(lp695
sg21
I0
sbasg127
(lp696
g650
ag657
ag664
ag671
ag678
ag685
ag692
asg21
I0
sg129
S'981'
p697
sbasS'target_sub'
p698
S'81'
p699
sg127
(lp700
sS'is_component_arch'
p701
I01
sg129
S'6.0.0_r1'
p702
sba.