(lp0
(iArchitecture
Architecture
p1
(dp2
S'clusters'
p3
(lp4
(iArchitecture
Cluster
p5
(dp6
S'entities'
p7
(lp8
(iArchitecture
Entity
p9
(dp10
S'issue_ids'
p11
(lp12
sS'name'
p13
S'android.app.SharedPreferencesImpl'
p14
sS'descs'
p15
(lp16
sS'labels'
p17
(lp18
sS'titles'
p19
(lp20
sS'change'
p21
I0
sba(iArchitecture
Entity
p22
(dp23
g11
(lp24
sg13
S'android.app.SharedPreferencesImpl$1'
p25
sg15
(lp26
sg17
(lp27
sg19
(lp28
sg21
I0
sba(iArchitecture
Entity
p29
(dp30
g11
(lp31
sg13
S'android.app.SharedPreferencesImpl$2'
p32
sg15
(lp33
sg17
(lp34
sg19
(lp35
sg21
I0
sba(iArchitecture
Entity
p36
(dp37
g11
(lp38
sg13
S'android.app.SharedPreferencesImpl$EditorImpl'
p39
sg15
(lp40
sg17
(lp41
sg19
(lp42
sg21
I0
sba(iArchitecture
Entity
p43
(dp44
g11
(lp45
sg13
S'android.app.SharedPreferencesImpl$EditorImpl$1'
p46
sg15
(lp47
sg17
(lp48
sg19
(lp49
sg21
I0
sba(iArchitecture
Entity
p50
(dp51
g11
(lp52
sg13
S'android.app.SharedPreferencesImpl$EditorImpl$2'
p53
sg15
(lp54
sg17
(lp55
sg19
(lp56
sg21
I0
sba(iArchitecture
Entity
p57
(dp58
g11
(lp59
sg13
S'android.app.SharedPreferencesImpl$EditorImpl$3'
p60
sg15
(lp61
sg17
(lp62
sg19
(lp63
sg21
I0
sba(iArchitecture
Entity
p64
(dp65
g11
(lp66
sg13
S'android.app.SharedPreferencesImpl$MemoryCommitResult'
p67
sg15
(lp68
sg17
(lp69
sg19
(lp70
sg21
I0
sbasS'classes'
p71
(lp72
g14
ag25
ag32
ag39
ag46
ag53
ag60
ag67
asg21
I0
sS'label'
p73
S'1047'
p74
sba(iArchitecture
Cluster
p75
(dp76
g7
(lp77
(iArchitecture
Entity
p78
(dp79
g11
(lp80
sg13
S'android.location.LocationProvider'
p81
sg15
(lp82
sg17
(lp83
sg19
(lp84
sg21
I0
sba(iArchitecture
Entity
p85
(dp86
g11
(lp87
sg13
S'com.android.internal.location.ProviderProperties'
p88
sg15
(lp89
sg17
(lp90
sg19
(lp91
sg21
I0
sba(iArchitecture
Entity
p92
(dp93
g11
(lp94
sg13
S'com.android.internal.location.ProviderProperties$1'
p95
sg15
(lp96
sg17
(lp97
sg19
(lp98
sg21
I0
sbasg71
(lp99
g81
ag88
ag95
asg21
I0
sg73
S'1147'
p100
sba(iArchitecture
Cluster
p101
(dp102
g7
(lp103
(iArchitecture
Entity
p104
(dp105
g11
(lp106
sg13
S'android.opengl.EGLObjectHandle'
p107
sg15
(lp108
sg17
(lp109
sg19
(lp110
sg21
I0
sba(iArchitecture
Entity
p111
(dp112
g11
(lp113
sg13
S'com.android.server.notification.RankingConfig'
p114
sg15
(lp115
sg17
(lp116
sg19
(lp117
sg21
I0
sbasg71
(lp118
g107
ag114
asg21
I0
sg73
S'1247'
p119
sba(iArchitecture
Cluster
p120
(dp121
g7
(lp122
(iArchitecture
Entity
p123
(dp124
g11
(lp125
sg13
S'android.hardware.camera2.utils.ArrayUtils'
p126
sg15
(lp127
sg17
(lp128
sg19
(lp129
sg21
I0
sbasg71
(lp130
g126
asg21
I0
sg73
S'147'
p131
sba(iArchitecture
Cluster
p132
(dp133
g7
(lp134
(iArchitecture
Entity
p135
(dp136
g11
(lp137
sg13
S'android.bluetooth.BluetoothAssignedNumbers'
p138
sg15
(lp139
sg17
(lp140
sg19
(lp141
sg21
I0
sbasg71
(lp142
g138
asg21
I0
sg73
S'247'
p143
sba(iArchitecture
Cluster
p144
(dp145
g7
(lp146
(iArchitecture
Entity
p147
(dp148
g11
(lp149
sg13
S'android.util.Rational'
p150
sg15
(lp151
sg17
(lp152
sg19
(lp153
sg21
I0
sbasg71
(lp154
g150
asg21
I0
sg73
S'347'
p155
sba(iArchitecture
Cluster
p156
(dp157
g7
(lp158
(iArchitecture
Entity
p159
(dp160
g11
(lp161
sg13
S'android.media.AudioFormat'
p162
sg15
(lp163
sg17
(lp164
sg19
(lp165
sg21
I0
sba(iArchitecture
Entity
p166
(dp167
g11
(lp168
sg13
S'android.media.AudioFormat$Builder'
p169
sg15
(lp170
sg17
(lp171
sg19
(lp172
sg21
I0
sbasg71
(lp173
g162
ag169
asg21
I0
sg73
S'447'
p174
sba(iArchitecture
Cluster
p175
(dp176
g7
(lp177
(iArchitecture
Entity
p178
(dp179
g11
(lp180
sg13
S'android.hardware.camera2.params.BlackLevelPattern'
p181
sg15
(lp182
sg17
(lp183
sg19
(lp184
sg21
I0
sbasg71
(lp185
g181
asg21
I0
sg73
S'47'
p186
sba(iArchitecture
Cluster
p187
(dp188
g7
(lp189
(iArchitecture
Entity
p190
(dp191
g11
(lp192
sg13
S'android.view.InputFilter'
p193
sg15
(lp194
sg17
(lp195
sg19
(lp196
sg21
I0
sba(iArchitecture
Entity
p197
(dp198
g11
(lp199
sg13
S'android.view.InputFilter$H'
p200
sg15
(lp201
sg17
(lp202
sg19
(lp203
sg21
I0
sbasg71
(lp204
g193
ag200
asg21
I0
sg73
S'470'
p205
sba(iArchitecture
Cluster
p206
(dp207
g7
(lp208
(iArchitecture
Entity
p209
(dp210
g11
(lp211
sg13
S'com.android.server.tv.TvInputHal'
p212
sg15
(lp213
sg17
(lp214
sg19
(lp215
sg21
I0
sba(iArchitecture
Entity
p216
(dp217
g11
(lp218
sg13
S'com.android.server.tv.TvInputHal$Callback'
p219
sg15
(lp220
sg17
(lp221
sg19
(lp222
sg21
I0
sbasg71
(lp223
g212
ag219
asg21
I0
sg73
S'471'
p224
sba(iArchitecture
Cluster
p225
(dp226
g7
(lp227
(iArchitecture
Entity
p228
(dp229
g11
(lp230
sg13
S'android.content.res.Configuration'
p231
sg15
(lp232
sg17
(lp233
sg19
(lp234
sg21
I0
sba(iArchitecture
Entity
p235
(dp236
g11
(lp237
sg13
S'android.content.res.Configuration$1'
p238
sg15
(lp239
sg17
(lp240
sg19
(lp241
sg21
I0
sbasg71
(lp242
g231
ag238
asg21
I0
sg73
S'472'
p243
sba(iArchitecture
Cluster
p244
(dp245
g7
(lp246
(iArchitecture
Entity
p247
(dp248
g11
(lp249
sg13
S'android.hardware.camera2.legacy.LegacyExceptionUtils'
p250
sg15
(lp251
sg17
(lp252
sg19
(lp253
sg21
I0
sba(iArchitecture
Entity
p254
(dp255
g11
(lp256
sg13
S'android.hardware.camera2.legacy.LegacyExceptionUtils$BufferQueueAbandonedException'
p257
sg15
(lp258
sg17
(lp259
sg19
(lp260
sg21
I0
sbasg71
(lp261
g250
ag257
asg21
I0
sg73
S'473'
p262
sba(iArchitecture
Cluster
p263
(dp264
g7
(lp265
(iArchitecture
Entity
p266
(dp267
g11
(lp268
sg13
S'com.android.server.location.ActivityRecognitionProxy'
p269
sg15
(lp270
sg17
(lp271
sg19
(lp272
sg21
I0
sba(iArchitecture
Entity
p273
(dp274
g11
(lp275
sg13
S'com.android.server.location.ActivityRecognitionProxy$1'
p276
sg15
(lp277
sg17
(lp278
sg19
(lp279
sg21
I0
sbasg71
(lp280
g269
ag276
asg21
I0
sg73
S'474'
p281
sba(iArchitecture
Cluster
p282
(dp283
g7
(lp284
(iArchitecture
Entity
p285
(dp286
g11
(lp287
sg13
S'com.android.internal.os.KernelUidCpuTimeReader'
p288
sg15
(lp289
sg17
(lp290
sg19
(lp291
sg21
I0
sba(iArchitecture
Entity
p292
(dp293
g11
(lp294
sg13
S'com.android.internal.os.KernelUidCpuTimeReader$Callback'
p295
sg15
(lp296
sg17
(lp297
sg19
(lp298
sg21
I0
sbasg71
(lp299
g288
ag295
asg21
I0
sg73
S'475'
p300
sba(iArchitecture
Cluster
p301
(dp302
g7
(lp303
(iArchitecture
Entity
p304
(dp305
g11
(lp306
sg13
S'com.android.server.net.LockdownVpnTracker'
p307
sg15
(lp308
sg17
(lp309
sg19
(lp310
sg21
I0
sba(iArchitecture
Entity
p311
(dp312
g11
(lp313
sg13
S'com.android.server.net.LockdownVpnTracker$1'
p314
sg15
(lp315
sg17
(lp316
sg19
(lp317
sg21
I0
sbasg71
(lp318
g307
ag314
asg21
I0
sg73
S'476'
p319
sba(iArchitecture
Cluster
p320
(dp321
g7
(lp322
(iArchitecture
Entity
p323
(dp324
g11
(lp325
sg13
S'android.hardware.camera2.marshal.impl.MarshalQueryableArray'
p326
sg15
(lp327
sg17
(lp328
sg19
(lp329
sg21
I0
sba(iArchitecture
Entity
p330
(dp331
g11
(lp332
sg13
S'android.hardware.camera2.marshal.impl.MarshalQueryableArray$MarshalerArray'
p333
sg15
(lp334
sg17
(lp335
sg19
(lp336
sg21
I0
sbasg71
(lp337
g326
ag333
asg21
I0
sg73
S'477'
p338
sba(iArchitecture
Cluster
p339
(dp340
g7
(lp341
(iArchitecture
Entity
p342
(dp343
g11
(lp344
sg13
S'com.android.internal.logging.AndroidHandler'
p345
sg15
(lp346
sg17
(lp347
sg19
(lp348
sg21
I0
sba(iArchitecture
Entity
p349
(dp350
g11
(lp351
sg13
S'com.android.internal.logging.AndroidHandler$1'
p352
sg15
(lp353
sg17
(lp354
sg19
(lp355
sg21
I0
sbasg71
(lp356
g345
ag352
asg21
I0
sg73
S'478'
p357
sba(iArchitecture
Cluster
p358
(dp359
g7
(lp360
(iArchitecture
Entity
p361
(dp362
g11
(lp363
sg13
S'com.android.server.net.NetworkStatsCollection'
p364
sg15
(lp365
sg17
(lp366
sg19
(lp367
sg21
I0
sba(iArchitecture
Entity
p368
(dp369
g11
(lp370
sg13
S'com.android.server.net.NetworkStatsCollection$Key'
p371
sg15
(lp372
sg17
(lp373
sg19
(lp374
sg21
I0
sbasg71
(lp375
g364
ag371
asg21
I0
sg73
S'479'
p376
sba(iArchitecture
Cluster
p377
(dp378
g7
(lp379
(iArchitecture
Entity
p380
(dp381
g11
(lp382
sg13
S'android.location.Geofence'
p383
sg15
(lp384
sg17
(lp385
sg19
(lp386
sg21
I0
sba(iArchitecture
Entity
p387
(dp388
g11
(lp389
sg13
S'android.location.Geofence$1'
p390
sg15
(lp391
sg17
(lp392
sg19
(lp393
sg21
I0
sbasg71
(lp394
g383
ag390
asg21
I0
sg73
S'547'
p395
sba(iArchitecture
Cluster
p396
(dp397
g7
(lp398
(iArchitecture
Entity
p399
(dp400
g11
(lp401
sg13
S'android.telecom.ConnectionRequest'
p402
sg15
(lp403
sg17
(lp404
sg19
(lp405
sg21
I0
sba(iArchitecture
Entity
p406
(dp407
g11
(lp408
sg13
S'android.telecom.ConnectionRequest$1'
p409
sg15
(lp410
sg17
(lp411
sg19
(lp412
sg21
I0
sbasg71
(lp413
g402
ag409
asg21
I0
sg73
S'647'
p414
sba(iArchitecture
Cluster
p415
(dp416
g7
(lp417
(iArchitecture
Entity
p418
(dp419
g11
(lp420
sg13
S'com.android.internal.widget.PointerLocationView'
p421
sg15
(lp422
sg17
(lp423
sg19
(lp424
sg21
I0
sba(iArchitecture
Entity
p425
(dp426
g11
(lp427
sg13
S'com.android.internal.widget.PointerLocationView$FasterStringBuilder'
p428
sg15
(lp429
sg17
(lp430
sg19
(lp431
sg21
I0
sba(iArchitecture
Entity
p432
(dp433
g11
(lp434
sg13
S'com.android.internal.widget.PointerLocationView$PointerState'
p435
sg15
(lp436
sg17
(lp437
sg19
(lp438
sg21
I0
sbasg71
(lp439
g421
ag428
ag435
asg21
I0
sg73
S'747'
p440
sba(iArchitecture
Cluster
p441
(dp442
g7
(lp443
(iArchitecture
Entity
p444
(dp445
g11
(lp446
sg13
S'android.content.SyncRequest'
p447
sg15
(lp448
sg17
(lp449
sg19
(lp450
sg21
I0
sba(iArchitecture
Entity
p451
(dp452
g11
(lp453
sg13
S'android.content.SyncRequest$1'
p454
sg15
(lp455
sg17
(lp456
sg19
(lp457
sg21
I0
sba(iArchitecture
Entity
p458
(dp459
g11
(lp460
sg13
S'android.content.SyncRequest$Builder'
p461
sg15
(lp462
sg17
(lp463
sg19
(lp464
sg21
I0
sbasg71
(lp465
g447
ag454
ag461
asg21
I0
sg73
S'847'
p466
sba(iArchitecture
Cluster
p467
(dp468
g7
(lp469
(iArchitecture
Entity
p470
(dp471
g11
(lp472
sg13
S'android.view.ViewPropertyAnimator'
p473
sg15
(lp474
sg17
(lp475
sg19
(lp476
sg21
I0
sba(iArchitecture
Entity
p477
(dp478
g11
(lp479
sg13
S'android.view.ViewPropertyAnimator$1'
p480
sg15
(lp481
sg17
(lp482
sg19
(lp483
sg21
I0
sba(iArchitecture
Entity
p484
(dp485
g11
(lp486
sg13
S'android.view.ViewPropertyAnimator$2'
p487
sg15
(lp488
sg17
(lp489
sg19
(lp490
sg21
I0
sba(iArchitecture
Entity
p491
(dp492
g11
(lp493
sg13
S'android.view.ViewPropertyAnimator$3'
p494
sg15
(lp495
sg17
(lp496
sg19
(lp497
sg21
I0
sba(iArchitecture
Entity
p498
(dp499
g11
(lp500
sg13
S'android.view.ViewPropertyAnimator$AnimatorEventListener'
p501
sg15
(lp502
sg17
(lp503
sg19
(lp504
sg21
I0
sba(iArchitecture
Entity
p505
(dp506
g11
(lp507
sg13
S'android.view.ViewPropertyAnimator$NameValuesHolder'
p508
sg15
(lp509
sg17
(lp510
sg19
(lp511
sg21
I0
sba(iArchitecture
Entity
p512
(dp513
g11
(lp514
sg13
S'android.view.ViewPropertyAnimator$PropertyBundle'
p515
sg15
(lp516
sg17
(lp517
sg19
(lp518
sg21
I0
sbasg71
(lp519
g473
ag480
ag487
ag494
ag501
ag508
ag515
asg21
I0
sg73
S'947'
p520
sbasS'target_sub'
p521
S'47'
p522
sg71
(lp523
sS'is_component_arch'
p524
I01
sg73
S'6.0.0_r1'
p525
sba.