(lp0
(iArchitecture
Architecture
p1
(dp2
S'clusters'
p3
(lp4
(iArchitecture
Cluster
p5
(dp6
S'entities'
p7
(lp8
(iArchitecture
Entity
p9
(dp10
S'issue_ids'
p11
(lp12
sS'name'
p13
S'android.security.keystore.AndroidKeyStoreRSASignatureSpi'
p14
sS'descs'
p15
(lp16
sS'labels'
p17
(lp18
sS'titles'
p19
(lp20
sS'change'
p21
I0
sba(iArchitecture
Entity
p22
(dp23
g11
(lp24
sg13
S'android.security.keystore.AndroidKeyStoreRSASignatureSpi$MD5WithPKCS1Padding'
p25
sg15
(lp26
sg17
(lp27
sg19
(lp28
sg21
I0
sba(iArchitecture
Entity
p29
(dp30
g11
(lp31
sg13
S'android.security.keystore.AndroidKeyStoreRSASignatureSpi$NONEWithPKCS1Padding'
p32
sg15
(lp33
sg17
(lp34
sg19
(lp35
sg21
I0
sba(iArchitecture
Entity
p36
(dp37
g11
(lp38
sg13
S'android.security.keystore.AndroidKeyStoreRSASignatureSpi$PKCS1Padding'
p39
sg15
(lp40
sg17
(lp41
sg19
(lp42
sg21
I0
sba(iArchitecture
Entity
p43
(dp44
g11
(lp45
sg13
S'android.security.keystore.AndroidKeyStoreRSASignatureSpi$PSSPadding'
p46
sg15
(lp47
sg17
(lp48
sg19
(lp49
sg21
I0
sba(iArchitecture
Entity
p50
(dp51
g11
(lp52
sg13
S'android.security.keystore.AndroidKeyStoreRSASignatureSpi$SHA1WithPKCS1Padding'
p53
sg15
(lp54
sg17
(lp55
sg19
(lp56
sg21
I0
sba(iArchitecture
Entity
p57
(dp58
g11
(lp59
sg13
S'android.security.keystore.AndroidKeyStoreRSASignatureSpi$SHA1WithPSSPadding'
p60
sg15
(lp61
sg17
(lp62
sg19
(lp63
sg21
I0
sba(iArchitecture
Entity
p64
(dp65
g11
(lp66
sg13
S'android.security.keystore.AndroidKeyStoreRSASignatureSpi$SHA224WithPKCS1Padding'
p67
sg15
(lp68
sg17
(lp69
sg19
(lp70
sg21
I0
sba(iArchitecture
Entity
p71
(dp72
g11
(lp73
sg13
S'android.security.keystore.AndroidKeyStoreRSASignatureSpi$SHA224WithPSSPadding'
p74
sg15
(lp75
sg17
(lp76
sg19
(lp77
sg21
I0
sba(iArchitecture
Entity
p78
(dp79
g11
(lp80
sg13
S'android.security.keystore.AndroidKeyStoreRSASignatureSpi$SHA256WithPKCS1Padding'
p81
sg15
(lp82
sg17
(lp83
sg19
(lp84
sg21
I0
sba(iArchitecture
Entity
p85
(dp86
g11
(lp87
sg13
S'android.security.keystore.AndroidKeyStoreRSASignatureSpi$SHA256WithPSSPadding'
p88
sg15
(lp89
sg17
(lp90
sg19
(lp91
sg21
I0
sba(iArchitecture
Entity
p92
(dp93
g11
(lp94
sg13
S'android.security.keystore.AndroidKeyStoreRSASignatureSpi$SHA384WithPKCS1Padding'
p95
sg15
(lp96
sg17
(lp97
sg19
(lp98
sg21
I0
sba(iArchitecture
Entity
p99
(dp100
g11
(lp101
sg13
S'android.security.keystore.AndroidKeyStoreRSASignatureSpi$SHA384WithPSSPadding'
p102
sg15
(lp103
sg17
(lp104
sg19
(lp105
sg21
I0
sba(iArchitecture
Entity
p106
(dp107
g11
(lp108
sg13
S'android.security.keystore.AndroidKeyStoreRSASignatureSpi$SHA512WithPKCS1Padding'
p109
sg15
(lp110
sg17
(lp111
sg19
(lp112
sg21
I0
sba(iArchitecture
Entity
p113
(dp114
g11
(lp115
sg13
S'android.security.keystore.AndroidKeyStoreRSASignatureSpi$SHA512WithPSSPadding'
p116
sg15
(lp117
sg17
(lp118
sg19
(lp119
sg21
I0
sbasS'classes'
p120
(lp121
g14
ag25
ag32
ag39
ag46
ag53
ag60
ag67
ag74
ag81
ag88
ag95
ag102
ag109
ag116
asg21
I0
sS'label'
p122
S'1084'
p123
sba(iArchitecture
Cluster
p124
(dp125
g7
(lp126
(iArchitecture
Entity
p127
(dp128
g11
(lp129
sg13
S'android.view.ViewGroupOverlay'
p130
sg15
(lp131
sg17
(lp132
sg19
(lp133
sg21
I0
sba(iArchitecture
Entity
p134
(dp135
g11
(lp136
sg13
S'android.webkit.WebViewFragment'
p137
sg15
(lp138
sg17
(lp139
sg19
(lp140
sg21
I0
sbasg120
(lp141
g130
ag137
asg21
I0
sg122
S'1184'
p142
sba(iArchitecture
Cluster
p143
(dp144
g7
(lp145
(iArchitecture
Entity
p146
(dp147
g11
(lp148
sg13
S'android.text.TextPaint'
p149
sg15
(lp150
sg17
(lp151
sg19
(lp152
sg21
I0
sbasg120
(lp153
g149
asg21
I0
sg122
S'184'
p154
sba(iArchitecture
Cluster
p155
(dp156
g7
(lp157
(iArchitecture
Entity
p158
(dp159
g11
(lp160
sg13
S'android.security.keystore.DelegatingX509Certificate'
p161
sg15
(lp162
sg17
(lp163
sg19
(lp164
sg21
I0
sbasg120
(lp165
g161
asg21
I0
sg122
S'284'
p166
sba(iArchitecture
Cluster
p167
(dp168
g7
(lp169
(iArchitecture
Entity
p170
(dp171
g11
(lp172
sg13
S'com.android.server.hdmi.HdmiMhlLocalDeviceStub'
p173
sg15
(lp174
sg17
(lp175
sg19
(lp176
sg21
I0
sbasg120
(lp177
g173
asg21
I0
sg122
S'384'
p178
sba(iArchitecture
Cluster
p179
(dp180
g7
(lp181
(iArchitecture
Entity
p182
(dp183
g11
(lp184
sg13
S'android.app.admin.DevicePolicyManagerInternal'
p185
sg15
(lp186
sg17
(lp187
sg19
(lp188
sg21
I0
sba(iArchitecture
Entity
p189
(dp190
g11
(lp191
sg13
S'android.app.admin.DevicePolicyManagerInternal$OnCrossProfileWidgetProvidersChangeListener'
p192
sg15
(lp193
sg17
(lp194
sg19
(lp195
sg21
I0
sbasg120
(lp196
g185
ag192
asg21
I0
sg122
S'484'
p197
sba(iArchitecture
Cluster
p198
(dp199
g7
(lp200
(iArchitecture
Entity
p201
(dp202
g11
(lp203
sg13
S'android.os.PerformanceCollector'
p204
sg15
(lp205
sg17
(lp206
sg19
(lp207
sg21
I0
sba(iArchitecture
Entity
p208
(dp209
g11
(lp210
sg13
S'android.os.PerformanceCollector$PerformanceResultsWriter'
p211
sg15
(lp212
sg17
(lp213
sg19
(lp214
sg21
I0
sbasg120
(lp215
g204
ag211
asg21
I0
sg122
S'584'
p216
sba(iArchitecture
Cluster
p217
(dp218
g7
(lp219
(iArchitecture
Entity
p220
(dp221
g11
(lp222
sg13
S'android.text.DynamicLayout'
p223
sg15
(lp224
sg17
(lp225
sg19
(lp226
sg21
I0
sba(iArchitecture
Entity
p227
(dp228
g11
(lp229
sg13
S'android.text.DynamicLayout$ChangeWatcher'
p230
sg15
(lp231
sg17
(lp232
sg19
(lp233
sg21
I0
sbasg120
(lp234
g223
ag230
asg21
I0
sg122
S'684'
p235
sba(iArchitecture
Cluster
p236
(dp237
g7
(lp238
(iArchitecture
Entity
p239
(dp240
g11
(lp241
sg13
S'android.transition.Crossfade'
p242
sg15
(lp243
sg17
(lp244
sg19
(lp245
sg21
I0
sba(iArchitecture
Entity
p246
(dp247
g11
(lp248
sg13
S'android.transition.Crossfade$1'
p249
sg15
(lp250
sg17
(lp251
sg19
(lp252
sg21
I0
sba(iArchitecture
Entity
p253
(dp254
g11
(lp255
sg13
S'android.transition.Crossfade$2'
p256
sg15
(lp257
sg17
(lp258
sg19
(lp259
sg21
I0
sbasg120
(lp260
g242
ag249
ag256
asg21
I0
sg122
S'784'
p261
sba(iArchitecture
Cluster
p262
(dp263
g7
(lp264
(iArchitecture
Entity
p265
(dp266
g11
(lp267
sg13
S'android.database.DefaultDatabaseErrorHandler'
p268
sg15
(lp269
sg17
(lp270
sg19
(lp271
sg21
I0
sbasg120
(lp272
g268
asg21
I0
sg122
S'84'
p273
sba(iArchitecture
Cluster
p274
(dp275
g7
(lp276
(iArchitecture
Entity
p277
(dp278
g11
(lp279
sg13
S'android.media.EncoderCapabilities'
p280
sg15
(lp281
sg17
(lp282
sg19
(lp283
sg21
I0
sba(iArchitecture
Entity
p284
(dp285
g11
(lp286
sg13
S'android.media.EncoderCapabilities$AudioEncoderCap'
p287
sg15
(lp288
sg17
(lp289
sg19
(lp290
sg21
I0
sba(iArchitecture
Entity
p291
(dp292
g11
(lp293
sg13
S'android.media.EncoderCapabilities$VideoEncoderCap'
p294
sg15
(lp295
sg17
(lp296
sg19
(lp297
sg21
I0
sbasg120
(lp298
g280
ag287
ag294
asg21
I0
sg122
S'840'
p299
sba(iArchitecture
Cluster
p300
(dp301
g7
(lp302
(iArchitecture
Entity
p303
(dp304
g11
(lp305
sg13
S'com.android.internal.app.DumpHeapActivity'
p306
sg15
(lp307
sg17
(lp308
sg19
(lp309
sg21
I0
sba(iArchitecture
Entity
p310
(dp311
g11
(lp312
sg13
S'com.android.internal.app.DumpHeapActivity$1'
p313
sg15
(lp314
sg17
(lp315
sg19
(lp316
sg21
I0
sba(iArchitecture
Entity
p317
(dp318
g11
(lp319
sg13
S'com.android.internal.app.DumpHeapActivity$2'
p320
sg15
(lp321
sg17
(lp322
sg19
(lp323
sg21
I0
sbasg120
(lp324
g306
ag313
ag320
asg21
I0
sg122
S'841'
p325
sba(iArchitecture
Cluster
p326
(dp327
g7
(lp328
(iArchitecture
Entity
p329
(dp330
g11
(lp331
sg13
S'android.webkit.Plugin'
p332
sg15
(lp333
sg17
(lp334
sg19
(lp335
sg21
I0
sba(iArchitecture
Entity
p336
(dp337
g11
(lp338
sg13
S'android.webkit.Plugin$DefaultClickHandler'
p339
sg15
(lp340
sg17
(lp341
sg19
(lp342
sg21
I0
sba(iArchitecture
Entity
p343
(dp344
g11
(lp345
sg13
S'android.webkit.Plugin$PreferencesClickHandler'
p346
sg15
(lp347
sg17
(lp348
sg19
(lp349
sg21
I0
sbasg120
(lp350
g332
ag339
ag346
asg21
I0
sg122
S'842'
p351
sba(iArchitecture
Cluster
p352
(dp353
g7
(lp354
(iArchitecture
Entity
p355
(dp356
g11
(lp357
sg13
S'com.android.internal.midi.EventScheduler'
p358
sg15
(lp359
sg17
(lp360
sg19
(lp361
sg21
I0
sba(iArchitecture
Entity
p362
(dp363
g11
(lp364
sg13
S'com.android.internal.midi.EventScheduler$FastEventQueue'
p365
sg15
(lp366
sg17
(lp367
sg19
(lp368
sg21
I0
sba(iArchitecture
Entity
p369
(dp370
g11
(lp371
sg13
S'com.android.internal.midi.EventScheduler$SchedulableEvent'
p372
sg15
(lp373
sg17
(lp374
sg19
(lp375
sg21
I0
sbasg120
(lp376
g358
ag365
ag372
asg21
I0
sg122
S'843'
p377
sba(iArchitecture
Cluster
p378
(dp379
g7
(lp380
(iArchitecture
Entity
p381
(dp382
g11
(lp383
sg13
S'android.renderscript.Font'
p384
sg15
(lp385
sg17
(lp386
sg19
(lp387
sg21
I0
sba(iArchitecture
Entity
p388
(dp389
g11
(lp390
sg13
S'android.renderscript.Font$FontFamily'
p391
sg15
(lp392
sg17
(lp393
sg19
(lp394
sg21
I0
sba(iArchitecture
Entity
p395
(dp396
g11
(lp397
sg13
S'android.renderscript.Font$Style'
p398
sg15
(lp399
sg17
(lp400
sg19
(lp401
sg21
I0
sbasg120
(lp402
g384
ag391
ag398
asg21
I0
sg122
S'844'
p403
sba(iArchitecture
Cluster
p404
(dp405
g7
(lp406
(iArchitecture
Entity
p407
(dp408
g11
(lp409
sg13
S'android.app.DatePickerDialog'
p410
sg15
(lp411
sg17
(lp412
sg19
(lp413
sg21
I0
sba(iArchitecture
Entity
p414
(dp415
g11
(lp416
sg13
S'android.app.DatePickerDialog$1'
p417
sg15
(lp418
sg17
(lp419
sg19
(lp420
sg21
I0
sba(iArchitecture
Entity
p421
(dp422
g11
(lp423
sg13
S'android.app.DatePickerDialog$OnDateSetListener'
p424
sg15
(lp425
sg17
(lp426
sg19
(lp427
sg21
I0
sbasg120
(lp428
g410
ag417
ag424
asg21
I0
sg122
S'845'
p429
sba(iArchitecture
Cluster
p430
(dp431
g7
(lp432
(iArchitecture
Entity
p433
(dp434
g11
(lp435
sg13
S'android.net.UrlQuerySanitizer'
p436
sg15
(lp437
sg17
(lp438
sg19
(lp439
sg21
I0
sba(iArchitecture
Entity
p440
(dp441
g11
(lp442
sg13
S'android.net.UrlQuerySanitizer$IllegalCharacterValueSanitizer'
p443
sg15
(lp444
sg17
(lp445
sg19
(lp446
sg21
I0
sba(iArchitecture
Entity
p447
(dp448
g11
(lp449
sg13
S'android.net.UrlQuerySanitizer$ParameterValuePair'
p450
sg15
(lp451
sg17
(lp452
sg19
(lp453
sg21
I0
sba(iArchitecture
Entity
p454
(dp455
g11
(lp456
sg13
S'android.net.UrlQuerySanitizer$ValueSanitizer'
p457
sg15
(lp458
sg17
(lp459
sg19
(lp460
sg21
I0
sbasg120
(lp461
g436
ag443
ag450
ag457
asg21
I0
sg122
S'846'
p462
sba(iArchitecture
Cluster
p463
(dp464
g7
(lp465
(iArchitecture
Entity
p466
(dp467
g11
(lp468
sg13
S'android.content.SyncRequest'
p469
sg15
(lp470
sg17
(lp471
sg19
(lp472
sg21
I0
sba(iArchitecture
Entity
p473
(dp474
g11
(lp475
sg13
S'android.content.SyncRequest$1'
p476
sg15
(lp477
sg17
(lp478
sg19
(lp479
sg21
I0
sba(iArchitecture
Entity
p480
(dp481
g11
(lp482
sg13
S'android.content.SyncRequest$Builder'
p483
sg15
(lp484
sg17
(lp485
sg19
(lp486
sg21
I0
sbasg120
(lp487
g469
ag476
ag483
asg21
I0
sg122
S'847'
p488
sba(iArchitecture
Cluster
p489
(dp490
g7
(lp491
(iArchitecture
Entity
p492
(dp493
g11
(lp494
sg13
S'android.view.RenderNodeAnimator'
p495
sg15
(lp496
sg17
(lp497
sg19
(lp498
sg21
I0
sba(iArchitecture
Entity
p499
(dp500
g11
(lp501
sg13
S'android.view.RenderNodeAnimator$1'
p502
sg15
(lp503
sg17
(lp504
sg19
(lp505
sg21
I0
sba(iArchitecture
Entity
p506
(dp507
g11
(lp508
sg13
S'android.view.RenderNodeAnimator$DelayedAnimationHelper'
p509
sg15
(lp510
sg17
(lp511
sg19
(lp512
sg21
I0
sbasg120
(lp513
g495
ag502
ag509
asg21
I0
sg122
S'848'
p514
sba(iArchitecture
Cluster
p515
(dp516
g7
(lp517
(iArchitecture
Entity
p518
(dp519
g11
(lp520
sg13
S'com.android.internal.util.XmlUtils'
p521
sg15
(lp522
sg17
(lp523
sg19
(lp524
sg21
I0
sba(iArchitecture
Entity
p525
(dp526
g11
(lp527
sg13
S'com.android.internal.util.XmlUtils$ReadMapCallback'
p528
sg15
(lp529
sg17
(lp530
sg19
(lp531
sg21
I0
sba(iArchitecture
Entity
p532
(dp533
g11
(lp534
sg13
S'com.android.internal.util.XmlUtils$WriteMapCallback'
p535
sg15
(lp536
sg17
(lp537
sg19
(lp538
sg21
I0
sbasg120
(lp539
g521
ag528
ag535
asg21
I0
sg122
S'849'
p540
sba(iArchitecture
Cluster
p541
(dp542
g7
(lp543
(iArchitecture
Entity
p544
(dp545
g11
(lp546
sg13
S'com.android.server.power.WirelessChargerDetector'
p547
sg15
(lp548
sg17
(lp549
sg19
(lp550
sg21
I0
sba(iArchitecture
Entity
p551
(dp552
g11
(lp553
sg13
S'com.android.server.power.WirelessChargerDetector$1'
p554
sg15
(lp555
sg17
(lp556
sg19
(lp557
sg21
I0
sba(iArchitecture
Entity
p558
(dp559
g11
(lp560
sg13
S'com.android.server.power.WirelessChargerDetector$2'
p561
sg15
(lp562
sg17
(lp563
sg19
(lp564
sg21
I0
sbasg120
(lp565
g547
ag554
ag561
asg21
I0
sg122
S'884'
p566
sba(iArchitecture
Cluster
p567
(dp568
g7
(lp569
(iArchitecture
Entity
p570
(dp571
g11
(lp572
sg13
S'android.media.TimedText'
p573
sg15
(lp574
sg17
(lp575
sg19
(lp576
sg21
I0
sba(iArchitecture
Entity
p577
(dp578
g11
(lp579
sg13
S'android.media.TimedText$CharPos'
p580
sg15
(lp581
sg17
(lp582
sg19
(lp583
sg21
I0
sba(iArchitecture
Entity
p584
(dp585
g11
(lp586
sg13
S'android.media.TimedText$Font'
p587
sg15
(lp588
sg17
(lp589
sg19
(lp590
sg21
I0
sba(iArchitecture
Entity
p591
(dp592
g11
(lp593
sg13
S'android.media.TimedText$HyperText'
p594
sg15
(lp595
sg17
(lp596
sg19
(lp597
sg21
I0
sba(iArchitecture
Entity
p598
(dp599
g11
(lp600
sg13
S'android.media.TimedText$Justification'
p601
sg15
(lp602
sg17
(lp603
sg19
(lp604
sg21
I0
sba(iArchitecture
Entity
p605
(dp606
g11
(lp607
sg13
S'android.media.TimedText$Karaoke'
p608
sg15
(lp609
sg17
(lp610
sg19
(lp611
sg21
I0
sba(iArchitecture
Entity
p612
(dp613
g11
(lp614
sg13
S'android.media.TimedText$Style'
p615
sg15
(lp616
sg17
(lp617
sg19
(lp618
sg21
I0
sbasg120
(lp619
g573
ag580
ag587
ag594
ag601
ag608
ag615
asg21
I0
sg122
S'984'
p620
sbasS'target_sub'
p621
S'84'
p622
sg120
(lp623
sS'is_component_arch'
p624
I01
sg122
S'6.0.0_r1'
p625
sba.