(lp0
(iArchitecture
Architecture
p1
(dp2
S'clusters'
p3
(lp4
(iArchitecture
Cluster
p5
(dp6
S'entities'
p7
(lp8
(iArchitecture
Entity
p9
(dp10
S'issue_ids'
p11
(lp12
sS'name'
p13
S'com.android.server.display.OverlayDisplayAdapter'
p14
sS'descs'
p15
(lp16
sS'labels'
p17
(lp18
sS'titles'
p19
(lp20
sS'change'
p21
I0
sba(iArchitecture
Entity
p22
(dp23
g11
(lp24
sg13
S'com.android.server.display.OverlayDisplayAdapter$1'
p25
sg15
(lp26
sg17
(lp27
sg19
(lp28
sg21
I0
sba(iArchitecture
Entity
p29
(dp30
g11
(lp31
sg13
S'com.android.server.display.OverlayDisplayAdapter$1$1'
p32
sg15
(lp33
sg17
(lp34
sg19
(lp35
sg21
I0
sba(iArchitecture
Entity
p36
(dp37
g11
(lp38
sg13
S'com.android.server.display.OverlayDisplayAdapter$OverlayDisplayDevice'
p39
sg15
(lp40
sg17
(lp41
sg19
(lp42
sg21
I0
sba(iArchitecture
Entity
p43
(dp44
g11
(lp45
sg13
S'com.android.server.display.OverlayDisplayAdapter$OverlayDisplayHandle'
p46
sg15
(lp47
sg17
(lp48
sg19
(lp49
sg21
I0
sba(iArchitecture
Entity
p50
(dp51
g11
(lp52
sg13
S'com.android.server.display.OverlayDisplayAdapter$OverlayDisplayHandle$1'
p53
sg15
(lp54
sg17
(lp55
sg19
(lp56
sg21
I0
sba(iArchitecture
Entity
p57
(dp58
g11
(lp59
sg13
S'com.android.server.display.OverlayDisplayAdapter$OverlayDisplayHandle$2'
p60
sg15
(lp61
sg17
(lp62
sg19
(lp63
sg21
I0
sba(iArchitecture
Entity
p64
(dp65
g11
(lp66
sg13
S'com.android.server.display.OverlayDisplayAdapter$OverlayDisplayHandle$3'
p67
sg15
(lp68
sg17
(lp69
sg19
(lp70
sg21
I0
sba(iArchitecture
Entity
p71
(dp72
g11
(lp73
sg13
S'com.android.server.display.OverlayDisplayAdapter$OverlayDisplayHandle$4'
p74
sg15
(lp75
sg17
(lp76
sg19
(lp77
sg21
I0
sba(iArchitecture
Entity
p78
(dp79
g11
(lp80
sg13
S'com.android.server.display.OverlayDisplayAdapter$OverlayMode'
p81
sg15
(lp82
sg17
(lp83
sg19
(lp84
sg21
I0
sbasS'classes'
p85
(lp86
g14
ag25
ag32
ag39
ag46
ag53
ag60
ag67
ag74
ag81
asg21
I0
sS'label'
p87
S'1053'
p88
sba(iArchitecture
Cluster
p89
(dp90
g7
(lp91
(iArchitecture
Entity
p92
(dp93
g11
(lp94
sg13
S'android.bluetooth.BluetoothHealth'
p95
sg15
(lp96
sg17
(lp97
sg19
(lp98
sg21
I0
sba(iArchitecture
Entity
p99
(dp100
g11
(lp101
sg13
S'android.bluetooth.BluetoothHealth$1'
p102
sg15
(lp103
sg17
(lp104
sg19
(lp105
sg21
I0
sba(iArchitecture
Entity
p106
(dp107
g11
(lp108
sg13
S'android.bluetooth.BluetoothHealth$2'
p109
sg15
(lp110
sg17
(lp111
sg19
(lp112
sg21
I0
sba(iArchitecture
Entity
p113
(dp114
g11
(lp115
sg13
S'android.bluetooth.BluetoothHealth$BluetoothHealthCallbackWrapper'
p116
sg15
(lp117
sg17
(lp118
sg19
(lp119
sg21
I0
sba(iArchitecture
Entity
p120
(dp121
g11
(lp122
sg13
S'android.net.nsd.NsdManager'
p123
sg15
(lp124
sg17
(lp125
sg19
(lp126
sg21
I0
sba(iArchitecture
Entity
p127
(dp128
g11
(lp129
sg13
S'android.net.nsd.NsdManager$DiscoveryListener'
p130
sg15
(lp131
sg17
(lp132
sg19
(lp133
sg21
I0
sba(iArchitecture
Entity
p134
(dp135
g11
(lp136
sg13
S'android.net.nsd.NsdManager$RegistrationListener'
p137
sg15
(lp138
sg17
(lp139
sg19
(lp140
sg21
I0
sba(iArchitecture
Entity
p141
(dp142
g11
(lp143
sg13
S'android.net.nsd.NsdManager$ResolveListener'
p144
sg15
(lp145
sg17
(lp146
sg19
(lp147
sg21
I0
sba(iArchitecture
Entity
p148
(dp149
g11
(lp150
sg13
S'android.net.nsd.NsdManager$ServiceHandler'
p151
sg15
(lp152
sg17
(lp153
sg19
(lp154
sg21
I0
sbasg85
(lp155
g95
ag102
ag109
ag116
ag123
ag130
ag137
ag144
ag151
asg21
I0
sg87
S'1153'
p156
sba(iArchitecture
Cluster
p157
(dp158
g7
(lp159
(iArchitecture
Entity
p160
(dp161
g11
(lp162
sg13
S'android.animation.Animator'
p163
sg15
(lp164
sg17
(lp165
sg19
(lp166
sg21
I0
sba(iArchitecture
Entity
p167
(dp168
g11
(lp169
sg13
S'android.animation.Animator$AnimatorConstantState'
p170
sg15
(lp171
sg17
(lp172
sg19
(lp173
sg21
I0
sba(iArchitecture
Entity
p174
(dp175
g11
(lp176
sg13
S'android.animation.Animator$AnimatorListener'
p177
sg15
(lp178
sg17
(lp179
sg19
(lp180
sg21
I0
sba(iArchitecture
Entity
p181
(dp182
g11
(lp183
sg13
S'android.animation.Animator$AnimatorPauseListener'
p184
sg15
(lp185
sg17
(lp186
sg19
(lp187
sg21
I0
sba(iArchitecture
Entity
p188
(dp189
g11
(lp190
sg13
S'android.animation.AnimatorSet'
p191
sg15
(lp192
sg17
(lp193
sg19
(lp194
sg21
I0
sba(iArchitecture
Entity
p195
(dp196
g11
(lp197
sg13
S'android.animation.AnimatorSet$1'
p198
sg15
(lp199
sg17
(lp200
sg19
(lp201
sg21
I0
sba(iArchitecture
Entity
p202
(dp203
g11
(lp204
sg13
S'android.animation.AnimatorSet$AnimatorSetListener'
p205
sg15
(lp206
sg17
(lp207
sg19
(lp208
sg21
I0
sba(iArchitecture
Entity
p209
(dp210
g11
(lp211
sg13
S'android.animation.AnimatorSet$Builder'
p212
sg15
(lp213
sg17
(lp214
sg19
(lp215
sg21
I0
sba(iArchitecture
Entity
p216
(dp217
g11
(lp218
sg13
S'android.animation.AnimatorSet$Dependency'
p219
sg15
(lp220
sg17
(lp221
sg19
(lp222
sg21
I0
sba(iArchitecture
Entity
p223
(dp224
g11
(lp225
sg13
S'android.animation.AnimatorSet$DependencyListener'
p226
sg15
(lp227
sg17
(lp228
sg19
(lp229
sg21
I0
sba(iArchitecture
Entity
p230
(dp231
g11
(lp232
sg13
S'android.animation.AnimatorSet$Node'
p233
sg15
(lp234
sg17
(lp235
sg19
(lp236
sg21
I0
sba(iArchitecture
Entity
p237
(dp238
g11
(lp239
sg13
S'android.animation.ValueAnimator'
p240
sg15
(lp241
sg17
(lp242
sg19
(lp243
sg21
I0
sba(iArchitecture
Entity
p244
(dp245
g11
(lp246
sg13
S'android.animation.ValueAnimator$AnimationHandler'
p247
sg15
(lp248
sg17
(lp249
sg19
(lp250
sg21
I0
sba(iArchitecture
Entity
p251
(dp252
g11
(lp253
sg13
S'android.animation.ValueAnimator$AnimationHandler$1'
p254
sg15
(lp255
sg17
(lp256
sg19
(lp257
sg21
I0
sba(iArchitecture
Entity
p258
(dp259
g11
(lp260
sg13
S'android.animation.ValueAnimator$AnimationHandler$2'
p261
sg15
(lp262
sg17
(lp263
sg19
(lp264
sg21
I0
sba(iArchitecture
Entity
p265
(dp266
g11
(lp267
sg13
S'android.animation.ValueAnimator$AnimatorUpdateListener'
p268
sg15
(lp269
sg17
(lp270
sg19
(lp271
sg21
I0
sba(iArchitecture
Entity
p272
(dp273
g11
(lp274
sg13
S'android.app.assist.AssistStructure'
p275
sg15
(lp276
sg17
(lp277
sg19
(lp278
sg21
I0
sba(iArchitecture
Entity
p279
(dp280
g11
(lp281
sg13
S'android.app.assist.AssistStructure$1'
p282
sg15
(lp283
sg17
(lp284
sg19
(lp285
sg21
I0
sba(iArchitecture
Entity
p286
(dp287
g11
(lp288
sg13
S'android.app.assist.AssistStructure$ParcelTransferReader'
p289
sg15
(lp290
sg17
(lp291
sg19
(lp292
sg21
I0
sba(iArchitecture
Entity
p293
(dp294
g11
(lp295
sg13
S'android.app.assist.AssistStructure$ParcelTransferWriter'
p296
sg15
(lp297
sg17
(lp298
sg19
(lp299
sg21
I0
sba(iArchitecture
Entity
p300
(dp301
g11
(lp302
sg13
S'android.app.assist.AssistStructure$SendChannel'
p303
sg15
(lp304
sg17
(lp305
sg19
(lp306
sg21
I0
sba(iArchitecture
Entity
p307
(dp308
g11
(lp309
sg13
S'android.app.assist.AssistStructure$ViewNode'
p310
sg15
(lp311
sg17
(lp312
sg19
(lp313
sg21
I0
sba(iArchitecture
Entity
p314
(dp315
g11
(lp316
sg13
S'android.app.assist.AssistStructure$ViewNodeBuilder'
p317
sg15
(lp318
sg17
(lp319
sg19
(lp320
sg21
I0
sba(iArchitecture
Entity
p321
(dp322
g11
(lp323
sg13
S'android.app.assist.AssistStructure$ViewNodeText'
p324
sg15
(lp325
sg17
(lp326
sg19
(lp327
sg21
I0
sba(iArchitecture
Entity
p328
(dp329
g11
(lp330
sg13
S'android.app.assist.AssistStructure$ViewStackEntry'
p331
sg15
(lp332
sg17
(lp333
sg19
(lp334
sg21
I0
sba(iArchitecture
Entity
p335
(dp336
g11
(lp337
sg13
S'android.app.assist.AssistStructure$WindowNode'
p338
sg15
(lp339
sg17
(lp340
sg19
(lp341
sg21
I0
sba(iArchitecture
Entity
p342
(dp343
g11
(lp344
sg13
S'android.graphics.drawable.AnimatedVectorDrawable'
p345
sg15
(lp346
sg17
(lp347
sg19
(lp348
sg21
I0
sba(iArchitecture
Entity
p349
(dp350
g11
(lp351
sg13
S'android.graphics.drawable.AnimatedVectorDrawable$1'
p352
sg15
(lp353
sg17
(lp354
sg19
(lp355
sg21
I0
sba(iArchitecture
Entity
p356
(dp357
g11
(lp358
sg13
S'android.graphics.drawable.AnimatedVectorDrawable$2'
p359
sg15
(lp360
sg17
(lp361
sg19
(lp362
sg21
I0
sba(iArchitecture
Entity
p363
(dp364
g11
(lp365
sg13
S'android.graphics.drawable.AnimatedVectorDrawable$AnimatedVectorDrawableState'
p366
sg15
(lp367
sg17
(lp368
sg19
(lp369
sg21
I0
sba(iArchitecture
Entity
p370
(dp371
g11
(lp372
sg13
S'android.graphics.drawable.AnimatedVectorDrawable$AnimatedVectorDrawableState$PendingAnimator'
p373
sg15
(lp374
sg17
(lp375
sg19
(lp376
sg21
I0
sba(iArchitecture
Entity
p377
(dp378
g11
(lp379
sg13
S'android.media.SRTRenderer'
p380
sg15
(lp381
sg17
(lp382
sg19
(lp383
sg21
I0
sba(iArchitecture
Entity
p384
(dp385
g11
(lp386
sg13
S'android.media.TtmlRenderer'
p387
sg15
(lp388
sg17
(lp389
sg19
(lp390
sg21
I0
sba(iArchitecture
Entity
p391
(dp392
g11
(lp393
sg13
S'android.media.WebVttRenderer'
p394
sg15
(lp395
sg17
(lp396
sg19
(lp397
sg21
I0
sba(iArchitecture
Entity
p398
(dp399
g11
(lp400
sg13
S'android.os.Parcel'
p401
sg15
(lp402
sg17
(lp403
sg19
(lp404
sg21
I0
sba(iArchitecture
Entity
p405
(dp406
g11
(lp407
sg13
S'android.os.Parcel$1'
p408
sg15
(lp409
sg17
(lp410
sg19
(lp411
sg21
I0
sba(iArchitecture
Entity
p412
(dp413
g11
(lp414
sg13
S'android.os.Parcel$2'
p415
sg15
(lp416
sg17
(lp417
sg19
(lp418
sg21
I0
sba(iArchitecture
Entity
p419
(dp420
g11
(lp421
sg13
S'android.view.animation.Animation'
p422
sg15
(lp423
sg17
(lp424
sg19
(lp425
sg21
I0
sba(iArchitecture
Entity
p426
(dp427
g11
(lp428
sg13
S'android.view.animation.Animation$1'
p429
sg15
(lp430
sg17
(lp431
sg19
(lp432
sg21
I0
sba(iArchitecture
Entity
p433
(dp434
g11
(lp435
sg13
S'android.view.animation.Animation$2'
p436
sg15
(lp437
sg17
(lp438
sg19
(lp439
sg21
I0
sba(iArchitecture
Entity
p440
(dp441
g11
(lp442
sg13
S'android.view.animation.Animation$3'
p443
sg15
(lp444
sg17
(lp445
sg19
(lp446
sg21
I0
sba(iArchitecture
Entity
p447
(dp448
g11
(lp449
sg13
S'android.view.animation.Animation$AnimationListener'
p450
sg15
(lp451
sg17
(lp452
sg19
(lp453
sg21
I0
sba(iArchitecture
Entity
p454
(dp455
g11
(lp456
sg13
S'android.view.animation.Animation$Description'
p457
sg15
(lp458
sg17
(lp459
sg19
(lp460
sg21
I0
sba(iArchitecture
Entity
p461
(dp462
g11
(lp463
sg13
S'android.view.animation.AnimationSet'
p464
sg15
(lp465
sg17
(lp466
sg19
(lp467
sg21
I0
sba(iArchitecture
Entity
p468
(dp469
g11
(lp470
sg13
S'android.view.animation.LayoutAnimationController'
p471
sg15
(lp472
sg17
(lp473
sg19
(lp474
sg21
I0
sba(iArchitecture
Entity
p475
(dp476
g11
(lp477
sg13
S'android.view.animation.LayoutAnimationController$AnimationParameters'
p478
sg15
(lp479
sg17
(lp480
sg19
(lp481
sg21
I0
sba(iArchitecture
Entity
p482
(dp483
g11
(lp484
sg13
S'android.widget.AdapterViewAnimator'
p485
sg15
(lp486
sg17
(lp487
sg19
(lp488
sg21
I0
sba(iArchitecture
Entity
p489
(dp490
g11
(lp491
sg13
S'android.widget.AdapterViewAnimator$1'
p492
sg15
(lp493
sg17
(lp494
sg19
(lp495
sg21
I0
sba(iArchitecture
Entity
p496
(dp497
g11
(lp498
sg13
S'android.widget.AdapterViewAnimator$1$1'
p499
sg15
(lp500
sg17
(lp501
sg19
(lp502
sg21
I0
sba(iArchitecture
Entity
p503
(dp504
g11
(lp505
sg13
S'android.widget.AdapterViewAnimator$2'
p506
sg15
(lp507
sg17
(lp508
sg19
(lp509
sg21
I0
sba(iArchitecture
Entity
p510
(dp511
g11
(lp512
sg13
S'android.widget.AdapterViewAnimator$CheckForTap'
p513
sg15
(lp514
sg17
(lp515
sg19
(lp516
sg21
I0
sba(iArchitecture
Entity
p517
(dp518
g11
(lp519
sg13
S'android.widget.AdapterViewAnimator$SavedState'
p520
sg15
(lp521
sg17
(lp522
sg19
(lp523
sg21
I0
sba(iArchitecture
Entity
p524
(dp525
g11
(lp526
sg13
S'android.widget.AdapterViewAnimator$SavedState$1'
p527
sg15
(lp528
sg17
(lp529
sg19
(lp530
sg21
I0
sba(iArchitecture
Entity
p531
(dp532
g11
(lp533
sg13
S'android.widget.AdapterViewAnimator$ViewAndMetaData'
p534
sg15
(lp535
sg17
(lp536
sg19
(lp537
sg21
I0
sba(iArchitecture
Entity
p538
(dp539
g11
(lp540
sg13
S'android.widget.GridLayout'
p541
sg15
(lp542
sg17
(lp543
sg19
(lp544
sg21
I0
sba(iArchitecture
Entity
p545
(dp546
g11
(lp547
sg13
S'android.widget.GridLayout$1'
p548
sg15
(lp549
sg17
(lp550
sg19
(lp551
sg21
I0
sba(iArchitecture
Entity
p552
(dp553
g11
(lp554
sg13
S'android.widget.GridLayout$2'
p555
sg15
(lp556
sg17
(lp557
sg19
(lp558
sg21
I0
sba(iArchitecture
Entity
p559
(dp560
g11
(lp561
sg13
S'android.widget.GridLayout$3'
p562
sg15
(lp563
sg17
(lp564
sg19
(lp565
sg21
I0
sba(iArchitecture
Entity
p566
(dp567
g11
(lp568
sg13
S'android.widget.GridLayout$4'
p569
sg15
(lp570
sg17
(lp571
sg19
(lp572
sg21
I0
sba(iArchitecture
Entity
p573
(dp574
g11
(lp575
sg13
S'android.widget.GridLayout$5'
p576
sg15
(lp577
sg17
(lp578
sg19
(lp579
sg21
I0
sba(iArchitecture
Entity
p580
(dp581
g11
(lp582
sg13
S'android.widget.GridLayout$6'
p583
sg15
(lp584
sg17
(lp585
sg19
(lp586
sg21
I0
sba(iArchitecture
Entity
p587
(dp588
g11
(lp589
sg13
S'android.widget.GridLayout$6$1'
p590
sg15
(lp591
sg17
(lp592
sg19
(lp593
sg21
I0
sba(iArchitecture
Entity
p594
(dp595
g11
(lp596
sg13
S'android.widget.GridLayout$7'
p597
sg15
(lp598
sg17
(lp599
sg19
(lp600
sg21
I0
sba(iArchitecture
Entity
p601
(dp602
g11
(lp603
sg13
S'android.widget.GridLayout$8'
p604
sg15
(lp605
sg17
(lp606
sg19
(lp607
sg21
I0
sba(iArchitecture
Entity
p608
(dp609
g11
(lp610
sg13
S'android.widget.GridLayout$Alignment'
p611
sg15
(lp612
sg17
(lp613
sg19
(lp614
sg21
I0
sba(iArchitecture
Entity
p615
(dp616
g11
(lp617
sg13
S'android.widget.GridLayout$Arc'
p618
sg15
(lp619
sg17
(lp620
sg19
(lp621
sg21
I0
sba(iArchitecture
Entity
p622
(dp623
g11
(lp624
sg13
S'android.widget.GridLayout$Assoc'
p625
sg15
(lp626
sg17
(lp627
sg19
(lp628
sg21
I0
sba(iArchitecture
Entity
p629
(dp630
g11
(lp631
sg13
S'android.widget.GridLayout$Axis'
p632
sg15
(lp633
sg17
(lp634
sg19
(lp635
sg21
I0
sba(iArchitecture
Entity
p636
(dp637
g11
(lp638
sg13
S'android.widget.GridLayout$Axis$1'
p639
sg15
(lp640
sg17
(lp641
sg19
(lp642
sg21
I0
sba(iArchitecture
Entity
p643
(dp644
g11
(lp645
sg13
S'android.widget.GridLayout$Bounds'
p646
sg15
(lp647
sg17
(lp648
sg19
(lp649
sg21
I0
sba(iArchitecture
Entity
p650
(dp651
g11
(lp652
sg13
S'android.widget.GridLayout$Interval'
p653
sg15
(lp654
sg17
(lp655
sg19
(lp656
sg21
I0
sba(iArchitecture
Entity
p657
(dp658
g11
(lp659
sg13
S'android.widget.GridLayout$LayoutParams'
p660
sg15
(lp661
sg17
(lp662
sg19
(lp663
sg21
I0
sba(iArchitecture
Entity
p664
(dp665
g11
(lp666
sg13
S'android.widget.GridLayout$MutableInt'
p667
sg15
(lp668
sg17
(lp669
sg19
(lp670
sg21
I0
sba(iArchitecture
Entity
p671
(dp672
g11
(lp673
sg13
S'android.widget.GridLayout$PackedMap'
p674
sg15
(lp675
sg17
(lp676
sg19
(lp677
sg21
I0
sba(iArchitecture
Entity
p678
(dp679
g11
(lp680
sg13
S'android.widget.GridLayout$Spec'
p681
sg15
(lp682
sg17
(lp683
sg19
(lp684
sg21
I0
sba(iArchitecture
Entity
p685
(dp686
g11
(lp687
sg13
S'android.widget.RemoteViewsAdapter'
p688
sg15
(lp689
sg17
(lp690
sg19
(lp691
sg21
I0
sba(iArchitecture
Entity
p692
(dp693
g11
(lp694
sg13
S'android.widget.RemoteViewsAdapter$1'
p695
sg15
(lp696
sg17
(lp697
sg19
(lp698
sg21
I0
sba(iArchitecture
Entity
p699
(dp700
g11
(lp701
sg13
S'android.widget.RemoteViewsAdapter$2'
p702
sg15
(lp703
sg17
(lp704
sg19
(lp705
sg21
I0
sba(iArchitecture
Entity
p706
(dp707
g11
(lp708
sg13
S'android.widget.RemoteViewsAdapter$3'
p709
sg15
(lp710
sg17
(lp711
sg19
(lp712
sg21
I0
sba(iArchitecture
Entity
p713
(dp714
g11
(lp715
sg13
S'android.widget.RemoteViewsAdapter$4'
p716
sg15
(lp717
sg17
(lp718
sg19
(lp719
sg21
I0
sba(iArchitecture
Entity
p720
(dp721
g11
(lp722
sg13
S'android.widget.RemoteViewsAdapter$5'
p723
sg15
(lp724
sg17
(lp725
sg19
(lp726
sg21
I0
sba(iArchitecture
Entity
p727
(dp728
g11
(lp729
sg13
S'android.widget.RemoteViewsAdapter$6'
p730
sg15
(lp731
sg17
(lp732
sg19
(lp733
sg21
I0
sba(iArchitecture
Entity
p734
(dp735
g11
(lp736
sg13
S'android.widget.RemoteViewsAdapter$FixedSizeRemoteViewsCache'
p737
sg15
(lp738
sg17
(lp739
sg19
(lp740
sg21
I0
sba(iArchitecture
Entity
p741
(dp742
g11
(lp743
sg13
S'android.widget.RemoteViewsAdapter$RemoteAdapterConnectionCallback'
p744
sg15
(lp745
sg17
(lp746
sg19
(lp747
sg21
I0
sba(iArchitecture
Entity
p748
(dp749
g11
(lp750
sg13
S'android.widget.RemoteViewsAdapter$RemoteViewsAdapterServiceConnection'
p751
sg15
(lp752
sg17
(lp753
sg19
(lp754
sg21
I0
sba(iArchitecture
Entity
p755
(dp756
g11
(lp757
sg13
S'android.widget.RemoteViewsAdapter$RemoteViewsAdapterServiceConnection$1'
p758
sg15
(lp759
sg17
(lp760
sg19
(lp761
sg21
I0
sba(iArchitecture
Entity
p762
(dp763
g11
(lp764
sg13
S'android.widget.RemoteViewsAdapter$RemoteViewsAdapterServiceConnection$1$1'
p765
sg15
(lp766
sg17
(lp767
sg19
(lp768
sg21
I0
sba(iArchitecture
Entity
p769
(dp770
g11
(lp771
sg13
S'android.widget.RemoteViewsAdapter$RemoteViewsAdapterServiceConnection$2'
p772
sg15
(lp773
sg17
(lp774
sg19
(lp775
sg21
I0
sba(iArchitecture
Entity
p776
(dp777
g11
(lp778
sg13
S'android.widget.RemoteViewsAdapter$RemoteViewsCacheKey'
p779
sg15
(lp780
sg17
(lp781
sg19
(lp782
sg21
I0
sba(iArchitecture
Entity
p783
(dp784
g11
(lp785
sg13
S'android.widget.RemoteViewsAdapter$RemoteViewsFrameLayout'
p786
sg15
(lp787
sg17
(lp788
sg19
(lp789
sg21
I0
sba(iArchitecture
Entity
p790
(dp791
g11
(lp792
sg13
S'android.widget.RemoteViewsAdapter$RemoteViewsFrameLayoutRefSet'
p793
sg15
(lp794
sg17
(lp795
sg19
(lp796
sg21
I0
sba(iArchitecture
Entity
p797
(dp798
g11
(lp799
sg13
S'android.widget.RemoteViewsAdapter$RemoteViewsIndexMetaData'
p800
sg15
(lp801
sg17
(lp802
sg19
(lp803
sg21
I0
sba(iArchitecture
Entity
p804
(dp805
g11
(lp806
sg13
S'android.widget.RemoteViewsAdapter$RemoteViewsMetaData'
p807
sg15
(lp808
sg17
(lp809
sg19
(lp810
sg21
I0
sba(iArchitecture
Entity
p811
(dp812
g11
(lp813
sg13
S'android.widget.StackView'
p814
sg15
(lp815
sg17
(lp816
sg19
(lp817
sg21
I0
sba(iArchitecture
Entity
p818
(dp819
g11
(lp820
sg13
S'android.widget.StackView$1'
p821
sg15
(lp822
sg17
(lp823
sg19
(lp824
sg21
I0
sba(iArchitecture
Entity
p825
(dp826
g11
(lp827
sg13
S'android.widget.StackView$HolographicHelper'
p828
sg15
(lp829
sg17
(lp830
sg19
(lp831
sg21
I0
sba(iArchitecture
Entity
p832
(dp833
g11
(lp834
sg13
S'android.widget.StackView$LayoutParams'
p835
sg15
(lp836
sg17
(lp837
sg19
(lp838
sg21
I0
sba(iArchitecture
Entity
p839
(dp840
g11
(lp841
sg13
S'android.widget.StackView$StackFrame'
p842
sg15
(lp843
sg17
(lp844
sg19
(lp845
sg21
I0
sba(iArchitecture
Entity
p846
(dp847
g11
(lp848
sg13
S'android.widget.StackView$StackSlider'
p849
sg15
(lp850
sg17
(lp851
sg19
(lp852
sg21
I0
sba(iArchitecture
Entity
p853
(dp854
g11
(lp855
sg13
S'android.widget.ViewAnimator'
p856
sg15
(lp857
sg17
(lp858
sg19
(lp859
sg21
I0
sba(iArchitecture
Entity
p860
(dp861
g11
(lp862
sg13
S'com.android.internal.app.ChooserActivity'
p863
sg15
(lp864
sg17
(lp865
sg19
(lp866
sg21
I0
sba(iArchitecture
Entity
p867
(dp868
g11
(lp869
sg13
S'com.android.internal.app.ChooserActivity$1'
p870
sg15
(lp871
sg17
(lp872
sg19
(lp873
sg21
I0
sba(iArchitecture
Entity
p874
(dp875
g11
(lp876
sg13
S'com.android.internal.app.ChooserActivity$BaseChooserTargetComparator'
p877
sg15
(lp878
sg17
(lp879
sg19
(lp880
sg21
I0
sba(iArchitecture
Entity
p881
(dp882
g11
(lp883
sg13
S'com.android.internal.app.ChooserActivity$ChooserListAdapter'
p884
sg15
(lp885
sg17
(lp886
sg19
(lp887
sg21
I0
sba(iArchitecture
Entity
p888
(dp889
g11
(lp890
sg13
S'com.android.internal.app.ChooserActivity$ChooserRowAdapter'
p891
sg15
(lp892
sg17
(lp893
sg19
(lp894
sg21
I0
sba(iArchitecture
Entity
p895
(dp896
g11
(lp897
sg13
S'com.android.internal.app.ChooserActivity$ChooserRowAdapter$1'
p898
sg15
(lp899
sg17
(lp900
sg19
(lp901
sg21
I0
sba(iArchitecture
Entity
p902
(dp903
g11
(lp904
sg13
S'com.android.internal.app.ChooserActivity$ChooserRowAdapter$2'
p905
sg15
(lp906
sg17
(lp907
sg19
(lp908
sg21
I0
sba(iArchitecture
Entity
p909
(dp910
g11
(lp911
sg13
S'com.android.internal.app.ChooserActivity$ChooserRowAdapter$3'
p912
sg15
(lp913
sg17
(lp914
sg19
(lp915
sg21
I0
sba(iArchitecture
Entity
p916
(dp917
g11
(lp918
sg13
S'com.android.internal.app.ChooserActivity$ChooserTargetInfo'
p919
sg15
(lp920
sg17
(lp921
sg19
(lp922
sg21
I0
sba(iArchitecture
Entity
p923
(dp924
g11
(lp925
sg13
S'com.android.internal.app.ChooserActivity$ChooserTargetServiceConnection'
p926
sg15
(lp927
sg17
(lp928
sg19
(lp929
sg21
I0
sba(iArchitecture
Entity
p930
(dp931
g11
(lp932
sg13
S'com.android.internal.app.ChooserActivity$ChooserTargetServiceConnection$1'
p933
sg15
(lp934
sg17
(lp935
sg19
(lp936
sg21
I0
sba(iArchitecture
Entity
p937
(dp938
g11
(lp939
sg13
S'com.android.internal.app.ChooserActivity$RefinementResultReceiver'
p940
sg15
(lp941
sg17
(lp942
sg19
(lp943
sg21
I0
sba(iArchitecture
Entity
p944
(dp945
g11
(lp946
sg13
S'com.android.internal.app.ChooserActivity$ServiceResultInfo'
p947
sg15
(lp948
sg17
(lp949
sg19
(lp950
sg21
I0
sbasg85
(lp951
g163
ag170
ag177
ag184
ag191
ag198
ag205
ag212
ag219
ag226
ag233
ag240
ag247
ag254
ag261
ag268
ag275
ag282
ag289
ag296
ag303
ag310
ag317
ag324
ag331
ag338
ag345
ag352
ag359
ag366
ag373
ag380
ag387
ag394
ag401
ag408
ag415
ag422
ag429
ag436
ag443
ag450
ag457
ag464
ag471
ag478
ag485
ag492
ag499
ag506
ag513
ag520
ag527
ag534
ag541
ag548
ag555
ag562
ag569
ag576
ag583
ag590
ag597
ag604
ag611
ag618
ag625
ag632
ag639
ag646
ag653
ag660
ag667
ag674
ag681
ag688
ag695
ag702
ag709
ag716
ag723
ag730
ag737
ag744
ag751
ag758
ag765
ag772
ag779
ag786
ag793
ag800
ag807
ag814
ag821
ag828
ag835
ag842
ag849
ag856
ag863
ag870
ag877
ag884
ag891
ag898
ag905
ag912
ag919
ag926
ag933
ag940
ag947
asg21
I0
sg87
S'1253'
p952
sba(iArchitecture
Cluster
p953
(dp954
g7
(lp955
(iArchitecture
Entity
p956
(dp957
g11
(lp958
sg13
S'android.database.sqlite.SQLiteQuery'
p959
sg15
(lp960
sg17
(lp961
sg19
(lp962
sg21
I0
sbasg85
(lp963
g959
asg21
I0
sg87
S'153'
p964
sba(iArchitecture
Cluster
p965
(dp966
g7
(lp967
(iArchitecture
Entity
p968
(dp969
g11
(lp970
sg13
S'android.filterpacks.imageproc.AutoFixFilter'
p971
sg15
(lp972
sg17
(lp973
sg19
(lp974
sg21
I0
sbasg85
(lp975
g971
asg21
I0
sg87
S'253'
p976
sba(iArchitecture
Cluster
p977
(dp978
g7
(lp979
(iArchitecture
Entity
p980
(dp981
g11
(lp982
sg13
S'android.webkit.MimeTypeMap'
p983
sg15
(lp984
sg17
(lp985
sg19
(lp986
sg21
I0
sbasg85
(lp987
g983
asg21
I0
sg87
S'353'
p988
sba(iArchitecture
Cluster
p989
(dp990
g7
(lp991
(iArchitecture
Entity
p992
(dp993
g11
(lp994
sg13
S'android.sax.RootElement'
p995
sg15
(lp996
sg17
(lp997
sg19
(lp998
sg21
I0
sba(iArchitecture
Entity
p999
(dp1000
g11
(lp1001
sg13
S'android.sax.RootElement$Handler'
p1002
sg15
(lp1003
sg17
(lp1004
sg19
(lp1005
sg21
I0
sbasg85
(lp1006
g995
ag1002
asg21
I0
sg87
S'453'
p1007
sba(iArchitecture
Cluster
p1008
(dp1009
g7
(lp1010
(iArchitecture
Entity
p1011
(dp1012
g11
(lp1013
sg13
S'android.os.CommonTimeUtils'
p1014
sg15
(lp1015
sg17
(lp1016
sg19
(lp1017
sg21
I0
sbasg85
(lp1018
g1014
asg21
I0
sg87
S'53'
p1019
sba(iArchitecture
Cluster
p1020
(dp1021
g7
(lp1022
(iArchitecture
Entity
p1023
(dp1024
g11
(lp1025
sg13
S'android.speech.tts.SynthesisPlaybackQueueItem'
p1026
sg15
(lp1027
sg17
(lp1028
sg19
(lp1029
sg21
I0
sba(iArchitecture
Entity
p1030
(dp1031
g11
(lp1032
sg13
S'android.speech.tts.SynthesisPlaybackQueueItem$ListEntry'
p1033
sg15
(lp1034
sg17
(lp1035
sg19
(lp1036
sg21
I0
sbasg85
(lp1037
g1026
ag1033
asg21
I0
sg87
S'530'
p1038
sba(iArchitecture
Cluster
p1039
(dp1040
g7
(lp1041
(iArchitecture
Entity
p1042
(dp1043
g11
(lp1044
sg13
S'com.android.server.hdmi.HdmiCecKeycode'
p1045
sg15
(lp1046
sg17
(lp1047
sg19
(lp1048
sg21
I0
sba(iArchitecture
Entity
p1049
(dp1050
g11
(lp1051
sg13
S'com.android.server.hdmi.HdmiCecKeycode$KeycodeEntry'
p1052
sg15
(lp1053
sg17
(lp1054
sg19
(lp1055
sg21
I0
sbasg85
(lp1056
g1045
ag1052
asg21
I0
sg87
S'531'
p1057
sba(iArchitecture
Cluster
p1058
(dp1059
g7
(lp1060
(iArchitecture
Entity
p1061
(dp1062
g11
(lp1063
sg13
S'android.renderscript.RenderScriptGL'
p1064
sg15
(lp1065
sg17
(lp1066
sg19
(lp1067
sg21
I0
sba(iArchitecture
Entity
p1068
(dp1069
g11
(lp1070
sg13
S'android.renderscript.RenderScriptGL$SurfaceConfig'
p1071
sg15
(lp1072
sg17
(lp1073
sg19
(lp1074
sg21
I0
sbasg85
(lp1075
g1064
ag1071
asg21
I0
sg87
S'532'
p1076
sba(iArchitecture
Cluster
p1077
(dp1078
g7
(lp1079
(iArchitecture
Entity
p1080
(dp1081
g11
(lp1082
sg13
S'android.telecom.DisconnectCause'
p1083
sg15
(lp1084
sg17
(lp1085
sg19
(lp1086
sg21
I0
sba(iArchitecture
Entity
p1087
(dp1088
g11
(lp1089
sg13
S'android.telecom.DisconnectCause$1'
p1090
sg15
(lp1091
sg17
(lp1092
sg19
(lp1093
sg21
I0
sbasg85
(lp1094
g1083
ag1090
asg21
I0
sg87
S'533'
p1095
sba(iArchitecture
Cluster
p1096
(dp1097
g7
(lp1098
(iArchitecture
Entity
p1099
(dp1100
g11
(lp1101
sg13
S'android.content.pm.ActivityInfo'
p1102
sg15
(lp1103
sg17
(lp1104
sg19
(lp1105
sg21
I0
sba(iArchitecture
Entity
p1106
(dp1107
g11
(lp1108
sg13
S'android.content.pm.ActivityInfo$1'
p1109
sg15
(lp1110
sg17
(lp1111
sg19
(lp1112
sg21
I0
sbasg85
(lp1113
g1102
ag1109
asg21
I0
sg87
S'534'
p1114
sba(iArchitecture
Cluster
p1115
(dp1116
g7
(lp1117
(iArchitecture
Entity
p1118
(dp1119
g11
(lp1120
sg13
S'android.media.AudioRoutesInfo'
p1121
sg15
(lp1122
sg17
(lp1123
sg19
(lp1124
sg21
I0
sba(iArchitecture
Entity
p1125
(dp1126
g11
(lp1127
sg13
S'android.media.AudioRoutesInfo$1'
p1128
sg15
(lp1129
sg17
(lp1130
sg19
(lp1131
sg21
I0
sbasg85
(lp1132
g1121
ag1128
asg21
I0
sg87
S'535'
p1133
sba(iArchitecture
Cluster
p1134
(dp1135
g7
(lp1136
(iArchitecture
Entity
p1137
(dp1138
g11
(lp1139
sg13
S'android.os.CountDownTimer'
p1140
sg15
(lp1141
sg17
(lp1142
sg19
(lp1143
sg21
I0
sba(iArchitecture
Entity
p1144
(dp1145
g11
(lp1146
sg13
S'android.os.CountDownTimer$1'
p1147
sg15
(lp1148
sg17
(lp1149
sg19
(lp1150
sg21
I0
sbasg85
(lp1151
g1140
ag1147
asg21
I0
sg87
S'536'
p1152
sba(iArchitecture
Cluster
p1153
(dp1154
g7
(lp1155
(iArchitecture
Entity
p1156
(dp1157
g11
(lp1158
sg13
S'android.net.SSLCertificateSocketFactory'
p1159
sg15
(lp1160
sg17
(lp1161
sg19
(lp1162
sg21
I0
sba(iArchitecture
Entity
p1163
(dp1164
g11
(lp1165
sg13
S'android.net.SSLCertificateSocketFactory$1'
p1166
sg15
(lp1167
sg17
(lp1168
sg19
(lp1169
sg21
I0
sbasg85
(lp1170
g1159
ag1166
asg21
I0
sg87
S'537'
p1171
sba(iArchitecture
Cluster
p1172
(dp1173
g7
(lp1174
(iArchitecture
Entity
p1175
(dp1176
g11
(lp1177
sg13
S'android.location.Address'
p1178
sg15
(lp1179
sg17
(lp1180
sg19
(lp1181
sg21
I0
sba(iArchitecture
Entity
p1182
(dp1183
g11
(lp1184
sg13
S'android.location.Address$1'
p1185
sg15
(lp1186
sg17
(lp1187
sg19
(lp1188
sg21
I0
sbasg85
(lp1189
g1178
ag1185
asg21
I0
sg87
S'538'
p1190
sba(iArchitecture
Cluster
p1191
(dp1192
g7
(lp1193
(iArchitecture
Entity
p1194
(dp1195
g11
(lp1196
sg13
S'android.printservice.PrintServiceInfo'
p1197
sg15
(lp1198
sg17
(lp1199
sg19
(lp1200
sg21
I0
sba(iArchitecture
Entity
p1201
(dp1202
g11
(lp1203
sg13
S'android.printservice.PrintServiceInfo$1'
p1204
sg15
(lp1205
sg17
(lp1206
sg19
(lp1207
sg21
I0
sbasg85
(lp1208
g1197
ag1204
asg21
I0
sg87
S'539'
p1209
sba(iArchitecture
Cluster
p1210
(dp1211
g7
(lp1212
(iArchitecture
Entity
p1213
(dp1214
g11
(lp1215
sg13
S'android.net.wifi.p2p.WifiP2pConfig'
p1216
sg15
(lp1217
sg17
(lp1218
sg19
(lp1219
sg21
I0
sba(iArchitecture
Entity
p1220
(dp1221
g11
(lp1222
sg13
S'android.net.wifi.p2p.WifiP2pConfig$1'
p1223
sg15
(lp1224
sg17
(lp1225
sg19
(lp1226
sg21
I0
sbasg85
(lp1227
g1216
ag1223
asg21
I0
sg87
S'553'
p1228
sba(iArchitecture
Cluster
p1229
(dp1230
g7
(lp1231
(iArchitecture
Entity
p1232
(dp1233
g11
(lp1234
sg13
S'com.android.server.net.NetlinkTracker'
p1235
sg15
(lp1236
sg17
(lp1237
sg19
(lp1238
sg21
I0
sba(iArchitecture
Entity
p1239
(dp1240
g11
(lp1241
sg13
S'com.android.server.net.NetlinkTracker$Callback'
p1242
sg15
(lp1243
sg17
(lp1244
sg19
(lp1245
sg21
I0
sbasg85
(lp1246
g1235
ag1242
asg21
I0
sg87
S'653'
p1247
sba(iArchitecture
Cluster
p1248
(dp1249
g7
(lp1250
(iArchitecture
Entity
p1251
(dp1252
g11
(lp1253
sg13
S'android.media.audiopolicy.AudioMixingRule'
p1254
sg15
(lp1255
sg17
(lp1256
sg19
(lp1257
sg21
I0
sba(iArchitecture
Entity
p1258
(dp1259
g11
(lp1260
sg13
S'android.media.audiopolicy.AudioMixingRule$AttributeMatchCriterion'
p1261
sg15
(lp1262
sg17
(lp1263
sg19
(lp1264
sg21
I0
sba(iArchitecture
Entity
p1265
(dp1266
g11
(lp1267
sg13
S'android.media.audiopolicy.AudioMixingRule$Builder'
p1268
sg15
(lp1269
sg17
(lp1270
sg19
(lp1271
sg21
I0
sbasg85
(lp1272
g1254
ag1261
ag1268
asg21
I0
sg87
S'753'
p1273
sba(iArchitecture
Cluster
p1274
(dp1275
g7
(lp1276
(iArchitecture
Entity
p1277
(dp1278
g11
(lp1279
sg13
S'android.graphics.Path'
p1280
sg15
(lp1281
sg17
(lp1282
sg19
(lp1283
sg21
I0
sba(iArchitecture
Entity
p1284
(dp1285
g11
(lp1286
sg13
S'android.graphics.Path$Direction'
p1287
sg15
(lp1288
sg17
(lp1289
sg19
(lp1290
sg21
I0
sba(iArchitecture
Entity
p1291
(dp1292
g11
(lp1293
sg13
S'android.graphics.Path$FillType'
p1294
sg15
(lp1295
sg17
(lp1296
sg19
(lp1297
sg21
I0
sba(iArchitecture
Entity
p1298
(dp1299
g11
(lp1300
sg13
S'android.graphics.Path$Op'
p1301
sg15
(lp1302
sg17
(lp1303
sg19
(lp1304
sg21
I0
sbasg85
(lp1305
g1280
ag1287
ag1294
ag1301
asg21
I0
sg87
S'853'
p1306
sba(iArchitecture
Cluster
p1307
(dp1308
g7
(lp1309
(iArchitecture
Entity
p1310
(dp1311
g11
(lp1312
sg13
S'android.provider.SearchIndexablesContract'
p1313
sg15
(lp1314
sg17
(lp1315
sg19
(lp1316
sg21
I0
sba(iArchitecture
Entity
p1317
(dp1318
g11
(lp1319
sg13
S'android.provider.SearchIndexablesContract$BaseColumns'
p1320
sg15
(lp1321
sg17
(lp1322
sg19
(lp1323
sg21
I0
sba(iArchitecture
Entity
p1324
(dp1325
g11
(lp1326
sg13
S'android.provider.SearchIndexablesContract$NonIndexableKey'
p1327
sg15
(lp1328
sg17
(lp1329
sg19
(lp1330
sg21
I0
sba(iArchitecture
Entity
p1331
(dp1332
g11
(lp1333
sg13
S'android.provider.SearchIndexablesContract$RawData'
p1334
sg15
(lp1335
sg17
(lp1336
sg19
(lp1337
sg21
I0
sba(iArchitecture
Entity
p1338
(dp1339
g11
(lp1340
sg13
S'android.provider.SearchIndexablesContract$XmlResource'
p1341
sg15
(lp1342
sg17
(lp1343
sg19
(lp1344
sg21
I0
sbasg85
(lp1345
g1313
ag1320
ag1327
ag1334
ag1341
asg21
I0
sg87
S'953'
p1346
sbasS'target_sub'
p1347
S'53'
p1348
sg85
(lp1349
sS'is_component_arch'
p1350
I01
sg87
S'6.0.0_r1'
p1351
sba.