(lp0
(iArchitecture
Architecture
p1
(dp2
S'clusters'
p3
(lp4
(iArchitecture
Cluster
p5
(dp6
S'entities'
p7
(lp8
(iArchitecture
Entity
p9
(dp10
S'issue_ids'
p11
(lp12
sS'name'
p13
S'android.telecom.RemoteConference'
p14
sS'descs'
p15
(lp16
sS'labels'
p17
(lp18
sS'titles'
p19
(lp20
sS'change'
p21
I0
sba(iArchitecture
Entity
p22
(dp23
g11
(lp24
sg13
S'android.telecom.RemoteConference$1'
p25
sg15
(lp26
sg17
(lp27
sg19
(lp28
sg21
I0
sba(iArchitecture
Entity
p29
(dp30
g11
(lp31
sg13
S'android.telecom.RemoteConference$2'
p32
sg15
(lp33
sg17
(lp34
sg19
(lp35
sg21
I0
sba(iArchitecture
Entity
p36
(dp37
g11
(lp38
sg13
S'android.telecom.RemoteConference$3'
p39
sg15
(lp40
sg17
(lp41
sg19
(lp42
sg21
I0
sba(iArchitecture
Entity
p43
(dp44
g11
(lp45
sg13
S'android.telecom.RemoteConference$4'
p46
sg15
(lp47
sg17
(lp48
sg19
(lp49
sg21
I0
sba(iArchitecture
Entity
p50
(dp51
g11
(lp52
sg13
S'android.telecom.RemoteConference$5'
p53
sg15
(lp54
sg17
(lp55
sg19
(lp56
sg21
I0
sba(iArchitecture
Entity
p57
(dp58
g11
(lp59
sg13
S'android.telecom.RemoteConference$6'
p60
sg15
(lp61
sg17
(lp62
sg19
(lp63
sg21
I0
sba(iArchitecture
Entity
p64
(dp65
g11
(lp66
sg13
S'android.telecom.RemoteConference$7'
p67
sg15
(lp68
sg17
(lp69
sg19
(lp70
sg21
I0
sba(iArchitecture
Entity
p71
(dp72
g11
(lp73
sg13
S'android.telecom.RemoteConference$8'
p74
sg15
(lp75
sg17
(lp76
sg19
(lp77
sg21
I0
sba(iArchitecture
Entity
p78
(dp79
g11
(lp80
sg13
S'android.telecom.RemoteConference$Callback'
p81
sg15
(lp82
sg17
(lp83
sg19
(lp84
sg21
I0
sbasS'classes'
p85
(lp86
g14
ag25
ag32
ag39
ag46
ag53
ag60
ag67
ag74
ag81
asg21
I0
sS'label'
p87
S'1075'
p88
sba(iArchitecture
Cluster
p89
(dp90
g7
(lp91
(iArchitecture
Entity
p92
(dp93
g11
(lp94
sg13
S'com.android.server.policy.GlobalActions'
p95
sg15
(lp96
sg17
(lp97
sg19
(lp98
sg21
I0
sba(iArchitecture
Entity
p99
(dp100
g11
(lp101
sg13
S'com.android.server.policy.GlobalActions$1'
p102
sg15
(lp103
sg17
(lp104
sg19
(lp105
sg21
I0
sba(iArchitecture
Entity
p106
(dp107
g11
(lp108
sg13
S'com.android.server.policy.GlobalActions$10'
p109
sg15
(lp110
sg17
(lp111
sg19
(lp112
sg21
I0
sba(iArchitecture
Entity
p113
(dp114
g11
(lp115
sg13
S'com.android.server.policy.GlobalActions$11'
p116
sg15
(lp117
sg17
(lp118
sg19
(lp119
sg21
I0
sba(iArchitecture
Entity
p120
(dp121
g11
(lp122
sg13
S'com.android.server.policy.GlobalActions$12'
p123
sg15
(lp124
sg17
(lp125
sg19
(lp126
sg21
I0
sba(iArchitecture
Entity
p127
(dp128
g11
(lp129
sg13
S'com.android.server.policy.GlobalActions$13'
p130
sg15
(lp131
sg17
(lp132
sg19
(lp133
sg21
I0
sba(iArchitecture
Entity
p134
(dp135
g11
(lp136
sg13
S'com.android.server.policy.GlobalActions$2'
p137
sg15
(lp138
sg17
(lp139
sg19
(lp140
sg21
I0
sba(iArchitecture
Entity
p141
(dp142
g11
(lp143
sg13
S'com.android.server.policy.GlobalActions$3'
p144
sg15
(lp145
sg17
(lp146
sg19
(lp147
sg21
I0
sba(iArchitecture
Entity
p148
(dp149
g11
(lp150
sg13
S'com.android.server.policy.GlobalActions$4'
p151
sg15
(lp152
sg17
(lp153
sg19
(lp154
sg21
I0
sba(iArchitecture
Entity
p155
(dp156
g11
(lp157
sg13
S'com.android.server.policy.GlobalActions$5'
p158
sg15
(lp159
sg17
(lp160
sg19
(lp161
sg21
I0
sba(iArchitecture
Entity
p162
(dp163
g11
(lp164
sg13
S'com.android.server.policy.GlobalActions$6'
p165
sg15
(lp166
sg17
(lp167
sg19
(lp168
sg21
I0
sba(iArchitecture
Entity
p169
(dp170
g11
(lp171
sg13
S'com.android.server.policy.GlobalActions$7'
p172
sg15
(lp173
sg17
(lp174
sg19
(lp175
sg21
I0
sba(iArchitecture
Entity
p176
(dp177
g11
(lp178
sg13
S'com.android.server.policy.GlobalActions$8'
p179
sg15
(lp180
sg17
(lp181
sg19
(lp182
sg21
I0
sba(iArchitecture
Entity
p183
(dp184
g11
(lp185
sg13
S'com.android.server.policy.GlobalActions$8$1'
p186
sg15
(lp187
sg17
(lp188
sg19
(lp189
sg21
I0
sba(iArchitecture
Entity
p190
(dp191
g11
(lp192
sg13
S'com.android.server.policy.GlobalActions$8$1$1'
p193
sg15
(lp194
sg17
(lp195
sg19
(lp196
sg21
I0
sba(iArchitecture
Entity
p197
(dp198
g11
(lp199
sg13
S'com.android.server.policy.GlobalActions$9'
p200
sg15
(lp201
sg17
(lp202
sg19
(lp203
sg21
I0
sba(iArchitecture
Entity
p204
(dp205
g11
(lp206
sg13
S'com.android.server.policy.GlobalActions$Action'
p207
sg15
(lp208
sg17
(lp209
sg19
(lp210
sg21
I0
sba(iArchitecture
Entity
p211
(dp212
g11
(lp213
sg13
S'com.android.server.policy.GlobalActions$GlobalActionsDialog'
p214
sg15
(lp215
sg17
(lp216
sg19
(lp217
sg21
I0
sba(iArchitecture
Entity
p218
(dp219
g11
(lp220
sg13
S'com.android.server.policy.GlobalActions$GlobalActionsDialog$1'
p221
sg15
(lp222
sg17
(lp223
sg19
(lp224
sg21
I0
sba(iArchitecture
Entity
p225
(dp226
g11
(lp227
sg13
S'com.android.server.policy.GlobalActions$LongPressAction'
p228
sg15
(lp229
sg17
(lp230
sg19
(lp231
sg21
I0
sba(iArchitecture
Entity
p232
(dp233
g11
(lp234
sg13
S'com.android.server.policy.GlobalActions$MyAdapter'
p235
sg15
(lp236
sg17
(lp237
sg19
(lp238
sg21
I0
sba(iArchitecture
Entity
p239
(dp240
g11
(lp241
sg13
S'com.android.server.policy.GlobalActions$PowerAction'
p242
sg15
(lp243
sg17
(lp244
sg19
(lp245
sg21
I0
sba(iArchitecture
Entity
p246
(dp247
g11
(lp248
sg13
S'com.android.server.policy.GlobalActions$SilentModeToggleAction'
p249
sg15
(lp250
sg17
(lp251
sg19
(lp252
sg21
I0
sba(iArchitecture
Entity
p253
(dp254
g11
(lp255
sg13
S'com.android.server.policy.GlobalActions$SilentModeTriStateAction'
p256
sg15
(lp257
sg17
(lp258
sg19
(lp259
sg21
I0
sba(iArchitecture
Entity
p260
(dp261
g11
(lp262
sg13
S'com.android.server.policy.GlobalActions$SinglePressAction'
p263
sg15
(lp264
sg17
(lp265
sg19
(lp266
sg21
I0
sba(iArchitecture
Entity
p267
(dp268
g11
(lp269
sg13
S'com.android.server.policy.GlobalActions$ToggleAction'
p270
sg15
(lp271
sg17
(lp272
sg19
(lp273
sg21
I0
sba(iArchitecture
Entity
p274
(dp275
g11
(lp276
sg13
S'com.android.server.policy.GlobalActions$ToggleAction$State'
p277
sg15
(lp278
sg17
(lp279
sg19
(lp280
sg21
I0
sba(iArchitecture
Entity
p281
(dp282
g11
(lp283
sg13
S'com.android.server.statusbar.StatusBarManagerInternal'
p284
sg15
(lp285
sg17
(lp286
sg19
(lp287
sg21
I0
sbasg85
(lp288
g95
ag102
ag109
ag116
ag123
ag130
ag137
ag144
ag151
ag158
ag165
ag172
ag179
ag186
ag193
ag200
ag207
ag214
ag221
ag228
ag235
ag242
ag249
ag256
ag263
ag270
ag277
ag284
asg21
I0
sg87
S'1175'
p289
sba(iArchitecture
Cluster
p290
(dp291
g7
(lp292
(iArchitecture
Entity
p293
(dp294
g11
(lp295
sg13
S'android.mtp.MtpDeviceInfo'
p296
sg15
(lp297
sg17
(lp298
sg19
(lp299
sg21
I0
sbasg85
(lp300
g296
asg21
I0
sg87
S'175'
p301
sba(iArchitecture
Cluster
p302
(dp303
g7
(lp304
(iArchitecture
Entity
p305
(dp306
g11
(lp307
sg13
S'android.telecom.ConnectionServiceAdapter'
p308
sg15
(lp309
sg17
(lp310
sg19
(lp311
sg21
I0
sbasg85
(lp312
g308
asg21
I0
sg87
S'275'
p313
sba(iArchitecture
Cluster
p314
(dp315
g7
(lp316
(iArchitecture
Entity
p317
(dp318
g11
(lp319
sg13
S'com.android.server.accessibility.DisplayAdjustmentUtils'
p320
sg15
(lp321
sg17
(lp322
sg19
(lp323
sg21
I0
sbasg85
(lp324
g320
asg21
I0
sg87
S'375'
p325
sba(iArchitecture
Cluster
p326
(dp327
g7
(lp328
(iArchitecture
Entity
p329
(dp330
g11
(lp331
sg13
S'com.android.internal.os.KernelUidCpuTimeReader'
p332
sg15
(lp333
sg17
(lp334
sg19
(lp335
sg21
I0
sba(iArchitecture
Entity
p336
(dp337
g11
(lp338
sg13
S'com.android.internal.os.KernelUidCpuTimeReader$Callback'
p339
sg15
(lp340
sg17
(lp341
sg19
(lp342
sg21
I0
sbasg85
(lp343
g332
ag339
asg21
I0
sg87
S'475'
p344
sba(iArchitecture
Cluster
p345
(dp346
g7
(lp347
(iArchitecture
Entity
p348
(dp349
g11
(lp350
sg13
S'android.opengl.GLLogWrapper'
p351
sg15
(lp352
sg17
(lp353
sg19
(lp354
sg21
I0
sba(iArchitecture
Entity
p355
(dp356
g11
(lp357
sg13
S'android.opengl.GLLogWrapper$PointerInfo'
p358
sg15
(lp359
sg17
(lp360
sg19
(lp361
sg21
I0
sbasg85
(lp362
g351
ag358
asg21
I0
sg87
S'575'
p363
sba(iArchitecture
Cluster
p364
(dp365
g7
(lp366
(iArchitecture
Entity
p367
(dp368
g11
(lp369
sg13
S'android.inputmethodservice.SoftInputWindow'
p370
sg15
(lp371
sg17
(lp372
sg19
(lp373
sg21
I0
sba(iArchitecture
Entity
p374
(dp375
g11
(lp376
sg13
S'android.inputmethodservice.SoftInputWindow$Callback'
p377
sg15
(lp378
sg17
(lp379
sg19
(lp380
sg21
I0
sbasg85
(lp381
g370
ag377
asg21
I0
sg87
S'675'
p382
sba(iArchitecture
Cluster
p383
(dp384
g7
(lp385
(iArchitecture
Entity
p386
(dp387
g11
(lp388
sg13
S'com.android.server.pm.DefaultPermissionGrantPolicy'
p389
sg15
(lp390
sg17
(lp391
sg19
(lp392
sg21
I0
sbasg85
(lp393
g389
asg21
I0
sg87
S'75'
p394
sba(iArchitecture
Cluster
p395
(dp396
g7
(lp397
(iArchitecture
Entity
p398
(dp399
g11
(lp400
sg13
S'android.hardware.radio.RadioModule'
p401
sg15
(lp402
sg17
(lp403
sg19
(lp404
sg21
I0
sba(iArchitecture
Entity
p405
(dp406
g11
(lp407
sg13
S'android.hardware.radio.RadioModule$NativeEventHandlerDelegate'
p408
sg15
(lp409
sg17
(lp410
sg19
(lp411
sg21
I0
sba(iArchitecture
Entity
p412
(dp413
g11
(lp414
sg13
S'android.hardware.radio.RadioModule$NativeEventHandlerDelegate$1'
p415
sg15
(lp416
sg17
(lp417
sg19
(lp418
sg21
I0
sbasg85
(lp419
g401
ag408
ag415
asg21
I0
sg87
S'750'
p420
sba(iArchitecture
Cluster
p421
(dp422
g7
(lp423
(iArchitecture
Entity
p424
(dp425
g11
(lp426
sg13
S'android.graphics.drawable.GradientDrawable'
p427
sg15
(lp428
sg17
(lp429
sg19
(lp430
sg21
I0
sba(iArchitecture
Entity
p431
(dp432
g11
(lp433
sg13
S'android.graphics.drawable.GradientDrawable$GradientState'
p434
sg15
(lp435
sg17
(lp436
sg19
(lp437
sg21
I0
sba(iArchitecture
Entity
p438
(dp439
g11
(lp440
sg13
S'android.graphics.drawable.GradientDrawable$Orientation'
p441
sg15
(lp442
sg17
(lp443
sg19
(lp444
sg21
I0
sbasg85
(lp445
g427
ag434
ag441
asg21
I0
sg87
S'751'
p446
sba(iArchitecture
Cluster
p447
(dp448
g7
(lp449
(iArchitecture
Entity
p450
(dp451
g11
(lp452
sg13
S'android.graphics.Matrix'
p453
sg15
(lp454
sg17
(lp455
sg19
(lp456
sg21
I0
sba(iArchitecture
Entity
p457
(dp458
g11
(lp459
sg13
S'android.graphics.Matrix$1'
p460
sg15
(lp461
sg17
(lp462
sg19
(lp463
sg21
I0
sba(iArchitecture
Entity
p464
(dp465
g11
(lp466
sg13
S'android.graphics.Matrix$ScaleToFit'
p467
sg15
(lp468
sg17
(lp469
sg19
(lp470
sg21
I0
sbasg85
(lp471
g453
ag460
ag467
asg21
I0
sg87
S'752'
p472
sba(iArchitecture
Cluster
p473
(dp474
g7
(lp475
(iArchitecture
Entity
p476
(dp477
g11
(lp478
sg13
S'android.media.audiopolicy.AudioMixingRule'
p479
sg15
(lp480
sg17
(lp481
sg19
(lp482
sg21
I0
sba(iArchitecture
Entity
p483
(dp484
g11
(lp485
sg13
S'android.media.audiopolicy.AudioMixingRule$AttributeMatchCriterion'
p486
sg15
(lp487
sg17
(lp488
sg19
(lp489
sg21
I0
sba(iArchitecture
Entity
p490
(dp491
g11
(lp492
sg13
S'android.media.audiopolicy.AudioMixingRule$Builder'
p493
sg15
(lp494
sg17
(lp495
sg19
(lp496
sg21
I0
sbasg85
(lp497
g479
ag486
ag493
asg21
I0
sg87
S'753'
p498
sba(iArchitecture
Cluster
p499
(dp500
g7
(lp501
(iArchitecture
Entity
p502
(dp503
g11
(lp504
sg13
S'android.service.voice.VoiceInteractionSessionService'
p505
sg15
(lp506
sg17
(lp507
sg19
(lp508
sg21
I0
sba(iArchitecture
Entity
p509
(dp510
g11
(lp511
sg13
S'android.service.voice.VoiceInteractionSessionService$1'
p512
sg15
(lp513
sg17
(lp514
sg19
(lp515
sg21
I0
sba(iArchitecture
Entity
p516
(dp517
g11
(lp518
sg13
S'android.service.voice.VoiceInteractionSessionService$2'
p519
sg15
(lp520
sg17
(lp521
sg19
(lp522
sg21
I0
sbasg85
(lp523
g505
ag512
ag519
asg21
I0
sg87
S'754'
p524
sba(iArchitecture
Cluster
p525
(dp526
g7
(lp527
(iArchitecture
Entity
p528
(dp529
g11
(lp530
sg13
S'android.print.PrinterCapabilitiesInfo'
p531
sg15
(lp532
sg17
(lp533
sg19
(lp534
sg21
I0
sba(iArchitecture
Entity
p535
(dp536
g11
(lp537
sg13
S'android.print.PrinterCapabilitiesInfo$1'
p538
sg15
(lp539
sg17
(lp540
sg19
(lp541
sg21
I0
sba(iArchitecture
Entity
p542
(dp543
g11
(lp544
sg13
S'android.print.PrinterCapabilitiesInfo$Builder'
p545
sg15
(lp546
sg17
(lp547
sg19
(lp548
sg21
I0
sbasg85
(lp549
g531
ag538
ag545
asg21
I0
sg87
S'755'
p550
sba(iArchitecture
Cluster
p551
(dp552
g7
(lp553
(iArchitecture
Entity
p554
(dp555
g11
(lp556
sg13
S'android.graphics.drawable.LayerDrawable'
p557
sg15
(lp558
sg17
(lp559
sg19
(lp560
sg21
I0
sba(iArchitecture
Entity
p561
(dp562
g11
(lp563
sg13
S'android.graphics.drawable.LayerDrawable$ChildDrawable'
p564
sg15
(lp565
sg17
(lp566
sg19
(lp567
sg21
I0
sba(iArchitecture
Entity
p568
(dp569
g11
(lp570
sg13
S'android.graphics.drawable.LayerDrawable$LayerState'
p571
sg15
(lp572
sg17
(lp573
sg19
(lp574
sg21
I0
sbasg85
(lp575
g557
ag564
ag571
asg21
I0
sg87
S'756'
p576
sba(iArchitecture
Cluster
p577
(dp578
g7
(lp579
(iArchitecture
Entity
p580
(dp581
g11
(lp582
sg13
S'android.view.WindowManagerGlobal'
p583
sg15
(lp584
sg17
(lp585
sg19
(lp586
sg21
I0
sba(iArchitecture
Entity
p587
(dp588
g11
(lp589
sg13
S'android.view.WindowManagerGlobal$1'
p590
sg15
(lp591
sg17
(lp592
sg19
(lp593
sg21
I0
sba(iArchitecture
Entity
p594
(dp595
g11
(lp596
sg13
S'android.view.WindowManagerGlobal$2'
p597
sg15
(lp598
sg17
(lp599
sg19
(lp600
sg21
I0
sbasg85
(lp601
g583
ag590
ag597
asg21
I0
sg87
S'757'
p602
sba(iArchitecture
Cluster
p603
(dp604
g7
(lp605
(iArchitecture
Entity
p606
(dp607
g11
(lp608
sg13
S'android.content.AbstractThreadedSyncAdapter'
p609
sg15
(lp610
sg17
(lp611
sg19
(lp612
sg21
I0
sba(iArchitecture
Entity
p613
(dp614
g11
(lp615
sg13
S'android.content.AbstractThreadedSyncAdapter$ISyncAdapterImpl'
p616
sg15
(lp617
sg17
(lp618
sg19
(lp619
sg21
I0
sba(iArchitecture
Entity
p620
(dp621
g11
(lp622
sg13
S'android.content.AbstractThreadedSyncAdapter$SyncThread'
p623
sg15
(lp624
sg17
(lp625
sg19
(lp626
sg21
I0
sbasg85
(lp627
g609
ag616
ag623
asg21
I0
sg87
S'758'
p628
sba(iArchitecture
Cluster
p629
(dp630
g7
(lp631
(iArchitecture
Entity
p632
(dp633
g11
(lp634
sg13
S'android.app.TimePickerDialog'
p635
sg15
(lp636
sg17
(lp637
sg19
(lp638
sg21
I0
sba(iArchitecture
Entity
p639
(dp640
g11
(lp641
sg13
S'android.app.TimePickerDialog$1'
p642
sg15
(lp643
sg17
(lp644
sg19
(lp645
sg21
I0
sba(iArchitecture
Entity
p646
(dp647
g11
(lp648
sg13
S'android.app.TimePickerDialog$OnTimeSetListener'
p649
sg15
(lp650
sg17
(lp651
sg19
(lp652
sg21
I0
sbasg85
(lp653
g635
ag642
ag649
asg21
I0
sg87
S'759'
p654
sba(iArchitecture
Cluster
p655
(dp656
g7
(lp657
(iArchitecture
Entity
p658
(dp659
g11
(lp660
sg13
S'android.widget.SpellChecker'
p661
sg15
(lp662
sg17
(lp663
sg19
(lp664
sg21
I0
sba(iArchitecture
Entity
p665
(dp666
g11
(lp667
sg13
S'android.widget.SpellChecker$1'
p668
sg15
(lp669
sg17
(lp670
sg19
(lp671
sg21
I0
sba(iArchitecture
Entity
p672
(dp673
g11
(lp674
sg13
S'android.widget.SpellChecker$SpellParser'
p675
sg15
(lp676
sg17
(lp677
sg19
(lp678
sg21
I0
sbasg85
(lp679
g661
ag668
ag675
asg21
I0
sg87
S'775'
p680
sba(iArchitecture
Cluster
p681
(dp682
g7
(lp683
(iArchitecture
Entity
p684
(dp685
g11
(lp686
sg13
S'android.content.IntentFilter'
p687
sg15
(lp688
sg17
(lp689
sg19
(lp690
sg21
I0
sba(iArchitecture
Entity
p691
(dp692
g11
(lp693
sg13
S'android.content.IntentFilter$1'
p694
sg15
(lp695
sg17
(lp696
sg19
(lp697
sg21
I0
sba(iArchitecture
Entity
p698
(dp699
g11
(lp700
sg13
S'android.content.IntentFilter$AuthorityEntry'
p701
sg15
(lp702
sg17
(lp703
sg19
(lp704
sg21
I0
sba(iArchitecture
Entity
p705
(dp706
g11
(lp707
sg13
S'android.content.IntentFilter$MalformedMimeTypeException'
p708
sg15
(lp709
sg17
(lp710
sg19
(lp711
sg21
I0
sbasg85
(lp712
g687
ag694
ag701
ag708
asg21
I0
sg87
S'875'
p713
sba(iArchitecture
Cluster
p714
(dp715
g7
(lp716
(iArchitecture
Entity
p717
(dp718
g11
(lp719
sg13
S'android.os.CommonClock'
p720
sg15
(lp721
sg17
(lp722
sg19
(lp723
sg21
I0
sba(iArchitecture
Entity
p724
(dp725
g11
(lp726
sg13
S'android.os.CommonClock$1'
p727
sg15
(lp728
sg17
(lp729
sg19
(lp730
sg21
I0
sba(iArchitecture
Entity
p731
(dp732
g11
(lp733
sg13
S'android.os.CommonClock$OnServerDiedListener'
p734
sg15
(lp735
sg17
(lp736
sg19
(lp737
sg21
I0
sba(iArchitecture
Entity
p738
(dp739
g11
(lp740
sg13
S'android.os.CommonClock$OnTimelineChangedListener'
p741
sg15
(lp742
sg17
(lp743
sg19
(lp744
sg21
I0
sba(iArchitecture
Entity
p745
(dp746
g11
(lp747
sg13
S'android.os.CommonClock$TimelineChangedListener'
p748
sg15
(lp749
sg17
(lp750
sg19
(lp751
sg21
I0
sbasg85
(lp752
g720
ag727
ag734
ag741
ag748
asg21
I0
sg87
S'975'
p753
sbasS'target_sub'
p754
S'75'
p755
sg85
(lp756
sS'is_component_arch'
p757
I01
sg87
S'6.0.0_r1'
p758
sba.