(lp0
(iArchitecture
Architecture
p1
(dp2
S'clusters'
p3
(lp4
(iArchitecture
Cluster
p5
(dp6
S'entities'
p7
(lp8
(iArchitecture
Entity
p9
(dp10
S'issue_ids'
p11
(lp12
sS'name'
p13
S'android.renderscript.ScriptGroup'
p14
sS'descs'
p15
(lp16
sS'labels'
p17
(lp18
sS'titles'
p19
(lp20
sS'change'
p21
I0
sba(iArchitecture
Entity
p22
(dp23
g11
(lp24
sg13
S'android.renderscript.ScriptGroup$Binding'
p25
sg15
(lp26
sg17
(lp27
sg19
(lp28
sg21
I0
sba(iArchitecture
Entity
p29
(dp30
g11
(lp31
sg13
S'android.renderscript.ScriptGroup$Builder'
p32
sg15
(lp33
sg17
(lp34
sg19
(lp35
sg21
I0
sba(iArchitecture
Entity
p36
(dp37
g11
(lp38
sg13
S'android.renderscript.ScriptGroup$Builder2'
p39
sg15
(lp40
sg17
(lp41
sg19
(lp42
sg21
I0
sba(iArchitecture
Entity
p43
(dp44
g11
(lp45
sg13
S'android.renderscript.ScriptGroup$Closure'
p46
sg15
(lp47
sg17
(lp48
sg19
(lp49
sg21
I0
sba(iArchitecture
Entity
p50
(dp51
g11
(lp52
sg13
S'android.renderscript.ScriptGroup$Closure$ValueAndSize'
p53
sg15
(lp54
sg17
(lp55
sg19
(lp56
sg21
I0
sba(iArchitecture
Entity
p57
(dp58
g11
(lp59
sg13
S'android.renderscript.ScriptGroup$ConnectLine'
p60
sg15
(lp61
sg17
(lp62
sg19
(lp63
sg21
I0
sba(iArchitecture
Entity
p64
(dp65
g11
(lp66
sg13
S'android.renderscript.ScriptGroup$Future'
p67
sg15
(lp68
sg17
(lp69
sg19
(lp70
sg21
I0
sba(iArchitecture
Entity
p71
(dp72
g11
(lp73
sg13
S'android.renderscript.ScriptGroup$IO'
p74
sg15
(lp75
sg17
(lp76
sg19
(lp77
sg21
I0
sba(iArchitecture
Entity
p78
(dp79
g11
(lp80
sg13
S'android.renderscript.ScriptGroup$Input'
p81
sg15
(lp82
sg17
(lp83
sg19
(lp84
sg21
I0
sba(iArchitecture
Entity
p85
(dp86
g11
(lp87
sg13
S'android.renderscript.ScriptGroup$Node'
p88
sg15
(lp89
sg17
(lp90
sg19
(lp91
sg21
I0
sbasS'classes'
p92
(lp93
g14
ag25
ag32
ag39
ag46
ag53
ag60
ag67
ag74
ag81
ag88
asg21
I0
sS'label'
p94
S'1069'
p95
sba(iArchitecture
Cluster
p96
(dp97
g7
(lp98
(iArchitecture
Entity
p99
(dp100
g11
(lp101
sg13
S'android.filterpacks.videosrc.MediaSource'
p102
sg15
(lp103
sg17
(lp104
sg19
(lp105
sg21
I0
sba(iArchitecture
Entity
p106
(dp107
g11
(lp108
sg13
S'android.filterpacks.videosrc.MediaSource$1'
p109
sg15
(lp110
sg17
(lp111
sg19
(lp112
sg21
I0
sba(iArchitecture
Entity
p113
(dp114
g11
(lp115
sg13
S'android.filterpacks.videosrc.MediaSource$2'
p116
sg15
(lp117
sg17
(lp118
sg19
(lp119
sg21
I0
sba(iArchitecture
Entity
p120
(dp121
g11
(lp122
sg13
S'android.filterpacks.videosrc.MediaSource$3'
p123
sg15
(lp124
sg17
(lp125
sg19
(lp126
sg21
I0
sba(iArchitecture
Entity
p127
(dp128
g11
(lp129
sg13
S'android.filterpacks.videosrc.MediaSource$4'
p130
sg15
(lp131
sg17
(lp132
sg19
(lp133
sg21
I0
sba(iArchitecture
Entity
p134
(dp135
g11
(lp136
sg13
S'android.filterpacks.videosrc.SurfaceTextureSource'
p137
sg15
(lp138
sg17
(lp139
sg19
(lp140
sg21
I0
sba(iArchitecture
Entity
p141
(dp142
g11
(lp143
sg13
S'android.filterpacks.videosrc.SurfaceTextureSource$1'
p144
sg15
(lp145
sg17
(lp146
sg19
(lp147
sg21
I0
sba(iArchitecture
Entity
p148
(dp149
g11
(lp150
sg13
S'android.filterpacks.videosrc.SurfaceTextureSource$SurfaceTextureSourceListener'
p151
sg15
(lp152
sg17
(lp153
sg19
(lp154
sg21
I0
sbasg92
(lp155
g102
ag109
ag116
ag123
ag130
ag137
ag144
ag151
asg21
I0
sg94
S'1169'
p156
sba(iArchitecture
Cluster
p157
(dp158
g7
(lp159
(iArchitecture
Entity
p160
(dp161
g11
(lp162
sg13
S'android.util.JsonWriter'
p163
sg15
(lp164
sg17
(lp165
sg19
(lp166
sg21
I0
sbasg92
(lp167
g163
asg21
I0
sg94
S'169'
p168
sba(iArchitecture
Cluster
p169
(dp170
g7
(lp171
(iArchitecture
Entity
p172
(dp173
g11
(lp174
sg13
S'android.util.MathUtils'
p175
sg15
(lp176
sg17
(lp177
sg19
(lp178
sg21
I0
sbasg92
(lp179
g175
asg21
I0
sg94
S'269'
p180
sba(iArchitecture
Cluster
p181
(dp182
g7
(lp183
(iArchitecture
Entity
p184
(dp185
g11
(lp186
sg13
S'android.app.TaskStackBuilder'
p187
sg15
(lp188
sg17
(lp189
sg19
(lp190
sg21
I0
sbasg92
(lp191
g187
asg21
I0
sg94
S'369'
p192
sba(iArchitecture
Cluster
p193
(dp194
g7
(lp195
(iArchitecture
Entity
p196
(dp197
g11
(lp198
sg13
S'com.android.ims.ImsStreamMediaProfile'
p199
sg15
(lp200
sg17
(lp201
sg19
(lp202
sg21
I0
sba(iArchitecture
Entity
p203
(dp204
g11
(lp205
sg13
S'com.android.ims.ImsStreamMediaProfile$1'
p206
sg15
(lp207
sg17
(lp208
sg19
(lp209
sg21
I0
sbasg92
(lp210
g199
ag206
asg21
I0
sg94
S'469'
p211
sba(iArchitecture
Cluster
p212
(dp213
g7
(lp214
(iArchitecture
Entity
p215
(dp216
g11
(lp217
sg13
S'android.telecom.ConferenceParticipant'
p218
sg15
(lp219
sg17
(lp220
sg19
(lp221
sg21
I0
sba(iArchitecture
Entity
p222
(dp223
g11
(lp224
sg13
S'android.telecom.ConferenceParticipant$1'
p225
sg15
(lp226
sg17
(lp227
sg19
(lp228
sg21
I0
sbasg92
(lp229
g218
ag225
asg21
I0
sg94
S'569'
p230
sba(iArchitecture
Cluster
p231
(dp232
g7
(lp233
(iArchitecture
Entity
p234
(dp235
g11
(lp236
sg13
S'android.graphics.NinePatch'
p237
sg15
(lp238
sg17
(lp239
sg19
(lp240
sg21
I0
sba(iArchitecture
Entity
p241
(dp242
g11
(lp243
sg13
S'android.graphics.NinePatch$InsetStruct'
p244
sg15
(lp245
sg17
(lp246
sg19
(lp247
sg21
I0
sbasg92
(lp248
g237
ag244
asg21
I0
sg94
S'669'
p249
sba(iArchitecture
Cluster
p250
(dp251
g7
(lp252
(iArchitecture
Entity
p253
(dp254
g11
(lp255
sg13
S'com.android.internal.widget.DrawableHolder'
p256
sg15
(lp257
sg17
(lp258
sg19
(lp259
sg21
I0
sbasg92
(lp260
g256
asg21
I0
sg94
S'69'
p261
sba(iArchitecture
Cluster
p262
(dp263
g7
(lp264
(iArchitecture
Entity
p265
(dp266
g11
(lp267
sg13
S'android.hardware.hdmi.HdmiDeviceInfo'
p268
sg15
(lp269
sg17
(lp270
sg19
(lp271
sg21
I0
sba(iArchitecture
Entity
p272
(dp273
g11
(lp274
sg13
S'android.hardware.hdmi.HdmiDeviceInfo$1'
p275
sg15
(lp276
sg17
(lp277
sg19
(lp278
sg21
I0
sbasg92
(lp279
g268
ag275
asg21
I0
sg94
S'690'
p280
sba(iArchitecture
Cluster
p281
(dp282
g7
(lp283
(iArchitecture
Entity
p284
(dp285
g11
(lp286
sg13
S'android.location.Location'
p287
sg15
(lp288
sg17
(lp289
sg19
(lp290
sg21
I0
sba(iArchitecture
Entity
p291
(dp292
g11
(lp293
sg13
S'android.location.Location$1'
p294
sg15
(lp295
sg17
(lp296
sg19
(lp297
sg21
I0
sbasg92
(lp298
g287
ag294
asg21
I0
sg94
S'691'
p299
sba(iArchitecture
Cluster
p300
(dp301
g7
(lp302
(iArchitecture
Entity
p303
(dp304
g11
(lp305
sg13
S'android.text.format.Time'
p306
sg15
(lp307
sg17
(lp308
sg19
(lp309
sg21
I0
sba(iArchitecture
Entity
p310
(dp311
g11
(lp312
sg13
S'android.text.format.Time$TimeCalculator'
p313
sg15
(lp314
sg17
(lp315
sg19
(lp316
sg21
I0
sbasg92
(lp317
g306
ag313
asg21
I0
sg94
S'692'
p318
sba(iArchitecture
Cluster
p319
(dp320
g7
(lp321
(iArchitecture
Entity
p322
(dp323
g11
(lp324
sg13
S'android.net.NetworkPolicy'
p325
sg15
(lp326
sg17
(lp327
sg19
(lp328
sg21
I0
sba(iArchitecture
Entity
p329
(dp330
g11
(lp331
sg13
S'android.net.NetworkPolicy$1'
p332
sg15
(lp333
sg17
(lp334
sg19
(lp335
sg21
I0
sbasg92
(lp336
g325
ag332
asg21
I0
sg94
S'693'
p337
sba(iArchitecture
Cluster
p338
(dp339
g7
(lp340
(iArchitecture
Entity
p341
(dp342
g11
(lp343
sg13
S'android.media.projection.MediaProjectionInfo'
p344
sg15
(lp345
sg17
(lp346
sg19
(lp347
sg21
I0
sba(iArchitecture
Entity
p348
(dp349
g11
(lp350
sg13
S'android.media.projection.MediaProjectionInfo$1'
p351
sg15
(lp352
sg17
(lp353
sg19
(lp354
sg21
I0
sbasg92
(lp355
g344
ag351
asg21
I0
sg94
S'694'
p356
sba(iArchitecture
Cluster
p357
(dp358
g7
(lp359
(iArchitecture
Entity
p360
(dp361
g11
(lp362
sg13
S'android.bluetooth.BluetoothAudioConfig'
p363
sg15
(lp364
sg17
(lp365
sg19
(lp366
sg21
I0
sba(iArchitecture
Entity
p367
(dp368
g11
(lp369
sg13
S'android.bluetooth.BluetoothAudioConfig$1'
p370
sg15
(lp371
sg17
(lp372
sg19
(lp373
sg21
I0
sbasg92
(lp374
g363
ag370
asg21
I0
sg94
S'695'
p375
sba(iArchitecture
Cluster
p376
(dp377
g7
(lp378
(iArchitecture
Entity
p379
(dp380
g11
(lp381
sg13
S'com.android.internal.statusbar.StatusBarIcon'
p382
sg15
(lp383
sg17
(lp384
sg19
(lp385
sg21
I0
sba(iArchitecture
Entity
p386
(dp387
g11
(lp388
sg13
S'com.android.internal.statusbar.StatusBarIcon$1'
p389
sg15
(lp390
sg17
(lp391
sg19
(lp392
sg21
I0
sbasg92
(lp393
g382
ag389
asg21
I0
sg94
S'696'
p394
sba(iArchitecture
Cluster
p395
(dp396
g7
(lp397
(iArchitecture
Entity
p398
(dp399
g11
(lp400
sg13
S'com.android.server.am.ContentProviderRecord'
p401
sg15
(lp402
sg17
(lp403
sg19
(lp404
sg21
I0
sba(iArchitecture
Entity
p405
(dp406
g11
(lp407
sg13
S'com.android.server.am.ContentProviderRecord$ExternalProcessHandle'
p408
sg15
(lp409
sg17
(lp410
sg19
(lp411
sg21
I0
sbasg92
(lp412
g401
ag408
asg21
I0
sg94
S'697'
p413
sba(iArchitecture
Cluster
p414
(dp415
g7
(lp416
(iArchitecture
Entity
p417
(dp418
g11
(lp419
sg13
S'com.android.internal.app.ResolverComparator'
p420
sg15
(lp421
sg17
(lp422
sg19
(lp423
sg21
I0
sba(iArchitecture
Entity
p424
(dp425
g11
(lp426
sg13
S'com.android.internal.app.ResolverComparator$ScoredTarget'
p427
sg15
(lp428
sg17
(lp429
sg19
(lp430
sg21
I0
sbasg92
(lp431
g420
ag427
asg21
I0
sg94
S'698'
p432
sba(iArchitecture
Cluster
p433
(dp434
g7
(lp435
(iArchitecture
Entity
p436
(dp437
g11
(lp438
sg13
S'android.widget.RatingBar'
p439
sg15
(lp440
sg17
(lp441
sg19
(lp442
sg21
I0
sba(iArchitecture
Entity
p443
(dp444
g11
(lp445
sg13
S'android.widget.RatingBar$OnRatingBarChangeListener'
p446
sg15
(lp447
sg17
(lp448
sg19
(lp449
sg21
I0
sbasg92
(lp450
g439
ag446
asg21
I0
sg94
S'699'
p451
sba(iArchitecture
Cluster
p452
(dp453
g7
(lp454
(iArchitecture
Entity
p455
(dp456
g11
(lp457
sg13
S'android.media.MediaDescription'
p458
sg15
(lp459
sg17
(lp460
sg19
(lp461
sg21
I0
sba(iArchitecture
Entity
p462
(dp463
g11
(lp464
sg13
S'android.media.MediaDescription$1'
p465
sg15
(lp466
sg17
(lp467
sg19
(lp468
sg21
I0
sba(iArchitecture
Entity
p469
(dp470
g11
(lp471
sg13
S'android.media.MediaDescription$Builder'
p472
sg15
(lp473
sg17
(lp474
sg19
(lp475
sg21
I0
sbasg92
(lp476
g458
ag465
ag472
asg21
I0
sg94
S'769'
p477
sba(iArchitecture
Cluster
p478
(dp479
g7
(lp480
(iArchitecture
Entity
p481
(dp482
g11
(lp483
sg13
S'android.inputmethodservice.AbstractInputMethodService'
p484
sg15
(lp485
sg17
(lp486
sg19
(lp487
sg21
I0
sba(iArchitecture
Entity
p488
(dp489
g11
(lp490
sg13
S'android.inputmethodservice.AbstractInputMethodService$AbstractInputMethodImpl'
p491
sg15
(lp492
sg17
(lp493
sg19
(lp494
sg21
I0
sba(iArchitecture
Entity
p495
(dp496
g11
(lp497
sg13
S'android.inputmethodservice.AbstractInputMethodService$AbstractInputMethodSessionImpl'
p498
sg15
(lp499
sg17
(lp500
sg19
(lp501
sg21
I0
sbasg92
(lp502
g484
ag491
ag498
asg21
I0
sg94
S'869'
p503
sba(iArchitecture
Cluster
p504
(dp505
g7
(lp506
(iArchitecture
Entity
p507
(dp508
g11
(lp509
sg13
S'com.android.server.search.SearchManagerService'
p510
sg15
(lp511
sg17
(lp512
sg19
(lp513
sg21
I0
sba(iArchitecture
Entity
p514
(dp515
g11
(lp516
sg13
S'com.android.server.search.SearchManagerService$BootCompletedReceiver'
p517
sg15
(lp518
sg17
(lp519
sg19
(lp520
sg21
I0
sba(iArchitecture
Entity
p521
(dp522
g11
(lp523
sg13
S'com.android.server.search.SearchManagerService$BootCompletedReceiver$1'
p524
sg15
(lp525
sg17
(lp526
sg19
(lp527
sg21
I0
sba(iArchitecture
Entity
p528
(dp529
g11
(lp530
sg13
S'com.android.server.search.SearchManagerService$GlobalSearchProviderObserver'
p531
sg15
(lp532
sg17
(lp533
sg19
(lp534
sg21
I0
sba(iArchitecture
Entity
p535
(dp536
g11
(lp537
sg13
S'com.android.server.search.SearchManagerService$MyPackageMonitor'
p538
sg15
(lp539
sg17
(lp540
sg19
(lp541
sg21
I0
sba(iArchitecture
Entity
p542
(dp543
g11
(lp544
sg13
S'com.android.server.search.SearchManagerService$UserReceiver'
p545
sg15
(lp546
sg17
(lp547
sg19
(lp548
sg21
I0
sbasg92
(lp549
g510
ag517
ag524
ag531
ag538
ag545
asg21
I0
sg94
S'969'
p550
sbasS'target_sub'
p551
S'69'
p552
sg92
(lp553
sS'is_component_arch'
p554
I01
sg94
S'6.0.0_r1'
p555
sba.