(lp0
(iArchitecture
Architecture
p1
(dp2
S'clusters'
p3
(lp4
(iArchitecture
Cluster
p5
(dp6
S'entities'
p7
(lp8
(iArchitecture
Entity
p9
(dp10
S'issue_ids'
p11
(lp12
sS'name'
p13
S'android.widget.ActivityChooserModel'
p14
sS'descs'
p15
(lp16
sS'labels'
p17
(lp18
sS'titles'
p19
(lp20
sS'change'
p21
I0
sba(iArchitecture
Entity
p22
(dp23
g11
(lp24
sg13
S'android.widget.ActivityChooserModel$ActivityChooserModelClient'
p25
sg15
(lp26
sg17
(lp27
sg19
(lp28
sg21
I0
sba(iArchitecture
Entity
p29
(dp30
g11
(lp31
sg13
S'android.widget.ActivityChooserModel$ActivityResolveInfo'
p32
sg15
(lp33
sg17
(lp34
sg19
(lp35
sg21
I0
sba(iArchitecture
Entity
p36
(dp37
g11
(lp38
sg13
S'android.widget.ActivityChooserModel$ActivitySorter'
p39
sg15
(lp40
sg17
(lp41
sg19
(lp42
sg21
I0
sba(iArchitecture
Entity
p43
(dp44
g11
(lp45
sg13
S'android.widget.ActivityChooserModel$DataModelPackageMonitor'
p46
sg15
(lp47
sg17
(lp48
sg19
(lp49
sg21
I0
sba(iArchitecture
Entity
p50
(dp51
g11
(lp52
sg13
S'android.widget.ActivityChooserModel$DefaultSorter'
p53
sg15
(lp54
sg17
(lp55
sg19
(lp56
sg21
I0
sba(iArchitecture
Entity
p57
(dp58
g11
(lp59
sg13
S'android.widget.ActivityChooserModel$HistoricalRecord'
p60
sg15
(lp61
sg17
(lp62
sg19
(lp63
sg21
I0
sba(iArchitecture
Entity
p64
(dp65
g11
(lp66
sg13
S'android.widget.ActivityChooserModel$OnChooseActivityListener'
p67
sg15
(lp68
sg17
(lp69
sg19
(lp70
sg21
I0
sba(iArchitecture
Entity
p71
(dp72
g11
(lp73
sg13
S'android.widget.ActivityChooserModel$PersistHistoryAsyncTask'
p74
sg15
(lp75
sg17
(lp76
sg19
(lp77
sg21
I0
sbasS'classes'
p78
(lp79
g14
ag25
ag32
ag39
ag46
ag53
ag60
ag67
ag74
asg21
I0
sS'label'
p80
S'1056'
p81
sba(iArchitecture
Cluster
p82
(dp83
g7
(lp84
(iArchitecture
Entity
p85
(dp86
g11
(lp87
sg13
S'android.hardware.location.GeofenceHardwareCallback'
p88
sg15
(lp89
sg17
(lp90
sg19
(lp91
sg21
I0
sba(iArchitecture
Entity
p92
(dp93
g11
(lp94
sg13
S'android.hardware.location.GeofenceHardwareMonitorCallback'
p95
sg15
(lp96
sg17
(lp97
sg19
(lp98
sg21
I0
sbasg78
(lp99
g88
ag95
asg21
I0
sg80
S'1156'
p100
sba(iArchitecture
Cluster
p101
(dp102
g7
(lp103
(iArchitecture
Entity
p104
(dp105
g11
(lp106
sg13
S'android.widget.CalendarView'
p107
sg15
(lp108
sg17
(lp109
sg19
(lp110
sg21
I0
sba(iArchitecture
Entity
p111
(dp112
g11
(lp113
sg13
S'android.widget.CalendarView$AbstractCalendarViewDelegate'
p114
sg15
(lp115
sg17
(lp116
sg19
(lp117
sg21
I0
sba(iArchitecture
Entity
p118
(dp119
g11
(lp120
sg13
S'android.widget.CalendarView$CalendarViewDelegate'
p121
sg15
(lp122
sg17
(lp123
sg19
(lp124
sg21
I0
sba(iArchitecture
Entity
p125
(dp126
g11
(lp127
sg13
S'android.widget.CalendarView$OnDateChangeListener'
p128
sg15
(lp129
sg17
(lp130
sg19
(lp131
sg21
I0
sba(iArchitecture
Entity
p132
(dp133
g11
(lp134
sg13
S'android.widget.CalendarViewLegacyDelegate'
p135
sg15
(lp136
sg17
(lp137
sg19
(lp138
sg21
I0
sba(iArchitecture
Entity
p139
(dp140
g11
(lp141
sg13
S'android.widget.CalendarViewLegacyDelegate$1'
p142
sg15
(lp143
sg17
(lp144
sg19
(lp145
sg21
I0
sba(iArchitecture
Entity
p146
(dp147
g11
(lp148
sg13
S'android.widget.CalendarViewLegacyDelegate$2'
p149
sg15
(lp150
sg17
(lp151
sg19
(lp152
sg21
I0
sba(iArchitecture
Entity
p153
(dp154
g11
(lp155
sg13
S'android.widget.CalendarViewLegacyDelegate$ScrollStateRunnable'
p156
sg15
(lp157
sg17
(lp158
sg19
(lp159
sg21
I0
sba(iArchitecture
Entity
p160
(dp161
g11
(lp162
sg13
S'android.widget.CalendarViewLegacyDelegate$WeekView'
p163
sg15
(lp164
sg17
(lp165
sg19
(lp166
sg21
I0
sba(iArchitecture
Entity
p167
(dp168
g11
(lp169
sg13
S'android.widget.CalendarViewLegacyDelegate$WeeksAdapter'
p170
sg15
(lp171
sg17
(lp172
sg19
(lp173
sg21
I0
sba(iArchitecture
Entity
p174
(dp175
g11
(lp176
sg13
S'android.widget.CalendarViewLegacyDelegate$WeeksAdapter$CalendarGestureListener'
p177
sg15
(lp178
sg17
(lp179
sg19
(lp180
sg21
I0
sba(iArchitecture
Entity
p181
(dp182
g11
(lp183
sg13
S'android.widget.CalendarViewMaterialDelegate'
p184
sg15
(lp185
sg17
(lp186
sg19
(lp187
sg21
I0
sba(iArchitecture
Entity
p188
(dp189
g11
(lp190
sg13
S'android.widget.CalendarViewMaterialDelegate$1'
p191
sg15
(lp192
sg17
(lp193
sg19
(lp194
sg21
I0
sba(iArchitecture
Entity
p195
(dp196
g11
(lp197
sg13
S'android.widget.DatePicker'
p198
sg15
(lp199
sg17
(lp200
sg19
(lp201
sg21
I0
sba(iArchitecture
Entity
p202
(dp203
g11
(lp204
sg13
S'android.widget.DatePicker$AbstractDatePickerDelegate'
p205
sg15
(lp206
sg17
(lp207
sg19
(lp208
sg21
I0
sba(iArchitecture
Entity
p209
(dp210
g11
(lp211
sg13
S'android.widget.DatePicker$DatePickerDelegate'
p212
sg15
(lp213
sg17
(lp214
sg19
(lp215
sg21
I0
sba(iArchitecture
Entity
p216
(dp217
g11
(lp218
sg13
S'android.widget.DatePicker$DatePickerSpinnerDelegate'
p219
sg15
(lp220
sg17
(lp221
sg19
(lp222
sg21
I0
sba(iArchitecture
Entity
p223
(dp224
g11
(lp225
sg13
S'android.widget.DatePicker$DatePickerSpinnerDelegate$1'
p226
sg15
(lp227
sg17
(lp228
sg19
(lp229
sg21
I0
sba(iArchitecture
Entity
p230
(dp231
g11
(lp232
sg13
S'android.widget.DatePicker$DatePickerSpinnerDelegate$2'
p233
sg15
(lp234
sg17
(lp235
sg19
(lp236
sg21
I0
sba(iArchitecture
Entity
p237
(dp238
g11
(lp239
sg13
S'android.widget.DatePicker$OnDateChangedListener'
p240
sg15
(lp241
sg17
(lp242
sg19
(lp243
sg21
I0
sba(iArchitecture
Entity
p244
(dp245
g11
(lp246
sg13
S'android.widget.DatePicker$SavedState'
p247
sg15
(lp248
sg17
(lp249
sg19
(lp250
sg21
I0
sba(iArchitecture
Entity
p251
(dp252
g11
(lp253
sg13
S'android.widget.DatePicker$SavedState$1'
p254
sg15
(lp255
sg17
(lp256
sg19
(lp257
sg21
I0
sba(iArchitecture
Entity
p258
(dp259
g11
(lp260
sg13
S'android.widget.DatePicker$ValidationCallback'
p261
sg15
(lp262
sg17
(lp263
sg19
(lp264
sg21
I0
sba(iArchitecture
Entity
p265
(dp266
g11
(lp267
sg13
S'android.widget.DatePickerCalendarDelegate'
p268
sg15
(lp269
sg17
(lp270
sg19
(lp271
sg21
I0
sba(iArchitecture
Entity
p272
(dp273
g11
(lp274
sg13
S'android.widget.DatePickerCalendarDelegate$1'
p275
sg15
(lp276
sg17
(lp277
sg19
(lp278
sg21
I0
sba(iArchitecture
Entity
p279
(dp280
g11
(lp281
sg13
S'android.widget.DatePickerCalendarDelegate$2'
p282
sg15
(lp283
sg17
(lp284
sg19
(lp285
sg21
I0
sba(iArchitecture
Entity
p286
(dp287
g11
(lp288
sg13
S'android.widget.DatePickerCalendarDelegate$3'
p289
sg15
(lp290
sg17
(lp291
sg19
(lp292
sg21
I0
sba(iArchitecture
Entity
p293
(dp294
g11
(lp295
sg13
S'android.widget.DatePickerCalendarDelegate$SavedState'
p296
sg15
(lp297
sg17
(lp298
sg19
(lp299
sg21
I0
sba(iArchitecture
Entity
p300
(dp301
g11
(lp302
sg13
S'android.widget.DatePickerCalendarDelegate$SavedState$1'
p303
sg15
(lp304
sg17
(lp305
sg19
(lp306
sg21
I0
sba(iArchitecture
Entity
p307
(dp308
g11
(lp309
sg13
S'android.widget.DayPickerPagerAdapter'
p310
sg15
(lp311
sg17
(lp312
sg19
(lp313
sg21
I0
sba(iArchitecture
Entity
p314
(dp315
g11
(lp316
sg13
S'android.widget.DayPickerPagerAdapter$1'
p317
sg15
(lp318
sg17
(lp319
sg19
(lp320
sg21
I0
sba(iArchitecture
Entity
p321
(dp322
g11
(lp323
sg13
S'android.widget.DayPickerPagerAdapter$OnDaySelectedListener'
p324
sg15
(lp325
sg17
(lp326
sg19
(lp327
sg21
I0
sba(iArchitecture
Entity
p328
(dp329
g11
(lp330
sg13
S'android.widget.DayPickerPagerAdapter$ViewHolder'
p331
sg15
(lp332
sg17
(lp333
sg19
(lp334
sg21
I0
sba(iArchitecture
Entity
p335
(dp336
g11
(lp337
sg13
S'android.widget.DayPickerView'
p338
sg15
(lp339
sg17
(lp340
sg19
(lp341
sg21
I0
sba(iArchitecture
Entity
p342
(dp343
g11
(lp344
sg13
S'android.widget.DayPickerView$1'
p345
sg15
(lp346
sg17
(lp347
sg19
(lp348
sg21
I0
sba(iArchitecture
Entity
p349
(dp350
g11
(lp351
sg13
S'android.widget.DayPickerView$2'
p352
sg15
(lp353
sg17
(lp354
sg19
(lp355
sg21
I0
sba(iArchitecture
Entity
p356
(dp357
g11
(lp358
sg13
S'android.widget.DayPickerView$3'
p359
sg15
(lp360
sg17
(lp361
sg19
(lp362
sg21
I0
sba(iArchitecture
Entity
p363
(dp364
g11
(lp365
sg13
S'android.widget.DayPickerView$OnDaySelectedListener'
p366
sg15
(lp367
sg17
(lp368
sg19
(lp369
sg21
I0
sbasg78
(lp370
g107
ag114
ag121
ag128
ag135
ag142
ag149
ag156
ag163
ag170
ag177
ag184
ag191
ag198
ag205
ag212
ag219
ag226
ag233
ag240
ag247
ag254
ag261
ag268
ag275
ag282
ag289
ag296
ag303
ag310
ag317
ag324
ag331
ag338
ag345
ag352
ag359
ag366
asg21
I0
sg80
S'1256'
p371
sba(iArchitecture
Cluster
p372
(dp373
g7
(lp374
(iArchitecture
Entity
p375
(dp376
g11
(lp377
sg13
S'android.opengl.Matrix'
p378
sg15
(lp379
sg17
(lp380
sg19
(lp381
sg21
I0
sbasg78
(lp382
g378
asg21
I0
sg80
S'156'
p383
sba(iArchitecture
Cluster
p384
(dp385
g7
(lp386
(iArchitecture
Entity
p387
(dp388
g11
(lp389
sg13
S'android.media.effect.Effect'
p390
sg15
(lp391
sg17
(lp392
sg19
(lp393
sg21
I0
sbasg78
(lp394
g390
asg21
I0
sg80
S'256'
p395
sba(iArchitecture
Cluster
p396
(dp397
g7
(lp398
(iArchitecture
Entity
p399
(dp400
g11
(lp401
sg13
S'android.filterfw.io.PatternScanner'
p402
sg15
(lp403
sg17
(lp404
sg19
(lp405
sg21
I0
sbasg78
(lp406
g402
asg21
I0
sg80
S'356'
p407
sba(iArchitecture
Cluster
p408
(dp409
g7
(lp410
(iArchitecture
Entity
p411
(dp412
g11
(lp413
sg13
S'android.text.format.Formatter'
p414
sg15
(lp415
sg17
(lp416
sg19
(lp417
sg21
I0
sba(iArchitecture
Entity
p418
(dp419
g11
(lp420
sg13
S'android.text.format.Formatter$BytesResult'
p421
sg15
(lp422
sg17
(lp423
sg19
(lp424
sg21
I0
sbasg78
(lp425
g414
ag421
asg21
I0
sg80
S'456'
p426
sba(iArchitecture
Cluster
p427
(dp428
g7
(lp429
(iArchitecture
Entity
p430
(dp431
g11
(lp432
sg13
S'com.android.server.notification.NotificationIntrusivenessExtractor'
p433
sg15
(lp434
sg17
(lp435
sg19
(lp436
sg21
I0
sba(iArchitecture
Entity
p437
(dp438
g11
(lp439
sg13
S'com.android.server.notification.NotificationIntrusivenessExtractor$1'
p440
sg15
(lp441
sg17
(lp442
sg19
(lp443
sg21
I0
sbasg78
(lp444
g433
ag440
asg21
I0
sg80
S'556'
p445
sba(iArchitecture
Cluster
p446
(dp447
g7
(lp448
(iArchitecture
Entity
p449
(dp450
g11
(lp451
sg13
S'android.transition.Rotate'
p452
sg15
(lp453
sg17
(lp454
sg19
(lp455
sg21
I0
sbasg78
(lp456
g452
asg21
I0
sg80
S'56'
p457
sba(iArchitecture
Cluster
p458
(dp459
g7
(lp460
(iArchitecture
Entity
p461
(dp462
g11
(lp463
sg13
S'android.media.FaceDetector'
p464
sg15
(lp465
sg17
(lp466
sg19
(lp467
sg21
I0
sba(iArchitecture
Entity
p468
(dp469
g11
(lp470
sg13
S'android.media.FaceDetector$Face'
p471
sg15
(lp472
sg17
(lp473
sg19
(lp474
sg21
I0
sbasg78
(lp475
g464
ag471
asg21
I0
sg80
S'560'
p476
sba(iArchitecture
Cluster
p477
(dp478
g7
(lp479
(iArchitecture
Entity
p480
(dp481
g11
(lp482
sg13
S'android.appwidget.AppWidgetProviderInfo'
p483
sg15
(lp484
sg17
(lp485
sg19
(lp486
sg21
I0
sba(iArchitecture
Entity
p487
(dp488
g11
(lp489
sg13
S'android.appwidget.AppWidgetProviderInfo$1'
p490
sg15
(lp491
sg17
(lp492
sg19
(lp493
sg21
I0
sbasg78
(lp494
g483
ag490
asg21
I0
sg80
S'561'
p495
sba(iArchitecture
Cluster
p496
(dp497
g7
(lp498
(iArchitecture
Entity
p499
(dp500
g11
(lp501
sg13
S'com.android.internal.alsa.AlsaDevicesParser'
p502
sg15
(lp503
sg17
(lp504
sg19
(lp505
sg21
I0
sba(iArchitecture
Entity
p506
(dp507
g11
(lp508
sg13
S'com.android.internal.alsa.AlsaDevicesParser$AlsaDeviceRecord'
p509
sg15
(lp510
sg17
(lp511
sg19
(lp512
sg21
I0
sbasg78
(lp513
g502
ag509
asg21
I0
sg80
S'562'
p514
sba(iArchitecture
Cluster
p515
(dp516
g7
(lp517
(iArchitecture
Entity
p518
(dp519
g11
(lp520
sg13
S'android.filterfw.core.FilterContext'
p521
sg15
(lp522
sg17
(lp523
sg19
(lp524
sg21
I0
sba(iArchitecture
Entity
p525
(dp526
g11
(lp527
sg13
S'android.filterfw.core.FilterContext$OnFrameReceivedListener'
p528
sg15
(lp529
sg17
(lp530
sg19
(lp531
sg21
I0
sbasg78
(lp532
g521
ag528
asg21
I0
sg80
S'563'
p533
sba(iArchitecture
Cluster
p534
(dp535
g7
(lp536
(iArchitecture
Entity
p537
(dp538
g11
(lp539
sg13
S'android.graphics.drawable.ColorDrawable'
p540
sg15
(lp541
sg17
(lp542
sg19
(lp543
sg21
I0
sba(iArchitecture
Entity
p544
(dp545
g11
(lp546
sg13
S'android.graphics.drawable.ColorDrawable$ColorState'
p547
sg15
(lp548
sg17
(lp549
sg19
(lp550
sg21
I0
sbasg78
(lp551
g540
ag547
asg21
I0
sg80
S'564'
p552
sba(iArchitecture
Cluster
p553
(dp554
g7
(lp555
(iArchitecture
Entity
p556
(dp557
g11
(lp558
sg13
S'android.security.keymaster.KeyCharacteristics'
p559
sg15
(lp560
sg17
(lp561
sg19
(lp562
sg21
I0
sba(iArchitecture
Entity
p563
(dp564
g11
(lp565
sg13
S'android.security.keymaster.KeyCharacteristics$1'
p566
sg15
(lp567
sg17
(lp568
sg19
(lp569
sg21
I0
sbasg78
(lp570
g559
ag566
asg21
I0
sg80
S'565'
p571
sba(iArchitecture
Cluster
p572
(dp573
g7
(lp574
(iArchitecture
Entity
p575
(dp576
g11
(lp577
sg13
S'android.telephony.CellInfo'
p578
sg15
(lp579
sg17
(lp580
sg19
(lp581
sg21
I0
sba(iArchitecture
Entity
p582
(dp583
g11
(lp584
sg13
S'android.telephony.CellInfo$1'
p585
sg15
(lp586
sg17
(lp587
sg19
(lp588
sg21
I0
sbasg78
(lp589
g578
ag585
asg21
I0
sg80
S'566'
p590
sba(iArchitecture
Cluster
p591
(dp592
g7
(lp593
(iArchitecture
Entity
p594
(dp595
g11
(lp596
sg13
S'android.filterfw.GraphEnvironment'
p597
sg15
(lp598
sg17
(lp599
sg19
(lp600
sg21
I0
sba(iArchitecture
Entity
p601
(dp602
g11
(lp603
sg13
S'android.filterfw.GraphEnvironment$GraphHandle'
p604
sg15
(lp605
sg17
(lp606
sg19
(lp607
sg21
I0
sbasg78
(lp608
g597
ag604
asg21
I0
sg80
S'567'
p609
sba(iArchitecture
Cluster
p610
(dp611
g7
(lp612
(iArchitecture
Entity
p613
(dp614
g11
(lp615
sg13
S'android.bluetooth.BluetoothHeadsetClientCall'
p616
sg15
(lp617
sg17
(lp618
sg19
(lp619
sg21
I0
sba(iArchitecture
Entity
p620
(dp621
g11
(lp622
sg13
S'android.bluetooth.BluetoothHeadsetClientCall$1'
p623
sg15
(lp624
sg17
(lp625
sg19
(lp626
sg21
I0
sbasg78
(lp627
g616
ag623
asg21
I0
sg80
S'568'
p628
sba(iArchitecture
Cluster
p629
(dp630
g7
(lp631
(iArchitecture
Entity
p632
(dp633
g11
(lp634
sg13
S'android.telecom.ConferenceParticipant'
p635
sg15
(lp636
sg17
(lp637
sg19
(lp638
sg21
I0
sba(iArchitecture
Entity
p639
(dp640
g11
(lp641
sg13
S'android.telecom.ConferenceParticipant$1'
p642
sg15
(lp643
sg17
(lp644
sg19
(lp645
sg21
I0
sbasg78
(lp646
g635
ag642
asg21
I0
sg80
S'569'
p647
sba(iArchitecture
Cluster
p648
(dp649
g7
(lp650
(iArchitecture
Entity
p651
(dp652
g11
(lp653
sg13
S'android.view.textservice.SentenceSuggestionsInfo'
p654
sg15
(lp655
sg17
(lp656
sg19
(lp657
sg21
I0
sba(iArchitecture
Entity
p658
(dp659
g11
(lp660
sg13
S'android.view.textservice.SentenceSuggestionsInfo$1'
p661
sg15
(lp662
sg17
(lp663
sg19
(lp664
sg21
I0
sbasg78
(lp665
g654
ag661
asg21
I0
sg80
S'656'
p666
sba(iArchitecture
Cluster
p667
(dp668
g7
(lp669
(iArchitecture
Entity
p670
(dp671
g11
(lp672
sg13
S'android.graphics.drawable.LayerDrawable'
p673
sg15
(lp674
sg17
(lp675
sg19
(lp676
sg21
I0
sba(iArchitecture
Entity
p677
(dp678
g11
(lp679
sg13
S'android.graphics.drawable.LayerDrawable$ChildDrawable'
p680
sg15
(lp681
sg17
(lp682
sg19
(lp683
sg21
I0
sba(iArchitecture
Entity
p684
(dp685
g11
(lp686
sg13
S'android.graphics.drawable.LayerDrawable$LayerState'
p687
sg15
(lp688
sg17
(lp689
sg19
(lp690
sg21
I0
sbasg78
(lp691
g673
ag680
ag687
asg21
I0
sg80
S'756'
p692
sba(iArchitecture
Cluster
p693
(dp694
g7
(lp695
(iArchitecture
Entity
p696
(dp697
g11
(lp698
sg13
S'android.media.Utils'
p699
sg15
(lp700
sg17
(lp701
sg19
(lp702
sg21
I0
sba(iArchitecture
Entity
p703
(dp704
g11
(lp705
sg13
S'android.media.Utils$1'
p706
sg15
(lp707
sg17
(lp708
sg19
(lp709
sg21
I0
sba(iArchitecture
Entity
p710
(dp711
g11
(lp712
sg13
S'android.media.Utils$2'
p713
sg15
(lp714
sg17
(lp715
sg19
(lp716
sg21
I0
sbasg78
(lp717
g699
ag706
ag713
asg21
I0
sg80
S'856'
p718
sba(iArchitecture
Cluster
p719
(dp720
g7
(lp721
(iArchitecture
Entity
p722
(dp723
g11
(lp724
sg13
S'android.service.voice.AlwaysOnHotwordDetector'
p725
sg15
(lp726
sg17
(lp727
sg19
(lp728
sg21
I0
sba(iArchitecture
Entity
p729
(dp730
g11
(lp731
sg13
S'android.service.voice.AlwaysOnHotwordDetector$Callback'
p732
sg15
(lp733
sg17
(lp734
sg19
(lp735
sg21
I0
sba(iArchitecture
Entity
p736
(dp737
g11
(lp738
sg13
S'android.service.voice.AlwaysOnHotwordDetector$EventPayload'
p739
sg15
(lp740
sg17
(lp741
sg19
(lp742
sg21
I0
sba(iArchitecture
Entity
p743
(dp744
g11
(lp745
sg13
S'android.service.voice.AlwaysOnHotwordDetector$MyHandler'
p746
sg15
(lp747
sg17
(lp748
sg19
(lp749
sg21
I0
sba(iArchitecture
Entity
p750
(dp751
g11
(lp752
sg13
S'android.service.voice.AlwaysOnHotwordDetector$RefreshAvailabiltyTask'
p753
sg15
(lp754
sg17
(lp755
sg19
(lp756
sg21
I0
sba(iArchitecture
Entity
p757
(dp758
g11
(lp759
sg13
S'android.service.voice.AlwaysOnHotwordDetector$SoundTriggerListener'
p760
sg15
(lp761
sg17
(lp762
sg19
(lp763
sg21
I0
sbasg78
(lp764
g725
ag732
ag739
ag746
ag753
ag760
asg21
I0
sg80
S'956'
p765
sbasS'target_sub'
p766
S'56'
p767
sg78
(lp768
sS'is_component_arch'
p769
I01
sg80
S'6.0.0_r1'
p770
sba.