(lp0
(iArchitecture
Architecture
p1
(dp2
S'clusters'
p3
(lp4
(iArchitecture
Cluster
p5
(dp6
S'entities'
p7
(lp8
(iArchitecture
Entity
p9
(dp10
S'issue_ids'
p11
(lp12
sS'name'
p13
S'android.media.browse.MediaBrowser'
p14
sS'descs'
p15
(lp16
sS'labels'
p17
(lp18
sS'titles'
p19
(lp20
sS'change'
p21
I0
sba(iArchitecture
Entity
p22
(dp23
g11
(lp24
sg13
S'android.media.browse.MediaBrowser$1'
p25
sg15
(lp26
sg17
(lp27
sg19
(lp28
sg21
I0
sba(iArchitecture
Entity
p29
(dp30
g11
(lp31
sg13
S'android.media.browse.MediaBrowser$2'
p32
sg15
(lp33
sg17
(lp34
sg19
(lp35
sg21
I0
sba(iArchitecture
Entity
p36
(dp37
g11
(lp38
sg13
S'android.media.browse.MediaBrowser$3'
p39
sg15
(lp40
sg17
(lp41
sg19
(lp42
sg21
I0
sba(iArchitecture
Entity
p43
(dp44
g11
(lp45
sg13
S'android.media.browse.MediaBrowser$4'
p46
sg15
(lp47
sg17
(lp48
sg19
(lp49
sg21
I0
sba(iArchitecture
Entity
p50
(dp51
g11
(lp52
sg13
S'android.media.browse.MediaBrowser$5'
p53
sg15
(lp54
sg17
(lp55
sg19
(lp56
sg21
I0
sba(iArchitecture
Entity
p57
(dp58
g11
(lp59
sg13
S'android.media.browse.MediaBrowser$6'
p60
sg15
(lp61
sg17
(lp62
sg19
(lp63
sg21
I0
sba(iArchitecture
Entity
p64
(dp65
g11
(lp66
sg13
S'android.media.browse.MediaBrowser$7'
p67
sg15
(lp68
sg17
(lp69
sg19
(lp70
sg21
I0
sba(iArchitecture
Entity
p71
(dp72
g11
(lp73
sg13
S'android.media.browse.MediaBrowser$ConnectionCallback'
p74
sg15
(lp75
sg17
(lp76
sg19
(lp77
sg21
I0
sba(iArchitecture
Entity
p78
(dp79
g11
(lp80
sg13
S'android.media.browse.MediaBrowser$ItemCallback'
p81
sg15
(lp82
sg17
(lp83
sg19
(lp84
sg21
I0
sba(iArchitecture
Entity
p85
(dp86
g11
(lp87
sg13
S'android.media.browse.MediaBrowser$MediaItem'
p88
sg15
(lp89
sg17
(lp90
sg19
(lp91
sg21
I0
sba(iArchitecture
Entity
p92
(dp93
g11
(lp94
sg13
S'android.media.browse.MediaBrowser$MediaItem$1'
p95
sg15
(lp96
sg17
(lp97
sg19
(lp98
sg21
I0
sba(iArchitecture
Entity
p99
(dp100
g11
(lp101
sg13
S'android.media.browse.MediaBrowser$MediaServiceConnection'
p102
sg15
(lp103
sg17
(lp104
sg19
(lp105
sg21
I0
sba(iArchitecture
Entity
p106
(dp107
g11
(lp108
sg13
S'android.media.browse.MediaBrowser$ServiceCallbacks'
p109
sg15
(lp110
sg17
(lp111
sg19
(lp112
sg21
I0
sba(iArchitecture
Entity
p113
(dp114
g11
(lp115
sg13
S'android.media.browse.MediaBrowser$Subscription'
p116
sg15
(lp117
sg17
(lp118
sg19
(lp119
sg21
I0
sba(iArchitecture
Entity
p120
(dp121
g11
(lp122
sg13
S'android.media.browse.MediaBrowser$SubscriptionCallback'
p123
sg15
(lp124
sg17
(lp125
sg19
(lp126
sg21
I0
sba(iArchitecture
Entity
p127
(dp128
g11
(lp129
sg13
S'android.service.media.MediaBrowserService'
p130
sg15
(lp131
sg17
(lp132
sg19
(lp133
sg21
I0
sba(iArchitecture
Entity
p134
(dp135
g11
(lp136
sg13
S'android.service.media.MediaBrowserService$1'
p137
sg15
(lp138
sg17
(lp139
sg19
(lp140
sg21
I0
sba(iArchitecture
Entity
p141
(dp142
g11
(lp143
sg13
S'android.service.media.MediaBrowserService$2'
p144
sg15
(lp145
sg17
(lp146
sg19
(lp147
sg21
I0
sba(iArchitecture
Entity
p148
(dp149
g11
(lp150
sg13
S'android.service.media.MediaBrowserService$3'
p151
sg15
(lp152
sg17
(lp153
sg19
(lp154
sg21
I0
sba(iArchitecture
Entity
p155
(dp156
g11
(lp157
sg13
S'android.service.media.MediaBrowserService$4'
p158
sg15
(lp159
sg17
(lp160
sg19
(lp161
sg21
I0
sba(iArchitecture
Entity
p162
(dp163
g11
(lp164
sg13
S'android.service.media.MediaBrowserService$BrowserRoot'
p165
sg15
(lp166
sg17
(lp167
sg19
(lp168
sg21
I0
sba(iArchitecture
Entity
p169
(dp170
g11
(lp171
sg13
S'android.service.media.MediaBrowserService$ConnectionRecord'
p172
sg15
(lp173
sg17
(lp174
sg19
(lp175
sg21
I0
sba(iArchitecture
Entity
p176
(dp177
g11
(lp178
sg13
S'android.service.media.MediaBrowserService$Result'
p179
sg15
(lp180
sg17
(lp181
sg19
(lp182
sg21
I0
sba(iArchitecture
Entity
p183
(dp184
g11
(lp185
sg13
S'android.service.media.MediaBrowserService$ServiceBinder'
p186
sg15
(lp187
sg17
(lp188
sg19
(lp189
sg21
I0
sba(iArchitecture
Entity
p190
(dp191
g11
(lp192
sg13
S'android.service.media.MediaBrowserService$ServiceBinder$1'
p193
sg15
(lp194
sg17
(lp195
sg19
(lp196
sg21
I0
sba(iArchitecture
Entity
p197
(dp198
g11
(lp199
sg13
S'android.service.media.MediaBrowserService$ServiceBinder$2'
p200
sg15
(lp201
sg17
(lp202
sg19
(lp203
sg21
I0
sba(iArchitecture
Entity
p204
(dp205
g11
(lp206
sg13
S'android.service.media.MediaBrowserService$ServiceBinder$3'
p207
sg15
(lp208
sg17
(lp209
sg19
(lp210
sg21
I0
sba(iArchitecture
Entity
p211
(dp212
g11
(lp213
sg13
S'android.service.media.MediaBrowserService$ServiceBinder$4'
p214
sg15
(lp215
sg17
(lp216
sg19
(lp217
sg21
I0
sba(iArchitecture
Entity
p218
(dp219
g11
(lp220
sg13
S'android.service.media.MediaBrowserService$ServiceBinder$5'
p221
sg15
(lp222
sg17
(lp223
sg19
(lp224
sg21
I0
sbasS'classes'
p225
(lp226
g14
ag25
ag32
ag39
ag46
ag53
ag60
ag67
ag74
ag81
ag88
ag95
ag102
ag109
ag116
ag123
ag130
ag137
ag144
ag151
ag158
ag165
ag172
ag179
ag186
ag193
ag200
ag207
ag214
ag221
asg21
I0
sS'label'
p227
S'1121'
p228
sba(iArchitecture
Cluster
p229
(dp230
g7
(lp231
(iArchitecture
Entity
p232
(dp233
g11
(lp234
sg13
S'android.hardware.input.InputManagerInternal'
p235
sg15
(lp236
sg17
(lp237
sg19
(lp238
sg21
I0
sbasg225
(lp239
g235
asg21
I0
sg227
S'121'
p240
sba(iArchitecture
Cluster
p241
(dp242
g7
(lp243
(iArchitecture
Entity
p244
(dp245
g11
(lp246
sg13
S'android.hardware.input.KeyboardLayout'
p247
sg15
(lp248
sg17
(lp249
sg19
(lp250
sg21
I0
sba(iArchitecture
Entity
p251
(dp252
g11
(lp253
sg13
S'android.hardware.input.KeyboardLayout$1'
p254
sg15
(lp255
sg17
(lp256
sg19
(lp257
sg21
I0
sba(iArchitecture
Entity
p258
(dp259
g11
(lp260
sg13
S'android.media.projection.MediaProjectionManager'
p261
sg15
(lp262
sg17
(lp263
sg19
(lp264
sg21
I0
sba(iArchitecture
Entity
p265
(dp266
g11
(lp267
sg13
S'android.media.projection.MediaProjectionManager$Callback'
p268
sg15
(lp269
sg17
(lp270
sg19
(lp271
sg21
I0
sba(iArchitecture
Entity
p272
(dp273
g11
(lp274
sg13
S'android.media.projection.MediaProjectionManager$CallbackDelegate'
p275
sg15
(lp276
sg17
(lp277
sg19
(lp278
sg21
I0
sba(iArchitecture
Entity
p279
(dp280
g11
(lp281
sg13
S'android.media.projection.MediaProjectionManager$CallbackDelegate$1'
p282
sg15
(lp283
sg17
(lp284
sg19
(lp285
sg21
I0
sba(iArchitecture
Entity
p286
(dp287
g11
(lp288
sg13
S'android.media.projection.MediaProjectionManager$CallbackDelegate$2'
p289
sg15
(lp290
sg17
(lp291
sg19
(lp292
sg21
I0
sba(iArchitecture
Entity
p293
(dp294
g11
(lp295
sg13
S'android.view.textservice.SpellCheckerInfo'
p296
sg15
(lp297
sg17
(lp298
sg19
(lp299
sg21
I0
sba(iArchitecture
Entity
p300
(dp301
g11
(lp302
sg13
S'android.view.textservice.SpellCheckerInfo$1'
p303
sg15
(lp304
sg17
(lp305
sg19
(lp306
sg21
I0
sbasg225
(lp307
g247
ag254
ag261
ag268
ag275
ag282
ag289
ag296
ag303
asg21
I0
sg227
S'1210'
p308
sba(iArchitecture
Cluster
p309
(dp310
g7
(lp311
(iArchitecture
Entity
p312
(dp313
g11
(lp314
sg13
S'android.telephony.CellIdentityCdma'
p315
sg15
(lp316
sg17
(lp317
sg19
(lp318
sg21
I0
sba(iArchitecture
Entity
p319
(dp320
g11
(lp321
sg13
S'android.telephony.CellIdentityCdma$1'
p322
sg15
(lp323
sg17
(lp324
sg19
(lp325
sg21
I0
sba(iArchitecture
Entity
p326
(dp327
g11
(lp328
sg13
S'android.telephony.cdma.CdmaCellLocation'
p329
sg15
(lp330
sg17
(lp331
sg19
(lp332
sg21
I0
sbasg225
(lp333
g315
ag322
ag329
asg21
I0
sg227
S'1211'
p334
sba(iArchitecture
Cluster
p335
(dp336
g7
(lp337
(iArchitecture
Entity
p338
(dp339
g11
(lp340
sg13
S'android.content.res.XmlBlock'
p341
sg15
(lp342
sg17
(lp343
sg19
(lp344
sg21
I0
sba(iArchitecture
Entity
p345
(dp346
g11
(lp347
sg13
S'android.content.res.XmlBlock$Parser'
p348
sg15
(lp349
sg17
(lp350
sg19
(lp351
sg21
I0
sba(iArchitecture
Entity
p352
(dp353
g11
(lp354
sg13
S'com.android.server.usage.UsageStatsXmlV1'
p355
sg15
(lp356
sg17
(lp357
sg19
(lp358
sg21
I0
sbasg225
(lp359
g341
ag348
ag355
asg21
I0
sg227
S'1212'
p360
sba(iArchitecture
Cluster
p361
(dp362
g7
(lp363
(iArchitecture
Entity
p364
(dp365
g11
(lp366
sg13
S'android.content.pm.MacAuthenticatedInputStream'
p367
sg15
(lp368
sg17
(lp369
sg19
(lp370
sg21
I0
sba(iArchitecture
Entity
p371
(dp372
g11
(lp373
sg13
S'com.android.server.RandomBlock'
p374
sg15
(lp375
sg17
(lp376
sg19
(lp377
sg21
I0
sbasg225
(lp378
g367
ag374
asg21
I0
sg227
S'1213'
p379
sba(iArchitecture
Cluster
p380
(dp381
g7
(lp382
(iArchitecture
Entity
p383
(dp384
g11
(lp385
sg13
S'android.app.MediaRouteActionProvider'
p386
sg15
(lp387
sg17
(lp388
sg19
(lp389
sg21
I0
sba(iArchitecture
Entity
p390
(dp391
g11
(lp392
sg13
S'android.app.MediaRouteActionProvider$MediaRouterCallback'
p393
sg15
(lp394
sg17
(lp395
sg19
(lp396
sg21
I0
sba(iArchitecture
Entity
p397
(dp398
g11
(lp399
sg13
S'android.app.MediaRouteButton'
p400
sg15
(lp401
sg17
(lp402
sg19
(lp403
sg21
I0
sba(iArchitecture
Entity
p404
(dp405
g11
(lp406
sg13
S'android.app.MediaRouteButton$MediaRouterCallback'
p407
sg15
(lp408
sg17
(lp409
sg19
(lp410
sg21
I0
sba(iArchitecture
Entity
p411
(dp412
g11
(lp413
sg13
S'android.media.JetPlayer'
p414
sg15
(lp415
sg17
(lp416
sg19
(lp417
sg21
I0
sba(iArchitecture
Entity
p418
(dp419
g11
(lp420
sg13
S'android.media.JetPlayer$NativeEventHandler'
p421
sg15
(lp422
sg17
(lp423
sg19
(lp424
sg21
I0
sba(iArchitecture
Entity
p425
(dp426
g11
(lp427
sg13
S'android.media.JetPlayer$OnJetEventListener'
p428
sg15
(lp429
sg17
(lp430
sg19
(lp431
sg21
I0
sba(iArchitecture
Entity
p432
(dp433
g11
(lp434
sg13
S'android.media.MediaRouter'
p435
sg15
(lp436
sg17
(lp437
sg19
(lp438
sg21
I0
sba(iArchitecture
Entity
p439
(dp440
g11
(lp441
sg13
S'android.media.MediaRouter$Callback'
p442
sg15
(lp443
sg17
(lp444
sg19
(lp445
sg21
I0
sba(iArchitecture
Entity
p446
(dp447
g11
(lp448
sg13
S'android.media.MediaRouter$CallbackInfo'
p449
sg15
(lp450
sg17
(lp451
sg19
(lp452
sg21
I0
sba(iArchitecture
Entity
p453
(dp454
g11
(lp455
sg13
S'android.media.MediaRouter$RouteCategory'
p456
sg15
(lp457
sg17
(lp458
sg19
(lp459
sg21
I0
sba(iArchitecture
Entity
p460
(dp461
g11
(lp462
sg13
S'android.media.MediaRouter$RouteGroup'
p463
sg15
(lp464
sg17
(lp465
sg19
(lp466
sg21
I0
sba(iArchitecture
Entity
p467
(dp468
g11
(lp469
sg13
S'android.media.MediaRouter$RouteInfo'
p470
sg15
(lp471
sg17
(lp472
sg19
(lp473
sg21
I0
sba(iArchitecture
Entity
p474
(dp475
g11
(lp476
sg13
S'android.media.MediaRouter$RouteInfo$1'
p477
sg15
(lp478
sg17
(lp479
sg19
(lp480
sg21
I0
sba(iArchitecture
Entity
p481
(dp482
g11
(lp483
sg13
S'android.media.MediaRouter$RouteInfo$1$1'
p484
sg15
(lp485
sg17
(lp486
sg19
(lp487
sg21
I0
sba(iArchitecture
Entity
p488
(dp489
g11
(lp490
sg13
S'android.media.MediaRouter$SimpleCallback'
p491
sg15
(lp492
sg17
(lp493
sg19
(lp494
sg21
I0
sba(iArchitecture
Entity
p495
(dp496
g11
(lp497
sg13
S'android.media.MediaRouter$Static'
p498
sg15
(lp499
sg17
(lp500
sg19
(lp501
sg21
I0
sba(iArchitecture
Entity
p502
(dp503
g11
(lp504
sg13
S'android.media.MediaRouter$Static$1'
p505
sg15
(lp506
sg17
(lp507
sg19
(lp508
sg21
I0
sba(iArchitecture
Entity
p509
(dp510
g11
(lp511
sg13
S'android.media.MediaRouter$Static$1$1'
p512
sg15
(lp513
sg17
(lp514
sg19
(lp515
sg21
I0
sba(iArchitecture
Entity
p516
(dp517
g11
(lp518
sg13
S'android.media.MediaRouter$Static$Client'
p519
sg15
(lp520
sg17
(lp521
sg19
(lp522
sg21
I0
sba(iArchitecture
Entity
p523
(dp524
g11
(lp525
sg13
S'android.media.MediaRouter$Static$Client$1'
p526
sg15
(lp527
sg17
(lp528
sg19
(lp529
sg21
I0
sba(iArchitecture
Entity
p530
(dp531
g11
(lp532
sg13
S'android.media.MediaRouter$UserRouteInfo'
p533
sg15
(lp534
sg17
(lp535
sg19
(lp536
sg21
I0
sba(iArchitecture
Entity
p537
(dp538
g11
(lp539
sg13
S'android.media.MediaRouter$UserRouteInfo$SessionVolumeProvider'
p540
sg15
(lp541
sg17
(lp542
sg19
(lp543
sg21
I0
sba(iArchitecture
Entity
p544
(dp545
g11
(lp546
sg13
S'android.media.MediaRouter$UserRouteInfo$SessionVolumeProvider$1'
p547
sg15
(lp548
sg17
(lp549
sg19
(lp550
sg21
I0
sba(iArchitecture
Entity
p551
(dp552
g11
(lp553
sg13
S'android.media.MediaRouter$UserRouteInfo$SessionVolumeProvider$2'
p554
sg15
(lp555
sg17
(lp556
sg19
(lp557
sg21
I0
sba(iArchitecture
Entity
p558
(dp559
g11
(lp560
sg13
S'android.media.MediaRouter$VolumeCallback'
p561
sg15
(lp562
sg17
(lp563
sg19
(lp564
sg21
I0
sba(iArchitecture
Entity
p565
(dp566
g11
(lp567
sg13
S'android.media.MediaRouter$VolumeCallbackInfo'
p568
sg15
(lp569
sg17
(lp570
sg19
(lp571
sg21
I0
sba(iArchitecture
Entity
p572
(dp573
g11
(lp574
sg13
S'android.media.MediaRouter$VolumeChangeReceiver'
p575
sg15
(lp576
sg17
(lp577
sg19
(lp578
sg21
I0
sba(iArchitecture
Entity
p579
(dp580
g11
(lp581
sg13
S'android.media.MediaRouter$WifiDisplayStatusChangedReceiver'
p582
sg15
(lp583
sg17
(lp584
sg19
(lp585
sg21
I0
sba(iArchitecture
Entity
p586
(dp587
g11
(lp588
sg13
S'com.android.internal.app.MediaRouteChooserDialog'
p589
sg15
(lp590
sg17
(lp591
sg19
(lp592
sg21
I0
sba(iArchitecture
Entity
p593
(dp594
g11
(lp595
sg13
S'com.android.internal.app.MediaRouteChooserDialog$MediaRouterCallback'
p596
sg15
(lp597
sg17
(lp598
sg19
(lp599
sg21
I0
sba(iArchitecture
Entity
p600
(dp601
g11
(lp602
sg13
S'com.android.internal.app.MediaRouteChooserDialog$RouteAdapter'
p603
sg15
(lp604
sg17
(lp605
sg19
(lp606
sg21
I0
sba(iArchitecture
Entity
p607
(dp608
g11
(lp609
sg13
S'com.android.internal.app.MediaRouteChooserDialog$RouteComparator'
p610
sg15
(lp611
sg17
(lp612
sg19
(lp613
sg21
I0
sba(iArchitecture
Entity
p614
(dp615
g11
(lp616
sg13
S'com.android.internal.app.MediaRouteControllerDialog'
p617
sg15
(lp618
sg17
(lp619
sg19
(lp620
sg21
I0
sba(iArchitecture
Entity
p621
(dp622
g11
(lp623
sg13
S'com.android.internal.app.MediaRouteControllerDialog$1'
p624
sg15
(lp625
sg17
(lp626
sg19
(lp627
sg21
I0
sba(iArchitecture
Entity
p628
(dp629
g11
(lp630
sg13
S'com.android.internal.app.MediaRouteControllerDialog$1$1'
p631
sg15
(lp632
sg17
(lp633
sg19
(lp634
sg21
I0
sba(iArchitecture
Entity
p635
(dp636
g11
(lp637
sg13
S'com.android.internal.app.MediaRouteControllerDialog$2'
p638
sg15
(lp639
sg17
(lp640
sg19
(lp641
sg21
I0
sba(iArchitecture
Entity
p642
(dp643
g11
(lp644
sg13
S'com.android.internal.app.MediaRouteControllerDialog$MediaRouterCallback'
p645
sg15
(lp646
sg17
(lp647
sg19
(lp648
sg21
I0
sbasg225
(lp649
g386
ag393
ag400
ag407
ag414
ag421
ag428
ag435
ag442
ag449
ag456
ag463
ag470
ag477
ag484
ag491
ag498
ag505
ag512
ag519
ag526
ag533
ag540
ag547
ag554
ag561
ag568
ag575
ag582
ag589
ag596
ag603
ag610
ag617
ag624
ag631
ag638
ag645
asg21
I0
sg227
S'1214'
p650
sba(iArchitecture
Cluster
p651
(dp652
g7
(lp653
(iArchitecture
Entity
p654
(dp655
g11
(lp656
sg13
S'android.drm.DrmSupportInfo'
p657
sg15
(lp658
sg17
(lp659
sg19
(lp660
sg21
I0
sba(iArchitecture
Entity
p661
(dp662
g11
(lp663
sg13
S'android.net.LocalServerSocket'
p664
sg15
(lp665
sg17
(lp666
sg19
(lp667
sg21
I0
sba(iArchitecture
Entity
p668
(dp669
g11
(lp670
sg13
S'android.net.LocalSocketAddress'
p671
sg15
(lp672
sg17
(lp673
sg19
(lp674
sg21
I0
sba(iArchitecture
Entity
p675
(dp676
g11
(lp677
sg13
S'android.net.LocalSocketAddress$Namespace'
p678
sg15
(lp679
sg17
(lp680
sg19
(lp681
sg21
I0
sbasg225
(lp682
g657
ag664
ag671
ag678
asg21
I0
sg227
S'1215'
p683
sba(iArchitecture
Cluster
p684
(dp685
g7
(lp686
(iArchitecture
Entity
p687
(dp688
g11
(lp689
sg13
S'android.database.MergeCursor'
p690
sg15
(lp691
sg17
(lp692
sg19
(lp693
sg21
I0
sba(iArchitecture
Entity
p694
(dp695
g11
(lp696
sg13
S'android.database.MergeCursor$1'
p697
sg15
(lp698
sg17
(lp699
sg19
(lp700
sg21
I0
sba(iArchitecture
Entity
p701
(dp702
g11
(lp703
sg13
S'com.android.internal.database.SortCursor'
p704
sg15
(lp705
sg17
(lp706
sg19
(lp707
sg21
I0
sba(iArchitecture
Entity
p708
(dp709
g11
(lp710
sg13
S'com.android.internal.database.SortCursor$1'
p711
sg15
(lp712
sg17
(lp713
sg19
(lp714
sg21
I0
sba(iArchitecture
Entity
p715
(dp716
g11
(lp717
sg13
S'com.android.internal.logging.MetricsLogger'
p718
sg15
(lp719
sg17
(lp720
sg19
(lp721
sg21
I0
sbasg225
(lp722
g690
ag697
ag704
ag711
ag718
asg21
I0
sg227
S'1216'
p723
sba(iArchitecture
Cluster
p724
(dp725
g7
(lp726
(iArchitecture
Entity
p727
(dp728
g11
(lp729
sg13
S'android.telecom.InCallService'
p730
sg15
(lp731
sg17
(lp732
sg19
(lp733
sg21
I0
sba(iArchitecture
Entity
p734
(dp735
g11
(lp736
sg13
S'android.telecom.InCallService$1'
p737
sg15
(lp738
sg17
(lp739
sg19
(lp740
sg21
I0
sba(iArchitecture
Entity
p741
(dp742
g11
(lp743
sg13
S'android.telecom.InCallService$2'
p744
sg15
(lp745
sg17
(lp746
sg19
(lp747
sg21
I0
sba(iArchitecture
Entity
p748
(dp749
g11
(lp750
sg13
S'android.telecom.InCallService$InCallServiceBinder'
p751
sg15
(lp752
sg17
(lp753
sg19
(lp754
sg21
I0
sba(iArchitecture
Entity
p755
(dp756
g11
(lp757
sg13
S'android.telecom.InCallService$VideoCall'
p758
sg15
(lp759
sg17
(lp760
sg19
(lp761
sg21
I0
sba(iArchitecture
Entity
p762
(dp763
g11
(lp764
sg13
S'android.telecom.InCallService$VideoCall$Callback'
p765
sg15
(lp766
sg17
(lp767
sg19
(lp768
sg21
I0
sba(iArchitecture
Entity
p769
(dp770
g11
(lp771
sg13
S'android.telecom.VideoCallImpl'
p772
sg15
(lp773
sg17
(lp774
sg19
(lp775
sg21
I0
sba(iArchitecture
Entity
p776
(dp777
g11
(lp778
sg13
S'android.telecom.VideoCallImpl$1'
p779
sg15
(lp780
sg17
(lp781
sg19
(lp782
sg21
I0
sba(iArchitecture
Entity
p783
(dp784
g11
(lp785
sg13
S'android.telecom.VideoCallImpl$MessageHandler'
p786
sg15
(lp787
sg17
(lp788
sg19
(lp789
sg21
I0
sba(iArchitecture
Entity
p790
(dp791
g11
(lp792
sg13
S'android.telecom.VideoCallImpl$VideoCallListenerBinder'
p793
sg15
(lp794
sg17
(lp795
sg19
(lp796
sg21
I0
sbasg225
(lp797
g730
ag737
ag744
ag751
ag758
ag765
ag772
ag779
ag786
ag793
asg21
I0
sg227
S'1217'
p798
sba(iArchitecture
Cluster
p799
(dp800
g7
(lp801
(iArchitecture
Entity
p802
(dp803
g11
(lp804
sg13
S'android.net.NetworkCapabilities'
p805
sg15
(lp806
sg17
(lp807
sg19
(lp808
sg21
I0
sba(iArchitecture
Entity
p809
(dp810
g11
(lp811
sg13
S'android.net.NetworkCapabilities$1'
p812
sg15
(lp813
sg17
(lp814
sg19
(lp815
sg21
I0
sba(iArchitecture
Entity
p816
(dp817
g11
(lp818
sg13
S'android.net.NetworkFactory'
p819
sg15
(lp820
sg17
(lp821
sg19
(lp822
sg21
I0
sba(iArchitecture
Entity
p823
(dp824
g11
(lp825
sg13
S'android.net.NetworkFactory$NetworkRequestInfo'
p826
sg15
(lp827
sg17
(lp828
sg19
(lp829
sg21
I0
sba(iArchitecture
Entity
p830
(dp831
g11
(lp832
sg13
S'android.net.NetworkRequest'
p833
sg15
(lp834
sg17
(lp835
sg19
(lp836
sg21
I0
sba(iArchitecture
Entity
p837
(dp838
g11
(lp839
sg13
S'android.net.NetworkRequest$1'
p840
sg15
(lp841
sg17
(lp842
sg19
(lp843
sg21
I0
sba(iArchitecture
Entity
p844
(dp845
g11
(lp846
sg13
S'android.net.NetworkRequest$Builder'
p847
sg15
(lp848
sg17
(lp849
sg19
(lp850
sg21
I0
sbasg225
(lp851
g805
ag812
ag819
ag826
ag833
ag840
ag847
asg21
I0
sg227
S'1218'
p852
sba(iArchitecture
Cluster
p853
(dp854
g7
(lp855
(iArchitecture
Entity
p856
(dp857
g11
(lp858
sg13
S'android.net.IpPrefix'
p859
sg15
(lp860
sg17
(lp861
sg19
(lp862
sg21
I0
sba(iArchitecture
Entity
p863
(dp864
g11
(lp865
sg13
S'android.net.IpPrefix$1'
p866
sg15
(lp867
sg17
(lp868
sg19
(lp869
sg21
I0
sba(iArchitecture
Entity
p870
(dp871
g11
(lp872
sg13
S'android.net.NetworkUtils'
p873
sg15
(lp874
sg17
(lp875
sg19
(lp876
sg21
I0
sba(iArchitecture
Entity
p877
(dp878
g11
(lp879
sg13
S'android.net.VpnService'
p880
sg15
(lp881
sg17
(lp882
sg19
(lp883
sg21
I0
sba(iArchitecture
Entity
p884
(dp885
g11
(lp886
sg13
S'android.net.VpnService$Builder'
p887
sg15
(lp888
sg17
(lp889
sg19
(lp890
sg21
I0
sba(iArchitecture
Entity
p891
(dp892
g11
(lp893
sg13
S'android.net.VpnService$Callback'
p894
sg15
(lp895
sg17
(lp896
sg19
(lp897
sg21
I0
sba(iArchitecture
Entity
p898
(dp899
g11
(lp900
sg13
S'com.android.server.connectivity.NetworkDiagnostics'
p901
sg15
(lp902
sg17
(lp903
sg19
(lp904
sg21
I0
sba(iArchitecture
Entity
p905
(dp906
g11
(lp907
sg13
S'com.android.server.connectivity.NetworkDiagnostics$DnsResponseCode'
p908
sg15
(lp909
sg17
(lp910
sg19
(lp911
sg21
I0
sba(iArchitecture
Entity
p912
(dp913
g11
(lp914
sg13
S'com.android.server.connectivity.NetworkDiagnostics$DnsUdpCheck'
p915
sg15
(lp916
sg17
(lp917
sg19
(lp918
sg21
I0
sba(iArchitecture
Entity
p919
(dp920
g11
(lp921
sg13
S'com.android.server.connectivity.NetworkDiagnostics$IcmpCheck'
p922
sg15
(lp923
sg17
(lp924
sg19
(lp925
sg21
I0
sba(iArchitecture
Entity
p926
(dp927
g11
(lp928
sg13
S'com.android.server.connectivity.NetworkDiagnostics$Measurement'
p929
sg15
(lp930
sg17
(lp931
sg19
(lp932
sg21
I0
sba(iArchitecture
Entity
p933
(dp934
g11
(lp935
sg13
S'com.android.server.connectivity.NetworkDiagnostics$SimpleSocketCheck'
p936
sg15
(lp937
sg17
(lp938
sg19
(lp939
sg21
I0
sbasg225
(lp940
g859
ag866
ag873
ag880
ag887
ag894
ag901
ag908
ag915
ag922
ag929
ag936
asg21
I0
sg227
S'1219'
p941
sbasS'target_sub'
p942
S'121'
p943
sg225
(lp944
sS'is_component_arch'
p945
I01
sg227
S'6.0.0_r1'
p946
sba.