(lp0
(iArchitecture
Architecture
p1
(dp2
S'clusters'
p3
(lp4
(iArchitecture
Cluster
p5
(dp6
S'entities'
p7
(lp8
(iArchitecture
Entity
p9
(dp10
S'issue_ids'
p11
(lp12
sS'name'
p13
S'android.util.TypedValue'
p14
sS'descs'
p15
(lp16
sS'labels'
p17
(lp18
sS'titles'
p19
(lp20
sS'change'
p21
I0
sbasS'classes'
p22
(lp23
g14
asg21
I0
sS'label'
p24
S'107'
p25
sba(iArchitecture
Cluster
p26
(dp27
g7
(lp28
(iArchitecture
Entity
p29
(dp30
g11
(lp31
sg13
S'android.transition.Slide'
p32
sg15
(lp33
sg17
(lp34
sg19
(lp35
sg21
I0
sba(iArchitecture
Entity
p36
(dp37
g11
(lp38
sg13
S'android.transition.Slide$1'
p39
sg15
(lp40
sg17
(lp41
sg19
(lp42
sg21
I0
sba(iArchitecture
Entity
p43
(dp44
g11
(lp45
sg13
S'android.transition.Slide$2'
p46
sg15
(lp47
sg17
(lp48
sg19
(lp49
sg21
I0
sba(iArchitecture
Entity
p50
(dp51
g11
(lp52
sg13
S'android.transition.Slide$3'
p53
sg15
(lp54
sg17
(lp55
sg19
(lp56
sg21
I0
sba(iArchitecture
Entity
p57
(dp58
g11
(lp59
sg13
S'android.transition.Slide$4'
p60
sg15
(lp61
sg17
(lp62
sg19
(lp63
sg21
I0
sba(iArchitecture
Entity
p64
(dp65
g11
(lp66
sg13
S'android.transition.Slide$5'
p67
sg15
(lp68
sg17
(lp69
sg19
(lp70
sg21
I0
sba(iArchitecture
Entity
p71
(dp72
g11
(lp73
sg13
S'android.transition.Slide$6'
p74
sg15
(lp75
sg17
(lp76
sg19
(lp77
sg21
I0
sba(iArchitecture
Entity
p78
(dp79
g11
(lp80
sg13
S'android.transition.Slide$CalculateSlide'
p81
sg15
(lp82
sg17
(lp83
sg19
(lp84
sg21
I0
sba(iArchitecture
Entity
p85
(dp86
g11
(lp87
sg13
S'android.transition.Slide$CalculateSlideHorizontal'
p88
sg15
(lp89
sg17
(lp90
sg19
(lp91
sg21
I0
sba(iArchitecture
Entity
p92
(dp93
g11
(lp94
sg13
S'android.transition.Slide$CalculateSlideVertical'
p95
sg15
(lp96
sg17
(lp97
sg19
(lp98
sg21
I0
sbasg22
(lp99
g32
ag39
ag46
ag53
ag60
ag67
ag74
ag81
ag88
ag95
asg21
I0
sg24
S'1070'
p100
sba(iArchitecture
Cluster
p101
(dp102
g7
(lp103
(iArchitecture
Entity
p104
(dp105
g11
(lp106
sg13
S'com.android.server.policy.ImmersiveModeConfirmation'
p107
sg15
(lp108
sg17
(lp109
sg19
(lp110
sg21
I0
sba(iArchitecture
Entity
p111
(dp112
g11
(lp113
sg13
S'com.android.server.policy.ImmersiveModeConfirmation$1'
p114
sg15
(lp115
sg17
(lp116
sg19
(lp117
sg21
I0
sba(iArchitecture
Entity
p118
(dp119
g11
(lp120
sg13
S'com.android.server.policy.ImmersiveModeConfirmation$ClingWindowView'
p121
sg15
(lp122
sg17
(lp123
sg19
(lp124
sg21
I0
sba(iArchitecture
Entity
p125
(dp126
g11
(lp127
sg13
S'com.android.server.policy.ImmersiveModeConfirmation$ClingWindowView$1'
p128
sg15
(lp129
sg17
(lp130
sg19
(lp131
sg21
I0
sba(iArchitecture
Entity
p132
(dp133
g11
(lp134
sg13
S'com.android.server.policy.ImmersiveModeConfirmation$ClingWindowView$2'
p135
sg15
(lp136
sg17
(lp137
sg19
(lp138
sg21
I0
sba(iArchitecture
Entity
p139
(dp140
g11
(lp141
sg13
S'com.android.server.policy.ImmersiveModeConfirmation$ClingWindowView$3'
p142
sg15
(lp143
sg17
(lp144
sg19
(lp145
sg21
I0
sba(iArchitecture
Entity
p146
(dp147
g11
(lp148
sg13
S'com.android.server.policy.ImmersiveModeConfirmation$ClingWindowView$4'
p149
sg15
(lp150
sg17
(lp151
sg19
(lp152
sg21
I0
sba(iArchitecture
Entity
p153
(dp154
g11
(lp155
sg13
S'com.android.server.policy.ImmersiveModeConfirmation$ClingWindowView$5'
p156
sg15
(lp157
sg17
(lp158
sg19
(lp159
sg21
I0
sba(iArchitecture
Entity
p160
(dp161
g11
(lp162
sg13
S'com.android.server.policy.ImmersiveModeConfirmation$ClingWindowView$5$1'
p163
sg15
(lp164
sg17
(lp165
sg19
(lp166
sg21
I0
sba(iArchitecture
Entity
p167
(dp168
g11
(lp169
sg13
S'com.android.server.policy.ImmersiveModeConfirmation$H'
p170
sg15
(lp171
sg17
(lp172
sg19
(lp173
sg21
I0
sbasg22
(lp174
g107
ag114
ag121
ag128
ag135
ag142
ag149
ag156
ag163
ag170
asg21
I0
sg24
S'1071'
p175
sba(iArchitecture
Cluster
p176
(dp177
g7
(lp178
(iArchitecture
Entity
p179
(dp180
g11
(lp181
sg13
S'android.hardware.camera2.legacy.CameraDeviceState'
p182
sg15
(lp183
sg17
(lp184
sg19
(lp185
sg21
I0
sba(iArchitecture
Entity
p186
(dp187
g11
(lp188
sg13
S'android.hardware.camera2.legacy.CameraDeviceState$1'
p189
sg15
(lp190
sg17
(lp191
sg19
(lp192
sg21
I0
sba(iArchitecture
Entity
p193
(dp194
g11
(lp195
sg13
S'android.hardware.camera2.legacy.CameraDeviceState$2'
p196
sg15
(lp197
sg17
(lp198
sg19
(lp199
sg21
I0
sba(iArchitecture
Entity
p200
(dp201
g11
(lp202
sg13
S'android.hardware.camera2.legacy.CameraDeviceState$3'
p203
sg15
(lp204
sg17
(lp205
sg19
(lp206
sg21
I0
sba(iArchitecture
Entity
p207
(dp208
g11
(lp209
sg13
S'android.hardware.camera2.legacy.CameraDeviceState$4'
p210
sg15
(lp211
sg17
(lp212
sg19
(lp213
sg21
I0
sba(iArchitecture
Entity
p214
(dp215
g11
(lp216
sg13
S'android.hardware.camera2.legacy.CameraDeviceState$5'
p217
sg15
(lp218
sg17
(lp219
sg19
(lp220
sg21
I0
sba(iArchitecture
Entity
p221
(dp222
g11
(lp223
sg13
S'android.hardware.camera2.legacy.CameraDeviceState$6'
p224
sg15
(lp225
sg17
(lp226
sg19
(lp227
sg21
I0
sba(iArchitecture
Entity
p228
(dp229
g11
(lp230
sg13
S'android.hardware.camera2.legacy.CameraDeviceState$7'
p231
sg15
(lp232
sg17
(lp233
sg19
(lp234
sg21
I0
sba(iArchitecture
Entity
p235
(dp236
g11
(lp237
sg13
S'android.hardware.camera2.legacy.CameraDeviceState$8'
p238
sg15
(lp239
sg17
(lp240
sg19
(lp241
sg21
I0
sba(iArchitecture
Entity
p242
(dp243
g11
(lp244
sg13
S'android.hardware.camera2.legacy.CameraDeviceState$CameraDeviceStateListener'
p245
sg15
(lp246
sg17
(lp247
sg19
(lp248
sg21
I0
sbasg22
(lp249
g182
ag189
ag196
ag203
ag210
ag217
ag224
ag231
ag238
ag245
asg21
I0
sg24
S'1072'
p250
sba(iArchitecture
Cluster
p251
(dp252
g7
(lp253
(iArchitecture
Entity
p254
(dp255
g11
(lp256
sg13
S'android.app.Instrumentation'
p257
sg15
(lp258
sg17
(lp259
sg19
(lp260
sg21
I0
sba(iArchitecture
Entity
p261
(dp262
g11
(lp263
sg13
S'android.app.Instrumentation$1ContextMenuRunnable'
p264
sg15
(lp265
sg17
(lp266
sg19
(lp267
sg21
I0
sba(iArchitecture
Entity
p268
(dp269
g11
(lp270
sg13
S'android.app.Instrumentation$1MenuRunnable'
p271
sg15
(lp272
sg17
(lp273
sg19
(lp274
sg21
I0
sba(iArchitecture
Entity
p275
(dp276
g11
(lp277
sg13
S'android.app.Instrumentation$ActivityGoing'
p278
sg15
(lp279
sg17
(lp280
sg19
(lp281
sg21
I0
sba(iArchitecture
Entity
p282
(dp283
g11
(lp284
sg13
S'android.app.Instrumentation$ActivityMonitor'
p285
sg15
(lp286
sg17
(lp287
sg19
(lp288
sg21
I0
sba(iArchitecture
Entity
p289
(dp290
g11
(lp291
sg13
S'android.app.Instrumentation$ActivityResult'
p292
sg15
(lp293
sg17
(lp294
sg19
(lp295
sg21
I0
sba(iArchitecture
Entity
p296
(dp297
g11
(lp298
sg13
S'android.app.Instrumentation$ActivityWaiter'
p299
sg15
(lp300
sg17
(lp301
sg19
(lp302
sg21
I0
sba(iArchitecture
Entity
p303
(dp304
g11
(lp305
sg13
S'android.app.Instrumentation$EmptyRunnable'
p306
sg15
(lp307
sg17
(lp308
sg19
(lp309
sg21
I0
sba(iArchitecture
Entity
p310
(dp311
g11
(lp312
sg13
S'android.app.Instrumentation$Idler'
p313
sg15
(lp314
sg17
(lp315
sg19
(lp316
sg21
I0
sba(iArchitecture
Entity
p317
(dp318
g11
(lp319
sg13
S'android.app.Instrumentation$InstrumentationThread'
p320
sg15
(lp321
sg17
(lp322
sg19
(lp323
sg21
I0
sba(iArchitecture
Entity
p324
(dp325
g11
(lp326
sg13
S'android.app.Instrumentation$SyncRunnable'
p327
sg15
(lp328
sg17
(lp329
sg19
(lp330
sg21
I0
sbasg22
(lp331
g257
ag264
ag271
ag278
ag285
ag292
ag299
ag306
ag313
ag320
ag327
asg21
I0
sg24
S'1073'
p332
sba(iArchitecture
Cluster
p333
(dp334
g7
(lp335
(iArchitecture
Entity
p336
(dp337
g11
(lp338
sg13
S'android.media.MediaDrm'
p339
sg15
(lp340
sg17
(lp341
sg19
(lp342
sg21
I0
sba(iArchitecture
Entity
p343
(dp344
g11
(lp345
sg13
S'android.media.MediaDrm$Certificate'
p346
sg15
(lp347
sg17
(lp348
sg19
(lp349
sg21
I0
sba(iArchitecture
Entity
p350
(dp351
g11
(lp352
sg13
S'android.media.MediaDrm$CertificateRequest'
p353
sg15
(lp354
sg17
(lp355
sg19
(lp356
sg21
I0
sba(iArchitecture
Entity
p357
(dp358
g11
(lp359
sg13
S'android.media.MediaDrm$CryptoSession'
p360
sg15
(lp361
sg17
(lp362
sg19
(lp363
sg21
I0
sba(iArchitecture
Entity
p364
(dp365
g11
(lp366
sg13
S'android.media.MediaDrm$EventHandler'
p367
sg15
(lp368
sg17
(lp369
sg19
(lp370
sg21
I0
sba(iArchitecture
Entity
p371
(dp372
g11
(lp373
sg13
S'android.media.MediaDrm$KeyRequest'
p374
sg15
(lp375
sg17
(lp376
sg19
(lp377
sg21
I0
sba(iArchitecture
Entity
p378
(dp379
g11
(lp380
sg13
S'android.media.MediaDrm$KeyStatus'
p381
sg15
(lp382
sg17
(lp383
sg19
(lp384
sg21
I0
sba(iArchitecture
Entity
p385
(dp386
g11
(lp387
sg13
S'android.media.MediaDrm$MediaDrmStateException'
p388
sg15
(lp389
sg17
(lp390
sg19
(lp391
sg21
I0
sba(iArchitecture
Entity
p392
(dp393
g11
(lp394
sg13
S'android.media.MediaDrm$OnEventListener'
p395
sg15
(lp396
sg17
(lp397
sg19
(lp398
sg21
I0
sba(iArchitecture
Entity
p399
(dp400
g11
(lp401
sg13
S'android.media.MediaDrm$OnExpirationUpdateListener'
p402
sg15
(lp403
sg17
(lp404
sg19
(lp405
sg21
I0
sba(iArchitecture
Entity
p406
(dp407
g11
(lp408
sg13
S'android.media.MediaDrm$OnKeyStatusChangeListener'
p409
sg15
(lp410
sg17
(lp411
sg19
(lp412
sg21
I0
sba(iArchitecture
Entity
p413
(dp414
g11
(lp415
sg13
S'android.media.MediaDrm$ProvisionRequest'
p416
sg15
(lp417
sg17
(lp418
sg19
(lp419
sg21
I0
sbasg22
(lp420
g339
ag346
ag353
ag360
ag367
ag374
ag381
ag388
ag395
ag402
ag409
ag416
asg21
I0
sg24
S'1074'
p421
sba(iArchitecture
Cluster
p422
(dp423
g7
(lp424
(iArchitecture
Entity
p425
(dp426
g11
(lp427
sg13
S'android.telecom.RemoteConference'
p428
sg15
(lp429
sg17
(lp430
sg19
(lp431
sg21
I0
sba(iArchitecture
Entity
p432
(dp433
g11
(lp434
sg13
S'android.telecom.RemoteConference$1'
p435
sg15
(lp436
sg17
(lp437
sg19
(lp438
sg21
I0
sba(iArchitecture
Entity
p439
(dp440
g11
(lp441
sg13
S'android.telecom.RemoteConference$2'
p442
sg15
(lp443
sg17
(lp444
sg19
(lp445
sg21
I0
sba(iArchitecture
Entity
p446
(dp447
g11
(lp448
sg13
S'android.telecom.RemoteConference$3'
p449
sg15
(lp450
sg17
(lp451
sg19
(lp452
sg21
I0
sba(iArchitecture
Entity
p453
(dp454
g11
(lp455
sg13
S'android.telecom.RemoteConference$4'
p456
sg15
(lp457
sg17
(lp458
sg19
(lp459
sg21
I0
sba(iArchitecture
Entity
p460
(dp461
g11
(lp462
sg13
S'android.telecom.RemoteConference$5'
p463
sg15
(lp464
sg17
(lp465
sg19
(lp466
sg21
I0
sba(iArchitecture
Entity
p467
(dp468
g11
(lp469
sg13
S'android.telecom.RemoteConference$6'
p470
sg15
(lp471
sg17
(lp472
sg19
(lp473
sg21
I0
sba(iArchitecture
Entity
p474
(dp475
g11
(lp476
sg13
S'android.telecom.RemoteConference$7'
p477
sg15
(lp478
sg17
(lp479
sg19
(lp480
sg21
I0
sba(iArchitecture
Entity
p481
(dp482
g11
(lp483
sg13
S'android.telecom.RemoteConference$8'
p484
sg15
(lp485
sg17
(lp486
sg19
(lp487
sg21
I0
sba(iArchitecture
Entity
p488
(dp489
g11
(lp490
sg13
S'android.telecom.RemoteConference$Callback'
p491
sg15
(lp492
sg17
(lp493
sg19
(lp494
sg21
I0
sbasg22
(lp495
g428
ag435
ag442
ag449
ag456
ag463
ag470
ag477
ag484
ag491
asg21
I0
sg24
S'1075'
p496
sba(iArchitecture
Cluster
p497
(dp498
g7
(lp499
(iArchitecture
Entity
p500
(dp501
g11
(lp502
sg13
S'android.net.Uri'
p503
sg15
(lp504
sg17
(lp505
sg19
(lp506
sg21
I0
sba(iArchitecture
Entity
p507
(dp508
g11
(lp509
sg13
S'android.net.Uri$1'
p510
sg15
(lp511
sg17
(lp512
sg19
(lp513
sg21
I0
sba(iArchitecture
Entity
p514
(dp515
g11
(lp516
sg13
S'android.net.Uri$AbstractHierarchicalUri'
p517
sg15
(lp518
sg17
(lp519
sg19
(lp520
sg21
I0
sba(iArchitecture
Entity
p521
(dp522
g11
(lp523
sg13
S'android.net.Uri$AbstractPart'
p524
sg15
(lp525
sg17
(lp526
sg19
(lp527
sg21
I0
sba(iArchitecture
Entity
p528
(dp529
g11
(lp530
sg13
S'android.net.Uri$AbstractPart$Representation'
p531
sg15
(lp532
sg17
(lp533
sg19
(lp534
sg21
I0
sba(iArchitecture
Entity
p535
(dp536
g11
(lp537
sg13
S'android.net.Uri$Builder'
p538
sg15
(lp539
sg17
(lp540
sg19
(lp541
sg21
I0
sba(iArchitecture
Entity
p542
(dp543
g11
(lp544
sg13
S'android.net.Uri$HierarchicalUri'
p545
sg15
(lp546
sg17
(lp547
sg19
(lp548
sg21
I0
sba(iArchitecture
Entity
p549
(dp550
g11
(lp551
sg13
S'android.net.Uri$OpaqueUri'
p552
sg15
(lp553
sg17
(lp554
sg19
(lp555
sg21
I0
sba(iArchitecture
Entity
p556
(dp557
g11
(lp558
sg13
S'android.net.Uri$Part'
p559
sg15
(lp560
sg17
(lp561
sg19
(lp562
sg21
I0
sba(iArchitecture
Entity
p563
(dp564
g11
(lp565
sg13
S'android.net.Uri$Part$EmptyPart'
p566
sg15
(lp567
sg17
(lp568
sg19
(lp569
sg21
I0
sba(iArchitecture
Entity
p570
(dp571
g11
(lp572
sg13
S'android.net.Uri$PathPart'
p573
sg15
(lp574
sg17
(lp575
sg19
(lp576
sg21
I0
sba(iArchitecture
Entity
p577
(dp578
g11
(lp579
sg13
S'android.net.Uri$PathSegments'
p580
sg15
(lp581
sg17
(lp582
sg19
(lp583
sg21
I0
sba(iArchitecture
Entity
p584
(dp585
g11
(lp586
sg13
S'android.net.Uri$PathSegmentsBuilder'
p587
sg15
(lp588
sg17
(lp589
sg19
(lp590
sg21
I0
sba(iArchitecture
Entity
p591
(dp592
g11
(lp593
sg13
S'android.net.Uri$StringUri'
p594
sg15
(lp595
sg17
(lp596
sg19
(lp597
sg21
I0
sbasg22
(lp598
g503
ag510
ag517
ag524
ag531
ag538
ag545
ag552
ag559
ag566
ag573
ag580
ag587
ag594
asg21
I0
sg24
S'1076'
p599
sba(iArchitecture
Cluster
p600
(dp601
g7
(lp602
(iArchitecture
Entity
p603
(dp604
g11
(lp605
sg13
S'com.android.server.fingerprint.FingerprintService'
p606
sg15
(lp607
sg17
(lp608
sg19
(lp609
sg21
I0
sba(iArchitecture
Entity
p610
(dp611
g11
(lp612
sg13
S'com.android.server.fingerprint.FingerprintService$1'
p613
sg15
(lp614
sg17
(lp615
sg19
(lp616
sg21
I0
sba(iArchitecture
Entity
p617
(dp618
g11
(lp619
sg13
S'com.android.server.fingerprint.FingerprintService$2'
p620
sg15
(lp621
sg17
(lp622
sg19
(lp623
sg21
I0
sba(iArchitecture
Entity
p624
(dp625
g11
(lp626
sg13
S'com.android.server.fingerprint.FingerprintService$3'
p627
sg15
(lp628
sg17
(lp629
sg19
(lp630
sg21
I0
sba(iArchitecture
Entity
p631
(dp632
g11
(lp633
sg13
S'com.android.server.fingerprint.FingerprintService$4'
p634
sg15
(lp635
sg17
(lp636
sg19
(lp637
sg21
I0
sba(iArchitecture
Entity
p638
(dp639
g11
(lp640
sg13
S'com.android.server.fingerprint.FingerprintService$ClientMonitor'
p641
sg15
(lp642
sg17
(lp643
sg19
(lp644
sg21
I0
sba(iArchitecture
Entity
p645
(dp646
g11
(lp647
sg13
S'com.android.server.fingerprint.FingerprintService$FingerprintServiceWrapper'
p648
sg15
(lp649
sg17
(lp650
sg19
(lp651
sg21
I0
sba(iArchitecture
Entity
p652
(dp653
g11
(lp654
sg13
S'com.android.server.fingerprint.FingerprintService$FingerprintServiceWrapper$1'
p655
sg15
(lp656
sg17
(lp657
sg19
(lp658
sg21
I0
sba(iArchitecture
Entity
p659
(dp660
g11
(lp661
sg13
S'com.android.server.fingerprint.FingerprintService$FingerprintServiceWrapper$2'
p662
sg15
(lp663
sg17
(lp664
sg19
(lp665
sg21
I0
sba(iArchitecture
Entity
p666
(dp667
g11
(lp668
sg13
S'com.android.server.fingerprint.FingerprintService$FingerprintServiceWrapper$3'
p669
sg15
(lp670
sg17
(lp671
sg19
(lp672
sg21
I0
sba(iArchitecture
Entity
p673
(dp674
g11
(lp675
sg13
S'com.android.server.fingerprint.FingerprintService$FingerprintServiceWrapper$4'
p676
sg15
(lp677
sg17
(lp678
sg19
(lp679
sg21
I0
sba(iArchitecture
Entity
p680
(dp681
g11
(lp682
sg13
S'com.android.server.fingerprint.FingerprintService$FingerprintServiceWrapper$5'
p683
sg15
(lp684
sg17
(lp685
sg19
(lp686
sg21
I0
sba(iArchitecture
Entity
p687
(dp688
g11
(lp689
sg13
S'com.android.server.fingerprint.FingerprintService$FingerprintServiceWrapper$6'
p690
sg15
(lp691
sg17
(lp692
sg19
(lp693
sg21
I0
sbasg22
(lp694
g606
ag613
ag620
ag627
ag634
ag641
ag648
ag655
ag662
ag669
ag676
ag683
ag690
asg21
I0
sg24
S'1077'
p695
sba(iArchitecture
Cluster
p696
(dp697
g7
(lp698
(iArchitecture
Entity
p699
(dp700
g11
(lp701
sg13
S'android.view.ViewTreeObserver'
p702
sg15
(lp703
sg17
(lp704
sg19
(lp705
sg21
I0
sba(iArchitecture
Entity
p706
(dp707
g11
(lp708
sg13
S'android.view.ViewTreeObserver$CopyOnWriteArray'
p709
sg15
(lp710
sg17
(lp711
sg19
(lp712
sg21
I0
sba(iArchitecture
Entity
p713
(dp714
g11
(lp715
sg13
S'android.view.ViewTreeObserver$CopyOnWriteArray$Access'
p716
sg15
(lp717
sg17
(lp718
sg19
(lp719
sg21
I0
sba(iArchitecture
Entity
p720
(dp721
g11
(lp722
sg13
S'android.view.ViewTreeObserver$InternalInsetsInfo'
p723
sg15
(lp724
sg17
(lp725
sg19
(lp726
sg21
I0
sba(iArchitecture
Entity
p727
(dp728
g11
(lp729
sg13
S'android.view.ViewTreeObserver$OnComputeInternalInsetsListener'
p730
sg15
(lp731
sg17
(lp732
sg19
(lp733
sg21
I0
sba(iArchitecture
Entity
p734
(dp735
g11
(lp736
sg13
S'android.view.ViewTreeObserver$OnDrawListener'
p737
sg15
(lp738
sg17
(lp739
sg19
(lp740
sg21
I0
sba(iArchitecture
Entity
p741
(dp742
g11
(lp743
sg13
S'android.view.ViewTreeObserver$OnEnterAnimationCompleteListener'
p744
sg15
(lp745
sg17
(lp746
sg19
(lp747
sg21
I0
sba(iArchitecture
Entity
p748
(dp749
g11
(lp750
sg13
S'android.view.ViewTreeObserver$OnGlobalFocusChangeListener'
p751
sg15
(lp752
sg17
(lp753
sg19
(lp754
sg21
I0
sba(iArchitecture
Entity
p755
(dp756
g11
(lp757
sg13
S'android.view.ViewTreeObserver$OnGlobalLayoutListener'
p758
sg15
(lp759
sg17
(lp760
sg19
(lp761
sg21
I0
sba(iArchitecture
Entity
p762
(dp763
g11
(lp764
sg13
S'android.view.ViewTreeObserver$OnPreDrawListener'
p765
sg15
(lp766
sg17
(lp767
sg19
(lp768
sg21
I0
sba(iArchitecture
Entity
p769
(dp770
g11
(lp771
sg13
S'android.view.ViewTreeObserver$OnScrollChangedListener'
p772
sg15
(lp773
sg17
(lp774
sg19
(lp775
sg21
I0
sba(iArchitecture
Entity
p776
(dp777
g11
(lp778
sg13
S'android.view.ViewTreeObserver$OnTouchModeChangeListener'
p779
sg15
(lp780
sg17
(lp781
sg19
(lp782
sg21
I0
sba(iArchitecture
Entity
p783
(dp784
g11
(lp785
sg13
S'android.view.ViewTreeObserver$OnWindowAttachListener'
p786
sg15
(lp787
sg17
(lp788
sg19
(lp789
sg21
I0
sba(iArchitecture
Entity
p790
(dp791
g11
(lp792
sg13
S'android.view.ViewTreeObserver$OnWindowFocusChangeListener'
p793
sg15
(lp794
sg17
(lp795
sg19
(lp796
sg21
I0
sba(iArchitecture
Entity
p797
(dp798
g11
(lp799
sg13
S'android.view.ViewTreeObserver$OnWindowShownListener'
p800
sg15
(lp801
sg17
(lp802
sg19
(lp803
sg21
I0
sbasg22
(lp804
g702
ag709
ag716
ag723
ag730
ag737
ag744
ag751
ag758
ag765
ag772
ag779
ag786
ag793
ag800
asg21
I0
sg24
S'1078'
p805
sba(iArchitecture
Cluster
p806
(dp807
g7
(lp808
(iArchitecture
Entity
p809
(dp810
g11
(lp811
sg13
S'com.android.server.print.RemotePrintSpooler'
p812
sg15
(lp813
sg17
(lp814
sg19
(lp815
sg21
I0
sba(iArchitecture
Entity
p816
(dp817
g11
(lp818
sg13
S'com.android.server.print.RemotePrintSpooler$BasePrintSpoolerServiceCallbacks'
p819
sg15
(lp820
sg17
(lp821
sg19
(lp822
sg21
I0
sba(iArchitecture
Entity
p823
(dp824
g11
(lp825
sg13
S'com.android.server.print.RemotePrintSpooler$GetPrintJobInfoCaller'
p826
sg15
(lp827
sg17
(lp828
sg19
(lp829
sg21
I0
sba(iArchitecture
Entity
p830
(dp831
g11
(lp832
sg13
S'com.android.server.print.RemotePrintSpooler$GetPrintJobInfoCaller$1'
p833
sg15
(lp834
sg17
(lp835
sg19
(lp836
sg21
I0
sba(iArchitecture
Entity
p837
(dp838
g11
(lp839
sg13
S'com.android.server.print.RemotePrintSpooler$GetPrintJobInfosCaller'
p840
sg15
(lp841
sg17
(lp842
sg19
(lp843
sg21
I0
sba(iArchitecture
Entity
p844
(dp845
g11
(lp846
sg13
S'com.android.server.print.RemotePrintSpooler$GetPrintJobInfosCaller$1'
p847
sg15
(lp848
sg17
(lp849
sg19
(lp850
sg21
I0
sba(iArchitecture
Entity
p851
(dp852
g11
(lp853
sg13
S'com.android.server.print.RemotePrintSpooler$MyServiceConnection'
p854
sg15
(lp855
sg17
(lp856
sg19
(lp857
sg21
I0
sba(iArchitecture
Entity
p858
(dp859
g11
(lp860
sg13
S'com.android.server.print.RemotePrintSpooler$PrintSpoolerCallbacks'
p861
sg15
(lp862
sg17
(lp863
sg19
(lp864
sg21
I0
sba(iArchitecture
Entity
p865
(dp866
g11
(lp867
sg13
S'com.android.server.print.RemotePrintSpooler$PrintSpoolerClient'
p868
sg15
(lp869
sg17
(lp870
sg19
(lp871
sg21
I0
sba(iArchitecture
Entity
p872
(dp873
g11
(lp874
sg13
S'com.android.server.print.RemotePrintSpooler$SetPrintJobStateCaller'
p875
sg15
(lp876
sg17
(lp877
sg19
(lp878
sg21
I0
sba(iArchitecture
Entity
p879
(dp880
g11
(lp881
sg13
S'com.android.server.print.RemotePrintSpooler$SetPrintJobStateCaller$1'
p882
sg15
(lp883
sg17
(lp884
sg19
(lp885
sg21
I0
sba(iArchitecture
Entity
p886
(dp887
g11
(lp888
sg13
S'com.android.server.print.RemotePrintSpooler$SetPrintJobTagCaller'
p889
sg15
(lp890
sg17
(lp891
sg19
(lp892
sg21
I0
sba(iArchitecture
Entity
p893
(dp894
g11
(lp895
sg13
S'com.android.server.print.RemotePrintSpooler$SetPrintJobTagCaller$1'
p896
sg15
(lp897
sg17
(lp898
sg19
(lp899
sg21
I0
sbasg22
(lp900
g812
ag819
ag826
ag833
ag840
ag847
ag854
ag861
ag868
ag875
ag882
ag889
ag896
asg21
I0
sg24
S'1079'
p901
sba(iArchitecture
Cluster
p902
(dp903
g7
(lp904
(iArchitecture
Entity
p905
(dp906
g11
(lp907
sg13
S'android.bluetooth.BluetoothGatt'
p908
sg15
(lp909
sg17
(lp910
sg19
(lp911
sg21
I0
sba(iArchitecture
Entity
p912
(dp913
g11
(lp914
sg13
S'android.bluetooth.BluetoothGatt$1'
p915
sg15
(lp916
sg17
(lp917
sg19
(lp918
sg21
I0
sba(iArchitecture
Entity
p919
(dp920
g11
(lp921
sg13
S'android.bluetooth.BluetoothGattServer'
p922
sg15
(lp923
sg17
(lp924
sg19
(lp925
sg21
I0
sba(iArchitecture
Entity
p926
(dp927
g11
(lp928
sg13
S'android.bluetooth.BluetoothGattServer$1'
p929
sg15
(lp930
sg17
(lp931
sg19
(lp932
sg21
I0
sbasg22
(lp933
g908
ag915
ag922
ag929
asg21
I0
sg24
S'1107'
p934
sbasS'target_sub'
p935
S'107'
p936
sg22
(lp937
sS'is_component_arch'
p938
I01
sg24
S'6.0.0_r1'
p939
sba.