(lp0
(iArchitecture
Architecture
p1
(dp2
S'clusters'
p3
(lp4
(iArchitecture
Cluster
p5
(dp6
S'entities'
p7
(lp8
(iArchitecture
Entity
p9
(dp10
S'issue_ids'
p11
(lp12
sS'name'
p13
S'android.view.ViewTreeObserver'
p14
sS'descs'
p15
(lp16
sS'labels'
p17
(lp18
sS'titles'
p19
(lp20
sS'change'
p21
I0
sba(iArchitecture
Entity
p22
(dp23
g11
(lp24
sg13
S'android.view.ViewTreeObserver$CopyOnWriteArray'
p25
sg15
(lp26
sg17
(lp27
sg19
(lp28
sg21
I0
sba(iArchitecture
Entity
p29
(dp30
g11
(lp31
sg13
S'android.view.ViewTreeObserver$CopyOnWriteArray$Access'
p32
sg15
(lp33
sg17
(lp34
sg19
(lp35
sg21
I0
sba(iArchitecture
Entity
p36
(dp37
g11
(lp38
sg13
S'android.view.ViewTreeObserver$InternalInsetsInfo'
p39
sg15
(lp40
sg17
(lp41
sg19
(lp42
sg21
I0
sba(iArchitecture
Entity
p43
(dp44
g11
(lp45
sg13
S'android.view.ViewTreeObserver$OnComputeInternalInsetsListener'
p46
sg15
(lp47
sg17
(lp48
sg19
(lp49
sg21
I0
sba(iArchitecture
Entity
p50
(dp51
g11
(lp52
sg13
S'android.view.ViewTreeObserver$OnDrawListener'
p53
sg15
(lp54
sg17
(lp55
sg19
(lp56
sg21
I0
sba(iArchitecture
Entity
p57
(dp58
g11
(lp59
sg13
S'android.view.ViewTreeObserver$OnEnterAnimationCompleteListener'
p60
sg15
(lp61
sg17
(lp62
sg19
(lp63
sg21
I0
sba(iArchitecture
Entity
p64
(dp65
g11
(lp66
sg13
S'android.view.ViewTreeObserver$OnGlobalFocusChangeListener'
p67
sg15
(lp68
sg17
(lp69
sg19
(lp70
sg21
I0
sba(iArchitecture
Entity
p71
(dp72
g11
(lp73
sg13
S'android.view.ViewTreeObserver$OnGlobalLayoutListener'
p74
sg15
(lp75
sg17
(lp76
sg19
(lp77
sg21
I0
sba(iArchitecture
Entity
p78
(dp79
g11
(lp80
sg13
S'android.view.ViewTreeObserver$OnPreDrawListener'
p81
sg15
(lp82
sg17
(lp83
sg19
(lp84
sg21
I0
sba(iArchitecture
Entity
p85
(dp86
g11
(lp87
sg13
S'android.view.ViewTreeObserver$OnScrollChangedListener'
p88
sg15
(lp89
sg17
(lp90
sg19
(lp91
sg21
I0
sba(iArchitecture
Entity
p92
(dp93
g11
(lp94
sg13
S'android.view.ViewTreeObserver$OnTouchModeChangeListener'
p95
sg15
(lp96
sg17
(lp97
sg19
(lp98
sg21
I0
sba(iArchitecture
Entity
p99
(dp100
g11
(lp101
sg13
S'android.view.ViewTreeObserver$OnWindowAttachListener'
p102
sg15
(lp103
sg17
(lp104
sg19
(lp105
sg21
I0
sba(iArchitecture
Entity
p106
(dp107
g11
(lp108
sg13
S'android.view.ViewTreeObserver$OnWindowFocusChangeListener'
p109
sg15
(lp110
sg17
(lp111
sg19
(lp112
sg21
I0
sba(iArchitecture
Entity
p113
(dp114
g11
(lp115
sg13
S'android.view.ViewTreeObserver$OnWindowShownListener'
p116
sg15
(lp117
sg17
(lp118
sg19
(lp119
sg21
I0
sbasS'classes'
p120
(lp121
g14
ag25
ag32
ag39
ag46
ag53
ag60
ag67
ag74
ag81
ag88
ag95
ag102
ag109
ag116
asg21
I0
sS'label'
p122
S'1078'
p123
sba(iArchitecture
Cluster
p124
(dp125
g7
(lp126
(iArchitecture
Entity
p127
(dp128
g11
(lp129
sg13
S'android.nfc.Tag'
p130
sg15
(lp131
sg17
(lp132
sg19
(lp133
sg21
I0
sba(iArchitecture
Entity
p134
(dp135
g11
(lp136
sg13
S'android.nfc.Tag$1'
p137
sg15
(lp138
sg17
(lp139
sg19
(lp140
sg21
I0
sba(iArchitecture
Entity
p141
(dp142
g11
(lp143
sg13
S'android.nfc.tech.IsoDep'
p144
sg15
(lp145
sg17
(lp146
sg19
(lp147
sg21
I0
sba(iArchitecture
Entity
p148
(dp149
g11
(lp150
sg13
S'android.nfc.tech.MifareClassic'
p151
sg15
(lp152
sg17
(lp153
sg19
(lp154
sg21
I0
sba(iArchitecture
Entity
p155
(dp156
g11
(lp157
sg13
S'android.nfc.tech.MifareUltralight'
p158
sg15
(lp159
sg17
(lp160
sg19
(lp161
sg21
I0
sba(iArchitecture
Entity
p162
(dp163
g11
(lp164
sg13
S'android.nfc.tech.Ndef'
p165
sg15
(lp166
sg17
(lp167
sg19
(lp168
sg21
I0
sba(iArchitecture
Entity
p169
(dp170
g11
(lp171
sg13
S'android.nfc.tech.NdefFormatable'
p172
sg15
(lp173
sg17
(lp174
sg19
(lp175
sg21
I0
sba(iArchitecture
Entity
p176
(dp177
g11
(lp178
sg13
S'android.nfc.tech.NfcA'
p179
sg15
(lp180
sg17
(lp181
sg19
(lp182
sg21
I0
sba(iArchitecture
Entity
p183
(dp184
g11
(lp185
sg13
S'android.nfc.tech.NfcB'
p186
sg15
(lp187
sg17
(lp188
sg19
(lp189
sg21
I0
sba(iArchitecture
Entity
p190
(dp191
g11
(lp192
sg13
S'android.nfc.tech.NfcF'
p193
sg15
(lp194
sg17
(lp195
sg19
(lp196
sg21
I0
sba(iArchitecture
Entity
p197
(dp198
g11
(lp199
sg13
S'android.nfc.tech.NfcV'
p200
sg15
(lp201
sg17
(lp202
sg19
(lp203
sg21
I0
sba(iArchitecture
Entity
p204
(dp205
g11
(lp206
sg13
S'android.nfc.tech.TagTechnology'
p207
sg15
(lp208
sg17
(lp209
sg19
(lp210
sg21
I0
sbasg120
(lp211
g130
ag137
ag144
ag151
ag158
ag165
ag172
ag179
ag186
ag193
ag200
ag207
asg21
I0
sg122
S'1178'
p212
sba(iArchitecture
Cluster
p213
(dp214
g7
(lp215
(iArchitecture
Entity
p216
(dp217
g11
(lp218
sg13
S'android.filterfw.core.ShaderProgram'
p219
sg15
(lp220
sg17
(lp221
sg19
(lp222
sg21
I0
sbasg120
(lp223
g219
asg21
I0
sg122
S'178'
p224
sba(iArchitecture
Cluster
p225
(dp226
g7
(lp227
(iArchitecture
Entity
p228
(dp229
g11
(lp230
sg13
S'android.app.ResourcesManager'
p231
sg15
(lp232
sg17
(lp233
sg19
(lp234
sg21
I0
sbasg120
(lp235
g231
asg21
I0
sg122
S'278'
p236
sba(iArchitecture
Cluster
p237
(dp238
g7
(lp239
(iArchitecture
Entity
p240
(dp241
g11
(lp242
sg13
S'android.gesture.GestureLibrary'
p243
sg15
(lp244
sg17
(lp245
sg19
(lp246
sg21
I0
sbasg120
(lp247
g243
asg21
I0
sg122
S'378'
p248
sba(iArchitecture
Cluster
p249
(dp250
g7
(lp251
(iArchitecture
Entity
p252
(dp253
g11
(lp254
sg13
S'com.android.internal.logging.AndroidHandler'
p255
sg15
(lp256
sg17
(lp257
sg19
(lp258
sg21
I0
sba(iArchitecture
Entity
p259
(dp260
g11
(lp261
sg13
S'com.android.internal.logging.AndroidHandler$1'
p262
sg15
(lp263
sg17
(lp264
sg19
(lp265
sg21
I0
sbasg120
(lp266
g255
ag262
asg21
I0
sg122
S'478'
p267
sba(iArchitecture
Cluster
p268
(dp269
g7
(lp270
(iArchitecture
Entity
p271
(dp272
g11
(lp273
sg13
S'android.security.KeyStore'
p274
sg15
(lp275
sg17
(lp276
sg19
(lp277
sg21
I0
sba(iArchitecture
Entity
p278
(dp279
g11
(lp280
sg13
S'android.security.KeyStore$State'
p281
sg15
(lp282
sg17
(lp283
sg19
(lp284
sg21
I0
sbasg120
(lp285
g274
ag281
asg21
I0
sg122
S'578'
p286
sba(iArchitecture
Cluster
p287
(dp288
g7
(lp289
(iArchitecture
Entity
p290
(dp291
g11
(lp292
sg13
S'com.android.server.search.Searchables'
p293
sg15
(lp294
sg17
(lp295
sg19
(lp296
sg21
I0
sba(iArchitecture
Entity
p297
(dp298
g11
(lp299
sg13
S'com.android.server.search.Searchables$1'
p300
sg15
(lp301
sg17
(lp302
sg19
(lp303
sg21
I0
sbasg120
(lp304
g293
ag300
asg21
I0
sg122
S'678'
p305
sba(iArchitecture
Cluster
p306
(dp307
g7
(lp308
(iArchitecture
Entity
p309
(dp310
g11
(lp311
sg13
S'android.widget.Chronometer'
p312
sg15
(lp313
sg17
(lp314
sg19
(lp315
sg21
I0
sba(iArchitecture
Entity
p316
(dp317
g11
(lp318
sg13
S'android.widget.Chronometer$1'
p319
sg15
(lp320
sg17
(lp321
sg19
(lp322
sg21
I0
sba(iArchitecture
Entity
p323
(dp324
g11
(lp325
sg13
S'android.widget.Chronometer$OnChronometerTickListener'
p326
sg15
(lp327
sg17
(lp328
sg19
(lp329
sg21
I0
sbasg120
(lp330
g312
ag319
ag326
asg21
I0
sg122
S'778'
p331
sba(iArchitecture
Cluster
p332
(dp333
g7
(lp334
(iArchitecture
Entity
p335
(dp336
g11
(lp337
sg13
S'android.view.DisplayEventReceiver'
p338
sg15
(lp339
sg17
(lp340
sg19
(lp341
sg21
I0
sbasg120
(lp342
g338
asg21
I0
sg122
S'78'
p343
sba(iArchitecture
Cluster
p344
(dp345
g7
(lp346
(iArchitecture
Entity
p347
(dp348
g11
(lp349
sg13
S'android.util.PathParser'
p350
sg15
(lp351
sg17
(lp352
sg19
(lp353
sg21
I0
sba(iArchitecture
Entity
p354
(dp355
g11
(lp356
sg13
S'android.util.PathParser$ExtractFloatResult'
p357
sg15
(lp358
sg17
(lp359
sg19
(lp360
sg21
I0
sba(iArchitecture
Entity
p361
(dp362
g11
(lp363
sg13
S'android.util.PathParser$PathDataNode'
p364
sg15
(lp365
sg17
(lp366
sg19
(lp367
sg21
I0
sbasg120
(lp368
g350
ag357
ag364
asg21
I0
sg122
S'780'
p369
sba(iArchitecture
Cluster
p370
(dp371
g7
(lp372
(iArchitecture
Entity
p373
(dp374
g11
(lp375
sg13
S'com.android.server.usb.UsbAlsaManager'
p376
sg15
(lp377
sg17
(lp378
sg19
(lp379
sg21
I0
sba(iArchitecture
Entity
p380
(dp381
g11
(lp382
sg13
S'com.android.server.usb.UsbAlsaManager$1'
p383
sg15
(lp384
sg17
(lp385
sg19
(lp386
sg21
I0
sba(iArchitecture
Entity
p387
(dp388
g11
(lp389
sg13
S'com.android.server.usb.UsbAlsaManager$AlsaDevice'
p390
sg15
(lp391
sg17
(lp392
sg19
(lp393
sg21
I0
sbasg120
(lp394
g376
ag383
ag390
asg21
I0
sg122
S'781'
p395
sba(iArchitecture
Cluster
p396
(dp397
g7
(lp398
(iArchitecture
Entity
p399
(dp400
g11
(lp401
sg13
S'android.app.AlarmManager'
p402
sg15
(lp403
sg17
(lp404
sg19
(lp405
sg21
I0
sba(iArchitecture
Entity
p406
(dp407
g11
(lp408
sg13
S'android.app.AlarmManager$AlarmClockInfo'
p409
sg15
(lp410
sg17
(lp411
sg19
(lp412
sg21
I0
sba(iArchitecture
Entity
p413
(dp414
g11
(lp415
sg13
S'android.app.AlarmManager$AlarmClockInfo$1'
p416
sg15
(lp417
sg17
(lp418
sg19
(lp419
sg21
I0
sbasg120
(lp420
g402
ag409
ag416
asg21
I0
sg122
S'782'
p421
sba(iArchitecture
Cluster
p422
(dp423
g7
(lp424
(iArchitecture
Entity
p425
(dp426
g11
(lp427
sg13
S'android.media.tv.TvStreamConfig'
p428
sg15
(lp429
sg17
(lp430
sg19
(lp431
sg21
I0
sba(iArchitecture
Entity
p432
(dp433
g11
(lp434
sg13
S'android.media.tv.TvStreamConfig$1'
p435
sg15
(lp436
sg17
(lp437
sg19
(lp438
sg21
I0
sba(iArchitecture
Entity
p439
(dp440
g11
(lp441
sg13
S'android.media.tv.TvStreamConfig$Builder'
p442
sg15
(lp443
sg17
(lp444
sg19
(lp445
sg21
I0
sbasg120
(lp446
g428
ag435
ag442
asg21
I0
sg122
S'783'
p447
sba(iArchitecture
Cluster
p448
(dp449
g7
(lp450
(iArchitecture
Entity
p451
(dp452
g11
(lp453
sg13
S'android.transition.Crossfade'
p454
sg15
(lp455
sg17
(lp456
sg19
(lp457
sg21
I0
sba(iArchitecture
Entity
p458
(dp459
g11
(lp460
sg13
S'android.transition.Crossfade$1'
p461
sg15
(lp462
sg17
(lp463
sg19
(lp464
sg21
I0
sba(iArchitecture
Entity
p465
(dp466
g11
(lp467
sg13
S'android.transition.Crossfade$2'
p468
sg15
(lp469
sg17
(lp470
sg19
(lp471
sg21
I0
sbasg120
(lp472
g454
ag461
ag468
asg21
I0
sg122
S'784'
p473
sba(iArchitecture
Cluster
p474
(dp475
g7
(lp476
(iArchitecture
Entity
p477
(dp478
g11
(lp479
sg13
S'android.view.ViewOutlineProvider'
p480
sg15
(lp481
sg17
(lp482
sg19
(lp483
sg21
I0
sba(iArchitecture
Entity
p484
(dp485
g11
(lp486
sg13
S'android.view.ViewOutlineProvider$1'
p487
sg15
(lp488
sg17
(lp489
sg19
(lp490
sg21
I0
sba(iArchitecture
Entity
p491
(dp492
g11
(lp493
sg13
S'android.view.ViewOutlineProvider$2'
p494
sg15
(lp495
sg17
(lp496
sg19
(lp497
sg21
I0
sba(iArchitecture
Entity
p498
(dp499
g11
(lp500
sg13
S'android.view.ViewOutlineProvider$3'
p501
sg15
(lp502
sg17
(lp503
sg19
(lp504
sg21
I0
sbasg120
(lp505
g480
ag487
ag494
ag501
asg21
I0
sg122
S'785'
p506
sba(iArchitecture
Cluster
p507
(dp508
g7
(lp509
(iArchitecture
Entity
p510
(dp511
g11
(lp512
sg13
S'android.telecom.PhoneAccount'
p513
sg15
(lp514
sg17
(lp515
sg19
(lp516
sg21
I0
sba(iArchitecture
Entity
p517
(dp518
g11
(lp519
sg13
S'android.telecom.PhoneAccount$1'
p520
sg15
(lp521
sg17
(lp522
sg19
(lp523
sg21
I0
sba(iArchitecture
Entity
p524
(dp525
g11
(lp526
sg13
S'android.telecom.PhoneAccount$Builder'
p527
sg15
(lp528
sg17
(lp529
sg19
(lp530
sg21
I0
sbasg120
(lp531
g513
ag520
ag527
asg21
I0
sg122
S'786'
p532
sba(iArchitecture
Cluster
p533
(dp534
g7
(lp535
(iArchitecture
Entity
p536
(dp537
g11
(lp538
sg13
S'android.hardware.soundtrigger.SoundTriggerModule'
p539
sg15
(lp540
sg17
(lp541
sg19
(lp542
sg21
I0
sba(iArchitecture
Entity
p543
(dp544
g11
(lp545
sg13
S'android.hardware.soundtrigger.SoundTriggerModule$NativeEventHandlerDelegate'
p546
sg15
(lp547
sg17
(lp548
sg19
(lp549
sg21
I0
sba(iArchitecture
Entity
p550
(dp551
g11
(lp552
sg13
S'android.hardware.soundtrigger.SoundTriggerModule$NativeEventHandlerDelegate$1'
p553
sg15
(lp554
sg17
(lp555
sg19
(lp556
sg21
I0
sbasg120
(lp557
g539
ag546
ag553
asg21
I0
sg122
S'787'
p558
sba(iArchitecture
Cluster
p559
(dp560
g7
(lp561
(iArchitecture
Entity
p562
(dp563
g11
(lp564
sg13
S'android.nfc.NfcActivityManager'
p565
sg15
(lp566
sg17
(lp567
sg19
(lp568
sg21
I0
sba(iArchitecture
Entity
p569
(dp570
g11
(lp571
sg13
S'android.nfc.NfcActivityManager$NfcActivityState'
p572
sg15
(lp573
sg17
(lp574
sg19
(lp575
sg21
I0
sba(iArchitecture
Entity
p576
(dp577
g11
(lp578
sg13
S'android.nfc.NfcActivityManager$NfcApplicationState'
p579
sg15
(lp580
sg17
(lp581
sg19
(lp582
sg21
I0
sbasg120
(lp583
g565
ag572
ag579
asg21
I0
sg122
S'788'
p584
sba(iArchitecture
Cluster
p585
(dp586
g7
(lp587
(iArchitecture
Entity
p588
(dp589
g11
(lp590
sg13
S'com.android.internal.inputmethod.InputMethodUtils'
p591
sg15
(lp592
sg17
(lp593
sg19
(lp594
sg21
I0
sba(iArchitecture
Entity
p595
(dp596
g11
(lp597
sg13
S'com.android.internal.inputmethod.InputMethodUtils$InputMethodListBuilder'
p598
sg15
(lp599
sg17
(lp600
sg19
(lp601
sg21
I0
sba(iArchitecture
Entity
p602
(dp603
g11
(lp604
sg13
S'com.android.internal.inputmethod.InputMethodUtils$InputMethodSettings'
p605
sg15
(lp606
sg17
(lp607
sg19
(lp608
sg21
I0
sbasg120
(lp609
g591
ag598
ag605
asg21
I0
sg122
S'789'
p610
sba(iArchitecture
Cluster
p611
(dp612
g7
(lp613
(iArchitecture
Entity
p614
(dp615
g11
(lp616
sg13
S'com.android.server.display.RampAnimator'
p617
sg15
(lp618
sg17
(lp619
sg19
(lp620
sg21
I0
sba(iArchitecture
Entity
p621
(dp622
g11
(lp623
sg13
S'com.android.server.display.RampAnimator$1'
p624
sg15
(lp625
sg17
(lp626
sg19
(lp627
sg21
I0
sba(iArchitecture
Entity
p628
(dp629
g11
(lp630
sg13
S'com.android.server.display.RampAnimator$Listener'
p631
sg15
(lp632
sg17
(lp633
sg19
(lp634
sg21
I0
sbasg120
(lp635
g617
ag624
ag631
asg21
I0
sg122
S'878'
p636
sba(iArchitecture
Cluster
p637
(dp638
g7
(lp639
(iArchitecture
Entity
p640
(dp641
g11
(lp642
sg13
S'com.android.server.CommonTimeManagementService'
p643
sg15
(lp644
sg17
(lp645
sg19
(lp646
sg21
I0
sba(iArchitecture
Entity
p647
(dp648
g11
(lp649
sg13
S'com.android.server.CommonTimeManagementService$1'
p650
sg15
(lp651
sg17
(lp652
sg19
(lp653
sg21
I0
sba(iArchitecture
Entity
p654
(dp655
g11
(lp656
sg13
S'com.android.server.CommonTimeManagementService$2'
p657
sg15
(lp658
sg17
(lp659
sg19
(lp660
sg21
I0
sba(iArchitecture
Entity
p661
(dp662
g11
(lp663
sg13
S'com.android.server.CommonTimeManagementService$3'
p664
sg15
(lp665
sg17
(lp666
sg19
(lp667
sg21
I0
sba(iArchitecture
Entity
p668
(dp669
g11
(lp670
sg13
S'com.android.server.CommonTimeManagementService$4'
p671
sg15
(lp672
sg17
(lp673
sg19
(lp674
sg21
I0
sba(iArchitecture
Entity
p675
(dp676
g11
(lp677
sg13
S'com.android.server.CommonTimeManagementService$5'
p678
sg15
(lp679
sg17
(lp680
sg19
(lp681
sg21
I0
sba(iArchitecture
Entity
p682
(dp683
g11
(lp684
sg13
S'com.android.server.CommonTimeManagementService$InterfaceScoreRule'
p685
sg15
(lp686
sg17
(lp687
sg19
(lp688
sg21
I0
sbasg120
(lp689
g643
ag650
ag657
ag664
ag671
ag678
ag685
asg21
I0
sg122
S'978'
p690
sbasS'target_sub'
p691
S'78'
p692
sg120
(lp693
sS'is_component_arch'
p694
I01
sg122
S'6.0.0_r1'
p695
sba.