(lp0
(iArchitecture
Architecture
p1
(dp2
S'clusters'
p3
(lp4
(iArchitecture
Cluster
p5
(dp6
S'entities'
p7
(lp8
(iArchitecture
Entity
p9
(dp10
S'issue_ids'
p11
(lp12
sS'name'
p13
S'android.telecom.ConnectionService'
p14
sS'descs'
p15
(lp16
sS'labels'
p17
(lp18
sS'titles'
p19
(lp20
sS'change'
p21
I0
sba(iArchitecture
Entity
p22
(dp23
g11
(lp24
sg13
S'android.telecom.ConnectionService$1'
p25
sg15
(lp26
sg17
(lp27
sg19
(lp28
sg21
I0
sba(iArchitecture
Entity
p29
(dp30
g11
(lp31
sg13
S'android.telecom.ConnectionService$2'
p32
sg15
(lp33
sg17
(lp34
sg19
(lp35
sg21
I0
sba(iArchitecture
Entity
p36
(dp37
g11
(lp38
sg13
S'android.telecom.ConnectionService$2$1'
p39
sg15
(lp40
sg17
(lp41
sg19
(lp42
sg21
I0
sba(iArchitecture
Entity
p43
(dp44
g11
(lp45
sg13
S'android.telecom.ConnectionService$3'
p46
sg15
(lp47
sg17
(lp48
sg19
(lp49
sg21
I0
sba(iArchitecture
Entity
p50
(dp51
g11
(lp52
sg13
S'android.telecom.ConnectionService$4'
p53
sg15
(lp54
sg17
(lp55
sg19
(lp56
sg21
I0
sba(iArchitecture
Entity
p57
(dp58
g11
(lp59
sg13
S'android.telecom.ConnectionService$5'
p60
sg15
(lp61
sg17
(lp62
sg19
(lp63
sg21
I0
sba(iArchitecture
Entity
p64
(dp65
g11
(lp66
sg13
S'android.telecom.ConnectionService$5$1'
p67
sg15
(lp68
sg17
(lp69
sg19
(lp70
sg21
I0
sba(iArchitecture
Entity
p71
(dp72
g11
(lp73
sg13
S'android.telecom.ConnectionService$5$2'
p74
sg15
(lp75
sg17
(lp76
sg19
(lp77
sg21
I0
sba(iArchitecture
Entity
p78
(dp79
g11
(lp80
sg13
S'android.telecom.ConnectionService$6'
p81
sg15
(lp82
sg17
(lp83
sg19
(lp84
sg21
I0
sba(iArchitecture
Entity
p85
(dp86
g11
(lp87
sg13
S'android.telecom.ConnectionService$7'
p88
sg15
(lp89
sg17
(lp90
sg19
(lp91
sg21
I0
sbasS'classes'
p92
(lp93
g14
ag25
ag32
ag39
ag46
ag53
ag60
ag67
ag74
ag81
ag88
asg21
I0
sS'label'
p94
S'1051'
p95
sba(iArchitecture
Cluster
p96
(dp97
g7
(lp98
(iArchitecture
Entity
p99
(dp100
g11
(lp101
sg13
S'junit.framework.TestCase'
p102
sg15
(lp103
sg17
(lp104
sg19
(lp105
sg21
I0
sba(iArchitecture
Entity
p106
(dp107
g11
(lp108
sg13
S'junit.framework.TestSuite'
p109
sg15
(lp110
sg17
(lp111
sg19
(lp112
sg21
I0
sbasg92
(lp113
g102
ag109
asg21
I0
sg94
S'1151'
p114
sba(iArchitecture
Cluster
p115
(dp116
g7
(lp117
(iArchitecture
Entity
p118
(dp119
g11
(lp120
sg13
S'android.transition.ChangeClipBounds'
p121
sg15
(lp122
sg17
(lp123
sg19
(lp124
sg21
I0
sba(iArchitecture
Entity
p125
(dp126
g11
(lp127
sg13
S'android.transition.ChangeScroll'
p128
sg15
(lp129
sg17
(lp130
sg19
(lp131
sg21
I0
sba(iArchitecture
Entity
p132
(dp133
g11
(lp134
sg13
S'android.transition.Recolor'
p135
sg15
(lp136
sg17
(lp137
sg19
(lp138
sg21
I0
sba(iArchitecture
Entity
p139
(dp140
g11
(lp141
sg13
S'android.transition.TransitionPropagation'
p142
sg15
(lp143
sg17
(lp144
sg19
(lp145
sg21
I0
sba(iArchitecture
Entity
p146
(dp147
g11
(lp148
sg13
S'android.transition.TransitionValues'
p149
sg15
(lp150
sg17
(lp151
sg19
(lp152
sg21
I0
sbasg92
(lp153
g121
ag128
ag135
ag142
ag149
asg21
I0
sg94
S'1251'
p154
sba(iArchitecture
Cluster
p155
(dp156
g7
(lp157
(iArchitecture
Entity
p158
(dp159
g11
(lp160
sg13
S'android.net.NetworkPolicyManager'
p161
sg15
(lp162
sg17
(lp163
sg19
(lp164
sg21
I0
sbasg92
(lp165
g161
asg21
I0
sg94
S'151'
p166
sba(iArchitecture
Cluster
p167
(dp168
g7
(lp169
(iArchitecture
Entity
p170
(dp171
g11
(lp172
sg13
S'android.text.AutoText'
p173
sg15
(lp174
sg17
(lp175
sg19
(lp176
sg21
I0
sbasg92
(lp177
g173
asg21
I0
sg94
S'251'
p178
sba(iArchitecture
Cluster
p179
(dp180
g7
(lp181
(iArchitecture
Entity
p182
(dp183
g11
(lp184
sg13
S'android.hardware.camera2.utils.HashCodeHelpers'
p185
sg15
(lp186
sg17
(lp187
sg19
(lp188
sg21
I0
sbasg92
(lp189
g185
asg21
I0
sg94
S'351'
p190
sba(iArchitecture
Cluster
p191
(dp192
g7
(lp193
(iArchitecture
Entity
p194
(dp195
g11
(lp196
sg13
S'android.graphics.Picture'
p197
sg15
(lp198
sg17
(lp199
sg19
(lp200
sg21
I0
sba(iArchitecture
Entity
p201
(dp202
g11
(lp203
sg13
S'android.graphics.Picture$RecordingCanvas'
p204
sg15
(lp205
sg17
(lp206
sg19
(lp207
sg21
I0
sbasg92
(lp208
g197
ag204
asg21
I0
sg94
S'451'
p209
sba(iArchitecture
Cluster
p210
(dp211
g7
(lp212
(iArchitecture
Entity
p213
(dp214
g11
(lp215
sg13
S'android.content.res.ThemedResourceCache'
p216
sg15
(lp217
sg17
(lp218
sg19
(lp219
sg21
I0
sbasg92
(lp220
g216
asg21
I0
sg94
S'51'
p221
sba(iArchitecture
Cluster
p222
(dp223
g7
(lp224
(iArchitecture
Entity
p225
(dp226
g11
(lp227
sg13
S'com.android.server.trust.TrustArchive'
p228
sg15
(lp229
sg17
(lp230
sg19
(lp231
sg21
I0
sba(iArchitecture
Entity
p232
(dp233
g11
(lp234
sg13
S'com.android.server.trust.TrustArchive$Event'
p235
sg15
(lp236
sg17
(lp237
sg19
(lp238
sg21
I0
sbasg92
(lp239
g228
ag235
asg21
I0
sg94
S'510'
p240
sba(iArchitecture
Cluster
p241
(dp242
g7
(lp243
(iArchitecture
Entity
p244
(dp245
g11
(lp246
sg13
S'com.android.internal.widget.TextViewInputDisabler'
p247
sg15
(lp248
sg17
(lp249
sg19
(lp250
sg21
I0
sba(iArchitecture
Entity
p251
(dp252
g11
(lp253
sg13
S'com.android.internal.widget.TextViewInputDisabler$1'
p254
sg15
(lp255
sg17
(lp256
sg19
(lp257
sg21
I0
sbasg92
(lp258
g247
ag254
asg21
I0
sg94
S'511'
p259
sba(iArchitecture
Cluster
p260
(dp261
g7
(lp262
(iArchitecture
Entity
p263
(dp264
g11
(lp265
sg13
S'android.view.VelocityTracker'
p266
sg15
(lp267
sg17
(lp268
sg19
(lp269
sg21
I0
sba(iArchitecture
Entity
p270
(dp271
g11
(lp272
sg13
S'android.view.VelocityTracker$Estimator'
p273
sg15
(lp274
sg17
(lp275
sg19
(lp276
sg21
I0
sbasg92
(lp277
g266
ag273
asg21
I0
sg94
S'512'
p278
sba(iArchitecture
Cluster
p279
(dp280
g7
(lp281
(iArchitecture
Entity
p282
(dp283
g11
(lp284
sg13
S'android.media.AudioPortEventHandler'
p285
sg15
(lp286
sg17
(lp287
sg19
(lp288
sg21
I0
sba(iArchitecture
Entity
p289
(dp290
g11
(lp291
sg13
S'android.media.AudioPortEventHandler$1'
p292
sg15
(lp293
sg17
(lp294
sg19
(lp295
sg21
I0
sbasg92
(lp296
g285
ag292
asg21
I0
sg94
S'513'
p297
sba(iArchitecture
Cluster
p298
(dp299
g7
(lp300
(iArchitecture
Entity
p301
(dp302
g11
(lp303
sg13
S'android.hardware.camera2.legacy.SurfaceTextureRenderer'
p304
sg15
(lp305
sg17
(lp306
sg19
(lp307
sg21
I0
sba(iArchitecture
Entity
p308
(dp309
g11
(lp310
sg13
S'android.hardware.camera2.legacy.SurfaceTextureRenderer$EGLSurfaceHolder'
p311
sg15
(lp312
sg17
(lp313
sg19
(lp314
sg21
I0
sbasg92
(lp315
g304
ag311
asg21
I0
sg94
S'514'
p316
sba(iArchitecture
Cluster
p317
(dp318
g7
(lp319
(iArchitecture
Entity
p320
(dp321
g11
(lp322
sg13
S'com.android.internal.midi.MidiDispatcher'
p323
sg15
(lp324
sg17
(lp325
sg19
(lp326
sg21
I0
sba(iArchitecture
Entity
p327
(dp328
g11
(lp329
sg13
S'com.android.internal.midi.MidiDispatcher$1'
p330
sg15
(lp331
sg17
(lp332
sg19
(lp333
sg21
I0
sbasg92
(lp334
g323
ag330
asg21
I0
sg94
S'515'
p335
sba(iArchitecture
Cluster
p336
(dp337
g7
(lp338
(iArchitecture
Entity
p339
(dp340
g11
(lp341
sg13
S'android.net.NetworkState'
p342
sg15
(lp343
sg17
(lp344
sg19
(lp345
sg21
I0
sba(iArchitecture
Entity
p346
(dp347
g11
(lp348
sg13
S'android.net.NetworkState$1'
p349
sg15
(lp350
sg17
(lp351
sg19
(lp352
sg21
I0
sbasg92
(lp353
g342
ag349
asg21
I0
sg94
S'516'
p354
sba(iArchitecture
Cluster
p355
(dp356
g7
(lp357
(iArchitecture
Entity
p358
(dp359
g11
(lp360
sg13
S'android.net.wifi.WifiInfo'
p361
sg15
(lp362
sg17
(lp363
sg19
(lp364
sg21
I0
sba(iArchitecture
Entity
p365
(dp366
g11
(lp367
sg13
S'android.net.wifi.WifiInfo$1'
p368
sg15
(lp369
sg17
(lp370
sg19
(lp371
sg21
I0
sbasg92
(lp372
g361
ag368
asg21
I0
sg94
S'517'
p373
sba(iArchitecture
Cluster
p374
(dp375
g7
(lp376
(iArchitecture
Entity
p377
(dp378
g11
(lp379
sg13
S'android.media.VolumePolicy'
p380
sg15
(lp381
sg17
(lp382
sg19
(lp383
sg21
I0
sba(iArchitecture
Entity
p384
(dp385
g11
(lp386
sg13
S'android.media.VolumePolicy$1'
p387
sg15
(lp388
sg17
(lp389
sg19
(lp390
sg21
I0
sbasg92
(lp391
g380
ag387
asg21
I0
sg94
S'518'
p392
sba(iArchitecture
Cluster
p393
(dp394
g7
(lp395
(iArchitecture
Entity
p396
(dp397
g11
(lp398
sg13
S'android.content.res.AssetManager'
p399
sg15
(lp400
sg17
(lp401
sg19
(lp402
sg21
I0
sba(iArchitecture
Entity
p403
(dp404
g11
(lp405
sg13
S'android.content.res.AssetManager$AssetInputStream'
p406
sg15
(lp407
sg17
(lp408
sg19
(lp409
sg21
I0
sbasg92
(lp410
g399
ag406
asg21
I0
sg94
S'519'
p411
sba(iArchitecture
Cluster
p412
(dp413
g7
(lp414
(iArchitecture
Entity
p415
(dp416
g11
(lp417
sg13
S'android.net.DhcpResults'
p418
sg15
(lp419
sg17
(lp420
sg19
(lp421
sg21
I0
sba(iArchitecture
Entity
p422
(dp423
g11
(lp424
sg13
S'android.net.DhcpResults$1'
p425
sg15
(lp426
sg17
(lp427
sg19
(lp428
sg21
I0
sbasg92
(lp429
g418
ag425
asg21
I0
sg94
S'551'
p430
sba(iArchitecture
Cluster
p431
(dp432
g7
(lp433
(iArchitecture
Entity
p434
(dp435
g11
(lp436
sg13
S'android.net.ProxyInfo'
p437
sg15
(lp438
sg17
(lp439
sg19
(lp440
sg21
I0
sba(iArchitecture
Entity
p441
(dp442
g11
(lp443
sg13
S'android.net.ProxyInfo$1'
p444
sg15
(lp445
sg17
(lp446
sg19
(lp447
sg21
I0
sbasg92
(lp448
g437
ag444
asg21
I0
sg94
S'651'
p449
sba(iArchitecture
Cluster
p450
(dp451
g7
(lp452
(iArchitecture
Entity
p453
(dp454
g11
(lp455
sg13
S'android.graphics.drawable.GradientDrawable'
p456
sg15
(lp457
sg17
(lp458
sg19
(lp459
sg21
I0
sba(iArchitecture
Entity
p460
(dp461
g11
(lp462
sg13
S'android.graphics.drawable.GradientDrawable$GradientState'
p463
sg15
(lp464
sg17
(lp465
sg19
(lp466
sg21
I0
sba(iArchitecture
Entity
p467
(dp468
g11
(lp469
sg13
S'android.graphics.drawable.GradientDrawable$Orientation'
p470
sg15
(lp471
sg17
(lp472
sg19
(lp473
sg21
I0
sbasg92
(lp474
g456
ag463
ag470
asg21
I0
sg94
S'751'
p475
sba(iArchitecture
Cluster
p476
(dp477
g7
(lp478
(iArchitecture
Entity
p479
(dp480
g11
(lp481
sg13
S'android.text.Html'
p482
sg15
(lp483
sg17
(lp484
sg19
(lp485
sg21
I0
sba(iArchitecture
Entity
p486
(dp487
g11
(lp488
sg13
S'android.text.Html$HtmlParser'
p489
sg15
(lp490
sg17
(lp491
sg19
(lp492
sg21
I0
sba(iArchitecture
Entity
p493
(dp494
g11
(lp495
sg13
S'android.text.Html$ImageGetter'
p496
sg15
(lp497
sg17
(lp498
sg19
(lp499
sg21
I0
sba(iArchitecture
Entity
p500
(dp501
g11
(lp502
sg13
S'android.text.Html$TagHandler'
p503
sg15
(lp504
sg17
(lp505
sg19
(lp506
sg21
I0
sbasg92
(lp507
g482
ag489
ag496
ag503
asg21
I0
sg94
S'851'
p508
sba(iArchitecture
Cluster
p509
(dp510
g7
(lp511
(iArchitecture
Entity
p512
(dp513
g11
(lp514
sg13
S'com.android.server.TelephonyRegistry'
p515
sg15
(lp516
sg17
(lp517
sg19
(lp518
sg21
I0
sba(iArchitecture
Entity
p519
(dp520
g11
(lp521
sg13
S'com.android.server.TelephonyRegistry$1'
p522
sg15
(lp523
sg17
(lp524
sg19
(lp525
sg21
I0
sba(iArchitecture
Entity
p526
(dp527
g11
(lp528
sg13
S'com.android.server.TelephonyRegistry$2'
p529
sg15
(lp530
sg17
(lp531
sg19
(lp532
sg21
I0
sba(iArchitecture
Entity
p533
(dp534
g11
(lp535
sg13
S'com.android.server.TelephonyRegistry$LogSSC'
p536
sg15
(lp537
sg17
(lp538
sg19
(lp539
sg21
I0
sba(iArchitecture
Entity
p540
(dp541
g11
(lp542
sg13
S'com.android.server.TelephonyRegistry$Record'
p543
sg15
(lp544
sg17
(lp545
sg19
(lp546
sg21
I0
sbasg92
(lp547
g515
ag522
ag529
ag536
ag543
asg21
I0
sg94
S'951'
p548
sbasS'target_sub'
p549
S'51'
p550
sg92
(lp551
sS'is_component_arch'
p552
I01
sg94
S'6.0.0_r1'
p553
sba.