(lp0
(iArchitecture
Architecture
p1
(dp2
S'clusters'
p3
(lp4
(iArchitecture
Cluster
p5
(dp6
S'entities'
p7
(lp8
(iArchitecture
Entity
p9
(dp10
S'issue_ids'
p11
(lp12
sS'name'
p13
S'com.android.server.input.InputWindowHandle'
p14
sS'descs'
p15
(lp16
sS'labels'
p17
(lp18
sS'titles'
p19
(lp20
sS'change'
p21
I0
sba(iArchitecture
Entity
p22
(dp23
g11
(lp24
sg13
S'com.android.server.wm.InputConsumerImpl'
p25
sg15
(lp26
sg17
(lp27
sg19
(lp28
sg21
I0
sbasS'classes'
p29
(lp30
g14
ag25
asg21
I0
sS'label'
p31
S'1122'
p32
sba(iArchitecture
Cluster
p33
(dp34
g7
(lp35
(iArchitecture
Entity
p36
(dp37
g11
(lp38
sg13
S'android.filterfw.core.VertexFrame'
p39
sg15
(lp40
sg17
(lp41
sg19
(lp42
sg21
I0
sbasg29
(lp43
g39
asg21
I0
sg31
S'122'
p44
sba(iArchitecture
Cluster
p45
(dp46
g7
(lp47
(iArchitecture
Entity
p48
(dp49
g11
(lp50
sg13
S'android.app.WallpaperManager'
p51
sg15
(lp52
sg17
(lp53
sg19
(lp54
sg21
I0
sba(iArchitecture
Entity
p55
(dp56
g11
(lp57
sg13
S'android.app.WallpaperManager$FastBitmapDrawable'
p58
sg15
(lp59
sg17
(lp60
sg19
(lp61
sg21
I0
sba(iArchitecture
Entity
p62
(dp63
g11
(lp64
sg13
S'android.app.WallpaperManager$Globals'
p65
sg15
(lp66
sg17
(lp67
sg19
(lp68
sg21
I0
sba(iArchitecture
Entity
p69
(dp70
g11
(lp71
sg13
S'android.graphics.Rect'
p72
sg15
(lp73
sg17
(lp74
sg19
(lp75
sg21
I0
sba(iArchitecture
Entity
p76
(dp77
g11
(lp78
sg13
S'android.graphics.Rect$1'
p79
sg15
(lp80
sg17
(lp81
sg19
(lp82
sg21
I0
sba(iArchitecture
Entity
p83
(dp84
g11
(lp85
sg13
S'android.graphics.Rect$UnflattenHelper'
p86
sg15
(lp87
sg17
(lp88
sg19
(lp89
sg21
I0
sba(iArchitecture
Entity
p90
(dp91
g11
(lp92
sg13
S'android.graphics.RectF'
p93
sg15
(lp94
sg17
(lp95
sg19
(lp96
sg21
I0
sba(iArchitecture
Entity
p97
(dp98
g11
(lp99
sg13
S'android.graphics.RectF$1'
p100
sg15
(lp101
sg17
(lp102
sg19
(lp103
sg21
I0
sba(iArchitecture
Entity
p104
(dp105
g11
(lp106
sg13
S'android.graphics.Region'
p107
sg15
(lp108
sg17
(lp109
sg19
(lp110
sg21
I0
sba(iArchitecture
Entity
p111
(dp112
g11
(lp113
sg13
S'android.graphics.Region$1'
p114
sg15
(lp115
sg17
(lp116
sg19
(lp117
sg21
I0
sba(iArchitecture
Entity
p118
(dp119
g11
(lp120
sg13
S'android.graphics.Region$Op'
p121
sg15
(lp122
sg17
(lp123
sg19
(lp124
sg21
I0
sba(iArchitecture
Entity
p125
(dp126
g11
(lp127
sg13
S'com.android.server.wallpaper.WallpaperManagerService'
p128
sg15
(lp129
sg17
(lp130
sg19
(lp131
sg21
I0
sba(iArchitecture
Entity
p132
(dp133
g11
(lp134
sg13
S'com.android.server.wallpaper.WallpaperManagerService$1'
p135
sg15
(lp136
sg17
(lp137
sg19
(lp138
sg21
I0
sba(iArchitecture
Entity
p139
(dp140
g11
(lp141
sg13
S'com.android.server.wallpaper.WallpaperManagerService$2'
p142
sg15
(lp143
sg17
(lp144
sg19
(lp145
sg21
I0
sba(iArchitecture
Entity
p146
(dp147
g11
(lp148
sg13
S'com.android.server.wallpaper.WallpaperManagerService$MyPackageMonitor'
p149
sg15
(lp150
sg17
(lp151
sg19
(lp152
sg21
I0
sba(iArchitecture
Entity
p153
(dp154
g11
(lp155
sg13
S'com.android.server.wallpaper.WallpaperManagerService$WallpaperConnection'
p156
sg15
(lp157
sg17
(lp158
sg19
(lp159
sg21
I0
sba(iArchitecture
Entity
p160
(dp161
g11
(lp162
sg13
S'com.android.server.wallpaper.WallpaperManagerService$WallpaperData'
p163
sg15
(lp164
sg17
(lp165
sg19
(lp166
sg21
I0
sba(iArchitecture
Entity
p167
(dp168
g11
(lp169
sg13
S'com.android.server.wallpaper.WallpaperManagerService$WallpaperObserver'
p170
sg15
(lp171
sg17
(lp172
sg19
(lp173
sg21
I0
sbasg29
(lp174
g51
ag58
ag65
ag72
ag79
ag86
ag93
ag100
ag107
ag114
ag121
ag128
ag135
ag142
ag149
ag156
ag163
ag170
asg21
I0
sg31
S'1220'
p175
sba(iArchitecture
Cluster
p176
(dp177
g7
(lp178
(iArchitecture
Entity
p179
(dp180
g11
(lp181
sg13
S'android.hardware.radio.RadioManager'
p182
sg15
(lp183
sg17
(lp184
sg19
(lp185
sg21
I0
sba(iArchitecture
Entity
p186
(dp187
g11
(lp188
sg13
S'android.hardware.radio.RadioManager$AmBandConfig'
p189
sg15
(lp190
sg17
(lp191
sg19
(lp192
sg21
I0
sba(iArchitecture
Entity
p193
(dp194
g11
(lp195
sg13
S'android.hardware.radio.RadioManager$AmBandConfig$1'
p196
sg15
(lp197
sg17
(lp198
sg19
(lp199
sg21
I0
sba(iArchitecture
Entity
p200
(dp201
g11
(lp202
sg13
S'android.hardware.radio.RadioManager$AmBandConfig$Builder'
p203
sg15
(lp204
sg17
(lp205
sg19
(lp206
sg21
I0
sba(iArchitecture
Entity
p207
(dp208
g11
(lp209
sg13
S'android.hardware.radio.RadioManager$AmBandDescriptor'
p210
sg15
(lp211
sg17
(lp212
sg19
(lp213
sg21
I0
sba(iArchitecture
Entity
p214
(dp215
g11
(lp216
sg13
S'android.hardware.radio.RadioManager$AmBandDescriptor$1'
p217
sg15
(lp218
sg17
(lp219
sg19
(lp220
sg21
I0
sba(iArchitecture
Entity
p221
(dp222
g11
(lp223
sg13
S'android.hardware.radio.RadioManager$BandConfig'
p224
sg15
(lp225
sg17
(lp226
sg19
(lp227
sg21
I0
sba(iArchitecture
Entity
p228
(dp229
g11
(lp230
sg13
S'android.hardware.radio.RadioManager$BandConfig$1'
p231
sg15
(lp232
sg17
(lp233
sg19
(lp234
sg21
I0
sba(iArchitecture
Entity
p235
(dp236
g11
(lp237
sg13
S'android.hardware.radio.RadioManager$BandDescriptor'
p238
sg15
(lp239
sg17
(lp240
sg19
(lp241
sg21
I0
sba(iArchitecture
Entity
p242
(dp243
g11
(lp244
sg13
S'android.hardware.radio.RadioManager$BandDescriptor$1'
p245
sg15
(lp246
sg17
(lp247
sg19
(lp248
sg21
I0
sba(iArchitecture
Entity
p249
(dp250
g11
(lp251
sg13
S'android.hardware.radio.RadioManager$FmBandConfig'
p252
sg15
(lp253
sg17
(lp254
sg19
(lp255
sg21
I0
sba(iArchitecture
Entity
p256
(dp257
g11
(lp258
sg13
S'android.hardware.radio.RadioManager$FmBandConfig$1'
p259
sg15
(lp260
sg17
(lp261
sg19
(lp262
sg21
I0
sba(iArchitecture
Entity
p263
(dp264
g11
(lp265
sg13
S'android.hardware.radio.RadioManager$FmBandConfig$Builder'
p266
sg15
(lp267
sg17
(lp268
sg19
(lp269
sg21
I0
sba(iArchitecture
Entity
p270
(dp271
g11
(lp272
sg13
S'android.hardware.radio.RadioManager$FmBandDescriptor'
p273
sg15
(lp274
sg17
(lp275
sg19
(lp276
sg21
I0
sba(iArchitecture
Entity
p277
(dp278
g11
(lp279
sg13
S'android.hardware.radio.RadioManager$FmBandDescriptor$1'
p280
sg15
(lp281
sg17
(lp282
sg19
(lp283
sg21
I0
sba(iArchitecture
Entity
p284
(dp285
g11
(lp286
sg13
S'android.hardware.radio.RadioManager$ModuleProperties'
p287
sg15
(lp288
sg17
(lp289
sg19
(lp290
sg21
I0
sba(iArchitecture
Entity
p291
(dp292
g11
(lp293
sg13
S'android.hardware.radio.RadioManager$ModuleProperties$1'
p294
sg15
(lp295
sg17
(lp296
sg19
(lp297
sg21
I0
sba(iArchitecture
Entity
p298
(dp299
g11
(lp300
sg13
S'android.hardware.radio.RadioManager$ProgramInfo'
p301
sg15
(lp302
sg17
(lp303
sg19
(lp304
sg21
I0
sba(iArchitecture
Entity
p305
(dp306
g11
(lp307
sg13
S'android.hardware.radio.RadioManager$ProgramInfo$1'
p308
sg15
(lp309
sg17
(lp310
sg19
(lp311
sg21
I0
sba(iArchitecture
Entity
p312
(dp313
g11
(lp314
sg13
S'android.view.inputmethod.CursorAnchorInfo'
p315
sg15
(lp316
sg17
(lp317
sg19
(lp318
sg21
I0
sba(iArchitecture
Entity
p319
(dp320
g11
(lp321
sg13
S'android.view.inputmethod.CursorAnchorInfo$1'
p322
sg15
(lp323
sg17
(lp324
sg19
(lp325
sg21
I0
sba(iArchitecture
Entity
p326
(dp327
g11
(lp328
sg13
S'android.view.inputmethod.CursorAnchorInfo$Builder'
p329
sg15
(lp330
sg17
(lp331
sg19
(lp332
sg21
I0
sbasg29
(lp333
g182
ag189
ag196
ag203
ag210
ag217
ag224
ag231
ag238
ag245
ag252
ag259
ag266
ag273
ag280
ag287
ag294
ag301
ag308
ag315
ag322
ag329
asg21
I0
sg31
S'1221'
p334
sba(iArchitecture
Cluster
p335
(dp336
g7
(lp337
(iArchitecture
Entity
p338
(dp339
g11
(lp340
sg13
S'android.view.animation.AccelerateInterpolator'
p341
sg15
(lp342
sg17
(lp343
sg19
(lp344
sg21
I0
sba(iArchitecture
Entity
p345
(dp346
g11
(lp347
sg13
S'android.view.animation.AnticipateInterpolator'
p348
sg15
(lp349
sg17
(lp350
sg19
(lp351
sg21
I0
sba(iArchitecture
Entity
p352
(dp353
g11
(lp354
sg13
S'android.view.animation.AnticipateOvershootInterpolator'
p355
sg15
(lp356
sg17
(lp357
sg19
(lp358
sg21
I0
sba(iArchitecture
Entity
p359
(dp360
g11
(lp361
sg13
S'android.view.animation.CycleInterpolator'
p362
sg15
(lp363
sg17
(lp364
sg19
(lp365
sg21
I0
sba(iArchitecture
Entity
p366
(dp367
g11
(lp368
sg13
S'android.view.animation.DecelerateInterpolator'
p369
sg15
(lp370
sg17
(lp371
sg19
(lp372
sg21
I0
sba(iArchitecture
Entity
p373
(dp374
g11
(lp375
sg13
S'android.view.animation.OvershootInterpolator'
p376
sg15
(lp377
sg17
(lp378
sg19
(lp379
sg21
I0
sba(iArchitecture
Entity
p380
(dp381
g11
(lp382
sg13
S'android.webkit.PluginStub'
p383
sg15
(lp384
sg17
(lp385
sg19
(lp386
sg21
I0
sba(iArchitecture
Entity
p387
(dp388
g11
(lp389
sg13
S'android.widget.ImageSwitcher'
p390
sg15
(lp391
sg17
(lp392
sg19
(lp393
sg21
I0
sba(iArchitecture
Entity
p394
(dp395
g11
(lp396
sg13
S'android.widget.TextSwitcher'
p397
sg15
(lp398
sg17
(lp399
sg19
(lp400
sg21
I0
sba(iArchitecture
Entity
p401
(dp402
g11
(lp403
sg13
S'android.widget.ViewSwitcher'
p404
sg15
(lp405
sg17
(lp406
sg19
(lp407
sg21
I0
sba(iArchitecture
Entity
p408
(dp409
g11
(lp410
sg13
S'android.widget.ViewSwitcher$ViewFactory'
p411
sg15
(lp412
sg17
(lp413
sg19
(lp414
sg21
I0
sba(iArchitecture
Entity
p415
(dp416
g11
(lp417
sg13
S'com.google.android.util.SmileyResources'
p418
sg15
(lp419
sg17
(lp420
sg19
(lp421
sg21
I0
sbasg29
(lp422
g341
ag348
ag355
ag362
ag369
ag376
ag383
ag390
ag397
ag404
ag411
ag418
asg21
I0
sg31
S'1222'
p423
sba(iArchitecture
Cluster
p424
(dp425
g7
(lp426
(iArchitecture
Entity
p427
(dp428
g11
(lp429
sg13
S'android.accounts.AccountManagerCallback'
p430
sg15
(lp431
sg17
(lp432
sg19
(lp433
sg21
I0
sba(iArchitecture
Entity
p434
(dp435
g11
(lp436
sg13
S'android.accounts.AccountsException'
p437
sg15
(lp438
sg17
(lp439
sg19
(lp440
sg21
I0
sba(iArchitecture
Entity
p441
(dp442
g11
(lp443
sg13
S'android.accounts.AuthenticatorException'
p444
sg15
(lp445
sg17
(lp446
sg19
(lp447
sg21
I0
sba(iArchitecture
Entity
p448
(dp449
g11
(lp450
sg13
S'android.accounts.CantAddAccountActivity'
p451
sg15
(lp452
sg17
(lp453
sg19
(lp454
sg21
I0
sba(iArchitecture
Entity
p455
(dp456
g11
(lp457
sg13
S'android.accounts.ChooseAccountActivity'
p458
sg15
(lp459
sg17
(lp460
sg19
(lp461
sg21
I0
sba(iArchitecture
Entity
p462
(dp463
g11
(lp464
sg13
S'android.accounts.ChooseAccountActivity$1'
p465
sg15
(lp466
sg17
(lp467
sg19
(lp468
sg21
I0
sba(iArchitecture
Entity
p469
(dp470
g11
(lp471
sg13
S'android.accounts.ChooseAccountActivity$AccountArrayAdapter'
p472
sg15
(lp473
sg17
(lp474
sg19
(lp475
sg21
I0
sba(iArchitecture
Entity
p476
(dp477
g11
(lp478
sg13
S'android.accounts.ChooseAccountActivity$AccountInfo'
p479
sg15
(lp480
sg17
(lp481
sg19
(lp482
sg21
I0
sba(iArchitecture
Entity
p483
(dp484
g11
(lp485
sg13
S'android.accounts.ChooseAccountActivity$ViewHolder'
p486
sg15
(lp487
sg17
(lp488
sg19
(lp489
sg21
I0
sba(iArchitecture
Entity
p490
(dp491
g11
(lp492
sg13
S'android.accounts.ChooseAccountTypeActivity'
p493
sg15
(lp494
sg17
(lp495
sg19
(lp496
sg21
I0
sba(iArchitecture
Entity
p497
(dp498
g11
(lp499
sg13
S'android.accounts.ChooseAccountTypeActivity$1'
p500
sg15
(lp501
sg17
(lp502
sg19
(lp503
sg21
I0
sba(iArchitecture
Entity
p504
(dp505
g11
(lp506
sg13
S'android.accounts.ChooseAccountTypeActivity$AccountArrayAdapter'
p507
sg15
(lp508
sg17
(lp509
sg19
(lp510
sg21
I0
sba(iArchitecture
Entity
p511
(dp512
g11
(lp513
sg13
S'android.accounts.ChooseAccountTypeActivity$AuthInfo'
p514
sg15
(lp515
sg17
(lp516
sg19
(lp517
sg21
I0
sba(iArchitecture
Entity
p518
(dp519
g11
(lp520
sg13
S'android.accounts.ChooseAccountTypeActivity$ViewHolder'
p521
sg15
(lp522
sg17
(lp523
sg19
(lp524
sg21
I0
sba(iArchitecture
Entity
p525
(dp526
g11
(lp527
sg13
S'android.accounts.GrantCredentialsPermissionActivity'
p528
sg15
(lp529
sg17
(lp530
sg19
(lp531
sg21
I0
sba(iArchitecture
Entity
p532
(dp533
g11
(lp534
sg13
S'android.accounts.GrantCredentialsPermissionActivity$1'
p535
sg15
(lp536
sg17
(lp537
sg19
(lp538
sg21
I0
sba(iArchitecture
Entity
p539
(dp540
g11
(lp541
sg13
S'android.accounts.GrantCredentialsPermissionActivity$1$1'
p542
sg15
(lp543
sg17
(lp544
sg19
(lp545
sg21
I0
sba(iArchitecture
Entity
p546
(dp547
g11
(lp548
sg13
S'android.accounts.NetworkErrorException'
p549
sg15
(lp550
sg17
(lp551
sg19
(lp552
sg21
I0
sba(iArchitecture
Entity
p553
(dp554
g11
(lp555
sg13
S'android.accounts.OnAccountsUpdateListener'
p556
sg15
(lp557
sg17
(lp558
sg19
(lp559
sg21
I0
sba(iArchitecture
Entity
p560
(dp561
g11
(lp562
sg13
S'android.accounts.OperationCanceledException'
p563
sg15
(lp564
sg17
(lp565
sg19
(lp566
sg21
I0
sba(iArchitecture
Entity
p567
(dp568
g11
(lp569
sg13
S'android.animation.AnimatorListenerAdapter'
p570
sg15
(lp571
sg17
(lp572
sg19
(lp573
sg21
I0
sba(iArchitecture
Entity
p574
(dp575
g11
(lp576
sg13
S'android.animation.Keyframes'
p577
sg15
(lp578
sg17
(lp579
sg19
(lp580
sg21
I0
sba(iArchitecture
Entity
p581
(dp582
g11
(lp583
sg13
S'android.animation.Keyframes$FloatKeyframes'
p584
sg15
(lp585
sg17
(lp586
sg19
(lp587
sg21
I0
sba(iArchitecture
Entity
p588
(dp589
g11
(lp590
sg13
S'android.animation.Keyframes$IntKeyframes'
p591
sg15
(lp592
sg17
(lp593
sg19
(lp594
sg21
I0
sba(iArchitecture
Entity
p595
(dp596
g11
(lp597
sg13
S'android.animation.TimeInterpolator'
p598
sg15
(lp599
sg17
(lp600
sg19
(lp601
sg21
I0
sba(iArchitecture
Entity
p602
(dp603
g11
(lp604
sg13
S'android.animation.TypeConverter'
p605
sg15
(lp606
sg17
(lp607
sg19
(lp608
sg21
I0
sba(iArchitecture
Entity
p609
(dp610
g11
(lp611
sg13
S'android.annotation.AnimRes'
p612
sg15
(lp613
sg17
(lp614
sg19
(lp615
sg21
I0
sba(iArchitecture
Entity
p616
(dp617
g11
(lp618
sg13
S'android.annotation.AnimatorRes'
p619
sg15
(lp620
sg17
(lp621
sg19
(lp622
sg21
I0
sba(iArchitecture
Entity
p623
(dp624
g11
(lp625
sg13
S'android.annotation.AnyRes'
p626
sg15
(lp627
sg17
(lp628
sg19
(lp629
sg21
I0
sba(iArchitecture
Entity
p630
(dp631
g11
(lp632
sg13
S'android.annotation.ArrayRes'
p633
sg15
(lp634
sg17
(lp635
sg19
(lp636
sg21
I0
sba(iArchitecture
Entity
p637
(dp638
g11
(lp639
sg13
S'android.annotation.AttrRes'
p640
sg15
(lp641
sg17
(lp642
sg19
(lp643
sg21
I0
sba(iArchitecture
Entity
p644
(dp645
g11
(lp646
sg13
S'android.annotation.BinderThread'
p647
sg15
(lp648
sg17
(lp649
sg19
(lp650
sg21
I0
sba(iArchitecture
Entity
p651
(dp652
g11
(lp653
sg13
S'android.annotation.BoolRes'
p654
sg15
(lp655
sg17
(lp656
sg19
(lp657
sg21
I0
sba(iArchitecture
Entity
p658
(dp659
g11
(lp660
sg13
S'android.annotation.CallSuper'
p661
sg15
(lp662
sg17
(lp663
sg19
(lp664
sg21
I0
sba(iArchitecture
Entity
p665
(dp666
g11
(lp667
sg13
S'android.annotation.ColorInt'
p668
sg15
(lp669
sg17
(lp670
sg19
(lp671
sg21
I0
sba(iArchitecture
Entity
p672
(dp673
g11
(lp674
sg13
S'android.annotation.ColorRes'
p675
sg15
(lp676
sg17
(lp677
sg19
(lp678
sg21
I0
sba(iArchitecture
Entity
p679
(dp680
g11
(lp681
sg13
S'android.annotation.DimenRes'
p682
sg15
(lp683
sg17
(lp684
sg19
(lp685
sg21
I0
sba(iArchitecture
Entity
p686
(dp687
g11
(lp688
sg13
S'android.annotation.DrawableRes'
p689
sg15
(lp690
sg17
(lp691
sg19
(lp692
sg21
I0
sba(iArchitecture
Entity
p693
(dp694
g11
(lp695
sg13
S'android.annotation.FractionRes'
p696
sg15
(lp697
sg17
(lp698
sg19
(lp699
sg21
I0
sba(iArchitecture
Entity
p700
(dp701
g11
(lp702
sg13
S'android.annotation.IdRes'
p703
sg15
(lp704
sg17
(lp705
sg19
(lp706
sg21
I0
sba(iArchitecture
Entity
p707
(dp708
g11
(lp709
sg13
S'android.annotation.IntRange'
p710
sg15
(lp711
sg17
(lp712
sg19
(lp713
sg21
I0
sba(iArchitecture
Entity
p714
(dp715
g11
(lp716
sg13
S'android.annotation.IntegerRes'
p717
sg15
(lp718
sg17
(lp719
sg19
(lp720
sg21
I0
sba(iArchitecture
Entity
p721
(dp722
g11
(lp723
sg13
S'android.annotation.InterpolatorRes'
p724
sg15
(lp725
sg17
(lp726
sg19
(lp727
sg21
I0
sba(iArchitecture
Entity
p728
(dp729
g11
(lp730
sg13
S'android.annotation.LayoutRes'
p731
sg15
(lp732
sg17
(lp733
sg19
(lp734
sg21
I0
sba(iArchitecture
Entity
p735
(dp736
g11
(lp737
sg13
S'android.annotation.MenuRes'
p738
sg15
(lp739
sg17
(lp740
sg19
(lp741
sg21
I0
sba(iArchitecture
Entity
p742
(dp743
g11
(lp744
sg13
S'android.annotation.NonNull'
p745
sg15
(lp746
sg17
(lp747
sg19
(lp748
sg21
I0
sba(iArchitecture
Entity
p749
(dp750
g11
(lp751
sg13
S'android.annotation.Nullable'
p752
sg15
(lp753
sg17
(lp754
sg19
(lp755
sg21
I0
sba(iArchitecture
Entity
p756
(dp757
g11
(lp758
sg13
S'android.annotation.PluralsRes'
p759
sg15
(lp760
sg17
(lp761
sg19
(lp762
sg21
I0
sba(iArchitecture
Entity
p763
(dp764
g11
(lp765
sg13
S'android.annotation.RawRes'
p766
sg15
(lp767
sg17
(lp768
sg19
(lp769
sg21
I0
sba(iArchitecture
Entity
p770
(dp771
g11
(lp772
sg13
S'android.annotation.SdkConstant'
p773
sg15
(lp774
sg17
(lp775
sg19
(lp776
sg21
I0
sba(iArchitecture
Entity
p777
(dp778
g11
(lp779
sg13
S'android.annotation.SdkConstant$SdkConstantType'
p780
sg15
(lp781
sg17
(lp782
sg19
(lp783
sg21
I0
sba(iArchitecture
Entity
p784
(dp785
g11
(lp786
sg13
S'android.annotation.Size'
p787
sg15
(lp788
sg17
(lp789
sg19
(lp790
sg21
I0
sba(iArchitecture
Entity
p791
(dp792
g11
(lp793
sg13
S'android.annotation.StringDef'
p794
sg15
(lp795
sg17
(lp796
sg19
(lp797
sg21
I0
sba(iArchitecture
Entity
p798
(dp799
g11
(lp800
sg13
S'android.annotation.StringRes'
p801
sg15
(lp802
sg17
(lp803
sg19
(lp804
sg21
I0
sba(iArchitecture
Entity
p805
(dp806
g11
(lp807
sg13
S'android.annotation.StyleRes'
p808
sg15
(lp809
sg17
(lp810
sg19
(lp811
sg21
I0
sba(iArchitecture
Entity
p812
(dp813
g11
(lp814
sg13
S'android.annotation.StyleableRes'
p815
sg15
(lp816
sg17
(lp817
sg19
(lp818
sg21
I0
sba(iArchitecture
Entity
p819
(dp820
g11
(lp821
sg13
S'android.annotation.SuppressLint'
p822
sg15
(lp823
sg17
(lp824
sg19
(lp825
sg21
I0
sba(iArchitecture
Entity
p826
(dp827
g11
(lp828
sg13
S'android.annotation.SystemApi'
p829
sg15
(lp830
sg17
(lp831
sg19
(lp832
sg21
I0
sba(iArchitecture
Entity
p833
(dp834
g11
(lp835
sg13
S'android.annotation.TargetApi'
p836
sg15
(lp837
sg17
(lp838
sg19
(lp839
sg21
I0
sba(iArchitecture
Entity
p840
(dp841
g11
(lp842
sg13
S'android.annotation.TransitionRes'
p843
sg15
(lp844
sg17
(lp845
sg19
(lp846
sg21
I0
sba(iArchitecture
Entity
p847
(dp848
g11
(lp849
sg13
S'android.annotation.Widget'
p850
sg15
(lp851
sg17
(lp852
sg19
(lp853
sg21
I0
sba(iArchitecture
Entity
p854
(dp855
g11
(lp856
sg13
S'android.annotation.WorkerThread'
p857
sg15
(lp858
sg17
(lp859
sg19
(lp860
sg21
I0
sba(iArchitecture
Entity
p861
(dp862
g11
(lp863
sg13
S'android.annotation.XmlRes'
p864
sg15
(lp865
sg17
(lp866
sg19
(lp867
sg21
I0
sba(iArchitecture
Entity
p868
(dp869
g11
(lp870
sg13
S'android.app.OnActivityPausedListener'
p871
sg15
(lp872
sg17
(lp873
sg19
(lp874
sg21
I0
sba(iArchitecture
Entity
p875
(dp876
g11
(lp877
sg13
S'android.app.PackageDeleteObserver'
p878
sg15
(lp879
sg17
(lp880
sg19
(lp881
sg21
I0
sba(iArchitecture
Entity
p882
(dp883
g11
(lp884
sg13
S'android.app.PackageDeleteObserver$1'
p885
sg15
(lp886
sg17
(lp887
sg19
(lp888
sg21
I0
sba(iArchitecture
Entity
p889
(dp890
g11
(lp891
sg13
S'android.app.backup.FullBackupAgent'
p892
sg15
(lp893
sg17
(lp894
sg19
(lp895
sg21
I0
sba(iArchitecture
Entity
p896
(dp897
g11
(lp898
sg13
S'android.app.backup.RestoreObserver'
p899
sg15
(lp900
sg17
(lp901
sg19
(lp902
sg21
I0
sba(iArchitecture
Entity
p903
(dp904
g11
(lp905
sg13
S'android.appwidget.AppWidgetHost'
p906
sg15
(lp907
sg17
(lp908
sg19
(lp909
sg21
I0
sba(iArchitecture
Entity
p910
(dp911
g11
(lp912
sg13
S'android.appwidget.AppWidgetHost$Callbacks'
p913
sg15
(lp914
sg17
(lp915
sg19
(lp916
sg21
I0
sba(iArchitecture
Entity
p917
(dp918
g11
(lp919
sg13
S'android.appwidget.AppWidgetHost$UpdateHandler'
p920
sg15
(lp921
sg17
(lp922
sg19
(lp923
sg21
I0
sba(iArchitecture
Entity
p924
(dp925
g11
(lp926
sg13
S'android.appwidget.AppWidgetHostView'
p927
sg15
(lp928
sg17
(lp929
sg19
(lp930
sg21
I0
sba(iArchitecture
Entity
p931
(dp932
g11
(lp933
sg13
S'android.appwidget.AppWidgetHostView$1'
p934
sg15
(lp935
sg17
(lp936
sg19
(lp937
sg21
I0
sba(iArchitecture
Entity
p938
(dp939
g11
(lp940
sg13
S'android.appwidget.AppWidgetHostView$ParcelableSparseArray'
p941
sg15
(lp942
sg17
(lp943
sg19
(lp944
sg21
I0
sba(iArchitecture
Entity
p945
(dp946
g11
(lp947
sg13
S'android.appwidget.AppWidgetHostView$ParcelableSparseArray$1'
p948
sg15
(lp949
sg17
(lp950
sg19
(lp951
sg21
I0
sba(iArchitecture
Entity
p952
(dp953
g11
(lp954
sg13
S'android.content.ActivityNotFoundException'
p955
sg15
(lp956
sg17
(lp957
sg19
(lp958
sg21
I0
sba(iArchitecture
Entity
p959
(dp960
g11
(lp961
sg13
S'android.content.EntityIterator'
p962
sg15
(lp963
sg17
(lp964
sg19
(lp965
sg21
I0
sba(iArchitecture
Entity
p966
(dp967
g11
(lp968
sg13
S'android.content.ReceiverCallNotAllowedException'
p969
sg15
(lp970
sg17
(lp971
sg19
(lp972
sg21
I0
sba(iArchitecture
Entity
p973
(dp974
g11
(lp975
sg13
S'android.content.SyncStatusObserver'
p976
sg15
(lp977
sg17
(lp978
sg19
(lp979
sg21
I0
sba(iArchitecture
Entity
p980
(dp981
g11
(lp982
sg13
S'android.content.pm.PackageCleanItem'
p983
sg15
(lp984
sg17
(lp985
sg19
(lp986
sg21
I0
sba(iArchitecture
Entity
p987
(dp988
g11
(lp989
sg13
S'android.content.pm.PackageCleanItem$1'
p990
sg15
(lp991
sg17
(lp992
sg19
(lp993
sg21
I0
sba(iArchitecture
Entity
p994
(dp995
g11
(lp996
sg13
S'android.content.pm.ParceledListSlice'
p997
sg15
(lp998
sg17
(lp999
sg19
(lp1000
sg21
I0
sba(iArchitecture
Entity
p1001
(dp1002
g11
(lp1003
sg13
S'android.content.pm.ParceledListSlice$1'
p1004
sg15
(lp1005
sg17
(lp1006
sg19
(lp1007
sg21
I0
sba(iArchitecture
Entity
p1008
(dp1009
g11
(lp1010
sg13
S'android.content.pm.ParceledListSlice$2'
p1011
sg15
(lp1012
sg17
(lp1013
sg19
(lp1014
sg21
I0
sba(iArchitecture
Entity
p1015
(dp1016
g11
(lp1017
sg13
S'android.content.pm.PathPermission'
p1018
sg15
(lp1019
sg17
(lp1020
sg19
(lp1021
sg21
I0
sba(iArchitecture
Entity
p1022
(dp1023
g11
(lp1024
sg13
S'android.content.pm.PathPermission$1'
p1025
sg15
(lp1026
sg17
(lp1027
sg19
(lp1028
sg21
I0
sba(iArchitecture
Entity
p1029
(dp1030
g11
(lp1031
sg13
S'android.content.pm.RegisteredServicesCacheListener'
p1032
sg15
(lp1033
sg17
(lp1034
sg19
(lp1035
sg21
I0
sba(iArchitecture
Entity
p1036
(dp1037
g11
(lp1038
sg13
S'android.content.pm.XmlSerializerAndParser'
p1039
sg15
(lp1040
sg17
(lp1041
sg19
(lp1042
sg21
I0
sba(iArchitecture
Entity
p1043
(dp1044
g11
(lp1045
sg13
S'android.content.res.ObbInfo'
p1046
sg15
(lp1047
sg17
(lp1048
sg19
(lp1049
sg21
I0
sba(iArchitecture
Entity
p1050
(dp1051
g11
(lp1052
sg13
S'android.content.res.ObbInfo$1'
p1053
sg15
(lp1054
sg17
(lp1055
sg19
(lp1056
sg21
I0
sba(iArchitecture
Entity
p1057
(dp1058
g11
(lp1059
sg13
S'android.content.res.XmlResourceParser'
p1060
sg15
(lp1061
sg17
(lp1062
sg19
(lp1063
sg21
I0
sba(iArchitecture
Entity
p1064
(dp1065
g11
(lp1066
sg13
S'android.database.BulkCursorDescriptor'
p1067
sg15
(lp1068
sg17
(lp1069
sg19
(lp1070
sg21
I0
sba(iArchitecture
Entity
p1071
(dp1072
g11
(lp1073
sg13
S'android.database.BulkCursorDescriptor$1'
p1074
sg15
(lp1075
sg17
(lp1076
sg19
(lp1077
sg21
I0
sba(iArchitecture
Entity
p1078
(dp1079
g11
(lp1080
sg13
S'android.database.CharArrayBuffer'
p1081
sg15
(lp1082
sg17
(lp1083
sg19
(lp1084
sg21
I0
sba(iArchitecture
Entity
p1085
(dp1086
g11
(lp1087
sg13
S'android.database.CursorIndexOutOfBoundsException'
p1088
sg15
(lp1089
sg17
(lp1090
sg19
(lp1091
sg21
I0
sba(iArchitecture
Entity
p1092
(dp1093
g11
(lp1094
sg13
S'android.database.CursorWindowAllocationException'
p1095
sg15
(lp1096
sg17
(lp1097
sg19
(lp1098
sg21
I0
sba(iArchitecture
Entity
p1099
(dp1100
g11
(lp1101
sg13
S'android.database.DataSetObserver'
p1102
sg15
(lp1103
sg17
(lp1104
sg19
(lp1105
sg21
I0
sba(iArchitecture
Entity
p1106
(dp1107
g11
(lp1108
sg13
S'android.database.DatabaseErrorHandler'
p1109
sg15
(lp1110
sg17
(lp1111
sg19
(lp1112
sg21
I0
sba(iArchitecture
Entity
p1113
(dp1114
g11
(lp1115
sg13
S'android.database.SQLException'
p1116
sg15
(lp1117
sg17
(lp1118
sg19
(lp1119
sg21
I0
sba(iArchitecture
Entity
p1120
(dp1121
g11
(lp1122
sg13
S'android.database.StaleDataException'
p1123
sg15
(lp1124
sg17
(lp1125
sg19
(lp1126
sg21
I0
sba(iArchitecture
Entity
p1127
(dp1128
g11
(lp1129
sg13
S'android.database.sqlite.DatabaseObjectNotClosedException'
p1130
sg15
(lp1131
sg17
(lp1132
sg19
(lp1133
sg21
I0
sba(iArchitecture
Entity
p1134
(dp1135
g11
(lp1136
sg13
S'android.database.sqlite.SQLiteAbortException'
p1137
sg15
(lp1138
sg17
(lp1139
sg19
(lp1140
sg21
I0
sba(iArchitecture
Entity
p1141
(dp1142
g11
(lp1143
sg13
S'android.database.sqlite.SQLiteAccessPermException'
p1144
sg15
(lp1145
sg17
(lp1146
sg19
(lp1147
sg21
I0
sba(iArchitecture
Entity
p1148
(dp1149
g11
(lp1150
sg13
S'android.database.sqlite.SQLiteBindOrColumnIndexOutOfRangeException'
p1151
sg15
(lp1152
sg17
(lp1153
sg19
(lp1154
sg21
I0
sba(iArchitecture
Entity
p1155
(dp1156
g11
(lp1157
sg13
S'android.database.sqlite.SQLiteBlobTooBigException'
p1158
sg15
(lp1159
sg17
(lp1160
sg19
(lp1161
sg21
I0
sba(iArchitecture
Entity
p1162
(dp1163
g11
(lp1164
sg13
S'android.database.sqlite.SQLiteCantOpenDatabaseException'
p1165
sg15
(lp1166
sg17
(lp1167
sg19
(lp1168
sg21
I0
sba(iArchitecture
Entity
p1169
(dp1170
g11
(lp1171
sg13
S'android.database.sqlite.SQLiteConstraintException'
p1172
sg15
(lp1173
sg17
(lp1174
sg19
(lp1175
sg21
I0
sba(iArchitecture
Entity
p1176
(dp1177
g11
(lp1178
sg13
S'android.database.sqlite.SQLiteCustomFunction'
p1179
sg15
(lp1180
sg17
(lp1181
sg19
(lp1182
sg21
I0
sba(iArchitecture
Entity
p1183
(dp1184
g11
(lp1185
sg13
S'android.database.sqlite.SQLiteDatabaseCorruptException'
p1186
sg15
(lp1187
sg17
(lp1188
sg19
(lp1189
sg21
I0
sba(iArchitecture
Entity
p1190
(dp1191
g11
(lp1192
sg13
S'android.database.sqlite.SQLiteDatabaseLockedException'
p1193
sg15
(lp1194
sg17
(lp1195
sg19
(lp1196
sg21
I0
sba(iArchitecture
Entity
p1197
(dp1198
g11
(lp1199
sg13
S'android.database.sqlite.SQLiteDatatypeMismatchException'
p1200
sg15
(lp1201
sg17
(lp1202
sg19
(lp1203
sg21
I0
sba(iArchitecture
Entity
p1204
(dp1205
g11
(lp1206
sg13
S'android.database.sqlite.SQLiteDiskIOException'
p1207
sg15
(lp1208
sg17
(lp1209
sg19
(lp1210
sg21
I0
sba(iArchitecture
Entity
p1211
(dp1212
g11
(lp1213
sg13
S'android.database.sqlite.SQLiteDoneException'
p1214
sg15
(lp1215
sg17
(lp1216
sg19
(lp1217
sg21
I0
sba(iArchitecture
Entity
p1218
(dp1219
g11
(lp1220
sg13
S'android.database.sqlite.SQLiteException'
p1221
sg15
(lp1222
sg17
(lp1223
sg19
(lp1224
sg21
I0
sba(iArchitecture
Entity
p1225
(dp1226
g11
(lp1227
sg13
S'android.database.sqlite.SQLiteFullException'
p1228
sg15
(lp1229
sg17
(lp1230
sg19
(lp1231
sg21
I0
sba(iArchitecture
Entity
p1232
(dp1233
g11
(lp1234
sg13
S'android.database.sqlite.SQLiteMisuseException'
p1235
sg15
(lp1236
sg17
(lp1237
sg19
(lp1238
sg21
I0
sba(iArchitecture
Entity
p1239
(dp1240
g11
(lp1241
sg13
S'android.database.sqlite.SQLiteOutOfMemoryException'
p1242
sg15
(lp1243
sg17
(lp1244
sg19
(lp1245
sg21
I0
sba(iArchitecture
Entity
p1246
(dp1247
g11
(lp1248
sg13
S'android.database.sqlite.SQLiteReadOnlyDatabaseException'
p1249
sg15
(lp1250
sg17
(lp1251
sg19
(lp1252
sg21
I0
sba(iArchitecture
Entity
p1253
(dp1254
g11
(lp1255
sg13
S'android.database.sqlite.SQLiteStatementInfo'
p1256
sg15
(lp1257
sg17
(lp1258
sg19
(lp1259
sg21
I0
sba(iArchitecture
Entity
p1260
(dp1261
g11
(lp1262
sg13
S'android.database.sqlite.SQLiteTableLockedException'
p1263
sg15
(lp1264
sg17
(lp1265
sg19
(lp1266
sg21
I0
sba(iArchitecture
Entity
p1267
(dp1268
g11
(lp1269
sg13
S'android.database.sqlite.SQLiteTransactionListener'
p1270
sg15
(lp1271
sg17
(lp1272
sg19
(lp1273
sg21
I0
sba(iArchitecture
Entity
p1274
(dp1275
g11
(lp1276
sg13
S'android.filterfw.core.GenerateFieldPort'
p1277
sg15
(lp1278
sg17
(lp1279
sg19
(lp1280
sg21
I0
sba(iArchitecture
Entity
p1281
(dp1282
g11
(lp1283
sg13
S'android.filterfw.core.GenerateFinalPort'
p1284
sg15
(lp1285
sg17
(lp1286
sg19
(lp1287
sg21
I0
sba(iArchitecture
Entity
p1288
(dp1289
g11
(lp1290
sg13
S'android.filterfw.core.GenerateProgramPort'
p1291
sg15
(lp1292
sg17
(lp1293
sg19
(lp1294
sg21
I0
sba(iArchitecture
Entity
p1295
(dp1296
g11
(lp1297
sg13
S'android.filterfw.core.GenerateProgramPorts'
p1298
sg15
(lp1299
sg17
(lp1300
sg19
(lp1301
sg21
I0
sba(iArchitecture
Entity
p1302
(dp1303
g11
(lp1304
sg13
S'android.filterfw.core.MutableFrameFormat'
p1305
sg15
(lp1306
sg17
(lp1307
sg19
(lp1308
sg21
I0
sba(iArchitecture
Entity
p1309
(dp1310
g11
(lp1311
sg13
S'android.filterfw.core.NativeAllocatorTag'
p1312
sg15
(lp1313
sg17
(lp1314
sg19
(lp1315
sg21
I0
sba(iArchitecture
Entity
p1316
(dp1317
g11
(lp1318
sg13
S'android.filterfw.core.ProgramPort'
p1319
sg15
(lp1320
sg17
(lp1321
sg19
(lp1322
sg21
I0
sba(iArchitecture
Entity
p1323
(dp1324
g11
(lp1325
sg13
S'android.filterfw.core.ProtocolException'
p1326
sg15
(lp1327
sg17
(lp1328
sg19
(lp1329
sg21
I0
sba(iArchitecture
Entity
p1330
(dp1331
g11
(lp1332
sg13
S'android.filterfw.core.Scheduler'
p1333
sg15
(lp1334
sg17
(lp1335
sg19
(lp1336
sg21
I0
sba(iArchitecture
Entity
p1337
(dp1338
g11
(lp1339
sg13
S'android.filterfw.core.SimpleScheduler'
p1340
sg15
(lp1341
sg17
(lp1342
sg19
(lp1343
sg21
I0
sba(iArchitecture
Entity
p1344
(dp1345
g11
(lp1346
sg13
S'android.filterfw.geometry.Quad'
p1347
sg15
(lp1348
sg17
(lp1349
sg19
(lp1350
sg21
I0
sba(iArchitecture
Entity
p1351
(dp1352
g11
(lp1353
sg13
S'android.filterfw.io.GraphIOException'
p1354
sg15
(lp1355
sg17
(lp1356
sg19
(lp1357
sg21
I0
sba(iArchitecture
Entity
p1358
(dp1359
g11
(lp1360
sg13
S'android.filterpacks.base.FrameStore'
p1361
sg15
(lp1362
sg17
(lp1363
sg19
(lp1364
sg21
I0
sba(iArchitecture
Entity
p1365
(dp1366
g11
(lp1367
sg13
S'android.filterpacks.base.NullFilter'
p1368
sg15
(lp1369
sg17
(lp1370
sg19
(lp1371
sg21
I0
sba(iArchitecture
Entity
p1372
(dp1373
g11
(lp1374
sg13
S'android.gesture.GestureConstants'
p1375
sg15
(lp1376
sg17
(lp1377
sg19
(lp1378
sg21
I0
sba(iArchitecture
Entity
p1379
(dp1380
g11
(lp1381
sg13
S'android.gesture.Learner'
p1382
sg15
(lp1383
sg17
(lp1384
sg19
(lp1385
sg21
I0
sba(iArchitecture
Entity
p1386
(dp1387
g11
(lp1388
sg13
S'android.gesture.Prediction'
p1389
sg15
(lp1390
sg17
(lp1391
sg19
(lp1392
sg21
I0
sba(iArchitecture
Entity
p1393
(dp1394
g11
(lp1395
sg13
S'android.graphics.ColorFilter'
p1396
sg15
(lp1397
sg17
(lp1398
sg19
(lp1399
sg21
I0
sba(iArchitecture
Entity
p1400
(dp1401
g11
(lp1402
sg13
S'android.graphics.ComposePathEffect'
p1403
sg15
(lp1404
sg17
(lp1405
sg19
(lp1406
sg21
I0
sba(iArchitecture
Entity
p1407
(dp1408
g11
(lp1409
sg13
S'android.graphics.CornerPathEffect'
p1410
sg15
(lp1411
sg17
(lp1412
sg19
(lp1413
sg21
I0
sba(iArchitecture
Entity
p1414
(dp1415
g11
(lp1416
sg13
S'android.graphics.DiscretePathEffect'
p1417
sg15
(lp1418
sg17
(lp1419
sg19
(lp1420
sg21
I0
sba(iArchitecture
Entity
p1421
(dp1422
g11
(lp1423
sg13
S'android.graphics.DrawFilter'
p1424
sg15
(lp1425
sg17
(lp1426
sg19
(lp1427
sg21
I0
sba(iArchitecture
Entity
p1428
(dp1429
g11
(lp1430
sg13
S'android.graphics.ImageFormat'
p1431
sg15
(lp1432
sg17
(lp1433
sg19
(lp1434
sg21
I0
sba(iArchitecture
Entity
p1435
(dp1436
g11
(lp1437
sg13
S'android.graphics.LayerRasterizer'
p1438
sg15
(lp1439
sg17
(lp1440
sg19
(lp1441
sg21
I0
sba(iArchitecture
Entity
p1442
(dp1443
g11
(lp1444
sg13
S'android.graphics.MaskFilter'
p1445
sg15
(lp1446
sg17
(lp1447
sg19
(lp1448
sg21
I0
sba(iArchitecture
Entity
p1449
(dp1450
g11
(lp1451
sg13
S'android.graphics.PathEffect'
p1452
sg15
(lp1453
sg17
(lp1454
sg19
(lp1455
sg21
I0
sba(iArchitecture
Entity
p1456
(dp1457
g11
(lp1458
sg13
S'android.graphics.PixelXorXfermode'
p1459
sg15
(lp1460
sg17
(lp1461
sg19
(lp1462
sg21
I0
sba(iArchitecture
Entity
p1463
(dp1464
g11
(lp1465
sg13
S'android.graphics.Point'
p1466
sg15
(lp1467
sg17
(lp1468
sg19
(lp1469
sg21
I0
sba(iArchitecture
Entity
p1470
(dp1471
g11
(lp1472
sg13
S'android.graphics.Point$1'
p1473
sg15
(lp1474
sg17
(lp1475
sg19
(lp1476
sg21
I0
sba(iArchitecture
Entity
p1477
(dp1478
g11
(lp1479
sg13
S'android.graphics.PointF'
p1480
sg15
(lp1481
sg17
(lp1482
sg19
(lp1483
sg21
I0
sba(iArchitecture
Entity
p1484
(dp1485
g11
(lp1486
sg13
S'android.graphics.PointF$1'
p1487
sg15
(lp1488
sg17
(lp1489
sg19
(lp1490
sg21
I0
sba(iArchitecture
Entity
p1491
(dp1492
g11
(lp1493
sg13
S'android.graphics.Rasterizer'
p1494
sg15
(lp1495
sg17
(lp1496
sg19
(lp1497
sg21
I0
sba(iArchitecture
Entity
p1498
(dp1499
g11
(lp1500
sg13
S'android.graphics.SumPathEffect'
p1501
sg15
(lp1502
sg17
(lp1503
sg19
(lp1504
sg21
I0
sba(iArchitecture
Entity
p1505
(dp1506
g11
(lp1507
sg13
S'android.graphics.Xfermode'
p1508
sg15
(lp1509
sg17
(lp1510
sg19
(lp1511
sg21
I0
sba(iArchitecture
Entity
p1512
(dp1513
g11
(lp1514
sg13
S'android.graphics.drawable.Animatable'
p1515
sg15
(lp1516
sg17
(lp1517
sg19
(lp1518
sg21
I0
sba(iArchitecture
Entity
p1519
(dp1520
g11
(lp1521
sg13
S'android.graphics.drawable.Animatable2'
p1522
sg15
(lp1523
sg17
(lp1524
sg19
(lp1525
sg21
I0
sba(iArchitecture
Entity
p1526
(dp1527
g11
(lp1528
sg13
S'android.graphics.drawable.Animatable2$AnimationCallback'
p1529
sg15
(lp1530
sg17
(lp1531
sg19
(lp1532
sg21
I0
sba(iArchitecture
Entity
p1533
(dp1534
g11
(lp1535
sg13
S'android.hardware.Camera'
p1536
sg15
(lp1537
sg17
(lp1538
sg19
(lp1539
sg21
I0
sba(iArchitecture
Entity
p1540
(dp1541
g11
(lp1542
sg13
S'android.hardware.Camera$Area'
p1543
sg15
(lp1544
sg17
(lp1545
sg19
(lp1546
sg21
I0
sba(iArchitecture
Entity
p1547
(dp1548
g11
(lp1549
sg13
S'android.hardware.Camera$AutoFocusCallback'
p1550
sg15
(lp1551
sg17
(lp1552
sg19
(lp1553
sg21
I0
sba(iArchitecture
Entity
p1554
(dp1555
g11
(lp1556
sg13
S'android.hardware.Camera$AutoFocusMoveCallback'
p1557
sg15
(lp1558
sg17
(lp1559
sg19
(lp1560
sg21
I0
sba(iArchitecture
Entity
p1561
(dp1562
g11
(lp1563
sg13
S'android.hardware.Camera$CameraInfo'
p1564
sg15
(lp1565
sg17
(lp1566
sg19
(lp1567
sg21
I0
sba(iArchitecture
Entity
p1568
(dp1569
g11
(lp1570
sg13
S'android.hardware.Camera$ErrorCallback'
p1571
sg15
(lp1572
sg17
(lp1573
sg19
(lp1574
sg21
I0
sba(iArchitecture
Entity
p1575
(dp1576
g11
(lp1577
sg13
S'android.hardware.Camera$EventHandler'
p1578
sg15
(lp1579
sg17
(lp1580
sg19
(lp1581
sg21
I0
sba(iArchitecture
Entity
p1582
(dp1583
g11
(lp1584
sg13
S'android.hardware.Camera$Face'
p1585
sg15
(lp1586
sg17
(lp1587
sg19
(lp1588
sg21
I0
sba(iArchitecture
Entity
p1589
(dp1590
g11
(lp1591
sg13
S'android.hardware.Camera$FaceDetectionListener'
p1592
sg15
(lp1593
sg17
(lp1594
sg19
(lp1595
sg21
I0
sba(iArchitecture
Entity
p1596
(dp1597
g11
(lp1598
sg13
S'android.hardware.Camera$OnZoomChangeListener'
p1599
sg15
(lp1600
sg17
(lp1601
sg19
(lp1602
sg21
I0
sba(iArchitecture
Entity
p1603
(dp1604
g11
(lp1605
sg13
S'android.hardware.Camera$Parameters'
p1606
sg15
(lp1607
sg17
(lp1608
sg19
(lp1609
sg21
I0
sba(iArchitecture
Entity
p1610
(dp1611
g11
(lp1612
sg13
S'android.hardware.Camera$PictureCallback'
p1613
sg15
(lp1614
sg17
(lp1615
sg19
(lp1616
sg21
I0
sba(iArchitecture
Entity
p1617
(dp1618
g11
(lp1619
sg13
S'android.hardware.Camera$PreviewCallback'
p1620
sg15
(lp1621
sg17
(lp1622
sg19
(lp1623
sg21
I0
sba(iArchitecture
Entity
p1624
(dp1625
g11
(lp1626
sg13
S'android.hardware.Camera$ShutterCallback'
p1627
sg15
(lp1628
sg17
(lp1629
sg19
(lp1630
sg21
I0
sba(iArchitecture
Entity
p1631
(dp1632
g11
(lp1633
sg13
S'android.hardware.Camera$Size'
p1634
sg15
(lp1635
sg17
(lp1636
sg19
(lp1637
sg21
I0
sba(iArchitecture
Entity
p1638
(dp1639
g11
(lp1640
sg13
S'android.hardware.camera2.CameraCaptureSession'
p1641
sg15
(lp1642
sg17
(lp1643
sg19
(lp1644
sg21
I0
sba(iArchitecture
Entity
p1645
(dp1646
g11
(lp1647
sg13
S'android.hardware.camera2.CameraCaptureSession$CaptureCallback'
p1648
sg15
(lp1649
sg17
(lp1650
sg19
(lp1651
sg21
I0
sba(iArchitecture
Entity
p1652
(dp1653
g11
(lp1654
sg13
S'android.hardware.camera2.CameraCaptureSession$CaptureListener'
p1655
sg15
(lp1656
sg17
(lp1657
sg19
(lp1658
sg21
I0
sba(iArchitecture
Entity
p1659
(dp1660
g11
(lp1661
sg13
S'android.hardware.camera2.CameraCaptureSession$StateCallback'
p1662
sg15
(lp1663
sg17
(lp1664
sg19
(lp1665
sg21
I0
sba(iArchitecture
Entity
p1666
(dp1667
g11
(lp1668
sg13
S'android.hardware.camera2.CameraCaptureSession$StateListener'
p1669
sg15
(lp1670
sg17
(lp1671
sg19
(lp1672
sg21
I0
sba(iArchitecture
Entity
p1673
(dp1674
g11
(lp1675
sg13
S'android.hardware.camera2.CameraCharacteristics'
p1676
sg15
(lp1677
sg17
(lp1678
sg19
(lp1679
sg21
I0
sba(iArchitecture
Entity
p1680
(dp1681
g11
(lp1682
sg13
S'android.hardware.camera2.CameraCharacteristics$1'
p1683
sg15
(lp1684
sg17
(lp1685
sg19
(lp1686
sg21
I0
sba(iArchitecture
Entity
p1687
(dp1688
g11
(lp1689
sg13
S'android.hardware.camera2.CameraCharacteristics$2'
p1690
sg15
(lp1691
sg17
(lp1692
sg19
(lp1693
sg21
I0
sba(iArchitecture
Entity
p1694
(dp1695
g11
(lp1696
sg13
S'android.hardware.camera2.CameraCharacteristics$3'
p1697
sg15
(lp1698
sg17
(lp1699
sg19
(lp1700
sg21
I0
sba(iArchitecture
Entity
p1701
(dp1702
g11
(lp1703
sg13
S'android.hardware.camera2.CameraCharacteristics$4'
p1704
sg15
(lp1705
sg17
(lp1706
sg19
(lp1707
sg21
I0
sba(iArchitecture
Entity
p1708
(dp1709
g11
(lp1710
sg13
S'android.hardware.camera2.CameraCharacteristics$Key'
p1711
sg15
(lp1712
sg17
(lp1713
sg19
(lp1714
sg21
I0
sba(iArchitecture
Entity
p1715
(dp1716
g11
(lp1717
sg13
S'android.hardware.camera2.CameraDevice'
p1718
sg15
(lp1719
sg17
(lp1720
sg19
(lp1721
sg21
I0
sba(iArchitecture
Entity
p1722
(dp1723
g11
(lp1724
sg13
S'android.hardware.camera2.CameraDevice$StateCallback'
p1725
sg15
(lp1726
sg17
(lp1727
sg19
(lp1728
sg21
I0
sba(iArchitecture
Entity
p1729
(dp1730
g11
(lp1731
sg13
S'android.hardware.camera2.CameraDevice$StateListener'
p1732
sg15
(lp1733
sg17
(lp1734
sg19
(lp1735
sg21
I0
sba(iArchitecture
Entity
p1736
(dp1737
g11
(lp1738
sg13
S'android.hardware.camera2.CameraMetadata'
p1739
sg15
(lp1740
sg17
(lp1741
sg19
(lp1742
sg21
I0
sba(iArchitecture
Entity
p1743
(dp1744
g11
(lp1745
sg13
S'android.hardware.camera2.CaptureRequest'
p1746
sg15
(lp1747
sg17
(lp1748
sg19
(lp1749
sg21
I0
sba(iArchitecture
Entity
p1750
(dp1751
g11
(lp1752
sg13
S'android.hardware.camera2.CaptureRequest$1'
p1753
sg15
(lp1754
sg17
(lp1755
sg19
(lp1756
sg21
I0
sba(iArchitecture
Entity
p1757
(dp1758
g11
(lp1759
sg13
S'android.hardware.camera2.CaptureRequest$2'
p1760
sg15
(lp1761
sg17
(lp1762
sg19
(lp1763
sg21
I0
sba(iArchitecture
Entity
p1764
(dp1765
g11
(lp1766
sg13
S'android.hardware.camera2.CaptureRequest$Builder'
p1767
sg15
(lp1768
sg17
(lp1769
sg19
(lp1770
sg21
I0
sba(iArchitecture
Entity
p1771
(dp1772
g11
(lp1773
sg13
S'android.hardware.camera2.CaptureRequest$Key'
p1774
sg15
(lp1775
sg17
(lp1776
sg19
(lp1777
sg21
I0
sba(iArchitecture
Entity
p1778
(dp1779
g11
(lp1780
sg13
S'android.hardware.camera2.CaptureResult'
p1781
sg15
(lp1782
sg17
(lp1783
sg19
(lp1784
sg21
I0
sba(iArchitecture
Entity
p1785
(dp1786
g11
(lp1787
sg13
S'android.hardware.camera2.CaptureResult$1'
p1788
sg15
(lp1789
sg17
(lp1790
sg19
(lp1791
sg21
I0
sba(iArchitecture
Entity
p1792
(dp1793
g11
(lp1794
sg13
S'android.hardware.camera2.CaptureResult$2'
p1795
sg15
(lp1796
sg17
(lp1797
sg19
(lp1798
sg21
I0
sba(iArchitecture
Entity
p1799
(dp1800
g11
(lp1801
sg13
S'android.hardware.camera2.CaptureResult$3'
p1802
sg15
(lp1803
sg17
(lp1804
sg19
(lp1805
sg21
I0
sba(iArchitecture
Entity
p1806
(dp1807
g11
(lp1808
sg13
S'android.hardware.camera2.CaptureResult$Key'
p1809
sg15
(lp1810
sg17
(lp1811
sg19
(lp1812
sg21
I0
sba(iArchitecture
Entity
p1813
(dp1814
g11
(lp1815
sg13
S'android.hardware.camera2.dispatch.Dispatchable'
p1816
sg15
(lp1817
sg17
(lp1818
sg19
(lp1819
sg21
I0
sba(iArchitecture
Entity
p1820
(dp1821
g11
(lp1822
sg13
S'android.hardware.camera2.dispatch.InvokeDispatcher'
p1823
sg15
(lp1824
sg17
(lp1825
sg19
(lp1826
sg21
I0
sba(iArchitecture
Entity
p1827
(dp1828
g11
(lp1829
sg13
S'android.hardware.camera2.dispatch.NullDispatcher'
p1830
sg15
(lp1831
sg17
(lp1832
sg19
(lp1833
sg21
I0
sba(iArchitecture
Entity
p1834
(dp1835
g11
(lp1836
sg13
S'android.hardware.camera2.impl.CameraCaptureSessionImpl'
p1837
sg15
(lp1838
sg17
(lp1839
sg19
(lp1840
sg21
I0
sba(iArchitecture
Entity
p1841
(dp1842
g11
(lp1843
sg13
S'android.hardware.camera2.impl.CameraCaptureSessionImpl$1'
p1844
sg15
(lp1845
sg17
(lp1846
sg19
(lp1847
sg21
I0
sba(iArchitecture
Entity
p1848
(dp1849
g11
(lp1850
sg13
S'android.hardware.camera2.impl.CameraCaptureSessionImpl$2'
p1851
sg15
(lp1852
sg17
(lp1853
sg19
(lp1854
sg21
I0
sba(iArchitecture
Entity
p1855
(dp1856
g11
(lp1857
sg13
S'android.hardware.camera2.impl.CameraCaptureSessionImpl$AbortDrainListener'
p1858
sg15
(lp1859
sg17
(lp1860
sg19
(lp1861
sg21
I0
sba(iArchitecture
Entity
p1862
(dp1863
g11
(lp1864
sg13
S'android.hardware.camera2.impl.CameraCaptureSessionImpl$IdleDrainListener'
p1865
sg15
(lp1866
sg17
(lp1867
sg19
(lp1868
sg21
I0
sba(iArchitecture
Entity
p1869
(dp1870
g11
(lp1871
sg13
S'android.hardware.camera2.impl.CameraCaptureSessionImpl$SequenceDrainListener'
p1872
sg15
(lp1873
sg17
(lp1874
sg19
(lp1875
sg21
I0
sba(iArchitecture
Entity
p1876
(dp1877
g11
(lp1878
sg13
S'android.hardware.camera2.impl.CameraConstrainedHighSpeedCaptureSessionImpl'
p1879
sg15
(lp1880
sg17
(lp1881
sg19
(lp1882
sg21
I0
sba(iArchitecture
Entity
p1883
(dp1884
g11
(lp1885
sg13
S'android.hardware.camera2.impl.CameraConstrainedHighSpeedCaptureSessionImpl$WrapperCallback'
p1886
sg15
(lp1887
sg17
(lp1888
sg19
(lp1889
sg21
I0
sba(iArchitecture
Entity
p1890
(dp1891
g11
(lp1892
sg13
S'android.hardware.camera2.impl.CameraDeviceImpl'
p1893
sg15
(lp1894
sg17
(lp1895
sg19
(lp1896
sg21
I0
sba(iArchitecture
Entity
p1897
(dp1898
g11
(lp1899
sg13
S'android.hardware.camera2.impl.CameraDeviceImpl$1'
p1900
sg15
(lp1901
sg17
(lp1902
sg19
(lp1903
sg21
I0
sba(iArchitecture
Entity
p1904
(dp1905
g11
(lp1906
sg13
S'android.hardware.camera2.impl.CameraDeviceImpl$10'
p1907
sg15
(lp1908
sg17
(lp1909
sg19
(lp1910
sg21
I0
sba(iArchitecture
Entity
p1911
(dp1912
g11
(lp1913
sg13
S'android.hardware.camera2.impl.CameraDeviceImpl$2'
p1914
sg15
(lp1915
sg17
(lp1916
sg19
(lp1917
sg21
I0
sba(iArchitecture
Entity
p1918
(dp1919
g11
(lp1920
sg13
S'android.hardware.camera2.impl.CameraDeviceImpl$3'
p1921
sg15
(lp1922
sg17
(lp1923
sg19
(lp1924
sg21
I0
sba(iArchitecture
Entity
p1925
(dp1926
g11
(lp1927
sg13
S'android.hardware.camera2.impl.CameraDeviceImpl$4'
p1928
sg15
(lp1929
sg17
(lp1930
sg19
(lp1931
sg21
I0
sba(iArchitecture
Entity
p1932
(dp1933
g11
(lp1934
sg13
S'android.hardware.camera2.impl.CameraDeviceImpl$5'
p1935
sg15
(lp1936
sg17
(lp1937
sg19
(lp1938
sg21
I0
sba(iArchitecture
Entity
p1939
(dp1940
g11
(lp1941
sg13
S'android.hardware.camera2.impl.CameraDeviceImpl$6'
p1942
sg15
(lp1943
sg17
(lp1944
sg19
(lp1945
sg21
I0
sba(iArchitecture
Entity
p1946
(dp1947
g11
(lp1948
sg13
S'android.hardware.camera2.impl.CameraDeviceImpl$7'
p1949
sg15
(lp1950
sg17
(lp1951
sg19
(lp1952
sg21
I0
sba(iArchitecture
Entity
p1953
(dp1954
g11
(lp1955
sg13
S'android.hardware.camera2.impl.CameraDeviceImpl$8'
p1956
sg15
(lp1957
sg17
(lp1958
sg19
(lp1959
sg21
I0
sba(iArchitecture
Entity
p1960
(dp1961
g11
(lp1962
sg13
S'android.hardware.camera2.impl.CameraDeviceImpl$9'
p1963
sg15
(lp1964
sg17
(lp1965
sg19
(lp1966
sg21
I0
sba(iArchitecture
Entity
p1967
(dp1968
g11
(lp1969
sg13
S'android.hardware.camera2.impl.CameraDeviceImpl$CameraDeviceCallbacks'
p1970
sg15
(lp1971
sg17
(lp1972
sg19
(lp1973
sg21
I0
sba(iArchitecture
Entity
p1974
(dp1975
g11
(lp1976
sg13
S'android.hardware.camera2.impl.CameraDeviceImpl$CameraDeviceCallbacks$1'
p1977
sg15
(lp1978
sg17
(lp1979
sg19
(lp1980
sg21
I0
sba(iArchitecture
Entity
p1981
(dp1982
g11
(lp1983
sg13
S'android.hardware.camera2.impl.CameraDeviceImpl$CameraDeviceCallbacks$2'
p1984
sg15
(lp1985
sg17
(lp1986
sg19
(lp1987
sg21
I0
sba(iArchitecture
Entity
p1988
(dp1989
g11
(lp1990
sg13
S'android.hardware.camera2.impl.CameraDeviceImpl$CameraDeviceCallbacks$3'
p1991
sg15
(lp1992
sg17
(lp1993
sg19
(lp1994
sg21
I0
sba(iArchitecture
Entity
p1995
(dp1996
g11
(lp1997
sg13
S'android.hardware.camera2.impl.CameraDeviceImpl$CameraDeviceCallbacks$4'
p1998
sg15
(lp1999
sg17
(lp2000
sg19
(lp2001
sg21
I0
sba(iArchitecture
Entity
p2002
(dp2003
g11
(lp2004
sg13
S'android.hardware.camera2.impl.CameraDeviceImpl$CameraDeviceCallbacks$5'
p2005
sg15
(lp2006
sg17
(lp2007
sg19
(lp2008
sg21
I0
sba(iArchitecture
Entity
p2009
(dp2010
g11
(lp2011
sg13
S'android.hardware.camera2.impl.CameraDeviceImpl$CaptureCallback'
p2012
sg15
(lp2013
sg17
(lp2014
sg19
(lp2015
sg21
I0
sba(iArchitecture
Entity
p2016
(dp2017
g11
(lp2018
sg13
S'android.hardware.camera2.impl.CameraDeviceImpl$CaptureCallbackHolder'
p2019
sg15
(lp2020
sg17
(lp2021
sg19
(lp2022
sg21
I0
sba(iArchitecture
Entity
p2023
(dp2024
g11
(lp2025
sg13
S'android.hardware.camera2.impl.CameraDeviceImpl$FrameNumberTracker'
p2026
sg15
(lp2027
sg17
(lp2028
sg19
(lp2029
sg21
I0
sba(iArchitecture
Entity
p2030
(dp2031
g11
(lp2032
sg13
S'android.hardware.camera2.impl.CameraDeviceImpl$RequestLastFrameNumbersHolder'
p2033
sg15
(lp2034
sg17
(lp2035
sg19
(lp2036
sg21
I0
sba(iArchitecture
Entity
p2037
(dp2038
g11
(lp2039
sg13
S'android.hardware.camera2.impl.CameraDeviceImpl$StateCallbackKK'
p2040
sg15
(lp2041
sg17
(lp2042
sg19
(lp2043
sg21
I0
sba(iArchitecture
Entity
p2044
(dp2045
g11
(lp2046
sg13
S'android.hardware.camera2.impl.PublicKey'
p2047
sg15
(lp2048
sg17
(lp2049
sg19
(lp2050
sg21
I0
sba(iArchitecture
Entity
p2051
(dp2052
g11
(lp2053
sg13
S'android.hardware.camera2.impl.SyntheticKey'
p2054
sg15
(lp2055
sg17
(lp2056
sg19
(lp2057
sg21
I0
sba(iArchitecture
Entity
p2058
(dp2059
g11
(lp2060
sg13
S'android.hardware.camera2.legacy.CameraDeviceUserShim'
p2061
sg15
(lp2062
sg17
(lp2063
sg19
(lp2064
sg21
I0
sba(iArchitecture
Entity
p2065
(dp2066
g11
(lp2067
sg13
S'android.hardware.camera2.legacy.CameraDeviceUserShim$CameraCallbackThread'
p2068
sg15
(lp2069
sg17
(lp2070
sg19
(lp2071
sg21
I0
sba(iArchitecture
Entity
p2072
(dp2073
g11
(lp2074
sg13
S'android.hardware.camera2.legacy.CameraDeviceUserShim$CameraCallbackThread$CallbackHandler'
p2075
sg15
(lp2076
sg17
(lp2077
sg19
(lp2078
sg21
I0
sba(iArchitecture
Entity
p2079
(dp2080
g11
(lp2081
sg13
S'android.hardware.camera2.legacy.CameraDeviceUserShim$CameraLooper'
p2082
sg15
(lp2083
sg17
(lp2084
sg19
(lp2085
sg21
I0
sba(iArchitecture
Entity
p2086
(dp2087
g11
(lp2088
sg13
S'android.hardware.camera2.legacy.LegacyCameraDevice'
p2089
sg15
(lp2090
sg17
(lp2091
sg19
(lp2092
sg21
I0
sba(iArchitecture
Entity
p2093
(dp2094
g11
(lp2095
sg13
S'android.hardware.camera2.legacy.LegacyCameraDevice$1'
p2096
sg15
(lp2097
sg17
(lp2098
sg19
(lp2099
sg21
I0
sba(iArchitecture
Entity
p2100
(dp2101
g11
(lp2102
sg13
S'android.hardware.camera2.legacy.LegacyCameraDevice$1$1'
p2103
sg15
(lp2104
sg17
(lp2105
sg19
(lp2106
sg21
I0
sba(iArchitecture
Entity
p2107
(dp2108
g11
(lp2109
sg13
S'android.hardware.camera2.legacy.LegacyCameraDevice$1$2'
p2110
sg15
(lp2111
sg17
(lp2112
sg19
(lp2113
sg21
I0
sba(iArchitecture
Entity
p2114
(dp2115
g11
(lp2116
sg13
S'android.hardware.camera2.legacy.LegacyCameraDevice$1$3'
p2117
sg15
(lp2118
sg17
(lp2119
sg19
(lp2120
sg21
I0
sba(iArchitecture
Entity
p2121
(dp2122
g11
(lp2123
sg13
S'android.hardware.camera2.legacy.LegacyCameraDevice$1$4'
p2124
sg15
(lp2125
sg17
(lp2126
sg19
(lp2127
sg21
I0
sba(iArchitecture
Entity
p2128
(dp2129
g11
(lp2130
sg13
S'android.hardware.camera2.legacy.LegacyMetadataMapper'
p2131
sg15
(lp2132
sg17
(lp2133
sg19
(lp2134
sg21
I0
sba(iArchitecture
Entity
p2135
(dp2136
g11
(lp2137
sg13
S'android.hardware.camera2.legacy.LegacyRequestMapper'
p2138
sg15
(lp2139
sg17
(lp2140
sg19
(lp2141
sg21
I0
sba(iArchitecture
Entity
p2142
(dp2143
g11
(lp2144
sg13
S'android.hardware.camera2.legacy.LegacyResultMapper'
p2145
sg15
(lp2146
sg17
(lp2147
sg19
(lp2148
sg21
I0
sba(iArchitecture
Entity
p2149
(dp2150
g11
(lp2151
sg13
S'android.hardware.camera2.legacy.ParameterUtils'
p2152
sg15
(lp2153
sg17
(lp2154
sg19
(lp2155
sg21
I0
sba(iArchitecture
Entity
p2156
(dp2157
g11
(lp2158
sg13
S'android.hardware.camera2.legacy.ParameterUtils$MeteringData'
p2159
sg15
(lp2160
sg17
(lp2161
sg19
(lp2162
sg21
I0
sba(iArchitecture
Entity
p2163
(dp2164
g11
(lp2165
sg13
S'android.hardware.camera2.legacy.ParameterUtils$WeightedRectangle'
p2166
sg15
(lp2167
sg17
(lp2168
sg19
(lp2169
sg21
I0
sba(iArchitecture
Entity
p2170
(dp2171
g11
(lp2172
sg13
S'android.hardware.camera2.legacy.ParameterUtils$ZoomData'
p2173
sg15
(lp2174
sg17
(lp2175
sg19
(lp2176
sg21
I0
sba(iArchitecture
Entity
p2177
(dp2178
g11
(lp2179
sg13
S'android.hardware.camera2.legacy.RequestThreadManager'
p2180
sg15
(lp2181
sg17
(lp2182
sg19
(lp2183
sg21
I0
sba(iArchitecture
Entity
p2184
(dp2185
g11
(lp2186
sg13
S'android.hardware.camera2.legacy.RequestThreadManager$1'
p2187
sg15
(lp2188
sg17
(lp2189
sg19
(lp2190
sg21
I0
sba(iArchitecture
Entity
p2191
(dp2192
g11
(lp2193
sg13
S'android.hardware.camera2.legacy.RequestThreadManager$2'
p2194
sg15
(lp2195
sg17
(lp2196
sg19
(lp2197
sg21
I0
sba(iArchitecture
Entity
p2198
(dp2199
g11
(lp2200
sg13
S'android.hardware.camera2.legacy.RequestThreadManager$3'
p2201
sg15
(lp2202
sg17
(lp2203
sg19
(lp2204
sg21
I0
sba(iArchitecture
Entity
p2205
(dp2206
g11
(lp2207
sg13
S'android.hardware.camera2.legacy.RequestThreadManager$4'
p2208
sg15
(lp2209
sg17
(lp2210
sg19
(lp2211
sg21
I0
sba(iArchitecture
Entity
p2212
(dp2213
g11
(lp2214
sg13
S'android.hardware.camera2.legacy.RequestThreadManager$5'
p2215
sg15
(lp2216
sg17
(lp2217
sg19
(lp2218
sg21
I0
sba(iArchitecture
Entity
p2219
(dp2220
g11
(lp2221
sg13
S'android.hardware.camera2.legacy.RequestThreadManager$ConfigureHolder'
p2222
sg15
(lp2223
sg17
(lp2224
sg19
(lp2225
sg21
I0
sba(iArchitecture
Entity
p2226
(dp2227
g11
(lp2228
sg13
S'android.hardware.camera2.legacy.RequestThreadManager$FpsCounter'
p2229
sg15
(lp2230
sg17
(lp2231
sg19
(lp2232
sg21
I0
sba(iArchitecture
Entity
p2233
(dp2234
g11
(lp2235
sg13
S'android.hardware.camera2.marshal.MarshalQueryable'
p2236
sg15
(lp2237
sg17
(lp2238
sg19
(lp2239
sg21
I0
sba(iArchitecture
Entity
p2240
(dp2241
g11
(lp2242
sg13
S'android.hardware.camera2.marshal.Marshaler'
p2243
sg15
(lp2244
sg17
(lp2245
sg19
(lp2246
sg21
I0
sba(iArchitecture
Entity
p2247
(dp2248
g11
(lp2249
sg13
S'android.hardware.camera2.marshal.impl.MarshalQueryableBoolean'
p2250
sg15
(lp2251
sg17
(lp2252
sg19
(lp2253
sg21
I0
sba(iArchitecture
Entity
p2254
(dp2255
g11
(lp2256
sg13
S'android.hardware.camera2.marshal.impl.MarshalQueryableBoolean$MarshalerBoolean'
p2257
sg15
(lp2258
sg17
(lp2259
sg19
(lp2260
sg21
I0
sba(iArchitecture
Entity
p2261
(dp2262
g11
(lp2263
sg13
S'android.hardware.camera2.marshal.impl.MarshalQueryableEnum'
p2264
sg15
(lp2265
sg17
(lp2266
sg19
(lp2267
sg21
I0
sba(iArchitecture
Entity
p2268
(dp2269
g11
(lp2270
sg13
S'android.hardware.camera2.marshal.impl.MarshalQueryableEnum$MarshalerEnum'
p2271
sg15
(lp2272
sg17
(lp2273
sg19
(lp2274
sg21
I0
sba(iArchitecture
Entity
p2275
(dp2276
g11
(lp2277
sg13
S'android.hardware.camera2.marshal.impl.MarshalQueryableNativeByteToInteger'
p2278
sg15
(lp2279
sg17
(lp2280
sg19
(lp2281
sg21
I0
sba(iArchitecture
Entity
p2282
(dp2283
g11
(lp2284
sg13
S'android.hardware.camera2.marshal.impl.MarshalQueryableNativeByteToInteger$MarshalerNativeByteToInteger'
p2285
sg15
(lp2286
sg17
(lp2287
sg19
(lp2288
sg21
I0
sba(iArchitecture
Entity
p2289
(dp2290
g11
(lp2291
sg13
S'android.hardware.camera2.marshal.impl.MarshalQueryablePair'
p2292
sg15
(lp2293
sg17
(lp2294
sg19
(lp2295
sg21
I0
sba(iArchitecture
Entity
p2296
(dp2297
g11
(lp2298
sg13
S'android.hardware.camera2.marshal.impl.MarshalQueryablePair$MarshalerPair'
p2299
sg15
(lp2300
sg17
(lp2301
sg19
(lp2302
sg21
I0
sba(iArchitecture
Entity
p2303
(dp2304
g11
(lp2305
sg13
S'android.hardware.camera2.marshal.impl.MarshalQueryableRange'
p2306
sg15
(lp2307
sg17
(lp2308
sg19
(lp2309
sg21
I0
sba(iArchitecture
Entity
p2310
(dp2311
g11
(lp2312
sg13
S'android.hardware.camera2.marshal.impl.MarshalQueryableRange$MarshalerRange'
p2313
sg15
(lp2314
sg17
(lp2315
sg19
(lp2316
sg21
I0
sba(iArchitecture
Entity
p2317
(dp2318
g11
(lp2319
sg13
S'android.hardware.camera2.marshal.impl.MarshalQueryableRect'
p2320
sg15
(lp2321
sg17
(lp2322
sg19
(lp2323
sg21
I0
sba(iArchitecture
Entity
p2324
(dp2325
g11
(lp2326
sg13
S'android.hardware.camera2.marshal.impl.MarshalQueryableRect$MarshalerRect'
p2327
sg15
(lp2328
sg17
(lp2329
sg19
(lp2330
sg21
I0
sba(iArchitecture
Entity
p2331
(dp2332
g11
(lp2333
sg13
S'android.hardware.camera2.marshal.impl.MarshalQueryableSize'
p2334
sg15
(lp2335
sg17
(lp2336
sg19
(lp2337
sg21
I0
sba(iArchitecture
Entity
p2338
(dp2339
g11
(lp2340
sg13
S'android.hardware.camera2.marshal.impl.MarshalQueryableSize$MarshalerSize'
p2341
sg15
(lp2342
sg17
(lp2343
sg19
(lp2344
sg21
I0
sba(iArchitecture
Entity
p2345
(dp2346
g11
(lp2347
sg13
S'android.hardware.camera2.marshal.impl.MarshalQueryableSizeF'
p2348
sg15
(lp2349
sg17
(lp2350
sg19
(lp2351
sg21
I0
sba(iArchitecture
Entity
p2352
(dp2353
g11
(lp2354
sg13
S'android.hardware.camera2.marshal.impl.MarshalQueryableSizeF$MarshalerSizeF'
p2355
sg15
(lp2356
sg17
(lp2357
sg19
(lp2358
sg21
I0
sba(iArchitecture
Entity
p2359
(dp2360
g11
(lp2361
sg13
S'android.hardware.camera2.marshal.impl.MarshalQueryableString'
p2362
sg15
(lp2363
sg17
(lp2364
sg19
(lp2365
sg21
I0
sba(iArchitecture
Entity
p2366
(dp2367
g11
(lp2368
sg13
S'android.hardware.camera2.marshal.impl.MarshalQueryableString$MarshalerString'
p2369
sg15
(lp2370
sg17
(lp2371
sg19
(lp2372
sg21
I0
sba(iArchitecture
Entity
p2373
(dp2374
g11
(lp2375
sg13
S'android.hardware.camera2.params.OutputConfiguration'
p2376
sg15
(lp2377
sg17
(lp2378
sg19
(lp2379
sg21
I0
sba(iArchitecture
Entity
p2380
(dp2381
g11
(lp2382
sg13
S'android.hardware.camera2.params.OutputConfiguration$1'
p2383
sg15
(lp2384
sg17
(lp2385
sg19
(lp2386
sg21
I0
sba(iArchitecture
Entity
p2387
(dp2388
g11
(lp2389
sg13
S'android.hardware.camera2.params.StreamConfigurationMap'
p2390
sg15
(lp2391
sg17
(lp2392
sg19
(lp2393
sg21
I0
sba(iArchitecture
Entity
p2394
(dp2395
g11
(lp2396
sg13
S'android.hardware.camera2.utils.LongParcelable'
p2397
sg15
(lp2398
sg17
(lp2399
sg19
(lp2400
sg21
I0
sba(iArchitecture
Entity
p2401
(dp2402
g11
(lp2403
sg13
S'android.hardware.camera2.utils.LongParcelable$1'
p2404
sg15
(lp2405
sg17
(lp2406
sg19
(lp2407
sg21
I0
sba(iArchitecture
Entity
p2408
(dp2409
g11
(lp2410
sg13
S'android.hardware.camera2.utils.UncheckedThrow'
p2411
sg15
(lp2412
sg17
(lp2413
sg19
(lp2414
sg21
I0
sba(iArchitecture
Entity
p2415
(dp2416
g11
(lp2417
sg13
S'android.hardware.fingerprint.Fingerprint'
p2418
sg15
(lp2419
sg17
(lp2420
sg19
(lp2421
sg21
I0
sba(iArchitecture
Entity
p2422
(dp2423
g11
(lp2424
sg13
S'android.hardware.fingerprint.Fingerprint$1'
p2425
sg15
(lp2426
sg17
(lp2427
sg19
(lp2428
sg21
I0
sba(iArchitecture
Entity
p2429
(dp2430
g11
(lp2431
sg13
S'android.inputmethodservice.ExtractButton'
p2432
sg15
(lp2433
sg17
(lp2434
sg19
(lp2435
sg21
I0
sba(iArchitecture
Entity
p2436
(dp2437
g11
(lp2438
sg13
S'android.inputmethodservice.ExtractEditLayout'
p2439
sg15
(lp2440
sg17
(lp2441
sg19
(lp2442
sg21
I0
sba(iArchitecture
Entity
p2443
(dp2444
g11
(lp2445
sg13
S'android.location.CountryListener'
p2446
sg15
(lp2447
sg17
(lp2448
sg19
(lp2449
sg21
I0
sba(iArchitecture
Entity
p2450
(dp2451
g11
(lp2452
sg13
S'android.media.DeniedByServerException'
p2453
sg15
(lp2454
sg17
(lp2455
sg19
(lp2456
sg21
I0
sba(iArchitecture
Entity
p2457
(dp2458
g11
(lp2459
sg13
S'android.media.Image'
p2460
sg15
(lp2461
sg17
(lp2462
sg19
(lp2463
sg21
I0
sba(iArchitecture
Entity
p2464
(dp2465
g11
(lp2466
sg13
S'android.media.Image$Plane'
p2467
sg15
(lp2468
sg17
(lp2469
sg19
(lp2470
sg21
I0
sba(iArchitecture
Entity
p2471
(dp2472
g11
(lp2473
sg13
S'android.media.ImageReader'
p2474
sg15
(lp2475
sg17
(lp2476
sg19
(lp2477
sg21
I0
sba(iArchitecture
Entity
p2478
(dp2479
g11
(lp2480
sg13
S'android.media.ImageReader$ListenerHandler'
p2481
sg15
(lp2482
sg17
(lp2483
sg19
(lp2484
sg21
I0
sba(iArchitecture
Entity
p2485
(dp2486
g11
(lp2487
sg13
S'android.media.ImageReader$OnImageAvailableListener'
p2488
sg15
(lp2489
sg17
(lp2490
sg19
(lp2491
sg21
I0
sba(iArchitecture
Entity
p2492
(dp2493
g11
(lp2494
sg13
S'android.media.ImageReader$SurfaceImage'
p2495
sg15
(lp2496
sg17
(lp2497
sg19
(lp2498
sg21
I0
sba(iArchitecture
Entity
p2499
(dp2500
g11
(lp2501
sg13
S'android.media.ImageReader$SurfaceImage$SurfacePlane'
p2502
sg15
(lp2503
sg17
(lp2504
sg19
(lp2505
sg21
I0
sba(iArchitecture
Entity
p2506
(dp2507
g11
(lp2508
sg13
S'android.media.ImageWriter'
p2509
sg15
(lp2510
sg17
(lp2511
sg19
(lp2512
sg21
I0
sba(iArchitecture
Entity
p2513
(dp2514
g11
(lp2515
sg13
S'android.media.ImageWriter$ListenerHandler'
p2516
sg15
(lp2517
sg17
(lp2518
sg19
(lp2519
sg21
I0
sba(iArchitecture
Entity
p2520
(dp2521
g11
(lp2522
sg13
S'android.media.ImageWriter$OnImageReleasedListener'
p2523
sg15
(lp2524
sg17
(lp2525
sg19
(lp2526
sg21
I0
sba(iArchitecture
Entity
p2527
(dp2528
g11
(lp2529
sg13
S'android.media.ImageWriter$WriterSurfaceImage'
p2530
sg15
(lp2531
sg17
(lp2532
sg19
(lp2533
sg21
I0
sba(iArchitecture
Entity
p2534
(dp2535
g11
(lp2536
sg13
S'android.media.ImageWriter$WriterSurfaceImage$SurfacePlane'
p2537
sg15
(lp2538
sg17
(lp2539
sg19
(lp2540
sg21
I0
sba(iArchitecture
Entity
p2541
(dp2542
g11
(lp2543
sg13
S'android.media.MediaCryptoException'
p2544
sg15
(lp2545
sg17
(lp2546
sg19
(lp2547
sg21
I0
sba(iArchitecture
Entity
p2548
(dp2549
g11
(lp2550
sg13
S'android.media.MediaDataSource'
p2551
sg15
(lp2552
sg17
(lp2553
sg19
(lp2554
sg21
I0
sba(iArchitecture
Entity
p2555
(dp2556
g11
(lp2557
sg13
S'android.media.MediaDrmException'
p2558
sg15
(lp2559
sg17
(lp2560
sg19
(lp2561
sg21
I0
sba(iArchitecture
Entity
p2562
(dp2563
g11
(lp2564
sg13
S'android.media.MediaDrmResetException'
p2565
sg15
(lp2566
sg17
(lp2567
sg19
(lp2568
sg21
I0
sba(iArchitecture
Entity
p2569
(dp2570
g11
(lp2571
sg13
S'android.media.MediaScannerClient'
p2572
sg15
(lp2573
sg17
(lp2574
sg19
(lp2575
sg21
I0
sba(iArchitecture
Entity
p2576
(dp2577
g11
(lp2578
sg13
S'android.media.NotProvisionedException'
p2579
sg15
(lp2580
sg17
(lp2581
sg19
(lp2582
sg21
I0
sba(iArchitecture
Entity
p2583
(dp2584
g11
(lp2585
sg13
S'android.media.ResourceBusyException'
p2586
sg15
(lp2587
sg17
(lp2588
sg19
(lp2589
sg21
I0
sba(iArchitecture
Entity
p2590
(dp2591
g11
(lp2592
sg13
S'android.media.SubtitleData'
p2593
sg15
(lp2594
sg17
(lp2595
sg19
(lp2596
sg21
I0
sba(iArchitecture
Entity
p2597
(dp2598
g11
(lp2599
sg13
S'android.media.UnsupportedSchemeException'
p2600
sg15
(lp2601
sg17
(lp2602
sg19
(lp2603
sg21
I0
sba(iArchitecture
Entity
p2604
(dp2605
g11
(lp2606
sg13
S'android.net.ParseException'
p2607
sg15
(lp2608
sg17
(lp2609
sg19
(lp2610
sg21
I0
sba(iArchitecture
Entity
p2611
(dp2612
g11
(lp2613
sg13
S'android.net.netlink.StructNlMsgErr'
p2614
sg15
(lp2615
sg17
(lp2616
sg19
(lp2617
sg21
I0
sba(iArchitecture
Entity
p2618
(dp2619
g11
(lp2620
sg13
S'android.net.wifi.p2p.WifiP2pGroup'
p2621
sg15
(lp2622
sg17
(lp2623
sg19
(lp2624
sg21
I0
sba(iArchitecture
Entity
p2625
(dp2626
g11
(lp2627
sg13
S'android.net.wifi.p2p.WifiP2pGroup$1'
p2628
sg15
(lp2629
sg17
(lp2630
sg19
(lp2631
sg21
I0
sba(iArchitecture
Entity
p2632
(dp2633
g11
(lp2634
sg13
S'android.nfc.FormatException'
p2635
sg15
(lp2636
sg17
(lp2637
sg19
(lp2638
sg21
I0
sba(iArchitecture
Entity
p2639
(dp2640
g11
(lp2641
sg13
S'android.nfc.TagLostException'
p2642
sg15
(lp2643
sg17
(lp2644
sg19
(lp2645
sg21
I0
sba(iArchitecture
Entity
p2646
(dp2647
g11
(lp2648
sg13
S'android.opengl.GLWallpaperService'
p2649
sg15
(lp2650
sg17
(lp2651
sg19
(lp2652
sg21
I0
sba(iArchitecture
Entity
p2653
(dp2654
g11
(lp2655
sg13
S'android.os.AsyncResult'
p2656
sg15
(lp2657
sg17
(lp2658
sg19
(lp2659
sg21
I0
sba(iArchitecture
Entity
p2660
(dp2661
g11
(lp2662
sg13
S'android.os.BadParcelableException'
p2663
sg15
(lp2664
sg17
(lp2665
sg19
(lp2666
sg21
I0
sba(iArchitecture
Entity
p2667
(dp2668
g11
(lp2669
sg13
S'android.os.BatteryManagerInternal'
p2670
sg15
(lp2671
sg17
(lp2672
sg19
(lp2673
sg21
I0
sba(iArchitecture
Entity
p2674
(dp2675
g11
(lp2676
sg13
S'android.os.BatteryProperty'
p2677
sg15
(lp2678
sg17
(lp2679
sg19
(lp2680
sg21
I0
sba(iArchitecture
Entity
p2681
(dp2682
g11
(lp2683
sg13
S'android.os.BatteryProperty$1'
p2684
sg15
(lp2685
sg17
(lp2686
sg19
(lp2687
sg21
I0
sba(iArchitecture
Entity
p2688
(dp2689
g11
(lp2690
sg13
S'android.os.DeadObjectException'
p2691
sg15
(lp2692
sg17
(lp2693
sg19
(lp2694
sg21
I0
sba(iArchitecture
Entity
p2695
(dp2696
g11
(lp2697
sg13
S'android.os.FactoryTest'
p2698
sg15
(lp2699
sg17
(lp2700
sg19
(lp2701
sg21
I0
sba(iArchitecture
Entity
p2702
(dp2703
g11
(lp2704
sg13
S'android.os.IInterface'
p2705
sg15
(lp2706
sg17
(lp2707
sg19
(lp2708
sg21
I0
sba(iArchitecture
Entity
p2709
(dp2710
g11
(lp2711
sg13
S'android.os.NetworkOnMainThreadException'
p2712
sg15
(lp2713
sg17
(lp2714
sg19
(lp2715
sg21
I0
sba(iArchitecture
Entity
p2716
(dp2717
g11
(lp2718
sg13
S'android.os.OperationCanceledException'
p2719
sg15
(lp2720
sg17
(lp2721
sg19
(lp2722
sg21
I0
sba(iArchitecture
Entity
p2723
(dp2724
g11
(lp2725
sg13
S'android.os.ParcelFormatException'
p2726
sg15
(lp2727
sg17
(lp2728
sg19
(lp2729
sg21
I0
sba(iArchitecture
Entity
p2730
(dp2731
g11
(lp2732
sg13
S'android.os.ParcelableParcel'
p2733
sg15
(lp2734
sg17
(lp2735
sg19
(lp2736
sg21
I0
sba(iArchitecture
Entity
p2737
(dp2738
g11
(lp2739
sg13
S'android.os.ParcelableParcel$1'
p2740
sg15
(lp2741
sg17
(lp2742
sg19
(lp2743
sg21
I0
sba(iArchitecture
Entity
p2744
(dp2745
g11
(lp2746
sg13
S'android.os.PooledStringReader'
p2747
sg15
(lp2748
sg17
(lp2749
sg19
(lp2750
sg21
I0
sba(iArchitecture
Entity
p2751
(dp2752
g11
(lp2753
sg13
S'android.os.PooledStringWriter'
p2754
sg15
(lp2755
sg17
(lp2756
sg19
(lp2757
sg21
I0
sba(iArchitecture
Entity
p2758
(dp2759
g11
(lp2760
sg13
S'android.os.RemoteException'
p2761
sg15
(lp2762
sg17
(lp2763
sg19
(lp2764
sg21
I0
sba(iArchitecture
Entity
p2765
(dp2766
g11
(lp2767
sg13
S'android.os.RemoteMailException'
p2768
sg15
(lp2769
sg17
(lp2770
sg19
(lp2771
sg21
I0
sba(iArchitecture
Entity
p2772
(dp2773
g11
(lp2774
sg13
S'android.os.ResultReceiver'
p2775
sg15
(lp2776
sg17
(lp2777
sg19
(lp2778
sg21
I0
sba(iArchitecture
Entity
p2779
(dp2780
g11
(lp2781
sg13
S'android.os.ResultReceiver$1'
p2782
sg15
(lp2783
sg17
(lp2784
sg19
(lp2785
sg21
I0
sba(iArchitecture
Entity
p2786
(dp2787
g11
(lp2788
sg13
S'android.os.ResultReceiver$MyResultReceiver'
p2789
sg15
(lp2790
sg17
(lp2791
sg19
(lp2792
sg21
I0
sba(iArchitecture
Entity
p2793
(dp2794
g11
(lp2795
sg13
S'android.os.ResultReceiver$MyRunnable'
p2796
sg15
(lp2797
sg17
(lp2798
sg19
(lp2799
sg21
I0
sba(iArchitecture
Entity
p2800
(dp2801
g11
(lp2802
sg13
S'android.preference.CheckBoxPreference'
p2803
sg15
(lp2804
sg17
(lp2805
sg19
(lp2806
sg21
I0
sba(iArchitecture
Entity
p2807
(dp2808
g11
(lp2809
sg13
S'android.preference.DialogPreference'
p2810
sg15
(lp2811
sg17
(lp2812
sg19
(lp2813
sg21
I0
sba(iArchitecture
Entity
p2814
(dp2815
g11
(lp2816
sg13
S'android.preference.DialogPreference$SavedState'
p2817
sg15
(lp2818
sg17
(lp2819
sg19
(lp2820
sg21
I0
sba(iArchitecture
Entity
p2821
(dp2822
g11
(lp2823
sg13
S'android.preference.DialogPreference$SavedState$1'
p2824
sg15
(lp2825
sg17
(lp2826
sg19
(lp2827
sg21
I0
sba(iArchitecture
Entity
p2828
(dp2829
g11
(lp2830
sg13
S'android.preference.EditTextPreference'
p2831
sg15
(lp2832
sg17
(lp2833
sg19
(lp2834
sg21
I0
sba(iArchitecture
Entity
p2835
(dp2836
g11
(lp2837
sg13
S'android.preference.EditTextPreference$SavedState'
p2838
sg15
(lp2839
sg17
(lp2840
sg19
(lp2841
sg21
I0
sba(iArchitecture
Entity
p2842
(dp2843
g11
(lp2844
sg13
S'android.preference.EditTextPreference$SavedState$1'
p2845
sg15
(lp2846
sg17
(lp2847
sg19
(lp2848
sg21
I0
sba(iArchitecture
Entity
p2849
(dp2850
g11
(lp2851
sg13
S'android.preference.SeekBarDialogPreference'
p2852
sg15
(lp2853
sg17
(lp2854
sg19
(lp2855
sg21
I0
sba(iArchitecture
Entity
p2856
(dp2857
g11
(lp2858
sg13
S'android.preference.TwoStatePreference'
p2859
sg15
(lp2860
sg17
(lp2861
sg19
(lp2862
sg21
I0
sba(iArchitecture
Entity
p2863
(dp2864
g11
(lp2865
sg13
S'android.preference.TwoStatePreference$SavedState'
p2866
sg15
(lp2867
sg17
(lp2868
sg19
(lp2869
sg21
I0
sba(iArchitecture
Entity
p2870
(dp2871
g11
(lp2872
sg13
S'android.preference.TwoStatePreference$SavedState$1'
p2873
sg15
(lp2874
sg17
(lp2875
sg19
(lp2876
sg21
I0
sba(iArchitecture
Entity
p2877
(dp2878
g11
(lp2879
sg13
S'android.preference.VolumePreference'
p2880
sg15
(lp2881
sg17
(lp2882
sg19
(lp2883
sg21
I0
sba(iArchitecture
Entity
p2884
(dp2885
g11
(lp2886
sg13
S'android.preference.VolumePreference$SavedState'
p2887
sg15
(lp2888
sg17
(lp2889
sg19
(lp2890
sg21
I0
sba(iArchitecture
Entity
p2891
(dp2892
g11
(lp2893
sg13
S'android.preference.VolumePreference$SavedState$1'
p2894
sg15
(lp2895
sg17
(lp2896
sg19
(lp2897
sg21
I0
sba(iArchitecture
Entity
p2898
(dp2899
g11
(lp2900
sg13
S'android.preference.VolumePreference$VolumeStore'
p2901
sg15
(lp2902
sg17
(lp2903
sg19
(lp2904
sg21
I0
sba(iArchitecture
Entity
p2905
(dp2906
g11
(lp2907
sg13
S'android.print.PrintJobId'
p2908
sg15
(lp2909
sg17
(lp2910
sg19
(lp2911
sg21
I0
sba(iArchitecture
Entity
p2912
(dp2913
g11
(lp2914
sg13
S'android.print.PrintJobId$1'
p2915
sg15
(lp2916
sg17
(lp2917
sg19
(lp2918
sg21
I0
sba(iArchitecture
Entity
p2919
(dp2920
g11
(lp2921
sg13
S'android.print.PrinterId'
p2922
sg15
(lp2923
sg17
(lp2924
sg19
(lp2925
sg21
I0
sba(iArchitecture
Entity
p2926
(dp2927
g11
(lp2928
sg13
S'android.print.PrinterId$1'
p2929
sg15
(lp2930
sg17
(lp2931
sg19
(lp2932
sg21
I0
sba(iArchitecture
Entity
p2933
(dp2934
g11
(lp2935
sg13
S'android.printservice.PrintDocument'
p2936
sg15
(lp2937
sg17
(lp2938
sg19
(lp2939
sg21
I0
sba(iArchitecture
Entity
p2940
(dp2941
g11
(lp2942
sg13
S'android.provider.BaseColumns'
p2943
sg15
(lp2944
sg17
(lp2945
sg19
(lp2946
sg21
I0
sba(iArchitecture
Entity
p2947
(dp2948
g11
(lp2949
sg13
S'android.provider.OpenableColumns'
p2950
sg15
(lp2951
sg17
(lp2952
sg19
(lp2953
sg21
I0
sba(iArchitecture
Entity
p2954
(dp2955
g11
(lp2956
sg13
S'android.renderscript.RSDriverException'
p2957
sg15
(lp2958
sg17
(lp2959
sg19
(lp2960
sg21
I0
sba(iArchitecture
Entity
p2961
(dp2962
g11
(lp2963
sg13
S'android.renderscript.RSIllegalArgumentException'
p2964
sg15
(lp2965
sg17
(lp2966
sg19
(lp2967
sg21
I0
sba(iArchitecture
Entity
p2968
(dp2969
g11
(lp2970
sg13
S'android.renderscript.RSInvalidStateException'
p2971
sg15
(lp2972
sg17
(lp2973
sg19
(lp2974
sg21
I0
sba(iArchitecture
Entity
p2975
(dp2976
g11
(lp2977
sg13
S'android.renderscript.RSRuntimeException'
p2978
sg15
(lp2979
sg17
(lp2980
sg19
(lp2981
sg21
I0
sba(iArchitecture
Entity
p2982
(dp2983
g11
(lp2984
sg13
S'android.renderscript.RenderScriptCacheDir'
p2985
sg15
(lp2986
sg17
(lp2987
sg19
(lp2988
sg21
I0
sba(iArchitecture
Entity
p2989
(dp2990
g11
(lp2991
sg13
S'android.renderscript.ScriptIntrinsic'
p2992
sg15
(lp2993
sg17
(lp2994
sg19
(lp2995
sg21
I0
sba(iArchitecture
Entity
p2996
(dp2997
g11
(lp2998
sg13
S'android.sax.ElementListener'
p2999
sg15
(lp3000
sg17
(lp3001
sg19
(lp3002
sg21
I0
sba(iArchitecture
Entity
p3003
(dp3004
g11
(lp3005
sg13
S'android.sax.EndElementListener'
p3006
sg15
(lp3007
sg17
(lp3008
sg19
(lp3009
sg21
I0
sba(iArchitecture
Entity
p3010
(dp3011
g11
(lp3012
sg13
S'android.sax.EndTextElementListener'
p3013
sg15
(lp3014
sg17
(lp3015
sg19
(lp3016
sg21
I0
sba(iArchitecture
Entity
p3017
(dp3018
g11
(lp3019
sg13
S'android.sax.StartElementListener'
p3020
sg15
(lp3021
sg17
(lp3022
sg19
(lp3023
sg21
I0
sba(iArchitecture
Entity
p3024
(dp3025
g11
(lp3026
sg13
S'android.sax.TextElementListener'
p3027
sg15
(lp3028
sg17
(lp3029
sg19
(lp3030
sg21
I0
sba(iArchitecture
Entity
p3031
(dp3032
g11
(lp3033
sg13
S'android.security.KeyChainAliasCallback'
p3034
sg15
(lp3035
sg17
(lp3036
sg19
(lp3037
sg21
I0
sba(iArchitecture
Entity
p3038
(dp3039
g11
(lp3040
sg13
S'android.security.keystore.AndroidKeyStoreECPrivateKey'
p3041
sg15
(lp3042
sg17
(lp3043
sg19
(lp3044
sg21
I0
sba(iArchitecture
Entity
p3045
(dp3046
g11
(lp3047
sg13
S'android.security.keystore.AndroidKeyStoreECPublicKey'
p3048
sg15
(lp3049
sg17
(lp3050
sg19
(lp3051
sg21
I0
sba(iArchitecture
Entity
p3052
(dp3053
g11
(lp3054
sg13
S'android.security.keystore.AndroidKeyStorePrivateKey'
p3055
sg15
(lp3056
sg17
(lp3057
sg19
(lp3058
sg21
I0
sba(iArchitecture
Entity
p3059
(dp3060
g11
(lp3061
sg13
S'android.security.keystore.AndroidKeyStorePublicKey'
p3062
sg15
(lp3063
sg17
(lp3064
sg19
(lp3065
sg21
I0
sba(iArchitecture
Entity
p3066
(dp3067
g11
(lp3068
sg13
S'android.security.keystore.AndroidKeyStoreSecretKey'
p3069
sg15
(lp3070
sg17
(lp3071
sg19
(lp3072
sg21
I0
sba(iArchitecture
Entity
p3073
(dp3074
g11
(lp3075
sg13
S'android.security.keystore.KeyStoreCryptoOperation'
p3076
sg15
(lp3077
sg17
(lp3078
sg19
(lp3079
sg21
I0
sba(iArchitecture
Entity
p3080
(dp3081
g11
(lp3082
sg13
S'android.security.keystore.Utils'
p3083
sg15
(lp3084
sg17
(lp3085
sg19
(lp3086
sg21
I0
sba(iArchitecture
Entity
p3087
(dp3088
g11
(lp3089
sg13
S'android.telecom.CallbackRecord'
p3090
sg15
(lp3091
sg17
(lp3092
sg19
(lp3093
sg21
I0
sba(iArchitecture
Entity
p3094
(dp3095
g11
(lp3096
sg13
S'android.telecom.Conferenceable'
p3097
sg15
(lp3098
sg17
(lp3099
sg19
(lp3100
sg21
I0
sba(iArchitecture
Entity
p3101
(dp3102
g11
(lp3103
sg13
S'android.telecom.Response'
p3104
sg15
(lp3105
sg17
(lp3106
sg19
(lp3107
sg21
I0
sba(iArchitecture
Entity
p3108
(dp3109
g11
(lp3110
sg13
S'android.test.FlakyTest'
p3111
sg15
(lp3112
sg17
(lp3113
sg19
(lp3114
sg21
I0
sba(iArchitecture
Entity
p3115
(dp3116
g11
(lp3117
sg13
S'android.test.RepetitiveTest'
p3118
sg15
(lp3119
sg17
(lp3120
sg19
(lp3121
sg21
I0
sba(iArchitecture
Entity
p3122
(dp3123
g11
(lp3124
sg13
S'android.test.UiThreadTest'
p3125
sg15
(lp3126
sg17
(lp3127
sg19
(lp3128
sg21
I0
sba(iArchitecture
Entity
p3129
(dp3130
g11
(lp3131
sg13
S'android.test.suitebuilder.annotation.LargeTest'
p3132
sg15
(lp3133
sg17
(lp3134
sg19
(lp3135
sg21
I0
sba(iArchitecture
Entity
p3136
(dp3137
g11
(lp3138
sg13
S'android.test.suitebuilder.annotation.MediumTest'
p3139
sg15
(lp3140
sg17
(lp3141
sg19
(lp3142
sg21
I0
sba(iArchitecture
Entity
p3143
(dp3144
g11
(lp3145
sg13
S'android.test.suitebuilder.annotation.SmallTest'
p3146
sg15
(lp3147
sg17
(lp3148
sg19
(lp3149
sg21
I0
sba(iArchitecture
Entity
p3150
(dp3151
g11
(lp3152
sg13
S'android.test.suitebuilder.annotation.Smoke'
p3153
sg15
(lp3154
sg17
(lp3155
sg19
(lp3156
sg21
I0
sba(iArchitecture
Entity
p3157
(dp3158
g11
(lp3159
sg13
S'android.test.suitebuilder.annotation.Suppress'
p3160
sg15
(lp3161
sg17
(lp3162
sg19
(lp3163
sg21
I0
sba(iArchitecture
Entity
p3164
(dp3165
g11
(lp3166
sg13
S'android.text.Annotation'
p3167
sg15
(lp3168
sg17
(lp3169
sg19
(lp3170
sg21
I0
sba(iArchitecture
Entity
p3171
(dp3172
g11
(lp3173
sg13
S'android.text.ClipboardManager'
p3174
sg15
(lp3175
sg17
(lp3176
sg19
(lp3177
sg21
I0
sba(iArchitecture
Entity
p3178
(dp3179
g11
(lp3180
sg13
S'android.text.GetChars'
p3181
sg15
(lp3182
sg17
(lp3183
sg19
(lp3184
sg21
I0
sba(iArchitecture
Entity
p3185
(dp3186
g11
(lp3187
sg13
S'android.text.NoCopySpan'
p3188
sg15
(lp3189
sg17
(lp3190
sg19
(lp3191
sg21
I0
sba(iArchitecture
Entity
p3192
(dp3193
g11
(lp3194
sg13
S'android.text.NoCopySpan$Concrete'
p3195
sg15
(lp3196
sg17
(lp3197
sg19
(lp3198
sg21
I0
sba(iArchitecture
Entity
p3199
(dp3200
g11
(lp3201
sg13
S'android.text.ParcelableSpan'
p3202
sg15
(lp3203
sg17
(lp3204
sg19
(lp3205
sg21
I0
sba(iArchitecture
Entity
p3206
(dp3207
g11
(lp3208
sg13
S'android.text.Spannable'
p3209
sg15
(lp3210
sg17
(lp3211
sg19
(lp3212
sg21
I0
sba(iArchitecture
Entity
p3213
(dp3214
g11
(lp3215
sg13
S'android.text.Spannable$Factory'
p3216
sg15
(lp3217
sg17
(lp3218
sg19
(lp3219
sg21
I0
sba(iArchitecture
Entity
p3220
(dp3221
g11
(lp3222
sg13
S'android.text.SpannableString'
p3223
sg15
(lp3224
sg17
(lp3225
sg19
(lp3226
sg21
I0
sba(iArchitecture
Entity
p3227
(dp3228
g11
(lp3229
sg13
S'android.text.TextDirectionHeuristic'
p3230
sg15
(lp3231
sg17
(lp3232
sg19
(lp3233
sg21
I0
sba(iArchitecture
Entity
p3234
(dp3235
g11
(lp3236
sg13
S'android.text.method.CharacterPickerDialog'
p3237
sg15
(lp3238
sg17
(lp3239
sg19
(lp3240
sg21
I0
sba(iArchitecture
Entity
p3241
(dp3242
g11
(lp3243
sg13
S'android.text.method.CharacterPickerDialog$OptionsAdapter'
p3244
sg15
(lp3245
sg17
(lp3246
sg19
(lp3247
sg21
I0
sba(iArchitecture
Entity
p3248
(dp3249
g11
(lp3250
sg13
S'android.text.method.HideReturnsTransformationMethod'
p3251
sg15
(lp3252
sg17
(lp3253
sg19
(lp3254
sg21
I0
sba(iArchitecture
Entity
p3255
(dp3256
g11
(lp3257
sg13
S'android.text.method.SingleLineTransformationMethod'
p3258
sg15
(lp3259
sg17
(lp3260
sg19
(lp3261
sg21
I0
sba(iArchitecture
Entity
p3262
(dp3263
g11
(lp3264
sg13
S'android.text.method.TransformationMethod'
p3265
sg15
(lp3266
sg17
(lp3267
sg19
(lp3268
sg21
I0
sba(iArchitecture
Entity
p3269
(dp3270
g11
(lp3271
sg13
S'android.text.method.TransformationMethod2'
p3272
sg15
(lp3273
sg17
(lp3274
sg19
(lp3275
sg21
I0
sba(iArchitecture
Entity
p3276
(dp3277
g11
(lp3278
sg13
S'android.text.style.AbsoluteSizeSpan'
p3279
sg15
(lp3280
sg17
(lp3281
sg19
(lp3282
sg21
I0
sba(iArchitecture
Entity
p3283
(dp3284
g11
(lp3285
sg13
S'android.text.style.AlignmentSpan'
p3286
sg15
(lp3287
sg17
(lp3288
sg19
(lp3289
sg21
I0
sba(iArchitecture
Entity
p3290
(dp3291
g11
(lp3292
sg13
S'android.text.style.AlignmentSpan$Standard'
p3293
sg15
(lp3294
sg17
(lp3295
sg19
(lp3296
sg21
I0
sba(iArchitecture
Entity
p3297
(dp3298
g11
(lp3299
sg13
S'android.text.style.BackgroundColorSpan'
p3300
sg15
(lp3301
sg17
(lp3302
sg19
(lp3303
sg21
I0
sba(iArchitecture
Entity
p3304
(dp3305
g11
(lp3306
sg13
S'android.text.style.ClickableSpan'
p3307
sg15
(lp3308
sg17
(lp3309
sg19
(lp3310
sg21
I0
sba(iArchitecture
Entity
p3311
(dp3312
g11
(lp3313
sg13
S'android.text.style.ForegroundColorSpan'
p3314
sg15
(lp3315
sg17
(lp3316
sg19
(lp3317
sg21
I0
sba(iArchitecture
Entity
p3318
(dp3319
g11
(lp3320
sg13
S'android.text.style.LineBackgroundSpan'
p3321
sg15
(lp3322
sg17
(lp3323
sg19
(lp3324
sg21
I0
sba(iArchitecture
Entity
p3325
(dp3326
g11
(lp3327
sg13
S'android.text.style.LineHeightSpan'
p3328
sg15
(lp3329
sg17
(lp3330
sg19
(lp3331
sg21
I0
sba(iArchitecture
Entity
p3332
(dp3333
g11
(lp3334
sg13
S'android.text.style.LineHeightSpan$WithDensity'
p3335
sg15
(lp3336
sg17
(lp3337
sg19
(lp3338
sg21
I0
sba(iArchitecture
Entity
p3339
(dp3340
g11
(lp3341
sg13
S'android.text.style.MaskFilterSpan'
p3342
sg15
(lp3343
sg17
(lp3344
sg19
(lp3345
sg21
I0
sba(iArchitecture
Entity
p3346
(dp3347
g11
(lp3348
sg13
S'android.text.style.ParagraphStyle'
p3349
sg15
(lp3350
sg17
(lp3351
sg19
(lp3352
sg21
I0
sba(iArchitecture
Entity
p3353
(dp3354
g11
(lp3355
sg13
S'android.text.style.QuoteSpan'
p3356
sg15
(lp3357
sg17
(lp3358
sg19
(lp3359
sg21
I0
sba(iArchitecture
Entity
p3360
(dp3361
g11
(lp3362
sg13
S'android.text.style.RelativeSizeSpan'
p3363
sg15
(lp3364
sg17
(lp3365
sg19
(lp3366
sg21
I0
sba(iArchitecture
Entity
p3367
(dp3368
g11
(lp3369
sg13
S'android.text.style.ReplacementSpan'
p3370
sg15
(lp3371
sg17
(lp3372
sg19
(lp3373
sg21
I0
sba(iArchitecture
Entity
p3374
(dp3375
g11
(lp3376
sg13
S'android.text.style.ScaleXSpan'
p3377
sg15
(lp3378
sg17
(lp3379
sg19
(lp3380
sg21
I0
sba(iArchitecture
Entity
p3381
(dp3382
g11
(lp3383
sg13
S'android.text.style.SpellCheckSpan'
p3384
sg15
(lp3385
sg17
(lp3386
sg19
(lp3387
sg21
I0
sba(iArchitecture
Entity
p3388
(dp3389
g11
(lp3390
sg13
S'android.text.style.StrikethroughSpan'
p3391
sg15
(lp3392
sg17
(lp3393
sg19
(lp3394
sg21
I0
sba(iArchitecture
Entity
p3395
(dp3396
g11
(lp3397
sg13
S'android.text.style.StyleSpan'
p3398
sg15
(lp3399
sg17
(lp3400
sg19
(lp3401
sg21
I0
sba(iArchitecture
Entity
p3402
(dp3403
g11
(lp3404
sg13
S'android.text.style.SubscriptSpan'
p3405
sg15
(lp3406
sg17
(lp3407
sg19
(lp3408
sg21
I0
sba(iArchitecture
Entity
p3409
(dp3410
g11
(lp3411
sg13
S'android.text.style.SuggestionRangeSpan'
p3412
sg15
(lp3413
sg17
(lp3414
sg19
(lp3415
sg21
I0
sba(iArchitecture
Entity
p3416
(dp3417
g11
(lp3418
sg13
S'android.text.style.SuperscriptSpan'
p3419
sg15
(lp3420
sg17
(lp3421
sg19
(lp3422
sg21
I0
sba(iArchitecture
Entity
p3423
(dp3424
g11
(lp3425
sg13
S'android.text.style.TypefaceSpan'
p3426
sg15
(lp3427
sg17
(lp3428
sg19
(lp3429
sg21
I0
sba(iArchitecture
Entity
p3430
(dp3431
g11
(lp3432
sg13
S'android.text.style.UnderlineSpan'
p3433
sg15
(lp3434
sg17
(lp3435
sg19
(lp3436
sg21
I0
sba(iArchitecture
Entity
p3437
(dp3438
g11
(lp3439
sg13
S'android.text.style.UpdateAppearance'
p3440
sg15
(lp3441
sg17
(lp3442
sg19
(lp3443
sg21
I0
sba(iArchitecture
Entity
p3444
(dp3445
g11
(lp3446
sg13
S'android.text.style.UpdateLayout'
p3447
sg15
(lp3448
sg17
(lp3449
sg19
(lp3450
sg21
I0
sba(iArchitecture
Entity
p3451
(dp3452
g11
(lp3453
sg13
S'android.text.style.WrapTogetherSpan'
p3454
sg15
(lp3455
sg17
(lp3456
sg19
(lp3457
sg21
I0
sba(iArchitecture
Entity
p3458
(dp3459
g11
(lp3460
sg13
S'android.util.AndroidException'
p3461
sg15
(lp3462
sg17
(lp3463
sg19
(lp3464
sg21
I0
sba(iArchitecture
Entity
p3465
(dp3466
g11
(lp3467
sg13
S'android.util.AndroidRuntimeException'
p3468
sg15
(lp3469
sg17
(lp3470
sg19
(lp3471
sg21
I0
sba(iArchitecture
Entity
p3472
(dp3473
g11
(lp3474
sg13
S'android.util.Base64DataException'
p3475
sg15
(lp3476
sg17
(lp3477
sg19
(lp3478
sg21
I0
sba(iArchitecture
Entity
p3479
(dp3480
g11
(lp3481
sg13
S'android.util.Config'
p3482
sg15
(lp3483
sg17
(lp3484
sg19
(lp3485
sg21
I0
sba(iArchitecture
Entity
p3486
(dp3487
g11
(lp3488
sg13
S'android.util.ContainerHelpers'
p3489
sg15
(lp3490
sg17
(lp3491
sg19
(lp3492
sg21
I0
sba(iArchitecture
Entity
p3493
(dp3494
g11
(lp3495
sg13
S'android.util.EventLogTags'
p3496
sg15
(lp3497
sg17
(lp3498
sg19
(lp3499
sg21
I0
sba(iArchitecture
Entity
p3500
(dp3501
g11
(lp3502
sg13
S'android.util.EventLogTags$Description'
p3503
sg15
(lp3504
sg17
(lp3505
sg19
(lp3506
sg21
I0
sba(iArchitecture
Entity
p3507
(dp3508
g11
(lp3509
sg13
S'android.util.ExceptionUtils'
p3510
sg15
(lp3511
sg17
(lp3512
sg19
(lp3513
sg21
I0
sba(iArchitecture
Entity
p3514
(dp3515
g11
(lp3516
sg13
S'android.util.FloatProperty'
p3517
sg15
(lp3518
sg17
(lp3519
sg19
(lp3520
sg21
I0
sba(iArchitecture
Entity
p3521
(dp3522
g11
(lp3523
sg13
S'android.util.IntProperty'
p3524
sg15
(lp3525
sg17
(lp3526
sg19
(lp3527
sg21
I0
sba(iArchitecture
Entity
p3528
(dp3529
g11
(lp3530
sg13
S'android.util.JsonScope'
p3531
sg15
(lp3532
sg17
(lp3533
sg19
(lp3534
sg21
I0
sba(iArchitecture
Entity
p3535
(dp3536
g11
(lp3537
sg13
S'android.util.LayoutDirection'
p3538
sg15
(lp3539
sg17
(lp3540
sg19
(lp3541
sg21
I0
sba(iArchitecture
Entity
p3542
(dp3543
g11
(lp3544
sg13
S'android.util.MalformedJsonException'
p3545
sg15
(lp3546
sg17
(lp3547
sg19
(lp3548
sg21
I0
sba(iArchitecture
Entity
p3549
(dp3550
g11
(lp3551
sg13
S'android.util.NoSuchPropertyException'
p3552
sg15
(lp3553
sg17
(lp3554
sg19
(lp3555
sg21
I0
sba(iArchitecture
Entity
p3556
(dp3557
g11
(lp3558
sg13
S'android.util.Pair'
p3559
sg15
(lp3560
sg17
(lp3561
sg19
(lp3562
sg21
I0
sba(iArchitecture
Entity
p3563
(dp3564
g11
(lp3565
sg13
S'android.util.PrefixPrinter'
p3566
sg15
(lp3567
sg17
(lp3568
sg19
(lp3569
sg21
I0
sba(iArchitecture
Entity
p3570
(dp3571
g11
(lp3572
sg13
S'android.util.Printer'
p3573
sg15
(lp3574
sg17
(lp3575
sg19
(lp3576
sg21
I0
sba(iArchitecture
Entity
p3577
(dp3578
g11
(lp3579
sg13
S'android.util.Singleton'
p3580
sg15
(lp3581
sg17
(lp3582
sg19
(lp3583
sg21
I0
sba(iArchitecture
Entity
p3584
(dp3585
g11
(lp3586
sg13
S'android.util.SuperNotCalledException'
p3587
sg15
(lp3588
sg17
(lp3589
sg19
(lp3590
sg21
I0
sba(iArchitecture
Entity
p3591
(dp3592
g11
(lp3593
sg13
S'android.util.TimeFormatException'
p3594
sg15
(lp3595
sg17
(lp3596
sg19
(lp3597
sg21
I0
sba(iArchitecture
Entity
p3598
(dp3599
g11
(lp3600
sg13
S'android.view.ActionProvider'
p3601
sg15
(lp3602
sg17
(lp3603
sg19
(lp3604
sg21
I0
sba(iArchitecture
Entity
p3605
(dp3606
g11
(lp3607
sg13
S'android.view.ActionProvider$SubUiVisibilityListener'
p3608
sg15
(lp3609
sg17
(lp3610
sg19
(lp3611
sg21
I0
sba(iArchitecture
Entity
p3612
(dp3613
g11
(lp3614
sg13
S'android.view.ActionProvider$VisibilityListener'
p3615
sg15
(lp3616
sg17
(lp3617
sg19
(lp3618
sg21
I0
sba(iArchitecture
Entity
p3619
(dp3620
g11
(lp3621
sg13
S'android.view.Display'
p3622
sg15
(lp3623
sg17
(lp3624
sg19
(lp3625
sg21
I0
sba(iArchitecture
Entity
p3626
(dp3627
g11
(lp3628
sg13
S'android.view.Display$Mode'
p3629
sg15
(lp3630
sg17
(lp3631
sg19
(lp3632
sg21
I0
sba(iArchitecture
Entity
p3633
(dp3634
g11
(lp3635
sg13
S'android.view.Display$Mode$1'
p3636
sg15
(lp3637
sg17
(lp3638
sg19
(lp3639
sg21
I0
sba(iArchitecture
Entity
p3640
(dp3641
g11
(lp3642
sg13
S'android.view.DisplayInfo'
p3643
sg15
(lp3644
sg17
(lp3645
sg19
(lp3646
sg21
I0
sba(iArchitecture
Entity
p3647
(dp3648
g11
(lp3649
sg13
S'android.view.DisplayInfo$1'
p3650
sg15
(lp3651
sg17
(lp3652
sg19
(lp3653
sg21
I0
sba(iArchitecture
Entity
p3654
(dp3655
g11
(lp3656
sg13
S'android.view.FallbackEventHandler'
p3657
sg15
(lp3658
sg17
(lp3659
sg19
(lp3660
sg21
I0
sba(iArchitecture
Entity
p3661
(dp3662
g11
(lp3663
sg13
S'android.view.InflateException'
p3664
sg15
(lp3665
sg17
(lp3666
sg19
(lp3667
sg21
I0
sba(iArchitecture
Entity
p3668
(dp3669
g11
(lp3670
sg13
S'android.view.Menu'
p3671
sg15
(lp3672
sg17
(lp3673
sg19
(lp3674
sg21
I0
sba(iArchitecture
Entity
p3675
(dp3676
g11
(lp3677
sg13
S'android.view.MenuInflater'
p3678
sg15
(lp3679
sg17
(lp3680
sg19
(lp3681
sg21
I0
sba(iArchitecture
Entity
p3682
(dp3683
g11
(lp3684
sg13
S'android.view.MenuInflater$InflatedOnMenuItemClickListener'
p3685
sg15
(lp3686
sg17
(lp3687
sg19
(lp3688
sg21
I0
sba(iArchitecture
Entity
p3689
(dp3690
g11
(lp3691
sg13
S'android.view.MenuInflater$MenuState'
p3692
sg15
(lp3693
sg17
(lp3694
sg19
(lp3695
sg21
I0
sba(iArchitecture
Entity
p3696
(dp3697
g11
(lp3698
sg13
S'android.view.MenuItem'
p3699
sg15
(lp3700
sg17
(lp3701
sg19
(lp3702
sg21
I0
sba(iArchitecture
Entity
p3703
(dp3704
g11
(lp3705
sg13
S'android.view.MenuItem$OnActionExpandListener'
p3706
sg15
(lp3707
sg17
(lp3708
sg19
(lp3709
sg21
I0
sba(iArchitecture
Entity
p3710
(dp3711
g11
(lp3712
sg13
S'android.view.MenuItem$OnMenuItemClickListener'
p3713
sg15
(lp3714
sg17
(lp3715
sg19
(lp3716
sg21
I0
sba(iArchitecture
Entity
p3717
(dp3718
g11
(lp3719
sg13
S'android.view.RemotableViewMethod'
p3720
sg15
(lp3721
sg17
(lp3722
sg19
(lp3723
sg21
I0
sba(iArchitecture
Entity
p3724
(dp3725
g11
(lp3726
sg13
S'android.view.Surface'
p3727
sg15
(lp3728
sg17
(lp3729
sg19
(lp3730
sg21
I0
sba(iArchitecture
Entity
p3731
(dp3732
g11
(lp3733
sg13
S'android.view.Surface$1'
p3734
sg15
(lp3735
sg17
(lp3736
sg19
(lp3737
sg21
I0
sba(iArchitecture
Entity
p3738
(dp3739
g11
(lp3740
sg13
S'android.view.Surface$CompatibleCanvas'
p3741
sg15
(lp3742
sg17
(lp3743
sg19
(lp3744
sg21
I0
sba(iArchitecture
Entity
p3745
(dp3746
g11
(lp3747
sg13
S'android.view.Surface$HwuiContext'
p3748
sg15
(lp3749
sg17
(lp3750
sg19
(lp3751
sg21
I0
sba(iArchitecture
Entity
p3752
(dp3753
g11
(lp3754
sg13
S'android.view.Surface$OutOfResourcesException'
p3755
sg15
(lp3756
sg17
(lp3757
sg19
(lp3758
sg21
I0
sba(iArchitecture
Entity
p3759
(dp3760
g11
(lp3761
sg13
S'android.view.SurfaceControl'
p3762
sg15
(lp3763
sg17
(lp3764
sg19
(lp3765
sg21
I0
sba(iArchitecture
Entity
p3766
(dp3767
g11
(lp3768
sg13
S'android.view.SurfaceControl$PhysicalDisplayInfo'
p3769
sg15
(lp3770
sg17
(lp3771
sg19
(lp3772
sg21
I0
sba(iArchitecture
Entity
p3773
(dp3774
g11
(lp3775
sg13
S'android.view.SurfaceHolder'
p3776
sg15
(lp3777
sg17
(lp3778
sg19
(lp3779
sg21
I0
sba(iArchitecture
Entity
p3780
(dp3781
g11
(lp3782
sg13
S'android.view.SurfaceHolder$BadSurfaceTypeException'
p3783
sg15
(lp3784
sg17
(lp3785
sg19
(lp3786
sg21
I0
sba(iArchitecture
Entity
p3787
(dp3788
g11
(lp3789
sg13
S'android.view.SurfaceHolder$Callback'
p3790
sg15
(lp3791
sg17
(lp3792
sg19
(lp3793
sg21
I0
sba(iArchitecture
Entity
p3794
(dp3795
g11
(lp3796
sg13
S'android.view.SurfaceHolder$Callback2'
p3797
sg15
(lp3798
sg17
(lp3799
sg19
(lp3800
sg21
I0
sba(iArchitecture
Entity
p3801
(dp3802
g11
(lp3803
sg13
S'android.view.SurfaceSession'
p3804
sg15
(lp3805
sg17
(lp3806
sg19
(lp3807
sg21
I0
sba(iArchitecture
Entity
p3808
(dp3809
g11
(lp3810
sg13
S'android.view.SurfaceView'
p3811
sg15
(lp3812
sg17
(lp3813
sg19
(lp3814
sg21
I0
sba(iArchitecture
Entity
p3815
(dp3816
g11
(lp3817
sg13
S'android.view.SurfaceView$1'
p3818
sg15
(lp3819
sg17
(lp3820
sg19
(lp3821
sg21
I0
sba(iArchitecture
Entity
p3822
(dp3823
g11
(lp3824
sg13
S'android.view.SurfaceView$2'
p3825
sg15
(lp3826
sg17
(lp3827
sg19
(lp3828
sg21
I0
sba(iArchitecture
Entity
p3829
(dp3830
g11
(lp3831
sg13
S'android.view.SurfaceView$3'
p3832
sg15
(lp3833
sg17
(lp3834
sg19
(lp3835
sg21
I0
sba(iArchitecture
Entity
p3836
(dp3837
g11
(lp3838
sg13
S'android.view.SurfaceView$4'
p3839
sg15
(lp3840
sg17
(lp3841
sg19
(lp3842
sg21
I0
sba(iArchitecture
Entity
p3843
(dp3844
g11
(lp3845
sg13
S'android.view.SurfaceView$MyWindow'
p3846
sg15
(lp3847
sg17
(lp3848
sg19
(lp3849
sg21
I0
sba(iArchitecture
Entity
p3850
(dp3851
g11
(lp3852
sg13
S'android.view.animation.AccelerateDecelerateInterpolator'
p3853
sg15
(lp3854
sg17
(lp3855
sg19
(lp3856
sg21
I0
sba(iArchitecture
Entity
p3857
(dp3858
g11
(lp3859
sg13
S'android.view.animation.BaseInterpolator'
p3860
sg15
(lp3861
sg17
(lp3862
sg19
(lp3863
sg21
I0
sba(iArchitecture
Entity
p3864
(dp3865
g11
(lp3866
sg13
S'android.view.animation.BounceInterpolator'
p3867
sg15
(lp3868
sg17
(lp3869
sg19
(lp3870
sg21
I0
sba(iArchitecture
Entity
p3871
(dp3872
g11
(lp3873
sg13
S'android.view.animation.Interpolator'
p3874
sg15
(lp3875
sg17
(lp3876
sg19
(lp3877
sg21
I0
sba(iArchitecture
Entity
p3878
(dp3879
g11
(lp3880
sg13
S'android.view.animation.LinearInterpolator'
p3881
sg15
(lp3882
sg17
(lp3883
sg19
(lp3884
sg21
I0
sba(iArchitecture
Entity
p3885
(dp3886
g11
(lp3887
sg13
S'android.view.inputmethod.CompletionInfo'
p3888
sg15
(lp3889
sg17
(lp3890
sg19
(lp3891
sg21
I0
sba(iArchitecture
Entity
p3892
(dp3893
g11
(lp3894
sg13
S'android.view.inputmethod.CompletionInfo$1'
p3895
sg15
(lp3896
sg17
(lp3897
sg19
(lp3898
sg21
I0
sba(iArchitecture
Entity
p3899
(dp3900
g11
(lp3901
sg13
S'android.view.inputmethod.ExtractedTextRequest'
p3902
sg15
(lp3903
sg17
(lp3904
sg19
(lp3905
sg21
I0
sba(iArchitecture
Entity
p3906
(dp3907
g11
(lp3908
sg13
S'android.view.inputmethod.ExtractedTextRequest$1'
p3909
sg15
(lp3910
sg17
(lp3911
sg19
(lp3912
sg21
I0
sba(iArchitecture
Entity
p3913
(dp3914
g11
(lp3915
sg13
S'android.webkit.DownloadListener'
p3916
sg15
(lp3917
sg17
(lp3918
sg19
(lp3919
sg21
I0
sba(iArchitecture
Entity
p3920
(dp3921
g11
(lp3922
sg13
S'android.webkit.JavascriptInterface'
p3923
sg15
(lp3924
sg17
(lp3925
sg19
(lp3926
sg21
I0
sba(iArchitecture
Entity
p3927
(dp3928
g11
(lp3929
sg13
S'android.webkit.JsPromptResult'
p3930
sg15
(lp3931
sg17
(lp3932
sg19
(lp3933
sg21
I0
sba(iArchitecture
Entity
p3934
(dp3935
g11
(lp3936
sg13
S'android.webkit.JsResult'
p3937
sg15
(lp3938
sg17
(lp3939
sg19
(lp3940
sg21
I0
sba(iArchitecture
Entity
p3941
(dp3942
g11
(lp3943
sg13
S'android.webkit.JsResult$ResultReceiver'
p3944
sg15
(lp3945
sg17
(lp3946
sg19
(lp3947
sg21
I0
sba(iArchitecture
Entity
p3948
(dp3949
g11
(lp3950
sg13
S'android.webkit.SslErrorHandler'
p3951
sg15
(lp3952
sg17
(lp3953
sg19
(lp3954
sg21
I0
sba(iArchitecture
Entity
p3955
(dp3956
g11
(lp3957
sg13
S'android.webkit.ValueCallback'
p3958
sg15
(lp3959
sg17
(lp3960
sg19
(lp3961
sg21
I0
sba(iArchitecture
Entity
p3962
(dp3963
g11
(lp3964
sg13
S'android.widget.ActionMenuPresenter'
p3965
sg15
(lp3966
sg17
(lp3967
sg19
(lp3968
sg21
I0
sba(iArchitecture
Entity
p3969
(dp3970
g11
(lp3971
sg13
S'android.widget.ActionMenuPresenter$1'
p3972
sg15
(lp3973
sg17
(lp3974
sg19
(lp3975
sg21
I0
sba(iArchitecture
Entity
p3976
(dp3977
g11
(lp3978
sg13
S'android.widget.ActionMenuPresenter$2'
p3979
sg15
(lp3980
sg17
(lp3981
sg19
(lp3982
sg21
I0
sba(iArchitecture
Entity
p3983
(dp3984
g11
(lp3985
sg13
S'android.widget.ActionMenuPresenter$3'
p3986
sg15
(lp3987
sg17
(lp3988
sg19
(lp3989
sg21
I0
sba(iArchitecture
Entity
p3990
(dp3991
g11
(lp3992
sg13
S'android.widget.ActionMenuPresenter$4'
p3993
sg15
(lp3994
sg17
(lp3995
sg19
(lp3996
sg21
I0
sba(iArchitecture
Entity
p3997
(dp3998
g11
(lp3999
sg13
S'android.widget.ActionMenuPresenter$5'
p4000
sg15
(lp4001
sg17
(lp4002
sg19
(lp4003
sg21
I0
sba(iArchitecture
Entity
p4004
(dp4005
g11
(lp4006
sg13
S'android.widget.ActionMenuPresenter$ActionButtonSubmenu'
p4007
sg15
(lp4008
sg17
(lp4009
sg19
(lp4010
sg21
I0
sba(iArchitecture
Entity
p4011
(dp4012
g11
(lp4013
sg13
S'android.widget.ActionMenuPresenter$ActionMenuPopupCallback'
p4014
sg15
(lp4015
sg17
(lp4016
sg19
(lp4017
sg21
I0
sba(iArchitecture
Entity
p4018
(dp4019
g11
(lp4020
sg13
S'android.widget.ActionMenuPresenter$ItemAnimationInfo'
p4021
sg15
(lp4022
sg17
(lp4023
sg19
(lp4024
sg21
I0
sba(iArchitecture
Entity
p4025
(dp4026
g11
(lp4027
sg13
S'android.widget.ActionMenuPresenter$MenuItemLayoutInfo'
p4028
sg15
(lp4029
sg17
(lp4030
sg19
(lp4031
sg21
I0
sba(iArchitecture
Entity
p4032
(dp4033
g11
(lp4034
sg13
S'android.widget.ActionMenuPresenter$OpenOverflowRunnable'
p4035
sg15
(lp4036
sg17
(lp4037
sg19
(lp4038
sg21
I0
sba(iArchitecture
Entity
p4039
(dp4040
g11
(lp4041
sg13
S'android.widget.ActionMenuPresenter$OverflowMenuButton'
p4042
sg15
(lp4043
sg17
(lp4044
sg19
(lp4045
sg21
I0
sba(iArchitecture
Entity
p4046
(dp4047
g11
(lp4048
sg13
S'android.widget.ActionMenuPresenter$OverflowMenuButton$1'
p4049
sg15
(lp4050
sg17
(lp4051
sg19
(lp4052
sg21
I0
sba(iArchitecture
Entity
p4053
(dp4054
g11
(lp4055
sg13
S'android.widget.ActionMenuPresenter$OverflowPopup'
p4056
sg15
(lp4057
sg17
(lp4058
sg19
(lp4059
sg21
I0
sba(iArchitecture
Entity
p4060
(dp4061
g11
(lp4062
sg13
S'android.widget.ActionMenuPresenter$PopupPresenterCallback'
p4063
sg15
(lp4064
sg17
(lp4065
sg19
(lp4066
sg21
I0
sba(iArchitecture
Entity
p4067
(dp4068
g11
(lp4069
sg13
S'android.widget.ActionMenuPresenter$SavedState'
p4070
sg15
(lp4071
sg17
(lp4072
sg19
(lp4073
sg21
I0
sba(iArchitecture
Entity
p4074
(dp4075
g11
(lp4076
sg13
S'android.widget.ActionMenuPresenter$SavedState$1'
p4077
sg15
(lp4078
sg17
(lp4079
sg19
(lp4080
sg21
I0
sba(iArchitecture
Entity
p4081
(dp4082
g11
(lp4083
sg13
S'android.widget.Adapter'
p4084
sg15
(lp4085
sg17
(lp4086
sg19
(lp4087
sg21
I0
sba(iArchitecture
Entity
p4088
(dp4089
g11
(lp4090
sg13
S'android.widget.AdapterView'
p4091
sg15
(lp4092
sg17
(lp4093
sg19
(lp4094
sg21
I0
sba(iArchitecture
Entity
p4095
(dp4096
g11
(lp4097
sg13
S'android.widget.AdapterView$AdapterContextMenuInfo'
p4098
sg15
(lp4099
sg17
(lp4100
sg19
(lp4101
sg21
I0
sba(iArchitecture
Entity
p4102
(dp4103
g11
(lp4104
sg13
S'android.widget.AdapterView$AdapterDataSetObserver'
p4105
sg15
(lp4106
sg17
(lp4107
sg19
(lp4108
sg21
I0
sba(iArchitecture
Entity
p4109
(dp4110
g11
(lp4111
sg13
S'android.widget.AdapterView$OnItemClickListener'
p4112
sg15
(lp4113
sg17
(lp4114
sg19
(lp4115
sg21
I0
sba(iArchitecture
Entity
p4116
(dp4117
g11
(lp4118
sg13
S'android.widget.AdapterView$OnItemLongClickListener'
p4119
sg15
(lp4120
sg17
(lp4121
sg19
(lp4122
sg21
I0
sba(iArchitecture
Entity
p4123
(dp4124
g11
(lp4125
sg13
S'android.widget.AdapterView$OnItemSelectedListener'
p4126
sg15
(lp4127
sg17
(lp4128
sg19
(lp4129
sg21
I0
sba(iArchitecture
Entity
p4130
(dp4131
g11
(lp4132
sg13
S'android.widget.AdapterView$SelectionNotifier'
p4133
sg15
(lp4134
sg17
(lp4135
sg19
(lp4136
sg21
I0
sba(iArchitecture
Entity
p4137
(dp4138
g11
(lp4139
sg13
S'android.widget.Advanceable'
p4140
sg15
(lp4141
sg17
(lp4142
sg19
(lp4143
sg21
I0
sba(iArchitecture
Entity
p4144
(dp4145
g11
(lp4146
sg13
S'android.widget.AppSecurityPermissions'
p4147
sg15
(lp4148
sg17
(lp4149
sg19
(lp4150
sg21
I0
sba(iArchitecture
Entity
p4151
(dp4152
g11
(lp4153
sg13
S'android.widget.AppSecurityPermissions$MyPermissionGroupInfo'
p4154
sg15
(lp4155
sg17
(lp4156
sg19
(lp4157
sg21
I0
sba(iArchitecture
Entity
p4158
(dp4159
g11
(lp4160
sg13
S'android.widget.AppSecurityPermissions$MyPermissionInfo'
p4161
sg15
(lp4162
sg17
(lp4163
sg19
(lp4164
sg21
I0
sba(iArchitecture
Entity
p4165
(dp4166
g11
(lp4167
sg13
S'android.widget.AppSecurityPermissions$PermissionGroupInfoComparator'
p4168
sg15
(lp4169
sg17
(lp4170
sg19
(lp4171
sg21
I0
sba(iArchitecture
Entity
p4172
(dp4173
g11
(lp4174
sg13
S'android.widget.AppSecurityPermissions$PermissionInfoComparator'
p4175
sg15
(lp4176
sg17
(lp4177
sg19
(lp4178
sg21
I0
sba(iArchitecture
Entity
p4179
(dp4180
g11
(lp4181
sg13
S'android.widget.AppSecurityPermissions$PermissionItemView'
p4182
sg15
(lp4183
sg17
(lp4184
sg19
(lp4185
sg21
I0
sba(iArchitecture
Entity
p4186
(dp4187
g11
(lp4188
sg13
S'android.widget.AppSecurityPermissions$PermissionItemView$1'
p4189
sg15
(lp4190
sg17
(lp4191
sg19
(lp4192
sg21
I0
sba(iArchitecture
Entity
p4193
(dp4194
g11
(lp4195
sg13
S'android.widget.Button'
p4196
sg15
(lp4197
sg17
(lp4198
sg19
(lp4199
sg21
I0
sba(iArchitecture
Entity
p4200
(dp4201
g11
(lp4202
sg13
S'android.widget.CheckBox'
p4203
sg15
(lp4204
sg17
(lp4205
sg19
(lp4206
sg21
I0
sba(iArchitecture
Entity
p4207
(dp4208
g11
(lp4209
sg13
S'android.widget.Checkable'
p4210
sg15
(lp4211
sg17
(lp4212
sg19
(lp4213
sg21
I0
sba(iArchitecture
Entity
p4214
(dp4215
g11
(lp4216
sg13
S'android.widget.DatePickerController'
p4217
sg15
(lp4218
sg17
(lp4219
sg19
(lp4220
sg21
I0
sba(iArchitecture
Entity
p4221
(dp4222
g11
(lp4223
sg13
S'android.widget.EditText'
p4224
sg15
(lp4225
sg17
(lp4226
sg19
(lp4227
sg21
I0
sba(iArchitecture
Entity
p4228
(dp4229
g11
(lp4230
sg13
S'android.widget.FilterQueryProvider'
p4231
sg15
(lp4232
sg17
(lp4233
sg19
(lp4234
sg21
I0
sba(iArchitecture
Entity
p4235
(dp4236
g11
(lp4237
sg13
S'android.widget.Gallery'
p4238
sg15
(lp4239
sg17
(lp4240
sg19
(lp4241
sg21
I0
sba(iArchitecture
Entity
p4242
(dp4243
g11
(lp4244
sg13
S'android.widget.Gallery$1'
p4245
sg15
(lp4246
sg17
(lp4247
sg19
(lp4248
sg21
I0
sba(iArchitecture
Entity
p4249
(dp4250
g11
(lp4251
sg13
S'android.widget.Gallery$2'
p4252
sg15
(lp4253
sg17
(lp4254
sg19
(lp4255
sg21
I0
sba(iArchitecture
Entity
p4256
(dp4257
g11
(lp4258
sg13
S'android.widget.Gallery$FlingRunnable'
p4259
sg15
(lp4260
sg17
(lp4261
sg19
(lp4262
sg21
I0
sba(iArchitecture
Entity
p4263
(dp4264
g11
(lp4265
sg13
S'android.widget.Gallery$LayoutParams'
p4266
sg15
(lp4267
sg17
(lp4268
sg19
(lp4269
sg21
I0
sba(iArchitecture
Entity
p4270
(dp4271
g11
(lp4272
sg13
S'android.widget.ImageButton'
p4273
sg15
(lp4274
sg17
(lp4275
sg19
(lp4276
sg21
I0
sba(iArchitecture
Entity
p4277
(dp4278
g11
(lp4279
sg13
S'android.widget.OnDateChangedListener'
p4280
sg15
(lp4281
sg17
(lp4282
sg19
(lp4283
sg21
I0
sba(iArchitecture
Entity
p4284
(dp4285
g11
(lp4286
sg13
S'android.widget.Space'
p4287
sg15
(lp4288
sg17
(lp4289
sg19
(lp4290
sg21
I0
sba(iArchitecture
Entity
p4291
(dp4292
g11
(lp4293
sg13
S'android.widget.TwoLineListItem'
p4294
sg15
(lp4295
sg17
(lp4296
sg19
(lp4297
sg21
I0
sba(iArchitecture
Entity
p4298
(dp4299
g11
(lp4300
sg13
S'android.widget.WrapperListAdapter'
p4301
sg15
(lp4302
sg17
(lp4303
sg19
(lp4304
sg21
I0
sba(iArchitecture
Entity
p4305
(dp4306
g11
(lp4307
sg13
S'com.android.internal.alsa.LineTokenizer'
p4308
sg15
(lp4309
sg17
(lp4310
sg19
(lp4311
sg21
I0
sba(iArchitecture
Entity
p4312
(dp4313
g11
(lp4314
sg13
S'com.android.internal.annotations.GuardedBy'
p4315
sg15
(lp4316
sg17
(lp4317
sg19
(lp4318
sg21
I0
sba(iArchitecture
Entity
p4319
(dp4320
g11
(lp4321
sg13
S'com.android.internal.annotations.Immutable'
p4322
sg15
(lp4323
sg17
(lp4324
sg19
(lp4325
sg21
I0
sba(iArchitecture
Entity
p4326
(dp4327
g11
(lp4328
sg13
S'com.android.internal.annotations.VisibleForTesting'
p4329
sg15
(lp4330
sg17
(lp4331
sg19
(lp4332
sg21
I0
sba(iArchitecture
Entity
p4333
(dp4334
g11
(lp4335
sg13
S'com.android.internal.annotations.VisibleForTesting$Visibility'
p4336
sg15
(lp4337
sg17
(lp4338
sg19
(lp4339
sg21
I0
sba(iArchitecture
Entity
p4340
(dp4341
g11
(lp4342
sg13
S'com.android.internal.app.AlertController'
p4343
sg15
(lp4344
sg17
(lp4345
sg19
(lp4346
sg21
I0
sba(iArchitecture
Entity
p4347
(dp4348
g11
(lp4349
sg13
S'com.android.internal.app.AlertController$1'
p4350
sg15
(lp4351
sg17
(lp4352
sg19
(lp4353
sg21
I0
sba(iArchitecture
Entity
p4354
(dp4355
g11
(lp4356
sg13
S'com.android.internal.app.AlertController$2'
p4357
sg15
(lp4358
sg17
(lp4359
sg19
(lp4360
sg21
I0
sba(iArchitecture
Entity
p4361
(dp4362
g11
(lp4363
sg13
S'com.android.internal.app.AlertController$AlertParams'
p4364
sg15
(lp4365
sg17
(lp4366
sg19
(lp4367
sg21
I0
sba(iArchitecture
Entity
p4368
(dp4369
g11
(lp4370
sg13
S'com.android.internal.app.AlertController$AlertParams$1'
p4371
sg15
(lp4372
sg17
(lp4373
sg19
(lp4374
sg21
I0
sba(iArchitecture
Entity
p4375
(dp4376
g11
(lp4377
sg13
S'com.android.internal.app.AlertController$AlertParams$2'
p4378
sg15
(lp4379
sg17
(lp4380
sg19
(lp4381
sg21
I0
sba(iArchitecture
Entity
p4382
(dp4383
g11
(lp4384
sg13
S'com.android.internal.app.AlertController$AlertParams$3'
p4385
sg15
(lp4386
sg17
(lp4387
sg19
(lp4388
sg21
I0
sba(iArchitecture
Entity
p4389
(dp4390
g11
(lp4391
sg13
S'com.android.internal.app.AlertController$AlertParams$4'
p4392
sg15
(lp4393
sg17
(lp4394
sg19
(lp4395
sg21
I0
sba(iArchitecture
Entity
p4396
(dp4397
g11
(lp4398
sg13
S'com.android.internal.app.AlertController$AlertParams$OnPrepareListViewListener'
p4399
sg15
(lp4400
sg17
(lp4401
sg19
(lp4402
sg21
I0
sba(iArchitecture
Entity
p4403
(dp4404
g11
(lp4405
sg13
S'com.android.internal.app.AlertController$ButtonHandler'
p4406
sg15
(lp4407
sg17
(lp4408
sg19
(lp4409
sg21
I0
sba(iArchitecture
Entity
p4410
(dp4411
g11
(lp4412
sg13
S'com.android.internal.app.AlertController$CheckedItemAdapter'
p4413
sg15
(lp4414
sg17
(lp4415
sg19
(lp4416
sg21
I0
sba(iArchitecture
Entity
p4417
(dp4418
g11
(lp4419
sg13
S'com.android.internal.app.AlertController$RecycleListView'
p4420
sg15
(lp4421
sg17
(lp4422
sg19
(lp4423
sg21
I0
sba(iArchitecture
Entity
p4424
(dp4425
g11
(lp4426
sg13
S'com.android.internal.backup.LocalTransportService'
p4427
sg15
(lp4428
sg17
(lp4429
sg19
(lp4430
sg21
I0
sba(iArchitecture
Entity
p4431
(dp4432
g11
(lp4433
sg13
S'com.android.internal.logging.AndroidConfig'
p4434
sg15
(lp4435
sg17
(lp4436
sg19
(lp4437
sg21
I0
sba(iArchitecture
Entity
p4438
(dp4439
g11
(lp4440
sg13
S'com.android.internal.os.AndroidPrintStream'
p4441
sg15
(lp4442
sg17
(lp4443
sg19
(lp4444
sg21
I0
sba(iArchitecture
Entity
p4445
(dp4446
g11
(lp4447
sg13
S'com.android.internal.os.KernelWakelockStats'
p4448
sg15
(lp4449
sg17
(lp4450
sg19
(lp4451
sg21
I0
sba(iArchitecture
Entity
p4452
(dp4453
g11
(lp4454
sg13
S'com.android.internal.os.KernelWakelockStats$Entry'
p4455
sg15
(lp4456
sg17
(lp4457
sg19
(lp4458
sg21
I0
sba(iArchitecture
Entity
p4459
(dp4460
g11
(lp4461
sg13
S'com.android.internal.os.ZygoteSecurityException'
p4462
sg15
(lp4463
sg17
(lp4464
sg19
(lp4465
sg21
I0
sba(iArchitecture
Entity
p4466
(dp4467
g11
(lp4468
sg13
S'com.android.internal.policy.PhoneLayoutInflater'
p4469
sg15
(lp4470
sg17
(lp4471
sg19
(lp4472
sg21
I0
sba(iArchitecture
Entity
p4473
(dp4474
g11
(lp4475
sg13
S'com.android.internal.preference.YesNoPreference'
p4476
sg15
(lp4477
sg17
(lp4478
sg19
(lp4479
sg21
I0
sba(iArchitecture
Entity
p4480
(dp4481
g11
(lp4482
sg13
S'com.android.internal.preference.YesNoPreference$SavedState'
p4483
sg15
(lp4484
sg17
(lp4485
sg19
(lp4486
sg21
I0
sba(iArchitecture
Entity
p4487
(dp4488
g11
(lp4489
sg13
S'com.android.internal.preference.YesNoPreference$SavedState$1'
p4490
sg15
(lp4491
sg17
(lp4492
sg19
(lp4493
sg21
I0
sba(iArchitecture
Entity
p4494
(dp4495
g11
(lp4496
sg13
S'com.android.internal.telephony.CallInfo'
p4497
sg15
(lp4498
sg17
(lp4499
sg19
(lp4500
sg21
I0
sba(iArchitecture
Entity
p4501
(dp4502
g11
(lp4503
sg13
S'com.android.internal.telephony.CallInfo$1'
p4504
sg15
(lp4505
sg17
(lp4506
sg19
(lp4507
sg21
I0
sba(iArchitecture
Entity
p4508
(dp4509
g11
(lp4510
sg13
S'com.android.internal.telephony.DcParamObject'
p4511
sg15
(lp4512
sg17
(lp4513
sg19
(lp4514
sg21
I0
sba(iArchitecture
Entity
p4515
(dp4516
g11
(lp4517
sg13
S'com.android.internal.telephony.DcParamObject$1'
p4518
sg15
(lp4519
sg17
(lp4520
sg19
(lp4521
sg21
I0
sba(iArchitecture
Entity
p4522
(dp4523
g11
(lp4524
sg13
S'com.android.internal.telephony.DctConstants'
p4525
sg15
(lp4526
sg17
(lp4527
sg19
(lp4528
sg21
I0
sba(iArchitecture
Entity
p4529
(dp4530
g11
(lp4531
sg13
S'com.android.internal.telephony.DctConstants$Activity'
p4532
sg15
(lp4533
sg17
(lp4534
sg19
(lp4535
sg21
I0
sba(iArchitecture
Entity
p4536
(dp4537
g11
(lp4538
sg13
S'com.android.internal.telephony.DctConstants$State'
p4539
sg15
(lp4540
sg17
(lp4541
sg19
(lp4542
sg21
I0
sba(iArchitecture
Entity
p4543
(dp4544
g11
(lp4545
sg13
S'com.android.internal.telephony.EncodeException'
p4546
sg15
(lp4547
sg17
(lp4548
sg19
(lp4549
sg21
I0
sba(iArchitecture
Entity
p4550
(dp4551
g11
(lp4552
sg13
S'com.android.internal.telephony.SmsRawData'
p4553
sg15
(lp4554
sg17
(lp4555
sg19
(lp4556
sg21
I0
sba(iArchitecture
Entity
p4557
(dp4558
g11
(lp4559
sg13
S'com.android.internal.telephony.SmsRawData$1'
p4560
sg15
(lp4561
sg17
(lp4562
sg19
(lp4563
sg21
I0
sba(iArchitecture
Entity
p4564
(dp4565
g11
(lp4566
sg13
S'com.android.internal.transition.TransitionConstants'
p4567
sg15
(lp4568
sg17
(lp4569
sg19
(lp4570
sg21
I0
sba(iArchitecture
Entity
p4571
(dp4572
g11
(lp4573
sg13
S'com.android.internal.util.FastMath'
p4574
sg15
(lp4575
sg17
(lp4576
sg19
(lp4577
sg21
I0
sba(iArchitecture
Entity
p4578
(dp4579
g11
(lp4580
sg13
S'com.android.internal.util.LocalLog'
p4581
sg15
(lp4582
sg17
(lp4583
sg19
(lp4584
sg21
I0
sba(iArchitecture
Entity
p4585
(dp4586
g11
(lp4587
sg13
S'com.android.internal.util.Predicate'
p4588
sg15
(lp4589
sg17
(lp4590
sg19
(lp4591
sg21
I0
sba(iArchitecture
Entity
p4592
(dp4593
g11
(lp4594
sg13
S'com.android.internal.util.State'
p4595
sg15
(lp4596
sg17
(lp4597
sg19
(lp4598
sg21
I0
sba(iArchitecture
Entity
p4599
(dp4600
g11
(lp4601
sg13
S'com.android.internal.util.VirtualRefBasePtr'
p4602
sg15
(lp4603
sg17
(lp4604
sg19
(lp4605
sg21
I0
sba(iArchitecture
Entity
p4606
(dp4607
g11
(lp4608
sg13
S'com.android.internal.view.RootViewSurfaceTaker'
p4609
sg15
(lp4610
sg17
(lp4611
sg19
(lp4612
sg21
I0
sba(iArchitecture
Entity
p4613
(dp4614
g11
(lp4615
sg13
S'com.android.internal.view.StandaloneActionMode'
p4616
sg15
(lp4617
sg17
(lp4618
sg19
(lp4619
sg21
I0
sba(iArchitecture
Entity
p4620
(dp4621
g11
(lp4622
sg13
S'com.android.internal.view.animation.HasNativeInterpolator'
p4623
sg15
(lp4624
sg17
(lp4625
sg19
(lp4626
sg21
I0
sba(iArchitecture
Entity
p4627
(dp4628
g11
(lp4629
sg13
S'com.android.internal.view.animation.NativeInterpolatorFactory'
p4630
sg15
(lp4631
sg17
(lp4632
sg19
(lp4633
sg21
I0
sba(iArchitecture
Entity
p4634
(dp4635
g11
(lp4636
sg13
S'com.android.internal.view.animation.NativeInterpolatorFactoryHelper'
p4637
sg15
(lp4638
sg17
(lp4639
sg19
(lp4640
sg21
I0
sba(iArchitecture
Entity
p4641
(dp4642
g11
(lp4643
sg13
S'com.android.internal.view.menu.ActionMenu'
p4644
sg15
(lp4645
sg17
(lp4646
sg19
(lp4647
sg21
I0
sba(iArchitecture
Entity
p4648
(dp4649
g11
(lp4650
sg13
S'com.android.internal.view.menu.ActionMenuItem'
p4651
sg15
(lp4652
sg17
(lp4653
sg19
(lp4654
sg21
I0
sba(iArchitecture
Entity
p4655
(dp4656
g11
(lp4657
sg13
S'com.android.internal.view.menu.ActionMenuItemView'
p4658
sg15
(lp4659
sg17
(lp4660
sg19
(lp4661
sg21
I0
sba(iArchitecture
Entity
p4662
(dp4663
g11
(lp4664
sg13
S'com.android.internal.view.menu.ActionMenuItemView$ActionMenuItemForwardingListener'
p4665
sg15
(lp4666
sg17
(lp4667
sg19
(lp4668
sg21
I0
sba(iArchitecture
Entity
p4669
(dp4670
g11
(lp4671
sg13
S'com.android.internal.view.menu.ActionMenuItemView$PopupCallback'
p4672
sg15
(lp4673
sg17
(lp4674
sg19
(lp4675
sg21
I0
sba(iArchitecture
Entity
p4676
(dp4677
g11
(lp4678
sg13
S'com.android.internal.view.menu.BaseMenuPresenter'
p4679
sg15
(lp4680
sg17
(lp4681
sg19
(lp4682
sg21
I0
sba(iArchitecture
Entity
p4683
(dp4684
g11
(lp4685
sg13
S'com.android.internal.view.menu.ContextMenuBuilder'
p4686
sg15
(lp4687
sg17
(lp4688
sg19
(lp4689
sg21
I0
sba(iArchitecture
Entity
p4690
(dp4691
g11
(lp4692
sg13
S'com.android.internal.view.menu.ExpandedMenuView'
p4693
sg15
(lp4694
sg17
(lp4695
sg19
(lp4696
sg21
I0
sba(iArchitecture
Entity
p4697
(dp4698
g11
(lp4699
sg13
S'com.android.internal.view.menu.IconMenuItemView'
p4700
sg15
(lp4701
sg17
(lp4702
sg19
(lp4703
sg21
I0
sba(iArchitecture
Entity
p4704
(dp4705
g11
(lp4706
sg13
S'com.android.internal.view.menu.IconMenuPresenter'
p4707
sg15
(lp4708
sg17
(lp4709
sg19
(lp4710
sg21
I0
sba(iArchitecture
Entity
p4711
(dp4712
g11
(lp4713
sg13
S'com.android.internal.view.menu.IconMenuPresenter$SubMenuPresenterCallback'
p4714
sg15
(lp4715
sg17
(lp4716
sg19
(lp4717
sg21
I0
sba(iArchitecture
Entity
p4718
(dp4719
g11
(lp4720
sg13
S'com.android.internal.view.menu.ListMenuItemView'
p4721
sg15
(lp4722
sg17
(lp4723
sg19
(lp4724
sg21
I0
sba(iArchitecture
Entity
p4725
(dp4726
g11
(lp4727
sg13
S'com.android.internal.view.menu.ListMenuPresenter'
p4728
sg15
(lp4729
sg17
(lp4730
sg19
(lp4731
sg21
I0
sba(iArchitecture
Entity
p4732
(dp4733
g11
(lp4734
sg13
S'com.android.internal.view.menu.ListMenuPresenter$MenuAdapter'
p4735
sg15
(lp4736
sg17
(lp4737
sg19
(lp4738
sg21
I0
sba(iArchitecture
Entity
p4739
(dp4740
g11
(lp4741
sg13
S'com.android.internal.view.menu.MenuBuilder'
p4742
sg15
(lp4743
sg17
(lp4744
sg19
(lp4745
sg21
I0
sba(iArchitecture
Entity
p4746
(dp4747
g11
(lp4748
sg13
S'com.android.internal.view.menu.MenuBuilder$Callback'
p4749
sg15
(lp4750
sg17
(lp4751
sg19
(lp4752
sg21
I0
sba(iArchitecture
Entity
p4753
(dp4754
g11
(lp4755
sg13
S'com.android.internal.view.menu.MenuBuilder$ItemInvoker'
p4756
sg15
(lp4757
sg17
(lp4758
sg19
(lp4759
sg21
I0
sba(iArchitecture
Entity
p4760
(dp4761
g11
(lp4762
sg13
S'com.android.internal.view.menu.MenuItemImpl'
p4763
sg15
(lp4764
sg17
(lp4765
sg19
(lp4766
sg21
I0
sba(iArchitecture
Entity
p4767
(dp4768
g11
(lp4769
sg13
S'com.android.internal.view.menu.MenuItemImpl$1'
p4770
sg15
(lp4771
sg17
(lp4772
sg19
(lp4773
sg21
I0
sba(iArchitecture
Entity
p4774
(dp4775
g11
(lp4776
sg13
S'com.android.internal.view.menu.MenuPresenter'
p4777
sg15
(lp4778
sg17
(lp4779
sg19
(lp4780
sg21
I0
sba(iArchitecture
Entity
p4781
(dp4782
g11
(lp4783
sg13
S'com.android.internal.view.menu.MenuPresenter$Callback'
p4784
sg15
(lp4785
sg17
(lp4786
sg19
(lp4787
sg21
I0
sba(iArchitecture
Entity
p4788
(dp4789
g11
(lp4790
sg13
S'com.android.internal.widget.AbsActionBarView'
p4791
sg15
(lp4792
sg17
(lp4793
sg19
(lp4794
sg21
I0
sba(iArchitecture
Entity
p4795
(dp4796
g11
(lp4797
sg13
S'com.android.internal.widget.AbsActionBarView$1'
p4798
sg15
(lp4799
sg17
(lp4800
sg19
(lp4801
sg21
I0
sba(iArchitecture
Entity
p4802
(dp4803
g11
(lp4804
sg13
S'com.android.internal.widget.AbsActionBarView$VisibilityAnimListener'
p4805
sg15
(lp4806
sg17
(lp4807
sg19
(lp4808
sg21
I0
sba(iArchitecture
Entity
p4809
(dp4810
g11
(lp4811
sg13
S'com.android.internal.widget.AccountItemView'
p4812
sg15
(lp4813
sg17
(lp4814
sg19
(lp4815
sg21
I0
sba(iArchitecture
Entity
p4816
(dp4817
g11
(lp4818
sg13
S'com.android.internal.widget.DecorToolbar'
p4819
sg15
(lp4820
sg17
(lp4821
sg19
(lp4822
sg21
I0
sba(iArchitecture
Entity
p4823
(dp4824
g11
(lp4825
sg13
S'com.android.internal.widget.DialogTitle'
p4826
sg15
(lp4827
sg17
(lp4828
sg19
(lp4829
sg21
I0
sba(iArchitecture
Entity
p4830
(dp4831
g11
(lp4832
sg13
S'com.android.internal.widget.FloatingToolbar'
p4833
sg15
(lp4834
sg17
(lp4835
sg19
(lp4836
sg21
I0
sba(iArchitecture
Entity
p4837
(dp4838
g11
(lp4839
sg13
S'com.android.internal.widget.FloatingToolbar$1'
p4840
sg15
(lp4841
sg17
(lp4842
sg19
(lp4843
sg21
I0
sba(iArchitecture
Entity
p4844
(dp4845
g11
(lp4846
sg13
S'com.android.internal.widget.FloatingToolbar$2'
p4847
sg15
(lp4848
sg17
(lp4849
sg19
(lp4850
sg21
I0
sba(iArchitecture
Entity
p4851
(dp4852
g11
(lp4853
sg13
S'com.android.internal.widget.FloatingToolbar$FloatingToolbarMainPanel'
p4854
sg15
(lp4855
sg17
(lp4856
sg19
(lp4857
sg21
I0
sba(iArchitecture
Entity
p4858
(dp4859
g11
(lp4860
sg13
S'com.android.internal.widget.FloatingToolbar$FloatingToolbarMainPanel$1'
p4861
sg15
(lp4862
sg17
(lp4863
sg19
(lp4864
sg21
I0
sba(iArchitecture
Entity
p4865
(dp4866
g11
(lp4867
sg13
S'com.android.internal.widget.FloatingToolbar$FloatingToolbarMainPanel$2'
p4868
sg15
(lp4869
sg17
(lp4870
sg19
(lp4871
sg21
I0
sba(iArchitecture
Entity
p4872
(dp4873
g11
(lp4874
sg13
S'com.android.internal.widget.FloatingToolbar$FloatingToolbarOverflowPanel'
p4875
sg15
(lp4876
sg17
(lp4877
sg19
(lp4878
sg21
I0
sba(iArchitecture
Entity
p4879
(dp4880
g11
(lp4881
sg13
S'com.android.internal.widget.FloatingToolbar$FloatingToolbarOverflowPanel$1'
p4882
sg15
(lp4883
sg17
(lp4884
sg19
(lp4885
sg21
I0
sba(iArchitecture
Entity
p4886
(dp4887
g11
(lp4888
sg13
S'com.android.internal.widget.FloatingToolbar$FloatingToolbarOverflowPanel$2'
p4889
sg15
(lp4890
sg17
(lp4891
sg19
(lp4892
sg21
I0
sba(iArchitecture
Entity
p4893
(dp4894
g11
(lp4895
sg13
S'com.android.internal.widget.FloatingToolbar$FloatingToolbarOverflowPanel$3'
p4896
sg15
(lp4897
sg17
(lp4898
sg19
(lp4899
sg21
I0
sba(iArchitecture
Entity
p4900
(dp4901
g11
(lp4902
sg13
S'com.android.internal.widget.FloatingToolbar$FloatingToolbarPopup'
p4903
sg15
(lp4904
sg17
(lp4905
sg19
(lp4906
sg21
I0
sba(iArchitecture
Entity
p4907
(dp4908
g11
(lp4909
sg13
S'com.android.internal.widget.FloatingToolbar$FloatingToolbarPopup$1'
p4910
sg15
(lp4911
sg17
(lp4912
sg19
(lp4913
sg21
I0
sba(iArchitecture
Entity
p4914
(dp4915
g11
(lp4916
sg13
S'com.android.internal.widget.FloatingToolbar$FloatingToolbarPopup$10'
p4917
sg15
(lp4918
sg17
(lp4919
sg19
(lp4920
sg21
I0
sba(iArchitecture
Entity
p4921
(dp4922
g11
(lp4923
sg13
S'com.android.internal.widget.FloatingToolbar$FloatingToolbarPopup$11'
p4924
sg15
(lp4925
sg17
(lp4926
sg19
(lp4927
sg21
I0
sba(iArchitecture
Entity
p4928
(dp4929
g11
(lp4930
sg13
S'com.android.internal.widget.FloatingToolbar$FloatingToolbarPopup$2'
p4931
sg15
(lp4932
sg17
(lp4933
sg19
(lp4934
sg21
I0
sba(iArchitecture
Entity
p4935
(dp4936
g11
(lp4937
sg13
S'com.android.internal.widget.FloatingToolbar$FloatingToolbarPopup$3'
p4938
sg15
(lp4939
sg17
(lp4940
sg19
(lp4941
sg21
I0
sba(iArchitecture
Entity
p4942
(dp4943
g11
(lp4944
sg13
S'com.android.internal.widget.FloatingToolbar$FloatingToolbarPopup$4'
p4945
sg15
(lp4946
sg17
(lp4947
sg19
(lp4948
sg21
I0
sba(iArchitecture
Entity
p4949
(dp4950
g11
(lp4951
sg13
S'com.android.internal.widget.FloatingToolbar$FloatingToolbarPopup$5'
p4952
sg15
(lp4953
sg17
(lp4954
sg19
(lp4955
sg21
I0
sba(iArchitecture
Entity
p4956
(dp4957
g11
(lp4958
sg13
S'com.android.internal.widget.FloatingToolbar$FloatingToolbarPopup$6'
p4959
sg15
(lp4960
sg17
(lp4961
sg19
(lp4962
sg21
I0
sba(iArchitecture
Entity
p4963
(dp4964
g11
(lp4965
sg13
S'com.android.internal.widget.FloatingToolbar$FloatingToolbarPopup$7'
p4966
sg15
(lp4967
sg17
(lp4968
sg19
(lp4969
sg21
I0
sba(iArchitecture
Entity
p4970
(dp4971
g11
(lp4972
sg13
S'com.android.internal.widget.FloatingToolbar$FloatingToolbarPopup$8'
p4973
sg15
(lp4974
sg17
(lp4975
sg19
(lp4976
sg21
I0
sba(iArchitecture
Entity
p4977
(dp4978
g11
(lp4979
sg13
S'com.android.internal.widget.FloatingToolbar$FloatingToolbarPopup$9'
p4980
sg15
(lp4981
sg17
(lp4982
sg19
(lp4983
sg21
I0
sba(iArchitecture
Entity
p4984
(dp4985
g11
(lp4986
sg13
S'com.android.internal.widget.FloatingToolbar$ViewFader'
p4987
sg15
(lp4988
sg17
(lp4989
sg19
(lp4990
sg21
I0
sba(iArchitecture
Entity
p4991
(dp4992
g11
(lp4993
sg13
S'com.android.internal.widget.LockScreenWidgetInterface'
p4994
sg15
(lp4995
sg17
(lp4996
sg19
(lp4997
sg21
I0
sba(iArchitecture
Entity
p4998
(dp4999
g11
(lp5000
sg13
S'com.android.server.BrickReceiver'
p5001
sg15
(lp5002
sg17
(lp5003
sg19
(lp5004
sg21
I0
sba(iArchitecture
Entity
p5005
(dp5006
g11
(lp5007
sg13
S'com.android.server.INativeDaemonConnectorCallbacks'
p5008
sg15
(lp5009
sg17
(lp5010
sg19
(lp5011
sg21
I0
sba(iArchitecture
Entity
p5012
(dp5013
g11
(lp5014
sg13
S'com.android.server.LocalServices'
p5015
sg15
(lp5016
sg17
(lp5017
sg19
(lp5018
sg21
I0
sba(iArchitecture
Entity
p5019
(dp5020
g11
(lp5021
sg13
S'com.android.server.NativeDaemonTimeoutException'
p5022
sg15
(lp5023
sg17
(lp5024
sg19
(lp5025
sg21
I0
sba(iArchitecture
Entity
p5026
(dp5027
g11
(lp5028
sg13
S'com.android.server.ServiceThread'
p5029
sg15
(lp5030
sg17
(lp5031
sg19
(lp5032
sg21
I0
sba(iArchitecture
Entity
p5033
(dp5034
g11
(lp5035
sg13
S'com.android.server.WidgetBackupProvider'
p5036
sg15
(lp5037
sg17
(lp5038
sg19
(lp5039
sg21
I0
sba(iArchitecture
Entity
p5040
(dp5041
g11
(lp5042
sg13
S'com.android.server.am.ActivityResult'
p5043
sg15
(lp5044
sg17
(lp5045
sg19
(lp5046
sg21
I0
sba(iArchitecture
Entity
p5047
(dp5048
g11
(lp5049
sg13
S'com.android.server.am.AppErrorResult'
p5050
sg15
(lp5051
sg17
(lp5052
sg19
(lp5053
sg21
I0
sba(iArchitecture
Entity
p5054
(dp5055
g11
(lp5056
sg13
S'com.android.server.am.LaunchWarningWindow'
p5057
sg15
(lp5058
sg17
(lp5059
sg19
(lp5060
sg21
I0
sba(iArchitecture
Entity
p5061
(dp5062
g11
(lp5063
sg13
S'com.android.server.display.DisplayBlanker'
p5064
sg15
(lp5065
sg17
(lp5066
sg19
(lp5067
sg21
I0
sba(iArchitecture
Entity
p5068
(dp5069
g11
(lp5070
sg13
S'com.android.server.display.DisplayDeviceInfo'
p5071
sg15
(lp5072
sg17
(lp5073
sg19
(lp5074
sg21
I0
sba(iArchitecture
Entity
p5075
(dp5076
g11
(lp5077
sg13
S'com.android.server.display.DisplayManagerService'
p5078
sg15
(lp5079
sg17
(lp5080
sg19
(lp5081
sg21
I0
sba(iArchitecture
Entity
p5082
(dp5083
g11
(lp5084
sg13
S'com.android.server.display.DisplayManagerService$BinderService'
p5085
sg15
(lp5086
sg17
(lp5087
sg19
(lp5088
sg21
I0
sba(iArchitecture
Entity
p5089
(dp5090
g11
(lp5091
sg13
S'com.android.server.display.DisplayManagerService$CallbackRecord'
p5092
sg15
(lp5093
sg17
(lp5094
sg19
(lp5095
sg21
I0
sba(iArchitecture
Entity
p5096
(dp5097
g11
(lp5098
sg13
S'com.android.server.display.DisplayManagerService$DisplayAdapterListener'
p5099
sg15
(lp5100
sg17
(lp5101
sg19
(lp5102
sg21
I0
sba(iArchitecture
Entity
p5103
(dp5104
g11
(lp5105
sg13
S'com.android.server.display.DisplayManagerService$DisplayManagerHandler'
p5106
sg15
(lp5107
sg17
(lp5108
sg19
(lp5109
sg21
I0
sba(iArchitecture
Entity
p5110
(dp5111
g11
(lp5112
sg13
S'com.android.server.display.DisplayManagerService$LocalService'
p5113
sg15
(lp5114
sg17
(lp5115
sg19
(lp5116
sg21
I0
sba(iArchitecture
Entity
p5117
(dp5118
g11
(lp5119
sg13
S'com.android.server.display.DisplayManagerService$LocalService$1'
p5120
sg15
(lp5121
sg17
(lp5122
sg19
(lp5123
sg21
I0
sba(iArchitecture
Entity
p5124
(dp5125
g11
(lp5126
sg13
S'com.android.server.display.DisplayManagerService$SyncRoot'
p5127
sg15
(lp5128
sg17
(lp5129
sg19
(lp5130
sg21
I0
sba(iArchitecture
Entity
p5131
(dp5132
g11
(lp5133
sg13
S'com.android.server.firewall.FilterFactory'
p5134
sg15
(lp5135
sg17
(lp5136
sg19
(lp5137
sg21
I0
sba(iArchitecture
Entity
p5138
(dp5139
g11
(lp5140
sg13
S'com.android.server.firewall.FilterList'
p5141
sg15
(lp5142
sg17
(lp5143
sg19
(lp5144
sg21
I0
sba(iArchitecture
Entity
p5145
(dp5146
g11
(lp5147
sg13
S'com.android.server.hdmi.HdmiAnnotations'
p5148
sg15
(lp5149
sg17
(lp5150
sg19
(lp5151
sg21
I0
sba(iArchitecture
Entity
p5152
(dp5153
g11
(lp5154
sg13
S'com.android.server.hdmi.HdmiAnnotations$IoThreadOnly'
p5155
sg15
(lp5156
sg17
(lp5157
sg19
(lp5158
sg21
I0
sba(iArchitecture
Entity
p5159
(dp5160
g11
(lp5161
sg13
S'com.android.server.hdmi.HdmiAnnotations$ServiceThreadOnly'
p5162
sg15
(lp5163
sg17
(lp5164
sg19
(lp5165
sg21
I0
sba(iArchitecture
Entity
p5166
(dp5167
g11
(lp5168
sg13
S'com.android.server.job.JobCompletedListener'
p5169
sg15
(lp5170
sg17
(lp5171
sg19
(lp5172
sg21
I0
sba(iArchitecture
Entity
p5173
(dp5174
g11
(lp5175
sg13
S'com.android.server.job.StateChangedListener'
p5176
sg15
(lp5177
sg17
(lp5178
sg19
(lp5179
sg21
I0
sba(iArchitecture
Entity
p5180
(dp5181
g11
(lp5182
sg13
S'com.android.server.lights.LightsManager'
p5183
sg15
(lp5184
sg17
(lp5185
sg19
(lp5186
sg21
I0
sba(iArchitecture
Entity
p5187
(dp5188
g11
(lp5189
sg13
S'com.android.server.location.LocationProviderInterface'
p5190
sg15
(lp5191
sg17
(lp5192
sg19
(lp5193
sg21
I0
sba(iArchitecture
Entity
p5194
(dp5195
g11
(lp5196
sg13
S'com.android.server.notification.NotificationManagerInternal'
p5197
sg15
(lp5198
sg17
(lp5199
sg19
(lp5200
sg21
I0
sba(iArchitecture
Entity
p5201
(dp5202
g11
(lp5203
sg13
S'com.android.server.notification.PropConfig'
p5204
sg15
(lp5205
sg17
(lp5206
sg19
(lp5207
sg21
I0
sba(iArchitecture
Entity
p5208
(dp5209
g11
(lp5210
sg13
S'com.android.server.pm.IntentFilterVerificationResponse'
p5211
sg15
(lp5212
sg17
(lp5213
sg19
(lp5214
sg21
I0
sba(iArchitecture
Entity
p5215
(dp5216
g11
(lp5217
sg13
S'com.android.server.pm.PackageVerificationResponse'
p5218
sg15
(lp5219
sg17
(lp5220
sg19
(lp5221
sg21
I0
sba(iArchitecture
Entity
p5222
(dp5223
g11
(lp5224
sg13
S'com.android.server.pm.PersistentPreferredIntentResolver'
p5225
sg15
(lp5226
sg17
(lp5227
sg19
(lp5228
sg21
I0
sba(iArchitecture
Entity
p5229
(dp5230
g11
(lp5231
sg13
S'com.android.server.pm.PreferredIntentResolver'
p5232
sg15
(lp5233
sg17
(lp5234
sg19
(lp5235
sg21
I0
sba(iArchitecture
Entity
p5236
(dp5237
g11
(lp5238
sg13
S'com.android.server.policy.LogDecelerateInterpolator'
p5239
sg15
(lp5240
sg17
(lp5241
sg19
(lp5242
sg21
I0
sba(iArchitecture
Entity
p5243
(dp5244
g11
(lp5245
sg13
S'com.android.server.power.ScreenOnBlocker'
p5246
sg15
(lp5247
sg17
(lp5248
sg19
(lp5249
sg21
I0
sba(iArchitecture
Entity
p5250
(dp5251
g11
(lp5252
sg13
S'com.android.server.power.SuspendBlocker'
p5253
sg15
(lp5254
sg17
(lp5255
sg19
(lp5256
sg21
I0
sba(iArchitecture
Entity
p5257
(dp5258
g11
(lp5259
sg13
S'com.android.server.storage.DeviceStorageMonitorInternal'
p5260
sg15
(lp5261
sg17
(lp5262
sg19
(lp5263
sg21
I0
sba(iArchitecture
Entity
p5264
(dp5265
g11
(lp5266
sg13
S'com.android.server.twilight.TwilightListener'
p5267
sg15
(lp5268
sg17
(lp5269
sg19
(lp5270
sg21
I0
sba(iArchitecture
Entity
p5271
(dp5272
g11
(lp5273
sg13
S'com.android.server.updates.CarrierProvisioningUrlsInstallReceiver'
p5274
sg15
(lp5275
sg17
(lp5276
sg19
(lp5277
sg21
I0
sba(iArchitecture
Entity
p5278
(dp5279
g11
(lp5280
sg13
S'com.android.server.updates.CertPinInstallReceiver'
p5281
sg15
(lp5282
sg17
(lp5283
sg19
(lp5284
sg21
I0
sba(iArchitecture
Entity
p5285
(dp5286
g11
(lp5287
sg13
S'com.android.server.updates.IntentFirewallInstallReceiver'
p5288
sg15
(lp5289
sg17
(lp5290
sg19
(lp5291
sg21
I0
sba(iArchitecture
Entity
p5292
(dp5293
g11
(lp5294
sg13
S'com.android.server.updates.SmsShortCodesInstallReceiver'
p5295
sg15
(lp5296
sg17
(lp5297
sg19
(lp5298
sg21
I0
sba(iArchitecture
Entity
p5299
(dp5300
g11
(lp5301
sg13
S'com.android.server.wm.StartingData'
p5302
sg15
(lp5303
sg17
(lp5304
sg19
(lp5305
sg21
I0
sba(iArchitecture
Entity
p5306
(dp5307
g11
(lp5308
sg13
S'com.android.server.wm.WindowAnimator'
p5309
sg15
(lp5310
sg17
(lp5311
sg19
(lp5312
sg21
I0
sba(iArchitecture
Entity
p5313
(dp5314
g11
(lp5315
sg13
S'com.android.server.wm.WindowAnimator$1'
p5316
sg15
(lp5317
sg17
(lp5318
sg19
(lp5319
sg21
I0
sba(iArchitecture
Entity
p5320
(dp5321
g11
(lp5322
sg13
S'com.android.server.wm.WindowAnimator$DisplayContentsAnimator'
p5323
sg15
(lp5324
sg17
(lp5325
sg19
(lp5326
sg21
I0
sba(iArchitecture
Entity
p5327
(dp5328
g11
(lp5329
sg13
S'com.android.server.wm.WindowList'
p5330
sg15
(lp5331
sg17
(lp5332
sg19
(lp5333
sg21
I0
sba(iArchitecture
Entity
p5334
(dp5335
g11
(lp5336
sg13
S'com.google.android.collect.Maps'
p5337
sg15
(lp5338
sg17
(lp5339
sg19
(lp5340
sg21
I0
sba(iArchitecture
Entity
p5341
(dp5342
g11
(lp5343
sg13
S'com.google.android.util.Procedure'
p5344
sg15
(lp5345
sg17
(lp5346
sg19
(lp5347
sg21
I0
sba(iArchitecture
Entity
p5348
(dp5349
g11
(lp5350
sg13
S'com.google.android.util.SmileyParser'
p5351
sg15
(lp5352
sg17
(lp5353
sg19
(lp5354
sg21
I0
sba(iArchitecture
Entity
p5355
(dp5356
g11
(lp5357
sg13
S'javax.microedition.khronos.egl.EGL'
p5358
sg15
(lp5359
sg17
(lp5360
sg19
(lp5361
sg21
I0
sba(iArchitecture
Entity
p5362
(dp5363
g11
(lp5364
sg13
S'javax.microedition.khronos.egl.EGL11'
p5365
sg15
(lp5366
sg17
(lp5367
sg19
(lp5368
sg21
I0
sba(iArchitecture
Entity
p5369
(dp5370
g11
(lp5371
sg13
S'javax.microedition.khronos.egl.EGLConfig'
p5372
sg15
(lp5373
sg17
(lp5374
sg19
(lp5375
sg21
I0
sba(iArchitecture
Entity
p5376
(dp5377
g11
(lp5378
sg13
S'javax.microedition.khronos.egl.EGLContext'
p5379
sg15
(lp5380
sg17
(lp5381
sg19
(lp5382
sg21
I0
sba(iArchitecture
Entity
p5383
(dp5384
g11
(lp5385
sg13
S'javax.microedition.khronos.egl.EGLDisplay'
p5386
sg15
(lp5387
sg17
(lp5388
sg19
(lp5389
sg21
I0
sba(iArchitecture
Entity
p5390
(dp5391
g11
(lp5392
sg13
S'javax.microedition.khronos.egl.EGLSurface'
p5393
sg15
(lp5394
sg17
(lp5395
sg19
(lp5396
sg21
I0
sba(iArchitecture
Entity
p5397
(dp5398
g11
(lp5399
sg13
S'javax.microedition.khronos.opengles.GL'
p5400
sg15
(lp5401
sg17
(lp5402
sg19
(lp5403
sg21
I0
sba(iArchitecture
Entity
p5404
(dp5405
g11
(lp5406
sg13
S'org.apache.http.conn.ConnectTimeoutException'
p5407
sg15
(lp5408
sg17
(lp5409
sg19
(lp5410
sg21
I0
sba(iArchitecture
Entity
p5411
(dp5412
g11
(lp5413
sg13
S'org.apache.http.conn.scheme.HostNameResolver'
p5414
sg15
(lp5415
sg17
(lp5416
sg19
(lp5417
sg21
I0
sba(iArchitecture
Entity
p5418
(dp5419
g11
(lp5420
sg13
S'org.apache.http.conn.ssl.AllowAllHostnameVerifier'
p5421
sg15
(lp5422
sg17
(lp5423
sg19
(lp5424
sg21
I0
sba(iArchitecture
Entity
p5425
(dp5426
g11
(lp5427
sg13
S'org.apache.http.conn.ssl.BrowserCompatHostnameVerifier'
p5428
sg15
(lp5429
sg17
(lp5430
sg19
(lp5431
sg21
I0
sba(iArchitecture
Entity
p5432
(dp5433
g11
(lp5434
sg13
S'org.apache.http.conn.ssl.StrictHostnameVerifier'
p5435
sg15
(lp5436
sg17
(lp5437
sg19
(lp5438
sg21
I0
sbasg29
(lp5439
g430
ag437
ag444
ag451
ag458
ag465
ag472
ag479
ag486
ag493
ag500
ag507
ag514
ag521
ag528
ag535
ag542
ag549
ag556
ag563
ag570
ag577
ag584
ag591
ag598
ag605
ag612
ag619
ag626
ag633
ag640
ag647
ag654
ag661
ag668
ag675
ag682
ag689
ag696
ag703
ag710
ag717
ag724
ag731
ag738
ag745
ag752
ag759
ag766
ag773
ag780
ag787
ag794
ag801
ag808
ag815
ag822
ag829
ag836
ag843
ag850
ag857
ag864
ag871
ag878
ag885
ag892
ag899
ag906
ag913
ag920
ag927
ag934
ag941
ag948
ag955
ag962
ag969
ag976
ag983
ag990
ag997
ag1004
ag1011
ag1018
ag1025
ag1032
ag1039
ag1046
ag1053
ag1060
ag1067
ag1074
ag1081
ag1088
ag1095
ag1102
ag1109
ag1116
ag1123
ag1130
ag1137
ag1144
ag1151
ag1158
ag1165
ag1172
ag1179
ag1186
ag1193
ag1200
ag1207
ag1214
ag1221
ag1228
ag1235
ag1242
ag1249
ag1256
ag1263
ag1270
ag1277
ag1284
ag1291
ag1298
ag1305
ag1312
ag1319
ag1326
ag1333
ag1340
ag1347
ag1354
ag1361
ag1368
ag1375
ag1382
ag1389
ag1396
ag1403
ag1410
ag1417
ag1424
ag1431
ag1438
ag1445
ag1452
ag1459
ag1466
ag1473
ag1480
ag1487
ag1494
ag1501
ag1508
ag1515
ag1522
ag1529
ag1536
ag1543
ag1550
ag1557
ag1564
ag1571
ag1578
ag1585
ag1592
ag1599
ag1606
ag1613
ag1620
ag1627
ag1634
ag1641
ag1648
ag1655
ag1662
ag1669
ag1676
ag1683
ag1690
ag1697
ag1704
ag1711
ag1718
ag1725
ag1732
ag1739
ag1746
ag1753
ag1760
ag1767
ag1774
ag1781
ag1788
ag1795
ag1802
ag1809
ag1816
ag1823
ag1830
ag1837
ag1844
ag1851
ag1858
ag1865
ag1872
ag1879
ag1886
ag1893
ag1900
ag1907
ag1914
ag1921
ag1928
ag1935
ag1942
ag1949
ag1956
ag1963
ag1970
ag1977
ag1984
ag1991
ag1998
ag2005
ag2012
ag2019
ag2026
ag2033
ag2040
ag2047
ag2054
ag2061
ag2068
ag2075
ag2082
ag2089
ag2096
ag2103
ag2110
ag2117
ag2124
ag2131
ag2138
ag2145
ag2152
ag2159
ag2166
ag2173
ag2180
ag2187
ag2194
ag2201
ag2208
ag2215
ag2222
ag2229
ag2236
ag2243
ag2250
ag2257
ag2264
ag2271
ag2278
ag2285
ag2292
ag2299
ag2306
ag2313
ag2320
ag2327
ag2334
ag2341
ag2348
ag2355
ag2362
ag2369
ag2376
ag2383
ag2390
ag2397
ag2404
ag2411
ag2418
ag2425
ag2432
ag2439
ag2446
ag2453
ag2460
ag2467
ag2474
ag2481
ag2488
ag2495
ag2502
ag2509
ag2516
ag2523
ag2530
ag2537
ag2544
ag2551
ag2558
ag2565
ag2572
ag2579
ag2586
ag2593
ag2600
ag2607
ag2614
ag2621
ag2628
ag2635
ag2642
ag2649
ag2656
ag2663
ag2670
ag2677
ag2684
ag2691
ag2698
ag2705
ag2712
ag2719
ag2726
ag2733
ag2740
ag2747
ag2754
ag2761
ag2768
ag2775
ag2782
ag2789
ag2796
ag2803
ag2810
ag2817
ag2824
ag2831
ag2838
ag2845
ag2852
ag2859
ag2866
ag2873
ag2880
ag2887
ag2894
ag2901
ag2908
ag2915
ag2922
ag2929
ag2936
ag2943
ag2950
ag2957
ag2964
ag2971
ag2978
ag2985
ag2992
ag2999
ag3006
ag3013
ag3020
ag3027
ag3034
ag3041
ag3048
ag3055
ag3062
ag3069
ag3076
ag3083
ag3090
ag3097
ag3104
ag3111
ag3118
ag3125
ag3132
ag3139
ag3146
ag3153
ag3160
ag3167
ag3174
ag3181
ag3188
ag3195
ag3202
ag3209
ag3216
ag3223
ag3230
ag3237
ag3244
ag3251
ag3258
ag3265
ag3272
ag3279
ag3286
ag3293
ag3300
ag3307
ag3314
ag3321
ag3328
ag3335
ag3342
ag3349
ag3356
ag3363
ag3370
ag3377
ag3384
ag3391
ag3398
ag3405
ag3412
ag3419
ag3426
ag3433
ag3440
ag3447
ag3454
ag3461
ag3468
ag3475
ag3482
ag3489
ag3496
ag3503
ag3510
ag3517
ag3524
ag3531
ag3538
ag3545
ag3552
ag3559
ag3566
ag3573
ag3580
ag3587
ag3594
ag3601
ag3608
ag3615
ag3622
ag3629
ag3636
ag3643
ag3650
ag3657
ag3664
ag3671
ag3678
ag3685
ag3692
ag3699
ag3706
ag3713
ag3720
ag3727
ag3734
ag3741
ag3748
ag3755
ag3762
ag3769
ag3776
ag3783
ag3790
ag3797
ag3804
ag3811
ag3818
ag3825
ag3832
ag3839
ag3846
ag3853
ag3860
ag3867
ag3874
ag3881
ag3888
ag3895
ag3902
ag3909
ag3916
ag3923
ag3930
ag3937
ag3944
ag3951
ag3958
ag3965
ag3972
ag3979
ag3986
ag3993
ag4000
ag4007
ag4014
ag4021
ag4028
ag4035
ag4042
ag4049
ag4056
ag4063
ag4070
ag4077
ag4084
ag4091
ag4098
ag4105
ag4112
ag4119
ag4126
ag4133
ag4140
ag4147
ag4154
ag4161
ag4168
ag4175
ag4182
ag4189
ag4196
ag4203
ag4210
ag4217
ag4224
ag4231
ag4238
ag4245
ag4252
ag4259
ag4266
ag4273
ag4280
ag4287
ag4294
ag4301
ag4308
ag4315
ag4322
ag4329
ag4336
ag4343
ag4350
ag4357
ag4364
ag4371
ag4378
ag4385
ag4392
ag4399
ag4406
ag4413
ag4420
ag4427
ag4434
ag4441
ag4448
ag4455
ag4462
ag4469
ag4476
ag4483
ag4490
ag4497
ag4504
ag4511
ag4518
ag4525
ag4532
ag4539
ag4546
ag4553
ag4560
ag4567
ag4574
ag4581
ag4588
ag4595
ag4602
ag4609
ag4616
ag4623
ag4630
ag4637
ag4644
ag4651
ag4658
ag4665
ag4672
ag4679
ag4686
ag4693
ag4700
ag4707
ag4714
ag4721
ag4728
ag4735
ag4742
ag4749
ag4756
ag4763
ag4770
ag4777
ag4784
ag4791
ag4798
ag4805
ag4812
ag4819
ag4826
ag4833
ag4840
ag4847
ag4854
ag4861
ag4868
ag4875
ag4882
ag4889
ag4896
ag4903
ag4910
ag4917
ag4924
ag4931
ag4938
ag4945
ag4952
ag4959
ag4966
ag4973
ag4980
ag4987
ag4994
ag5001
ag5008
ag5015
ag5022
ag5029
ag5036
ag5043
ag5050
ag5057
ag5064
ag5071
ag5078
ag5085
ag5092
ag5099
ag5106
ag5113
ag5120
ag5127
ag5134
ag5141
ag5148
ag5155
ag5162
ag5169
ag5176
ag5183
ag5190
ag5197
ag5204
ag5211
ag5218
ag5225
ag5232
ag5239
ag5246
ag5253
ag5260
ag5267
ag5274
ag5281
ag5288
ag5295
ag5302
ag5309
ag5316
ag5323
ag5330
ag5337
ag5344
ag5351
ag5358
ag5365
ag5372
ag5379
ag5386
ag5393
ag5400
ag5407
ag5414
ag5421
ag5428
ag5435
asg21
I0
sg31
S'1223'
p5440
sba(iArchitecture
Cluster
p5441
(dp5442
g7
(lp5443
(iArchitecture
Entity
p5444
(dp5445
g11
(lp5446
sg13
S'android.hardware.CameraInfo'
p5447
sg15
(lp5448
sg17
(lp5449
sg19
(lp5450
sg21
I0
sba(iArchitecture
Entity
p5451
(dp5452
g11
(lp5453
sg13
S'android.hardware.CameraInfo$1'
p5454
sg15
(lp5455
sg17
(lp5456
sg19
(lp5457
sg21
I0
sba(iArchitecture
Entity
p5458
(dp5459
g11
(lp5460
sg13
S'android.hardware.camera2.impl.GetCommand'
p5461
sg15
(lp5462
sg17
(lp5463
sg19
(lp5464
sg21
I0
sba(iArchitecture
Entity
p5465
(dp5466
g11
(lp5467
sg13
S'android.opengl.EGLConfig'
p5468
sg15
(lp5469
sg17
(lp5470
sg19
(lp5471
sg21
I0
sba(iArchitecture
Entity
p5472
(dp5473
g11
(lp5474
sg13
S'android.security.keymaster.KeymasterBlob'
p5475
sg15
(lp5476
sg17
(lp5477
sg19
(lp5478
sg21
I0
sba(iArchitecture
Entity
p5479
(dp5480
g11
(lp5481
sg13
S'android.security.keymaster.KeymasterBlob$1'
p5482
sg15
(lp5483
sg17
(lp5484
sg19
(lp5485
sg21
I0
sba(iArchitecture
Entity
p5486
(dp5487
g11
(lp5488
sg13
S'android.security.keymaster.KeymasterBlobArgument'
p5489
sg15
(lp5490
sg17
(lp5491
sg19
(lp5492
sg21
I0
sba(iArchitecture
Entity
p5493
(dp5494
g11
(lp5495
sg13
S'android.security.keymaster.KeymasterBooleanArgument'
p5496
sg15
(lp5497
sg17
(lp5498
sg19
(lp5499
sg21
I0
sba(iArchitecture
Entity
p5500
(dp5501
g11
(lp5502
sg13
S'android.security.keymaster.KeymasterDateArgument'
p5503
sg15
(lp5504
sg17
(lp5505
sg19
(lp5506
sg21
I0
sba(iArchitecture
Entity
p5507
(dp5508
g11
(lp5509
sg13
S'android.security.keymaster.KeymasterIntArgument'
p5510
sg15
(lp5511
sg17
(lp5512
sg19
(lp5513
sg21
I0
sba(iArchitecture
Entity
p5514
(dp5515
g11
(lp5516
sg13
S'android.security.keymaster.KeymasterLongArgument'
p5517
sg15
(lp5518
sg17
(lp5519
sg19
(lp5520
sg21
I0
sba(iArchitecture
Entity
p5521
(dp5522
g11
(lp5523
sg13
S'com.android.internal.os.BackgroundThread'
p5524
sg15
(lp5525
sg17
(lp5526
sg19
(lp5527
sg21
I0
sba(iArchitecture
Entity
p5528
(dp5529
g11
(lp5530
sg13
S'com.android.internal.view.WindowManagerPolicyThread'
p5531
sg15
(lp5532
sg17
(lp5533
sg19
(lp5534
sg21
I0
sba(iArchitecture
Entity
p5535
(dp5536
g11
(lp5537
sg13
S'com.android.server.DisplayThread'
p5538
sg15
(lp5539
sg17
(lp5540
sg19
(lp5541
sg21
I0
sba(iArchitecture
Entity
p5542
(dp5543
g11
(lp5544
sg13
S'com.android.server.FgThread'
p5545
sg15
(lp5546
sg17
(lp5547
sg19
(lp5548
sg21
I0
sba(iArchitecture
Entity
p5549
(dp5550
g11
(lp5551
sg13
S'com.android.server.IoThread'
p5552
sg15
(lp5553
sg17
(lp5554
sg19
(lp5555
sg21
I0
sba(iArchitecture
Entity
p5556
(dp5557
g11
(lp5558
sg13
S'com.android.server.UiThread'
p5559
sg15
(lp5560
sg17
(lp5561
sg19
(lp5562
sg21
I0
sba(iArchitecture
Entity
p5563
(dp5564
g11
(lp5565
sg13
S'com.android.server.os.SchedulingPolicyService'
p5566
sg15
(lp5567
sg17
(lp5568
sg19
(lp5569
sg21
I0
sba(iArchitecture
Entity
p5570
(dp5571
g11
(lp5572
sg13
S'com.google.android.gles_jni.EGLConfigImpl'
p5573
sg15
(lp5574
sg17
(lp5575
sg19
(lp5576
sg21
I0
sbasg29
(lp5577
g5447
ag5454
ag5461
ag5468
ag5475
ag5482
ag5489
ag5496
ag5503
ag5510
ag5517
ag5524
ag5531
ag5538
ag5545
ag5552
ag5559
ag5566
ag5573
asg21
I0
sg31
S'1224'
p5578
sba(iArchitecture
Cluster
p5579
(dp5580
g7
(lp5581
(iArchitecture
Entity
p5582
(dp5583
g11
(lp5584
sg13
S'android.webkit.GeolocationPermissions'
p5585
sg15
(lp5586
sg17
(lp5587
sg19
(lp5588
sg21
I0
sba(iArchitecture
Entity
p5589
(dp5590
g11
(lp5591
sg13
S'android.webkit.GeolocationPermissions$Callback'
p5592
sg15
(lp5593
sg17
(lp5594
sg19
(lp5595
sg21
I0
sba(iArchitecture
Entity
p5596
(dp5597
g11
(lp5598
sg13
S'android.webkit.WebStorage'
p5599
sg15
(lp5600
sg17
(lp5601
sg19
(lp5602
sg21
I0
sba(iArchitecture
Entity
p5603
(dp5604
g11
(lp5605
sg13
S'android.webkit.WebStorage$Origin'
p5606
sg15
(lp5607
sg17
(lp5608
sg19
(lp5609
sg21
I0
sba(iArchitecture
Entity
p5610
(dp5611
g11
(lp5612
sg13
S'android.webkit.WebStorage$QuotaUpdater'
p5613
sg15
(lp5614
sg17
(lp5615
sg19
(lp5616
sg21
I0
sba(iArchitecture
Entity
p5617
(dp5618
g11
(lp5619
sg13
S'android.webkit.WebViewFactoryProvider'
p5620
sg15
(lp5621
sg17
(lp5622
sg19
(lp5623
sg21
I0
sba(iArchitecture
Entity
p5624
(dp5625
g11
(lp5626
sg13
S'android.webkit.WebViewFactoryProvider$Statics'
p5627
sg15
(lp5628
sg17
(lp5629
sg19
(lp5630
sg21
I0
sbasg29
(lp5631
g5585
ag5592
ag5599
ag5606
ag5613
ag5620
ag5627
asg21
I0
sg31
S'1225'
p5632
sba(iArchitecture
Cluster
p5633
(dp5634
g7
(lp5635
(iArchitecture
Entity
p5636
(dp5637
g11
(lp5638
sg13
S'android.transition.Transition'
p5639
sg15
(lp5640
sg17
(lp5641
sg19
(lp5642
sg21
I0
sba(iArchitecture
Entity
p5643
(dp5644
g11
(lp5645
sg13
S'android.transition.Transition$1'
p5646
sg15
(lp5647
sg17
(lp5648
sg19
(lp5649
sg21
I0
sba(iArchitecture
Entity
p5650
(dp5651
g11
(lp5652
sg13
S'android.transition.Transition$2'
p5653
sg15
(lp5654
sg17
(lp5655
sg19
(lp5656
sg21
I0
sba(iArchitecture
Entity
p5657
(dp5658
g11
(lp5659
sg13
S'android.transition.Transition$3'
p5660
sg15
(lp5661
sg17
(lp5662
sg19
(lp5663
sg21
I0
sba(iArchitecture
Entity
p5664
(dp5665
g11
(lp5666
sg13
S'android.transition.Transition$AnimationInfo'
p5667
sg15
(lp5668
sg17
(lp5669
sg19
(lp5670
sg21
I0
sba(iArchitecture
Entity
p5671
(dp5672
g11
(lp5673
sg13
S'android.transition.Transition$ArrayListManager'
p5674
sg15
(lp5675
sg17
(lp5676
sg19
(lp5677
sg21
I0
sba(iArchitecture
Entity
p5678
(dp5679
g11
(lp5680
sg13
S'android.transition.Transition$EpicenterCallback'
p5681
sg15
(lp5682
sg17
(lp5683
sg19
(lp5684
sg21
I0
sba(iArchitecture
Entity
p5685
(dp5686
g11
(lp5687
sg13
S'android.transition.Transition$TransitionListener'
p5688
sg15
(lp5689
sg17
(lp5690
sg19
(lp5691
sg21
I0
sba(iArchitecture
Entity
p5692
(dp5693
g11
(lp5694
sg13
S'android.transition.Transition$TransitionListenerAdapter'
p5695
sg15
(lp5696
sg17
(lp5697
sg19
(lp5698
sg21
I0
sba(iArchitecture
Entity
p5699
(dp5700
g11
(lp5701
sg13
S'android.transition.TransitionSet'
p5702
sg15
(lp5703
sg17
(lp5704
sg19
(lp5705
sg21
I0
sba(iArchitecture
Entity
p5706
(dp5707
g11
(lp5708
sg13
S'android.transition.TransitionSet$1'
p5709
sg15
(lp5710
sg17
(lp5711
sg19
(lp5712
sg21
I0
sba(iArchitecture
Entity
p5713
(dp5714
g11
(lp5715
sg13
S'android.transition.TransitionSet$TransitionSetListener'
p5716
sg15
(lp5717
sg17
(lp5718
sg19
(lp5719
sg21
I0
sbasg29
(lp5720
g5639
ag5646
ag5653
ag5660
ag5667
ag5674
ag5681
ag5688
ag5695
ag5702
ag5709
ag5716
asg21
I0
sg31
S'1226'
p5721
sba(iArchitecture
Cluster
p5722
(dp5723
g7
(lp5724
(iArchitecture
Entity
p5725
(dp5726
g11
(lp5727
sg13
S'android.net.RouteInfo'
p5728
sg15
(lp5729
sg17
(lp5730
sg19
(lp5731
sg21
I0
sba(iArchitecture
Entity
p5732
(dp5733
g11
(lp5734
sg13
S'android.net.RouteInfo$1'
p5735
sg15
(lp5736
sg17
(lp5737
sg19
(lp5738
sg21
I0
sba(iArchitecture
Entity
p5739
(dp5740
g11
(lp5741
sg13
S'android.net.StaticIpConfiguration'
p5742
sg15
(lp5743
sg17
(lp5744
sg19
(lp5745
sg21
I0
sba(iArchitecture
Entity
p5746
(dp5747
g11
(lp5748
sg13
S'android.net.StaticIpConfiguration$1'
p5749
sg15
(lp5750
sg17
(lp5751
sg19
(lp5752
sg21
I0
sbasg29
(lp5753
g5728
ag5735
ag5742
ag5749
asg21
I0
sg31
S'1227'
p5754
sba(iArchitecture
Cluster
p5755
(dp5756
g7
(lp5757
(iArchitecture
Entity
p5758
(dp5759
g11
(lp5760
sg13
S'android.app.Service'
p5761
sg15
(lp5762
sg17
(lp5763
sg19
(lp5764
sg21
I0
sba(iArchitecture
Entity
p5765
(dp5766
g11
(lp5767
sg13
S'android.service.voice.VoiceInteractionService'
p5768
sg15
(lp5769
sg17
(lp5770
sg19
(lp5771
sg21
I0
sba(iArchitecture
Entity
p5772
(dp5773
g11
(lp5774
sg13
S'android.service.voice.VoiceInteractionService$1'
p5775
sg15
(lp5776
sg17
(lp5777
sg19
(lp5778
sg21
I0
sba(iArchitecture
Entity
p5779
(dp5780
g11
(lp5781
sg13
S'android.service.voice.VoiceInteractionService$MyHandler'
p5782
sg15
(lp5783
sg17
(lp5784
sg19
(lp5785
sg21
I0
sbasg29
(lp5786
g5761
ag5768
ag5775
ag5782
asg21
I0
sg31
S'1228'
p5787
sba(iArchitecture
Cluster
p5788
(dp5789
g7
(lp5790
(iArchitecture
Entity
p5791
(dp5792
g11
(lp5793
sg13
S'android.sax.Element'
p5794
sg15
(lp5795
sg17
(lp5796
sg19
(lp5797
sg21
I0
sba(iArchitecture
Entity
p5798
(dp5799
g11
(lp5800
sg13
S'android.widget.ExpandableListPosition'
p5801
sg15
(lp5802
sg17
(lp5803
sg19
(lp5804
sg21
I0
sbasg29
(lp5805
g5794
ag5801
asg21
I0
sg31
S'1229'
p5806
sbasS'target_sub'
p5807
S'122'
p5808
sg29
(lp5809
sS'is_component_arch'
p5810
I01
sg31
S'6.0.0_r1'
p5811
sba.