(lp0
(iArchitecture
Architecture
p1
(dp2
S'clusters'
p3
(lp4
(iArchitecture
Cluster
p5
(dp6
S'entities'
p7
(lp8
(iArchitecture
Entity
p9
(dp10
S'issue_ids'
p11
(lp12
sS'name'
p13
S'android.media.SubtitleTrack'
p14
sS'descs'
p15
(lp16
sS'labels'
p17
(lp18
sS'titles'
p19
(lp20
sS'change'
p21
I0
sba(iArchitecture
Entity
p22
(dp23
g11
(lp24
sg13
S'android.media.SubtitleTrack$1'
p25
sg15
(lp26
sg17
(lp27
sg19
(lp28
sg21
I0
sba(iArchitecture
Entity
p29
(dp30
g11
(lp31
sg13
S'android.media.SubtitleTrack$Cue'
p32
sg15
(lp33
sg17
(lp34
sg19
(lp35
sg21
I0
sba(iArchitecture
Entity
p36
(dp37
g11
(lp38
sg13
S'android.media.SubtitleTrack$CueList'
p39
sg15
(lp40
sg17
(lp41
sg19
(lp42
sg21
I0
sba(iArchitecture
Entity
p43
(dp44
g11
(lp45
sg13
S'android.media.SubtitleTrack$CueList$1'
p46
sg15
(lp47
sg17
(lp48
sg19
(lp49
sg21
I0
sba(iArchitecture
Entity
p50
(dp51
g11
(lp52
sg13
S'android.media.SubtitleTrack$CueList$EntryIterator'
p53
sg15
(lp54
sg17
(lp55
sg19
(lp56
sg21
I0
sba(iArchitecture
Entity
p57
(dp58
g11
(lp59
sg13
S'android.media.SubtitleTrack$RenderingWidget'
p60
sg15
(lp61
sg17
(lp62
sg19
(lp63
sg21
I0
sba(iArchitecture
Entity
p64
(dp65
g11
(lp66
sg13
S'android.media.SubtitleTrack$RenderingWidget$OnChangedListener'
p67
sg15
(lp68
sg17
(lp69
sg19
(lp70
sg21
I0
sba(iArchitecture
Entity
p71
(dp72
g11
(lp73
sg13
S'android.media.SubtitleTrack$Run'
p74
sg15
(lp75
sg17
(lp76
sg19
(lp77
sg21
I0
sbasS'classes'
p78
(lp79
g14
ag25
ag32
ag39
ag46
ag53
ag60
ag67
ag74
asg21
I0
sS'label'
p80
S'1055'
p81
sba(iArchitecture
Cluster
p82
(dp83
g7
(lp84
(iArchitecture
Entity
p85
(dp86
g11
(lp87
sg13
S'android.bluetooth.BluetoothActivityEnergyInfo'
p88
sg15
(lp89
sg17
(lp90
sg19
(lp91
sg21
I0
sba(iArchitecture
Entity
p92
(dp93
g11
(lp94
sg13
S'android.bluetooth.BluetoothActivityEnergyInfo$1'
p95
sg15
(lp96
sg17
(lp97
sg19
(lp98
sg21
I0
sba(iArchitecture
Entity
p99
(dp100
g11
(lp101
sg13
S'android.net.wifi.WifiActivityEnergyInfo'
p102
sg15
(lp103
sg17
(lp104
sg19
(lp105
sg21
I0
sba(iArchitecture
Entity
p106
(dp107
g11
(lp108
sg13
S'android.net.wifi.WifiActivityEnergyInfo$1'
p109
sg15
(lp110
sg17
(lp111
sg19
(lp112
sg21
I0
sbasg78
(lp113
g88
ag95
ag102
ag109
asg21
I0
sg80
S'1155'
p114
sba(iArchitecture
Cluster
p115
(dp116
g7
(lp117
(iArchitecture
Entity
p118
(dp119
g11
(lp120
sg13
S'android.app.PackageInstallObserver'
p121
sg15
(lp122
sg17
(lp123
sg19
(lp124
sg21
I0
sba(iArchitecture
Entity
p125
(dp126
g11
(lp127
sg13
S'android.app.PackageInstallObserver$1'
p128
sg15
(lp129
sg17
(lp130
sg19
(lp131
sg21
I0
sba(iArchitecture
Entity
p132
(dp133
g11
(lp134
sg13
S'android.hardware.camera2.legacy.SizeAreaComparator'
p135
sg15
(lp136
sg17
(lp137
sg19
(lp138
sg21
I0
sba(iArchitecture
Entity
p139
(dp140
g11
(lp141
sg13
S'android.hardware.camera2.utils.SizeAreaComparator'
p142
sg15
(lp143
sg17
(lp144
sg19
(lp145
sg21
I0
sbasg78
(lp146
g121
ag128
ag135
ag142
asg21
I0
sg80
S'1255'
p147
sba(iArchitecture
Cluster
p148
(dp149
g7
(lp150
(iArchitecture
Entity
p151
(dp152
g11
(lp153
sg13
S'android.util.Property'
p154
sg15
(lp155
sg17
(lp156
sg19
(lp157
sg21
I0
sbasg78
(lp158
g154
asg21
I0
sg80
S'155'
p159
sba(iArchitecture
Cluster
p160
(dp161
g7
(lp162
(iArchitecture
Entity
p163
(dp164
g11
(lp165
sg13
S'com.android.server.wm.WindowToken'
p166
sg15
(lp167
sg17
(lp168
sg19
(lp169
sg21
I0
sbasg78
(lp170
g166
asg21
I0
sg80
S'255'
p171
sba(iArchitecture
Cluster
p172
(dp173
g7
(lp174
(iArchitecture
Entity
p175
(dp176
g11
(lp177
sg13
S'android.text.format.TimeFormatter'
p178
sg15
(lp179
sg17
(lp180
sg19
(lp181
sg21
I0
sbasg78
(lp182
g178
asg21
I0
sg80
S'355'
p183
sba(iArchitecture
Cluster
p184
(dp185
g7
(lp186
(iArchitecture
Entity
p187
(dp188
g11
(lp189
sg13
S'android.net.NetworkMisc'
p190
sg15
(lp191
sg17
(lp192
sg19
(lp193
sg21
I0
sba(iArchitecture
Entity
p194
(dp195
g11
(lp196
sg13
S'android.net.NetworkMisc$1'
p197
sg15
(lp198
sg17
(lp199
sg19
(lp200
sg21
I0
sbasg78
(lp201
g190
ag197
asg21
I0
sg80
S'455'
p202
sba(iArchitecture
Cluster
p203
(dp204
g7
(lp205
(iArchitecture
Entity
p206
(dp207
g11
(lp208
sg13
S'android.media.effect.EffectFactory'
p209
sg15
(lp210
sg17
(lp211
sg19
(lp212
sg21
I0
sbasg78
(lp213
g209
asg21
I0
sg80
S'55'
p214
sba(iArchitecture
Cluster
p215
(dp216
g7
(lp217
(iArchitecture
Entity
p218
(dp219
g11
(lp220
sg13
S'android.app.NativeActivity'
p221
sg15
(lp222
sg17
(lp223
sg19
(lp224
sg21
I0
sba(iArchitecture
Entity
p225
(dp226
g11
(lp227
sg13
S'android.app.NativeActivity$NativeContentView'
p228
sg15
(lp229
sg17
(lp230
sg19
(lp231
sg21
I0
sbasg78
(lp232
g221
ag228
asg21
I0
sg80
S'550'
p233
sba(iArchitecture
Cluster
p234
(dp235
g7
(lp236
(iArchitecture
Entity
p237
(dp238
g11
(lp239
sg13
S'android.net.DhcpResults'
p240
sg15
(lp241
sg17
(lp242
sg19
(lp243
sg21
I0
sba(iArchitecture
Entity
p244
(dp245
g11
(lp246
sg13
S'android.net.DhcpResults$1'
p247
sg15
(lp248
sg17
(lp249
sg19
(lp250
sg21
I0
sbasg78
(lp251
g240
ag247
asg21
I0
sg80
S'551'
p252
sba(iArchitecture
Cluster
p253
(dp254
g7
(lp255
(iArchitecture
Entity
p256
(dp257
g11
(lp258
sg13
S'com.android.internal.util.FastPrintWriter'
p259
sg15
(lp260
sg17
(lp261
sg19
(lp262
sg21
I0
sba(iArchitecture
Entity
p263
(dp264
g11
(lp265
sg13
S'com.android.internal.util.FastPrintWriter$DummyWriter'
p266
sg15
(lp267
sg17
(lp268
sg19
(lp269
sg21
I0
sbasg78
(lp270
g259
ag266
asg21
I0
sg80
S'552'
p271
sba(iArchitecture
Cluster
p272
(dp273
g7
(lp274
(iArchitecture
Entity
p275
(dp276
g11
(lp277
sg13
S'android.net.wifi.p2p.WifiP2pConfig'
p278
sg15
(lp279
sg17
(lp280
sg19
(lp281
sg21
I0
sba(iArchitecture
Entity
p282
(dp283
g11
(lp284
sg13
S'android.net.wifi.p2p.WifiP2pConfig$1'
p285
sg15
(lp286
sg17
(lp287
sg19
(lp288
sg21
I0
sbasg78
(lp289
g278
ag285
asg21
I0
sg80
S'553'
p290
sba(iArchitecture
Cluster
p291
(dp292
g7
(lp293
(iArchitecture
Entity
p294
(dp295
g11
(lp296
sg13
S'android.hardware.hdmi.HdmiRecordListener'
p297
sg15
(lp298
sg17
(lp299
sg19
(lp300
sg21
I0
sba(iArchitecture
Entity
p301
(dp302
g11
(lp303
sg13
S'android.hardware.hdmi.HdmiRecordListener$TimerStatusData'
p304
sg15
(lp305
sg17
(lp306
sg19
(lp307
sg21
I0
sbasg78
(lp308
g297
ag304
asg21
I0
sg80
S'554'
p309
sba(iArchitecture
Cluster
p310
(dp311
g7
(lp312
(iArchitecture
Entity
p313
(dp314
g11
(lp315
sg13
S'android.hardware.usb.UsbEndpoint'
p316
sg15
(lp317
sg17
(lp318
sg19
(lp319
sg21
I0
sba(iArchitecture
Entity
p320
(dp321
g11
(lp322
sg13
S'android.hardware.usb.UsbEndpoint$1'
p323
sg15
(lp324
sg17
(lp325
sg19
(lp326
sg21
I0
sbasg78
(lp327
g316
ag323
asg21
I0
sg80
S'555'
p328
sba(iArchitecture
Cluster
p329
(dp330
g7
(lp331
(iArchitecture
Entity
p332
(dp333
g11
(lp334
sg13
S'com.android.server.notification.NotificationIntrusivenessExtractor'
p335
sg15
(lp336
sg17
(lp337
sg19
(lp338
sg21
I0
sba(iArchitecture
Entity
p339
(dp340
g11
(lp341
sg13
S'com.android.server.notification.NotificationIntrusivenessExtractor$1'
p342
sg15
(lp343
sg17
(lp344
sg19
(lp345
sg21
I0
sbasg78
(lp346
g335
ag342
asg21
I0
sg80
S'556'
p347
sba(iArchitecture
Cluster
p348
(dp349
g7
(lp350
(iArchitecture
Entity
p351
(dp352
g11
(lp353
sg13
S'android.webkit.CacheManager'
p354
sg15
(lp355
sg17
(lp356
sg19
(lp357
sg21
I0
sba(iArchitecture
Entity
p358
(dp359
g11
(lp360
sg13
S'android.webkit.CacheManager$CacheResult'
p361
sg15
(lp362
sg17
(lp363
sg19
(lp364
sg21
I0
sbasg78
(lp365
g354
ag361
asg21
I0
sg80
S'557'
p366
sba(iArchitecture
Cluster
p367
(dp368
g7
(lp369
(iArchitecture
Entity
p370
(dp371
g11
(lp372
sg13
S'com.android.server.wm.KeyguardDisableHandler'
p373
sg15
(lp374
sg17
(lp375
sg19
(lp376
sg21
I0
sba(iArchitecture
Entity
p377
(dp378
g11
(lp379
sg13
S'com.android.server.wm.KeyguardDisableHandler$KeyguardTokenWatcher'
p380
sg15
(lp381
sg17
(lp382
sg19
(lp383
sg21
I0
sbasg78
(lp384
g373
ag380
asg21
I0
sg80
S'558'
p385
sba(iArchitecture
Cluster
p386
(dp387
g7
(lp388
(iArchitecture
Entity
p389
(dp390
g11
(lp391
sg13
S'android.net.wifi.p2p.WifiP2pDevice'
p392
sg15
(lp393
sg17
(lp394
sg19
(lp395
sg21
I0
sba(iArchitecture
Entity
p396
(dp397
g11
(lp398
sg13
S'android.net.wifi.p2p.WifiP2pDevice$1'
p399
sg15
(lp400
sg17
(lp401
sg19
(lp402
sg21
I0
sbasg78
(lp403
g392
ag399
asg21
I0
sg80
S'559'
p404
sba(iArchitecture
Cluster
p405
(dp406
g7
(lp407
(iArchitecture
Entity
p408
(dp409
g11
(lp410
sg13
S'android.graphics.BitmapFactory'
p411
sg15
(lp412
sg17
(lp413
sg19
(lp414
sg21
I0
sba(iArchitecture
Entity
p415
(dp416
g11
(lp417
sg13
S'android.graphics.BitmapFactory$Options'
p418
sg15
(lp419
sg17
(lp420
sg19
(lp421
sg21
I0
sbasg78
(lp422
g411
ag418
asg21
I0
sg80
S'655'
p423
sba(iArchitecture
Cluster
p424
(dp425
g7
(lp426
(iArchitecture
Entity
p427
(dp428
g11
(lp429
sg13
S'android.print.PrinterCapabilitiesInfo'
p430
sg15
(lp431
sg17
(lp432
sg19
(lp433
sg21
I0
sba(iArchitecture
Entity
p434
(dp435
g11
(lp436
sg13
S'android.print.PrinterCapabilitiesInfo$1'
p437
sg15
(lp438
sg17
(lp439
sg19
(lp440
sg21
I0
sba(iArchitecture
Entity
p441
(dp442
g11
(lp443
sg13
S'android.print.PrinterCapabilitiesInfo$Builder'
p444
sg15
(lp445
sg17
(lp446
sg19
(lp447
sg21
I0
sbasg78
(lp448
g430
ag437
ag444
asg21
I0
sg80
S'755'
p449
sba(iArchitecture
Cluster
p450
(dp451
g7
(lp452
(iArchitecture
Entity
p453
(dp454
g11
(lp455
sg13
S'android.graphics.drawable.RippleBackground'
p456
sg15
(lp457
sg17
(lp458
sg19
(lp459
sg21
I0
sba(iArchitecture
Entity
p460
(dp461
g11
(lp462
sg13
S'android.graphics.drawable.RippleBackground$1'
p463
sg15
(lp464
sg17
(lp465
sg19
(lp466
sg21
I0
sba(iArchitecture
Entity
p467
(dp468
g11
(lp469
sg13
S'android.graphics.drawable.RippleBackground$BackgroundProperty'
p470
sg15
(lp471
sg17
(lp472
sg19
(lp473
sg21
I0
sbasg78
(lp474
g456
ag463
ag470
asg21
I0
sg80
S'855'
p475
sba(iArchitecture
Cluster
p476
(dp477
g7
(lp478
(iArchitecture
Entity
p479
(dp480
g11
(lp481
sg13
S'com.android.server.LockSettingsStorage'
p482
sg15
(lp483
sg17
(lp484
sg19
(lp485
sg21
I0
sba(iArchitecture
Entity
p486
(dp487
g11
(lp488
sg13
S'com.android.server.LockSettingsStorage$Cache'
p489
sg15
(lp490
sg17
(lp491
sg19
(lp492
sg21
I0
sba(iArchitecture
Entity
p493
(dp494
g11
(lp495
sg13
S'com.android.server.LockSettingsStorage$Cache$CacheKey'
p496
sg15
(lp497
sg17
(lp498
sg19
(lp499
sg21
I0
sba(iArchitecture
Entity
p500
(dp501
g11
(lp502
sg13
S'com.android.server.LockSettingsStorage$Callback'
p503
sg15
(lp504
sg17
(lp505
sg19
(lp506
sg21
I0
sba(iArchitecture
Entity
p507
(dp508
g11
(lp509
sg13
S'com.android.server.LockSettingsStorage$CredentialHash'
p510
sg15
(lp511
sg17
(lp512
sg19
(lp513
sg21
I0
sba(iArchitecture
Entity
p514
(dp515
g11
(lp516
sg13
S'com.android.server.LockSettingsStorage$DatabaseHelper'
p517
sg15
(lp518
sg17
(lp519
sg19
(lp520
sg21
I0
sbasg78
(lp521
g482
ag489
ag496
ag503
ag510
ag517
asg21
I0
sg80
S'955'
p522
sbasS'target_sub'
p523
S'55'
p524
sg78
(lp525
sS'is_component_arch'
p526
I01
sg80
S'6.0.0_r1'
p527
sba.