(lp0
(iArchitecture
Architecture
p1
(dp2
S'clusters'
p3
(lp4
(iArchitecture
Cluster
p5
(dp6
S'entities'
p7
(lp8
(iArchitecture
Entity
p9
(dp10
S'issue_ids'
p11
(lp12
sS'name'
p13
S'android.telephony.CellSignalStrengthGsm'
p14
sS'descs'
p15
(lp16
sS'labels'
p17
(lp18
sS'titles'
p19
(lp20
sS'change'
p21
I0
sba(iArchitecture
Entity
p22
(dp23
g11
(lp24
sg13
S'android.telephony.CellSignalStrengthGsm$1'
p25
sg15
(lp26
sg17
(lp27
sg19
(lp28
sg21
I0
sba(iArchitecture
Entity
p29
(dp30
g11
(lp31
sg13
S'android.telephony.CellSignalStrengthWcdma'
p32
sg15
(lp33
sg17
(lp34
sg19
(lp35
sg21
I0
sba(iArchitecture
Entity
p36
(dp37
g11
(lp38
sg13
S'android.telephony.CellSignalStrengthWcdma$1'
p39
sg15
(lp40
sg17
(lp41
sg19
(lp42
sg21
I0
sbasS'classes'
p43
(lp44
g14
ag25
ag32
ag39
asg21
I0
sS'label'
p45
S'1116'
p46
sba(iArchitecture
Cluster
p47
(dp48
g7
(lp49
(iArchitecture
Entity
p50
(dp51
g11
(lp52
sg13
S'android.graphics.ColorMatrix'
p53
sg15
(lp54
sg17
(lp55
sg19
(lp56
sg21
I0
sbasg43
(lp57
g53
asg21
I0
sg45
S'116'
p58
sba(iArchitecture
Cluster
p59
(dp60
g7
(lp61
(iArchitecture
Entity
p62
(dp63
g11
(lp64
sg13
S'android.renderscript.RSSurfaceView'
p65
sg15
(lp66
sg17
(lp67
sg19
(lp68
sg21
I0
sba(iArchitecture
Entity
p69
(dp70
g11
(lp71
sg13
S'android.renderscript.RSTextureView'
p72
sg15
(lp73
sg17
(lp74
sg19
(lp75
sg21
I0
sbasg43
(lp76
g65
ag72
asg21
I0
sg45
S'1160'
p77
sba(iArchitecture
Cluster
p78
(dp79
g7
(lp80
(iArchitecture
Entity
p81
(dp82
g11
(lp83
sg13
S'android.widget.CursorAdapter'
p84
sg15
(lp85
sg17
(lp86
sg19
(lp87
sg21
I0
sba(iArchitecture
Entity
p88
(dp89
g11
(lp90
sg13
S'android.widget.CursorAdapter$ChangeObserver'
p91
sg15
(lp92
sg17
(lp93
sg19
(lp94
sg21
I0
sba(iArchitecture
Entity
p95
(dp96
g11
(lp97
sg13
S'android.widget.CursorAdapter$MyDataSetObserver'
p98
sg15
(lp99
sg17
(lp100
sg19
(lp101
sg21
I0
sba(iArchitecture
Entity
p102
(dp103
g11
(lp104
sg13
S'android.widget.CursorTreeAdapter'
p105
sg15
(lp106
sg17
(lp107
sg19
(lp108
sg21
I0
sba(iArchitecture
Entity
p109
(dp110
g11
(lp111
sg13
S'android.widget.CursorTreeAdapter$MyCursorHelper'
p112
sg15
(lp113
sg17
(lp114
sg19
(lp115
sg21
I0
sba(iArchitecture
Entity
p116
(dp117
g11
(lp118
sg13
S'android.widget.CursorTreeAdapter$MyCursorHelper$MyContentObserver'
p119
sg15
(lp120
sg17
(lp121
sg19
(lp122
sg21
I0
sba(iArchitecture
Entity
p123
(dp124
g11
(lp125
sg13
S'android.widget.CursorTreeAdapter$MyCursorHelper$MyDataSetObserver'
p126
sg15
(lp127
sg17
(lp128
sg19
(lp129
sg21
I0
sbasg43
(lp130
g84
ag91
ag98
ag105
ag112
ag119
ag126
asg21
I0
sg45
S'1161'
p131
sba(iArchitecture
Cluster
p132
(dp133
g7
(lp134
(iArchitecture
Entity
p135
(dp136
g11
(lp137
sg13
S'com.android.server.notification.CountdownConditionProvider'
p138
sg15
(lp139
sg17
(lp140
sg19
(lp141
sg21
I0
sba(iArchitecture
Entity
p142
(dp143
g11
(lp144
sg13
S'com.android.server.notification.CountdownConditionProvider$Receiver'
p145
sg15
(lp146
sg17
(lp147
sg19
(lp148
sg21
I0
sba(iArchitecture
Entity
p149
(dp150
g11
(lp151
sg13
S'com.android.server.notification.EventConditionProvider'
p152
sg15
(lp153
sg17
(lp154
sg19
(lp155
sg21
I0
sba(iArchitecture
Entity
p156
(dp157
g11
(lp158
sg13
S'com.android.server.notification.EventConditionProvider$1'
p159
sg15
(lp160
sg17
(lp161
sg19
(lp162
sg21
I0
sba(iArchitecture
Entity
p163
(dp164
g11
(lp165
sg13
S'com.android.server.notification.EventConditionProvider$2'
p166
sg15
(lp167
sg17
(lp168
sg19
(lp169
sg21
I0
sba(iArchitecture
Entity
p170
(dp171
g11
(lp172
sg13
S'com.android.server.notification.EventConditionProvider$3'
p173
sg15
(lp174
sg17
(lp175
sg19
(lp176
sg21
I0
sba(iArchitecture
Entity
p177
(dp178
g11
(lp179
sg13
S'com.android.server.notification.EventConditionProvider$4'
p180
sg15
(lp181
sg17
(lp182
sg19
(lp183
sg21
I0
sba(iArchitecture
Entity
p184
(dp185
g11
(lp186
sg13
S'com.android.server.notification.ScheduleConditionProvider'
p187
sg15
(lp188
sg17
(lp189
sg19
(lp190
sg21
I0
sba(iArchitecture
Entity
p191
(dp192
g11
(lp193
sg13
S'com.android.server.notification.ScheduleConditionProvider$1'
p194
sg15
(lp195
sg17
(lp196
sg19
(lp197
sg21
I0
sbasg43
(lp198
g138
ag145
ag152
ag159
ag166
ag173
ag180
ag187
ag194
asg21
I0
sg45
S'1162'
p199
sba(iArchitecture
Cluster
p200
(dp201
g7
(lp202
(iArchitecture
Entity
p203
(dp204
g11
(lp205
sg13
S'com.android.server.hdmi.DevicePowerStatusAction'
p206
sg15
(lp207
sg17
(lp208
sg19
(lp209
sg21
I0
sba(iArchitecture
Entity
p210
(dp211
g11
(lp212
sg13
S'com.android.server.hdmi.DeviceSelectAction'
p213
sg15
(lp214
sg17
(lp215
sg19
(lp216
sg21
I0
sba(iArchitecture
Entity
p217
(dp218
g11
(lp219
sg13
S'com.android.server.hdmi.DeviceSelectAction$1'
p220
sg15
(lp221
sg17
(lp222
sg19
(lp223
sg21
I0
sba(iArchitecture
Entity
p224
(dp225
g11
(lp226
sg13
S'com.android.server.hdmi.OneTouchPlayAction'
p227
sg15
(lp228
sg17
(lp229
sg19
(lp230
sg21
I0
sba(iArchitecture
Entity
p231
(dp232
g11
(lp233
sg13
S'com.android.server.hdmi.PowerStatusMonitorAction'
p234
sg15
(lp235
sg17
(lp236
sg19
(lp237
sg21
I0
sba(iArchitecture
Entity
p238
(dp239
g11
(lp240
sg13
S'com.android.server.hdmi.PowerStatusMonitorAction$1'
p241
sg15
(lp242
sg17
(lp243
sg19
(lp244
sg21
I0
sba(iArchitecture
Entity
p245
(dp246
g11
(lp247
sg13
S'com.android.server.hdmi.RoutingControlAction'
p248
sg15
(lp249
sg17
(lp250
sg19
(lp251
sg21
I0
sba(iArchitecture
Entity
p252
(dp253
g11
(lp254
sg13
S'com.android.server.hdmi.RoutingControlAction$1'
p255
sg15
(lp256
sg17
(lp257
sg19
(lp258
sg21
I0
sbasg43
(lp259
g206
ag213
ag220
ag227
ag234
ag241
ag248
ag255
asg21
I0
sg45
S'1163'
p260
sba(iArchitecture
Cluster
p261
(dp262
g7
(lp263
(iArchitecture
Entity
p264
(dp265
g11
(lp266
sg13
S'android.database.sqlite.SQLiteDatabaseConfiguration'
p267
sg15
(lp268
sg17
(lp269
sg19
(lp270
sg21
I0
sba(iArchitecture
Entity
p271
(dp272
g11
(lp273
sg13
S'android.speech.tts.Voice'
p274
sg15
(lp275
sg17
(lp276
sg19
(lp277
sg21
I0
sba(iArchitecture
Entity
p278
(dp279
g11
(lp280
sg13
S'android.speech.tts.Voice$1'
p281
sg15
(lp282
sg17
(lp283
sg19
(lp284
sg21
I0
sbasg43
(lp285
g267
ag274
ag281
asg21
I0
sg45
S'1164'
p286
sba(iArchitecture
Cluster
p287
(dp288
g7
(lp289
(iArchitecture
Entity
p290
(dp291
g11
(lp292
sg13
S'android.app.UiModeManager'
p293
sg15
(lp294
sg17
(lp295
sg19
(lp296
sg21
I0
sba(iArchitecture
Entity
p297
(dp298
g11
(lp299
sg13
S'com.android.server.UiModeManagerService'
p300
sg15
(lp301
sg17
(lp302
sg19
(lp303
sg21
I0
sba(iArchitecture
Entity
p304
(dp305
g11
(lp306
sg13
S'com.android.server.UiModeManagerService$1'
p307
sg15
(lp308
sg17
(lp309
sg19
(lp310
sg21
I0
sba(iArchitecture
Entity
p311
(dp312
g11
(lp313
sg13
S'com.android.server.UiModeManagerService$2'
p314
sg15
(lp315
sg17
(lp316
sg19
(lp317
sg21
I0
sba(iArchitecture
Entity
p318
(dp319
g11
(lp320
sg13
S'com.android.server.UiModeManagerService$3'
p321
sg15
(lp322
sg17
(lp323
sg19
(lp324
sg21
I0
sba(iArchitecture
Entity
p325
(dp326
g11
(lp327
sg13
S'com.android.server.UiModeManagerService$4'
p328
sg15
(lp329
sg17
(lp330
sg19
(lp331
sg21
I0
sba(iArchitecture
Entity
p332
(dp333
g11
(lp334
sg13
S'com.android.server.UiModeManagerService$5'
p335
sg15
(lp336
sg17
(lp337
sg19
(lp338
sg21
I0
sbasg43
(lp339
g293
ag300
ag307
ag314
ag321
ag328
ag335
asg21
I0
sg45
S'1165'
p340
sba(iArchitecture
Cluster
p341
(dp342
g7
(lp343
(iArchitecture
Entity
p344
(dp345
g11
(lp346
sg13
S'android.service.trust.TrustAgentService'
p347
sg15
(lp348
sg17
(lp349
sg19
(lp350
sg21
I0
sba(iArchitecture
Entity
p351
(dp352
g11
(lp353
sg13
S'android.service.trust.TrustAgentService$1'
p354
sg15
(lp355
sg17
(lp356
sg19
(lp357
sg21
I0
sba(iArchitecture
Entity
p358
(dp359
g11
(lp360
sg13
S'android.service.trust.TrustAgentService$2'
p361
sg15
(lp362
sg17
(lp363
sg19
(lp364
sg21
I0
sba(iArchitecture
Entity
p365
(dp366
g11
(lp367
sg13
S'android.service.trust.TrustAgentService$ConfigurationData'
p368
sg15
(lp369
sg17
(lp370
sg19
(lp371
sg21
I0
sba(iArchitecture
Entity
p372
(dp373
g11
(lp374
sg13
S'android.service.trust.TrustAgentService$TrustAgentServiceWrapper'
p375
sg15
(lp376
sg17
(lp377
sg19
(lp378
sg21
I0
sba(iArchitecture
Entity
p379
(dp380
g11
(lp381
sg13
S'com.android.server.trust.TrustAgentWrapper'
p382
sg15
(lp383
sg17
(lp384
sg19
(lp385
sg21
I0
sba(iArchitecture
Entity
p386
(dp387
g11
(lp388
sg13
S'com.android.server.trust.TrustAgentWrapper$1'
p389
sg15
(lp390
sg17
(lp391
sg19
(lp392
sg21
I0
sba(iArchitecture
Entity
p393
(dp394
g11
(lp395
sg13
S'com.android.server.trust.TrustAgentWrapper$2'
p396
sg15
(lp397
sg17
(lp398
sg19
(lp399
sg21
I0
sba(iArchitecture
Entity
p400
(dp401
g11
(lp402
sg13
S'com.android.server.trust.TrustAgentWrapper$3'
p403
sg15
(lp404
sg17
(lp405
sg19
(lp406
sg21
I0
sba(iArchitecture
Entity
p407
(dp408
g11
(lp409
sg13
S'com.android.server.trust.TrustAgentWrapper$4'
p410
sg15
(lp411
sg17
(lp412
sg19
(lp413
sg21
I0
sbasg43
(lp414
g347
ag354
ag361
ag368
ag375
ag382
ag389
ag396
ag403
ag410
asg21
I0
sg45
S'1166'
p415
sba(iArchitecture
Cluster
p416
(dp417
g7
(lp418
(iArchitecture
Entity
p419
(dp420
g11
(lp421
sg13
S'android.net.dhcp.DhcpClient'
p422
sg15
(lp423
sg17
(lp424
sg19
(lp425
sg21
I0
sba(iArchitecture
Entity
p426
(dp427
g11
(lp428
sg13
S'android.net.dhcp.DhcpClient$1'
p429
sg15
(lp430
sg17
(lp431
sg19
(lp432
sg21
I0
sba(iArchitecture
Entity
p433
(dp434
g11
(lp435
sg13
S'android.net.dhcp.DhcpClient$DhcpBoundState'
p436
sg15
(lp437
sg17
(lp438
sg19
(lp439
sg21
I0
sba(iArchitecture
Entity
p440
(dp441
g11
(lp442
sg13
S'android.net.dhcp.DhcpClient$DhcpHaveAddressState'
p443
sg15
(lp444
sg17
(lp445
sg19
(lp446
sg21
I0
sba(iArchitecture
Entity
p447
(dp448
g11
(lp449
sg13
S'android.net.dhcp.DhcpClient$DhcpInitRebootState'
p450
sg15
(lp451
sg17
(lp452
sg19
(lp453
sg21
I0
sba(iArchitecture
Entity
p454
(dp455
g11
(lp456
sg13
S'android.net.dhcp.DhcpClient$DhcpInitState'
p457
sg15
(lp458
sg17
(lp459
sg19
(lp460
sg21
I0
sba(iArchitecture
Entity
p461
(dp462
g11
(lp463
sg13
S'android.net.dhcp.DhcpClient$DhcpRebindingState'
p464
sg15
(lp465
sg17
(lp466
sg19
(lp467
sg21
I0
sba(iArchitecture
Entity
p468
(dp469
g11
(lp470
sg13
S'android.net.dhcp.DhcpClient$DhcpRebootingState'
p471
sg15
(lp472
sg17
(lp473
sg19
(lp474
sg21
I0
sba(iArchitecture
Entity
p475
(dp476
g11
(lp477
sg13
S'android.net.dhcp.DhcpClient$DhcpRenewingState'
p478
sg15
(lp479
sg17
(lp480
sg19
(lp481
sg21
I0
sba(iArchitecture
Entity
p482
(dp483
g11
(lp484
sg13
S'android.net.dhcp.DhcpClient$DhcpRequestingState'
p485
sg15
(lp486
sg17
(lp487
sg19
(lp488
sg21
I0
sba(iArchitecture
Entity
p489
(dp490
g11
(lp491
sg13
S'android.net.dhcp.DhcpClient$DhcpSelectingState'
p492
sg15
(lp493
sg17
(lp494
sg19
(lp495
sg21
I0
sba(iArchitecture
Entity
p496
(dp497
g11
(lp498
sg13
S'android.net.dhcp.DhcpClient$DhcpState'
p499
sg15
(lp500
sg17
(lp501
sg19
(lp502
sg21
I0
sba(iArchitecture
Entity
p503
(dp504
g11
(lp505
sg13
S'android.net.dhcp.DhcpClient$LoggingState'
p506
sg15
(lp507
sg17
(lp508
sg19
(lp509
sg21
I0
sba(iArchitecture
Entity
p510
(dp511
g11
(lp512
sg13
S'android.net.dhcp.DhcpClient$PacketRetransmittingState'
p513
sg15
(lp514
sg17
(lp515
sg19
(lp516
sg21
I0
sba(iArchitecture
Entity
p517
(dp518
g11
(lp519
sg13
S'android.net.dhcp.DhcpClient$ReceiveThread'
p520
sg15
(lp521
sg17
(lp522
sg19
(lp523
sg21
I0
sba(iArchitecture
Entity
p524
(dp525
g11
(lp526
sg13
S'android.net.dhcp.DhcpClient$StoppedState'
p527
sg15
(lp528
sg17
(lp529
sg19
(lp530
sg21
I0
sba(iArchitecture
Entity
p531
(dp532
g11
(lp533
sg13
S'android.net.dhcp.DhcpClient$WaitBeforeOtherState'
p534
sg15
(lp535
sg17
(lp536
sg19
(lp537
sg21
I0
sba(iArchitecture
Entity
p538
(dp539
g11
(lp540
sg13
S'android.net.dhcp.DhcpClient$WaitBeforeRenewalState'
p541
sg15
(lp542
sg17
(lp543
sg19
(lp544
sg21
I0
sba(iArchitecture
Entity
p545
(dp546
g11
(lp547
sg13
S'android.net.dhcp.DhcpClient$WaitBeforeStartState'
p548
sg15
(lp549
sg17
(lp550
sg19
(lp551
sg21
I0
sba(iArchitecture
Entity
p552
(dp553
g11
(lp554
sg13
S'android.net.dhcp.DhcpPacket'
p555
sg15
(lp556
sg17
(lp557
sg19
(lp558
sg21
I0
sbasg43
(lp559
g422
ag429
ag436
ag443
ag450
ag457
ag464
ag471
ag478
ag485
ag492
ag499
ag506
ag513
ag520
ag527
ag534
ag541
ag548
ag555
asg21
I0
sg45
S'1167'
p560
sba(iArchitecture
Cluster
p561
(dp562
g7
(lp563
(iArchitecture
Entity
p564
(dp565
g11
(lp566
sg13
S'com.android.internal.app.MediaRouteChooserDialogFragment'
p567
sg15
(lp568
sg17
(lp569
sg19
(lp570
sg21
I0
sba(iArchitecture
Entity
p571
(dp572
g11
(lp573
sg13
S'com.android.internal.app.MediaRouteDialogPresenter'
p574
sg15
(lp575
sg17
(lp576
sg19
(lp577
sg21
I0
sbasg43
(lp578
g567
ag574
asg21
I0
sg45
S'1168'
p579
sba(iArchitecture
Cluster
p580
(dp581
g7
(lp582
(iArchitecture
Entity
p583
(dp584
g11
(lp585
sg13
S'android.filterpacks.videosrc.MediaSource'
p586
sg15
(lp587
sg17
(lp588
sg19
(lp589
sg21
I0
sba(iArchitecture
Entity
p590
(dp591
g11
(lp592
sg13
S'android.filterpacks.videosrc.MediaSource$1'
p593
sg15
(lp594
sg17
(lp595
sg19
(lp596
sg21
I0
sba(iArchitecture
Entity
p597
(dp598
g11
(lp599
sg13
S'android.filterpacks.videosrc.MediaSource$2'
p600
sg15
(lp601
sg17
(lp602
sg19
(lp603
sg21
I0
sba(iArchitecture
Entity
p604
(dp605
g11
(lp606
sg13
S'android.filterpacks.videosrc.MediaSource$3'
p607
sg15
(lp608
sg17
(lp609
sg19
(lp610
sg21
I0
sba(iArchitecture
Entity
p611
(dp612
g11
(lp613
sg13
S'android.filterpacks.videosrc.MediaSource$4'
p614
sg15
(lp615
sg17
(lp616
sg19
(lp617
sg21
I0
sba(iArchitecture
Entity
p618
(dp619
g11
(lp620
sg13
S'android.filterpacks.videosrc.SurfaceTextureSource'
p621
sg15
(lp622
sg17
(lp623
sg19
(lp624
sg21
I0
sba(iArchitecture
Entity
p625
(dp626
g11
(lp627
sg13
S'android.filterpacks.videosrc.SurfaceTextureSource$1'
p628
sg15
(lp629
sg17
(lp630
sg19
(lp631
sg21
I0
sba(iArchitecture
Entity
p632
(dp633
g11
(lp634
sg13
S'android.filterpacks.videosrc.SurfaceTextureSource$SurfaceTextureSourceListener'
p635
sg15
(lp636
sg17
(lp637
sg19
(lp638
sg21
I0
sbasg43
(lp639
g586
ag593
ag600
ag607
ag614
ag621
ag628
ag635
asg21
I0
sg45
S'1169'
p640
sbasS'target_sub'
p641
S'116'
p642
sg43
(lp643
sS'is_component_arch'
p644
I01
sg45
S'6.0.0_r1'
p645
sba.