(lp0
(iArchitecture
Architecture
p1
(dp2
S'clusters'
p3
(lp4
(iArchitecture
Cluster
p5
(dp6
S'entities'
p7
(lp8
(iArchitecture
Entity
p9
(dp10
S'issue_ids'
p11
(lp12
sS'name'
p13
S'android.hardware.soundtrigger.SoundTrigger'
p14
sS'descs'
p15
(lp16
sS'labels'
p17
(lp18
sS'titles'
p19
(lp20
sS'change'
p21
I0
sba(iArchitecture
Entity
p22
(dp23
g11
(lp24
sg13
S'android.hardware.soundtrigger.SoundTrigger$ConfidenceLevel'
p25
sg15
(lp26
sg17
(lp27
sg19
(lp28
sg21
I0
sba(iArchitecture
Entity
p29
(dp30
g11
(lp31
sg13
S'android.hardware.soundtrigger.SoundTrigger$ConfidenceLevel$1'
p32
sg15
(lp33
sg17
(lp34
sg19
(lp35
sg21
I0
sba(iArchitecture
Entity
p36
(dp37
g11
(lp38
sg13
S'android.hardware.soundtrigger.SoundTrigger$Keyphrase'
p39
sg15
(lp40
sg17
(lp41
sg19
(lp42
sg21
I0
sba(iArchitecture
Entity
p43
(dp44
g11
(lp45
sg13
S'android.hardware.soundtrigger.SoundTrigger$Keyphrase$1'
p46
sg15
(lp47
sg17
(lp48
sg19
(lp49
sg21
I0
sba(iArchitecture
Entity
p50
(dp51
g11
(lp52
sg13
S'android.hardware.soundtrigger.SoundTrigger$KeyphraseRecognitionEvent'
p53
sg15
(lp54
sg17
(lp55
sg19
(lp56
sg21
I0
sba(iArchitecture
Entity
p57
(dp58
g11
(lp59
sg13
S'android.hardware.soundtrigger.SoundTrigger$KeyphraseRecognitionEvent$1'
p60
sg15
(lp61
sg17
(lp62
sg19
(lp63
sg21
I0
sba(iArchitecture
Entity
p64
(dp65
g11
(lp66
sg13
S'android.hardware.soundtrigger.SoundTrigger$KeyphraseRecognitionExtra'
p67
sg15
(lp68
sg17
(lp69
sg19
(lp70
sg21
I0
sba(iArchitecture
Entity
p71
(dp72
g11
(lp73
sg13
S'android.hardware.soundtrigger.SoundTrigger$KeyphraseRecognitionExtra$1'
p74
sg15
(lp75
sg17
(lp76
sg19
(lp77
sg21
I0
sba(iArchitecture
Entity
p78
(dp79
g11
(lp80
sg13
S'android.hardware.soundtrigger.SoundTrigger$KeyphraseSoundModel'
p81
sg15
(lp82
sg17
(lp83
sg19
(lp84
sg21
I0
sba(iArchitecture
Entity
p85
(dp86
g11
(lp87
sg13
S'android.hardware.soundtrigger.SoundTrigger$KeyphraseSoundModel$1'
p88
sg15
(lp89
sg17
(lp90
sg19
(lp91
sg21
I0
sba(iArchitecture
Entity
p92
(dp93
g11
(lp94
sg13
S'android.hardware.soundtrigger.SoundTrigger$ModuleProperties'
p95
sg15
(lp96
sg17
(lp97
sg19
(lp98
sg21
I0
sba(iArchitecture
Entity
p99
(dp100
g11
(lp101
sg13
S'android.hardware.soundtrigger.SoundTrigger$ModuleProperties$1'
p102
sg15
(lp103
sg17
(lp104
sg19
(lp105
sg21
I0
sba(iArchitecture
Entity
p106
(dp107
g11
(lp108
sg13
S'android.hardware.soundtrigger.SoundTrigger$RecognitionConfig'
p109
sg15
(lp110
sg17
(lp111
sg19
(lp112
sg21
I0
sba(iArchitecture
Entity
p113
(dp114
g11
(lp115
sg13
S'android.hardware.soundtrigger.SoundTrigger$RecognitionConfig$1'
p116
sg15
(lp117
sg17
(lp118
sg19
(lp119
sg21
I0
sba(iArchitecture
Entity
p120
(dp121
g11
(lp122
sg13
S'android.hardware.soundtrigger.SoundTrigger$RecognitionEvent'
p123
sg15
(lp124
sg17
(lp125
sg19
(lp126
sg21
I0
sba(iArchitecture
Entity
p127
(dp128
g11
(lp129
sg13
S'android.hardware.soundtrigger.SoundTrigger$RecognitionEvent$1'
p130
sg15
(lp131
sg17
(lp132
sg19
(lp133
sg21
I0
sba(iArchitecture
Entity
p134
(dp135
g11
(lp136
sg13
S'android.hardware.soundtrigger.SoundTrigger$SoundModel'
p137
sg15
(lp138
sg17
(lp139
sg19
(lp140
sg21
I0
sba(iArchitecture
Entity
p141
(dp142
g11
(lp143
sg13
S'android.hardware.soundtrigger.SoundTrigger$SoundModelEvent'
p144
sg15
(lp145
sg17
(lp146
sg19
(lp147
sg21
I0
sba(iArchitecture
Entity
p148
(dp149
g11
(lp150
sg13
S'android.hardware.soundtrigger.SoundTrigger$SoundModelEvent$1'
p151
sg15
(lp152
sg17
(lp153
sg19
(lp154
sg21
I0
sba(iArchitecture
Entity
p155
(dp156
g11
(lp157
sg13
S'android.hardware.soundtrigger.SoundTrigger$StatusListener'
p158
sg15
(lp159
sg17
(lp160
sg19
(lp161
sg21
I0
sbasS'classes'
p162
(lp163
g14
ag25
ag32
ag39
ag46
ag53
ag60
ag67
ag74
ag81
ag88
ag95
ag102
ag109
ag116
ag123
ag130
ag137
ag144
ag151
ag158
asg21
I0
sS'label'
p164
S'1095'
p165
sba(iArchitecture
Cluster
p166
(dp167
g7
(lp168
(iArchitecture
Entity
p169
(dp170
g11
(lp171
sg13
S'android.telephony.CellIdentityGsm'
p172
sg15
(lp173
sg17
(lp174
sg19
(lp175
sg21
I0
sba(iArchitecture
Entity
p176
(dp177
g11
(lp178
sg13
S'android.telephony.CellIdentityGsm$1'
p179
sg15
(lp180
sg17
(lp181
sg19
(lp182
sg21
I0
sba(iArchitecture
Entity
p183
(dp184
g11
(lp185
sg13
S'android.telephony.CellIdentityWcdma'
p186
sg15
(lp187
sg17
(lp188
sg19
(lp189
sg21
I0
sba(iArchitecture
Entity
p190
(dp191
g11
(lp192
sg13
S'android.telephony.CellIdentityWcdma$1'
p193
sg15
(lp194
sg17
(lp195
sg19
(lp196
sg21
I0
sbasg162
(lp197
g172
ag179
ag186
ag193
asg21
I0
sg164
S'1195'
p198
sba(iArchitecture
Cluster
p199
(dp200
g7
(lp201
(iArchitecture
Entity
p202
(dp203
g11
(lp204
sg13
S'android.webkit.URLUtil'
p205
sg15
(lp206
sg17
(lp207
sg19
(lp208
sg21
I0
sbasg162
(lp209
g205
asg21
I0
sg164
S'195'
p210
sba(iArchitecture
Cluster
p211
(dp212
g7
(lp213
(iArchitecture
Entity
p214
(dp215
g11
(lp216
sg13
S'android.provider.SearchIndexablesProvider'
p217
sg15
(lp218
sg17
(lp219
sg19
(lp220
sg21
I0
sbasg162
(lp221
g217
asg21
I0
sg164
S'295'
p222
sba(iArchitecture
Cluster
p223
(dp224
g7
(lp225
(iArchitecture
Entity
p226
(dp227
g11
(lp228
sg13
S'android.media.AmrInputStream'
p229
sg15
(lp230
sg17
(lp231
sg19
(lp232
sg21
I0
sbasg162
(lp233
g229
asg21
I0
sg164
S'395'
p234
sba(iArchitecture
Cluster
p235
(dp236
g7
(lp237
(iArchitecture
Entity
p238
(dp239
g11
(lp240
sg13
S'android.graphics.drawable.RotateDrawable'
p241
sg15
(lp242
sg17
(lp243
sg19
(lp244
sg21
I0
sba(iArchitecture
Entity
p245
(dp246
g11
(lp247
sg13
S'android.graphics.drawable.RotateDrawable$RotateState'
p248
sg15
(lp249
sg17
(lp250
sg19
(lp251
sg21
I0
sbasg162
(lp252
g241
ag248
asg21
I0
sg164
S'495'
p253
sba(iArchitecture
Cluster
p254
(dp255
g7
(lp256
(iArchitecture
Entity
p257
(dp258
g11
(lp259
sg13
S'android.media.MediaFile'
p260
sg15
(lp261
sg17
(lp262
sg19
(lp263
sg21
I0
sba(iArchitecture
Entity
p264
(dp265
g11
(lp266
sg13
S'android.media.MediaFile$MediaFileType'
p267
sg15
(lp268
sg17
(lp269
sg19
(lp270
sg21
I0
sbasg162
(lp271
g260
ag267
asg21
I0
sg164
S'595'
p272
sba(iArchitecture
Cluster
p273
(dp274
g7
(lp275
(iArchitecture
Entity
p276
(dp277
g11
(lp278
sg13
S'android.bluetooth.BluetoothAudioConfig'
p279
sg15
(lp280
sg17
(lp281
sg19
(lp282
sg21
I0
sba(iArchitecture
Entity
p283
(dp284
g11
(lp285
sg13
S'android.bluetooth.BluetoothAudioConfig$1'
p286
sg15
(lp287
sg17
(lp288
sg19
(lp289
sg21
I0
sbasg162
(lp290
g279
ag286
asg21
I0
sg164
S'695'
p291
sba(iArchitecture
Cluster
p292
(dp293
g7
(lp294
(iArchitecture
Entity
p295
(dp296
g11
(lp297
sg13
S'android.app.RemoteInput'
p298
sg15
(lp299
sg17
(lp300
sg19
(lp301
sg21
I0
sba(iArchitecture
Entity
p302
(dp303
g11
(lp304
sg13
S'android.app.RemoteInput$1'
p305
sg15
(lp306
sg17
(lp307
sg19
(lp308
sg21
I0
sba(iArchitecture
Entity
p309
(dp310
g11
(lp311
sg13
S'android.app.RemoteInput$Builder'
p312
sg15
(lp313
sg17
(lp314
sg19
(lp315
sg21
I0
sbasg162
(lp316
g298
ag305
ag312
asg21
I0
sg164
S'795'
p317
sba(iArchitecture
Cluster
p318
(dp319
g7
(lp320
(iArchitecture
Entity
p321
(dp322
g11
(lp323
sg13
S'android.widget.TextClock'
p324
sg15
(lp325
sg17
(lp326
sg19
(lp327
sg21
I0
sba(iArchitecture
Entity
p328
(dp329
g11
(lp330
sg13
S'android.widget.TextClock$1'
p331
sg15
(lp332
sg17
(lp333
sg19
(lp334
sg21
I0
sba(iArchitecture
Entity
p335
(dp336
g11
(lp337
sg13
S'android.widget.TextClock$2'
p338
sg15
(lp339
sg17
(lp340
sg19
(lp341
sg21
I0
sba(iArchitecture
Entity
p342
(dp343
g11
(lp344
sg13
S'android.widget.TextClock$3'
p345
sg15
(lp346
sg17
(lp347
sg19
(lp348
sg21
I0
sbasg162
(lp349
g324
ag331
ag338
ag345
asg21
I0
sg164
S'895'
p350
sba(iArchitecture
Cluster
p351
(dp352
g7
(lp353
(iArchitecture
Entity
p354
(dp355
g11
(lp356
sg13
S'android.view.animation.Transformation'
p357
sg15
(lp358
sg17
(lp359
sg19
(lp360
sg21
I0
sbasg162
(lp361
g357
asg21
I0
sg164
S'95'
p362
sba(iArchitecture
Cluster
p363
(dp364
g7
(lp365
(iArchitecture
Entity
p366
(dp367
g11
(lp368
sg13
S'android.preference.PreferenceManager'
p369
sg15
(lp370
sg17
(lp371
sg19
(lp372
sg21
I0
sba(iArchitecture
Entity
p373
(dp374
g11
(lp375
sg13
S'android.preference.PreferenceManager$OnActivityDestroyListener'
p376
sg15
(lp377
sg17
(lp378
sg19
(lp379
sg21
I0
sba(iArchitecture
Entity
p380
(dp381
g11
(lp382
sg13
S'android.preference.PreferenceManager$OnActivityResultListener'
p383
sg15
(lp384
sg17
(lp385
sg19
(lp386
sg21
I0
sba(iArchitecture
Entity
p387
(dp388
g11
(lp389
sg13
S'android.preference.PreferenceManager$OnActivityStopListener'
p390
sg15
(lp391
sg17
(lp392
sg19
(lp393
sg21
I0
sba(iArchitecture
Entity
p394
(dp395
g11
(lp396
sg13
S'android.preference.PreferenceManager$OnPreferenceTreeClickListener'
p397
sg15
(lp398
sg17
(lp399
sg19
(lp400
sg21
I0
sbasg162
(lp401
g369
ag376
ag383
ag390
ag397
asg21
I0
sg164
S'950'
p402
sba(iArchitecture
Cluster
p403
(dp404
g7
(lp405
(iArchitecture
Entity
p406
(dp407
g11
(lp408
sg13
S'com.android.server.TelephonyRegistry'
p409
sg15
(lp410
sg17
(lp411
sg19
(lp412
sg21
I0
sba(iArchitecture
Entity
p413
(dp414
g11
(lp415
sg13
S'com.android.server.TelephonyRegistry$1'
p416
sg15
(lp417
sg17
(lp418
sg19
(lp419
sg21
I0
sba(iArchitecture
Entity
p420
(dp421
g11
(lp422
sg13
S'com.android.server.TelephonyRegistry$2'
p423
sg15
(lp424
sg17
(lp425
sg19
(lp426
sg21
I0
sba(iArchitecture
Entity
p427
(dp428
g11
(lp429
sg13
S'com.android.server.TelephonyRegistry$LogSSC'
p430
sg15
(lp431
sg17
(lp432
sg19
(lp433
sg21
I0
sba(iArchitecture
Entity
p434
(dp435
g11
(lp436
sg13
S'com.android.server.TelephonyRegistry$Record'
p437
sg15
(lp438
sg17
(lp439
sg19
(lp440
sg21
I0
sbasg162
(lp441
g409
ag416
ag423
ag430
ag437
asg21
I0
sg164
S'951'
p442
sba(iArchitecture
Cluster
p443
(dp444
g7
(lp445
(iArchitecture
Entity
p446
(dp447
g11
(lp448
sg13
S'com.android.server.usage.UserUsageStatsService'
p449
sg15
(lp450
sg17
(lp451
sg19
(lp452
sg21
I0
sba(iArchitecture
Entity
p453
(dp454
g11
(lp455
sg13
S'com.android.server.usage.UserUsageStatsService$1'
p456
sg15
(lp457
sg17
(lp458
sg19
(lp459
sg21
I0
sba(iArchitecture
Entity
p460
(dp461
g11
(lp462
sg13
S'com.android.server.usage.UserUsageStatsService$2'
p463
sg15
(lp464
sg17
(lp465
sg19
(lp466
sg21
I0
sba(iArchitecture
Entity
p467
(dp468
g11
(lp469
sg13
S'com.android.server.usage.UserUsageStatsService$3'
p470
sg15
(lp471
sg17
(lp472
sg19
(lp473
sg21
I0
sba(iArchitecture
Entity
p474
(dp475
g11
(lp476
sg13
S'com.android.server.usage.UserUsageStatsService$4'
p477
sg15
(lp478
sg17
(lp479
sg19
(lp480
sg21
I0
sba(iArchitecture
Entity
p481
(dp482
g11
(lp483
sg13
S'com.android.server.usage.UserUsageStatsService$StatsUpdatedListener'
p484
sg15
(lp485
sg17
(lp486
sg19
(lp487
sg21
I0
sbasg162
(lp488
g449
ag456
ag463
ag470
ag477
ag484
asg21
I0
sg164
S'952'
p489
sba(iArchitecture
Cluster
p490
(dp491
g7
(lp492
(iArchitecture
Entity
p493
(dp494
g11
(lp495
sg13
S'android.provider.SearchIndexablesContract'
p496
sg15
(lp497
sg17
(lp498
sg19
(lp499
sg21
I0
sba(iArchitecture
Entity
p500
(dp501
g11
(lp502
sg13
S'android.provider.SearchIndexablesContract$BaseColumns'
p503
sg15
(lp504
sg17
(lp505
sg19
(lp506
sg21
I0
sba(iArchitecture
Entity
p507
(dp508
g11
(lp509
sg13
S'android.provider.SearchIndexablesContract$NonIndexableKey'
p510
sg15
(lp511
sg17
(lp512
sg19
(lp513
sg21
I0
sba(iArchitecture
Entity
p514
(dp515
g11
(lp516
sg13
S'android.provider.SearchIndexablesContract$RawData'
p517
sg15
(lp518
sg17
(lp519
sg19
(lp520
sg21
I0
sba(iArchitecture
Entity
p521
(dp522
g11
(lp523
sg13
S'android.provider.SearchIndexablesContract$XmlResource'
p524
sg15
(lp525
sg17
(lp526
sg19
(lp527
sg21
I0
sbasg162
(lp528
g496
ag503
ag510
ag517
ag524
asg21
I0
sg164
S'953'
p529
sba(iArchitecture
Cluster
p530
(dp531
g7
(lp532
(iArchitecture
Entity
p533
(dp534
g11
(lp535
sg13
S'com.android.server.twilight.TwilightService'
p536
sg15
(lp537
sg17
(lp538
sg19
(lp539
sg21
I0
sba(iArchitecture
Entity
p540
(dp541
g11
(lp542
sg13
S'com.android.server.twilight.TwilightService$1'
p543
sg15
(lp544
sg17
(lp545
sg19
(lp546
sg21
I0
sba(iArchitecture
Entity
p547
(dp548
g11
(lp549
sg13
S'com.android.server.twilight.TwilightService$2'
p550
sg15
(lp551
sg17
(lp552
sg19
(lp553
sg21
I0
sba(iArchitecture
Entity
p554
(dp555
g11
(lp556
sg13
S'com.android.server.twilight.TwilightService$3'
p557
sg15
(lp558
sg17
(lp559
sg19
(lp560
sg21
I0
sba(iArchitecture
Entity
p561
(dp562
g11
(lp563
sg13
S'com.android.server.twilight.TwilightService$4'
p564
sg15
(lp565
sg17
(lp566
sg19
(lp567
sg21
I0
sba(iArchitecture
Entity
p568
(dp569
g11
(lp570
sg13
S'com.android.server.twilight.TwilightService$LocationHandler'
p571
sg15
(lp572
sg17
(lp573
sg19
(lp574
sg21
I0
sba(iArchitecture
Entity
p575
(dp576
g11
(lp577
sg13
S'com.android.server.twilight.TwilightService$TwilightListenerRecord'
p578
sg15
(lp579
sg17
(lp580
sg19
(lp581
sg21
I0
sbasg162
(lp582
g536
ag543
ag550
ag557
ag564
ag571
ag578
asg21
I0
sg164
S'954'
p583
sba(iArchitecture
Cluster
p584
(dp585
g7
(lp586
(iArchitecture
Entity
p587
(dp588
g11
(lp589
sg13
S'com.android.server.LockSettingsStorage'
p590
sg15
(lp591
sg17
(lp592
sg19
(lp593
sg21
I0
sba(iArchitecture
Entity
p594
(dp595
g11
(lp596
sg13
S'com.android.server.LockSettingsStorage$Cache'
p597
sg15
(lp598
sg17
(lp599
sg19
(lp600
sg21
I0
sba(iArchitecture
Entity
p601
(dp602
g11
(lp603
sg13
S'com.android.server.LockSettingsStorage$Cache$CacheKey'
p604
sg15
(lp605
sg17
(lp606
sg19
(lp607
sg21
I0
sba(iArchitecture
Entity
p608
(dp609
g11
(lp610
sg13
S'com.android.server.LockSettingsStorage$Callback'
p611
sg15
(lp612
sg17
(lp613
sg19
(lp614
sg21
I0
sba(iArchitecture
Entity
p615
(dp616
g11
(lp617
sg13
S'com.android.server.LockSettingsStorage$CredentialHash'
p618
sg15
(lp619
sg17
(lp620
sg19
(lp621
sg21
I0
sba(iArchitecture
Entity
p622
(dp623
g11
(lp624
sg13
S'com.android.server.LockSettingsStorage$DatabaseHelper'
p625
sg15
(lp626
sg17
(lp627
sg19
(lp628
sg21
I0
sbasg162
(lp629
g590
ag597
ag604
ag611
ag618
ag625
asg21
I0
sg164
S'955'
p630
sba(iArchitecture
Cluster
p631
(dp632
g7
(lp633
(iArchitecture
Entity
p634
(dp635
g11
(lp636
sg13
S'android.service.voice.AlwaysOnHotwordDetector'
p637
sg15
(lp638
sg17
(lp639
sg19
(lp640
sg21
I0
sba(iArchitecture
Entity
p641
(dp642
g11
(lp643
sg13
S'android.service.voice.AlwaysOnHotwordDetector$Callback'
p644
sg15
(lp645
sg17
(lp646
sg19
(lp647
sg21
I0
sba(iArchitecture
Entity
p648
(dp649
g11
(lp650
sg13
S'android.service.voice.AlwaysOnHotwordDetector$EventPayload'
p651
sg15
(lp652
sg17
(lp653
sg19
(lp654
sg21
I0
sba(iArchitecture
Entity
p655
(dp656
g11
(lp657
sg13
S'android.service.voice.AlwaysOnHotwordDetector$MyHandler'
p658
sg15
(lp659
sg17
(lp660
sg19
(lp661
sg21
I0
sba(iArchitecture
Entity
p662
(dp663
g11
(lp664
sg13
S'android.service.voice.AlwaysOnHotwordDetector$RefreshAvailabiltyTask'
p665
sg15
(lp666
sg17
(lp667
sg19
(lp668
sg21
I0
sba(iArchitecture
Entity
p669
(dp670
g11
(lp671
sg13
S'android.service.voice.AlwaysOnHotwordDetector$SoundTriggerListener'
p672
sg15
(lp673
sg17
(lp674
sg19
(lp675
sg21
I0
sbasg162
(lp676
g637
ag644
ag651
ag658
ag665
ag672
asg21
I0
sg164
S'956'
p677
sba(iArchitecture
Cluster
p678
(dp679
g7
(lp680
(iArchitecture
Entity
p681
(dp682
g11
(lp683
sg13
S'com.android.server.display.DisplayPowerState'
p684
sg15
(lp685
sg17
(lp686
sg19
(lp687
sg21
I0
sba(iArchitecture
Entity
p688
(dp689
g11
(lp690
sg13
S'com.android.server.display.DisplayPowerState$1'
p691
sg15
(lp692
sg17
(lp693
sg19
(lp694
sg21
I0
sba(iArchitecture
Entity
p695
(dp696
g11
(lp697
sg13
S'com.android.server.display.DisplayPowerState$2'
p698
sg15
(lp699
sg17
(lp700
sg19
(lp701
sg21
I0
sba(iArchitecture
Entity
p702
(dp703
g11
(lp704
sg13
S'com.android.server.display.DisplayPowerState$3'
p705
sg15
(lp706
sg17
(lp707
sg19
(lp708
sg21
I0
sba(iArchitecture
Entity
p709
(dp710
g11
(lp711
sg13
S'com.android.server.display.DisplayPowerState$4'
p712
sg15
(lp713
sg17
(lp714
sg19
(lp715
sg21
I0
sba(iArchitecture
Entity
p716
(dp717
g11
(lp718
sg13
S'com.android.server.display.DisplayPowerState$PhotonicModulator'
p719
sg15
(lp720
sg17
(lp721
sg19
(lp722
sg21
I0
sbasg162
(lp723
g684
ag691
ag698
ag705
ag712
ag719
asg21
I0
sg164
S'957'
p724
sba(iArchitecture
Cluster
p725
(dp726
g7
(lp727
(iArchitecture
Entity
p728
(dp729
g11
(lp730
sg13
S'com.android.server.print.PrintManagerService'
p731
sg15
(lp732
sg17
(lp733
sg19
(lp734
sg21
I0
sba(iArchitecture
Entity
p735
(dp736
g11
(lp737
sg13
S'com.android.server.print.PrintManagerService$PrintManagerImpl'
p738
sg15
(lp739
sg17
(lp740
sg19
(lp741
sg21
I0
sba(iArchitecture
Entity
p742
(dp743
g11
(lp744
sg13
S'com.android.server.print.PrintManagerService$PrintManagerImpl$1'
p745
sg15
(lp746
sg17
(lp747
sg19
(lp748
sg21
I0
sba(iArchitecture
Entity
p749
(dp750
g11
(lp751
sg13
S'com.android.server.print.PrintManagerService$PrintManagerImpl$2'
p752
sg15
(lp753
sg17
(lp754
sg19
(lp755
sg21
I0
sba(iArchitecture
Entity
p756
(dp757
g11
(lp758
sg13
S'com.android.server.print.PrintManagerService$PrintManagerImpl$3'
p759
sg15
(lp760
sg17
(lp761
sg19
(lp762
sg21
I0
sba(iArchitecture
Entity
p763
(dp764
g11
(lp765
sg13
S'com.android.server.print.PrintManagerService$PrintManagerImpl$4'
p766
sg15
(lp767
sg17
(lp768
sg19
(lp769
sg21
I0
sbasg162
(lp770
g731
ag738
ag745
ag752
ag759
ag766
asg21
I0
sg164
S'958'
p771
sba(iArchitecture
Cluster
p772
(dp773
g7
(lp774
(iArchitecture
Entity
p775
(dp776
g11
(lp777
sg13
S'android.widget.YearPickerView'
p778
sg15
(lp779
sg17
(lp780
sg19
(lp781
sg21
I0
sba(iArchitecture
Entity
p782
(dp783
g11
(lp784
sg13
S'android.widget.YearPickerView$1'
p785
sg15
(lp786
sg17
(lp787
sg19
(lp788
sg21
I0
sba(iArchitecture
Entity
p789
(dp790
g11
(lp791
sg13
S'android.widget.YearPickerView$2'
p792
sg15
(lp793
sg17
(lp794
sg19
(lp795
sg21
I0
sba(iArchitecture
Entity
p796
(dp797
g11
(lp798
sg13
S'android.widget.YearPickerView$OnYearSelectedListener'
p799
sg15
(lp800
sg17
(lp801
sg19
(lp802
sg21
I0
sba(iArchitecture
Entity
p803
(dp804
g11
(lp805
sg13
S'android.widget.YearPickerView$YearAdapter'
p806
sg15
(lp807
sg17
(lp808
sg19
(lp809
sg21
I0
sbasg162
(lp810
g778
ag785
ag792
ag799
ag806
asg21
I0
sg164
S'959'
p811
sba(iArchitecture
Cluster
p812
(dp813
g7
(lp814
(iArchitecture
Entity
p815
(dp816
g11
(lp817
sg13
S'android.hardware.SystemSensorManager'
p818
sg15
(lp819
sg17
(lp820
sg19
(lp821
sg21
I0
sba(iArchitecture
Entity
p822
(dp823
g11
(lp824
sg13
S'android.hardware.SystemSensorManager$BaseEventQueue'
p825
sg15
(lp826
sg17
(lp827
sg19
(lp828
sg21
I0
sba(iArchitecture
Entity
p829
(dp830
g11
(lp831
sg13
S'android.hardware.SystemSensorManager$InjectEventQueue'
p832
sg15
(lp833
sg17
(lp834
sg19
(lp835
sg21
I0
sba(iArchitecture
Entity
p836
(dp837
g11
(lp838
sg13
S'android.hardware.SystemSensorManager$SensorEventQueue'
p839
sg15
(lp840
sg17
(lp841
sg19
(lp842
sg21
I0
sba(iArchitecture
Entity
p843
(dp844
g11
(lp845
sg13
S'android.hardware.SystemSensorManager$TriggerEventQueue'
p846
sg15
(lp847
sg17
(lp848
sg19
(lp849
sg21
I0
sbasg162
(lp850
g818
ag825
ag832
ag839
ag846
asg21
I0
sg164
S'995'
p851
sbasS'target_sub'
p852
S'95'
p853
sg162
(lp854
sS'is_component_arch'
p855
I01
sg164
S'6.0.0_r1'
p856
sba.