(lp0
(iArchitecture
Architecture
p1
(dp2
S'clusters'
p3
(lp4
(iArchitecture
Cluster
p5
(dp6
S'entities'
p7
(lp8
(iArchitecture
Entity
p9
(dp10
S'issue_ids'
p11
(lp12
sS'name'
p13
S'android.app.Instrumentation'
p14
sS'descs'
p15
(lp16
sS'labels'
p17
(lp18
sS'titles'
p19
(lp20
sS'change'
p21
I0
sba(iArchitecture
Entity
p22
(dp23
g11
(lp24
sg13
S'android.app.Instrumentation$1ContextMenuRunnable'
p25
sg15
(lp26
sg17
(lp27
sg19
(lp28
sg21
I0
sba(iArchitecture
Entity
p29
(dp30
g11
(lp31
sg13
S'android.app.Instrumentation$1MenuRunnable'
p32
sg15
(lp33
sg17
(lp34
sg19
(lp35
sg21
I0
sba(iArchitecture
Entity
p36
(dp37
g11
(lp38
sg13
S'android.app.Instrumentation$ActivityGoing'
p39
sg15
(lp40
sg17
(lp41
sg19
(lp42
sg21
I0
sba(iArchitecture
Entity
p43
(dp44
g11
(lp45
sg13
S'android.app.Instrumentation$ActivityMonitor'
p46
sg15
(lp47
sg17
(lp48
sg19
(lp49
sg21
I0
sba(iArchitecture
Entity
p50
(dp51
g11
(lp52
sg13
S'android.app.Instrumentation$ActivityResult'
p53
sg15
(lp54
sg17
(lp55
sg19
(lp56
sg21
I0
sba(iArchitecture
Entity
p57
(dp58
g11
(lp59
sg13
S'android.app.Instrumentation$ActivityWaiter'
p60
sg15
(lp61
sg17
(lp62
sg19
(lp63
sg21
I0
sba(iArchitecture
Entity
p64
(dp65
g11
(lp66
sg13
S'android.app.Instrumentation$EmptyRunnable'
p67
sg15
(lp68
sg17
(lp69
sg19
(lp70
sg21
I0
sba(iArchitecture
Entity
p71
(dp72
g11
(lp73
sg13
S'android.app.Instrumentation$Idler'
p74
sg15
(lp75
sg17
(lp76
sg19
(lp77
sg21
I0
sba(iArchitecture
Entity
p78
(dp79
g11
(lp80
sg13
S'android.app.Instrumentation$InstrumentationThread'
p81
sg15
(lp82
sg17
(lp83
sg19
(lp84
sg21
I0
sba(iArchitecture
Entity
p85
(dp86
g11
(lp87
sg13
S'android.app.Instrumentation$SyncRunnable'
p88
sg15
(lp89
sg17
(lp90
sg19
(lp91
sg21
I0
sbasS'classes'
p92
(lp93
g14
ag25
ag32
ag39
ag46
ag53
ag60
ag67
ag74
ag81
ag88
asg21
I0
sS'label'
p94
S'1073'
p95
sba(iArchitecture
Cluster
p96
(dp97
g7
(lp98
(iArchitecture
Entity
p99
(dp100
g11
(lp101
sg13
S'android.security.keystore.AndroidKeyStoreAuthenticatedAESCipherSpi'
p102
sg15
(lp103
sg17
(lp104
sg19
(lp105
sg21
I0
sba(iArchitecture
Entity
p106
(dp107
g11
(lp108
sg13
S'android.security.keystore.AndroidKeyStoreAuthenticatedAESCipherSpi$AdditionalAuthenticationDataStream'
p109
sg15
(lp110
sg17
(lp111
sg19
(lp112
sg21
I0
sba(iArchitecture
Entity
p113
(dp114
g11
(lp115
sg13
S'android.security.keystore.AndroidKeyStoreAuthenticatedAESCipherSpi$BufferAllOutputUntilDoFinalStreamer'
p116
sg15
(lp117
sg17
(lp118
sg19
(lp119
sg21
I0
sba(iArchitecture
Entity
p120
(dp121
g11
(lp122
sg13
S'android.security.keystore.AndroidKeyStoreAuthenticatedAESCipherSpi$GCM'
p123
sg15
(lp124
sg17
(lp125
sg19
(lp126
sg21
I0
sba(iArchitecture
Entity
p127
(dp128
g11
(lp129
sg13
S'android.security.keystore.AndroidKeyStoreAuthenticatedAESCipherSpi$GCM$NoPadding'
p130
sg15
(lp131
sg17
(lp132
sg19
(lp133
sg21
I0
sba(iArchitecture
Entity
p134
(dp135
g11
(lp136
sg13
S'android.security.keystore.AndroidKeyStoreCipherSpiBase'
p137
sg15
(lp138
sg17
(lp139
sg19
(lp140
sg21
I0
sba(iArchitecture
Entity
p141
(dp142
g11
(lp143
sg13
S'android.security.keystore.AndroidKeyStoreECDSASignatureSpi'
p144
sg15
(lp145
sg17
(lp146
sg19
(lp147
sg21
I0
sba(iArchitecture
Entity
p148
(dp149
g11
(lp150
sg13
S'android.security.keystore.AndroidKeyStoreECDSASignatureSpi$NONE'
p151
sg15
(lp152
sg17
(lp153
sg19
(lp154
sg21
I0
sba(iArchitecture
Entity
p155
(dp156
g11
(lp157
sg13
S'android.security.keystore.AndroidKeyStoreECDSASignatureSpi$NONE$TruncateToFieldSizeMessageStreamer'
p158
sg15
(lp159
sg17
(lp160
sg19
(lp161
sg21
I0
sba(iArchitecture
Entity
p162
(dp163
g11
(lp164
sg13
S'android.security.keystore.AndroidKeyStoreECDSASignatureSpi$SHA1'
p165
sg15
(lp166
sg17
(lp167
sg19
(lp168
sg21
I0
sba(iArchitecture
Entity
p169
(dp170
g11
(lp171
sg13
S'android.security.keystore.AndroidKeyStoreECDSASignatureSpi$SHA224'
p172
sg15
(lp173
sg17
(lp174
sg19
(lp175
sg21
I0
sba(iArchitecture
Entity
p176
(dp177
g11
(lp178
sg13
S'android.security.keystore.AndroidKeyStoreECDSASignatureSpi$SHA256'
p179
sg15
(lp180
sg17
(lp181
sg19
(lp182
sg21
I0
sba(iArchitecture
Entity
p183
(dp184
g11
(lp185
sg13
S'android.security.keystore.AndroidKeyStoreECDSASignatureSpi$SHA384'
p186
sg15
(lp187
sg17
(lp188
sg19
(lp189
sg21
I0
sba(iArchitecture
Entity
p190
(dp191
g11
(lp192
sg13
S'android.security.keystore.AndroidKeyStoreECDSASignatureSpi$SHA512'
p193
sg15
(lp194
sg17
(lp195
sg19
(lp196
sg21
I0
sba(iArchitecture
Entity
p197
(dp198
g11
(lp199
sg13
S'android.security.keystore.AndroidKeyStoreHmacSpi'
p200
sg15
(lp201
sg17
(lp202
sg19
(lp203
sg21
I0
sba(iArchitecture
Entity
p204
(dp205
g11
(lp206
sg13
S'android.security.keystore.AndroidKeyStoreHmacSpi$HmacSHA1'
p207
sg15
(lp208
sg17
(lp209
sg19
(lp210
sg21
I0
sba(iArchitecture
Entity
p211
(dp212
g11
(lp213
sg13
S'android.security.keystore.AndroidKeyStoreHmacSpi$HmacSHA224'
p214
sg15
(lp215
sg17
(lp216
sg19
(lp217
sg21
I0
sba(iArchitecture
Entity
p218
(dp219
g11
(lp220
sg13
S'android.security.keystore.AndroidKeyStoreHmacSpi$HmacSHA256'
p221
sg15
(lp222
sg17
(lp223
sg19
(lp224
sg21
I0
sba(iArchitecture
Entity
p225
(dp226
g11
(lp227
sg13
S'android.security.keystore.AndroidKeyStoreHmacSpi$HmacSHA384'
p228
sg15
(lp229
sg17
(lp230
sg19
(lp231
sg21
I0
sba(iArchitecture
Entity
p232
(dp233
g11
(lp234
sg13
S'android.security.keystore.AndroidKeyStoreHmacSpi$HmacSHA512'
p235
sg15
(lp236
sg17
(lp237
sg19
(lp238
sg21
I0
sba(iArchitecture
Entity
p239
(dp240
g11
(lp241
sg13
S'android.security.keystore.AndroidKeyStoreKeyGeneratorSpi'
p242
sg15
(lp243
sg17
(lp244
sg19
(lp245
sg21
I0
sba(iArchitecture
Entity
p246
(dp247
g11
(lp248
sg13
S'android.security.keystore.AndroidKeyStoreKeyGeneratorSpi$AES'
p249
sg15
(lp250
sg17
(lp251
sg19
(lp252
sg21
I0
sba(iArchitecture
Entity
p253
(dp254
g11
(lp255
sg13
S'android.security.keystore.AndroidKeyStoreKeyGeneratorSpi$HmacBase'
p256
sg15
(lp257
sg17
(lp258
sg19
(lp259
sg21
I0
sba(iArchitecture
Entity
p260
(dp261
g11
(lp262
sg13
S'android.security.keystore.AndroidKeyStoreKeyGeneratorSpi$HmacSHA1'
p263
sg15
(lp264
sg17
(lp265
sg19
(lp266
sg21
I0
sba(iArchitecture
Entity
p267
(dp268
g11
(lp269
sg13
S'android.security.keystore.AndroidKeyStoreKeyGeneratorSpi$HmacSHA224'
p270
sg15
(lp271
sg17
(lp272
sg19
(lp273
sg21
I0
sba(iArchitecture
Entity
p274
(dp275
g11
(lp276
sg13
S'android.security.keystore.AndroidKeyStoreKeyGeneratorSpi$HmacSHA256'
p277
sg15
(lp278
sg17
(lp279
sg19
(lp280
sg21
I0
sba(iArchitecture
Entity
p281
(dp282
g11
(lp283
sg13
S'android.security.keystore.AndroidKeyStoreKeyGeneratorSpi$HmacSHA384'
p284
sg15
(lp285
sg17
(lp286
sg19
(lp287
sg21
I0
sba(iArchitecture
Entity
p288
(dp289
g11
(lp290
sg13
S'android.security.keystore.AndroidKeyStoreKeyGeneratorSpi$HmacSHA512'
p291
sg15
(lp292
sg17
(lp293
sg19
(lp294
sg21
I0
sba(iArchitecture
Entity
p295
(dp296
g11
(lp297
sg13
S'android.security.keystore.AndroidKeyStoreKeyPairGeneratorSpi'
p298
sg15
(lp299
sg17
(lp300
sg19
(lp301
sg21
I0
sba(iArchitecture
Entity
p302
(dp303
g11
(lp304
sg13
S'android.security.keystore.AndroidKeyStoreKeyPairGeneratorSpi$EC'
p305
sg15
(lp306
sg17
(lp307
sg19
(lp308
sg21
I0
sba(iArchitecture
Entity
p309
(dp310
g11
(lp311
sg13
S'android.security.keystore.AndroidKeyStoreKeyPairGeneratorSpi$RSA'
p312
sg15
(lp313
sg17
(lp314
sg19
(lp315
sg21
I0
sba(iArchitecture
Entity
p316
(dp317
g11
(lp318
sg13
S'android.security.keystore.AndroidKeyStoreRSACipherSpi'
p319
sg15
(lp320
sg17
(lp321
sg19
(lp322
sg21
I0
sba(iArchitecture
Entity
p323
(dp324
g11
(lp325
sg13
S'android.security.keystore.AndroidKeyStoreRSACipherSpi$NoPadding'
p326
sg15
(lp327
sg17
(lp328
sg19
(lp329
sg21
I0
sba(iArchitecture
Entity
p330
(dp331
g11
(lp332
sg13
S'android.security.keystore.AndroidKeyStoreRSACipherSpi$OAEPWithMGF1Padding'
p333
sg15
(lp334
sg17
(lp335
sg19
(lp336
sg21
I0
sba(iArchitecture
Entity
p337
(dp338
g11
(lp339
sg13
S'android.security.keystore.AndroidKeyStoreRSACipherSpi$OAEPWithSHA1AndMGF1Padding'
p340
sg15
(lp341
sg17
(lp342
sg19
(lp343
sg21
I0
sba(iArchitecture
Entity
p344
(dp345
g11
(lp346
sg13
S'android.security.keystore.AndroidKeyStoreRSACipherSpi$OAEPWithSHA224AndMGF1Padding'
p347
sg15
(lp348
sg17
(lp349
sg19
(lp350
sg21
I0
sba(iArchitecture
Entity
p351
(dp352
g11
(lp353
sg13
S'android.security.keystore.AndroidKeyStoreRSACipherSpi$OAEPWithSHA256AndMGF1Padding'
p354
sg15
(lp355
sg17
(lp356
sg19
(lp357
sg21
I0
sba(iArchitecture
Entity
p358
(dp359
g11
(lp360
sg13
S'android.security.keystore.AndroidKeyStoreRSACipherSpi$OAEPWithSHA384AndMGF1Padding'
p361
sg15
(lp362
sg17
(lp363
sg19
(lp364
sg21
I0
sba(iArchitecture
Entity
p365
(dp366
g11
(lp367
sg13
S'android.security.keystore.AndroidKeyStoreRSACipherSpi$OAEPWithSHA512AndMGF1Padding'
p368
sg15
(lp369
sg17
(lp370
sg19
(lp371
sg21
I0
sba(iArchitecture
Entity
p372
(dp373
g11
(lp374
sg13
S'android.security.keystore.AndroidKeyStoreRSACipherSpi$PKCS1Padding'
p375
sg15
(lp376
sg17
(lp377
sg19
(lp378
sg21
I0
sba(iArchitecture
Entity
p379
(dp380
g11
(lp381
sg13
S'android.security.keystore.AndroidKeyStoreSignatureSpiBase'
p382
sg15
(lp383
sg17
(lp384
sg19
(lp385
sg21
I0
sba(iArchitecture
Entity
p386
(dp387
g11
(lp388
sg13
S'android.security.keystore.AndroidKeyStoreUnauthenticatedAESCipherSpi'
p389
sg15
(lp390
sg17
(lp391
sg19
(lp392
sg21
I0
sba(iArchitecture
Entity
p393
(dp394
g11
(lp395
sg13
S'android.security.keystore.AndroidKeyStoreUnauthenticatedAESCipherSpi$CBC'
p396
sg15
(lp397
sg17
(lp398
sg19
(lp399
sg21
I0
sba(iArchitecture
Entity
p400
(dp401
g11
(lp402
sg13
S'android.security.keystore.AndroidKeyStoreUnauthenticatedAESCipherSpi$CBC$NoPadding'
p403
sg15
(lp404
sg17
(lp405
sg19
(lp406
sg21
I0
sba(iArchitecture
Entity
p407
(dp408
g11
(lp409
sg13
S'android.security.keystore.AndroidKeyStoreUnauthenticatedAESCipherSpi$CBC$PKCS7Padding'
p410
sg15
(lp411
sg17
(lp412
sg19
(lp413
sg21
I0
sba(iArchitecture
Entity
p414
(dp415
g11
(lp416
sg13
S'android.security.keystore.AndroidKeyStoreUnauthenticatedAESCipherSpi$CTR'
p417
sg15
(lp418
sg17
(lp419
sg19
(lp420
sg21
I0
sba(iArchitecture
Entity
p421
(dp422
g11
(lp423
sg13
S'android.security.keystore.AndroidKeyStoreUnauthenticatedAESCipherSpi$CTR$NoPadding'
p424
sg15
(lp425
sg17
(lp426
sg19
(lp427
sg21
I0
sba(iArchitecture
Entity
p428
(dp429
g11
(lp430
sg13
S'android.security.keystore.AndroidKeyStoreUnauthenticatedAESCipherSpi$ECB'
p431
sg15
(lp432
sg17
(lp433
sg19
(lp434
sg21
I0
sba(iArchitecture
Entity
p435
(dp436
g11
(lp437
sg13
S'android.security.keystore.AndroidKeyStoreUnauthenticatedAESCipherSpi$ECB$NoPadding'
p438
sg15
(lp439
sg17
(lp440
sg19
(lp441
sg21
I0
sba(iArchitecture
Entity
p442
(dp443
g11
(lp444
sg13
S'android.security.keystore.AndroidKeyStoreUnauthenticatedAESCipherSpi$ECB$PKCS7Padding'
p445
sg15
(lp446
sg17
(lp447
sg19
(lp448
sg21
I0
sba(iArchitecture
Entity
p449
(dp450
g11
(lp451
sg13
S'android.security.keystore.KeymasterUtils'
p452
sg15
(lp453
sg17
(lp454
sg19
(lp455
sg21
I0
sbasg92
(lp456
g102
ag109
ag116
ag123
ag130
ag137
ag144
ag151
ag158
ag165
ag172
ag179
ag186
ag193
ag200
ag207
ag214
ag221
ag228
ag235
ag242
ag249
ag256
ag263
ag270
ag277
ag284
ag291
ag298
ag305
ag312
ag319
ag326
ag333
ag340
ag347
ag354
ag361
ag368
ag375
ag382
ag389
ag396
ag403
ag410
ag417
ag424
ag431
ag438
ag445
ag452
asg21
I0
sg94
S'1173'
p457
sba(iArchitecture
Cluster
p458
(dp459
g7
(lp460
(iArchitecture
Entity
p461
(dp462
g11
(lp463
sg13
S'com.android.server.pm.IntentFilterVerificationState'
p464
sg15
(lp465
sg17
(lp466
sg19
(lp467
sg21
I0
sbasg92
(lp468
g464
asg21
I0
sg94
S'173'
p469
sba(iArchitecture
Cluster
p470
(dp471
g7
(lp472
(iArchitecture
Entity
p473
(dp474
g11
(lp475
sg13
S'com.android.server.display.LogicalDisplay'
p476
sg15
(lp477
sg17
(lp478
sg19
(lp479
sg21
I0
sbasg92
(lp480
g476
asg21
I0
sg94
S'273'
p481
sba(iArchitecture
Cluster
p482
(dp483
g7
(lp484
(iArchitecture
Entity
p485
(dp486
g11
(lp487
sg13
S'android.graphics.Typeface'
p488
sg15
(lp489
sg17
(lp490
sg19
(lp491
sg21
I0
sbasg92
(lp492
g488
asg21
I0
sg94
S'373'
p493
sba(iArchitecture
Cluster
p494
(dp495
g7
(lp496
(iArchitecture
Entity
p497
(dp498
g11
(lp499
sg13
S'android.hardware.camera2.legacy.LegacyExceptionUtils'
p500
sg15
(lp501
sg17
(lp502
sg19
(lp503
sg21
I0
sba(iArchitecture
Entity
p504
(dp505
g11
(lp506
sg13
S'android.hardware.camera2.legacy.LegacyExceptionUtils$BufferQueueAbandonedException'
p507
sg15
(lp508
sg17
(lp509
sg19
(lp510
sg21
I0
sbasg92
(lp511
g500
ag507
asg21
I0
sg94
S'473'
p512
sba(iArchitecture
Cluster
p513
(dp514
g7
(lp515
(iArchitecture
Entity
p516
(dp517
g11
(lp518
sg13
S'android.media.tv.ITvInputSessionWrapper'
p519
sg15
(lp520
sg17
(lp521
sg19
(lp522
sg21
I0
sba(iArchitecture
Entity
p523
(dp524
g11
(lp525
sg13
S'android.media.tv.ITvInputSessionWrapper$TvInputEventReceiver'
p526
sg15
(lp527
sg17
(lp528
sg19
(lp529
sg21
I0
sbasg92
(lp530
g519
ag526
asg21
I0
sg94
S'573'
p531
sba(iArchitecture
Cluster
p532
(dp533
g7
(lp534
(iArchitecture
Entity
p535
(dp536
g11
(lp537
sg13
S'android.bluetooth.le.ScanResult'
p538
sg15
(lp539
sg17
(lp540
sg19
(lp541
sg21
I0
sba(iArchitecture
Entity
p542
(dp543
g11
(lp544
sg13
S'android.bluetooth.le.ScanResult$1'
p545
sg15
(lp546
sg17
(lp547
sg19
(lp548
sg21
I0
sbasg92
(lp549
g538
ag545
asg21
I0
sg94
S'673'
p550
sba(iArchitecture
Cluster
p551
(dp552
g7
(lp553
(iArchitecture
Entity
p554
(dp555
g11
(lp556
sg13
S'android.transition.TransitionInflater'
p557
sg15
(lp558
sg17
(lp559
sg19
(lp560
sg21
I0
sbasg92
(lp561
g557
asg21
I0
sg94
S'73'
p562
sba(iArchitecture
Cluster
p563
(dp564
g7
(lp565
(iArchitecture
Entity
p566
(dp567
g11
(lp568
sg13
S'android.database.CursorWindow'
p569
sg15
(lp570
sg17
(lp571
sg19
(lp572
sg21
I0
sba(iArchitecture
Entity
p573
(dp574
g11
(lp575
sg13
S'android.database.CursorWindow$1'
p576
sg15
(lp577
sg17
(lp578
sg19
(lp579
sg21
I0
sbasg92
(lp580
g569
ag576
asg21
I0
sg94
S'730'
p581
sba(iArchitecture
Cluster
p582
(dp583
g7
(lp584
(iArchitecture
Entity
p585
(dp586
g11
(lp587
sg13
S'com.android.server.pm.PreferredComponent'
p588
sg15
(lp589
sg17
(lp590
sg19
(lp591
sg21
I0
sba(iArchitecture
Entity
p592
(dp593
g11
(lp594
sg13
S'com.android.server.pm.PreferredComponent$Callbacks'
p595
sg15
(lp596
sg17
(lp597
sg19
(lp598
sg21
I0
sbasg92
(lp599
g588
ag595
asg21
I0
sg94
S'731'
p600
sba(iArchitecture
Cluster
p601
(dp602
g7
(lp603
(iArchitecture
Entity
p604
(dp605
g11
(lp606
sg13
S'android.hardware.ConsumerIrManager'
p607
sg15
(lp608
sg17
(lp609
sg19
(lp610
sg21
I0
sba(iArchitecture
Entity
p611
(dp612
g11
(lp613
sg13
S'android.hardware.ConsumerIrManager$CarrierFrequencyRange'
p614
sg15
(lp615
sg17
(lp616
sg19
(lp617
sg21
I0
sbasg92
(lp618
g607
ag614
asg21
I0
sg94
S'732'
p619
sba(iArchitecture
Cluster
p620
(dp621
g7
(lp622
(iArchitecture
Entity
p623
(dp624
g11
(lp625
sg13
S'android.content.SyncResult'
p626
sg15
(lp627
sg17
(lp628
sg19
(lp629
sg21
I0
sba(iArchitecture
Entity
p630
(dp631
g11
(lp632
sg13
S'android.content.SyncResult$1'
p633
sg15
(lp634
sg17
(lp635
sg19
(lp636
sg21
I0
sbasg92
(lp637
g626
ag633
asg21
I0
sg94
S'733'
p638
sba(iArchitecture
Cluster
p639
(dp640
g7
(lp641
(iArchitecture
Entity
p642
(dp643
g11
(lp644
sg13
S'android.preference.SwitchPreference'
p645
sg15
(lp646
sg17
(lp647
sg19
(lp648
sg21
I0
sba(iArchitecture
Entity
p649
(dp650
g11
(lp651
sg13
S'android.preference.SwitchPreference$Listener'
p652
sg15
(lp653
sg17
(lp654
sg19
(lp655
sg21
I0
sbasg92
(lp656
g645
ag652
asg21
I0
sg94
S'734'
p657
sba(iArchitecture
Cluster
p658
(dp659
g7
(lp660
(iArchitecture
Entity
p661
(dp662
g11
(lp663
sg13
S'android.graphics.Interpolator'
p664
sg15
(lp665
sg17
(lp666
sg19
(lp667
sg21
I0
sba(iArchitecture
Entity
p668
(dp669
g11
(lp670
sg13
S'android.graphics.Interpolator$Result'
p671
sg15
(lp672
sg17
(lp673
sg19
(lp674
sg21
I0
sbasg92
(lp675
g664
ag671
asg21
I0
sg94
S'735'
p676
sba(iArchitecture
Cluster
p677
(dp678
g7
(lp679
(iArchitecture
Entity
p680
(dp681
g11
(lp682
sg13
S'android.content.pm.VerificationParams'
p683
sg15
(lp684
sg17
(lp685
sg19
(lp686
sg21
I0
sba(iArchitecture
Entity
p687
(dp688
g11
(lp689
sg13
S'android.content.pm.VerificationParams$1'
p690
sg15
(lp691
sg17
(lp692
sg19
(lp693
sg21
I0
sbasg92
(lp694
g683
ag690
asg21
I0
sg94
S'736'
p695
sba(iArchitecture
Cluster
p696
(dp697
g7
(lp698
(iArchitecture
Entity
p699
(dp700
g11
(lp701
sg13
S'android.bluetooth.BluetoothProfile'
p702
sg15
(lp703
sg17
(lp704
sg19
(lp705
sg21
I0
sba(iArchitecture
Entity
p706
(dp707
g11
(lp708
sg13
S'android.bluetooth.BluetoothProfile$ServiceListener'
p709
sg15
(lp710
sg17
(lp711
sg19
(lp712
sg21
I0
sbasg92
(lp713
g702
ag709
asg21
I0
sg94
S'737'
p714
sba(iArchitecture
Cluster
p715
(dp716
g7
(lp717
(iArchitecture
Entity
p718
(dp719
g11
(lp720
sg13
S'android.media.ThumbnailUtils'
p721
sg15
(lp722
sg17
(lp723
sg19
(lp724
sg21
I0
sba(iArchitecture
Entity
p725
(dp726
g11
(lp727
sg13
S'android.media.ThumbnailUtils$SizedThumbnailBitmap'
p728
sg15
(lp729
sg17
(lp730
sg19
(lp731
sg21
I0
sbasg92
(lp732
g721
ag728
asg21
I0
sg94
S'738'
p733
sba(iArchitecture
Cluster
p734
(dp735
g7
(lp736
(iArchitecture
Entity
p737
(dp738
g11
(lp739
sg13
S'android.hardware.usb.UsbAccessory'
p740
sg15
(lp741
sg17
(lp742
sg19
(lp743
sg21
I0
sba(iArchitecture
Entity
p744
(dp745
g11
(lp746
sg13
S'android.hardware.usb.UsbAccessory$1'
p747
sg15
(lp748
sg17
(lp749
sg19
(lp750
sg21
I0
sbasg92
(lp751
g740
ag747
asg21
I0
sg94
S'739'
p752
sba(iArchitecture
Cluster
p753
(dp754
g7
(lp755
(iArchitecture
Entity
p756
(dp757
g11
(lp758
sg13
S'android.database.ContentObserver'
p759
sg15
(lp760
sg17
(lp761
sg19
(lp762
sg21
I0
sba(iArchitecture
Entity
p763
(dp764
g11
(lp765
sg13
S'android.database.ContentObserver$NotificationRunnable'
p766
sg15
(lp767
sg17
(lp768
sg19
(lp769
sg21
I0
sba(iArchitecture
Entity
p770
(dp771
g11
(lp772
sg13
S'android.database.ContentObserver$Transport'
p773
sg15
(lp774
sg17
(lp775
sg19
(lp776
sg21
I0
sbasg92
(lp777
g759
ag766
ag773
asg21
I0
sg94
S'773'
p778
sba(iArchitecture
Cluster
p779
(dp780
g7
(lp781
(iArchitecture
Entity
p782
(dp783
g11
(lp784
sg13
S'android.hardware.camera2.impl.CallbackProxies'
p785
sg15
(lp786
sg17
(lp787
sg19
(lp788
sg21
I0
sba(iArchitecture
Entity
p789
(dp790
g11
(lp791
sg13
S'android.hardware.camera2.impl.CallbackProxies$DeviceCaptureCallbackProxy'
p792
sg15
(lp793
sg17
(lp794
sg19
(lp795
sg21
I0
sba(iArchitecture
Entity
p796
(dp797
g11
(lp798
sg13
S'android.hardware.camera2.impl.CallbackProxies$DeviceStateCallbackProxy'
p799
sg15
(lp800
sg17
(lp801
sg19
(lp802
sg21
I0
sba(iArchitecture
Entity
p803
(dp804
g11
(lp805
sg13
S'android.hardware.camera2.impl.CallbackProxies$SessionStateCallbackProxy'
p806
sg15
(lp807
sg17
(lp808
sg19
(lp809
sg21
I0
sbasg92
(lp810
g785
ag792
ag799
ag806
asg21
I0
sg94
S'873'
p811
sba(iArchitecture
Cluster
p812
(dp813
g7
(lp814
(iArchitecture
Entity
p815
(dp816
g11
(lp817
sg13
S'android.media.session.PlaybackState'
p818
sg15
(lp819
sg17
(lp820
sg19
(lp821
sg21
I0
sba(iArchitecture
Entity
p822
(dp823
g11
(lp824
sg13
S'android.media.session.PlaybackState$1'
p825
sg15
(lp826
sg17
(lp827
sg19
(lp828
sg21
I0
sba(iArchitecture
Entity
p829
(dp830
g11
(lp831
sg13
S'android.media.session.PlaybackState$Builder'
p832
sg15
(lp833
sg17
(lp834
sg19
(lp835
sg21
I0
sba(iArchitecture
Entity
p836
(dp837
g11
(lp838
sg13
S'android.media.session.PlaybackState$CustomAction'
p839
sg15
(lp840
sg17
(lp841
sg19
(lp842
sg21
I0
sba(iArchitecture
Entity
p843
(dp844
g11
(lp845
sg13
S'android.media.session.PlaybackState$CustomAction$1'
p846
sg15
(lp847
sg17
(lp848
sg19
(lp849
sg21
I0
sba(iArchitecture
Entity
p850
(dp851
g11
(lp852
sg13
S'android.media.session.PlaybackState$CustomAction$Builder'
p853
sg15
(lp854
sg17
(lp855
sg19
(lp856
sg21
I0
sbasg92
(lp857
g818
ag825
ag832
ag839
ag846
ag853
asg21
I0
sg94
S'973'
p858
sbasS'target_sub'
p859
S'73'
p860
sg92
(lp861
sS'is_component_arch'
p862
I01
sg94
S'6.0.0_r1'
p863
sba.