(lp0
(iArchitecture
Architecture
p1
(dp2
S'clusters'
p3
(lp4
(iArchitecture
Cluster
p5
(dp6
S'entities'
p7
(lp8
(iArchitecture
Entity
p9
(dp10
S'issue_ids'
p11
(lp12
sS'name'
p13
S'android.filterfw.core.AsyncRunner'
p14
sS'descs'
p15
(lp16
sS'labels'
p17
(lp18
sS'titles'
p19
(lp20
sS'change'
p21
I0
sba(iArchitecture
Entity
p22
(dp23
g11
(lp24
sg13
S'android.filterfw.core.AsyncRunner$AsyncRunnerTask'
p25
sg15
(lp26
sg17
(lp27
sg19
(lp28
sg21
I0
sba(iArchitecture
Entity
p29
(dp30
g11
(lp31
sg13
S'android.filterfw.core.AsyncRunner$RunnerResult'
p32
sg15
(lp33
sg17
(lp34
sg19
(lp35
sg21
I0
sba(iArchitecture
Entity
p36
(dp37
g11
(lp38
sg13
S'android.filterfw.core.SyncRunner'
p39
sg15
(lp40
sg17
(lp41
sg19
(lp42
sg21
I0
sba(iArchitecture
Entity
p43
(dp44
g11
(lp45
sg13
S'android.filterfw.core.SyncRunner$1'
p46
sg15
(lp47
sg17
(lp48
sg19
(lp49
sg21
I0
sbasS'classes'
p50
(lp51
g14
ag25
ag32
ag39
ag46
asg21
I0
sS'label'
p52
S'1113'
p53
sba(iArchitecture
Cluster
p54
(dp55
g7
(lp56
(iArchitecture
Entity
p57
(dp58
g11
(lp59
sg13
S'android.opengl.ETC1'
p60
sg15
(lp61
sg17
(lp62
sg19
(lp63
sg21
I0
sbasg50
(lp64
g60
asg21
I0
sg52
S'113'
p65
sba(iArchitecture
Cluster
p66
(dp67
g7
(lp68
(iArchitecture
Entity
p69
(dp70
g11
(lp71
sg13
S'android.view.animation.RotateAnimation'
p72
sg15
(lp73
sg17
(lp74
sg19
(lp75
sg21
I0
sba(iArchitecture
Entity
p76
(dp77
g11
(lp78
sg13
S'android.view.animation.ScaleAnimation'
p79
sg15
(lp80
sg17
(lp81
sg19
(lp82
sg21
I0
sbasg50
(lp83
g72
ag79
asg21
I0
sg52
S'1130'
p84
sba(iArchitecture
Cluster
p85
(dp86
g7
(lp87
(iArchitecture
Entity
p88
(dp89
g11
(lp90
sg13
S'android.app.ActivityTransitionCoordinator'
p91
sg15
(lp92
sg17
(lp93
sg19
(lp94
sg21
I0
sba(iArchitecture
Entity
p95
(dp96
g11
(lp97
sg13
S'android.app.ActivityTransitionCoordinator$1'
p98
sg15
(lp99
sg17
(lp100
sg19
(lp101
sg21
I0
sba(iArchitecture
Entity
p102
(dp103
g11
(lp104
sg13
S'android.app.ActivityTransitionCoordinator$2'
p105
sg15
(lp106
sg17
(lp107
sg19
(lp108
sg21
I0
sba(iArchitecture
Entity
p109
(dp110
g11
(lp111
sg13
S'android.app.ActivityTransitionCoordinator$ContinueTransitionListener'
p112
sg15
(lp113
sg17
(lp114
sg19
(lp115
sg21
I0
sba(iArchitecture
Entity
p116
(dp117
g11
(lp118
sg13
S'android.app.ActivityTransitionCoordinator$FixedEpicenterCallback'
p119
sg15
(lp120
sg17
(lp121
sg19
(lp122
sg21
I0
sba(iArchitecture
Entity
p123
(dp124
g11
(lp125
sg13
S'android.app.ActivityTransitionCoordinator$GhostViewListeners'
p126
sg15
(lp127
sg17
(lp128
sg19
(lp129
sg21
I0
sba(iArchitecture
Entity
p130
(dp131
g11
(lp132
sg13
S'android.app.ActivityTransitionCoordinator$SharedElementOriginalState'
p133
sg15
(lp134
sg17
(lp135
sg19
(lp136
sg21
I0
sba(iArchitecture
Entity
p137
(dp138
g11
(lp139
sg13
S'android.app.EnterTransitionCoordinator'
p140
sg15
(lp141
sg17
(lp142
sg19
(lp143
sg21
I0
sba(iArchitecture
Entity
p144
(dp145
g11
(lp146
sg13
S'android.app.EnterTransitionCoordinator$1'
p147
sg15
(lp148
sg17
(lp149
sg19
(lp150
sg21
I0
sba(iArchitecture
Entity
p151
(dp152
g11
(lp153
sg13
S'android.app.EnterTransitionCoordinator$10'
p154
sg15
(lp155
sg17
(lp156
sg19
(lp157
sg21
I0
sba(iArchitecture
Entity
p158
(dp159
g11
(lp160
sg13
S'android.app.EnterTransitionCoordinator$11'
p161
sg15
(lp162
sg17
(lp163
sg19
(lp164
sg21
I0
sba(iArchitecture
Entity
p165
(dp166
g11
(lp167
sg13
S'android.app.EnterTransitionCoordinator$2'
p168
sg15
(lp169
sg17
(lp170
sg19
(lp171
sg21
I0
sba(iArchitecture
Entity
p172
(dp173
g11
(lp174
sg13
S'android.app.EnterTransitionCoordinator$3'
p175
sg15
(lp176
sg17
(lp177
sg19
(lp178
sg21
I0
sba(iArchitecture
Entity
p179
(dp180
g11
(lp181
sg13
S'android.app.EnterTransitionCoordinator$4'
p182
sg15
(lp183
sg17
(lp184
sg19
(lp185
sg21
I0
sba(iArchitecture
Entity
p186
(dp187
g11
(lp188
sg13
S'android.app.EnterTransitionCoordinator$5'
p189
sg15
(lp190
sg17
(lp191
sg19
(lp192
sg21
I0
sba(iArchitecture
Entity
p193
(dp194
g11
(lp195
sg13
S'android.app.EnterTransitionCoordinator$5$1'
p196
sg15
(lp197
sg17
(lp198
sg19
(lp199
sg21
I0
sba(iArchitecture
Entity
p200
(dp201
g11
(lp202
sg13
S'android.app.EnterTransitionCoordinator$5$1$1'
p203
sg15
(lp204
sg17
(lp205
sg19
(lp206
sg21
I0
sba(iArchitecture
Entity
p207
(dp208
g11
(lp209
sg13
S'android.app.EnterTransitionCoordinator$6'
p210
sg15
(lp211
sg17
(lp212
sg19
(lp213
sg21
I0
sba(iArchitecture
Entity
p214
(dp215
g11
(lp216
sg13
S'android.app.EnterTransitionCoordinator$7'
p217
sg15
(lp218
sg17
(lp219
sg19
(lp220
sg21
I0
sba(iArchitecture
Entity
p221
(dp222
g11
(lp223
sg13
S'android.app.EnterTransitionCoordinator$8'
p224
sg15
(lp225
sg17
(lp226
sg19
(lp227
sg21
I0
sba(iArchitecture
Entity
p228
(dp229
g11
(lp230
sg13
S'android.app.EnterTransitionCoordinator$9'
p231
sg15
(lp232
sg17
(lp233
sg19
(lp234
sg21
I0
sba(iArchitecture
Entity
p235
(dp236
g11
(lp237
sg13
S'android.app.ExitTransitionCoordinator'
p238
sg15
(lp239
sg17
(lp240
sg19
(lp241
sg21
I0
sba(iArchitecture
Entity
p242
(dp243
g11
(lp244
sg13
S'android.app.ExitTransitionCoordinator$1'
p245
sg15
(lp246
sg17
(lp247
sg19
(lp248
sg21
I0
sba(iArchitecture
Entity
p249
(dp250
g11
(lp251
sg13
S'android.app.ExitTransitionCoordinator$10'
p252
sg15
(lp253
sg17
(lp254
sg19
(lp255
sg21
I0
sba(iArchitecture
Entity
p256
(dp257
g11
(lp258
sg13
S'android.app.ExitTransitionCoordinator$11'
p259
sg15
(lp260
sg17
(lp261
sg19
(lp262
sg21
I0
sba(iArchitecture
Entity
p263
(dp264
g11
(lp265
sg13
S'android.app.ExitTransitionCoordinator$2'
p266
sg15
(lp267
sg17
(lp268
sg19
(lp269
sg21
I0
sba(iArchitecture
Entity
p270
(dp271
g11
(lp272
sg13
S'android.app.ExitTransitionCoordinator$3'
p273
sg15
(lp274
sg17
(lp275
sg19
(lp276
sg21
I0
sba(iArchitecture
Entity
p277
(dp278
g11
(lp279
sg13
S'android.app.ExitTransitionCoordinator$4'
p280
sg15
(lp281
sg17
(lp282
sg19
(lp283
sg21
I0
sba(iArchitecture
Entity
p284
(dp285
g11
(lp286
sg13
S'android.app.ExitTransitionCoordinator$5'
p287
sg15
(lp288
sg17
(lp289
sg19
(lp290
sg21
I0
sba(iArchitecture
Entity
p291
(dp292
g11
(lp293
sg13
S'android.app.ExitTransitionCoordinator$6'
p294
sg15
(lp295
sg17
(lp296
sg19
(lp297
sg21
I0
sba(iArchitecture
Entity
p298
(dp299
g11
(lp300
sg13
S'android.app.ExitTransitionCoordinator$7'
p301
sg15
(lp302
sg17
(lp303
sg19
(lp304
sg21
I0
sba(iArchitecture
Entity
p305
(dp306
g11
(lp307
sg13
S'android.app.ExitTransitionCoordinator$8'
p308
sg15
(lp309
sg17
(lp310
sg19
(lp311
sg21
I0
sba(iArchitecture
Entity
p312
(dp313
g11
(lp314
sg13
S'android.app.ExitTransitionCoordinator$9'
p315
sg15
(lp316
sg17
(lp317
sg19
(lp318
sg21
I0
sbasg50
(lp319
g91
ag98
ag105
ag112
ag119
ag126
ag133
ag140
ag147
ag154
ag161
ag168
ag175
ag182
ag189
ag196
ag203
ag210
ag217
ag224
ag231
ag238
ag245
ag252
ag259
ag266
ag273
ag280
ag287
ag294
ag301
ag308
ag315
asg21
I0
sg52
S'1131'
p320
sba(iArchitecture
Cluster
p321
(dp322
g7
(lp323
(iArchitecture
Entity
p324
(dp325
g11
(lp326
sg13
S'com.android.server.wm.CircularDisplayMask'
p327
sg15
(lp328
sg17
(lp329
sg19
(lp330
sg21
I0
sba(iArchitecture
Entity
p331
(dp332
g11
(lp333
sg13
S'com.android.server.wm.EmulatorDisplayOverlay'
p334
sg15
(lp335
sg17
(lp336
sg19
(lp337
sg21
I0
sba(iArchitecture
Entity
p338
(dp339
g11
(lp340
sg13
S'com.android.server.wm.StrictModeFlash'
p341
sg15
(lp342
sg17
(lp343
sg19
(lp344
sg21
I0
sba(iArchitecture
Entity
p345
(dp346
g11
(lp347
sg13
S'com.android.server.wm.Watermark'
p348
sg15
(lp349
sg17
(lp350
sg19
(lp351
sg21
I0
sbasg50
(lp352
g327
ag334
ag341
ag348
asg21
I0
sg52
S'1132'
p353
sba(iArchitecture
Cluster
p354
(dp355
g7
(lp356
(iArchitecture
Entity
p357
(dp358
g11
(lp359
sg13
S'android.bluetooth.le.AdvertiseData'
p360
sg15
(lp361
sg17
(lp362
sg19
(lp363
sg21
I0
sba(iArchitecture
Entity
p364
(dp365
g11
(lp366
sg13
S'android.bluetooth.le.AdvertiseData$1'
p367
sg15
(lp368
sg17
(lp369
sg19
(lp370
sg21
I0
sba(iArchitecture
Entity
p371
(dp372
g11
(lp373
sg13
S'android.bluetooth.le.AdvertiseData$Builder'
p374
sg15
(lp375
sg17
(lp376
sg19
(lp377
sg21
I0
sba(iArchitecture
Entity
p378
(dp379
g11
(lp380
sg13
S'android.bluetooth.le.ScanRecord'
p381
sg15
(lp382
sg17
(lp383
sg19
(lp384
sg21
I0
sbasg50
(lp385
g360
ag367
ag374
ag381
asg21
I0
sg52
S'1133'
p386
sba(iArchitecture
Cluster
p387
(dp388
g7
(lp389
(iArchitecture
Entity
p390
(dp391
g11
(lp392
sg13
S'android.widget.ResourceCursorTreeAdapter'
p393
sg15
(lp394
sg17
(lp395
sg19
(lp396
sg21
I0
sba(iArchitecture
Entity
p397
(dp398
g11
(lp399
sg13
S'android.widget.SimpleCursorTreeAdapter'
p400
sg15
(lp401
sg17
(lp402
sg19
(lp403
sg21
I0
sba(iArchitecture
Entity
p404
(dp405
g11
(lp406
sg13
S'android.widget.SimpleCursorTreeAdapter$ViewBinder'
p407
sg15
(lp408
sg17
(lp409
sg19
(lp410
sg21
I0
sba(iArchitecture
Entity
p411
(dp412
g11
(lp413
sg13
S'android.widget.SimpleExpandableListAdapter'
p414
sg15
(lp415
sg17
(lp416
sg19
(lp417
sg21
I0
sbasg50
(lp418
g393
ag400
ag407
ag414
asg21
I0
sg52
S'1134'
p419
sba(iArchitecture
Cluster
p420
(dp421
g7
(lp422
(iArchitecture
Entity
p423
(dp424
g11
(lp425
sg13
S'android.text.InputType'
p426
sg15
(lp427
sg17
(lp428
sg19
(lp429
sg21
I0
sba(iArchitecture
Entity
p430
(dp431
g11
(lp432
sg13
S'android.view.inputmethod.EditorInfo'
p433
sg15
(lp434
sg17
(lp435
sg19
(lp436
sg21
I0
sba(iArchitecture
Entity
p437
(dp438
g11
(lp439
sg13
S'android.view.inputmethod.EditorInfo$1'
p440
sg15
(lp441
sg17
(lp442
sg19
(lp443
sg21
I0
sbasg50
(lp444
g426
ag433
ag440
asg21
I0
sg52
S'1135'
p445
sba(iArchitecture
Cluster
p446
(dp447
g7
(lp448
(iArchitecture
Entity
p449
(dp450
g11
(lp451
sg13
S'android.hardware.camera2.utils.TaskDrainer'
p452
sg15
(lp453
sg17
(lp454
sg19
(lp455
sg21
I0
sba(iArchitecture
Entity
p456
(dp457
g11
(lp458
sg13
S'android.hardware.camera2.utils.TaskDrainer$1'
p459
sg15
(lp460
sg17
(lp461
sg19
(lp462
sg21
I0
sba(iArchitecture
Entity
p463
(dp464
g11
(lp465
sg13
S'android.hardware.camera2.utils.TaskDrainer$DrainListener'
p466
sg15
(lp467
sg17
(lp468
sg19
(lp469
sg21
I0
sba(iArchitecture
Entity
p470
(dp471
g11
(lp472
sg13
S'android.hardware.camera2.utils.TaskSingleDrainer'
p473
sg15
(lp474
sg17
(lp475
sg19
(lp476
sg21
I0
sbasg50
(lp477
g452
ag459
ag466
ag473
asg21
I0
sg52
S'1136'
p478
sba(iArchitecture
Cluster
p479
(dp480
g7
(lp481
(iArchitecture
Entity
p482
(dp483
g11
(lp484
sg13
S'android.net.netlink.RtNetlinkNeighborMessage'
p485
sg15
(lp486
sg17
(lp487
sg19
(lp488
sg21
I0
sba(iArchitecture
Entity
p489
(dp490
g11
(lp491
sg13
S'android.net.netlink.StructNlAttr'
p492
sg15
(lp493
sg17
(lp494
sg19
(lp495
sg21
I0
sba(iArchitecture
Entity
p496
(dp497
g11
(lp498
sg13
S'android.net.netlink.StructNlMsgHdr'
p499
sg15
(lp500
sg17
(lp501
sg19
(lp502
sg21
I0
sbasg50
(lp503
g485
ag492
ag499
asg21
I0
sg52
S'1137'
p504
sba(iArchitecture
Cluster
p505
(dp506
g7
(lp507
(iArchitecture
Entity
p508
(dp509
g11
(lp510
sg13
S'android.gesture.Gesture'
p511
sg15
(lp512
sg17
(lp513
sg19
(lp514
sg21
I0
sba(iArchitecture
Entity
p515
(dp516
g11
(lp517
sg13
S'android.gesture.Gesture$1'
p518
sg15
(lp519
sg17
(lp520
sg19
(lp521
sg21
I0
sba(iArchitecture
Entity
p522
(dp523
g11
(lp524
sg13
S'android.gesture.GestureStore'
p525
sg15
(lp526
sg17
(lp527
sg19
(lp528
sg21
I0
sbasg50
(lp529
g511
ag518
ag525
asg21
I0
sg52
S'1138'
p530
sba(iArchitecture
Cluster
p531
(dp532
g7
(lp533
(iArchitecture
Entity
p534
(dp535
g11
(lp536
sg13
S'android.opengl.GLES20'
p537
sg15
(lp538
sg17
(lp539
sg19
(lp540
sg21
I0
sba(iArchitecture
Entity
p541
(dp542
g11
(lp543
sg13
S'android.opengl.GLES30'
p544
sg15
(lp545
sg17
(lp546
sg19
(lp547
sg21
I0
sba(iArchitecture
Entity
p548
(dp549
g11
(lp550
sg13
S'android.opengl.GLES31'
p551
sg15
(lp552
sg17
(lp553
sg19
(lp554
sg21
I0
sbasg50
(lp555
g537
ag544
ag551
asg21
I0
sg52
S'1139'
p556
sbasS'target_sub'
p557
S'113'
p558
sg50
(lp559
sS'is_component_arch'
p560
I01
sg52
S'6.0.0_r1'
p561
sba.