(lp0
(iArchitecture
Architecture
p1
(dp2
S'clusters'
p3
(lp4
(iArchitecture
Cluster
p5
(dp6
S'entities'
p7
(lp8
(iArchitecture
Entity
p9
(dp10
S'issue_ids'
p11
(lp12
sS'name'
p13
S'tools.split-select.Abi.c'
p14
sS'descs'
p15
(lp16
sS'labels'
p17
(lp18
sS'titles'
p19
(lp20
sS'change'
p21
I0
sba(iArchitecture
Entity
p22
(dp23
g11
(lp24
sg13
S'tools.split-select.Abi.h'
p25
sg15
(lp26
sg17
(lp27
sg19
(lp28
sg21
I0
sbasS'classes'
p29
(lp30
g14
ag25
asg21
I0
sS'label'
p31
S'tools.split-select.Abi.ch'
p32
sba(iArchitecture
Cluster
p33
(dp34
g7
(lp35
(iArchitecture
Entity
p36
(dp37
g11
(lp38
sg13
S'tools.split-select.Grouper.c'
p39
sg15
(lp40
sg17
(lp41
sg19
(lp42
sg21
I0
sba(iArchitecture
Entity
p43
(dp44
g11
(lp45
sg13
S'tools.split-select.Grouper.h'
p46
sg15
(lp47
sg17
(lp48
sg19
(lp49
sg21
I0
sbasg29
(lp50
g39
ag46
asg21
I0
sg31
S'tools.split-select.Grouper.ch'
p51
sba(iArchitecture
Cluster
p52
(dp53
g7
(lp54
(iArchitecture
Entity
p55
(dp56
g11
(lp57
sg13
S'tools.split-select.Rule.c'
p58
sg15
(lp59
sg17
(lp60
sg19
(lp61
sg21
I0
sba(iArchitecture
Entity
p62
(dp63
g11
(lp64
sg13
S'tools.split-select.Rule.h'
p65
sg15
(lp66
sg17
(lp67
sg19
(lp68
sg21
I0
sbasg29
(lp69
g58
ag65
asg21
I0
sg31
S'tools.split-select.Rule.ch'
p70
sba(iArchitecture
Cluster
p71
(dp72
g7
(lp73
(iArchitecture
Entity
p74
(dp75
g11
(lp76
sg13
S'tools.split-select.RuleGenerator.c'
p77
sg15
(lp78
sg17
(lp79
sg19
(lp80
sg21
I0
sba(iArchitecture
Entity
p81
(dp82
g11
(lp83
sg13
S'tools.split-select.RuleGenerator.h'
p84
sg15
(lp85
sg17
(lp86
sg19
(lp87
sg21
I0
sbasg29
(lp88
g77
ag84
asg21
I0
sg31
S'tools.split-select.RuleGenerator.ch'
p89
sba(iArchitecture
Cluster
p90
(dp91
g7
(lp92
(iArchitecture
Entity
p93
(dp94
g11
(lp95
sg13
S'tools.split-select.SplitDescription.c'
p96
sg15
(lp97
sg17
(lp98
sg19
(lp99
sg21
I0
sba(iArchitecture
Entity
p100
(dp101
g11
(lp102
sg13
S'tools.split-select.SplitDescription.h'
p103
sg15
(lp104
sg17
(lp105
sg19
(lp106
sg21
I0
sbasg29
(lp107
g96
ag103
asg21
I0
sg31
S'tools.split-select.SplitDescription.ch'
p108
sba(iArchitecture
Cluster
p109
(dp110
g7
(lp111
(iArchitecture
Entity
p112
(dp113
g11
(lp114
sg13
S'tools.split-select.SplitSelector.c'
p115
sg15
(lp116
sg17
(lp117
sg19
(lp118
sg21
I0
sba(iArchitecture
Entity
p119
(dp120
g11
(lp121
sg13
S'tools.split-select.SplitSelector.h'
p122
sg15
(lp123
sg17
(lp124
sg19
(lp125
sg21
I0
sbasg29
(lp126
g115
ag122
asg21
I0
sg31
S'tools.split-select.SplitSelector.ch'
p127
sba(iArchitecture
Cluster
p128
(dp129
g7
(lp130
(iArchitecture
Entity
p131
(dp132
g11
(lp133
sg13
S'tools.split-select.Grouper_test.c'
p134
sg15
(lp135
sg17
(lp136
sg19
(lp137
sg21
I0
sba(iArchitecture
Entity
p138
(dp139
g11
(lp140
sg13
S'tools.split-select.Main.c'
p141
sg15
(lp142
sg17
(lp143
sg19
(lp144
sg21
I0
sba(iArchitecture
Entity
p145
(dp146
g11
(lp147
sg13
S'tools.split-select.RuleGenerator_test.c'
p148
sg15
(lp149
sg17
(lp150
sg19
(lp151
sg21
I0
sba(iArchitecture
Entity
p152
(dp153
g11
(lp154
sg13
S'tools.split-select.Rule_test.c'
p155
sg15
(lp156
sg17
(lp157
sg19
(lp158
sg21
I0
sba(iArchitecture
Entity
p159
(dp160
g11
(lp161
sg13
S'tools.split-select.SplitSelector_test.c'
p162
sg15
(lp163
sg17
(lp164
sg19
(lp165
sg21
I0
sba(iArchitecture
Entity
p166
(dp167
g11
(lp168
sg13
S'tools.split-select.TestRules.c'
p169
sg15
(lp170
sg17
(lp171
sg19
(lp172
sg21
I0
sba(iArchitecture
Entity
p173
(dp174
g11
(lp175
sg13
S'tools.split-select.TestRules.h'
p176
sg15
(lp177
sg17
(lp178
sg19
(lp179
sg21
I0
sbasg29
(lp180
g134
ag141
ag148
ag155
ag162
ag169
ag176
asg21
I0
sg31
S'tools.split-select.TestRules.ch'
p181
sbasS'target_sub'
p182
S'tools.split-select'
p183
sg29
(lp184
sS'is_component_arch'
p185
I00
sg31
S'6.0.0_r1'
p186
sba(iArchitecture
Architecture
p187
(dp188
g3
(lp189
(iArchitecture
Cluster
p190
(dp191
g7
(lp192
(iArchitecture
Entity
p193
(dp194
g11
(lp195
sg13
S'tools.split-select.Abi.c'
p196
sg15
(lp197
sg17
(lp198
sg19
(lp199
sg21
I0
sba(iArchitecture
Entity
p200
(dp201
g11
(lp202
sg13
S'tools.split-select.Abi.h'
p203
sg15
(lp204
sg17
(lp205
sg19
(lp206
sg21
I0
sbasg29
(lp207
g196
ag203
asg21
I0
sg31
S'tools.split-select.Abi.ch'
p208
sba(iArchitecture
Cluster
p209
(dp210
g7
(lp211
(iArchitecture
Entity
p212
(dp213
g11
(lp214
sg13
S'tools.split-select.Grouper.c'
p215
sg15
(lp216
sg17
(lp217
sg19
(lp218
sg21
I0
sba(iArchitecture
Entity
p219
(dp220
g11
(lp221
sg13
S'tools.split-select.Grouper.h'
p222
sg15
(lp223
sg17
(lp224
sg19
(lp225
sg21
I0
sbasg29
(lp226
g215
ag222
asg21
I0
sg31
S'tools.split-select.Grouper.ch'
p227
sba(iArchitecture
Cluster
p228
(dp229
g7
(lp230
(iArchitecture
Entity
p231
(dp232
g11
(lp233
sg13
S'tools.split-select.Rule.c'
p234
sg15
(lp235
sg17
(lp236
sg19
(lp237
sg21
I0
sba(iArchitecture
Entity
p238
(dp239
g11
(lp240
sg13
S'tools.split-select.Rule.h'
p241
sg15
(lp242
sg17
(lp243
sg19
(lp244
sg21
I0
sbasg29
(lp245
g234
ag241
asg21
I0
sg31
S'tools.split-select.Rule.ch'
p246
sba(iArchitecture
Cluster
p247
(dp248
g7
(lp249
(iArchitecture
Entity
p250
(dp251
g11
(lp252
sg13
S'tools.split-select.RuleGenerator.c'
p253
sg15
(lp254
sg17
(lp255
sg19
(lp256
sg21
I0
sba(iArchitecture
Entity
p257
(dp258
g11
(lp259
sg13
S'tools.split-select.RuleGenerator.h'
p260
sg15
(lp261
sg17
(lp262
sg19
(lp263
sg21
I0
sbasg29
(lp264
g253
ag260
asg21
I0
sg31
S'tools.split-select.RuleGenerator.ch'
p265
sba(iArchitecture
Cluster
p266
(dp267
g7
(lp268
(iArchitecture
Entity
p269
(dp270
g11
(lp271
sg13
S'tools.split-select.SplitDescription.c'
p272
sg15
(lp273
sg17
(lp274
sg19
(lp275
sg21
I0
sba(iArchitecture
Entity
p276
(dp277
g11
(lp278
sg13
S'tools.split-select.SplitDescription.h'
p279
sg15
(lp280
sg17
(lp281
sg19
(lp282
sg21
I0
sbasg29
(lp283
g272
ag279
asg21
I0
sg31
S'tools.split-select.SplitDescription.ch'
p284
sba(iArchitecture
Cluster
p285
(dp286
g7
(lp287
(iArchitecture
Entity
p288
(dp289
g11
(lp290
sg13
S'tools.split-select.SplitSelector.c'
p291
sg15
(lp292
sg17
(lp293
sg19
(lp294
sg21
I0
sba(iArchitecture
Entity
p295
(dp296
g11
(lp297
sg13
S'tools.split-select.SplitSelector.h'
p298
sg15
(lp299
sg17
(lp300
sg19
(lp301
sg21
I0
sbasg29
(lp302
g291
ag298
asg21
I0
sg31
S'tools.split-select.SplitSelector.ch'
p303
sba(iArchitecture
Cluster
p304
(dp305
g7
(lp306
(iArchitecture
Entity
p307
(dp308
g11
(lp309
sg13
S'tools.split-select.Grouper_test.c'
p310
sg15
(lp311
sg17
(lp312
sg19
(lp313
sg21
I0
sba(iArchitecture
Entity
p314
(dp315
g11
(lp316
sg13
S'tools.split-select.Main.c'
p317
sg15
(lp318
sg17
(lp319
sg19
(lp320
sg21
I0
sba(iArchitecture
Entity
p321
(dp322
g11
(lp323
sg13
S'tools.split-select.RuleGenerator_test.c'
p324
sg15
(lp325
sg17
(lp326
sg19
(lp327
sg21
I0
sba(iArchitecture
Entity
p328
(dp329
g11
(lp330
sg13
S'tools.split-select.Rule_test.c'
p331
sg15
(lp332
sg17
(lp333
sg19
(lp334
sg21
I0
sba(iArchitecture
Entity
p335
(dp336
g11
(lp337
sg13
S'tools.split-select.SplitSelector_test.c'
p338
sg15
(lp339
sg17
(lp340
sg19
(lp341
sg21
I0
sba(iArchitecture
Entity
p342
(dp343
g11
(lp344
sg13
S'tools.split-select.TestRules.c'
p345
sg15
(lp346
sg17
(lp347
sg19
(lp348
sg21
I0
sba(iArchitecture
Entity
p349
(dp350
g11
(lp351
sg13
S'tools.split-select.TestRules.h'
p352
sg15
(lp353
sg17
(lp354
sg19
(lp355
sg21
I0
sbasg29
(lp356
g310
ag317
ag324
ag331
ag338
ag345
ag352
asg21
I0
sg31
S'tools.split-select.TestRules.ch'
p357
sbasg182
g183
sg29
(lp358
sg185
I00
sg31
S'7.0.0_r1'
p359
sba.