(lp0
(iArchitecture
Architecture
p1
(dp2
S'clusters'
p3
(lp4
(iArchitecture
Cluster
p5
(dp6
S'entities'
p7
(lp8
(iArchitecture
Entity
p9
(dp10
S'issue_ids'
p11
(lp12
sS'name'
p13
S'libs.androidfw.tests.Idmap_test.c'
p14
sS'descs'
p15
(lp16
sS'labels'
p17
(lp18
sS'titles'
p19
(lp20
sS'change'
p21
I0
sba(iArchitecture
Entity
p22
(dp23
g11
(lp24
sg13
S'libs.androidfw.tests.data.overlay.overlay_arsc.h'
p25
sg15
(lp26
sg17
(lp27
sg19
(lp28
sg21
I0
sbasS'classes'
p29
(lp30
g14
ag25
asg21
I0
sS'label'
p31
S'libs.androidfw.tests.Idmap_test.ss'
p32
sba(iArchitecture
Cluster
p33
(dp34
g7
(lp35
(iArchitecture
Entity
p36
(dp37
g11
(lp38
sg13
S'libs.androidfw.tests.ResTable_test.c'
p39
sg15
(lp40
sg17
(lp41
sg19
(lp42
sg21
I0
sba(iArchitecture
Entity
p43
(dp44
g11
(lp45
sg13
S'libs.androidfw.tests.data.lib.lib_arsc.h'
p46
sg15
(lp47
sg17
(lp48
sg19
(lp49
sg21
I0
sbasg29
(lp50
g39
ag46
asg21
I0
sg31
S'libs.androidfw.tests.ResTable_test.ss'
p51
sba(iArchitecture
Cluster
p52
(dp53
g7
(lp54
(iArchitecture
Entity
p55
(dp56
g11
(lp57
sg13
S'libs.androidfw.tests.Split_test.c'
p58
sg15
(lp59
sg17
(lp60
sg19
(lp61
sg21
I0
sba(iArchitecture
Entity
p62
(dp63
g11
(lp64
sg13
S'libs.androidfw.tests.data.basic.basic_arsc.h'
p65
sg15
(lp66
sg17
(lp67
sg19
(lp68
sg21
I0
sba(iArchitecture
Entity
p69
(dp70
g11
(lp71
sg13
S'libs.androidfw.tests.data.basic.split_de_fr_arsc.h'
p72
sg15
(lp73
sg17
(lp74
sg19
(lp75
sg21
I0
sba(iArchitecture
Entity
p76
(dp77
g11
(lp78
sg13
S'libs.androidfw.tests.data.basic.split_hdpi_v4_arsc.h'
p79
sg15
(lp80
sg17
(lp81
sg19
(lp82
sg21
I0
sba(iArchitecture
Entity
p83
(dp84
g11
(lp85
sg13
S'libs.androidfw.tests.data.basic.split_xhdpi_v4_arsc.h'
p86
sg15
(lp87
sg17
(lp88
sg19
(lp89
sg21
I0
sba(iArchitecture
Entity
p90
(dp91
g11
(lp92
sg13
S'libs.androidfw.tests.data.basic.split_xxhdpi_v4_arsc.h'
p93
sg15
(lp94
sg17
(lp95
sg19
(lp96
sg21
I0
sba(iArchitecture
Entity
p97
(dp98
g11
(lp99
sg13
S'libs.androidfw.tests.data.feature.feature_arsc.h'
p100
sg15
(lp101
sg17
(lp102
sg19
(lp103
sg21
I0
sbasg29
(lp104
g58
ag65
ag72
ag79
ag86
ag93
ag100
asg21
I0
sg31
S'libs.androidfw.tests.Split_test.ss'
p105
sba(iArchitecture
Cluster
p106
(dp107
g7
(lp108
(iArchitecture
Entity
p109
(dp110
g11
(lp111
sg13
S'libs.androidfw.tests.TestHelpers.c'
p112
sg15
(lp113
sg17
(lp114
sg19
(lp115
sg21
I0
sba(iArchitecture
Entity
p116
(dp117
g11
(lp118
sg13
S'libs.androidfw.tests.TestHelpers.h'
p119
sg15
(lp120
sg17
(lp121
sg19
(lp122
sg21
I0
sbasg29
(lp123
g112
ag119
asg21
I0
sg31
S'libs.androidfw.tests.TestHelpers.ch'
p124
sba(iArchitecture
Cluster
p125
(dp126
g7
(lp127
(iArchitecture
Entity
p128
(dp129
g11
(lp130
sg13
S'libs.androidfw.tests.Theme_test.c'
p131
sg15
(lp132
sg17
(lp133
sg19
(lp134
sg21
I0
sba(iArchitecture
Entity
p135
(dp136
g11
(lp137
sg13
S'libs.androidfw.tests.data.app.R.h'
p138
sg15
(lp139
sg17
(lp140
sg19
(lp141
sg21
I0
sba(iArchitecture
Entity
p142
(dp143
g11
(lp144
sg13
S'libs.androidfw.tests.data.app.app_arsc.h'
p145
sg15
(lp146
sg17
(lp147
sg19
(lp148
sg21
I0
sba(iArchitecture
Entity
p149
(dp150
g11
(lp151
sg13
S'libs.androidfw.tests.data.system.system_arsc.h'
p152
sg15
(lp153
sg17
(lp154
sg19
(lp155
sg21
I0
sbasg29
(lp156
g131
ag138
ag145
ag152
asg21
I0
sg31
S'libs.androidfw.tests.Theme_test.ss'
p157
sba(iArchitecture
Cluster
p158
(dp159
g7
(lp160
(iArchitecture
Entity
p161
(dp162
g11
(lp163
sg13
S'libs.androidfw.ZipUtils.c'
p164
sg15
(lp165
sg17
(lp166
sg19
(lp167
sg21
I0
sba(iArchitecture
Entity
p168
(dp169
g11
(lp170
sg13
S'libs.androidfw.tests.ZipUtils_test.c'
p171
sg15
(lp172
sg17
(lp173
sg19
(lp174
sg21
I0
sbasg29
(lp175
g164
ag171
asg21
I0
sg31
S'tools.aapt.ZipFile.ch'
p176
sba(iArchitecture
Cluster
p177
(dp178
g7
(lp179
(iArchitecture
Entity
p180
(dp181
g11
(lp182
sg13
S'libs.androidfw.ZipFileRO.c'
p183
sg15
(lp184
sg17
(lp185
sg19
(lp186
sg21
I0
sba(iArchitecture
Entity
p187
(dp188
g11
(lp189
sg13
S'libs.androidfw.misc.c'
p190
sg15
(lp191
sg17
(lp192
sg19
(lp193
sg21
I0
sbasg29
(lp194
g183
ag190
asg21
I0
sg31
S'tools.aapt2.XmlFlattener.ch'
p195
sba(iArchitecture
Cluster
p196
(dp197
g7
(lp198
(iArchitecture
Entity
p199
(dp200
g11
(lp201
sg13
S'libs.androidfw.Asset.c'
p202
sg15
(lp203
sg17
(lp204
sg19
(lp205
sg21
I0
sba(iArchitecture
Entity
p206
(dp207
g11
(lp208
sg13
S'libs.androidfw.AssetDir.c'
p209
sg15
(lp210
sg17
(lp211
sg19
(lp212
sg21
I0
sba(iArchitecture
Entity
p213
(dp214
g11
(lp215
sg13
S'libs.androidfw.AssetManager.c'
p216
sg15
(lp217
sg17
(lp218
sg19
(lp219
sg21
I0
sba(iArchitecture
Entity
p220
(dp221
g11
(lp222
sg13
S'libs.androidfw.BackupData.c'
p223
sg15
(lp224
sg17
(lp225
sg19
(lp226
sg21
I0
sba(iArchitecture
Entity
p227
(dp228
g11
(lp229
sg13
S'libs.androidfw.BackupHelpers.c'
p230
sg15
(lp231
sg17
(lp232
sg19
(lp233
sg21
I0
sba(iArchitecture
Entity
p234
(dp235
g11
(lp236
sg13
S'libs.androidfw.CursorWindow.c'
p237
sg15
(lp238
sg17
(lp239
sg19
(lp240
sg21
I0
sba(iArchitecture
Entity
p241
(dp242
g11
(lp243
sg13
S'libs.androidfw.ObbFile.c'
p244
sg15
(lp245
sg17
(lp246
sg19
(lp247
sg21
I0
sba(iArchitecture
Entity
p248
(dp249
g11
(lp250
sg13
S'libs.androidfw.ResourceTypes.c'
p251
sg15
(lp252
sg17
(lp253
sg19
(lp254
sg21
I0
sba(iArchitecture
Entity
p255
(dp256
g11
(lp257
sg13
S'libs.androidfw.StreamingZipInflater.c'
p258
sg15
(lp259
sg17
(lp260
sg19
(lp261
sg21
I0
sba(iArchitecture
Entity
p262
(dp263
g11
(lp264
sg13
S'libs.androidfw.TypeWrappers.c'
p265
sg15
(lp266
sg17
(lp267
sg19
(lp268
sg21
I0
sba(iArchitecture
Entity
p269
(dp270
g11
(lp271
sg13
S'libs.androidfw.tests.AttributeFinder_test.c'
p272
sg15
(lp273
sg17
(lp274
sg19
(lp275
sg21
I0
sba(iArchitecture
Entity
p276
(dp277
g11
(lp278
sg13
S'libs.androidfw.tests.BackupData_test.c'
p279
sg15
(lp280
sg17
(lp281
sg19
(lp282
sg21
I0
sba(iArchitecture
Entity
p283
(dp284
g11
(lp285
sg13
S'libs.androidfw.tests.ByteBucketArray_test.c'
p286
sg15
(lp287
sg17
(lp288
sg19
(lp289
sg21
I0
sba(iArchitecture
Entity
p290
(dp291
g11
(lp292
sg13
S'libs.androidfw.tests.ConfigLocale_test.c'
p293
sg15
(lp294
sg17
(lp295
sg19
(lp296
sg21
I0
sba(iArchitecture
Entity
p297
(dp298
g11
(lp299
sg13
S'libs.androidfw.tests.Config_test.c'
p300
sg15
(lp301
sg17
(lp302
sg19
(lp303
sg21
I0
sba(iArchitecture
Entity
p304
(dp305
g11
(lp306
sg13
S'libs.androidfw.tests.ObbFile_test.c'
p307
sg15
(lp308
sg17
(lp309
sg19
(lp310
sg21
I0
sba(iArchitecture
Entity
p311
(dp312
g11
(lp313
sg13
S'libs.androidfw.tests.TypeWrappers_test.c'
p314
sg15
(lp315
sg17
(lp316
sg19
(lp317
sg21
I0
sbasg29
(lp318
g202
ag209
ag216
ag223
ag230
ag237
ag244
ag251
ag258
ag265
ag272
ag279
ag286
ag293
ag300
ag307
ag314
asg21
I0
sg31
S'tools.split-select.TestRules.ch'
p319
sbasS'target_sub'
p320
S'libs.androidfw'
p321
sg29
(lp322
sS'is_component_arch'
p323
I00
sg31
S'6.0.0_r1'
p324
sba(iArchitecture
Architecture
p325
(dp326
g3
(lp327
(iArchitecture
Cluster
p328
(dp329
g7
(lp330
(iArchitecture
Entity
p331
(dp332
g11
(lp333
sg13
S'libs.androidfw.tests.AppAsLib_test.c'
p334
sg15
(lp335
sg17
(lp336
sg19
(lp337
sg21
I0
sba(iArchitecture
Entity
p338
(dp339
g11
(lp340
sg13
S'libs.androidfw.tests.data.appaslib.appaslib_arsc.h'
p341
sg15
(lp342
sg17
(lp343
sg19
(lp344
sg21
I0
sba(iArchitecture
Entity
p345
(dp346
g11
(lp347
sg13
S'libs.androidfw.tests.data.appaslib.appaslib_lib_arsc.h'
p348
sg15
(lp349
sg17
(lp350
sg19
(lp351
sg21
I0
sbasg29
(lp352
g334
ag341
ag348
asg21
I0
sg31
S'libs.androidfw.tests.AppAsLib_test.ss'
p353
sba(iArchitecture
Cluster
p354
(dp355
g7
(lp356
(iArchitecture
Entity
p357
(dp358
g11
(lp359
sg13
S'libs.androidfw.tests.Idmap_test.c'
p360
sg15
(lp361
sg17
(lp362
sg19
(lp363
sg21
I0
sba(iArchitecture
Entity
p364
(dp365
g11
(lp366
sg13
S'libs.androidfw.tests.data.overlay.overlay_arsc.h'
p367
sg15
(lp368
sg17
(lp369
sg19
(lp370
sg21
I0
sbasg29
(lp371
g360
ag367
asg21
I0
sg31
S'libs.androidfw.tests.Idmap_test.ss'
p372
sba(iArchitecture
Cluster
p373
(dp374
g7
(lp375
(iArchitecture
Entity
p376
(dp377
g11
(lp378
sg13
S'libs.androidfw.tests.ResTable_test.c'
p379
sg15
(lp380
sg17
(lp381
sg19
(lp382
sg21
I0
sba(iArchitecture
Entity
p383
(dp384
g11
(lp385
sg13
S'libs.androidfw.tests.data.lib.lib_arsc.h'
p386
sg15
(lp387
sg17
(lp388
sg19
(lp389
sg21
I0
sbasg29
(lp390
g379
ag386
asg21
I0
sg31
S'libs.androidfw.tests.ResTable_test.ss'
p391
sba(iArchitecture
Cluster
p392
(dp393
g7
(lp394
(iArchitecture
Entity
p395
(dp396
g11
(lp397
sg13
S'libs.androidfw.tests.Split_test.c'
p398
sg15
(lp399
sg17
(lp400
sg19
(lp401
sg21
I0
sba(iArchitecture
Entity
p402
(dp403
g11
(lp404
sg13
S'libs.androidfw.tests.data.basic.basic_arsc.h'
p405
sg15
(lp406
sg17
(lp407
sg19
(lp408
sg21
I0
sba(iArchitecture
Entity
p409
(dp410
g11
(lp411
sg13
S'libs.androidfw.tests.data.basic.split_de_fr_arsc.h'
p412
sg15
(lp413
sg17
(lp414
sg19
(lp415
sg21
I0
sba(iArchitecture
Entity
p416
(dp417
g11
(lp418
sg13
S'libs.androidfw.tests.data.basic.split_hdpi_v4_arsc.h'
p419
sg15
(lp420
sg17
(lp421
sg19
(lp422
sg21
I0
sba(iArchitecture
Entity
p423
(dp424
g11
(lp425
sg13
S'libs.androidfw.tests.data.basic.split_xhdpi_v4_arsc.h'
p426
sg15
(lp427
sg17
(lp428
sg19
(lp429
sg21
I0
sba(iArchitecture
Entity
p430
(dp431
g11
(lp432
sg13
S'libs.androidfw.tests.data.basic.split_xxhdpi_v4_arsc.h'
p433
sg15
(lp434
sg17
(lp435
sg19
(lp436
sg21
I0
sba(iArchitecture
Entity
p437
(dp438
g11
(lp439
sg13
S'libs.androidfw.tests.data.feature.feature_arsc.h'
p440
sg15
(lp441
sg17
(lp442
sg19
(lp443
sg21
I0
sbasg29
(lp444
g398
ag405
ag412
ag419
ag426
ag433
ag440
asg21
I0
sg31
S'libs.androidfw.tests.Split_test.ss'
p445
sba(iArchitecture
Cluster
p446
(dp447
g7
(lp448
(iArchitecture
Entity
p449
(dp450
g11
(lp451
sg13
S'libs.androidfw.tests.TestHelpers.c'
p452
sg15
(lp453
sg17
(lp454
sg19
(lp455
sg21
I0
sba(iArchitecture
Entity
p456
(dp457
g11
(lp458
sg13
S'libs.androidfw.tests.TestHelpers.h'
p459
sg15
(lp460
sg17
(lp461
sg19
(lp462
sg21
I0
sbasg29
(lp463
g452
ag459
asg21
I0
sg31
S'libs.androidfw.tests.TestHelpers.ch'
p464
sba(iArchitecture
Cluster
p465
(dp466
g7
(lp467
(iArchitecture
Entity
p468
(dp469
g11
(lp470
sg13
S'libs.androidfw.tests.Theme_test.c'
p471
sg15
(lp472
sg17
(lp473
sg19
(lp474
sg21
I0
sba(iArchitecture
Entity
p475
(dp476
g11
(lp477
sg13
S'libs.androidfw.tests.data.app.R.h'
p478
sg15
(lp479
sg17
(lp480
sg19
(lp481
sg21
I0
sba(iArchitecture
Entity
p482
(dp483
g11
(lp484
sg13
S'libs.androidfw.tests.data.app.app_arsc.h'
p485
sg15
(lp486
sg17
(lp487
sg19
(lp488
sg21
I0
sba(iArchitecture
Entity
p489
(dp490
g11
(lp491
sg13
S'libs.androidfw.tests.data.system.system_arsc.h'
p492
sg15
(lp493
sg17
(lp494
sg19
(lp495
sg21
I0
sbasg29
(lp496
g471
ag478
ag485
ag492
asg21
I0
sg31
S'libs.androidfw.tests.Theme_test.ss'
p497
sba(iArchitecture
Cluster
p498
(dp499
g7
(lp500
(iArchitecture
Entity
p501
(dp502
g11
(lp503
sg13
S'libs.androidfw.ZipUtils.c'
p504
sg15
(lp505
sg17
(lp506
sg19
(lp507
sg21
I0
sba(iArchitecture
Entity
p508
(dp509
g11
(lp510
sg13
S'libs.androidfw.tests.ZipUtils_test.c'
p511
sg15
(lp512
sg17
(lp513
sg19
(lp514
sg21
I0
sbasg29
(lp515
g504
ag511
asg21
I0
sg31
S'tools.aapt.ZipFile.ch'
p516
sba(iArchitecture
Cluster
p517
(dp518
g7
(lp519
(iArchitecture
Entity
p520
(dp521
g11
(lp522
sg13
S'libs.androidfw.ZipFileRO.c'
p523
sg15
(lp524
sg17
(lp525
sg19
(lp526
sg21
I0
sba(iArchitecture
Entity
p527
(dp528
g11
(lp529
sg13
S'libs.androidfw.misc.c'
p530
sg15
(lp531
sg17
(lp532
sg19
(lp533
sg21
I0
sbasg29
(lp534
g523
ag530
asg21
I0
sg31
S'tools.aapt2.xml.XmlUtil.ch'
p535
sba(iArchitecture
Cluster
p536
(dp537
g7
(lp538
(iArchitecture
Entity
p539
(dp540
g11
(lp541
sg13
S'libs.androidfw.Asset.c'
p542
sg15
(lp543
sg17
(lp544
sg19
(lp545
sg21
I0
sba(iArchitecture
Entity
p546
(dp547
g11
(lp548
sg13
S'libs.androidfw.AssetDir.c'
p549
sg15
(lp550
sg17
(lp551
sg19
(lp552
sg21
I0
sba(iArchitecture
Entity
p553
(dp554
g11
(lp555
sg13
S'libs.androidfw.AssetManager.c'
p556
sg15
(lp557
sg17
(lp558
sg19
(lp559
sg21
I0
sba(iArchitecture
Entity
p560
(dp561
g11
(lp562
sg13
S'libs.androidfw.BackupData.c'
p563
sg15
(lp564
sg17
(lp565
sg19
(lp566
sg21
I0
sba(iArchitecture
Entity
p567
(dp568
g11
(lp569
sg13
S'libs.androidfw.BackupHelpers.c'
p570
sg15
(lp571
sg17
(lp572
sg19
(lp573
sg21
I0
sba(iArchitecture
Entity
p574
(dp575
g11
(lp576
sg13
S'libs.androidfw.CursorWindow.c'
p577
sg15
(lp578
sg17
(lp579
sg19
(lp580
sg21
I0
sba(iArchitecture
Entity
p581
(dp582
g11
(lp583
sg13
S'libs.androidfw.DisplayEventDispatcher.c'
p584
sg15
(lp585
sg17
(lp586
sg19
(lp587
sg21
I0
sba(iArchitecture
Entity
p588
(dp589
g11
(lp590
sg13
S'libs.androidfw.LocaleData.c'
p591
sg15
(lp592
sg17
(lp593
sg19
(lp594
sg21
I0
sba(iArchitecture
Entity
p595
(dp596
g11
(lp597
sg13
S'libs.androidfw.ObbFile.c'
p598
sg15
(lp599
sg17
(lp600
sg19
(lp601
sg21
I0
sba(iArchitecture
Entity
p602
(dp603
g11
(lp604
sg13
S'libs.androidfw.ResourceTypes.c'
p605
sg15
(lp606
sg17
(lp607
sg19
(lp608
sg21
I0
sba(iArchitecture
Entity
p609
(dp610
g11
(lp611
sg13
S'libs.androidfw.StreamingZipInflater.c'
p612
sg15
(lp613
sg17
(lp614
sg19
(lp615
sg21
I0
sba(iArchitecture
Entity
p616
(dp617
g11
(lp618
sg13
S'libs.androidfw.TypeWrappers.c'
p619
sg15
(lp620
sg17
(lp621
sg19
(lp622
sg21
I0
sba(iArchitecture
Entity
p623
(dp624
g11
(lp625
sg13
S'libs.androidfw.tests.AttributeFinder_test.c'
p626
sg15
(lp627
sg17
(lp628
sg19
(lp629
sg21
I0
sba(iArchitecture
Entity
p630
(dp631
g11
(lp632
sg13
S'libs.androidfw.tests.BackupData_test.c'
p633
sg15
(lp634
sg17
(lp635
sg19
(lp636
sg21
I0
sba(iArchitecture
Entity
p637
(dp638
g11
(lp639
sg13
S'libs.androidfw.tests.ByteBucketArray_test.c'
p640
sg15
(lp641
sg17
(lp642
sg19
(lp643
sg21
I0
sba(iArchitecture
Entity
p644
(dp645
g11
(lp646
sg13
S'libs.androidfw.tests.ConfigLocale_test.c'
p647
sg15
(lp648
sg17
(lp649
sg19
(lp650
sg21
I0
sba(iArchitecture
Entity
p651
(dp652
g11
(lp653
sg13
S'libs.androidfw.tests.Config_test.c'
p654
sg15
(lp655
sg17
(lp656
sg19
(lp657
sg21
I0
sba(iArchitecture
Entity
p658
(dp659
g11
(lp660
sg13
S'libs.androidfw.tests.ObbFile_test.c'
p661
sg15
(lp662
sg17
(lp663
sg19
(lp664
sg21
I0
sba(iArchitecture
Entity
p665
(dp666
g11
(lp667
sg13
S'libs.androidfw.tests.TypeWrappers_test.c'
p668
sg15
(lp669
sg17
(lp670
sg19
(lp671
sg21
I0
sbasg29
(lp672
g542
ag549
ag556
ag563
ag570
ag577
ag584
ag591
ag598
ag605
ag612
ag619
ag626
ag633
ag640
ag647
ag654
ag661
ag668
asg21
I0
sg31
S'tools.split-select.TestRules.ch'
p673
sbasg320
g321
sg29
(lp674
sg323
I00
sg31
S'7.0.0_r1'
p675
sba.