(lp0
(iArchitecture
Architecture
p1
(dp2
S'clusters'
p3
(lp4
(iArchitecture
Cluster
p5
(dp6
S'entities'
p7
(lp8
(iArchitecture
Entity
p9
(dp10
S'issue_ids'
p11
(lp12
sS'name'
p13
S'media.mca.filterfw.jni.jni_gl_environment.c'
p14
sS'descs'
p15
(lp16
sS'labels'
p17
(lp18
sS'titles'
p19
(lp20
sS'change'
p21
I0
sba(iArchitecture
Entity
p22
(dp23
g11
(lp24
sg13
S'media.mca.filterfw.jni.jni_gl_environment.h'
p25
sg15
(lp26
sg17
(lp27
sg19
(lp28
sg21
I0
sbasS'classes'
p29
(lp30
g14
ag25
asg21
I0
sS'label'
p31
S'media.mca.filterfw.jni.jni_gl_environment.ch'
p32
sba(iArchitecture
Cluster
p33
(dp34
g7
(lp35
(iArchitecture
Entity
p36
(dp37
g11
(lp38
sg13
S'media.mca.filterfw.jni.jni_gl_frame.c'
p39
sg15
(lp40
sg17
(lp41
sg19
(lp42
sg21
I0
sba(iArchitecture
Entity
p43
(dp44
g11
(lp45
sg13
S'media.mca.filterfw.jni.jni_gl_frame.h'
p46
sg15
(lp47
sg17
(lp48
sg19
(lp49
sg21
I0
sbasg29
(lp50
g39
ag46
asg21
I0
sg31
S'media.mca.filterfw.jni.jni_gl_frame.ch'
p51
sba(iArchitecture
Cluster
p52
(dp53
g7
(lp54
(iArchitecture
Entity
p55
(dp56
g11
(lp57
sg13
S'media.mca.filterfw.jni.jni_native_buffer.c'
p58
sg15
(lp59
sg17
(lp60
sg19
(lp61
sg21
I0
sba(iArchitecture
Entity
p62
(dp63
g11
(lp64
sg13
S'media.mca.filterfw.jni.jni_native_buffer.h'
p65
sg15
(lp66
sg17
(lp67
sg19
(lp68
sg21
I0
sbasg29
(lp69
g58
ag65
asg21
I0
sg31
S'media.mca.filterfw.jni.jni_native_buffer.ch'
p70
sba(iArchitecture
Cluster
p71
(dp72
g7
(lp73
(iArchitecture
Entity
p74
(dp75
g11
(lp76
sg13
S'media.mca.filterfw.jni.jni_native_frame.c'
p77
sg15
(lp78
sg17
(lp79
sg19
(lp80
sg21
I0
sba(iArchitecture
Entity
p81
(dp82
g11
(lp83
sg13
S'media.mca.filterfw.jni.jni_native_frame.h'
p84
sg15
(lp85
sg17
(lp86
sg19
(lp87
sg21
I0
sbasg29
(lp88
g77
ag84
asg21
I0
sg31
S'media.mca.filterfw.jni.jni_native_frame.ch'
p89
sba(iArchitecture
Cluster
p90
(dp91
g7
(lp92
(iArchitecture
Entity
p93
(dp94
g11
(lp95
sg13
S'media.mca.filterfw.jni.jni_native_program.c'
p96
sg15
(lp97
sg17
(lp98
sg19
(lp99
sg21
I0
sba(iArchitecture
Entity
p100
(dp101
g11
(lp102
sg13
S'media.mca.filterfw.jni.jni_native_program.h'
p103
sg15
(lp104
sg17
(lp105
sg19
(lp106
sg21
I0
sbasg29
(lp107
g96
ag103
asg21
I0
sg31
S'media.mca.filterfw.jni.jni_native_program.ch'
p108
sba(iArchitecture
Cluster
p109
(dp110
g7
(lp111
(iArchitecture
Entity
p112
(dp113
g11
(lp114
sg13
S'media.mca.filterfw.jni.jni_shader_program.c'
p115
sg15
(lp116
sg17
(lp117
sg19
(lp118
sg21
I0
sba(iArchitecture
Entity
p119
(dp120
g11
(lp121
sg13
S'media.mca.filterfw.jni.jni_shader_program.h'
p122
sg15
(lp123
sg17
(lp124
sg19
(lp125
sg21
I0
sbasg29
(lp126
g115
ag122
asg21
I0
sg31
S'media.mca.filterfw.jni.jni_shader_program.ch'
p127
sba(iArchitecture
Cluster
p128
(dp129
g7
(lp130
(iArchitecture
Entity
p131
(dp132
g11
(lp133
sg13
S'media.mca.filterfw.jni.jni_util.c'
p134
sg15
(lp135
sg17
(lp136
sg19
(lp137
sg21
I0
sba(iArchitecture
Entity
p138
(dp139
g11
(lp140
sg13
S'media.mca.filterfw.jni.jni_util.h'
p141
sg15
(lp142
sg17
(lp143
sg19
(lp144
sg21
I0
sbasg29
(lp145
g134
ag141
asg21
I0
sg31
S'media.mca.filterfw.jni.jni_util.ch'
p146
sba(iArchitecture
Cluster
p147
(dp148
g7
(lp149
(iArchitecture
Entity
p150
(dp151
g11
(lp152
sg13
S'media.mca.filterfw.jni.jni_vertex_frame.c'
p153
sg15
(lp154
sg17
(lp155
sg19
(lp156
sg21
I0
sba(iArchitecture
Entity
p157
(dp158
g11
(lp159
sg13
S'media.mca.filterfw.jni.jni_vertex_frame.h'
p160
sg15
(lp161
sg17
(lp162
sg19
(lp163
sg21
I0
sbasg29
(lp164
g153
ag160
asg21
I0
sg31
S'media.mca.filterfw.jni.jni_vertex_frame.ch'
p165
sba(iArchitecture
Cluster
p166
(dp167
g7
(lp168
(iArchitecture
Entity
p169
(dp170
g11
(lp171
sg13
S'media.mca.filterfw.native.core.geometry.c'
p172
sg15
(lp173
sg17
(lp174
sg19
(lp175
sg21
I0
sba(iArchitecture
Entity
p176
(dp177
g11
(lp178
sg13
S'media.mca.filterfw.native.core.geometry.h'
p179
sg15
(lp180
sg17
(lp181
sg19
(lp182
sg21
I0
sba(iArchitecture
Entity
p183
(dp184
g11
(lp185
sg13
S'media.mca.filterpacks.native.base.geometry.c'
p186
sg15
(lp187
sg17
(lp188
sg19
(lp189
sg21
I0
sbasg29
(lp190
g172
ag179
ag186
asg21
I0
sg31
S'media.mca.filterfw.native.core.geometry.ch'
p191
sba(iArchitecture
Cluster
p192
(dp193
g7
(lp194
(iArchitecture
Entity
p195
(dp196
g11
(lp197
sg13
S'media.mca.filterfw.native.core.gl_env.c'
p198
sg15
(lp199
sg17
(lp200
sg19
(lp201
sg21
I0
sba(iArchitecture
Entity
p202
(dp203
g11
(lp204
sg13
S'media.mca.filterfw.native.core.gl_env.h'
p205
sg15
(lp206
sg17
(lp207
sg19
(lp208
sg21
I0
sbasg29
(lp209
g198
ag205
asg21
I0
sg31
S'media.mca.filterfw.native.core.gl_env.ch'
p210
sba(iArchitecture
Cluster
p211
(dp212
g7
(lp213
(iArchitecture
Entity
p214
(dp215
g11
(lp216
sg13
S'media.mca.filterfw.native.core.gl_frame.c'
p217
sg15
(lp218
sg17
(lp219
sg19
(lp220
sg21
I0
sba(iArchitecture
Entity
p221
(dp222
g11
(lp223
sg13
S'media.mca.filterfw.native.core.gl_frame.h'
p224
sg15
(lp225
sg17
(lp226
sg19
(lp227
sg21
I0
sbasg29
(lp228
g217
ag224
asg21
I0
sg31
S'media.mca.filterfw.native.core.gl_frame.ch'
p229
sba(iArchitecture
Cluster
p230
(dp231
g7
(lp232
(iArchitecture
Entity
p233
(dp234
g11
(lp235
sg13
S'media.mca.filterfw.native.core.native_frame.c'
p236
sg15
(lp237
sg17
(lp238
sg19
(lp239
sg21
I0
sba(iArchitecture
Entity
p240
(dp241
g11
(lp242
sg13
S'media.mca.filterfw.native.core.native_frame.h'
p243
sg15
(lp244
sg17
(lp245
sg19
(lp246
sg21
I0
sbasg29
(lp247
g236
ag243
asg21
I0
sg31
S'media.mca.filterfw.native.core.native_frame.ch'
p248
sba(iArchitecture
Cluster
p249
(dp250
g7
(lp251
(iArchitecture
Entity
p252
(dp253
g11
(lp254
sg13
S'media.mca.filterfw.native.core.native_program.c'
p255
sg15
(lp256
sg17
(lp257
sg19
(lp258
sg21
I0
sba(iArchitecture
Entity
p259
(dp260
g11
(lp261
sg13
S'media.mca.filterfw.native.core.native_program.h'
p262
sg15
(lp263
sg17
(lp264
sg19
(lp265
sg21
I0
sbasg29
(lp266
g255
ag262
asg21
I0
sg31
S'media.mca.filterfw.native.core.native_program.ch'
p267
sba(iArchitecture
Cluster
p268
(dp269
g7
(lp270
(iArchitecture
Entity
p271
(dp272
g11
(lp273
sg13
S'media.mca.filterfw.native.core.gl_buffer_interface.h'
p274
sg15
(lp275
sg17
(lp276
sg19
(lp277
sg21
I0
sba(iArchitecture
Entity
p278
(dp279
g11
(lp280
sg13
S'media.mca.filterfw.native.core.shader_program.c'
p281
sg15
(lp282
sg17
(lp283
sg19
(lp284
sg21
I0
sba(iArchitecture
Entity
p285
(dp286
g11
(lp287
sg13
S'media.mca.filterfw.native.core.shader_program.h'
p288
sg15
(lp289
sg17
(lp290
sg19
(lp291
sg21
I0
sbasg29
(lp292
g274
ag281
ag288
asg21
I0
sg31
S'media.mca.filterfw.native.core.shader_program.ch'
p293
sba(iArchitecture
Cluster
p294
(dp295
g7
(lp296
(iArchitecture
Entity
p297
(dp298
g11
(lp299
sg13
S'media.mca.filterfw.native.core.statistics.c'
p300
sg15
(lp301
sg17
(lp302
sg19
(lp303
sg21
I0
sba(iArchitecture
Entity
p304
(dp305
g11
(lp306
sg13
S'media.mca.filterfw.native.core.statistics.h'
p307
sg15
(lp308
sg17
(lp309
sg19
(lp310
sg21
I0
sbasg29
(lp311
g300
ag307
asg21
I0
sg31
S'media.mca.filterfw.native.core.statistics.ch'
p312
sba(iArchitecture
Cluster
p313
(dp314
g7
(lp315
(iArchitecture
Entity
p316
(dp317
g11
(lp318
sg13
S'media.mca.filterfw.native.core.time_util.c'
p319
sg15
(lp320
sg17
(lp321
sg19
(lp322
sg21
I0
sba(iArchitecture
Entity
p323
(dp324
g11
(lp325
sg13
S'media.mca.filterfw.native.core.time_util.h'
p326
sg15
(lp327
sg17
(lp328
sg19
(lp329
sg21
I0
sbasg29
(lp330
g319
ag326
asg21
I0
sg31
S'media.mca.filterfw.native.core.time_util.ch'
p331
sba(iArchitecture
Cluster
p332
(dp333
g7
(lp334
(iArchitecture
Entity
p335
(dp336
g11
(lp337
sg13
S'media.mca.filterfw.native.core.value.c'
p338
sg15
(lp339
sg17
(lp340
sg19
(lp341
sg21
I0
sba(iArchitecture
Entity
p342
(dp343
g11
(lp344
sg13
S'media.mca.filterfw.native.core.value.h'
p345
sg15
(lp346
sg17
(lp347
sg19
(lp348
sg21
I0
sbasg29
(lp349
g338
ag345
asg21
I0
sg31
S'media.mca.filterfw.native.core.value.ch'
p350
sba(iArchitecture
Cluster
p351
(dp352
g7
(lp353
(iArchitecture
Entity
p354
(dp355
g11
(lp356
sg13
S'media.mca.filterfw.jni.jni_init.c'
p357
sg15
(lp358
sg17
(lp359
sg19
(lp360
sg21
I0
sba(iArchitecture
Entity
p361
(dp362
g11
(lp363
sg13
S'media.mca.filterfw.native.base.logging.h'
p364
sg15
(lp365
sg17
(lp366
sg19
(lp367
sg21
I0
sba(iArchitecture
Entity
p368
(dp369
g11
(lp370
sg13
S'media.mca.filterfw.native.base.utilities.h'
p371
sg15
(lp372
sg17
(lp373
sg19
(lp374
sg21
I0
sba(iArchitecture
Entity
p375
(dp376
g11
(lp377
sg13
S'media.mca.filterfw.native.core.vertex_frame.c'
p378
sg15
(lp379
sg17
(lp380
sg19
(lp381
sg21
I0
sba(iArchitecture
Entity
p382
(dp383
g11
(lp384
sg13
S'media.mca.filterfw.native.core.vertex_frame.h'
p385
sg15
(lp386
sg17
(lp387
sg19
(lp388
sg21
I0
sba(iArchitecture
Entity
p389
(dp390
g11
(lp391
sg13
S'media.mca.filterpacks.native.base.time_util.c'
p392
sg15
(lp393
sg17
(lp394
sg19
(lp395
sg21
I0
sbasg29
(lp396
g357
ag364
ag371
ag378
ag385
ag392
asg21
I0
sg31
S'media.mca.filterfw.native.core.vertex_frame.ch'
p397
sba(iArchitecture
Cluster
p398
(dp399
g7
(lp400
(iArchitecture
Entity
p401
(dp402
g11
(lp403
sg13
S'media.mca.filterpacks.native.imageproc.to_rgba.c'
p404
sg15
(lp405
sg17
(lp406
sg19
(lp407
sg21
I0
sbasg29
(lp408
g404
asg21
I0
sg31
S'orphanContainer.ss'
p409
sba(iArchitecture
Cluster
p410
(dp411
g7
(lp412
(iArchitecture
Entity
p413
(dp414
g11
(lp415
sg13
S'media.mca.filterpacks.native.imageproc.brightness.c'
p416
sg15
(lp417
sg17
(lp418
sg19
(lp419
sg21
I0
sba(iArchitecture
Entity
p420
(dp421
g11
(lp422
sg13
S'media.mca.filterpacks.native.imageproc.contrast.c'
p423
sg15
(lp424
sg17
(lp425
sg19
(lp426
sg21
I0
sba(iArchitecture
Entity
p427
(dp428
g11
(lp429
sg13
S'media.mca.filterpacks.native.imageproc.invert.c'
p430
sg15
(lp431
sg17
(lp432
sg19
(lp433
sg21
I0
sbasg29
(lp434
g416
ag423
ag430
asg21
I0
sg31
S'tools.split-select.TestRules.ch'
p435
sbasS'target_sub'
p436
S'media.mca'
p437
sg29
(lp438
sS'is_component_arch'
p439
I00
sg31
S'6.0.0_r1'
p440
sba(iArchitecture
Architecture
p441
(dp442
g3
(lp443
(iArchitecture
Cluster
p444
(dp445
g7
(lp446
(iArchitecture
Entity
p447
(dp448
g11
(lp449
sg13
S'media.mca.filterfw.jni.jni_gl_environment.c'
p450
sg15
(lp451
sg17
(lp452
sg19
(lp453
sg21
I0
sba(iArchitecture
Entity
p454
(dp455
g11
(lp456
sg13
S'media.mca.filterfw.jni.jni_gl_environment.h'
p457
sg15
(lp458
sg17
(lp459
sg19
(lp460
sg21
I0
sbasg29
(lp461
g450
ag457
asg21
I0
sg31
S'media.mca.filterfw.jni.jni_gl_environment.ch'
p462
sba(iArchitecture
Cluster
p463
(dp464
g7
(lp465
(iArchitecture
Entity
p466
(dp467
g11
(lp468
sg13
S'media.mca.filterfw.jni.jni_gl_frame.c'
p469
sg15
(lp470
sg17
(lp471
sg19
(lp472
sg21
I0
sba(iArchitecture
Entity
p473
(dp474
g11
(lp475
sg13
S'media.mca.filterfw.jni.jni_gl_frame.h'
p476
sg15
(lp477
sg17
(lp478
sg19
(lp479
sg21
I0
sbasg29
(lp480
g469
ag476
asg21
I0
sg31
S'media.mca.filterfw.jni.jni_gl_frame.ch'
p481
sba(iArchitecture
Cluster
p482
(dp483
g7
(lp484
(iArchitecture
Entity
p485
(dp486
g11
(lp487
sg13
S'media.mca.filterfw.jni.jni_native_buffer.c'
p488
sg15
(lp489
sg17
(lp490
sg19
(lp491
sg21
I0
sba(iArchitecture
Entity
p492
(dp493
g11
(lp494
sg13
S'media.mca.filterfw.jni.jni_native_buffer.h'
p495
sg15
(lp496
sg17
(lp497
sg19
(lp498
sg21
I0
sbasg29
(lp499
g488
ag495
asg21
I0
sg31
S'media.mca.filterfw.jni.jni_native_buffer.ch'
p500
sba(iArchitecture
Cluster
p501
(dp502
g7
(lp503
(iArchitecture
Entity
p504
(dp505
g11
(lp506
sg13
S'media.mca.filterfw.jni.jni_native_frame.c'
p507
sg15
(lp508
sg17
(lp509
sg19
(lp510
sg21
I0
sba(iArchitecture
Entity
p511
(dp512
g11
(lp513
sg13
S'media.mca.filterfw.jni.jni_native_frame.h'
p514
sg15
(lp515
sg17
(lp516
sg19
(lp517
sg21
I0
sbasg29
(lp518
g507
ag514
asg21
I0
sg31
S'media.mca.filterfw.jni.jni_native_frame.ch'
p519
sba(iArchitecture
Cluster
p520
(dp521
g7
(lp522
(iArchitecture
Entity
p523
(dp524
g11
(lp525
sg13
S'media.mca.filterfw.jni.jni_native_program.c'
p526
sg15
(lp527
sg17
(lp528
sg19
(lp529
sg21
I0
sba(iArchitecture
Entity
p530
(dp531
g11
(lp532
sg13
S'media.mca.filterfw.jni.jni_native_program.h'
p533
sg15
(lp534
sg17
(lp535
sg19
(lp536
sg21
I0
sbasg29
(lp537
g526
ag533
asg21
I0
sg31
S'media.mca.filterfw.jni.jni_native_program.ch'
p538
sba(iArchitecture
Cluster
p539
(dp540
g7
(lp541
(iArchitecture
Entity
p542
(dp543
g11
(lp544
sg13
S'media.mca.filterfw.jni.jni_shader_program.c'
p545
sg15
(lp546
sg17
(lp547
sg19
(lp548
sg21
I0
sba(iArchitecture
Entity
p549
(dp550
g11
(lp551
sg13
S'media.mca.filterfw.jni.jni_shader_program.h'
p552
sg15
(lp553
sg17
(lp554
sg19
(lp555
sg21
I0
sbasg29
(lp556
g545
ag552
asg21
I0
sg31
S'media.mca.filterfw.jni.jni_shader_program.ch'
p557
sba(iArchitecture
Cluster
p558
(dp559
g7
(lp560
(iArchitecture
Entity
p561
(dp562
g11
(lp563
sg13
S'media.mca.filterfw.jni.jni_util.c'
p564
sg15
(lp565
sg17
(lp566
sg19
(lp567
sg21
I0
sba(iArchitecture
Entity
p568
(dp569
g11
(lp570
sg13
S'media.mca.filterfw.jni.jni_util.h'
p571
sg15
(lp572
sg17
(lp573
sg19
(lp574
sg21
I0
sbasg29
(lp575
g564
ag571
asg21
I0
sg31
S'media.mca.filterfw.jni.jni_util.ch'
p576
sba(iArchitecture
Cluster
p577
(dp578
g7
(lp579
(iArchitecture
Entity
p580
(dp581
g11
(lp582
sg13
S'media.mca.filterfw.jni.jni_vertex_frame.c'
p583
sg15
(lp584
sg17
(lp585
sg19
(lp586
sg21
I0
sba(iArchitecture
Entity
p587
(dp588
g11
(lp589
sg13
S'media.mca.filterfw.jni.jni_vertex_frame.h'
p590
sg15
(lp591
sg17
(lp592
sg19
(lp593
sg21
I0
sbasg29
(lp594
g583
ag590
asg21
I0
sg31
S'media.mca.filterfw.jni.jni_vertex_frame.ch'
p595
sba(iArchitecture
Cluster
p596
(dp597
g7
(lp598
(iArchitecture
Entity
p599
(dp600
g11
(lp601
sg13
S'media.mca.filterfw.native.core.geometry.c'
p602
sg15
(lp603
sg17
(lp604
sg19
(lp605
sg21
I0
sba(iArchitecture
Entity
p606
(dp607
g11
(lp608
sg13
S'media.mca.filterfw.native.core.geometry.h'
p609
sg15
(lp610
sg17
(lp611
sg19
(lp612
sg21
I0
sba(iArchitecture
Entity
p613
(dp614
g11
(lp615
sg13
S'media.mca.filterpacks.native.base.geometry.c'
p616
sg15
(lp617
sg17
(lp618
sg19
(lp619
sg21
I0
sbasg29
(lp620
g602
ag609
ag616
asg21
I0
sg31
S'media.mca.filterfw.native.core.geometry.ch'
p621
sba(iArchitecture
Cluster
p622
(dp623
g7
(lp624
(iArchitecture
Entity
p625
(dp626
g11
(lp627
sg13
S'media.mca.filterfw.native.core.gl_env.c'
p628
sg15
(lp629
sg17
(lp630
sg19
(lp631
sg21
I0
sba(iArchitecture
Entity
p632
(dp633
g11
(lp634
sg13
S'media.mca.filterfw.native.core.gl_env.h'
p635
sg15
(lp636
sg17
(lp637
sg19
(lp638
sg21
I0
sbasg29
(lp639
g628
ag635
asg21
I0
sg31
S'media.mca.filterfw.native.core.gl_env.ch'
p640
sba(iArchitecture
Cluster
p641
(dp642
g7
(lp643
(iArchitecture
Entity
p644
(dp645
g11
(lp646
sg13
S'media.mca.filterfw.native.core.gl_frame.c'
p647
sg15
(lp648
sg17
(lp649
sg19
(lp650
sg21
I0
sba(iArchitecture
Entity
p651
(dp652
g11
(lp653
sg13
S'media.mca.filterfw.native.core.gl_frame.h'
p654
sg15
(lp655
sg17
(lp656
sg19
(lp657
sg21
I0
sbasg29
(lp658
g647
ag654
asg21
I0
sg31
S'media.mca.filterfw.native.core.gl_frame.ch'
p659
sba(iArchitecture
Cluster
p660
(dp661
g7
(lp662
(iArchitecture
Entity
p663
(dp664
g11
(lp665
sg13
S'media.mca.filterfw.native.core.native_frame.c'
p666
sg15
(lp667
sg17
(lp668
sg19
(lp669
sg21
I0
sba(iArchitecture
Entity
p670
(dp671
g11
(lp672
sg13
S'media.mca.filterfw.native.core.native_frame.h'
p673
sg15
(lp674
sg17
(lp675
sg19
(lp676
sg21
I0
sbasg29
(lp677
g666
ag673
asg21
I0
sg31
S'media.mca.filterfw.native.core.native_frame.ch'
p678
sba(iArchitecture
Cluster
p679
(dp680
g7
(lp681
(iArchitecture
Entity
p682
(dp683
g11
(lp684
sg13
S'media.mca.filterfw.native.core.native_program.c'
p685
sg15
(lp686
sg17
(lp687
sg19
(lp688
sg21
I0
sba(iArchitecture
Entity
p689
(dp690
g11
(lp691
sg13
S'media.mca.filterfw.native.core.native_program.h'
p692
sg15
(lp693
sg17
(lp694
sg19
(lp695
sg21
I0
sbasg29
(lp696
g685
ag692
asg21
I0
sg31
S'media.mca.filterfw.native.core.native_program.ch'
p697
sba(iArchitecture
Cluster
p698
(dp699
g7
(lp700
(iArchitecture
Entity
p701
(dp702
g11
(lp703
sg13
S'media.mca.filterfw.native.core.gl_buffer_interface.h'
p704
sg15
(lp705
sg17
(lp706
sg19
(lp707
sg21
I0
sba(iArchitecture
Entity
p708
(dp709
g11
(lp710
sg13
S'media.mca.filterfw.native.core.shader_program.c'
p711
sg15
(lp712
sg17
(lp713
sg19
(lp714
sg21
I0
sba(iArchitecture
Entity
p715
(dp716
g11
(lp717
sg13
S'media.mca.filterfw.native.core.shader_program.h'
p718
sg15
(lp719
sg17
(lp720
sg19
(lp721
sg21
I0
sbasg29
(lp722
g704
ag711
ag718
asg21
I0
sg31
S'media.mca.filterfw.native.core.shader_program.ch'
p723
sba(iArchitecture
Cluster
p724
(dp725
g7
(lp726
(iArchitecture
Entity
p727
(dp728
g11
(lp729
sg13
S'media.mca.filterfw.native.core.statistics.c'
p730
sg15
(lp731
sg17
(lp732
sg19
(lp733
sg21
I0
sba(iArchitecture
Entity
p734
(dp735
g11
(lp736
sg13
S'media.mca.filterfw.native.core.statistics.h'
p737
sg15
(lp738
sg17
(lp739
sg19
(lp740
sg21
I0
sbasg29
(lp741
g730
ag737
asg21
I0
sg31
S'media.mca.filterfw.native.core.statistics.ch'
p742
sba(iArchitecture
Cluster
p743
(dp744
g7
(lp745
(iArchitecture
Entity
p746
(dp747
g11
(lp748
sg13
S'media.mca.filterfw.native.core.time_util.c'
p749
sg15
(lp750
sg17
(lp751
sg19
(lp752
sg21
I0
sba(iArchitecture
Entity
p753
(dp754
g11
(lp755
sg13
S'media.mca.filterfw.native.core.time_util.h'
p756
sg15
(lp757
sg17
(lp758
sg19
(lp759
sg21
I0
sbasg29
(lp760
g749
ag756
asg21
I0
sg31
S'media.mca.filterfw.native.core.time_util.ch'
p761
sba(iArchitecture
Cluster
p762
(dp763
g7
(lp764
(iArchitecture
Entity
p765
(dp766
g11
(lp767
sg13
S'media.mca.filterfw.native.core.value.c'
p768
sg15
(lp769
sg17
(lp770
sg19
(lp771
sg21
I0
sba(iArchitecture
Entity
p772
(dp773
g11
(lp774
sg13
S'media.mca.filterfw.native.core.value.h'
p775
sg15
(lp776
sg17
(lp777
sg19
(lp778
sg21
I0
sbasg29
(lp779
g768
ag775
asg21
I0
sg31
S'media.mca.filterfw.native.core.value.ch'
p780
sba(iArchitecture
Cluster
p781
(dp782
g7
(lp783
(iArchitecture
Entity
p784
(dp785
g11
(lp786
sg13
S'media.mca.filterfw.jni.jni_init.c'
p787
sg15
(lp788
sg17
(lp789
sg19
(lp790
sg21
I0
sba(iArchitecture
Entity
p791
(dp792
g11
(lp793
sg13
S'media.mca.filterfw.native.base.logging.h'
p794
sg15
(lp795
sg17
(lp796
sg19
(lp797
sg21
I0
sba(iArchitecture
Entity
p798
(dp799
g11
(lp800
sg13
S'media.mca.filterfw.native.base.utilities.h'
p801
sg15
(lp802
sg17
(lp803
sg19
(lp804
sg21
I0
sba(iArchitecture
Entity
p805
(dp806
g11
(lp807
sg13
S'media.mca.filterfw.native.core.vertex_frame.c'
p808
sg15
(lp809
sg17
(lp810
sg19
(lp811
sg21
I0
sba(iArchitecture
Entity
p812
(dp813
g11
(lp814
sg13
S'media.mca.filterfw.native.core.vertex_frame.h'
p815
sg15
(lp816
sg17
(lp817
sg19
(lp818
sg21
I0
sba(iArchitecture
Entity
p819
(dp820
g11
(lp821
sg13
S'media.mca.filterpacks.native.base.time_util.c'
p822
sg15
(lp823
sg17
(lp824
sg19
(lp825
sg21
I0
sbasg29
(lp826
g787
ag794
ag801
ag808
ag815
ag822
asg21
I0
sg31
S'media.mca.filterfw.native.core.vertex_frame.ch'
p827
sba(iArchitecture
Cluster
p828
(dp829
g7
(lp830
(iArchitecture
Entity
p831
(dp832
g11
(lp833
sg13
S'media.mca.filterpacks.native.imageproc.to_rgba.c'
p834
sg15
(lp835
sg17
(lp836
sg19
(lp837
sg21
I0
sbasg29
(lp838
g834
asg21
I0
sg31
S'orphanContainer.ss'
p839
sba(iArchitecture
Cluster
p840
(dp841
g7
(lp842
(iArchitecture
Entity
p843
(dp844
g11
(lp845
sg13
S'media.mca.filterpacks.native.imageproc.brightness.c'
p846
sg15
(lp847
sg17
(lp848
sg19
(lp849
sg21
I0
sba(iArchitecture
Entity
p850
(dp851
g11
(lp852
sg13
S'media.mca.filterpacks.native.imageproc.contrast.c'
p853
sg15
(lp854
sg17
(lp855
sg19
(lp856
sg21
I0
sba(iArchitecture
Entity
p857
(dp858
g11
(lp859
sg13
S'media.mca.filterpacks.native.imageproc.invert.c'
p860
sg15
(lp861
sg17
(lp862
sg19
(lp863
sg21
I0
sbasg29
(lp864
g846
ag853
ag860
asg21
I0
sg31
S'tools.split-select.TestRules.ch'
p865
sbasg436
g437
sg29
(lp866
sg439
I00
sg31
S'7.0.0_r1'
p867
sba.