(lp0
(iArchitecture
Architecture
p1
(dp2
S'clusters'
p3
(lp4
(iArchitecture
Cluster
p5
(dp6
S'entities'
p7
(lp8
(iArchitecture
Entity
p9
(dp10
S'issue_ids'
p11
(lp12
sS'name'
p13
S'tools.aidl.AST.c'
p14
sS'descs'
p15
(lp16
sS'labels'
p17
(lp18
sS'titles'
p19
(lp20
sS'change'
p21
I0
sba(iArchitecture
Entity
p22
(dp23
g11
(lp24
sg13
S'tools.aidl.AST.h'
p25
sg15
(lp26
sg17
(lp27
sg19
(lp28
sg21
I0
sbasS'classes'
p29
(lp30
g14
ag25
asg21
I0
sS'label'
p31
S'tools.aidl.AST.ch'
p32
sba(iArchitecture
Cluster
p33
(dp34
g7
(lp35
(iArchitecture
Entity
p36
(dp37
g11
(lp38
sg13
S'tools.aidl.Type.c'
p39
sg15
(lp40
sg17
(lp41
sg19
(lp42
sg21
I0
sba(iArchitecture
Entity
p43
(dp44
g11
(lp45
sg13
S'tools.aidl.Type.h'
p46
sg15
(lp47
sg17
(lp48
sg19
(lp49
sg21
I0
sbasg29
(lp50
g39
ag46
asg21
I0
sg31
S'tools.aidl.Type.ch'
p51
sba(iArchitecture
Cluster
p52
(dp53
g7
(lp54
(iArchitecture
Entity
p55
(dp56
g11
(lp57
sg13
S'tools.aidl.aidl_language.c'
p58
sg15
(lp59
sg17
(lp60
sg19
(lp61
sg21
I0
sba(iArchitecture
Entity
p62
(dp63
g11
(lp64
sg13
S'tools.aidl.aidl_language.h'
p65
sg15
(lp66
sg17
(lp67
sg19
(lp68
sg21
I0
sbasg29
(lp69
g58
ag65
asg21
I0
sg31
S'tools.aidl.aidl_language.ch'
p70
sba(iArchitecture
Cluster
p71
(dp72
g7
(lp73
(iArchitecture
Entity
p74
(dp75
g11
(lp76
sg13
S'tools.aidl.generate_java.c'
p77
sg15
(lp78
sg17
(lp79
sg19
(lp80
sg21
I0
sba(iArchitecture
Entity
p81
(dp82
g11
(lp83
sg13
S'tools.aidl.generate_java.h'
p84
sg15
(lp85
sg17
(lp86
sg19
(lp87
sg21
I0
sba(iArchitecture
Entity
p88
(dp89
g11
(lp90
sg13
S'tools.aidl.generate_java_binder.c'
p91
sg15
(lp92
sg17
(lp93
sg19
(lp94
sg21
I0
sba(iArchitecture
Entity
p95
(dp96
g11
(lp97
sg13
S'tools.aidl.generate_java_rpc.c'
p98
sg15
(lp99
sg17
(lp100
sg19
(lp101
sg21
I0
sbasg29
(lp102
g77
ag84
ag91
ag98
asg21
I0
sg31
S'tools.aidl.generate_java.ch'
p103
sba(iArchitecture
Cluster
p104
(dp105
g7
(lp106
(iArchitecture
Entity
p107
(dp108
g11
(lp109
sg13
S'tools.aidl.options.c'
p110
sg15
(lp111
sg17
(lp112
sg19
(lp113
sg21
I0
sba(iArchitecture
Entity
p114
(dp115
g11
(lp116
sg13
S'tools.aidl.options.h'
p117
sg15
(lp118
sg17
(lp119
sg19
(lp120
sg21
I0
sba(iArchitecture
Entity
p121
(dp122
g11
(lp123
sg13
S'tools.aidl.options_test.c'
p124
sg15
(lp125
sg17
(lp126
sg19
(lp127
sg21
I0
sbasg29
(lp128
g110
ag117
ag124
asg21
I0
sg31
S'tools.aidl.options.ch'
p129
sba(iArchitecture
Cluster
p130
(dp131
g7
(lp132
(iArchitecture
Entity
p133
(dp134
g11
(lp135
sg13
S'tools.aidl.aidl.c'
p136
sg15
(lp137
sg17
(lp138
sg19
(lp139
sg21
I0
sba(iArchitecture
Entity
p140
(dp141
g11
(lp142
sg13
S'tools.aidl.search_path.c'
p143
sg15
(lp144
sg17
(lp145
sg19
(lp146
sg21
I0
sba(iArchitecture
Entity
p147
(dp148
g11
(lp149
sg13
S'tools.aidl.search_path.h'
p150
sg15
(lp151
sg17
(lp152
sg19
(lp153
sg21
I0
sbasg29
(lp154
g136
ag143
ag150
asg21
I0
sg31
S'tools.aidl.search_path.ch'
p155
sbasS'target_sub'
p156
S'tools.aidl'
p157
sg29
(lp158
sS'is_component_arch'
p159
I00
sg31
S'6.0.0_r1'
p160
sba(iArchitecture
Architecture
p161
(dp162
g3
(lp163
sg156
g157
sg29
(lp164
sg159
I00
sg31
S'7.0.0_r1'
p165
sba.