(lp0
(iArchitecture
Architecture
p1
(dp2
S'clusters'
p3
(lp4
(iArchitecture
Cluster
p5
(dp6
S'entities'
p7
(lp8
(iArchitecture
Entity
p9
(dp10
S'issue_ids'
p11
(lp12
sS'name'
p13
S'native.android.native_window.c'
p14
sS'descs'
p15
(lp16
sS'labels'
p17
(lp18
sS'titles'
p19
(lp20
sS'change'
p21
I0
sbasS'classes'
p22
(lp23
g14
asg21
I0
sS'label'
p24
S'media.jni.android_media_MediaSync.ch'
p25
sba(iArchitecture
Cluster
p26
(dp27
g7
(lp28
(iArchitecture
Entity
p29
(dp30
g11
(lp31
sg13
S'native.android.net.c'
p32
sg15
(lp33
sg17
(lp34
sg19
(lp35
sg21
I0
sbasg22
(lp36
g32
asg21
I0
sg24
S'orphanContainer.ss'
p37
sba(iArchitecture
Cluster
p38
(dp39
g7
(lp40
(iArchitecture
Entity
p41
(dp42
g11
(lp43
sg13
S'native.android.asset_manager.c'
p44
sg15
(lp45
sg17
(lp46
sg19
(lp47
sg21
I0
sbasg22
(lp48
g44
asg21
I0
sg24
S'tools.aapt2.XmlFlattener.ch'
p49
sba(iArchitecture
Cluster
p50
(dp51
g7
(lp52
(iArchitecture
Entity
p53
(dp54
g11
(lp55
sg13
S'native.android.configuration.c'
p56
sg15
(lp57
sg17
(lp58
sg19
(lp59
sg21
I0
sba(iArchitecture
Entity
p60
(dp61
g11
(lp62
sg13
S'native.android.input.c'
p63
sg15
(lp64
sg17
(lp65
sg19
(lp66
sg21
I0
sba(iArchitecture
Entity
p67
(dp68
g11
(lp69
sg13
S'native.android.looper.c'
p70
sg15
(lp71
sg17
(lp72
sg19
(lp73
sg21
I0
sba(iArchitecture
Entity
p74
(dp75
g11
(lp76
sg13
S'native.android.native_activity.c'
p77
sg15
(lp78
sg17
(lp79
sg19
(lp80
sg21
I0
sba(iArchitecture
Entity
p81
(dp82
g11
(lp83
sg13
S'native.android.obb.c'
p84
sg15
(lp85
sg17
(lp86
sg19
(lp87
sg21
I0
sba(iArchitecture
Entity
p88
(dp89
g11
(lp90
sg13
S'native.android.sensor.c'
p91
sg15
(lp92
sg17
(lp93
sg19
(lp94
sg21
I0
sba(iArchitecture
Entity
p95
(dp96
g11
(lp97
sg13
S'native.android.storage_manager.c'
p98
sg15
(lp99
sg17
(lp100
sg19
(lp101
sg21
I0
sbasg22
(lp102
g56
ag63
ag70
ag77
ag84
ag91
ag98
asg21
I0
sg24
S'tools.split-select.TestRules.ch'
p103
sbasS'target_sub'
p104
S'native.android'
p105
sg22
(lp106
sS'is_component_arch'
p107
I00
sg24
S'6.0.0_r1'
p108
sba(iArchitecture
Architecture
p109
(dp110
g3
(lp111
(iArchitecture
Cluster
p112
(dp113
g7
(lp114
(iArchitecture
Entity
p115
(dp116
g11
(lp117
sg13
S'native.android.native_window.c'
p118
sg15
(lp119
sg17
(lp120
sg19
(lp121
sg21
I0
sbasg22
(lp122
g118
asg21
I0
sg24
S'media.jni.android_media_MediaSync.ch'
p123
sba(iArchitecture
Cluster
p124
(dp125
g7
(lp126
(iArchitecture
Entity
p127
(dp128
g11
(lp129
sg13
S'native.android.net.c'
p130
sg15
(lp131
sg17
(lp132
sg19
(lp133
sg21
I0
sbasg22
(lp134
g130
asg21
I0
sg24
S'orphanContainer.ss'
p135
sba(iArchitecture
Cluster
p136
(dp137
g7
(lp138
(iArchitecture
Entity
p139
(dp140
g11
(lp141
sg13
S'native.android.asset_manager.c'
p142
sg15
(lp143
sg17
(lp144
sg19
(lp145
sg21
I0
sbasg22
(lp146
g142
asg21
I0
sg24
S'tools.aapt2.xml.XmlUtil.ch'
p147
sba(iArchitecture
Cluster
p148
(dp149
g7
(lp150
(iArchitecture
Entity
p151
(dp152
g11
(lp153
sg13
S'native.android.choreographer.c'
p154
sg15
(lp155
sg17
(lp156
sg19
(lp157
sg21
I0
sba(iArchitecture
Entity
p158
(dp159
g11
(lp160
sg13
S'native.android.configuration.c'
p161
sg15
(lp162
sg17
(lp163
sg19
(lp164
sg21
I0
sba(iArchitecture
Entity
p165
(dp166
g11
(lp167
sg13
S'native.android.input.c'
p168
sg15
(lp169
sg17
(lp170
sg19
(lp171
sg21
I0
sba(iArchitecture
Entity
p172
(dp173
g11
(lp174
sg13
S'native.android.looper.c'
p175
sg15
(lp176
sg17
(lp177
sg19
(lp178
sg21
I0
sba(iArchitecture
Entity
p179
(dp180
g11
(lp181
sg13
S'native.android.native_activity.c'
p182
sg15
(lp183
sg17
(lp184
sg19
(lp185
sg21
I0
sba(iArchitecture
Entity
p186
(dp187
g11
(lp188
sg13
S'native.android.obb.c'
p189
sg15
(lp190
sg17
(lp191
sg19
(lp192
sg21
I0
sba(iArchitecture
Entity
p193
(dp194
g11
(lp195
sg13
S'native.android.sensor.c'
p196
sg15
(lp197
sg17
(lp198
sg19
(lp199
sg21
I0
sba(iArchitecture
Entity
p200
(dp201
g11
(lp202
sg13
S'native.android.storage_manager.c'
p203
sg15
(lp204
sg17
(lp205
sg19
(lp206
sg21
I0
sbasg22
(lp207
g154
ag161
ag168
ag175
ag182
ag189
ag196
ag203
asg21
I0
sg24
S'tools.split-select.TestRules.ch'
p208
sbasg104
g105
sg22
(lp209
sg107
I00
sg24
S'7.0.0_r1'
p210
sba.