(lp0
(iArchitecture
Architecture
p1
(dp2
S'clusters'
p3
(lp4
(iArchitecture
Cluster
p5
(dp6
S'entities'
p7
(lp8
(iArchitecture
Entity
p9
(dp10
S'issue_ids'
p11
(lp12
sS'name'
p13
S'libs.hwui.AmbientShadow.c'
p14
sS'descs'
p15
(lp16
sS'labels'
p17
(lp18
sS'titles'
p19
(lp20
sS'change'
p21
I0
sba(iArchitecture
Entity
p22
(dp23
g11
(lp24
sg13
S'libs.hwui.AmbientShadow.h'
p25
sg15
(lp26
sg17
(lp27
sg19
(lp28
sg21
I0
sbasS'classes'
p29
(lp30
g14
ag25
asg21
I0
sS'label'
p31
S'libs.hwui.AmbientShadow.ch'
p32
sba(iArchitecture
Cluster
p33
(dp34
g7
(lp35
(iArchitecture
Entity
p36
(dp37
g11
(lp38
sg13
S'libs.hwui.AnimationContext.c'
p39
sg15
(lp40
sg17
(lp41
sg19
(lp42
sg21
I0
sba(iArchitecture
Entity
p43
(dp44
g11
(lp45
sg13
S'libs.hwui.AnimationContext.h'
p46
sg15
(lp47
sg17
(lp48
sg19
(lp49
sg21
I0
sbasg29
(lp50
g39
ag46
asg21
I0
sg31
S'libs.hwui.AnimationContext.ch'
p51
sba(iArchitecture
Cluster
p52
(dp53
g7
(lp54
(iArchitecture
Entity
p55
(dp56
g11
(lp57
sg13
S'libs.hwui.Animator.c'
p58
sg15
(lp59
sg17
(lp60
sg19
(lp61
sg21
I0
sba(iArchitecture
Entity
p62
(dp63
g11
(lp64
sg13
S'libs.hwui.Animator.h'
p65
sg15
(lp66
sg17
(lp67
sg19
(lp68
sg21
I0
sbasg29
(lp69
g58
ag65
asg21
I0
sg31
S'libs.hwui.Animator.ch'
p70
sba(iArchitecture
Cluster
p71
(dp72
g7
(lp73
(iArchitecture
Entity
p74
(dp75
g11
(lp76
sg13
S'libs.hwui.AnimatorManager.c'
p77
sg15
(lp78
sg17
(lp79
sg19
(lp80
sg21
I0
sba(iArchitecture
Entity
p81
(dp82
g11
(lp83
sg13
S'libs.hwui.AnimatorManager.h'
p84
sg15
(lp85
sg17
(lp86
sg19
(lp87
sg21
I0
sbasg29
(lp88
g77
ag84
asg21
I0
sg31
S'libs.hwui.AnimatorManager.ch'
p89
sba(iArchitecture
Cluster
p90
(dp91
g7
(lp92
(iArchitecture
Entity
p93
(dp94
g11
(lp95
sg13
S'libs.hwui.AssetAtlas.c'
p96
sg15
(lp97
sg17
(lp98
sg19
(lp99
sg21
I0
sba(iArchitecture
Entity
p100
(dp101
g11
(lp102
sg13
S'libs.hwui.AssetAtlas.h'
p103
sg15
(lp104
sg17
(lp105
sg19
(lp106
sg21
I0
sbasg29
(lp107
g96
ag103
asg21
I0
sg31
S'libs.hwui.AssetAtlas.ch'
p108
sba(iArchitecture
Cluster
p109
(dp110
g7
(lp111
(iArchitecture
Entity
p112
(dp113
g11
(lp114
sg13
S'libs.hwui.Caches.c'
p115
sg15
(lp116
sg17
(lp117
sg19
(lp118
sg21
I0
sba(iArchitecture
Entity
p119
(dp120
g11
(lp121
sg13
S'libs.hwui.Caches.h'
p122
sg15
(lp123
sg17
(lp124
sg19
(lp125
sg21
I0
sbasg29
(lp126
g115
ag122
asg21
I0
sg31
S'libs.hwui.Caches.ch'
p127
sba(iArchitecture
Cluster
p128
(dp129
g7
(lp130
(iArchitecture
Entity
p131
(dp132
g11
(lp133
sg13
S'libs.hwui.CanvasState.c'
p134
sg15
(lp135
sg17
(lp136
sg19
(lp137
sg21
I0
sba(iArchitecture
Entity
p138
(dp139
g11
(lp140
sg13
S'libs.hwui.CanvasState.h'
p141
sg15
(lp142
sg17
(lp143
sg19
(lp144
sg21
I0
sbasg29
(lp145
g134
ag141
asg21
I0
sg31
S'libs.hwui.CanvasState.ch'
p146
sba(iArchitecture
Cluster
p147
(dp148
g7
(lp149
(iArchitecture
Entity
p150
(dp151
g11
(lp152
sg13
S'libs.hwui.ClipArea.c'
p153
sg15
(lp154
sg17
(lp155
sg19
(lp156
sg21
I0
sba(iArchitecture
Entity
p157
(dp158
g11
(lp159
sg13
S'libs.hwui.ClipArea.h'
p160
sg15
(lp161
sg17
(lp162
sg19
(lp163
sg21
I0
sbasg29
(lp164
g153
ag160
asg21
I0
sg31
S'libs.hwui.ClipArea.ch'
p165
sba(iArchitecture
Cluster
p166
(dp167
g7
(lp168
(iArchitecture
Entity
p169
(dp170
g11
(lp171
sg13
S'libs.hwui.DamageAccumulator.c'
p172
sg15
(lp173
sg17
(lp174
sg19
(lp175
sg21
I0
sba(iArchitecture
Entity
p176
(dp177
g11
(lp178
sg13
S'libs.hwui.DamageAccumulator.h'
p179
sg15
(lp180
sg17
(lp181
sg19
(lp182
sg21
I0
sbasg29
(lp183
g172
ag179
asg21
I0
sg31
S'libs.hwui.DamageAccumulator.ch'
p184
sba(iArchitecture
Cluster
p185
(dp186
g7
(lp187
(iArchitecture
Entity
p188
(dp189
g11
(lp190
sg13
S'libs.hwui.DeferredDisplayList.c'
p191
sg15
(lp192
sg17
(lp193
sg19
(lp194
sg21
I0
sba(iArchitecture
Entity
p195
(dp196
g11
(lp197
sg13
S'libs.hwui.DeferredDisplayList.h'
p198
sg15
(lp199
sg17
(lp200
sg19
(lp201
sg21
I0
sbasg29
(lp202
g191
ag198
asg21
I0
sg31
S'libs.hwui.DeferredDisplayList.ch'
p203
sba(iArchitecture
Cluster
p204
(dp205
g7
(lp206
(iArchitecture
Entity
p207
(dp208
g11
(lp209
sg13
S'libs.hwui.DeferredLayerUpdater.c'
p210
sg15
(lp211
sg17
(lp212
sg19
(lp213
sg21
I0
sba(iArchitecture
Entity
p214
(dp215
g11
(lp216
sg13
S'libs.hwui.DeferredLayerUpdater.h'
p217
sg15
(lp218
sg17
(lp219
sg19
(lp220
sg21
I0
sbasg29
(lp221
g210
ag217
asg21
I0
sg31
S'libs.hwui.DeferredLayerUpdater.ch'
p222
sba(iArchitecture
Cluster
p223
(dp224
g7
(lp225
(iArchitecture
Entity
p226
(dp227
g11
(lp228
sg13
S'libs.hwui.DisplayList.c'
p229
sg15
(lp230
sg17
(lp231
sg19
(lp232
sg21
I0
sba(iArchitecture
Entity
p233
(dp234
g11
(lp235
sg13
S'libs.hwui.DisplayList.h'
p236
sg15
(lp237
sg17
(lp238
sg19
(lp239
sg21
I0
sbasg29
(lp240
g229
ag236
asg21
I0
sg31
S'libs.hwui.DisplayList.ch'
p241
sba(iArchitecture
Cluster
p242
(dp243
g7
(lp244
(iArchitecture
Entity
p245
(dp246
g11
(lp247
sg13
S'libs.hwui.DisplayListCanvas.c'
p248
sg15
(lp249
sg17
(lp250
sg19
(lp251
sg21
I0
sba(iArchitecture
Entity
p252
(dp253
g11
(lp254
sg13
S'libs.hwui.DisplayListCanvas.h'
p255
sg15
(lp256
sg17
(lp257
sg19
(lp258
sg21
I0
sbasg29
(lp259
g248
ag255
asg21
I0
sg31
S'libs.hwui.DisplayListCanvas.ch'
p260
sba(iArchitecture
Cluster
p261
(dp262
g7
(lp263
(iArchitecture
Entity
p264
(dp265
g11
(lp266
sg13
S'libs.hwui.Dither.c'
p267
sg15
(lp268
sg17
(lp269
sg19
(lp270
sg21
I0
sba(iArchitecture
Entity
p271
(dp272
g11
(lp273
sg13
S'libs.hwui.Dither.h'
p274
sg15
(lp275
sg17
(lp276
sg19
(lp277
sg21
I0
sbasg29
(lp278
g267
ag274
asg21
I0
sg31
S'libs.hwui.Dither.ch'
p279
sba(iArchitecture
Cluster
p280
(dp281
g7
(lp282
(iArchitecture
Entity
p283
(dp284
g11
(lp285
sg13
S'libs.hwui.Extensions.c'
p286
sg15
(lp287
sg17
(lp288
sg19
(lp289
sg21
I0
sba(iArchitecture
Entity
p290
(dp291
g11
(lp292
sg13
S'libs.hwui.Extensions.h'
p293
sg15
(lp294
sg17
(lp295
sg19
(lp296
sg21
I0
sbasg29
(lp297
g286
ag293
asg21
I0
sg31
S'libs.hwui.Extensions.ch'
p298
sba(iArchitecture
Cluster
p299
(dp300
g7
(lp301
(iArchitecture
Entity
p302
(dp303
g11
(lp304
sg13
S'libs.hwui.FboCache.c'
p305
sg15
(lp306
sg17
(lp307
sg19
(lp308
sg21
I0
sba(iArchitecture
Entity
p309
(dp310
g11
(lp311
sg13
S'libs.hwui.FboCache.h'
p312
sg15
(lp313
sg17
(lp314
sg19
(lp315
sg21
I0
sbasg29
(lp316
g305
ag312
asg21
I0
sg31
S'libs.hwui.FboCache.ch'
p317
sba(iArchitecture
Cluster
p318
(dp319
g7
(lp320
(iArchitecture
Entity
p321
(dp322
g11
(lp323
sg13
S'libs.hwui.FontRenderer.c'
p324
sg15
(lp325
sg17
(lp326
sg19
(lp327
sg21
I0
sba(iArchitecture
Entity
p328
(dp329
g11
(lp330
sg13
S'libs.hwui.FontRenderer.h'
p331
sg15
(lp332
sg17
(lp333
sg19
(lp334
sg21
I0
sba(iArchitecture
Entity
p335
(dp336
g11
(lp337
sg13
S'libs.hwui.utils.Timing.h'
p338
sg15
(lp339
sg17
(lp340
sg19
(lp341
sg21
I0
sbasg29
(lp342
g324
ag331
ag338
asg21
I0
sg31
S'libs.hwui.FontRenderer.ch'
p343
sba(iArchitecture
Cluster
p344
(dp345
g7
(lp346
(iArchitecture
Entity
p347
(dp348
g11
(lp349
sg13
S'libs.hwui.FrameInfo.c'
p350
sg15
(lp351
sg17
(lp352
sg19
(lp353
sg21
I0
sba(iArchitecture
Entity
p354
(dp355
g11
(lp356
sg13
S'libs.hwui.FrameInfo.h'
p357
sg15
(lp358
sg17
(lp359
sg19
(lp360
sg21
I0
sbasg29
(lp361
g350
ag357
asg21
I0
sg31
S'libs.hwui.FrameInfo.ch'
p362
sba(iArchitecture
Cluster
p363
(dp364
g7
(lp365
(iArchitecture
Entity
p366
(dp367
g11
(lp368
sg13
S'libs.hwui.FrameInfoVisualizer.c'
p369
sg15
(lp370
sg17
(lp371
sg19
(lp372
sg21
I0
sba(iArchitecture
Entity
p373
(dp374
g11
(lp375
sg13
S'libs.hwui.FrameInfoVisualizer.h'
p376
sg15
(lp377
sg17
(lp378
sg19
(lp379
sg21
I0
sbasg29
(lp380
g369
ag376
asg21
I0
sg31
S'libs.hwui.FrameInfoVisualizer.ch'
p381
sba(iArchitecture
Cluster
p382
(dp383
g7
(lp384
(iArchitecture
Entity
p385
(dp386
g11
(lp387
sg13
S'libs.hwui.GammaFontRenderer.c'
p388
sg15
(lp389
sg17
(lp390
sg19
(lp391
sg21
I0
sba(iArchitecture
Entity
p392
(dp393
g11
(lp394
sg13
S'libs.hwui.GammaFontRenderer.h'
p395
sg15
(lp396
sg17
(lp397
sg19
(lp398
sg21
I0
sbasg29
(lp399
g388
ag395
asg21
I0
sg31
S'libs.hwui.GammaFontRenderer.ch'
p400
sba(iArchitecture
Cluster
p401
(dp402
g7
(lp403
(iArchitecture
Entity
p404
(dp405
g11
(lp406
sg13
S'libs.hwui.GlopBuilder.c'
p407
sg15
(lp408
sg17
(lp409
sg19
(lp410
sg21
I0
sba(iArchitecture
Entity
p411
(dp412
g11
(lp413
sg13
S'libs.hwui.GlopBuilder.h'
p414
sg15
(lp415
sg17
(lp416
sg19
(lp417
sg21
I0
sbasg29
(lp418
g407
ag414
asg21
I0
sg31
S'libs.hwui.GlopBuilder.ch'
p419
sba(iArchitecture
Cluster
p420
(dp421
g7
(lp422
(iArchitecture
Entity
p423
(dp424
g11
(lp425
sg13
S'libs.hwui.GradientCache.c'
p426
sg15
(lp427
sg17
(lp428
sg19
(lp429
sg21
I0
sba(iArchitecture
Entity
p430
(dp431
g11
(lp432
sg13
S'libs.hwui.GradientCache.h'
p433
sg15
(lp434
sg17
(lp435
sg19
(lp436
sg21
I0
sbasg29
(lp437
g426
ag433
asg21
I0
sg31
S'libs.hwui.GradientCache.ch'
p438
sba(iArchitecture
Cluster
p439
(dp440
g7
(lp441
(iArchitecture
Entity
p442
(dp443
g11
(lp444
sg13
S'libs.hwui.Image.c'
p445
sg15
(lp446
sg17
(lp447
sg19
(lp448
sg21
I0
sba(iArchitecture
Entity
p449
(dp450
g11
(lp451
sg13
S'libs.hwui.Image.h'
p452
sg15
(lp453
sg17
(lp454
sg19
(lp455
sg21
I0
sbasg29
(lp456
g445
ag452
asg21
I0
sg31
S'libs.hwui.Image.ch'
p457
sba(iArchitecture
Cluster
p458
(dp459
g7
(lp460
(iArchitecture
Entity
p461
(dp462
g11
(lp463
sg13
S'libs.hwui.Interpolator.c'
p464
sg15
(lp465
sg17
(lp466
sg19
(lp467
sg21
I0
sba(iArchitecture
Entity
p468
(dp469
g11
(lp470
sg13
S'libs.hwui.Interpolator.h'
p471
sg15
(lp472
sg17
(lp473
sg19
(lp474
sg21
I0
sbasg29
(lp475
g464
ag471
asg21
I0
sg31
S'libs.hwui.Interpolator.ch'
p476
sba(iArchitecture
Cluster
p477
(dp478
g7
(lp479
(iArchitecture
Entity
p480
(dp481
g11
(lp482
sg13
S'libs.hwui.JankTracker.c'
p483
sg15
(lp484
sg17
(lp485
sg19
(lp486
sg21
I0
sba(iArchitecture
Entity
p487
(dp488
g11
(lp489
sg13
S'libs.hwui.JankTracker.h'
p490
sg15
(lp491
sg17
(lp492
sg19
(lp493
sg21
I0
sbasg29
(lp494
g483
ag490
asg21
I0
sg31
S'libs.hwui.JankTracker.ch'
p495
sba(iArchitecture
Cluster
p496
(dp497
g7
(lp498
(iArchitecture
Entity
p499
(dp500
g11
(lp501
sg13
S'libs.hwui.Layer.c'
p502
sg15
(lp503
sg17
(lp504
sg19
(lp505
sg21
I0
sba(iArchitecture
Entity
p506
(dp507
g11
(lp508
sg13
S'libs.hwui.Layer.h'
p509
sg15
(lp510
sg17
(lp511
sg19
(lp512
sg21
I0
sbasg29
(lp513
g502
ag509
asg21
I0
sg31
S'libs.hwui.Layer.ch'
p514
sba(iArchitecture
Cluster
p515
(dp516
g7
(lp517
(iArchitecture
Entity
p518
(dp519
g11
(lp520
sg13
S'libs.hwui.LayerCache.c'
p521
sg15
(lp522
sg17
(lp523
sg19
(lp524
sg21
I0
sba(iArchitecture
Entity
p525
(dp526
g11
(lp527
sg13
S'libs.hwui.LayerCache.h'
p528
sg15
(lp529
sg17
(lp530
sg19
(lp531
sg21
I0
sbasg29
(lp532
g521
ag528
asg21
I0
sg31
S'libs.hwui.LayerCache.ch'
p533
sba(iArchitecture
Cluster
p534
(dp535
g7
(lp536
(iArchitecture
Entity
p537
(dp538
g11
(lp539
sg13
S'libs.hwui.LayerRenderer.c'
p540
sg15
(lp541
sg17
(lp542
sg19
(lp543
sg21
I0
sba(iArchitecture
Entity
p544
(dp545
g11
(lp546
sg13
S'libs.hwui.LayerRenderer.h'
p547
sg15
(lp548
sg17
(lp549
sg19
(lp550
sg21
I0
sbasg29
(lp551
g540
ag547
asg21
I0
sg31
S'libs.hwui.LayerRenderer.ch'
p552
sba(iArchitecture
Cluster
p553
(dp554
g7
(lp555
(iArchitecture
Entity
p556
(dp557
g11
(lp558
sg13
S'libs.hwui.OpenGLRenderer.c'
p559
sg15
(lp560
sg17
(lp561
sg19
(lp562
sg21
I0
sba(iArchitecture
Entity
p563
(dp564
g11
(lp565
sg13
S'libs.hwui.OpenGLRenderer.h'
p566
sg15
(lp567
sg17
(lp568
sg19
(lp569
sg21
I0
sbasg29
(lp570
g559
ag566
asg21
I0
sg31
S'libs.hwui.OpenGLRenderer.ch'
p571
sba(iArchitecture
Cluster
p572
(dp573
g7
(lp574
(iArchitecture
Entity
p575
(dp576
g11
(lp577
sg13
S'libs.hwui.Patch.c'
p578
sg15
(lp579
sg17
(lp580
sg19
(lp581
sg21
I0
sba(iArchitecture
Entity
p582
(dp583
g11
(lp584
sg13
S'libs.hwui.Patch.h'
p585
sg15
(lp586
sg17
(lp587
sg19
(lp588
sg21
I0
sbasg29
(lp589
g578
ag585
asg21
I0
sg31
S'libs.hwui.Patch.ch'
p590
sba(iArchitecture
Cluster
p591
(dp592
g7
(lp593
(iArchitecture
Entity
p594
(dp595
g11
(lp596
sg13
S'libs.hwui.PatchCache.c'
p597
sg15
(lp598
sg17
(lp599
sg19
(lp600
sg21
I0
sba(iArchitecture
Entity
p601
(dp602
g11
(lp603
sg13
S'libs.hwui.PatchCache.h'
p604
sg15
(lp605
sg17
(lp606
sg19
(lp607
sg21
I0
sbasg29
(lp608
g597
ag604
asg21
I0
sg31
S'libs.hwui.PatchCache.ch'
p609
sba(iArchitecture
Cluster
p610
(dp611
g7
(lp612
(iArchitecture
Entity
p613
(dp614
g11
(lp615
sg13
S'libs.hwui.PathCache.c'
p616
sg15
(lp617
sg17
(lp618
sg19
(lp619
sg21
I0
sba(iArchitecture
Entity
p620
(dp621
g11
(lp622
sg13
S'libs.hwui.PathCache.h'
p623
sg15
(lp624
sg17
(lp625
sg19
(lp626
sg21
I0
sbasg29
(lp627
g616
ag623
asg21
I0
sg31
S'libs.hwui.PathCache.ch'
p628
sba(iArchitecture
Cluster
p629
(dp630
g7
(lp631
(iArchitecture
Entity
p632
(dp633
g11
(lp634
sg13
S'libs.hwui.PathTessellator.c'
p635
sg15
(lp636
sg17
(lp637
sg19
(lp638
sg21
I0
sba(iArchitecture
Entity
p639
(dp640
g11
(lp641
sg13
S'libs.hwui.PathTessellator.h'
p642
sg15
(lp643
sg17
(lp644
sg19
(lp645
sg21
I0
sbasg29
(lp646
g635
ag642
asg21
I0
sg31
S'libs.hwui.PathTessellator.ch'
p647
sba(iArchitecture
Cluster
p648
(dp649
g7
(lp650
(iArchitecture
Entity
p651
(dp652
g11
(lp653
sg13
S'libs.hwui.PixelBuffer.c'
p654
sg15
(lp655
sg17
(lp656
sg19
(lp657
sg21
I0
sba(iArchitecture
Entity
p658
(dp659
g11
(lp660
sg13
S'libs.hwui.PixelBuffer.h'
p661
sg15
(lp662
sg17
(lp663
sg19
(lp664
sg21
I0
sbasg29
(lp665
g654
ag661
asg21
I0
sg31
S'libs.hwui.PixelBuffer.ch'
p666
sba(iArchitecture
Cluster
p667
(dp668
g7
(lp669
(iArchitecture
Entity
p670
(dp671
g11
(lp672
sg13
S'libs.hwui.Program.c'
p673
sg15
(lp674
sg17
(lp675
sg19
(lp676
sg21
I0
sba(iArchitecture
Entity
p677
(dp678
g11
(lp679
sg13
S'libs.hwui.Program.h'
p680
sg15
(lp681
sg17
(lp682
sg19
(lp683
sg21
I0
sbasg29
(lp684
g673
ag680
asg21
I0
sg31
S'libs.hwui.Program.ch'
p685
sba(iArchitecture
Cluster
p686
(dp687
g7
(lp688
(iArchitecture
Entity
p689
(dp690
g11
(lp691
sg13
S'libs.hwui.ProgramCache.c'
p692
sg15
(lp693
sg17
(lp694
sg19
(lp695
sg21
I0
sba(iArchitecture
Entity
p696
(dp697
g11
(lp698
sg13
S'libs.hwui.ProgramCache.h'
p699
sg15
(lp700
sg17
(lp701
sg19
(lp702
sg21
I0
sbasg29
(lp703
g692
ag699
asg21
I0
sg31
S'libs.hwui.ProgramCache.ch'
p704
sba(iArchitecture
Cluster
p705
(dp706
g7
(lp707
(iArchitecture
Entity
p708
(dp709
g11
(lp710
sg13
S'libs.hwui.Properties.c'
p711
sg15
(lp712
sg17
(lp713
sg19
(lp714
sg21
I0
sba(iArchitecture
Entity
p715
(dp716
g11
(lp717
sg13
S'libs.hwui.Properties.h'
p718
sg15
(lp719
sg17
(lp720
sg19
(lp721
sg21
I0
sbasg29
(lp722
g711
ag718
asg21
I0
sg31
S'libs.hwui.Properties.ch'
p723
sba(iArchitecture
Cluster
p724
(dp725
g7
(lp726
(iArchitecture
Entity
p727
(dp728
g11
(lp729
sg13
S'libs.hwui.RenderBufferCache.c'
p730
sg15
(lp731
sg17
(lp732
sg19
(lp733
sg21
I0
sba(iArchitecture
Entity
p734
(dp735
g11
(lp736
sg13
S'libs.hwui.RenderBufferCache.h'
p737
sg15
(lp738
sg17
(lp739
sg19
(lp740
sg21
I0
sbasg29
(lp741
g730
ag737
asg21
I0
sg31
S'libs.hwui.RenderBufferCache.ch'
p742
sba(iArchitecture
Cluster
p743
(dp744
g7
(lp745
(iArchitecture
Entity
p746
(dp747
g11
(lp748
sg13
S'libs.hwui.DisplayListOp.h'
p749
sg15
(lp750
sg17
(lp751
sg19
(lp752
sg21
I0
sba(iArchitecture
Entity
p753
(dp754
g11
(lp755
sg13
S'libs.hwui.RenderNode.c'
p756
sg15
(lp757
sg17
(lp758
sg19
(lp759
sg21
I0
sba(iArchitecture
Entity
p760
(dp761
g11
(lp762
sg13
S'libs.hwui.RenderNode.h'
p763
sg15
(lp764
sg17
(lp765
sg19
(lp766
sg21
I0
sbasg29
(lp767
g749
ag756
ag763
asg21
I0
sg31
S'libs.hwui.RenderNode.ch'
p768
sba(iArchitecture
Cluster
p769
(dp770
g7
(lp771
(iArchitecture
Entity
p772
(dp773
g11
(lp774
sg13
S'libs.hwui.RenderProperties.c'
p775
sg15
(lp776
sg17
(lp777
sg19
(lp778
sg21
I0
sba(iArchitecture
Entity
p779
(dp780
g11
(lp781
sg13
S'libs.hwui.RenderProperties.h'
p782
sg15
(lp783
sg17
(lp784
sg19
(lp785
sg21
I0
sbasg29
(lp786
g775
ag782
asg21
I0
sg31
S'libs.hwui.RenderProperties.ch'
p787
sba(iArchitecture
Cluster
p788
(dp789
g7
(lp790
(iArchitecture
Entity
p791
(dp792
g11
(lp793
sg13
S'libs.hwui.ResourceCache.c'
p794
sg15
(lp795
sg17
(lp796
sg19
(lp797
sg21
I0
sba(iArchitecture
Entity
p798
(dp799
g11
(lp800
sg13
S'libs.hwui.ResourceCache.h'
p801
sg15
(lp802
sg17
(lp803
sg19
(lp804
sg21
I0
sbasg29
(lp805
g794
ag801
asg21
I0
sg31
S'libs.hwui.ResourceCache.ch'
p806
sba(iArchitecture
Cluster
p807
(dp808
g7
(lp809
(iArchitecture
Entity
p810
(dp811
g11
(lp812
sg13
S'libs.hwui.ShadowTessellator.c'
p813
sg15
(lp814
sg17
(lp815
sg19
(lp816
sg21
I0
sba(iArchitecture
Entity
p817
(dp818
g11
(lp819
sg13
S'libs.hwui.ShadowTessellator.h'
p820
sg15
(lp821
sg17
(lp822
sg19
(lp823
sg21
I0
sbasg29
(lp824
g813
ag820
asg21
I0
sg31
S'libs.hwui.ShadowTessellator.ch'
p825
sba(iArchitecture
Cluster
p826
(dp827
g7
(lp828
(iArchitecture
Entity
p829
(dp830
g11
(lp831
sg13
S'libs.hwui.SkiaCanvasProxy.c'
p832
sg15
(lp833
sg17
(lp834
sg19
(lp835
sg21
I0
sba(iArchitecture
Entity
p836
(dp837
g11
(lp838
sg13
S'libs.hwui.SkiaCanvasProxy.h'
p839
sg15
(lp840
sg17
(lp841
sg19
(lp842
sg21
I0
sbasg29
(lp843
g832
ag839
asg21
I0
sg31
S'libs.hwui.SkiaCanvasProxy.ch'
p844
sba(iArchitecture
Cluster
p845
(dp846
g7
(lp847
(iArchitecture
Entity
p848
(dp849
g11
(lp850
sg13
S'libs.hwui.SkiaShader.c'
p851
sg15
(lp852
sg17
(lp853
sg19
(lp854
sg21
I0
sba(iArchitecture
Entity
p855
(dp856
g11
(lp857
sg13
S'libs.hwui.SkiaShader.h'
p858
sg15
(lp859
sg17
(lp860
sg19
(lp861
sg21
I0
sbasg29
(lp862
g851
ag858
asg21
I0
sg31
S'libs.hwui.SkiaShader.ch'
p863
sba(iArchitecture
Cluster
p864
(dp865
g7
(lp866
(iArchitecture
Entity
p867
(dp868
g11
(lp869
sg13
S'libs.hwui.Snapshot.c'
p870
sg15
(lp871
sg17
(lp872
sg19
(lp873
sg21
I0
sba(iArchitecture
Entity
p874
(dp875
g11
(lp876
sg13
S'libs.hwui.Snapshot.h'
p877
sg15
(lp878
sg17
(lp879
sg19
(lp880
sg21
I0
sbasg29
(lp881
g870
ag877
asg21
I0
sg31
S'libs.hwui.Snapshot.ch'
p882
sba(iArchitecture
Cluster
p883
(dp884
g7
(lp885
(iArchitecture
Entity
p886
(dp887
g11
(lp888
sg13
S'libs.hwui.SpotShadow.c'
p889
sg15
(lp890
sg17
(lp891
sg19
(lp892
sg21
I0
sba(iArchitecture
Entity
p893
(dp894
g11
(lp895
sg13
S'libs.hwui.SpotShadow.h'
p896
sg15
(lp897
sg17
(lp898
sg19
(lp899
sg21
I0
sbasg29
(lp900
g889
ag896
asg21
I0
sg31
S'libs.hwui.SpotShadow.ch'
p901
sba(iArchitecture
Cluster
p902
(dp903
g7
(lp904
(iArchitecture
Entity
p905
(dp906
g11
(lp907
sg13
S'libs.hwui.TessellationCache.c'
p908
sg15
(lp909
sg17
(lp910
sg19
(lp911
sg21
I0
sba(iArchitecture
Entity
p912
(dp913
g11
(lp914
sg13
S'libs.hwui.TessellationCache.h'
p915
sg15
(lp916
sg17
(lp917
sg19
(lp918
sg21
I0
sba(iArchitecture
Entity
p919
(dp920
g11
(lp921
sg13
S'libs.hwui.VertexBuffer.h'
p922
sg15
(lp923
sg17
(lp924
sg19
(lp925
sg21
I0
sbasg29
(lp926
g908
ag915
ag922
asg21
I0
sg31
S'libs.hwui.TessellationCache.ch'
p927
sba(iArchitecture
Cluster
p928
(dp929
g7
(lp930
(iArchitecture
Entity
p931
(dp932
g11
(lp933
sg13
S'libs.hwui.TextDropShadowCache.c'
p934
sg15
(lp935
sg17
(lp936
sg19
(lp937
sg21
I0
sba(iArchitecture
Entity
p938
(dp939
g11
(lp940
sg13
S'libs.hwui.TextDropShadowCache.h'
p941
sg15
(lp942
sg17
(lp943
sg19
(lp944
sg21
I0
sbasg29
(lp945
g934
ag941
asg21
I0
sg31
S'libs.hwui.TextDropShadowCache.ch'
p946
sba(iArchitecture
Cluster
p947
(dp948
g7
(lp949
(iArchitecture
Entity
p950
(dp951
g11
(lp952
sg13
S'libs.hwui.Texture.c'
p953
sg15
(lp954
sg17
(lp955
sg19
(lp956
sg21
I0
sba(iArchitecture
Entity
p957
(dp958
g11
(lp959
sg13
S'libs.hwui.Texture.h'
p960
sg15
(lp961
sg17
(lp962
sg19
(lp963
sg21
I0
sbasg29
(lp964
g953
ag960
asg21
I0
sg31
S'libs.hwui.Texture.ch'
p965
sba(iArchitecture
Cluster
p966
(dp967
g7
(lp968
(iArchitecture
Entity
p969
(dp970
g11
(lp971
sg13
S'libs.hwui.TextureCache.c'
p972
sg15
(lp973
sg17
(lp974
sg19
(lp975
sg21
I0
sba(iArchitecture
Entity
p976
(dp977
g11
(lp978
sg13
S'libs.hwui.TextureCache.h'
p979
sg15
(lp980
sg17
(lp981
sg19
(lp982
sg21
I0
sba(iArchitecture
Entity
p983
(dp984
g11
(lp985
sg13
S'libs.hwui.utils.TraceUtils.h'
p986
sg15
(lp987
sg17
(lp988
sg19
(lp989
sg21
I0
sbasg29
(lp990
g972
ag979
ag986
asg21
I0
sg31
S'libs.hwui.TextureCache.ch'
p991
sba(iArchitecture
Cluster
p992
(dp993
g7
(lp994
(iArchitecture
Entity
p995
(dp996
g11
(lp997
sg13
S'libs.hwui.font.CacheTexture.c'
p998
sg15
(lp999
sg17
(lp1000
sg19
(lp1001
sg21
I0
sba(iArchitecture
Entity
p1002
(dp1003
g11
(lp1004
sg13
S'libs.hwui.font.CacheTexture.h'
p1005
sg15
(lp1006
sg17
(lp1007
sg19
(lp1008
sg21
I0
sbasg29
(lp1009
g998
ag1005
asg21
I0
sg31
S'libs.hwui.font.CacheTexture.ch'
p1010
sba(iArchitecture
Cluster
p1011
(dp1012
g7
(lp1013
(iArchitecture
Entity
p1014
(dp1015
g11
(lp1016
sg13
S'libs.hwui.font.CachedGlyphInfo.h'
p1017
sg15
(lp1018
sg17
(lp1019
sg19
(lp1020
sg21
I0
sba(iArchitecture
Entity
p1021
(dp1022
g11
(lp1023
sg13
S'libs.hwui.font.Font.c'
p1024
sg15
(lp1025
sg17
(lp1026
sg19
(lp1027
sg21
I0
sba(iArchitecture
Entity
p1028
(dp1029
g11
(lp1030
sg13
S'libs.hwui.font.Font.h'
p1031
sg15
(lp1032
sg17
(lp1033
sg19
(lp1034
sg21
I0
sbasg29
(lp1035
g1017
ag1024
ag1031
asg21
I0
sg31
S'libs.hwui.font.Font.ch'
p1036
sba(iArchitecture
Cluster
p1037
(dp1038
g7
(lp1039
(iArchitecture
Entity
p1040
(dp1041
g11
(lp1042
sg13
S'libs.hwui.renderstate.Blend.c'
p1043
sg15
(lp1044
sg17
(lp1045
sg19
(lp1046
sg21
I0
sba(iArchitecture
Entity
p1047
(dp1048
g11
(lp1049
sg13
S'libs.hwui.renderstate.Blend.h'
p1050
sg15
(lp1051
sg17
(lp1052
sg19
(lp1053
sg21
I0
sbasg29
(lp1054
g1043
ag1050
asg21
I0
sg31
S'libs.hwui.renderstate.Blend.ch'
p1055
sba(iArchitecture
Cluster
p1056
(dp1057
g7
(lp1058
(iArchitecture
Entity
p1059
(dp1060
g11
(lp1061
sg13
S'libs.hwui.renderstate.MeshState.c'
p1062
sg15
(lp1063
sg17
(lp1064
sg19
(lp1065
sg21
I0
sba(iArchitecture
Entity
p1066
(dp1067
g11
(lp1068
sg13
S'libs.hwui.renderstate.MeshState.h'
p1069
sg15
(lp1070
sg17
(lp1071
sg19
(lp1072
sg21
I0
sbasg29
(lp1073
g1062
ag1069
asg21
I0
sg31
S'libs.hwui.renderstate.MeshState.ch'
p1074
sba(iArchitecture
Cluster
p1075
(dp1076
g7
(lp1077
(iArchitecture
Entity
p1078
(dp1079
g11
(lp1080
sg13
S'libs.hwui.renderstate.PixelBufferState.c'
p1081
sg15
(lp1082
sg17
(lp1083
sg19
(lp1084
sg21
I0
sba(iArchitecture
Entity
p1085
(dp1086
g11
(lp1087
sg13
S'libs.hwui.renderstate.PixelBufferState.h'
p1088
sg15
(lp1089
sg17
(lp1090
sg19
(lp1091
sg21
I0
sbasg29
(lp1092
g1081
ag1088
asg21
I0
sg31
S'libs.hwui.renderstate.PixelBufferState.ch'
p1093
sba(iArchitecture
Cluster
p1094
(dp1095
g7
(lp1096
(iArchitecture
Entity
p1097
(dp1098
g11
(lp1099
sg13
S'libs.hwui.renderstate.RenderState.c'
p1100
sg15
(lp1101
sg17
(lp1102
sg19
(lp1103
sg21
I0
sba(iArchitecture
Entity
p1104
(dp1105
g11
(lp1106
sg13
S'libs.hwui.renderstate.RenderState.h'
p1107
sg15
(lp1108
sg17
(lp1109
sg19
(lp1110
sg21
I0
sbasg29
(lp1111
g1100
ag1107
asg21
I0
sg31
S'libs.hwui.renderstate.RenderState.ch'
p1112
sba(iArchitecture
Cluster
p1113
(dp1114
g7
(lp1115
(iArchitecture
Entity
p1116
(dp1117
g11
(lp1118
sg13
S'libs.hwui.renderstate.Scissor.c'
p1119
sg15
(lp1120
sg17
(lp1121
sg19
(lp1122
sg21
I0
sba(iArchitecture
Entity
p1123
(dp1124
g11
(lp1125
sg13
S'libs.hwui.renderstate.Scissor.h'
p1126
sg15
(lp1127
sg17
(lp1128
sg19
(lp1129
sg21
I0
sbasg29
(lp1130
g1119
ag1126
asg21
I0
sg31
S'libs.hwui.renderstate.Scissor.ch'
p1131
sba(iArchitecture
Cluster
p1132
(dp1133
g7
(lp1134
(iArchitecture
Entity
p1135
(dp1136
g11
(lp1137
sg13
S'libs.hwui.renderstate.Stencil.c'
p1138
sg15
(lp1139
sg17
(lp1140
sg19
(lp1141
sg21
I0
sba(iArchitecture
Entity
p1142
(dp1143
g11
(lp1144
sg13
S'libs.hwui.renderstate.Stencil.h'
p1145
sg15
(lp1146
sg17
(lp1147
sg19
(lp1148
sg21
I0
sbasg29
(lp1149
g1138
ag1145
asg21
I0
sg31
S'libs.hwui.renderstate.Stencil.ch'
p1150
sba(iArchitecture
Cluster
p1151
(dp1152
g7
(lp1153
(iArchitecture
Entity
p1154
(dp1155
g11
(lp1156
sg13
S'libs.hwui.renderstate.TextureState.c'
p1157
sg15
(lp1158
sg17
(lp1159
sg19
(lp1160
sg21
I0
sba(iArchitecture
Entity
p1161
(dp1162
g11
(lp1163
sg13
S'libs.hwui.renderstate.TextureState.h'
p1164
sg15
(lp1165
sg17
(lp1166
sg19
(lp1167
sg21
I0
sbasg29
(lp1168
g1157
ag1164
asg21
I0
sg31
S'libs.hwui.renderstate.TextureState.ch'
p1169
sba(iArchitecture
Cluster
p1170
(dp1171
g7
(lp1172
(iArchitecture
Entity
p1173
(dp1174
g11
(lp1175
sg13
S'libs.hwui.renderthread.CanvasContext.c'
p1176
sg15
(lp1177
sg17
(lp1178
sg19
(lp1179
sg21
I0
sba(iArchitecture
Entity
p1180
(dp1181
g11
(lp1182
sg13
S'libs.hwui.renderthread.CanvasContext.h'
p1183
sg15
(lp1184
sg17
(lp1185
sg19
(lp1186
sg21
I0
sbasg29
(lp1187
g1176
ag1183
asg21
I0
sg31
S'libs.hwui.renderthread.CanvasContext.ch'
p1188
sba(iArchitecture
Cluster
p1189
(dp1190
g7
(lp1191
(iArchitecture
Entity
p1192
(dp1193
g11
(lp1194
sg13
S'libs.hwui.renderthread.DrawFrameTask.c'
p1195
sg15
(lp1196
sg17
(lp1197
sg19
(lp1198
sg21
I0
sba(iArchitecture
Entity
p1199
(dp1200
g11
(lp1201
sg13
S'libs.hwui.renderthread.DrawFrameTask.h'
p1202
sg15
(lp1203
sg17
(lp1204
sg19
(lp1205
sg21
I0
sbasg29
(lp1206
g1195
ag1202
asg21
I0
sg31
S'libs.hwui.renderthread.DrawFrameTask.ch'
p1207
sba(iArchitecture
Cluster
p1208
(dp1209
g7
(lp1210
(iArchitecture
Entity
p1211
(dp1212
g11
(lp1213
sg13
S'libs.hwui.renderthread.EglManager.c'
p1214
sg15
(lp1215
sg17
(lp1216
sg19
(lp1217
sg21
I0
sba(iArchitecture
Entity
p1218
(dp1219
g11
(lp1220
sg13
S'libs.hwui.renderthread.EglManager.h'
p1221
sg15
(lp1222
sg17
(lp1223
sg19
(lp1224
sg21
I0
sbasg29
(lp1225
g1214
ag1221
asg21
I0
sg31
S'libs.hwui.renderthread.EglManager.ch'
p1226
sba(iArchitecture
Cluster
p1227
(dp1228
g7
(lp1229
(iArchitecture
Entity
p1230
(dp1231
g11
(lp1232
sg13
S'libs.hwui.renderthread.RenderProxy.c'
p1233
sg15
(lp1234
sg17
(lp1235
sg19
(lp1236
sg21
I0
sba(iArchitecture
Entity
p1237
(dp1238
g11
(lp1239
sg13
S'libs.hwui.renderthread.RenderProxy.h'
p1240
sg15
(lp1241
sg17
(lp1242
sg19
(lp1243
sg21
I0
sbasg29
(lp1244
g1233
ag1240
asg21
I0
sg31
S'libs.hwui.renderthread.RenderProxy.ch'
p1245
sba(iArchitecture
Cluster
p1246
(dp1247
g7
(lp1248
(iArchitecture
Entity
p1249
(dp1250
g11
(lp1251
sg13
S'libs.hwui.renderthread.RenderTask.c'
p1252
sg15
(lp1253
sg17
(lp1254
sg19
(lp1255
sg21
I0
sba(iArchitecture
Entity
p1256
(dp1257
g11
(lp1258
sg13
S'libs.hwui.renderthread.RenderTask.h'
p1259
sg15
(lp1260
sg17
(lp1261
sg19
(lp1262
sg21
I0
sbasg29
(lp1263
g1252
ag1259
asg21
I0
sg31
S'libs.hwui.renderthread.RenderTask.ch'
p1264
sba(iArchitecture
Cluster
p1265
(dp1266
g7
(lp1267
(iArchitecture
Entity
p1268
(dp1269
g11
(lp1270
sg13
S'libs.hwui.CanvasProperty.h'
p1271
sg15
(lp1272
sg17
(lp1273
sg19
(lp1274
sg21
I0
sba(iArchitecture
Entity
p1275
(dp1276
g11
(lp1277
sg13
S'libs.hwui.Debug.h'
p1278
sg15
(lp1279
sg17
(lp1280
sg19
(lp1281
sg21
I0
sba(iArchitecture
Entity
p1282
(dp1283
g11
(lp1284
sg13
S'libs.hwui.FloatColor.h'
p1285
sg15
(lp1286
sg17
(lp1287
sg19
(lp1288
sg21
I0
sba(iArchitecture
Entity
p1289
(dp1290
g11
(lp1291
sg13
S'libs.hwui.Glop.h'
p1292
sg15
(lp1293
sg17
(lp1294
sg19
(lp1295
sg21
I0
sba(iArchitecture
Entity
p1296
(dp1297
g11
(lp1298
sg13
S'libs.hwui.IContextFactory.h'
p1299
sg15
(lp1300
sg17
(lp1301
sg19
(lp1302
sg21
I0
sba(iArchitecture
Entity
p1303
(dp1304
g11
(lp1305
sg13
S'libs.hwui.Matrix.c'
p1306
sg15
(lp1307
sg17
(lp1308
sg19
(lp1309
sg21
I0
sba(iArchitecture
Entity
p1310
(dp1311
g11
(lp1312
sg13
S'libs.hwui.Outline.h'
p1313
sg15
(lp1314
sg17
(lp1315
sg19
(lp1316
sg21
I0
sba(iArchitecture
Entity
p1317
(dp1318
g11
(lp1319
sg13
S'libs.hwui.Rect.h'
p1320
sg15
(lp1321
sg17
(lp1322
sg19
(lp1323
sg21
I0
sba(iArchitecture
Entity
p1324
(dp1325
g11
(lp1326
sg13
S'libs.hwui.RenderBuffer.h'
p1327
sg15
(lp1328
sg17
(lp1329
sg19
(lp1330
sg21
I0
sba(iArchitecture
Entity
p1331
(dp1332
g11
(lp1333
sg13
S'libs.hwui.RevealClip.h'
p1334
sg15
(lp1335
sg17
(lp1336
sg19
(lp1337
sg21
I0
sba(iArchitecture
Entity
p1338
(dp1339
g11
(lp1340
sg13
S'libs.hwui.TreeInfo.h'
p1341
sg15
(lp1342
sg17
(lp1343
sg19
(lp1344
sg21
I0
sba(iArchitecture
Entity
p1345
(dp1346
g11
(lp1347
sg13
S'libs.hwui.UvMapper.h'
p1348
sg15
(lp1349
sg17
(lp1350
sg19
(lp1351
sg21
I0
sba(iArchitecture
Entity
p1352
(dp1353
g11
(lp1354
sg13
S'libs.hwui.Vertex.h'
p1355
sg15
(lp1356
sg17
(lp1357
sg19
(lp1358
sg21
I0
sba(iArchitecture
Entity
p1359
(dp1360
g11
(lp1361
sg13
S'libs.hwui.font.FontUtil.h'
p1362
sg15
(lp1363
sg17
(lp1364
sg19
(lp1365
sg21
I0
sba(iArchitecture
Entity
p1366
(dp1367
g11
(lp1368
sg13
S'libs.hwui.renderthread.RenderThread.c'
p1369
sg15
(lp1370
sg17
(lp1371
sg19
(lp1372
sg21
I0
sba(iArchitecture
Entity
p1373
(dp1374
g11
(lp1375
sg13
S'libs.hwui.renderthread.RenderThread.h'
p1376
sg15
(lp1377
sg17
(lp1378
sg19
(lp1379
sg21
I0
sba(iArchitecture
Entity
p1380
(dp1381
g11
(lp1382
sg13
S'libs.hwui.unit_tests.ClipAreaTests.c'
p1383
sg15
(lp1384
sg17
(lp1385
sg19
(lp1386
sg21
I0
sba(iArchitecture
Entity
p1387
(dp1388
g11
(lp1389
sg13
S'libs.hwui.utils.PaintUtils.h'
p1390
sg15
(lp1391
sg17
(lp1392
sg19
(lp1393
sg21
I0
sba(iArchitecture
Entity
p1394
(dp1395
g11
(lp1396
sg13
S'libs.hwui.utils.Pair.h'
p1397
sg15
(lp1398
sg17
(lp1399
sg19
(lp1400
sg21
I0
sba(iArchitecture
Entity
p1401
(dp1402
g11
(lp1403
sg13
S'libs.hwui.utils.RingBuffer.h'
p1404
sg15
(lp1405
sg17
(lp1406
sg19
(lp1407
sg21
I0
sba(iArchitecture
Entity
p1408
(dp1409
g11
(lp1410
sg13
S'libs.hwui.utils.SortedList.h'
p1411
sg15
(lp1412
sg17
(lp1413
sg19
(lp1414
sg21
I0
sba(iArchitecture
Entity
p1415
(dp1416
g11
(lp1417
sg13
S'libs.hwui.utils.TinyHashMap.h'
p1418
sg15
(lp1419
sg17
(lp1420
sg19
(lp1421
sg21
I0
sbasg29
(lp1422
g1271
ag1278
ag1285
ag1292
ag1299
ag1306
ag1313
ag1320
ag1327
ag1334
ag1341
ag1348
ag1355
ag1362
ag1369
ag1376
ag1383
ag1390
ag1397
ag1404
ag1411
ag1418
asg21
I0
sg31
S'libs.hwui.renderthread.RenderThread.ch'
p1423
sba(iArchitecture
Cluster
p1424
(dp1425
g7
(lp1426
(iArchitecture
Entity
p1427
(dp1428
g11
(lp1429
sg13
S'libs.hwui.renderthread.TimeLord.c'
p1430
sg15
(lp1431
sg17
(lp1432
sg19
(lp1433
sg21
I0
sba(iArchitecture
Entity
p1434
(dp1435
g11
(lp1436
sg13
S'libs.hwui.renderthread.TimeLord.h'
p1437
sg15
(lp1438
sg17
(lp1439
sg19
(lp1440
sg21
I0
sbasg29
(lp1441
g1430
ag1437
asg21
I0
sg31
S'libs.hwui.renderthread.TimeLord.ch'
p1442
sba(iArchitecture
Cluster
p1443
(dp1444
g7
(lp1445
(iArchitecture
Entity
p1446
(dp1447
g11
(lp1448
sg13
S'libs.hwui.tests.TestContext.c'
p1449
sg15
(lp1450
sg17
(lp1451
sg19
(lp1452
sg21
I0
sba(iArchitecture
Entity
p1453
(dp1454
g11
(lp1455
sg13
S'libs.hwui.tests.TestContext.h'
p1456
sg15
(lp1457
sg17
(lp1458
sg19
(lp1459
sg21
I0
sbasg29
(lp1460
g1449
ag1456
asg21
I0
sg31
S'libs.hwui.tests.TestContext.ch'
p1461
sba(iArchitecture
Cluster
p1462
(dp1463
g7
(lp1464
(iArchitecture
Entity
p1465
(dp1466
g11
(lp1467
sg13
S'libs.hwui.thread.Barrier.h'
p1468
sg15
(lp1469
sg17
(lp1470
sg19
(lp1471
sg21
I0
sba(iArchitecture
Entity
p1472
(dp1473
g11
(lp1474
sg13
S'libs.hwui.thread.Future.h'
p1475
sg15
(lp1476
sg17
(lp1477
sg19
(lp1478
sg21
I0
sba(iArchitecture
Entity
p1479
(dp1480
g11
(lp1481
sg13
S'libs.hwui.thread.Signal.h'
p1482
sg15
(lp1483
sg17
(lp1484
sg19
(lp1485
sg21
I0
sba(iArchitecture
Entity
p1486
(dp1487
g11
(lp1488
sg13
S'libs.hwui.thread.Task.h'
p1489
sg15
(lp1490
sg17
(lp1491
sg19
(lp1492
sg21
I0
sba(iArchitecture
Entity
p1493
(dp1494
g11
(lp1495
sg13
S'libs.hwui.thread.TaskManager.c'
p1496
sg15
(lp1497
sg17
(lp1498
sg19
(lp1499
sg21
I0
sba(iArchitecture
Entity
p1500
(dp1501
g11
(lp1502
sg13
S'libs.hwui.thread.TaskManager.h'
p1503
sg15
(lp1504
sg17
(lp1505
sg19
(lp1506
sg21
I0
sba(iArchitecture
Entity
p1507
(dp1508
g11
(lp1509
sg13
S'libs.hwui.thread.TaskProcessor.h'
p1510
sg15
(lp1511
sg17
(lp1512
sg19
(lp1513
sg21
I0
sbasg29
(lp1514
g1468
ag1475
ag1482
ag1489
ag1496
ag1503
ag1510
asg21
I0
sg31
S'libs.hwui.thread.TaskManager.ch'
p1515
sba(iArchitecture
Cluster
p1516
(dp1517
g7
(lp1518
(iArchitecture
Entity
p1519
(dp1520
g11
(lp1521
sg13
S'libs.hwui.utils.Blur.c'
p1522
sg15
(lp1523
sg17
(lp1524
sg19
(lp1525
sg21
I0
sba(iArchitecture
Entity
p1526
(dp1527
g11
(lp1528
sg13
S'libs.hwui.utils.Blur.h'
p1529
sg15
(lp1530
sg17
(lp1531
sg19
(lp1532
sg21
I0
sba(iArchitecture
Entity
p1533
(dp1534
g11
(lp1535
sg13
S'libs.hwui.utils.MathUtils.h'
p1536
sg15
(lp1537
sg17
(lp1538
sg19
(lp1539
sg21
I0
sbasg29
(lp1540
g1522
ag1529
ag1536
asg21
I0
sg31
S'libs.hwui.utils.Blur.ch'
p1541
sba(iArchitecture
Cluster
p1542
(dp1543
g7
(lp1544
(iArchitecture
Entity
p1545
(dp1546
g11
(lp1547
sg13
S'libs.hwui.utils.GLUtils.c'
p1548
sg15
(lp1549
sg17
(lp1550
sg19
(lp1551
sg21
I0
sba(iArchitecture
Entity
p1552
(dp1553
g11
(lp1554
sg13
S'libs.hwui.utils.GLUtils.h'
p1555
sg15
(lp1556
sg17
(lp1557
sg19
(lp1558
sg21
I0
sbasg29
(lp1559
g1548
ag1555
asg21
I0
sg31
S'libs.hwui.utils.GLUtils.ch'
p1560
sba(iArchitecture
Cluster
p1561
(dp1562
g7
(lp1563
(iArchitecture
Entity
p1564
(dp1565
g11
(lp1566
sg13
S'libs.hwui.unit_tests.LinearAllocatorTests.c'
p1567
sg15
(lp1568
sg17
(lp1569
sg19
(lp1570
sg21
I0
sba(iArchitecture
Entity
p1571
(dp1572
g11
(lp1573
sg13
S'libs.hwui.utils.LinearAllocator.c'
p1574
sg15
(lp1575
sg17
(lp1576
sg19
(lp1577
sg21
I0
sba(iArchitecture
Entity
p1578
(dp1579
g11
(lp1580
sg13
S'libs.hwui.utils.LinearAllocator.h'
p1581
sg15
(lp1582
sg17
(lp1583
sg19
(lp1584
sg21
I0
sbasg29
(lp1585
g1567
ag1574
ag1581
asg21
I0
sg31
S'libs.hwui.utils.LinearAllocator.ch'
p1586
sba(iArchitecture
Cluster
p1587
(dp1588
g7
(lp1589
(iArchitecture
Entity
p1590
(dp1591
g11
(lp1592
sg13
S'libs.hwui.utils.SortedListImpl.c'
p1593
sg15
(lp1594
sg17
(lp1595
sg19
(lp1596
sg21
I0
sba(iArchitecture
Entity
p1597
(dp1598
g11
(lp1599
sg13
S'libs.hwui.utils.SortedListImpl.h'
p1600
sg15
(lp1601
sg17
(lp1602
sg19
(lp1603
sg21
I0
sbasg29
(lp1604
g1593
ag1600
asg21
I0
sg31
S'libs.hwui.utils.SortedListImpl.ch'
p1605
sba(iArchitecture
Cluster
p1606
(dp1607
g7
(lp1608
(iArchitecture
Entity
p1609
(dp1610
g11
(lp1611
sg13
S'libs.hwui.unit_tests.DamageAccumulatorTests.c'
p1612
sg15
(lp1613
sg17
(lp1614
sg19
(lp1615
sg21
I0
sba(iArchitecture
Entity
p1616
(dp1617
g11
(lp1618
sg13
S'libs.hwui.utils.Macros.h'
p1619
sg15
(lp1620
sg17
(lp1621
sg19
(lp1622
sg21
I0
sbasg29
(lp1623
g1612
ag1619
asg21
I0
sg31
S'tools.aapt.pseudolocalize.ch'
p1624
sba(iArchitecture
Cluster
p1625
(dp1626
g7
(lp1627
(iArchitecture
Entity
p1628
(dp1629
g11
(lp1630
sg13
S'libs.hwui.Canvas.h'
p1631
sg15
(lp1632
sg17
(lp1633
sg19
(lp1634
sg21
I0
sba(iArchitecture
Entity
p1635
(dp1636
g11
(lp1637
sg13
S'libs.hwui.SkiaCanvas.c'
p1638
sg15
(lp1639
sg17
(lp1640
sg19
(lp1641
sg21
I0
sbasg29
(lp1642
g1631
ag1638
asg21
I0
sg31
S'tools.aapt2.Util.ch'
p1643
sba(iArchitecture
Cluster
p1644
(dp1645
g7
(lp1646
(iArchitecture
Entity
p1647
(dp1648
g11
(lp1649
sg13
S'libs.hwui.Vector.h'
p1650
sg15
(lp1651
sg17
(lp1652
sg19
(lp1653
sg21
I0
sba(iArchitecture
Entity
p1654
(dp1655
g11
(lp1656
sg13
S'libs.hwui.tests.main.c'
p1657
sg15
(lp1658
sg17
(lp1659
sg19
(lp1660
sg21
I0
sba(iArchitecture
Entity
p1661
(dp1662
g11
(lp1663
sg13
S'libs.hwui.unit_tests.main.c'
p1664
sg15
(lp1665
sg17
(lp1666
sg19
(lp1667
sg21
I0
sbasg29
(lp1668
g1650
ag1657
ag1664
asg21
I0
sg31
S'tools.split-select.TestRules.ch'
p1669
sbasS'target_sub'
p1670
S'libs.hwui'
p1671
sg29
(lp1672
sS'is_component_arch'
p1673
I00
sg31
S'6.0.0_r1'
p1674
sba(iArchitecture
Architecture
p1675
(dp1676
g3
(lp1677
(iArchitecture
Cluster
p1678
(dp1679
g7
(lp1680
(iArchitecture
Entity
p1681
(dp1682
g11
(lp1683
sg13
S'libs.hwui.AmbientShadow.c'
p1684
sg15
(lp1685
sg17
(lp1686
sg19
(lp1687
sg21
I0
sba(iArchitecture
Entity
p1688
(dp1689
g11
(lp1690
sg13
S'libs.hwui.AmbientShadow.h'
p1691
sg15
(lp1692
sg17
(lp1693
sg19
(lp1694
sg21
I0
sbasg29
(lp1695
g1684
ag1691
asg21
I0
sg31
S'libs.hwui.AmbientShadow.ch'
p1696
sba(iArchitecture
Cluster
p1697
(dp1698
g7
(lp1699
(iArchitecture
Entity
p1700
(dp1701
g11
(lp1702
sg13
S'libs.hwui.AnimationContext.c'
p1703
sg15
(lp1704
sg17
(lp1705
sg19
(lp1706
sg21
I0
sba(iArchitecture
Entity
p1707
(dp1708
g11
(lp1709
sg13
S'libs.hwui.AnimationContext.h'
p1710
sg15
(lp1711
sg17
(lp1712
sg19
(lp1713
sg21
I0
sbasg29
(lp1714
g1703
ag1710
asg21
I0
sg31
S'libs.hwui.AnimationContext.ch'
p1715
sba(iArchitecture
Cluster
p1716
(dp1717
g7
(lp1718
(iArchitecture
Entity
p1719
(dp1720
g11
(lp1721
sg13
S'libs.hwui.Animator.c'
p1722
sg15
(lp1723
sg17
(lp1724
sg19
(lp1725
sg21
I0
sba(iArchitecture
Entity
p1726
(dp1727
g11
(lp1728
sg13
S'libs.hwui.Animator.h'
p1729
sg15
(lp1730
sg17
(lp1731
sg19
(lp1732
sg21
I0
sbasg29
(lp1733
g1722
ag1729
asg21
I0
sg31
S'libs.hwui.Animator.ch'
p1734
sba(iArchitecture
Cluster
p1735
(dp1736
g7
(lp1737
(iArchitecture
Entity
p1738
(dp1739
g11
(lp1740
sg13
S'libs.hwui.AnimatorManager.c'
p1741
sg15
(lp1742
sg17
(lp1743
sg19
(lp1744
sg21
I0
sba(iArchitecture
Entity
p1745
(dp1746
g11
(lp1747
sg13
S'libs.hwui.AnimatorManager.h'
p1748
sg15
(lp1749
sg17
(lp1750
sg19
(lp1751
sg21
I0
sbasg29
(lp1752
g1741
ag1748
asg21
I0
sg31
S'libs.hwui.AnimatorManager.ch'
p1753
sba(iArchitecture
Cluster
p1754
(dp1755
g7
(lp1756
(iArchitecture
Entity
p1757
(dp1758
g11
(lp1759
sg13
S'libs.hwui.AssetAtlas.c'
p1760
sg15
(lp1761
sg17
(lp1762
sg19
(lp1763
sg21
I0
sba(iArchitecture
Entity
p1764
(dp1765
g11
(lp1766
sg13
S'libs.hwui.AssetAtlas.h'
p1767
sg15
(lp1768
sg17
(lp1769
sg19
(lp1770
sg21
I0
sbasg29
(lp1771
g1760
ag1767
asg21
I0
sg31
S'libs.hwui.AssetAtlas.ch'
p1772
sba(iArchitecture
Cluster
p1773
(dp1774
g7
(lp1775
(iArchitecture
Entity
p1776
(dp1777
g11
(lp1778
sg13
S'libs.hwui.BakedOpDispatcher.c'
p1779
sg15
(lp1780
sg17
(lp1781
sg19
(lp1782
sg21
I0
sba(iArchitecture
Entity
p1783
(dp1784
g11
(lp1785
sg13
S'libs.hwui.BakedOpDispatcher.h'
p1786
sg15
(lp1787
sg17
(lp1788
sg19
(lp1789
sg21
I0
sbasg29
(lp1790
g1779
ag1786
asg21
I0
sg31
S'libs.hwui.BakedOpDispatcher.ch'
p1791
sba(iArchitecture
Cluster
p1792
(dp1793
g7
(lp1794
(iArchitecture
Entity
p1795
(dp1796
g11
(lp1797
sg13
S'libs.hwui.BakedOpRenderer.c'
p1798
sg15
(lp1799
sg17
(lp1800
sg19
(lp1801
sg21
I0
sba(iArchitecture
Entity
p1802
(dp1803
g11
(lp1804
sg13
S'libs.hwui.BakedOpRenderer.h'
p1805
sg15
(lp1806
sg17
(lp1807
sg19
(lp1808
sg21
I0
sbasg29
(lp1809
g1798
ag1805
asg21
I0
sg31
S'libs.hwui.BakedOpRenderer.ch'
p1810
sba(iArchitecture
Cluster
p1811
(dp1812
g7
(lp1813
(iArchitecture
Entity
p1814
(dp1815
g11
(lp1816
sg13
S'libs.hwui.BakedOpState.c'
p1817
sg15
(lp1818
sg17
(lp1819
sg19
(lp1820
sg21
I0
sba(iArchitecture
Entity
p1821
(dp1822
g11
(lp1823
sg13
S'libs.hwui.BakedOpState.h'
p1824
sg15
(lp1825
sg17
(lp1826
sg19
(lp1827
sg21
I0
sbasg29
(lp1828
g1817
ag1824
asg21
I0
sg31
S'libs.hwui.BakedOpState.ch'
p1829
sba(iArchitecture
Cluster
p1830
(dp1831
g7
(lp1832
(iArchitecture
Entity
p1833
(dp1834
g11
(lp1835
sg13
S'libs.hwui.Caches.c'
p1836
sg15
(lp1837
sg17
(lp1838
sg19
(lp1839
sg21
I0
sba(iArchitecture
Entity
p1840
(dp1841
g11
(lp1842
sg13
S'libs.hwui.Caches.h'
p1843
sg15
(lp1844
sg17
(lp1845
sg19
(lp1846
sg21
I0
sbasg29
(lp1847
g1836
ag1843
asg21
I0
sg31
S'libs.hwui.Caches.ch'
p1848
sba(iArchitecture
Cluster
p1849
(dp1850
g7
(lp1851
(iArchitecture
Entity
p1852
(dp1853
g11
(lp1854
sg13
S'libs.hwui.CanvasState.c'
p1855
sg15
(lp1856
sg17
(lp1857
sg19
(lp1858
sg21
I0
sba(iArchitecture
Entity
p1859
(dp1860
g11
(lp1861
sg13
S'libs.hwui.CanvasState.h'
p1862
sg15
(lp1863
sg17
(lp1864
sg19
(lp1865
sg21
I0
sbasg29
(lp1866
g1855
ag1862
asg21
I0
sg31
S'libs.hwui.CanvasState.ch'
p1867
sba(iArchitecture
Cluster
p1868
(dp1869
g7
(lp1870
(iArchitecture
Entity
p1871
(dp1872
g11
(lp1873
sg13
S'libs.hwui.ClipArea.c'
p1874
sg15
(lp1875
sg17
(lp1876
sg19
(lp1877
sg21
I0
sba(iArchitecture
Entity
p1878
(dp1879
g11
(lp1880
sg13
S'libs.hwui.ClipArea.h'
p1881
sg15
(lp1882
sg17
(lp1883
sg19
(lp1884
sg21
I0
sbasg29
(lp1885
g1874
ag1881
asg21
I0
sg31
S'libs.hwui.ClipArea.ch'
p1886
sba(iArchitecture
Cluster
p1887
(dp1888
g7
(lp1889
(iArchitecture
Entity
p1890
(dp1891
g11
(lp1892
sg13
S'libs.hwui.DamageAccumulator.c'
p1893
sg15
(lp1894
sg17
(lp1895
sg19
(lp1896
sg21
I0
sba(iArchitecture
Entity
p1897
(dp1898
g11
(lp1899
sg13
S'libs.hwui.DamageAccumulator.h'
p1900
sg15
(lp1901
sg17
(lp1902
sg19
(lp1903
sg21
I0
sbasg29
(lp1904
g1893
ag1900
asg21
I0
sg31
S'libs.hwui.DamageAccumulator.ch'
p1905
sba(iArchitecture
Cluster
p1906
(dp1907
g7
(lp1908
(iArchitecture
Entity
p1909
(dp1910
g11
(lp1911
sg13
S'libs.hwui.DeferredDisplayList.c'
p1912
sg15
(lp1913
sg17
(lp1914
sg19
(lp1915
sg21
I0
sba(iArchitecture
Entity
p1916
(dp1917
g11
(lp1918
sg13
S'libs.hwui.DeferredDisplayList.h'
p1919
sg15
(lp1920
sg17
(lp1921
sg19
(lp1922
sg21
I0
sbasg29
(lp1923
g1912
ag1919
asg21
I0
sg31
S'libs.hwui.DeferredDisplayList.ch'
p1924
sba(iArchitecture
Cluster
p1925
(dp1926
g7
(lp1927
(iArchitecture
Entity
p1928
(dp1929
g11
(lp1930
sg13
S'libs.hwui.DeferredLayerUpdater.c'
p1931
sg15
(lp1932
sg17
(lp1933
sg19
(lp1934
sg21
I0
sba(iArchitecture
Entity
p1935
(dp1936
g11
(lp1937
sg13
S'libs.hwui.DeferredLayerUpdater.h'
p1938
sg15
(lp1939
sg17
(lp1940
sg19
(lp1941
sg21
I0
sbasg29
(lp1942
g1931
ag1938
asg21
I0
sg31
S'libs.hwui.DeferredLayerUpdater.ch'
p1943
sba(iArchitecture
Cluster
p1944
(dp1945
g7
(lp1946
(iArchitecture
Entity
p1947
(dp1948
g11
(lp1949
sg13
S'libs.hwui.DeviceInfo.c'
p1950
sg15
(lp1951
sg17
(lp1952
sg19
(lp1953
sg21
I0
sba(iArchitecture
Entity
p1954
(dp1955
g11
(lp1956
sg13
S'libs.hwui.DeviceInfo.h'
p1957
sg15
(lp1958
sg17
(lp1959
sg19
(lp1960
sg21
I0
sbasg29
(lp1961
g1950
ag1957
asg21
I0
sg31
S'libs.hwui.DeviceInfo.ch'
p1962
sba(iArchitecture
Cluster
p1963
(dp1964
g7
(lp1965
(iArchitecture
Entity
p1966
(dp1967
g11
(lp1968
sg13
S'libs.hwui.DisplayList.c'
p1969
sg15
(lp1970
sg17
(lp1971
sg19
(lp1972
sg21
I0
sba(iArchitecture
Entity
p1973
(dp1974
g11
(lp1975
sg13
S'libs.hwui.DisplayList.h'
p1976
sg15
(lp1977
sg17
(lp1978
sg19
(lp1979
sg21
I0
sbasg29
(lp1980
g1969
ag1976
asg21
I0
sg31
S'libs.hwui.DisplayList.ch'
p1981
sba(iArchitecture
Cluster
p1982
(dp1983
g7
(lp1984
(iArchitecture
Entity
p1985
(dp1986
g11
(lp1987
sg13
S'libs.hwui.DisplayListCanvas.c'
p1988
sg15
(lp1989
sg17
(lp1990
sg19
(lp1991
sg21
I0
sba(iArchitecture
Entity
p1992
(dp1993
g11
(lp1994
sg13
S'libs.hwui.DisplayListCanvas.h'
p1995
sg15
(lp1996
sg17
(lp1997
sg19
(lp1998
sg21
I0
sbasg29
(lp1999
g1988
ag1995
asg21
I0
sg31
S'libs.hwui.DisplayListCanvas.ch'
p2000
sba(iArchitecture
Cluster
p2001
(dp2002
g7
(lp2003
(iArchitecture
Entity
p2004
(dp2005
g11
(lp2006
sg13
S'libs.hwui.Dither.c'
p2007
sg15
(lp2008
sg17
(lp2009
sg19
(lp2010
sg21
I0
sba(iArchitecture
Entity
p2011
(dp2012
g11
(lp2013
sg13
S'libs.hwui.Dither.h'
p2014
sg15
(lp2015
sg17
(lp2016
sg19
(lp2017
sg21
I0
sbasg29
(lp2018
g2007
ag2014
asg21
I0
sg31
S'libs.hwui.Dither.ch'
p2019
sba(iArchitecture
Cluster
p2020
(dp2021
g7
(lp2022
(iArchitecture
Entity
p2023
(dp2024
g11
(lp2025
sg13
S'libs.hwui.Extensions.c'
p2026
sg15
(lp2027
sg17
(lp2028
sg19
(lp2029
sg21
I0
sba(iArchitecture
Entity
p2030
(dp2031
g11
(lp2032
sg13
S'libs.hwui.Extensions.h'
p2033
sg15
(lp2034
sg17
(lp2035
sg19
(lp2036
sg21
I0
sbasg29
(lp2037
g2026
ag2033
asg21
I0
sg31
S'libs.hwui.Extensions.ch'
p2038
sba(iArchitecture
Cluster
p2039
(dp2040
g7
(lp2041
(iArchitecture
Entity
p2042
(dp2043
g11
(lp2044
sg13
S'libs.hwui.FboCache.c'
p2045
sg15
(lp2046
sg17
(lp2047
sg19
(lp2048
sg21
I0
sba(iArchitecture
Entity
p2049
(dp2050
g11
(lp2051
sg13
S'libs.hwui.FboCache.h'
p2052
sg15
(lp2053
sg17
(lp2054
sg19
(lp2055
sg21
I0
sbasg29
(lp2056
g2045
ag2052
asg21
I0
sg31
S'libs.hwui.FboCache.ch'
p2057
sba(iArchitecture
Cluster
p2058
(dp2059
g7
(lp2060
(iArchitecture
Entity
p2061
(dp2062
g11
(lp2063
sg13
S'libs.hwui.FontRenderer.c'
p2064
sg15
(lp2065
sg17
(lp2066
sg19
(lp2067
sg21
I0
sba(iArchitecture
Entity
p2068
(dp2069
g11
(lp2070
sg13
S'libs.hwui.FontRenderer.h'
p2071
sg15
(lp2072
sg17
(lp2073
sg19
(lp2074
sg21
I0
sba(iArchitecture
Entity
p2075
(dp2076
g11
(lp2077
sg13
S'libs.hwui.utils.Timing.h'
p2078
sg15
(lp2079
sg17
(lp2080
sg19
(lp2081
sg21
I0
sbasg29
(lp2082
g2064
ag2071
ag2078
asg21
I0
sg31
S'libs.hwui.FontRenderer.ch'
p2083
sba(iArchitecture
Cluster
p2084
(dp2085
g7
(lp2086
(iArchitecture
Entity
p2087
(dp2088
g11
(lp2089
sg13
S'libs.hwui.FrameBuilder.c'
p2090
sg15
(lp2091
sg17
(lp2092
sg19
(lp2093
sg21
I0
sba(iArchitecture
Entity
p2094
(dp2095
g11
(lp2096
sg13
S'libs.hwui.FrameBuilder.h'
p2097
sg15
(lp2098
sg17
(lp2099
sg19
(lp2100
sg21
I0
sbasg29
(lp2101
g2090
ag2097
asg21
I0
sg31
S'libs.hwui.FrameBuilder.ch'
p2102
sba(iArchitecture
Cluster
p2103
(dp2104
g7
(lp2105
(iArchitecture
Entity
p2106
(dp2107
g11
(lp2108
sg13
S'libs.hwui.FrameInfo.c'
p2109
sg15
(lp2110
sg17
(lp2111
sg19
(lp2112
sg21
I0
sba(iArchitecture
Entity
p2113
(dp2114
g11
(lp2115
sg13
S'libs.hwui.FrameInfo.h'
p2116
sg15
(lp2117
sg17
(lp2118
sg19
(lp2119
sg21
I0
sbasg29
(lp2120
g2109
ag2116
asg21
I0
sg31
S'libs.hwui.FrameInfo.ch'
p2121
sba(iArchitecture
Cluster
p2122
(dp2123
g7
(lp2124
(iArchitecture
Entity
p2125
(dp2126
g11
(lp2127
sg13
S'libs.hwui.FrameInfoVisualizer.c'
p2128
sg15
(lp2129
sg17
(lp2130
sg19
(lp2131
sg21
I0
sba(iArchitecture
Entity
p2132
(dp2133
g11
(lp2134
sg13
S'libs.hwui.FrameInfoVisualizer.h'
p2135
sg15
(lp2136
sg17
(lp2137
sg19
(lp2138
sg21
I0
sba(iArchitecture
Entity
p2139
(dp2140
g11
(lp2141
sg13
S'libs.hwui.utils.Color.h'
p2142
sg15
(lp2143
sg17
(lp2144
sg19
(lp2145
sg21
I0
sbasg29
(lp2146
g2128
ag2135
ag2142
asg21
I0
sg31
S'libs.hwui.FrameInfoVisualizer.ch'
p2147
sba(iArchitecture
Cluster
p2148
(dp2149
g7
(lp2150
(iArchitecture
Entity
p2151
(dp2152
g11
(lp2153
sg13
S'libs.hwui.GammaFontRenderer.c'
p2154
sg15
(lp2155
sg17
(lp2156
sg19
(lp2157
sg21
I0
sba(iArchitecture
Entity
p2158
(dp2159
g11
(lp2160
sg13
S'libs.hwui.GammaFontRenderer.h'
p2161
sg15
(lp2162
sg17
(lp2163
sg19
(lp2164
sg21
I0
sbasg29
(lp2165
g2154
ag2161
asg21
I0
sg31
S'libs.hwui.GammaFontRenderer.ch'
p2166
sba(iArchitecture
Cluster
p2167
(dp2168
g7
(lp2169
(iArchitecture
Entity
p2170
(dp2171
g11
(lp2172
sg13
S'libs.hwui.GlopBuilder.c'
p2173
sg15
(lp2174
sg17
(lp2175
sg19
(lp2176
sg21
I0
sba(iArchitecture
Entity
p2177
(dp2178
g11
(lp2179
sg13
S'libs.hwui.GlopBuilder.h'
p2180
sg15
(lp2181
sg17
(lp2182
sg19
(lp2183
sg21
I0
sbasg29
(lp2184
g2173
ag2180
asg21
I0
sg31
S'libs.hwui.GlopBuilder.ch'
p2185
sba(iArchitecture
Cluster
p2186
(dp2187
g7
(lp2188
(iArchitecture
Entity
p2189
(dp2190
g11
(lp2191
sg13
S'libs.hwui.GpuMemoryTracker.c'
p2192
sg15
(lp2193
sg17
(lp2194
sg19
(lp2195
sg21
I0
sba(iArchitecture
Entity
p2196
(dp2197
g11
(lp2198
sg13
S'libs.hwui.GpuMemoryTracker.h'
p2199
sg15
(lp2200
sg17
(lp2201
sg19
(lp2202
sg21
I0
sbasg29
(lp2203
g2192
ag2199
asg21
I0
sg31
S'libs.hwui.GpuMemoryTracker.ch'
p2204
sba(iArchitecture
Cluster
p2205
(dp2206
g7
(lp2207
(iArchitecture
Entity
p2208
(dp2209
g11
(lp2210
sg13
S'libs.hwui.GradientCache.c'
p2211
sg15
(lp2212
sg17
(lp2213
sg19
(lp2214
sg21
I0
sba(iArchitecture
Entity
p2215
(dp2216
g11
(lp2217
sg13
S'libs.hwui.GradientCache.h'
p2218
sg15
(lp2219
sg17
(lp2220
sg19
(lp2221
sg21
I0
sbasg29
(lp2222
g2211
ag2218
asg21
I0
sg31
S'libs.hwui.GradientCache.ch'
p2223
sba(iArchitecture
Cluster
p2224
(dp2225
g7
(lp2226
(iArchitecture
Entity
p2227
(dp2228
g11
(lp2229
sg13
S'libs.hwui.Image.c'
p2230
sg15
(lp2231
sg17
(lp2232
sg19
(lp2233
sg21
I0
sba(iArchitecture
Entity
p2234
(dp2235
g11
(lp2236
sg13
S'libs.hwui.Image.h'
p2237
sg15
(lp2238
sg17
(lp2239
sg19
(lp2240
sg21
I0
sbasg29
(lp2241
g2230
ag2237
asg21
I0
sg31
S'libs.hwui.Image.ch'
p2242
sba(iArchitecture
Cluster
p2243
(dp2244
g7
(lp2245
(iArchitecture
Entity
p2246
(dp2247
g11
(lp2248
sg13
S'libs.hwui.Interpolator.c'
p2249
sg15
(lp2250
sg17
(lp2251
sg19
(lp2252
sg21
I0
sba(iArchitecture
Entity
p2253
(dp2254
g11
(lp2255
sg13
S'libs.hwui.Interpolator.h'
p2256
sg15
(lp2257
sg17
(lp2258
sg19
(lp2259
sg21
I0
sbasg29
(lp2260
g2249
ag2256
asg21
I0
sg31
S'libs.hwui.Interpolator.ch'
p2261
sba(iArchitecture
Cluster
p2262
(dp2263
g7
(lp2264
(iArchitecture
Entity
p2265
(dp2266
g11
(lp2267
sg13
S'libs.hwui.JankTracker.c'
p2268
sg15
(lp2269
sg17
(lp2270
sg19
(lp2271
sg21
I0
sba(iArchitecture
Entity
p2272
(dp2273
g11
(lp2274
sg13
S'libs.hwui.JankTracker.h'
p2275
sg15
(lp2276
sg17
(lp2277
sg19
(lp2278
sg21
I0
sbasg29
(lp2279
g2268
ag2275
asg21
I0
sg31
S'libs.hwui.JankTracker.ch'
p2280
sba(iArchitecture
Cluster
p2281
(dp2282
g7
(lp2283
(iArchitecture
Entity
p2284
(dp2285
g11
(lp2286
sg13
S'libs.hwui.Layer.c'
p2287
sg15
(lp2288
sg17
(lp2289
sg19
(lp2290
sg21
I0
sba(iArchitecture
Entity
p2291
(dp2292
g11
(lp2293
sg13
S'libs.hwui.Layer.h'
p2294
sg15
(lp2295
sg17
(lp2296
sg19
(lp2297
sg21
I0
sbasg29
(lp2298
g2287
ag2294
asg21
I0
sg31
S'libs.hwui.Layer.ch'
p2299
sba(iArchitecture
Cluster
p2300
(dp2301
g7
(lp2302
(iArchitecture
Entity
p2303
(dp2304
g11
(lp2305
sg13
S'libs.hwui.LayerBuilder.c'
p2306
sg15
(lp2307
sg17
(lp2308
sg19
(lp2309
sg21
I0
sba(iArchitecture
Entity
p2310
(dp2311
g11
(lp2312
sg13
S'libs.hwui.LayerBuilder.h'
p2313
sg15
(lp2314
sg17
(lp2315
sg19
(lp2316
sg21
I0
sbasg29
(lp2317
g2306
ag2313
asg21
I0
sg31
S'libs.hwui.LayerBuilder.ch'
p2318
sba(iArchitecture
Cluster
p2319
(dp2320
g7
(lp2321
(iArchitecture
Entity
p2322
(dp2323
g11
(lp2324
sg13
S'libs.hwui.LayerCache.c'
p2325
sg15
(lp2326
sg17
(lp2327
sg19
(lp2328
sg21
I0
sba(iArchitecture
Entity
p2329
(dp2330
g11
(lp2331
sg13
S'libs.hwui.LayerCache.h'
p2332
sg15
(lp2333
sg17
(lp2334
sg19
(lp2335
sg21
I0
sbasg29
(lp2336
g2325
ag2332
asg21
I0
sg31
S'libs.hwui.LayerCache.ch'
p2337
sba(iArchitecture
Cluster
p2338
(dp2339
g7
(lp2340
(iArchitecture
Entity
p2341
(dp2342
g11
(lp2343
sg13
S'libs.hwui.LayerRenderer.c'
p2344
sg15
(lp2345
sg17
(lp2346
sg19
(lp2347
sg21
I0
sba(iArchitecture
Entity
p2348
(dp2349
g11
(lp2350
sg13
S'libs.hwui.LayerRenderer.h'
p2351
sg15
(lp2352
sg17
(lp2353
sg19
(lp2354
sg21
I0
sbasg29
(lp2355
g2344
ag2351
asg21
I0
sg31
S'libs.hwui.LayerRenderer.ch'
p2356
sba(iArchitecture
Cluster
p2357
(dp2358
g7
(lp2359
(iArchitecture
Entity
p2360
(dp2361
g11
(lp2362
sg13
S'libs.hwui.LayerUpdateQueue.c'
p2363
sg15
(lp2364
sg17
(lp2365
sg19
(lp2366
sg21
I0
sba(iArchitecture
Entity
p2367
(dp2368
g11
(lp2369
sg13
S'libs.hwui.LayerUpdateQueue.h'
p2370
sg15
(lp2371
sg17
(lp2372
sg19
(lp2373
sg21
I0
sbasg29
(lp2374
g2363
ag2370
asg21
I0
sg31
S'libs.hwui.LayerUpdateQueue.ch'
p2375
sba(iArchitecture
Cluster
p2376
(dp2377
g7
(lp2378
(iArchitecture
Entity
p2379
(dp2380
g11
(lp2381
sg13
S'libs.hwui.OpDumper.c'
p2382
sg15
(lp2383
sg17
(lp2384
sg19
(lp2385
sg21
I0
sba(iArchitecture
Entity
p2386
(dp2387
g11
(lp2388
sg13
S'libs.hwui.OpDumper.h'
p2389
sg15
(lp2390
sg17
(lp2391
sg19
(lp2392
sg21
I0
sbasg29
(lp2393
g2382
ag2389
asg21
I0
sg31
S'libs.hwui.OpDumper.ch'
p2394
sba(iArchitecture
Cluster
p2395
(dp2396
g7
(lp2397
(iArchitecture
Entity
p2398
(dp2399
g11
(lp2400
sg13
S'libs.hwui.OpenGLRenderer.c'
p2401
sg15
(lp2402
sg17
(lp2403
sg19
(lp2404
sg21
I0
sba(iArchitecture
Entity
p2405
(dp2406
g11
(lp2407
sg13
S'libs.hwui.OpenGLRenderer.h'
p2408
sg15
(lp2409
sg17
(lp2410
sg19
(lp2411
sg21
I0
sbasg29
(lp2412
g2401
ag2408
asg21
I0
sg31
S'libs.hwui.OpenGLRenderer.ch'
p2413
sba(iArchitecture
Cluster
p2414
(dp2415
g7
(lp2416
(iArchitecture
Entity
p2417
(dp2418
g11
(lp2419
sg13
S'libs.hwui.Patch.c'
p2420
sg15
(lp2421
sg17
(lp2422
sg19
(lp2423
sg21
I0
sba(iArchitecture
Entity
p2424
(dp2425
g11
(lp2426
sg13
S'libs.hwui.Patch.h'
p2427
sg15
(lp2428
sg17
(lp2429
sg19
(lp2430
sg21
I0
sbasg29
(lp2431
g2420
ag2427
asg21
I0
sg31
S'libs.hwui.Patch.ch'
p2432
sba(iArchitecture
Cluster
p2433
(dp2434
g7
(lp2435
(iArchitecture
Entity
p2436
(dp2437
g11
(lp2438
sg13
S'libs.hwui.PatchCache.c'
p2439
sg15
(lp2440
sg17
(lp2441
sg19
(lp2442
sg21
I0
sba(iArchitecture
Entity
p2443
(dp2444
g11
(lp2445
sg13
S'libs.hwui.PatchCache.h'
p2446
sg15
(lp2447
sg17
(lp2448
sg19
(lp2449
sg21
I0
sbasg29
(lp2450
g2439
ag2446
asg21
I0
sg31
S'libs.hwui.PatchCache.ch'
p2451
sba(iArchitecture
Cluster
p2452
(dp2453
g7
(lp2454
(iArchitecture
Entity
p2455
(dp2456
g11
(lp2457
sg13
S'libs.hwui.PathCache.c'
p2458
sg15
(lp2459
sg17
(lp2460
sg19
(lp2461
sg21
I0
sba(iArchitecture
Entity
p2462
(dp2463
g11
(lp2464
sg13
S'libs.hwui.PathCache.h'
p2465
sg15
(lp2466
sg17
(lp2467
sg19
(lp2468
sg21
I0
sbasg29
(lp2469
g2458
ag2465
asg21
I0
sg31
S'libs.hwui.PathCache.ch'
p2470
sba(iArchitecture
Cluster
p2471
(dp2472
g7
(lp2473
(iArchitecture
Entity
p2474
(dp2475
g11
(lp2476
sg13
S'libs.hwui.PathParser.c'
p2477
sg15
(lp2478
sg17
(lp2479
sg19
(lp2480
sg21
I0
sba(iArchitecture
Entity
p2481
(dp2482
g11
(lp2483
sg13
S'libs.hwui.PathParser.h'
p2484
sg15
(lp2485
sg17
(lp2486
sg19
(lp2487
sg21
I0
sbasg29
(lp2488
g2477
ag2484
asg21
I0
sg31
S'libs.hwui.PathParser.ch'
p2489
sba(iArchitecture
Cluster
p2490
(dp2491
g7
(lp2492
(iArchitecture
Entity
p2493
(dp2494
g11
(lp2495
sg13
S'libs.hwui.PathTessellator.c'
p2496
sg15
(lp2497
sg17
(lp2498
sg19
(lp2499
sg21
I0
sba(iArchitecture
Entity
p2500
(dp2501
g11
(lp2502
sg13
S'libs.hwui.PathTessellator.h'
p2503
sg15
(lp2504
sg17
(lp2505
sg19
(lp2506
sg21
I0
sbasg29
(lp2507
g2496
ag2503
asg21
I0
sg31
S'libs.hwui.PathTessellator.ch'
p2508
sba(iArchitecture
Cluster
p2509
(dp2510
g7
(lp2511
(iArchitecture
Entity
p2512
(dp2513
g11
(lp2514
sg13
S'libs.hwui.PixelBuffer.c'
p2515
sg15
(lp2516
sg17
(lp2517
sg19
(lp2518
sg21
I0
sba(iArchitecture
Entity
p2519
(dp2520
g11
(lp2521
sg13
S'libs.hwui.PixelBuffer.h'
p2522
sg15
(lp2523
sg17
(lp2524
sg19
(lp2525
sg21
I0
sbasg29
(lp2526
g2515
ag2522
asg21
I0
sg31
S'libs.hwui.PixelBuffer.ch'
p2527
sba(iArchitecture
Cluster
p2528
(dp2529
g7
(lp2530
(iArchitecture
Entity
p2531
(dp2532
g11
(lp2533
sg13
S'libs.hwui.Program.c'
p2534
sg15
(lp2535
sg17
(lp2536
sg19
(lp2537
sg21
I0
sba(iArchitecture
Entity
p2538
(dp2539
g11
(lp2540
sg13
S'libs.hwui.Program.h'
p2541
sg15
(lp2542
sg17
(lp2543
sg19
(lp2544
sg21
I0
sbasg29
(lp2545
g2534
ag2541
asg21
I0
sg31
S'libs.hwui.Program.ch'
p2546
sba(iArchitecture
Cluster
p2547
(dp2548
g7
(lp2549
(iArchitecture
Entity
p2550
(dp2551
g11
(lp2552
sg13
S'libs.hwui.ProgramCache.c'
p2553
sg15
(lp2554
sg17
(lp2555
sg19
(lp2556
sg21
I0
sba(iArchitecture
Entity
p2557
(dp2558
g11
(lp2559
sg13
S'libs.hwui.ProgramCache.h'
p2560
sg15
(lp2561
sg17
(lp2562
sg19
(lp2563
sg21
I0
sbasg29
(lp2564
g2553
ag2560
asg21
I0
sg31
S'libs.hwui.ProgramCache.ch'
p2565
sba(iArchitecture
Cluster
p2566
(dp2567
g7
(lp2568
(iArchitecture
Entity
p2569
(dp2570
g11
(lp2571
sg13
S'libs.hwui.Properties.c'
p2572
sg15
(lp2573
sg17
(lp2574
sg19
(lp2575
sg21
I0
sba(iArchitecture
Entity
p2576
(dp2577
g11
(lp2578
sg13
S'libs.hwui.Properties.h'
p2579
sg15
(lp2580
sg17
(lp2581
sg19
(lp2582
sg21
I0
sbasg29
(lp2583
g2572
ag2579
asg21
I0
sg31
S'libs.hwui.Properties.ch'
p2584
sba(iArchitecture
Cluster
p2585
(dp2586
g7
(lp2587
(iArchitecture
Entity
p2588
(dp2589
g11
(lp2590
sg13
S'libs.hwui.PropertyValuesAnimatorSet.c'
p2591
sg15
(lp2592
sg17
(lp2593
sg19
(lp2594
sg21
I0
sba(iArchitecture
Entity
p2595
(dp2596
g11
(lp2597
sg13
S'libs.hwui.PropertyValuesAnimatorSet.h'
p2598
sg15
(lp2599
sg17
(lp2600
sg19
(lp2601
sg21
I0
sbasg29
(lp2602
g2591
ag2598
asg21
I0
sg31
S'libs.hwui.PropertyValuesAnimatorSet.ch'
p2603
sba(iArchitecture
Cluster
p2604
(dp2605
g7
(lp2606
(iArchitecture
Entity
p2607
(dp2608
g11
(lp2609
sg13
S'libs.hwui.PropertyValuesHolder.c'
p2610
sg15
(lp2611
sg17
(lp2612
sg19
(lp2613
sg21
I0
sba(iArchitecture
Entity
p2614
(dp2615
g11
(lp2616
sg13
S'libs.hwui.PropertyValuesHolder.h'
p2617
sg15
(lp2618
sg17
(lp2619
sg19
(lp2620
sg21
I0
sbasg29
(lp2621
g2610
ag2617
asg21
I0
sg31
S'libs.hwui.PropertyValuesHolder.ch'
p2622
sba(iArchitecture
Cluster
p2623
(dp2624
g7
(lp2625
(iArchitecture
Entity
p2626
(dp2627
g11
(lp2628
sg13
S'libs.hwui.Readback.c'
p2629
sg15
(lp2630
sg17
(lp2631
sg19
(lp2632
sg21
I0
sba(iArchitecture
Entity
p2633
(dp2634
g11
(lp2635
sg13
S'libs.hwui.Readback.h'
p2636
sg15
(lp2637
sg17
(lp2638
sg19
(lp2639
sg21
I0
sbasg29
(lp2640
g2629
ag2636
asg21
I0
sg31
S'libs.hwui.Readback.ch'
p2641
sba(iArchitecture
Cluster
p2642
(dp2643
g7
(lp2644
(iArchitecture
Entity
p2645
(dp2646
g11
(lp2647
sg13
S'libs.hwui.RecordingCanvas.c'
p2648
sg15
(lp2649
sg17
(lp2650
sg19
(lp2651
sg21
I0
sba(iArchitecture
Entity
p2652
(dp2653
g11
(lp2654
sg13
S'libs.hwui.RecordingCanvas.h'
p2655
sg15
(lp2656
sg17
(lp2657
sg19
(lp2658
sg21
I0
sbasg29
(lp2659
g2648
ag2655
asg21
I0
sg31
S'libs.hwui.RecordingCanvas.ch'
p2660
sba(iArchitecture
Cluster
p2661
(dp2662
g7
(lp2663
(iArchitecture
Entity
p2664
(dp2665
g11
(lp2666
sg13
S'libs.hwui.RenderBufferCache.c'
p2667
sg15
(lp2668
sg17
(lp2669
sg19
(lp2670
sg21
I0
sba(iArchitecture
Entity
p2671
(dp2672
g11
(lp2673
sg13
S'libs.hwui.RenderBufferCache.h'
p2674
sg15
(lp2675
sg17
(lp2676
sg19
(lp2677
sg21
I0
sbasg29
(lp2678
g2667
ag2674
asg21
I0
sg31
S'libs.hwui.RenderBufferCache.ch'
p2679
sba(iArchitecture
Cluster
p2680
(dp2681
g7
(lp2682
(iArchitecture
Entity
p2683
(dp2684
g11
(lp2685
sg13
S'libs.hwui.RenderNode.c'
p2686
sg15
(lp2687
sg17
(lp2688
sg19
(lp2689
sg21
I0
sba(iArchitecture
Entity
p2690
(dp2691
g11
(lp2692
sg13
S'libs.hwui.RenderNode.h'
p2693
sg15
(lp2694
sg17
(lp2695
sg19
(lp2696
sg21
I0
sbasg29
(lp2697
g2686
ag2693
asg21
I0
sg31
S'libs.hwui.RenderNode.ch'
p2698
sba(iArchitecture
Cluster
p2699
(dp2700
g7
(lp2701
(iArchitecture
Entity
p2702
(dp2703
g11
(lp2704
sg13
S'libs.hwui.RenderProperties.c'
p2705
sg15
(lp2706
sg17
(lp2707
sg19
(lp2708
sg21
I0
sba(iArchitecture
Entity
p2709
(dp2710
g11
(lp2711
sg13
S'libs.hwui.RenderProperties.h'
p2712
sg15
(lp2713
sg17
(lp2714
sg19
(lp2715
sg21
I0
sbasg29
(lp2716
g2705
ag2712
asg21
I0
sg31
S'libs.hwui.RenderProperties.ch'
p2717
sba(iArchitecture
Cluster
p2718
(dp2719
g7
(lp2720
(iArchitecture
Entity
p2721
(dp2722
g11
(lp2723
sg13
S'libs.hwui.ResourceCache.c'
p2724
sg15
(lp2725
sg17
(lp2726
sg19
(lp2727
sg21
I0
sba(iArchitecture
Entity
p2728
(dp2729
g11
(lp2730
sg13
S'libs.hwui.ResourceCache.h'
p2731
sg15
(lp2732
sg17
(lp2733
sg19
(lp2734
sg21
I0
sbasg29
(lp2735
g2724
ag2731
asg21
I0
sg31
S'libs.hwui.ResourceCache.ch'
p2736
sba(iArchitecture
Cluster
p2737
(dp2738
g7
(lp2739
(iArchitecture
Entity
p2740
(dp2741
g11
(lp2742
sg13
S'libs.hwui.ShadowTessellator.c'
p2743
sg15
(lp2744
sg17
(lp2745
sg19
(lp2746
sg21
I0
sba(iArchitecture
Entity
p2747
(dp2748
g11
(lp2749
sg13
S'libs.hwui.ShadowTessellator.h'
p2750
sg15
(lp2751
sg17
(lp2752
sg19
(lp2753
sg21
I0
sbasg29
(lp2754
g2743
ag2750
asg21
I0
sg31
S'libs.hwui.ShadowTessellator.ch'
p2755
sba(iArchitecture
Cluster
p2756
(dp2757
g7
(lp2758
(iArchitecture
Entity
p2759
(dp2760
g11
(lp2761
sg13
S'libs.hwui.SkiaCanvasProxy.c'
p2762
sg15
(lp2763
sg17
(lp2764
sg19
(lp2765
sg21
I0
sba(iArchitecture
Entity
p2766
(dp2767
g11
(lp2768
sg13
S'libs.hwui.SkiaCanvasProxy.h'
p2769
sg15
(lp2770
sg17
(lp2771
sg19
(lp2772
sg21
I0
sbasg29
(lp2773
g2762
ag2769
asg21
I0
sg31
S'libs.hwui.SkiaCanvasProxy.ch'
p2774
sba(iArchitecture
Cluster
p2775
(dp2776
g7
(lp2777
(iArchitecture
Entity
p2778
(dp2779
g11
(lp2780
sg13
S'libs.hwui.SkiaShader.c'
p2781
sg15
(lp2782
sg17
(lp2783
sg19
(lp2784
sg21
I0
sba(iArchitecture
Entity
p2785
(dp2786
g11
(lp2787
sg13
S'libs.hwui.SkiaShader.h'
p2788
sg15
(lp2789
sg17
(lp2790
sg19
(lp2791
sg21
I0
sbasg29
(lp2792
g2781
ag2788
asg21
I0
sg31
S'libs.hwui.SkiaShader.ch'
p2793
sba(iArchitecture
Cluster
p2794
(dp2795
g7
(lp2796
(iArchitecture
Entity
p2797
(dp2798
g11
(lp2799
sg13
S'libs.hwui.Snapshot.c'
p2800
sg15
(lp2801
sg17
(lp2802
sg19
(lp2803
sg21
I0
sba(iArchitecture
Entity
p2804
(dp2805
g11
(lp2806
sg13
S'libs.hwui.Snapshot.h'
p2807
sg15
(lp2808
sg17
(lp2809
sg19
(lp2810
sg21
I0
sbasg29
(lp2811
g2800
ag2807
asg21
I0
sg31
S'libs.hwui.Snapshot.ch'
p2812
sba(iArchitecture
Cluster
p2813
(dp2814
g7
(lp2815
(iArchitecture
Entity
p2816
(dp2817
g11
(lp2818
sg13
S'libs.hwui.SpotShadow.c'
p2819
sg15
(lp2820
sg17
(lp2821
sg19
(lp2822
sg21
I0
sba(iArchitecture
Entity
p2823
(dp2824
g11
(lp2825
sg13
S'libs.hwui.SpotShadow.h'
p2826
sg15
(lp2827
sg17
(lp2828
sg19
(lp2829
sg21
I0
sbasg29
(lp2830
g2819
ag2826
asg21
I0
sg31
S'libs.hwui.SpotShadow.ch'
p2831
sba(iArchitecture
Cluster
p2832
(dp2833
g7
(lp2834
(iArchitecture
Entity
p2835
(dp2836
g11
(lp2837
sg13
S'libs.hwui.TessellationCache.c'
p2838
sg15
(lp2839
sg17
(lp2840
sg19
(lp2841
sg21
I0
sba(iArchitecture
Entity
p2842
(dp2843
g11
(lp2844
sg13
S'libs.hwui.TessellationCache.h'
p2845
sg15
(lp2846
sg17
(lp2847
sg19
(lp2848
sg21
I0
sbasg29
(lp2849
g2838
ag2845
asg21
I0
sg31
S'libs.hwui.TessellationCache.ch'
p2850
sba(iArchitecture
Cluster
p2851
(dp2852
g7
(lp2853
(iArchitecture
Entity
p2854
(dp2855
g11
(lp2856
sg13
S'libs.hwui.TextDropShadowCache.c'
p2857
sg15
(lp2858
sg17
(lp2859
sg19
(lp2860
sg21
I0
sba(iArchitecture
Entity
p2861
(dp2862
g11
(lp2863
sg13
S'libs.hwui.TextDropShadowCache.h'
p2864
sg15
(lp2865
sg17
(lp2866
sg19
(lp2867
sg21
I0
sbasg29
(lp2868
g2857
ag2864
asg21
I0
sg31
S'libs.hwui.TextDropShadowCache.ch'
p2869
sba(iArchitecture
Cluster
p2870
(dp2871
g7
(lp2872
(iArchitecture
Entity
p2873
(dp2874
g11
(lp2875
sg13
S'libs.hwui.Texture.c'
p2876
sg15
(lp2877
sg17
(lp2878
sg19
(lp2879
sg21
I0
sba(iArchitecture
Entity
p2880
(dp2881
g11
(lp2882
sg13
S'libs.hwui.Texture.h'
p2883
sg15
(lp2884
sg17
(lp2885
sg19
(lp2886
sg21
I0
sbasg29
(lp2887
g2876
ag2883
asg21
I0
sg31
S'libs.hwui.Texture.ch'
p2888
sba(iArchitecture
Cluster
p2889
(dp2890
g7
(lp2891
(iArchitecture
Entity
p2892
(dp2893
g11
(lp2894
sg13
S'libs.hwui.TextureCache.c'
p2895
sg15
(lp2896
sg17
(lp2897
sg19
(lp2898
sg21
I0
sba(iArchitecture
Entity
p2899
(dp2900
g11
(lp2901
sg13
S'libs.hwui.TextureCache.h'
p2902
sg15
(lp2903
sg17
(lp2904
sg19
(lp2905
sg21
I0
sbasg29
(lp2906
g2895
ag2902
asg21
I0
sg31
S'libs.hwui.TextureCache.ch'
p2907
sba(iArchitecture
Cluster
p2908
(dp2909
g7
(lp2910
(iArchitecture
Entity
p2911
(dp2912
g11
(lp2913
sg13
S'libs.hwui.VectorDrawable.c'
p2914
sg15
(lp2915
sg17
(lp2916
sg19
(lp2917
sg21
I0
sba(iArchitecture
Entity
p2918
(dp2919
g11
(lp2920
sg13
S'libs.hwui.VectorDrawable.h'
p2921
sg15
(lp2922
sg17
(lp2923
sg19
(lp2924
sg21
I0
sbasg29
(lp2925
g2914
ag2921
asg21
I0
sg31
S'libs.hwui.VectorDrawable.ch'
p2926
sba(iArchitecture
Cluster
p2927
(dp2928
g7
(lp2929
(iArchitecture
Entity
p2930
(dp2931
g11
(lp2932
sg13
S'libs.hwui.font.CacheTexture.c'
p2933
sg15
(lp2934
sg17
(lp2935
sg19
(lp2936
sg21
I0
sba(iArchitecture
Entity
p2937
(dp2938
g11
(lp2939
sg13
S'libs.hwui.font.CacheTexture.h'
p2940
sg15
(lp2941
sg17
(lp2942
sg19
(lp2943
sg21
I0
sbasg29
(lp2944
g2933
ag2940
asg21
I0
sg31
S'libs.hwui.font.CacheTexture.ch'
p2945
sba(iArchitecture
Cluster
p2946
(dp2947
g7
(lp2948
(iArchitecture
Entity
p2949
(dp2950
g11
(lp2951
sg13
S'libs.hwui.font.Font.c'
p2952
sg15
(lp2953
sg17
(lp2954
sg19
(lp2955
sg21
I0
sba(iArchitecture
Entity
p2956
(dp2957
g11
(lp2958
sg13
S'libs.hwui.font.Font.h'
p2959
sg15
(lp2960
sg17
(lp2961
sg19
(lp2962
sg21
I0
sbasg29
(lp2963
g2952
ag2959
asg21
I0
sg31
S'libs.hwui.font.Font.ch'
p2964
sba(iArchitecture
Cluster
p2965
(dp2966
g7
(lp2967
(iArchitecture
Entity
p2968
(dp2969
g11
(lp2970
sg13
S'libs.hwui.hwui.Canvas.c'
p2971
sg15
(lp2972
sg17
(lp2973
sg19
(lp2974
sg21
I0
sba(iArchitecture
Entity
p2975
(dp2976
g11
(lp2977
sg13
S'libs.hwui.hwui.Canvas.h'
p2978
sg15
(lp2979
sg17
(lp2980
sg19
(lp2981
sg21
I0
sbasg29
(lp2982
g2971
ag2978
asg21
I0
sg31
S'libs.hwui.hwui.Canvas.ch'
p2983
sba(iArchitecture
Cluster
p2984
(dp2985
g7
(lp2986
(iArchitecture
Entity
p2987
(dp2988
g11
(lp2989
sg13
S'libs.hwui.hwui.MinikinSkia.c'
p2990
sg15
(lp2991
sg17
(lp2992
sg19
(lp2993
sg21
I0
sba(iArchitecture
Entity
p2994
(dp2995
g11
(lp2996
sg13
S'libs.hwui.hwui.MinikinSkia.h'
p2997
sg15
(lp2998
sg17
(lp2999
sg19
(lp3000
sg21
I0
sbasg29
(lp3001
g2990
ag2997
asg21
I0
sg31
S'libs.hwui.hwui.MinikinSkia.ch'
p3002
sba(iArchitecture
Cluster
p3003
(dp3004
g7
(lp3005
(iArchitecture
Entity
p3006
(dp3007
g11
(lp3008
sg13
S'libs.hwui.hwui.MinikinUtils.c'
p3009
sg15
(lp3010
sg17
(lp3011
sg19
(lp3012
sg21
I0
sba(iArchitecture
Entity
p3013
(dp3014
g11
(lp3015
sg13
S'libs.hwui.hwui.MinikinUtils.h'
p3016
sg15
(lp3017
sg17
(lp3018
sg19
(lp3019
sg21
I0
sbasg29
(lp3020
g3009
ag3016
asg21
I0
sg31
S'libs.hwui.hwui.MinikinUtils.ch'
p3021
sba(iArchitecture
Cluster
p3022
(dp3023
g7
(lp3024
(iArchitecture
Entity
p3025
(dp3026
g11
(lp3027
sg13
S'libs.hwui.hwui.Typeface.c'
p3028
sg15
(lp3029
sg17
(lp3030
sg19
(lp3031
sg21
I0
sba(iArchitecture
Entity
p3032
(dp3033
g11
(lp3034
sg13
S'libs.hwui.hwui.Typeface.h'
p3035
sg15
(lp3036
sg17
(lp3037
sg19
(lp3038
sg21
I0
sbasg29
(lp3039
g3028
ag3035
asg21
I0
sg31
S'libs.hwui.hwui.Typeface.ch'
p3040
sba(iArchitecture
Cluster
p3041
(dp3042
g7
(lp3043
(iArchitecture
Entity
p3044
(dp3045
g11
(lp3046
sg13
S'libs.hwui.renderstate.Blend.c'
p3047
sg15
(lp3048
sg17
(lp3049
sg19
(lp3050
sg21
I0
sba(iArchitecture
Entity
p3051
(dp3052
g11
(lp3053
sg13
S'libs.hwui.renderstate.Blend.h'
p3054
sg15
(lp3055
sg17
(lp3056
sg19
(lp3057
sg21
I0
sbasg29
(lp3058
g3047
ag3054
asg21
I0
sg31
S'libs.hwui.renderstate.Blend.ch'
p3059
sba(iArchitecture
Cluster
p3060
(dp3061
g7
(lp3062
(iArchitecture
Entity
p3063
(dp3064
g11
(lp3065
sg13
S'libs.hwui.renderstate.MeshState.c'
p3066
sg15
(lp3067
sg17
(lp3068
sg19
(lp3069
sg21
I0
sba(iArchitecture
Entity
p3070
(dp3071
g11
(lp3072
sg13
S'libs.hwui.renderstate.MeshState.h'
p3073
sg15
(lp3074
sg17
(lp3075
sg19
(lp3076
sg21
I0
sbasg29
(lp3077
g3066
ag3073
asg21
I0
sg31
S'libs.hwui.renderstate.MeshState.ch'
p3078
sba(iArchitecture
Cluster
p3079
(dp3080
g7
(lp3081
(iArchitecture
Entity
p3082
(dp3083
g11
(lp3084
sg13
S'libs.hwui.renderstate.OffscreenBufferPool.c'
p3085
sg15
(lp3086
sg17
(lp3087
sg19
(lp3088
sg21
I0
sba(iArchitecture
Entity
p3089
(dp3090
g11
(lp3091
sg13
S'libs.hwui.renderstate.OffscreenBufferPool.h'
p3092
sg15
(lp3093
sg17
(lp3094
sg19
(lp3095
sg21
I0
sbasg29
(lp3096
g3085
ag3092
asg21
I0
sg31
S'libs.hwui.renderstate.OffscreenBufferPool.ch'
p3097
sba(iArchitecture
Cluster
p3098
(dp3099
g7
(lp3100
(iArchitecture
Entity
p3101
(dp3102
g11
(lp3103
sg13
S'libs.hwui.renderstate.PixelBufferState.c'
p3104
sg15
(lp3105
sg17
(lp3106
sg19
(lp3107
sg21
I0
sba(iArchitecture
Entity
p3108
(dp3109
g11
(lp3110
sg13
S'libs.hwui.renderstate.PixelBufferState.h'
p3111
sg15
(lp3112
sg17
(lp3113
sg19
(lp3114
sg21
I0
sbasg29
(lp3115
g3104
ag3111
asg21
I0
sg31
S'libs.hwui.renderstate.PixelBufferState.ch'
p3116
sba(iArchitecture
Cluster
p3117
(dp3118
g7
(lp3119
(iArchitecture
Entity
p3120
(dp3121
g11
(lp3122
sg13
S'libs.hwui.renderstate.RenderState.c'
p3123
sg15
(lp3124
sg17
(lp3125
sg19
(lp3126
sg21
I0
sba(iArchitecture
Entity
p3127
(dp3128
g11
(lp3129
sg13
S'libs.hwui.renderstate.RenderState.h'
p3130
sg15
(lp3131
sg17
(lp3132
sg19
(lp3133
sg21
I0
sbasg29
(lp3134
g3123
ag3130
asg21
I0
sg31
S'libs.hwui.renderstate.RenderState.ch'
p3135
sba(iArchitecture
Cluster
p3136
(dp3137
g7
(lp3138
(iArchitecture
Entity
p3139
(dp3140
g11
(lp3141
sg13
S'libs.hwui.renderstate.Scissor.c'
p3142
sg15
(lp3143
sg17
(lp3144
sg19
(lp3145
sg21
I0
sba(iArchitecture
Entity
p3146
(dp3147
g11
(lp3148
sg13
S'libs.hwui.renderstate.Scissor.h'
p3149
sg15
(lp3150
sg17
(lp3151
sg19
(lp3152
sg21
I0
sbasg29
(lp3153
g3142
ag3149
asg21
I0
sg31
S'libs.hwui.renderstate.Scissor.ch'
p3154
sba(iArchitecture
Cluster
p3155
(dp3156
g7
(lp3157
(iArchitecture
Entity
p3158
(dp3159
g11
(lp3160
sg13
S'libs.hwui.renderstate.Stencil.c'
p3161
sg15
(lp3162
sg17
(lp3163
sg19
(lp3164
sg21
I0
sba(iArchitecture
Entity
p3165
(dp3166
g11
(lp3167
sg13
S'libs.hwui.renderstate.Stencil.h'
p3168
sg15
(lp3169
sg17
(lp3170
sg19
(lp3171
sg21
I0
sbasg29
(lp3172
g3161
ag3168
asg21
I0
sg31
S'libs.hwui.renderstate.Stencil.ch'
p3173
sba(iArchitecture
Cluster
p3174
(dp3175
g7
(lp3176
(iArchitecture
Entity
p3177
(dp3178
g11
(lp3179
sg13
S'libs.hwui.renderstate.TextureState.c'
p3180
sg15
(lp3181
sg17
(lp3182
sg19
(lp3183
sg21
I0
sba(iArchitecture
Entity
p3184
(dp3185
g11
(lp3186
sg13
S'libs.hwui.renderstate.TextureState.h'
p3187
sg15
(lp3188
sg17
(lp3189
sg19
(lp3190
sg21
I0
sba(iArchitecture
Entity
p3191
(dp3192
g11
(lp3193
sg13
S'libs.hwui.utils.TraceUtils.h'
p3194
sg15
(lp3195
sg17
(lp3196
sg19
(lp3197
sg21
I0
sbasg29
(lp3198
g3180
ag3187
ag3194
asg21
I0
sg31
S'libs.hwui.renderstate.TextureState.ch'
p3199
sba(iArchitecture
Cluster
p3200
(dp3201
g7
(lp3202
(iArchitecture
Entity
p3203
(dp3204
g11
(lp3205
sg13
S'libs.hwui.renderthread.CanvasContext.c'
p3206
sg15
(lp3207
sg17
(lp3208
sg19
(lp3209
sg21
I0
sba(iArchitecture
Entity
p3210
(dp3211
g11
(lp3212
sg13
S'libs.hwui.renderthread.CanvasContext.h'
p3213
sg15
(lp3214
sg17
(lp3215
sg19
(lp3216
sg21
I0
sba(iArchitecture
Entity
p3217
(dp3218
g11
(lp3219
sg13
S'libs.hwui.utils.TimeUtils.h'
p3220
sg15
(lp3221
sg17
(lp3222
sg19
(lp3223
sg21
I0
sbasg29
(lp3224
g3206
ag3213
ag3220
asg21
I0
sg31
S'libs.hwui.renderthread.CanvasContext.ch'
p3225
sba(iArchitecture
Cluster
p3226
(dp3227
g7
(lp3228
(iArchitecture
Entity
p3229
(dp3230
g11
(lp3231
sg13
S'libs.hwui.renderthread.DrawFrameTask.c'
p3232
sg15
(lp3233
sg17
(lp3234
sg19
(lp3235
sg21
I0
sba(iArchitecture
Entity
p3236
(dp3237
g11
(lp3238
sg13
S'libs.hwui.renderthread.DrawFrameTask.h'
p3239
sg15
(lp3240
sg17
(lp3241
sg19
(lp3242
sg21
I0
sbasg29
(lp3243
g3232
ag3239
asg21
I0
sg31
S'libs.hwui.renderthread.DrawFrameTask.ch'
p3244
sba(iArchitecture
Cluster
p3245
(dp3246
g7
(lp3247
(iArchitecture
Entity
p3248
(dp3249
g11
(lp3250
sg13
S'libs.hwui.renderthread.EglManager.c'
p3251
sg15
(lp3252
sg17
(lp3253
sg19
(lp3254
sg21
I0
sba(iArchitecture
Entity
p3255
(dp3256
g11
(lp3257
sg13
S'libs.hwui.renderthread.EglManager.h'
p3258
sg15
(lp3259
sg17
(lp3260
sg19
(lp3261
sg21
I0
sbasg29
(lp3262
g3251
ag3258
asg21
I0
sg31
S'libs.hwui.renderthread.EglManager.ch'
p3263
sba(iArchitecture
Cluster
p3264
(dp3265
g7
(lp3266
(iArchitecture
Entity
p3267
(dp3268
g11
(lp3269
sg13
S'libs.hwui.renderthread.RenderProxy.c'
p3270
sg15
(lp3271
sg17
(lp3272
sg19
(lp3273
sg21
I0
sba(iArchitecture
Entity
p3274
(dp3275
g11
(lp3276
sg13
S'libs.hwui.renderthread.RenderProxy.h'
p3277
sg15
(lp3278
sg17
(lp3279
sg19
(lp3280
sg21
I0
sbasg29
(lp3281
g3270
ag3277
asg21
I0
sg31
S'libs.hwui.renderthread.RenderProxy.ch'
p3282
sba(iArchitecture
Cluster
p3283
(dp3284
g7
(lp3285
(iArchitecture
Entity
p3286
(dp3287
g11
(lp3288
sg13
S'libs.hwui.renderthread.RenderTask.c'
p3289
sg15
(lp3290
sg17
(lp3291
sg19
(lp3292
sg21
I0
sba(iArchitecture
Entity
p3293
(dp3294
g11
(lp3295
sg13
S'libs.hwui.renderthread.RenderTask.h'
p3296
sg15
(lp3297
sg17
(lp3298
sg19
(lp3299
sg21
I0
sbasg29
(lp3300
g3289
ag3296
asg21
I0
sg31
S'libs.hwui.renderthread.RenderTask.ch'
p3301
sba(iArchitecture
Cluster
p3302
(dp3303
g7
(lp3304
(iArchitecture
Entity
p3305
(dp3306
g11
(lp3307
sg13
S'libs.hwui.renderthread.RenderThread.c'
p3308
sg15
(lp3309
sg17
(lp3310
sg19
(lp3311
sg21
I0
sba(iArchitecture
Entity
p3312
(dp3313
g11
(lp3314
sg13
S'libs.hwui.renderthread.RenderThread.h'
p3315
sg15
(lp3316
sg17
(lp3317
sg19
(lp3318
sg21
I0
sbasg29
(lp3319
g3308
ag3315
asg21
I0
sg31
S'libs.hwui.renderthread.RenderThread.ch'
p3320
sba(iArchitecture
Cluster
p3321
(dp3322
g7
(lp3323
(iArchitecture
Entity
p3324
(dp3325
g11
(lp3326
sg13
S'libs.hwui.renderthread.TimeLord.c'
p3327
sg15
(lp3328
sg17
(lp3329
sg19
(lp3330
sg21
I0
sba(iArchitecture
Entity
p3331
(dp3332
g11
(lp3333
sg13
S'libs.hwui.renderthread.TimeLord.h'
p3334
sg15
(lp3335
sg17
(lp3336
sg19
(lp3337
sg21
I0
sbasg29
(lp3338
g3327
ag3334
asg21
I0
sg31
S'libs.hwui.renderthread.TimeLord.ch'
p3339
sba(iArchitecture
Cluster
p3340
(dp3341
g7
(lp3342
(iArchitecture
Entity
p3343
(dp3344
g11
(lp3345
sg13
S'libs.hwui.tests.common.TestContext.c'
p3346
sg15
(lp3347
sg17
(lp3348
sg19
(lp3349
sg21
I0
sba(iArchitecture
Entity
p3350
(dp3351
g11
(lp3352
sg13
S'libs.hwui.tests.common.TestContext.h'
p3353
sg15
(lp3354
sg17
(lp3355
sg19
(lp3356
sg21
I0
sbasg29
(lp3357
g3346
ag3353
asg21
I0
sg31
S'libs.hwui.tests.common.TestContext.ch'
p3358
sba(iArchitecture
Cluster
p3359
(dp3360
g7
(lp3361
(iArchitecture
Entity
p3362
(dp3363
g11
(lp3364
sg13
S'libs.hwui.tests.common.TestScene.c'
p3365
sg15
(lp3366
sg17
(lp3367
sg19
(lp3368
sg21
I0
sba(iArchitecture
Entity
p3369
(dp3370
g11
(lp3371
sg13
S'libs.hwui.tests.common.TestScene.h'
p3372
sg15
(lp3373
sg17
(lp3374
sg19
(lp3375
sg21
I0
sbasg29
(lp3376
g3365
ag3372
asg21
I0
sg31
S'libs.hwui.tests.common.TestScene.ch'
p3377
sba(iArchitecture
Cluster
p3378
(dp3379
g7
(lp3380
(iArchitecture
Entity
p3381
(dp3382
g11
(lp3383
sg13
S'libs.hwui.hwui.Paint.h'
p3384
sg15
(lp3385
sg17
(lp3386
sg19
(lp3387
sg21
I0
sba(iArchitecture
Entity
p3388
(dp3389
g11
(lp3390
sg13
S'libs.hwui.hwui.PaintImpl.c'
p3391
sg15
(lp3392
sg17
(lp3393
sg19
(lp3394
sg21
I0
sba(iArchitecture
Entity
p3395
(dp3396
g11
(lp3397
sg13
S'libs.hwui.tests.common.TestUtils.c'
p3398
sg15
(lp3399
sg17
(lp3400
sg19
(lp3401
sg21
I0
sba(iArchitecture
Entity
p3402
(dp3403
g11
(lp3404
sg13
S'libs.hwui.tests.common.TestUtils.h'
p3405
sg15
(lp3406
sg17
(lp3407
sg19
(lp3408
sg21
I0
sbasg29
(lp3409
g3384
ag3391
ag3398
ag3405
asg21
I0
sg31
S'libs.hwui.tests.common.TestUtils.ch'
p3410
sba(iArchitecture
Cluster
p3411
(dp3412
g7
(lp3413
(iArchitecture
Entity
p3414
(dp3415
g11
(lp3416
sg13
S'libs.hwui.DisplayListOp.h'
p3417
sg15
(lp3418
sg17
(lp3419
sg19
(lp3420
sg21
I0
sba(iArchitecture
Entity
p3421
(dp3422
g11
(lp3423
sg13
S'libs.hwui.Glop.h'
p3424
sg15
(lp3425
sg17
(lp3426
sg19
(lp3427
sg21
I0
sba(iArchitecture
Entity
p3428
(dp3429
g11
(lp3430
sg13
S'libs.hwui.tests.unit.FatVectorTests.c'
p3431
sg15
(lp3432
sg17
(lp3433
sg19
(lp3434
sg21
I0
sba(iArchitecture
Entity
p3435
(dp3436
g11
(lp3437
sg13
S'libs.hwui.utils.FatVector.h'
p3438
sg15
(lp3439
sg17
(lp3440
sg19
(lp3441
sg21
I0
sbasg29
(lp3442
g3417
ag3424
ag3431
ag3438
asg21
I0
sg31
S'libs.hwui.tests.unit.FatVectorTests.ss'
p3443
sba(iArchitecture
Cluster
p3444
(dp3445
g7
(lp3446
(iArchitecture
Entity
p3447
(dp3448
g11
(lp3449
sg13
S'libs.hwui.thread.TaskManager.c'
p3450
sg15
(lp3451
sg17
(lp3452
sg19
(lp3453
sg21
I0
sba(iArchitecture
Entity
p3454
(dp3455
g11
(lp3456
sg13
S'libs.hwui.thread.TaskManager.h'
p3457
sg15
(lp3458
sg17
(lp3459
sg19
(lp3460
sg21
I0
sbasg29
(lp3461
g3450
ag3457
asg21
I0
sg31
S'libs.hwui.thread.TaskManager.ch'
p3462
sba(iArchitecture
Cluster
p3463
(dp3464
g7
(lp3465
(iArchitecture
Entity
p3466
(dp3467
g11
(lp3468
sg13
S'libs.hwui.utils.Blur.c'
p3469
sg15
(lp3470
sg17
(lp3471
sg19
(lp3472
sg21
I0
sba(iArchitecture
Entity
p3473
(dp3474
g11
(lp3475
sg13
S'libs.hwui.utils.Blur.h'
p3476
sg15
(lp3477
sg17
(lp3478
sg19
(lp3479
sg21
I0
sbasg29
(lp3480
g3469
ag3476
asg21
I0
sg31
S'libs.hwui.utils.Blur.ch'
p3481
sba(iArchitecture
Cluster
p3482
(dp3483
g7
(lp3484
(iArchitecture
Entity
p3485
(dp3486
g11
(lp3487
sg13
S'libs.hwui.utils.GLUtils.c'
p3488
sg15
(lp3489
sg17
(lp3490
sg19
(lp3491
sg21
I0
sba(iArchitecture
Entity
p3492
(dp3493
g11
(lp3494
sg13
S'libs.hwui.utils.GLUtils.h'
p3495
sg15
(lp3496
sg17
(lp3497
sg19
(lp3498
sg21
I0
sbasg29
(lp3499
g3488
ag3495
asg21
I0
sg31
S'libs.hwui.utils.GLUtils.ch'
p3500
sba(iArchitecture
Cluster
p3501
(dp3502
g7
(lp3503
(iArchitecture
Entity
p3504
(dp3505
g11
(lp3506
sg13
S'libs.hwui.tests.microbench.LinearAllocatorBench.c'
p3507
sg15
(lp3508
sg17
(lp3509
sg19
(lp3510
sg21
I0
sba(iArchitecture
Entity
p3511
(dp3512
g11
(lp3513
sg13
S'libs.hwui.utils.LinearAllocator.c'
p3514
sg15
(lp3515
sg17
(lp3516
sg19
(lp3517
sg21
I0
sba(iArchitecture
Entity
p3518
(dp3519
g11
(lp3520
sg13
S'libs.hwui.utils.LinearAllocator.h'
p3521
sg15
(lp3522
sg17
(lp3523
sg19
(lp3524
sg21
I0
sbasg29
(lp3525
g3507
ag3514
ag3521
asg21
I0
sg31
S'libs.hwui.utils.LinearAllocator.ch'
p3526
sba(iArchitecture
Cluster
p3527
(dp3528
g7
(lp3529
(iArchitecture
Entity
p3530
(dp3531
g11
(lp3532
sg13
S'libs.hwui.tests.unit.StringUtilsTests.c'
p3533
sg15
(lp3534
sg17
(lp3535
sg19
(lp3536
sg21
I0
sba(iArchitecture
Entity
p3537
(dp3538
g11
(lp3539
sg13
S'libs.hwui.utils.StringUtils.c'
p3540
sg15
(lp3541
sg17
(lp3542
sg19
(lp3543
sg21
I0
sba(iArchitecture
Entity
p3544
(dp3545
g11
(lp3546
sg13
S'libs.hwui.utils.StringUtils.h'
p3547
sg15
(lp3548
sg17
(lp3549
sg19
(lp3550
sg21
I0
sbasg29
(lp3551
g3533
ag3540
ag3547
asg21
I0
sg31
S'libs.hwui.utils.StringUtils.ch'
p3552
sba(iArchitecture
Cluster
p3553
(dp3554
g7
(lp3555
(iArchitecture
Entity
p3556
(dp3557
g11
(lp3558
sg13
S'libs.hwui.FrameMetricsObserver.h'
p3559
sg15
(lp3560
sg17
(lp3561
sg19
(lp3562
sg21
I0
sba(iArchitecture
Entity
p3563
(dp3564
g11
(lp3565
sg13
S'libs.hwui.FrameMetricsReporter.h'
p3566
sg15
(lp3567
sg17
(lp3568
sg19
(lp3569
sg21
I0
sba(iArchitecture
Entity
p3570
(dp3571
g11
(lp3572
sg13
S'libs.hwui.IContextFactory.h'
p3573
sg15
(lp3574
sg17
(lp3575
sg19
(lp3576
sg21
I0
sba(iArchitecture
Entity
p3577
(dp3578
g11
(lp3579
sg13
S'libs.hwui.RecordedOp.h'
p3580
sg15
(lp3581
sg17
(lp3582
sg19
(lp3583
sg21
I0
sba(iArchitecture
Entity
p3584
(dp3585
g11
(lp3586
sg13
S'libs.hwui.TreeInfo.h'
p3587
sg15
(lp3588
sg17
(lp3589
sg19
(lp3590
sg21
I0
sba(iArchitecture
Entity
p3591
(dp3592
g11
(lp3593
sg13
S'libs.hwui.utils.RingBuffer.h'
p3594
sg15
(lp3595
sg17
(lp3596
sg19
(lp3597
sg21
I0
sba(iArchitecture
Entity
p3598
(dp3599
g11
(lp3600
sg13
S'libs.hwui.utils.TestWindowContext.c'
p3601
sg15
(lp3602
sg17
(lp3603
sg19
(lp3604
sg21
I0
sba(iArchitecture
Entity
p3605
(dp3606
g11
(lp3607
sg13
S'libs.hwui.utils.TestWindowContext.h'
p3608
sg15
(lp3609
sg17
(lp3610
sg19
(lp3611
sg21
I0
sbasg29
(lp3612
g3559
ag3566
ag3573
ag3580
ag3587
ag3594
ag3601
ag3608
asg21
I0
sg31
S'libs.hwui.utils.TestWindowContext.ch'
p3613
sba(iArchitecture
Cluster
p3614
(dp3615
g7
(lp3616
(iArchitecture
Entity
p3617
(dp3618
g11
(lp3619
sg13
S'libs.hwui.CanvasProperty.h'
p3620
sg15
(lp3621
sg17
(lp3622
sg19
(lp3623
sg21
I0
sba(iArchitecture
Entity
p3624
(dp3625
g11
(lp3626
sg13
S'libs.hwui.FloatColor.h'
p3627
sg15
(lp3628
sg17
(lp3629
sg19
(lp3630
sg21
I0
sba(iArchitecture
Entity
p3631
(dp3632
g11
(lp3633
sg13
S'libs.hwui.Matrix.c'
p3634
sg15
(lp3635
sg17
(lp3636
sg19
(lp3637
sg21
I0
sba(iArchitecture
Entity
p3638
(dp3639
g11
(lp3640
sg13
S'libs.hwui.Outline.h'
p3641
sg15
(lp3642
sg17
(lp3643
sg19
(lp3644
sg21
I0
sba(iArchitecture
Entity
p3645
(dp3646
g11
(lp3647
sg13
S'libs.hwui.RenderBuffer.h'
p3648
sg15
(lp3649
sg17
(lp3650
sg19
(lp3651
sg21
I0
sba(iArchitecture
Entity
p3652
(dp3653
g11
(lp3654
sg13
S'libs.hwui.RevealClip.h'
p3655
sg15
(lp3656
sg17
(lp3657
sg19
(lp3658
sg21
I0
sba(iArchitecture
Entity
p3659
(dp3660
g11
(lp3661
sg13
S'libs.hwui.SkiaCanvas.c'
p3662
sg15
(lp3663
sg17
(lp3664
sg19
(lp3665
sg21
I0
sba(iArchitecture
Entity
p3666
(dp3667
g11
(lp3668
sg13
S'libs.hwui.UvMapper.h'
p3669
sg15
(lp3670
sg17
(lp3671
sg19
(lp3672
sg21
I0
sba(iArchitecture
Entity
p3673
(dp3674
g11
(lp3675
sg13
S'libs.hwui.VertexBuffer.h'
p3676
sg15
(lp3677
sg17
(lp3678
sg19
(lp3679
sg21
I0
sba(iArchitecture
Entity
p3680
(dp3681
g11
(lp3682
sg13
S'libs.hwui.font.CachedGlyphInfo.h'
p3683
sg15
(lp3684
sg17
(lp3685
sg19
(lp3686
sg21
I0
sba(iArchitecture
Entity
p3687
(dp3688
g11
(lp3689
sg13
S'libs.hwui.font.FontUtil.h'
p3690
sg15
(lp3691
sg17
(lp3692
sg19
(lp3693
sg21
I0
sba(iArchitecture
Entity
p3694
(dp3695
g11
(lp3696
sg13
S'libs.hwui.tests.common.scenes.ClippingAnimation.c'
p3697
sg15
(lp3698
sg17
(lp3699
sg19
(lp3700
sg21
I0
sba(iArchitecture
Entity
p3701
(dp3702
g11
(lp3703
sg13
S'libs.hwui.tests.common.scenes.GlyphStressAnimation.c'
p3704
sg15
(lp3705
sg17
(lp3706
sg19
(lp3707
sg21
I0
sba(iArchitecture
Entity
p3708
(dp3709
g11
(lp3710
sg13
S'libs.hwui.tests.common.scenes.HwLayerAnimation.c'
p3711
sg15
(lp3712
sg17
(lp3713
sg19
(lp3714
sg21
I0
sba(iArchitecture
Entity
p3715
(dp3716
g11
(lp3717
sg13
S'libs.hwui.tests.common.scenes.ListViewAnimation.c'
p3718
sg15
(lp3719
sg17
(lp3720
sg19
(lp3721
sg21
I0
sba(iArchitecture
Entity
p3722
(dp3723
g11
(lp3724
sg13
S'libs.hwui.tests.common.scenes.OpPropAnimation.c'
p3725
sg15
(lp3726
sg17
(lp3727
sg19
(lp3728
sg21
I0
sba(iArchitecture
Entity
p3729
(dp3730
g11
(lp3731
sg13
S'libs.hwui.tests.common.scenes.OvalAnimation.c'
p3732
sg15
(lp3733
sg17
(lp3734
sg19
(lp3735
sg21
I0
sba(iArchitecture
Entity
p3736
(dp3737
g11
(lp3738
sg13
S'libs.hwui.tests.common.scenes.PartialDamageAnimation.c'
p3739
sg15
(lp3740
sg17
(lp3741
sg19
(lp3742
sg21
I0
sba(iArchitecture
Entity
p3743
(dp3744
g11
(lp3745
sg13
S'libs.hwui.tests.common.scenes.RecentsAnimation.c'
p3746
sg15
(lp3747
sg17
(lp3748
sg19
(lp3749
sg21
I0
sba(iArchitecture
Entity
p3750
(dp3751
g11
(lp3752
sg13
S'libs.hwui.tests.common.scenes.RectGridAnimation.c'
p3753
sg15
(lp3754
sg17
(lp3755
sg19
(lp3756
sg21
I0
sba(iArchitecture
Entity
p3757
(dp3758
g11
(lp3759
sg13
S'libs.hwui.tests.common.scenes.SaveLayerAnimation.c'
p3760
sg15
(lp3761
sg17
(lp3762
sg19
(lp3763
sg21
I0
sba(iArchitecture
Entity
p3764
(dp3765
g11
(lp3766
sg13
S'libs.hwui.tests.common.scenes.ShadowGrid2Animation.c'
p3767
sg15
(lp3768
sg17
(lp3769
sg19
(lp3770
sg21
I0
sba(iArchitecture
Entity
p3771
(dp3772
g11
(lp3773
sg13
S'libs.hwui.tests.common.scenes.ShadowGridAnimation.c'
p3774
sg15
(lp3775
sg17
(lp3776
sg19
(lp3777
sg21
I0
sba(iArchitecture
Entity
p3778
(dp3779
g11
(lp3780
sg13
S'libs.hwui.tests.common.scenes.ShapeAnimation.c'
p3781
sg15
(lp3782
sg17
(lp3783
sg19
(lp3784
sg21
I0
sba(iArchitecture
Entity
p3785
(dp3786
g11
(lp3787
sg13
S'libs.hwui.tests.common.scenes.TestSceneBase.h'
p3788
sg15
(lp3789
sg17
(lp3790
sg19
(lp3791
sg21
I0
sba(iArchitecture
Entity
p3792
(dp3793
g11
(lp3794
sg13
S'libs.hwui.tests.common.scenes.TextAnimation.c'
p3795
sg15
(lp3796
sg17
(lp3797
sg19
(lp3798
sg21
I0
sba(iArchitecture
Entity
p3799
(dp3800
g11
(lp3801
sg13
S'libs.hwui.tests.macrobench.TestSceneRunner.c'
p3802
sg15
(lp3803
sg17
(lp3804
sg19
(lp3805
sg21
I0
sba(iArchitecture
Entity
p3806
(dp3807
g11
(lp3808
sg13
S'libs.hwui.tests.microbench.DisplayListCanvasBench.c'
p3809
sg15
(lp3810
sg17
(lp3811
sg19
(lp3812
sg21
I0
sba(iArchitecture
Entity
p3813
(dp3814
g11
(lp3815
sg13
S'libs.hwui.tests.microbench.FontBench.c'
p3816
sg15
(lp3817
sg17
(lp3818
sg19
(lp3819
sg21
I0
sba(iArchitecture
Entity
p3820
(dp3821
g11
(lp3822
sg13
S'libs.hwui.tests.microbench.FrameBuilderBench.c'
p3823
sg15
(lp3824
sg17
(lp3825
sg19
(lp3826
sg21
I0
sba(iArchitecture
Entity
p3827
(dp3828
g11
(lp3829
sg13
S'libs.hwui.tests.microbench.PathParserBench.c'
p3830
sg15
(lp3831
sg17
(lp3832
sg19
(lp3833
sg21
I0
sba(iArchitecture
Entity
p3834
(dp3835
g11
(lp3836
sg13
S'libs.hwui.tests.microbench.ShadowBench.c'
p3837
sg15
(lp3838
sg17
(lp3839
sg19
(lp3840
sg21
I0
sba(iArchitecture
Entity
p3841
(dp3842
g11
(lp3843
sg13
S'libs.hwui.tests.microbench.TaskManagerBench.c'
p3844
sg15
(lp3845
sg17
(lp3846
sg19
(lp3847
sg21
I0
sba(iArchitecture
Entity
p3848
(dp3849
g11
(lp3850
sg13
S'libs.hwui.tests.unit.BakedOpDispatcherTests.c'
p3851
sg15
(lp3852
sg17
(lp3853
sg19
(lp3854
sg21
I0
sba(iArchitecture
Entity
p3855
(dp3856
g11
(lp3857
sg13
S'libs.hwui.tests.unit.BakedOpRendererTests.c'
p3858
sg15
(lp3859
sg17
(lp3860
sg19
(lp3861
sg21
I0
sba(iArchitecture
Entity
p3862
(dp3863
g11
(lp3864
sg13
S'libs.hwui.tests.unit.BakedOpStateTests.c'
p3865
sg15
(lp3866
sg17
(lp3867
sg19
(lp3868
sg21
I0
sba(iArchitecture
Entity
p3869
(dp3870
g11
(lp3871
sg13
S'libs.hwui.tests.unit.DamageAccumulatorTests.c'
p3872
sg15
(lp3873
sg17
(lp3874
sg19
(lp3875
sg21
I0
sba(iArchitecture
Entity
p3876
(dp3877
g11
(lp3878
sg13
S'libs.hwui.tests.unit.FontRendererTests.c'
p3879
sg15
(lp3880
sg17
(lp3881
sg19
(lp3882
sg21
I0
sba(iArchitecture
Entity
p3883
(dp3884
g11
(lp3885
sg13
S'libs.hwui.tests.unit.FrameBuilderTests.c'
p3886
sg15
(lp3887
sg17
(lp3888
sg19
(lp3889
sg21
I0
sba(iArchitecture
Entity
p3890
(dp3891
g11
(lp3892
sg13
S'libs.hwui.tests.unit.GlopBuilderTests.c'
p3893
sg15
(lp3894
sg17
(lp3895
sg19
(lp3896
sg21
I0
sba(iArchitecture
Entity
p3897
(dp3898
g11
(lp3899
sg13
S'libs.hwui.tests.unit.GpuMemoryTrackerTests.c'
p3900
sg15
(lp3901
sg17
(lp3902
sg19
(lp3903
sg21
I0
sba(iArchitecture
Entity
p3904
(dp3905
g11
(lp3906
sg13
S'libs.hwui.tests.unit.GradientCacheTests.c'
p3907
sg15
(lp3908
sg17
(lp3909
sg19
(lp3910
sg21
I0
sba(iArchitecture
Entity
p3911
(dp3912
g11
(lp3913
sg13
S'libs.hwui.tests.unit.LayerUpdateQueueTests.c'
p3914
sg15
(lp3915
sg17
(lp3916
sg19
(lp3917
sg21
I0
sba(iArchitecture
Entity
p3918
(dp3919
g11
(lp3920
sg13
S'libs.hwui.tests.unit.LeakCheckTests.c'
p3921
sg15
(lp3922
sg17
(lp3923
sg19
(lp3924
sg21
I0
sba(iArchitecture
Entity
p3925
(dp3926
g11
(lp3927
sg13
S'libs.hwui.tests.unit.LinearAllocatorTests.c'
p3928
sg15
(lp3929
sg17
(lp3930
sg19
(lp3931
sg21
I0
sba(iArchitecture
Entity
p3932
(dp3933
g11
(lp3934
sg13
S'libs.hwui.tests.unit.OffscreenBufferPoolTests.c'
p3935
sg15
(lp3936
sg17
(lp3937
sg19
(lp3938
sg21
I0
sba(iArchitecture
Entity
p3939
(dp3940
g11
(lp3941
sg13
S'libs.hwui.tests.unit.OpDumperTests.c'
p3942
sg15
(lp3943
sg17
(lp3944
sg19
(lp3945
sg21
I0
sba(iArchitecture
Entity
p3946
(dp3947
g11
(lp3948
sg13
S'libs.hwui.tests.unit.RecordingCanvasTests.c'
p3949
sg15
(lp3950
sg17
(lp3951
sg19
(lp3952
sg21
I0
sba(iArchitecture
Entity
p3953
(dp3954
g11
(lp3955
sg13
S'libs.hwui.tests.unit.RenderNodeTests.c'
p3956
sg15
(lp3957
sg17
(lp3958
sg19
(lp3959
sg21
I0
sba(iArchitecture
Entity
p3960
(dp3961
g11
(lp3962
sg13
S'libs.hwui.tests.unit.RenderPropertiesTests.c'
p3963
sg15
(lp3964
sg17
(lp3965
sg19
(lp3966
sg21
I0
sba(iArchitecture
Entity
p3967
(dp3968
g11
(lp3969
sg13
S'libs.hwui.tests.unit.SkiaBehaviorTests.c'
p3970
sg15
(lp3971
sg17
(lp3972
sg19
(lp3973
sg21
I0
sba(iArchitecture
Entity
p3974
(dp3975
g11
(lp3976
sg13
S'libs.hwui.tests.unit.SkiaCanvasTests.c'
p3977
sg15
(lp3978
sg17
(lp3979
sg19
(lp3980
sg21
I0
sba(iArchitecture
Entity
p3981
(dp3982
g11
(lp3983
sg13
S'libs.hwui.tests.unit.SnapshotTests.c'
p3984
sg15
(lp3985
sg17
(lp3986
sg19
(lp3987
sg21
I0
sba(iArchitecture
Entity
p3988
(dp3989
g11
(lp3990
sg13
S'libs.hwui.tests.unit.TestUtilsTests.c'
p3991
sg15
(lp3992
sg17
(lp3993
sg19
(lp3994
sg21
I0
sba(iArchitecture
Entity
p3995
(dp3996
g11
(lp3997
sg13
S'libs.hwui.tests.unit.TextDropShadowCacheTests.c'
p3998
sg15
(lp3999
sg17
(lp4000
sg19
(lp4001
sg21
I0
sba(iArchitecture
Entity
p4002
(dp4003
g11
(lp4004
sg13
S'libs.hwui.tests.unit.VectorDrawableTests.c'
p4005
sg15
(lp4006
sg17
(lp4007
sg19
(lp4008
sg21
I0
sba(iArchitecture
Entity
p4009
(dp4010
g11
(lp4011
sg13
S'libs.hwui.thread.Barrier.h'
p4012
sg15
(lp4013
sg17
(lp4014
sg19
(lp4015
sg21
I0
sba(iArchitecture
Entity
p4016
(dp4017
g11
(lp4018
sg13
S'libs.hwui.thread.Future.h'
p4019
sg15
(lp4020
sg17
(lp4021
sg19
(lp4022
sg21
I0
sba(iArchitecture
Entity
p4023
(dp4024
g11
(lp4025
sg13
S'libs.hwui.thread.Task.h'
p4026
sg15
(lp4027
sg17
(lp4028
sg19
(lp4029
sg21
I0
sba(iArchitecture
Entity
p4030
(dp4031
g11
(lp4032
sg13
S'libs.hwui.thread.TaskProcessor.h'
p4033
sg15
(lp4034
sg17
(lp4035
sg19
(lp4036
sg21
I0
sba(iArchitecture
Entity
p4037
(dp4038
g11
(lp4039
sg13
S'libs.hwui.utils.MathUtils.h'
p4040
sg15
(lp4041
sg17
(lp4042
sg19
(lp4043
sg21
I0
sba(iArchitecture
Entity
p4044
(dp4045
g11
(lp4046
sg13
S'libs.hwui.utils.PaintUtils.h'
p4047
sg15
(lp4048
sg17
(lp4049
sg19
(lp4050
sg21
I0
sba(iArchitecture
Entity
p4051
(dp4052
g11
(lp4053
sg13
S'libs.hwui.utils.Pair.h'
p4054
sg15
(lp4055
sg17
(lp4056
sg19
(lp4057
sg21
I0
sba(iArchitecture
Entity
p4058
(dp4059
g11
(lp4060
sg13
S'libs.hwui.utils.VectorDrawableUtils.c'
p4061
sg15
(lp4062
sg17
(lp4063
sg19
(lp4064
sg21
I0
sba(iArchitecture
Entity
p4065
(dp4066
g11
(lp4067
sg13
S'libs.hwui.utils.VectorDrawableUtils.h'
p4068
sg15
(lp4069
sg17
(lp4070
sg19
(lp4071
sg21
I0
sbasg29
(lp4072
g3620
ag3627
ag3634
ag3641
ag3648
ag3655
ag3662
ag3669
ag3676
ag3683
ag3690
ag3697
ag3704
ag3711
ag3718
ag3725
ag3732
ag3739
ag3746
ag3753
ag3760
ag3767
ag3774
ag3781
ag3788
ag3795
ag3802
ag3809
ag3816
ag3823
ag3830
ag3837
ag3844
ag3851
ag3858
ag3865
ag3872
ag3879
ag3886
ag3893
ag3900
ag3907
ag3914
ag3921
ag3928
ag3935
ag3942
ag3949
ag3956
ag3963
ag3970
ag3977
ag3984
ag3991
ag3998
ag4005
ag4012
ag4019
ag4026
ag4033
ag4040
ag4047
ag4054
ag4061
ag4068
asg21
I0
sg31
S'libs.hwui.utils.VectorDrawableUtils.ch'
p4073
sba(iArchitecture
Cluster
p4074
(dp4075
g7
(lp4076
(iArchitecture
Entity
p4077
(dp4078
g11
(lp4079
sg13
S'libs.hwui.thread.Signal.h'
p4080
sg15
(lp4081
sg17
(lp4082
sg19
(lp4083
sg21
I0
sbasg29
(lp4084
g4080
asg21
I0
sg31
S'services.core.jni.com_android_server_tv_TvUinputBridge.ss'
p4085
sba(iArchitecture
Cluster
p4086
(dp4087
g7
(lp4088
(iArchitecture
Entity
p4089
(dp4090
g11
(lp4091
sg13
S'libs.hwui.Debug.h'
p4092
sg15
(lp4093
sg17
(lp4094
sg19
(lp4095
sg21
I0
sba(iArchitecture
Entity
p4096
(dp4097
g11
(lp4098
sg13
S'libs.hwui.Rect.h'
p4099
sg15
(lp4100
sg17
(lp4101
sg19
(lp4102
sg21
I0
sba(iArchitecture
Entity
p4103
(dp4104
g11
(lp4105
sg13
S'libs.hwui.Vertex.h'
p4106
sg15
(lp4107
sg17
(lp4108
sg19
(lp4109
sg21
I0
sba(iArchitecture
Entity
p4110
(dp4111
g11
(lp4112
sg13
S'libs.hwui.protos.ProtoHelpers.h'
p4113
sg15
(lp4114
sg17
(lp4115
sg19
(lp4116
sg21
I0
sba(iArchitecture
Entity
p4117
(dp4118
g11
(lp4119
sg13
S'libs.hwui.tests.unit.ClipAreaTests.c'
p4120
sg15
(lp4121
sg17
(lp4122
sg19
(lp4123
sg21
I0
sba(iArchitecture
Entity
p4124
(dp4125
g11
(lp4126
sg13
S'libs.hwui.tests.unit.MatrixTests.c'
p4127
sg15
(lp4128
sg17
(lp4129
sg19
(lp4130
sg21
I0
sbasg29
(lp4131
g4092
ag4099
ag4106
ag4113
ag4120
ag4127
asg21
I0
sg31
S'tools.aapt2.link.Link.ss'
p4132
sba(iArchitecture
Cluster
p4133
(dp4134
g7
(lp4135
(iArchitecture
Entity
p4136
(dp4137
g11
(lp4138
sg13
S'libs.hwui.GlFunctorLifecycleListener.h'
p4139
sg15
(lp4140
sg17
(lp4141
sg19
(lp4142
sg21
I0
sba(iArchitecture
Entity
p4143
(dp4144
g11
(lp4145
sg13
S'libs.hwui.utils.NinePatch.h'
p4146
sg15
(lp4147
sg17
(lp4148
sg19
(lp4149
sg21
I0
sbasg29
(lp4150
g4139
ag4146
asg21
I0
sg31
S'tools.aapt2.util.Util.ch'
p4151
sba(iArchitecture
Cluster
p4152
(dp4153
g7
(lp4154
(iArchitecture
Entity
p4155
(dp4156
g11
(lp4157
sg13
S'libs.hwui.tests.unit.DeviceInfoTests.c'
p4158
sg15
(lp4159
sg17
(lp4160
sg19
(lp4161
sg21
I0
sba(iArchitecture
Entity
p4162
(dp4163
g11
(lp4164
sg13
S'libs.hwui.utils.Macros.h'
p4165
sg15
(lp4166
sg17
(lp4167
sg19
(lp4168
sg21
I0
sbasg29
(lp4169
g4158
ag4165
asg21
I0
sg31
S'tools.aapt2.xml.XmlUtil.ch'
p4170
sba(iArchitecture
Cluster
p4171
(dp4172
g7
(lp4173
(iArchitecture
Entity
p4174
(dp4175
g11
(lp4176
sg13
S'libs.hwui.Vector.h'
p4177
sg15
(lp4178
sg17
(lp4179
sg19
(lp4180
sg21
I0
sba(iArchitecture
Entity
p4181
(dp4182
g11
(lp4183
sg13
S'libs.hwui.debug.nullgles.c'
p4184
sg15
(lp4185
sg17
(lp4186
sg19
(lp4187
sg21
I0
sba(iArchitecture
Entity
p4188
(dp4189
g11
(lp4190
sg13
S'libs.hwui.debug.unwrap_gles.h'
p4191
sg15
(lp4192
sg17
(lp4193
sg19
(lp4194
sg21
I0
sba(iArchitecture
Entity
p4195
(dp4196
g11
(lp4197
sg13
S'libs.hwui.debug.wrap_gles.c'
p4198
sg15
(lp4199
sg17
(lp4200
sg19
(lp4201
sg21
I0
sba(iArchitecture
Entity
p4202
(dp4203
g11
(lp4204
sg13
S'libs.hwui.tests.macrobench.main.c'
p4205
sg15
(lp4206
sg17
(lp4207
sg19
(lp4208
sg21
I0
sba(iArchitecture
Entity
p4209
(dp4210
g11
(lp4211
sg13
S'libs.hwui.tests.microbench.main.c'
p4212
sg15
(lp4213
sg17
(lp4214
sg19
(lp4215
sg21
I0
sba(iArchitecture
Entity
p4216
(dp4217
g11
(lp4218
sg13
S'libs.hwui.tests.unit.CanvasStateTests.c'
p4219
sg15
(lp4220
sg17
(lp4221
sg19
(lp4222
sg21
I0
sba(iArchitecture
Entity
p4223
(dp4224
g11
(lp4225
sg13
S'libs.hwui.tests.unit.main.c'
p4226
sg15
(lp4227
sg17
(lp4228
sg19
(lp4229
sg21
I0
sba(iArchitecture
Entity
p4230
(dp4231
g11
(lp4232
sg13
S'libs.hwui.utils.NinePatchImpl.c'
p4233
sg15
(lp4234
sg17
(lp4235
sg19
(lp4236
sg21
I0
sbasg29
(lp4237
g4177
ag4184
ag4191
ag4198
ag4205
ag4212
ag4219
ag4226
ag4233
asg21
I0
sg31
S'tools.split-select.TestRules.ch'
p4238
sbasg1670
g1671
sg29
(lp4239
sg1673
I00
sg31
S'7.0.0_r1'
p4240
sba.