(lp0
(iArchitecture
Architecture
p1
(dp2
S'clusters'
p3
(lp4
(iArchitecture
Cluster
p5
(dp6
S'entities'
p7
(lp8
(iArchitecture
Entity
p9
(dp10
S'issue_ids'
p11
(lp12
sS'name'
p13
S'tools.aapt.AaptAssets.c'
p14
sS'descs'
p15
(lp16
sS'labels'
p17
(lp18
sS'titles'
p19
(lp20
sS'change'
p21
I0
sba(iArchitecture
Entity
p22
(dp23
g11
(lp24
sg13
S'tools.aapt.AaptAssets.h'
p25
sg15
(lp26
sg17
(lp27
sg19
(lp28
sg21
I0
sbasS'classes'
p29
(lp30
g14
ag25
asg21
I0
sS'label'
p31
S'tools.aapt.AaptAssets.ch'
p32
sba(iArchitecture
Cluster
p33
(dp34
g7
(lp35
(iArchitecture
Entity
p36
(dp37
g11
(lp38
sg13
S'tools.aapt.AaptConfig.c'
p39
sg15
(lp40
sg17
(lp41
sg19
(lp42
sg21
I0
sba(iArchitecture
Entity
p43
(dp44
g11
(lp45
sg13
S'tools.aapt.AaptConfig.h'
p46
sg15
(lp47
sg17
(lp48
sg19
(lp49
sg21
I0
sbasg29
(lp50
g39
ag46
asg21
I0
sg31
S'tools.aapt.AaptConfig.ch'
p51
sba(iArchitecture
Cluster
p52
(dp53
g7
(lp54
(iArchitecture
Entity
p55
(dp56
g11
(lp57
sg13
S'tools.aapt.AaptUtil.c'
p58
sg15
(lp59
sg17
(lp60
sg19
(lp61
sg21
I0
sba(iArchitecture
Entity
p62
(dp63
g11
(lp64
sg13
S'tools.aapt.AaptUtil.h'
p65
sg15
(lp66
sg17
(lp67
sg19
(lp68
sg21
I0
sbasg29
(lp69
g58
ag65
asg21
I0
sg31
S'tools.aapt.AaptUtil.ch'
p70
sba(iArchitecture
Cluster
p71
(dp72
g7
(lp73
(iArchitecture
Entity
p74
(dp75
g11
(lp76
sg13
S'tools.aapt.AaptXml.c'
p77
sg15
(lp78
sg17
(lp79
sg19
(lp80
sg21
I0
sba(iArchitecture
Entity
p81
(dp82
g11
(lp83
sg13
S'tools.aapt.AaptXml.h'
p84
sg15
(lp85
sg17
(lp86
sg19
(lp87
sg21
I0
sbasg29
(lp88
g77
ag84
asg21
I0
sg31
S'tools.aapt.AaptXml.ch'
p89
sba(iArchitecture
Cluster
p90
(dp91
g7
(lp92
(iArchitecture
Entity
p93
(dp94
g11
(lp95
sg13
S'tools.aapt.ApkBuilder.c'
p96
sg15
(lp97
sg17
(lp98
sg19
(lp99
sg21
I0
sba(iArchitecture
Entity
p100
(dp101
g11
(lp102
sg13
S'tools.aapt.ApkBuilder.h'
p103
sg15
(lp104
sg17
(lp105
sg19
(lp106
sg21
I0
sbasg29
(lp107
g96
ag103
asg21
I0
sg31
S'tools.aapt.ApkBuilder.ch'
p108
sba(iArchitecture
Cluster
p109
(dp110
g7
(lp111
(iArchitecture
Entity
p112
(dp113
g11
(lp114
sg13
S'tools.aapt.CrunchCache.c'
p115
sg15
(lp116
sg17
(lp117
sg19
(lp118
sg21
I0
sba(iArchitecture
Entity
p119
(dp120
g11
(lp121
sg13
S'tools.aapt.CrunchCache.h'
p122
sg15
(lp123
sg17
(lp124
sg19
(lp125
sg21
I0
sbasg29
(lp126
g115
ag122
asg21
I0
sg31
S'tools.aapt.CrunchCache.ch'
p127
sba(iArchitecture
Cluster
p128
(dp129
g7
(lp130
(iArchitecture
Entity
p131
(dp132
g11
(lp133
sg13
S'tools.aapt.FileFinder.c'
p134
sg15
(lp135
sg17
(lp136
sg19
(lp137
sg21
I0
sba(iArchitecture
Entity
p138
(dp139
g11
(lp140
sg13
S'tools.aapt.FileFinder.h'
p141
sg15
(lp142
sg17
(lp143
sg19
(lp144
sg21
I0
sbasg29
(lp145
g134
ag141
asg21
I0
sg31
S'tools.aapt.FileFinder.ch'
p146
sba(iArchitecture
Cluster
p147
(dp148
g7
(lp149
(iArchitecture
Entity
p150
(dp151
g11
(lp152
sg13
S'tools.aapt.Images.c'
p153
sg15
(lp154
sg17
(lp155
sg19
(lp156
sg21
I0
sba(iArchitecture
Entity
p157
(dp158
g11
(lp159
sg13
S'tools.aapt.Images.h'
p160
sg15
(lp161
sg17
(lp162
sg19
(lp163
sg21
I0
sbasg29
(lp164
g153
ag160
asg21
I0
sg31
S'tools.aapt.Images.ch'
p165
sba(iArchitecture
Cluster
p166
(dp167
g7
(lp168
(iArchitecture
Entity
p169
(dp170
g11
(lp171
sg13
S'tools.aapt.Main.c'
p172
sg15
(lp173
sg17
(lp174
sg19
(lp175
sg21
I0
sba(iArchitecture
Entity
p176
(dp177
g11
(lp178
sg13
S'tools.aapt.Main.h'
p179
sg15
(lp180
sg17
(lp181
sg19
(lp182
sg21
I0
sbasg29
(lp183
g172
ag179
asg21
I0
sg31
S'tools.aapt.Main.ch'
p184
sba(iArchitecture
Cluster
p185
(dp186
g7
(lp187
(iArchitecture
Entity
p188
(dp189
g11
(lp190
sg13
S'tools.aapt.IndentPrinter.h'
p191
sg15
(lp192
sg17
(lp193
sg19
(lp194
sg21
I0
sba(iArchitecture
Entity
p195
(dp196
g11
(lp197
sg13
S'tools.aapt.Resource.c'
p198
sg15
(lp199
sg17
(lp200
sg19
(lp201
sg21
I0
sbasg29
(lp202
g191
ag198
asg21
I0
sg31
S'tools.aapt.Resource.ss'
p203
sba(iArchitecture
Cluster
p204
(dp205
g7
(lp206
(iArchitecture
Entity
p207
(dp208
g11
(lp209
sg13
S'tools.aapt.ResourceFilter.c'
p210
sg15
(lp211
sg17
(lp212
sg19
(lp213
sg21
I0
sba(iArchitecture
Entity
p214
(dp215
g11
(lp216
sg13
S'tools.aapt.ResourceFilter.h'
p217
sg15
(lp218
sg17
(lp219
sg19
(lp220
sg21
I0
sbasg29
(lp221
g210
ag217
asg21
I0
sg31
S'tools.aapt.ResourceFilter.ch'
p222
sba(iArchitecture
Cluster
p223
(dp224
g7
(lp225
(iArchitecture
Entity
p226
(dp227
g11
(lp228
sg13
S'tools.aapt.ResourceIdCache.c'
p229
sg15
(lp230
sg17
(lp231
sg19
(lp232
sg21
I0
sba(iArchitecture
Entity
p233
(dp234
g11
(lp235
sg13
S'tools.aapt.ResourceIdCache.h'
p236
sg15
(lp237
sg17
(lp238
sg19
(lp239
sg21
I0
sbasg29
(lp240
g229
ag236
asg21
I0
sg31
S'tools.aapt.ResourceIdCache.ch'
p241
sba(iArchitecture
Cluster
p242
(dp243
g7
(lp244
(iArchitecture
Entity
p245
(dp246
g11
(lp247
sg13
S'tools.aapt.ResourceTable.c'
p248
sg15
(lp249
sg17
(lp250
sg19
(lp251
sg21
I0
sba(iArchitecture
Entity
p252
(dp253
g11
(lp254
sg13
S'tools.aapt.ResourceTable.h'
p255
sg15
(lp256
sg17
(lp257
sg19
(lp258
sg21
I0
sbasg29
(lp259
g248
ag255
asg21
I0
sg31
S'tools.aapt.ResourceTable.ch'
p260
sba(iArchitecture
Cluster
p261
(dp262
g7
(lp263
(iArchitecture
Entity
p264
(dp265
g11
(lp266
sg13
S'tools.aapt.SourcePos.c'
p267
sg15
(lp268
sg17
(lp269
sg19
(lp270
sg21
I0
sba(iArchitecture
Entity
p271
(dp272
g11
(lp273
sg13
S'tools.aapt.SourcePos.h'
p274
sg15
(lp275
sg17
(lp276
sg19
(lp277
sg21
I0
sbasg29
(lp278
g267
ag274
asg21
I0
sg31
S'tools.aapt.SourcePos.ch'
p279
sba(iArchitecture
Cluster
p280
(dp281
g7
(lp282
(iArchitecture
Entity
p283
(dp284
g11
(lp285
sg13
S'tools.aapt.StringPool.c'
p286
sg15
(lp287
sg17
(lp288
sg19
(lp289
sg21
I0
sba(iArchitecture
Entity
p290
(dp291
g11
(lp292
sg13
S'tools.aapt.StringPool.h'
p293
sg15
(lp294
sg17
(lp295
sg19
(lp296
sg21
I0
sbasg29
(lp297
g286
ag293
asg21
I0
sg31
S'tools.aapt.StringPool.ch'
p298
sba(iArchitecture
Cluster
p299
(dp300
g7
(lp301
(iArchitecture
Entity
p302
(dp303
g11
(lp304
sg13
S'tools.aapt.WorkQueue.c'
p305
sg15
(lp306
sg17
(lp307
sg19
(lp308
sg21
I0
sba(iArchitecture
Entity
p309
(dp310
g11
(lp311
sg13
S'tools.aapt.WorkQueue.h'
p312
sg15
(lp313
sg17
(lp314
sg19
(lp315
sg21
I0
sbasg29
(lp316
g305
ag312
asg21
I0
sg31
S'tools.aapt.WorkQueue.ch'
p317
sba(iArchitecture
Cluster
p318
(dp319
g7
(lp320
(iArchitecture
Entity
p321
(dp322
g11
(lp323
sg13
S'tools.aapt.XMLNode.c'
p324
sg15
(lp325
sg17
(lp326
sg19
(lp327
sg21
I0
sba(iArchitecture
Entity
p328
(dp329
g11
(lp330
sg13
S'tools.aapt.XMLNode.h'
p331
sg15
(lp332
sg17
(lp333
sg19
(lp334
sg21
I0
sbasg29
(lp335
g324
ag331
asg21
I0
sg31
S'tools.aapt.XMLNode.ch'
p336
sba(iArchitecture
Cluster
p337
(dp338
g7
(lp339
(iArchitecture
Entity
p340
(dp341
g11
(lp342
sg13
S'tools.aapt.ZipEntry.c'
p343
sg15
(lp344
sg17
(lp345
sg19
(lp346
sg21
I0
sba(iArchitecture
Entity
p347
(dp348
g11
(lp349
sg13
S'tools.aapt.ZipEntry.h'
p350
sg15
(lp351
sg17
(lp352
sg19
(lp353
sg21
I0
sba(iArchitecture
Entity
p354
(dp355
g11
(lp356
sg13
S'tools.aapt2.ZipEntry.c'
p357
sg15
(lp358
sg17
(lp359
sg19
(lp360
sg21
I0
sbasg29
(lp361
g343
ag350
ag357
asg21
I0
sg31
S'tools.aapt.ZipEntry.ch'
p362
sba(iArchitecture
Cluster
p363
(dp364
g7
(lp365
(iArchitecture
Entity
p366
(dp367
g11
(lp368
sg13
S'tools.aapt.ZipFile.c'
p369
sg15
(lp370
sg17
(lp371
sg19
(lp372
sg21
I0
sba(iArchitecture
Entity
p373
(dp374
g11
(lp375
sg13
S'tools.aapt.ZipFile.h'
p376
sg15
(lp377
sg17
(lp378
sg19
(lp379
sg21
I0
sba(iArchitecture
Entity
p380
(dp381
g11
(lp382
sg13
S'tools.aapt2.ZipFile.c'
p383
sg15
(lp384
sg17
(lp385
sg19
(lp386
sg21
I0
sbasg29
(lp387
g369
ag376
ag383
asg21
I0
sg31
S'tools.aapt.ZipFile.ch'
p388
sba(iArchitecture
Cluster
p389
(dp390
g7
(lp391
(iArchitecture
Entity
p392
(dp393
g11
(lp394
sg13
S'tools.aapt.pseudolocalize.c'
p395
sg15
(lp396
sg17
(lp397
sg19
(lp398
sg21
I0
sba(iArchitecture
Entity
p399
(dp400
g11
(lp401
sg13
S'tools.aapt.pseudolocalize.h'
p402
sg15
(lp403
sg17
(lp404
sg19
(lp405
sg21
I0
sbasg29
(lp406
g395
ag402
asg21
I0
sg31
S'tools.aapt.pseudolocalize.ch'
p407
sba(iArchitecture
Cluster
p408
(dp409
g7
(lp410
(iArchitecture
Entity
p411
(dp412
g11
(lp413
sg13
S'tools.aapt.tests.CrunchCache_test.c'
p414
sg15
(lp415
sg17
(lp416
sg19
(lp417
sg21
I0
sba(iArchitecture
Entity
p418
(dp419
g11
(lp420
sg13
S'tools.aapt.tests.MockCacheUpdater.h'
p421
sg15
(lp422
sg17
(lp423
sg19
(lp424
sg21
I0
sba(iArchitecture
Entity
p425
(dp426
g11
(lp427
sg13
S'tools.aapt.tests.MockFileFinder.h'
p428
sg15
(lp429
sg17
(lp430
sg19
(lp431
sg21
I0
sbasg29
(lp432
g414
ag421
ag428
asg21
I0
sg31
S'tools.aapt.tests.CrunchCache_test.ss'
p433
sba(iArchitecture
Cluster
p434
(dp435
g7
(lp436
(iArchitecture
Entity
p437
(dp438
g11
(lp439
sg13
S'tools.aapt.tests.FileFinder_test.c'
p440
sg15
(lp441
sg17
(lp442
sg19
(lp443
sg21
I0
sba(iArchitecture
Entity
p444
(dp445
g11
(lp446
sg13
S'tools.aapt.tests.MockDirectoryWalker.h'
p447
sg15
(lp448
sg17
(lp449
sg19
(lp450
sg21
I0
sbasg29
(lp451
g440
ag447
asg21
I0
sg31
S'tools.aapt.tests.FileFinder_test.ss'
p452
sba(iArchitecture
Cluster
p453
(dp454
g7
(lp455
(iArchitecture
Entity
p456
(dp457
g11
(lp458
sg13
S'tools.aapt2.BigBuffer.c'
p459
sg15
(lp460
sg17
(lp461
sg19
(lp462
sg21
I0
sba(iArchitecture
Entity
p463
(dp464
g11
(lp465
sg13
S'tools.aapt2.BigBuffer.h'
p466
sg15
(lp467
sg17
(lp468
sg19
(lp469
sg21
I0
sba(iArchitecture
Entity
p470
(dp471
g11
(lp472
sg13
S'tools.aapt2.BigBuffer_test.c'
p473
sg15
(lp474
sg17
(lp475
sg19
(lp476
sg21
I0
sbasg29
(lp477
g459
ag466
ag473
asg21
I0
sg31
S'tools.aapt2.BigBuffer.ch'
p478
sba(iArchitecture
Cluster
p479
(dp480
g7
(lp481
(iArchitecture
Entity
p482
(dp483
g11
(lp484
sg13
S'tools.aapt2.BinaryResourceParser.c'
p485
sg15
(lp486
sg17
(lp487
sg19
(lp488
sg21
I0
sba(iArchitecture
Entity
p489
(dp490
g11
(lp491
sg13
S'tools.aapt2.BinaryResourceParser.h'
p492
sg15
(lp493
sg17
(lp494
sg19
(lp495
sg21
I0
sbasg29
(lp496
g485
ag492
asg21
I0
sg31
S'tools.aapt2.BinaryResourceParser.ch'
p497
sba(iArchitecture
Cluster
p498
(dp499
g7
(lp500
(iArchitecture
Entity
p501
(dp502
g11
(lp503
sg13
S'tools.aapt2.BindingXmlPullParser.c'
p504
sg15
(lp505
sg17
(lp506
sg19
(lp507
sg21
I0
sba(iArchitecture
Entity
p508
(dp509
g11
(lp510
sg13
S'tools.aapt2.BindingXmlPullParser.h'
p511
sg15
(lp512
sg17
(lp513
sg19
(lp514
sg21
I0
sbasg29
(lp515
g504
ag511
asg21
I0
sg31
S'tools.aapt2.BindingXmlPullParser.ch'
p516
sba(iArchitecture
Cluster
p517
(dp518
g7
(lp519
(iArchitecture
Entity
p520
(dp521
g11
(lp522
sg13
S'tools.aapt2.Files.c'
p523
sg15
(lp524
sg17
(lp525
sg19
(lp526
sg21
I0
sba(iArchitecture
Entity
p527
(dp528
g11
(lp529
sg13
S'tools.aapt2.Files.h'
p530
sg15
(lp531
sg17
(lp532
sg19
(lp533
sg21
I0
sbasg29
(lp534
g523
ag530
asg21
I0
sg31
S'tools.aapt2.Files.ch'
p535
sba(iArchitecture
Cluster
p536
(dp537
g7
(lp538
(iArchitecture
Entity
p539
(dp540
g11
(lp541
sg13
S'tools.aapt2.Flag.c'
p542
sg15
(lp543
sg17
(lp544
sg19
(lp545
sg21
I0
sba(iArchitecture
Entity
p546
(dp547
g11
(lp548
sg13
S'tools.aapt2.Flag.h'
p549
sg15
(lp550
sg17
(lp551
sg19
(lp552
sg21
I0
sbasg29
(lp553
g542
ag549
asg21
I0
sg31
S'tools.aapt2.Flag.ch'
p554
sba(iArchitecture
Cluster
p555
(dp556
g7
(lp557
(iArchitecture
Entity
p558
(dp559
g11
(lp560
sg13
S'tools.aapt2.JavaClassGenerator.c'
p561
sg15
(lp562
sg17
(lp563
sg19
(lp564
sg21
I0
sba(iArchitecture
Entity
p565
(dp566
g11
(lp567
sg13
S'tools.aapt2.JavaClassGenerator.h'
p568
sg15
(lp569
sg17
(lp570
sg19
(lp571
sg21
I0
sbasg29
(lp572
g561
ag568
asg21
I0
sg31
S'tools.aapt2.JavaClassGenerator.ch'
p573
sba(iArchitecture
Cluster
p574
(dp575
g7
(lp576
(iArchitecture
Entity
p577
(dp578
g11
(lp579
sg13
S'tools.aapt2.Linker.c'
p580
sg15
(lp581
sg17
(lp582
sg19
(lp583
sg21
I0
sba(iArchitecture
Entity
p584
(dp585
g11
(lp586
sg13
S'tools.aapt2.Linker.h'
p587
sg15
(lp588
sg17
(lp589
sg19
(lp590
sg21
I0
sbasg29
(lp591
g580
ag587
asg21
I0
sg31
S'tools.aapt2.Linker.ch'
p592
sba(iArchitecture
Cluster
p593
(dp594
g7
(lp595
(iArchitecture
Entity
p596
(dp597
g11
(lp598
sg13
S'tools.aapt2.Locale.c'
p599
sg15
(lp600
sg17
(lp601
sg19
(lp602
sg21
I0
sba(iArchitecture
Entity
p603
(dp604
g11
(lp605
sg13
S'tools.aapt2.Locale.h'
p606
sg15
(lp607
sg17
(lp608
sg19
(lp609
sg21
I0
sbasg29
(lp610
g599
ag606
asg21
I0
sg31
S'tools.aapt2.Locale.ch'
p611
sba(iArchitecture
Cluster
p612
(dp613
g7
(lp614
(iArchitecture
Entity
p615
(dp616
g11
(lp617
sg13
S'tools.aapt2.Logger.c'
p618
sg15
(lp619
sg17
(lp620
sg19
(lp621
sg21
I0
sba(iArchitecture
Entity
p622
(dp623
g11
(lp624
sg13
S'tools.aapt2.Logger.h'
p625
sg15
(lp626
sg17
(lp627
sg19
(lp628
sg21
I0
sbasg29
(lp629
g618
ag625
asg21
I0
sg31
S'tools.aapt2.Logger.ch'
p630
sba(iArchitecture
Cluster
p631
(dp632
g7
(lp633
(iArchitecture
Entity
p634
(dp635
g11
(lp636
sg13
S'tools.aapt2.ManifestMerger.c'
p637
sg15
(lp638
sg17
(lp639
sg19
(lp640
sg21
I0
sba(iArchitecture
Entity
p641
(dp642
g11
(lp643
sg13
S'tools.aapt2.ManifestMerger.h'
p644
sg15
(lp645
sg17
(lp646
sg19
(lp647
sg21
I0
sbasg29
(lp648
g637
ag644
asg21
I0
sg31
S'tools.aapt2.ManifestMerger.ch'
p649
sba(iArchitecture
Cluster
p650
(dp651
g7
(lp652
(iArchitecture
Entity
p653
(dp654
g11
(lp655
sg13
S'tools.aapt2.ManifestParser.c'
p656
sg15
(lp657
sg17
(lp658
sg19
(lp659
sg21
I0
sba(iArchitecture
Entity
p660
(dp661
g11
(lp662
sg13
S'tools.aapt2.ManifestParser.h'
p663
sg15
(lp664
sg17
(lp665
sg19
(lp666
sg21
I0
sbasg29
(lp667
g656
ag663
asg21
I0
sg31
S'tools.aapt2.ManifestParser.ch'
p668
sba(iArchitecture
Cluster
p669
(dp670
g7
(lp671
(iArchitecture
Entity
p672
(dp673
g11
(lp674
sg13
S'tools.aapt2.AppInfo.h'
p675
sg15
(lp676
sg17
(lp677
sg19
(lp678
sg21
I0
sba(iArchitecture
Entity
p679
(dp680
g11
(lp681
sg13
S'tools.aapt2.ManifestParser_test.c'
p682
sg15
(lp683
sg17
(lp684
sg19
(lp685
sg21
I0
sbasg29
(lp686
g675
ag682
asg21
I0
sg31
S'tools.aapt2.ManifestParser_test.ss'
p687
sba(iArchitecture
Cluster
p688
(dp689
g7
(lp690
(iArchitecture
Entity
p691
(dp692
g11
(lp693
sg13
S'tools.aapt2.ManifestValidator.c'
p694
sg15
(lp695
sg17
(lp696
sg19
(lp697
sg21
I0
sba(iArchitecture
Entity
p698
(dp699
g11
(lp700
sg13
S'tools.aapt2.ManifestValidator.h'
p701
sg15
(lp702
sg17
(lp703
sg19
(lp704
sg21
I0
sbasg29
(lp705
g694
ag701
asg21
I0
sg31
S'tools.aapt2.ManifestValidator.ch'
p706
sba(iArchitecture
Cluster
p707
(dp708
g7
(lp709
(iArchitecture
Entity
p710
(dp711
g11
(lp712
sg13
S'tools.aapt2.NameMangler.h'
p713
sg15
(lp714
sg17
(lp715
sg19
(lp716
sg21
I0
sba(iArchitecture
Entity
p717
(dp718
g11
(lp719
sg13
S'tools.aapt2.NameMangler_test.c'
p720
sg15
(lp721
sg17
(lp722
sg19
(lp723
sg21
I0
sbasg29
(lp724
g713
ag720
asg21
I0
sg31
S'tools.aapt2.NameMangler_test.ss'
p725
sba(iArchitecture
Cluster
p726
(dp727
g7
(lp728
(iArchitecture
Entity
p729
(dp730
g11
(lp731
sg13
S'tools.aapt2.Png.c'
p732
sg15
(lp733
sg17
(lp734
sg19
(lp735
sg21
I0
sba(iArchitecture
Entity
p736
(dp737
g11
(lp738
sg13
S'tools.aapt2.Png.h'
p739
sg15
(lp740
sg17
(lp741
sg19
(lp742
sg21
I0
sbasg29
(lp743
g732
ag739
asg21
I0
sg31
S'tools.aapt2.Png.ch'
p744
sba(iArchitecture
Cluster
p745
(dp746
g7
(lp747
(iArchitecture
Entity
p748
(dp749
g11
(lp750
sg13
S'tools.aapt2.ProguardRules.c'
p751
sg15
(lp752
sg17
(lp753
sg19
(lp754
sg21
I0
sba(iArchitecture
Entity
p755
(dp756
g11
(lp757
sg13
S'tools.aapt2.ProguardRules.h'
p758
sg15
(lp759
sg17
(lp760
sg19
(lp761
sg21
I0
sbasg29
(lp762
g751
ag758
asg21
I0
sg31
S'tools.aapt2.ProguardRules.ch'
p763
sba(iArchitecture
Cluster
p764
(dp765
g7
(lp766
(iArchitecture
Entity
p767
(dp768
g11
(lp769
sg13
S'tools.aapt2.ResChunkPullParser.c'
p770
sg15
(lp771
sg17
(lp772
sg19
(lp773
sg21
I0
sba(iArchitecture
Entity
p774
(dp775
g11
(lp776
sg13
S'tools.aapt2.ResChunkPullParser.h'
p777
sg15
(lp778
sg17
(lp779
sg19
(lp780
sg21
I0
sbasg29
(lp781
g770
ag777
asg21
I0
sg31
S'tools.aapt2.ResChunkPullParser.ch'
p782
sba(iArchitecture
Cluster
p783
(dp784
g7
(lp785
(iArchitecture
Entity
p786
(dp787
g11
(lp788
sg13
S'tools.aapt.CacheUpdater.h'
p789
sg15
(lp790
sg17
(lp791
sg19
(lp792
sg21
I0
sba(iArchitecture
Entity
p793
(dp794
g11
(lp795
sg13
S'tools.aapt.DirectoryWalker.h'
p796
sg15
(lp797
sg17
(lp798
sg19
(lp799
sg21
I0
sba(iArchitecture
Entity
p800
(dp801
g11
(lp802
sg13
S'tools.aapt2.Resource.c'
p803
sg15
(lp804
sg17
(lp805
sg19
(lp806
sg21
I0
sba(iArchitecture
Entity
p807
(dp808
g11
(lp809
sg13
S'tools.aapt2.Resource.h'
p810
sg15
(lp811
sg17
(lp812
sg19
(lp813
sg21
I0
sbasg29
(lp814
g789
ag796
ag803
ag810
asg21
I0
sg31
S'tools.aapt2.Resource.ch'
p815
sba(iArchitecture
Cluster
p816
(dp817
g7
(lp818
(iArchitecture
Entity
p819
(dp820
g11
(lp821
sg13
S'tools.aapt2.ResourceParser.c'
p822
sg15
(lp823
sg17
(lp824
sg19
(lp825
sg21
I0
sba(iArchitecture
Entity
p826
(dp827
g11
(lp828
sg13
S'tools.aapt2.ResourceParser.h'
p829
sg15
(lp830
sg17
(lp831
sg19
(lp832
sg21
I0
sbasg29
(lp833
g822
ag829
asg21
I0
sg31
S'tools.aapt2.ResourceParser.ch'
p834
sba(iArchitecture
Cluster
p835
(dp836
g7
(lp837
(iArchitecture
Entity
p838
(dp839
g11
(lp840
sg13
S'tools.aapt2.ResourceTableResolver.c'
p841
sg15
(lp842
sg17
(lp843
sg19
(lp844
sg21
I0
sba(iArchitecture
Entity
p845
(dp846
g11
(lp847
sg13
S'tools.aapt2.ResourceTableResolver.h'
p848
sg15
(lp849
sg17
(lp850
sg19
(lp851
sg21
I0
sbasg29
(lp852
g841
ag848
asg21
I0
sg31
S'tools.aapt2.ResourceTableResolver.ch'
p853
sba(iArchitecture
Cluster
p854
(dp855
g7
(lp856
(iArchitecture
Entity
p857
(dp858
g11
(lp859
sg13
S'tools.aapt2.ResourceValues.c'
p860
sg15
(lp861
sg17
(lp862
sg19
(lp863
sg21
I0
sba(iArchitecture
Entity
p864
(dp865
g11
(lp866
sg13
S'tools.aapt2.ResourceValues.h'
p867
sg15
(lp868
sg17
(lp869
sg19
(lp870
sg21
I0
sbasg29
(lp871
g860
ag867
asg21
I0
sg31
S'tools.aapt2.ResourceValues.ch'
p872
sba(iArchitecture
Cluster
p873
(dp874
g7
(lp875
(iArchitecture
Entity
p876
(dp877
g11
(lp878
sg13
S'tools.aapt2.ScopedXmlPullParser.c'
p879
sg15
(lp880
sg17
(lp881
sg19
(lp882
sg21
I0
sba(iArchitecture
Entity
p883
(dp884
g11
(lp885
sg13
S'tools.aapt2.ScopedXmlPullParser.h'
p886
sg15
(lp887
sg17
(lp888
sg19
(lp889
sg21
I0
sbasg29
(lp890
g879
ag886
asg21
I0
sg31
S'tools.aapt2.ScopedXmlPullParser.ch'
p891
sba(iArchitecture
Cluster
p892
(dp893
g7
(lp894
(iArchitecture
Entity
p895
(dp896
g11
(lp897
sg13
S'tools.aapt2.SourceXmlPullParser.c'
p898
sg15
(lp899
sg17
(lp900
sg19
(lp901
sg21
I0
sba(iArchitecture
Entity
p902
(dp903
g11
(lp904
sg13
S'tools.aapt2.SourceXmlPullParser.h'
p905
sg15
(lp906
sg17
(lp907
sg19
(lp908
sg21
I0
sbasg29
(lp909
g898
ag905
asg21
I0
sg31
S'tools.aapt2.SourceXmlPullParser.ch'
p910
sba(iArchitecture
Cluster
p911
(dp912
g7
(lp913
(iArchitecture
Entity
p914
(dp915
g11
(lp916
sg13
S'tools.aapt2.ResourceTypeExtensions.h'
p917
sg15
(lp918
sg17
(lp919
sg19
(lp920
sg21
I0
sba(iArchitecture
Entity
p921
(dp922
g11
(lp923
sg13
S'tools.aapt2.TableFlattener.c'
p924
sg15
(lp925
sg17
(lp926
sg19
(lp927
sg21
I0
sba(iArchitecture
Entity
p928
(dp929
g11
(lp930
sg13
S'tools.aapt2.TableFlattener.h'
p931
sg15
(lp932
sg17
(lp933
sg19
(lp934
sg21
I0
sbasg29
(lp935
g917
ag924
ag931
asg21
I0
sg31
S'tools.aapt2.TableFlattener.ch'
p936
sba(iArchitecture
Cluster
p937
(dp938
g7
(lp939
(iArchitecture
Entity
p940
(dp941
g11
(lp942
sg13
S'tools.aapt2.Util.c'
p943
sg15
(lp944
sg17
(lp945
sg19
(lp946
sg21
I0
sba(iArchitecture
Entity
p947
(dp948
g11
(lp949
sg13
S'tools.aapt2.Util.h'
p950
sg15
(lp951
sg17
(lp952
sg19
(lp953
sg21
I0
sbasg29
(lp954
g943
ag950
asg21
I0
sg31
S'tools.aapt2.Util.ch'
p955
sba(iArchitecture
Cluster
p956
(dp957
g7
(lp958
(iArchitecture
Entity
p959
(dp960
g11
(lp961
sg13
S'tools.aapt2.XliffXmlPullParser.c'
p962
sg15
(lp963
sg17
(lp964
sg19
(lp965
sg21
I0
sba(iArchitecture
Entity
p966
(dp967
g11
(lp968
sg13
S'tools.aapt2.XliffXmlPullParser.h'
p969
sg15
(lp970
sg17
(lp971
sg19
(lp972
sg21
I0
sbasg29
(lp973
g962
ag969
asg21
I0
sg31
S'tools.aapt2.XliffXmlPullParser.ch'
p974
sba(iArchitecture
Cluster
p975
(dp976
g7
(lp977
(iArchitecture
Entity
p978
(dp979
g11
(lp980
sg13
S'tools.aapt2.XmlDom.c'
p981
sg15
(lp982
sg17
(lp983
sg19
(lp984
sg21
I0
sba(iArchitecture
Entity
p985
(dp986
g11
(lp987
sg13
S'tools.aapt2.XmlDom.h'
p988
sg15
(lp989
sg17
(lp990
sg19
(lp991
sg21
I0
sbasg29
(lp992
g981
ag988
asg21
I0
sg31
S'tools.aapt2.XmlDom.ch'
p993
sba(iArchitecture
Cluster
p994
(dp995
g7
(lp996
(iArchitecture
Entity
p997
(dp998
g11
(lp999
sg13
S'tools.aapt.Bundle.h'
p1000
sg15
(lp1001
sg17
(lp1002
sg19
(lp1003
sg21
I0
sba(iArchitecture
Entity
p1004
(dp1005
g11
(lp1006
sg13
S'tools.aapt.Command.c'
p1007
sg15
(lp1008
sg17
(lp1009
sg19
(lp1010
sg21
I0
sba(iArchitecture
Entity
p1011
(dp1012
g11
(lp1013
sg13
S'tools.aapt.OutputSet.h'
p1014
sg15
(lp1015
sg17
(lp1016
sg19
(lp1017
sg21
I0
sba(iArchitecture
Entity
p1018
(dp1019
g11
(lp1020
sg13
S'tools.aapt.Package.c'
p1021
sg15
(lp1022
sg17
(lp1023
sg19
(lp1024
sg21
I0
sba(iArchitecture
Entity
p1025
(dp1026
g11
(lp1027
sg13
S'tools.aapt.Symbol.h'
p1028
sg15
(lp1029
sg17
(lp1030
sg19
(lp1031
sg21
I0
sba(iArchitecture
Entity
p1032
(dp1033
g11
(lp1034
sg13
S'tools.aapt.tests.Pseudolocales_test.c'
p1035
sg15
(lp1036
sg17
(lp1037
sg19
(lp1038
sg21
I0
sba(iArchitecture
Entity
p1039
(dp1040
g11
(lp1041
sg13
S'tools.aapt.tests.ResourceTable_test.c'
p1042
sg15
(lp1043
sg17
(lp1044
sg19
(lp1045
sg21
I0
sba(iArchitecture
Entity
p1046
(dp1047
g11
(lp1048
sg13
S'tools.aapt.tests.TestHelper.h'
p1049
sg15
(lp1050
sg17
(lp1051
sg19
(lp1052
sg21
I0
sba(iArchitecture
Entity
p1053
(dp1054
g11
(lp1055
sg13
S'tools.aapt2.BindingXmlPullParser_test.c'
p1056
sg15
(lp1057
sg17
(lp1058
sg19
(lp1059
sg21
I0
sba(iArchitecture
Entity
p1060
(dp1061
g11
(lp1062
sg13
S'tools.aapt2.Debug.c'
p1063
sg15
(lp1064
sg17
(lp1065
sg19
(lp1066
sg21
I0
sba(iArchitecture
Entity
p1067
(dp1068
g11
(lp1069
sg13
S'tools.aapt2.JavaClassGenerator_test.c'
p1070
sg15
(lp1071
sg17
(lp1072
sg19
(lp1073
sg21
I0
sba(iArchitecture
Entity
p1074
(dp1075
g11
(lp1076
sg13
S'tools.aapt2.Linker_test.c'
p1077
sg15
(lp1078
sg17
(lp1079
sg19
(lp1080
sg21
I0
sba(iArchitecture
Entity
p1081
(dp1082
g11
(lp1083
sg13
S'tools.aapt2.ManifestMerger_test.c'
p1084
sg15
(lp1085
sg17
(lp1086
sg19
(lp1087
sg21
I0
sba(iArchitecture
Entity
p1088
(dp1089
g11
(lp1090
sg13
S'tools.aapt2.Maybe.h'
p1091
sg15
(lp1092
sg17
(lp1093
sg19
(lp1094
sg21
I0
sba(iArchitecture
Entity
p1095
(dp1096
g11
(lp1097
sg13
S'tools.aapt2.Maybe_test.c'
p1098
sg15
(lp1099
sg17
(lp1100
sg19
(lp1101
sg21
I0
sba(iArchitecture
Entity
p1102
(dp1103
g11
(lp1104
sg13
S'tools.aapt2.MockResolver.h'
p1105
sg15
(lp1106
sg17
(lp1107
sg19
(lp1108
sg21
I0
sba(iArchitecture
Entity
p1109
(dp1110
g11
(lp1111
sg13
S'tools.aapt2.Resolver.h'
p1112
sg15
(lp1113
sg17
(lp1114
sg19
(lp1115
sg21
I0
sba(iArchitecture
Entity
p1116
(dp1117
g11
(lp1118
sg13
S'tools.aapt2.ResourceParser_test.c'
p1119
sg15
(lp1120
sg17
(lp1121
sg19
(lp1122
sg21
I0
sba(iArchitecture
Entity
p1123
(dp1124
g11
(lp1125
sg13
S'tools.aapt2.ResourceTable.c'
p1126
sg15
(lp1127
sg17
(lp1128
sg19
(lp1129
sg21
I0
sba(iArchitecture
Entity
p1130
(dp1131
g11
(lp1132
sg13
S'tools.aapt2.ResourceTable_test.c'
p1133
sg15
(lp1134
sg17
(lp1135
sg19
(lp1136
sg21
I0
sba(iArchitecture
Entity
p1137
(dp1138
g11
(lp1139
sg13
S'tools.aapt2.Resource_test.c'
p1140
sg15
(lp1141
sg17
(lp1142
sg19
(lp1143
sg21
I0
sba(iArchitecture
Entity
p1144
(dp1145
g11
(lp1146
sg13
S'tools.aapt2.ScopedXmlPullParser_test.c'
p1147
sg15
(lp1148
sg17
(lp1149
sg19
(lp1150
sg21
I0
sba(iArchitecture
Entity
p1151
(dp1152
g11
(lp1153
sg13
S'tools.aapt2.Source.h'
p1154
sg15
(lp1155
sg17
(lp1156
sg19
(lp1157
sg21
I0
sba(iArchitecture
Entity
p1158
(dp1159
g11
(lp1160
sg13
S'tools.aapt2.StringPiece.h'
p1161
sg15
(lp1162
sg17
(lp1163
sg19
(lp1164
sg21
I0
sba(iArchitecture
Entity
p1165
(dp1166
g11
(lp1167
sg13
S'tools.aapt2.StringPiece_test.c'
p1168
sg15
(lp1169
sg17
(lp1170
sg19
(lp1171
sg21
I0
sba(iArchitecture
Entity
p1172
(dp1173
g11
(lp1174
sg13
S'tools.aapt2.StringPool.c'
p1175
sg15
(lp1176
sg17
(lp1177
sg19
(lp1178
sg21
I0
sba(iArchitecture
Entity
p1179
(dp1180
g11
(lp1181
sg13
S'tools.aapt2.StringPool_test.c'
p1182
sg15
(lp1183
sg17
(lp1184
sg19
(lp1185
sg21
I0
sba(iArchitecture
Entity
p1186
(dp1187
g11
(lp1188
sg13
S'tools.aapt2.XliffXmlPullParser_test.c'
p1189
sg15
(lp1190
sg17
(lp1191
sg19
(lp1192
sg21
I0
sba(iArchitecture
Entity
p1193
(dp1194
g11
(lp1195
sg13
S'tools.aapt2.XmlDom_test.c'
p1196
sg15
(lp1197
sg17
(lp1198
sg19
(lp1199
sg21
I0
sba(iArchitecture
Entity
p1200
(dp1201
g11
(lp1202
sg13
S'tools.aapt2.XmlFlattener.c'
p1203
sg15
(lp1204
sg17
(lp1205
sg19
(lp1206
sg21
I0
sba(iArchitecture
Entity
p1207
(dp1208
g11
(lp1209
sg13
S'tools.aapt2.XmlFlattener.h'
p1210
sg15
(lp1211
sg17
(lp1212
sg19
(lp1213
sg21
I0
sba(iArchitecture
Entity
p1214
(dp1215
g11
(lp1216
sg13
S'tools.aapt2.XmlFlattener_test.c'
p1217
sg15
(lp1218
sg17
(lp1219
sg19
(lp1220
sg21
I0
sba(iArchitecture
Entity
p1221
(dp1222
g11
(lp1223
sg13
S'tools.aapt2.XmlPullParser.h'
p1224
sg15
(lp1225
sg17
(lp1226
sg19
(lp1227
sg21
I0
sbasg29
(lp1228
g1000
ag1007
ag1014
ag1021
ag1028
ag1035
ag1042
ag1049
ag1056
ag1063
ag1070
ag1077
ag1084
ag1091
ag1098
ag1105
ag1112
ag1119
ag1126
ag1133
ag1140
ag1147
ag1154
ag1161
ag1168
ag1175
ag1182
ag1189
ag1196
ag1203
ag1210
ag1217
ag1224
asg21
I0
sg31
S'tools.aapt2.XmlFlattener.ch'
p1229
sba(iArchitecture
Cluster
p1230
(dp1231
g7
(lp1232
(iArchitecture
Entity
p1233
(dp1234
g11
(lp1235
sg13
S'tools.aapt.SdkConstants.h'
p1236
sg15
(lp1237
sg17
(lp1238
sg19
(lp1239
sg21
I0
sba(iArchitecture
Entity
p1240
(dp1241
g11
(lp1242
sg13
S'tools.aapt2.SdkConstants.c'
p1243
sg15
(lp1244
sg17
(lp1245
sg19
(lp1246
sg21
I0
sbasg29
(lp1247
g1236
ag1243
asg21
I0
sg31
S'tools.split-select.RuleGenerator.ch'
p1248
sba(iArchitecture
Cluster
p1249
(dp1250
g7
(lp1251
(iArchitecture
Entity
p1252
(dp1253
g11
(lp1254
sg13
S'tools.aapt.ConfigDescription.h'
p1255
sg15
(lp1256
sg17
(lp1257
sg19
(lp1258
sg21
I0
sba(iArchitecture
Entity
p1259
(dp1260
g11
(lp1261
sg13
S'tools.aapt.tests.AaptConfig_test.c'
p1262
sg15
(lp1263
sg17
(lp1264
sg19
(lp1265
sg21
I0
sba(iArchitecture
Entity
p1266
(dp1267
g11
(lp1268
sg13
S'tools.aapt.tests.AaptGroupEntry_test.c'
p1269
sg15
(lp1270
sg17
(lp1271
sg19
(lp1272
sg21
I0
sba(iArchitecture
Entity
p1273
(dp1274
g11
(lp1275
sg13
S'tools.aapt.tests.ResourceFilter_test.c'
p1276
sg15
(lp1277
sg17
(lp1278
sg19
(lp1279
sg21
I0
sba(iArchitecture
Entity
p1280
(dp1281
g11
(lp1282
sg13
S'tools.aapt2.ConfigDescription.c'
p1283
sg15
(lp1284
sg17
(lp1285
sg19
(lp1286
sg21
I0
sba(iArchitecture
Entity
p1287
(dp1288
g11
(lp1289
sg13
S'tools.aapt2.ConfigDescription_test.c'
p1290
sg15
(lp1291
sg17
(lp1292
sg19
(lp1293
sg21
I0
sba(iArchitecture
Entity
p1294
(dp1295
g11
(lp1296
sg13
S'tools.aapt2.Locale_test.c'
p1297
sg15
(lp1298
sg17
(lp1299
sg19
(lp1300
sg21
I0
sba(iArchitecture
Entity
p1301
(dp1302
g11
(lp1303
sg13
S'tools.aapt2.Main.c'
p1304
sg15
(lp1305
sg17
(lp1306
sg19
(lp1307
sg21
I0
sba(iArchitecture
Entity
p1308
(dp1309
g11
(lp1310
sg13
S'tools.aapt2.Util_test.c'
p1311
sg15
(lp1312
sg17
(lp1313
sg19
(lp1314
sg21
I0
sbasg29
(lp1315
g1255
ag1262
ag1269
ag1276
ag1283
ag1290
ag1297
ag1304
ag1311
asg21
I0
sg31
S'tools.split-select.TestRules.ch'
p1316
sbasS'target_sub'
p1317
S'tools.aapt'
p1318
sg29
(lp1319
sS'is_component_arch'
p1320
I00
sg31
S'6.0.0_r1'
p1321
sba(iArchitecture
Architecture
p1322
(dp1323
g3
(lp1324
(iArchitecture
Cluster
p1325
(dp1326
g7
(lp1327
(iArchitecture
Entity
p1328
(dp1329
g11
(lp1330
sg13
S'tools.aapt.AaptAssets.c'
p1331
sg15
(lp1332
sg17
(lp1333
sg19
(lp1334
sg21
I0
sba(iArchitecture
Entity
p1335
(dp1336
g11
(lp1337
sg13
S'tools.aapt.AaptAssets.h'
p1338
sg15
(lp1339
sg17
(lp1340
sg19
(lp1341
sg21
I0
sbasg29
(lp1342
g1331
ag1338
asg21
I0
sg31
S'tools.aapt.AaptAssets.ch'
p1343
sba(iArchitecture
Cluster
p1344
(dp1345
g7
(lp1346
(iArchitecture
Entity
p1347
(dp1348
g11
(lp1349
sg13
S'tools.aapt.AaptConfig.c'
p1350
sg15
(lp1351
sg17
(lp1352
sg19
(lp1353
sg21
I0
sba(iArchitecture
Entity
p1354
(dp1355
g11
(lp1356
sg13
S'tools.aapt.AaptConfig.h'
p1357
sg15
(lp1358
sg17
(lp1359
sg19
(lp1360
sg21
I0
sbasg29
(lp1361
g1350
ag1357
asg21
I0
sg31
S'tools.aapt.AaptConfig.ch'
p1362
sba(iArchitecture
Cluster
p1363
(dp1364
g7
(lp1365
(iArchitecture
Entity
p1366
(dp1367
g11
(lp1368
sg13
S'tools.aapt.AaptUtil.c'
p1369
sg15
(lp1370
sg17
(lp1371
sg19
(lp1372
sg21
I0
sba(iArchitecture
Entity
p1373
(dp1374
g11
(lp1375
sg13
S'tools.aapt.AaptUtil.h'
p1376
sg15
(lp1377
sg17
(lp1378
sg19
(lp1379
sg21
I0
sbasg29
(lp1380
g1369
ag1376
asg21
I0
sg31
S'tools.aapt.AaptUtil.ch'
p1381
sba(iArchitecture
Cluster
p1382
(dp1383
g7
(lp1384
(iArchitecture
Entity
p1385
(dp1386
g11
(lp1387
sg13
S'tools.aapt.AaptXml.c'
p1388
sg15
(lp1389
sg17
(lp1390
sg19
(lp1391
sg21
I0
sba(iArchitecture
Entity
p1392
(dp1393
g11
(lp1394
sg13
S'tools.aapt.AaptXml.h'
p1395
sg15
(lp1396
sg17
(lp1397
sg19
(lp1398
sg21
I0
sbasg29
(lp1399
g1388
ag1395
asg21
I0
sg31
S'tools.aapt.AaptXml.ch'
p1400
sba(iArchitecture
Cluster
p1401
(dp1402
g7
(lp1403
(iArchitecture
Entity
p1404
(dp1405
g11
(lp1406
sg13
S'tools.aapt.ApkBuilder.c'
p1407
sg15
(lp1408
sg17
(lp1409
sg19
(lp1410
sg21
I0
sba(iArchitecture
Entity
p1411
(dp1412
g11
(lp1413
sg13
S'tools.aapt.ApkBuilder.h'
p1414
sg15
(lp1415
sg17
(lp1416
sg19
(lp1417
sg21
I0
sbasg29
(lp1418
g1407
ag1414
asg21
I0
sg31
S'tools.aapt.ApkBuilder.ch'
p1419
sba(iArchitecture
Cluster
p1420
(dp1421
g7
(lp1422
(iArchitecture
Entity
p1423
(dp1424
g11
(lp1425
sg13
S'tools.aapt.CrunchCache.c'
p1426
sg15
(lp1427
sg17
(lp1428
sg19
(lp1429
sg21
I0
sba(iArchitecture
Entity
p1430
(dp1431
g11
(lp1432
sg13
S'tools.aapt.CrunchCache.h'
p1433
sg15
(lp1434
sg17
(lp1435
sg19
(lp1436
sg21
I0
sbasg29
(lp1437
g1426
ag1433
asg21
I0
sg31
S'tools.aapt.CrunchCache.ch'
p1438
sba(iArchitecture
Cluster
p1439
(dp1440
g7
(lp1441
(iArchitecture
Entity
p1442
(dp1443
g11
(lp1444
sg13
S'tools.aapt.FileFinder.c'
p1445
sg15
(lp1446
sg17
(lp1447
sg19
(lp1448
sg21
I0
sba(iArchitecture
Entity
p1449
(dp1450
g11
(lp1451
sg13
S'tools.aapt.FileFinder.h'
p1452
sg15
(lp1453
sg17
(lp1454
sg19
(lp1455
sg21
I0
sbasg29
(lp1456
g1445
ag1452
asg21
I0
sg31
S'tools.aapt.FileFinder.ch'
p1457
sba(iArchitecture
Cluster
p1458
(dp1459
g7
(lp1460
(iArchitecture
Entity
p1461
(dp1462
g11
(lp1463
sg13
S'tools.aapt.Images.c'
p1464
sg15
(lp1465
sg17
(lp1466
sg19
(lp1467
sg21
I0
sba(iArchitecture
Entity
p1468
(dp1469
g11
(lp1470
sg13
S'tools.aapt.Images.h'
p1471
sg15
(lp1472
sg17
(lp1473
sg19
(lp1474
sg21
I0
sbasg29
(lp1475
g1464
ag1471
asg21
I0
sg31
S'tools.aapt.Images.ch'
p1476
sba(iArchitecture
Cluster
p1477
(dp1478
g7
(lp1479
(iArchitecture
Entity
p1480
(dp1481
g11
(lp1482
sg13
S'tools.aapt.Main.c'
p1483
sg15
(lp1484
sg17
(lp1485
sg19
(lp1486
sg21
I0
sba(iArchitecture
Entity
p1487
(dp1488
g11
(lp1489
sg13
S'tools.aapt.Main.h'
p1490
sg15
(lp1491
sg17
(lp1492
sg19
(lp1493
sg21
I0
sbasg29
(lp1494
g1483
ag1490
asg21
I0
sg31
S'tools.aapt.Main.ch'
p1495
sba(iArchitecture
Cluster
p1496
(dp1497
g7
(lp1498
(iArchitecture
Entity
p1499
(dp1500
g11
(lp1501
sg13
S'tools.aapt.IndentPrinter.h'
p1502
sg15
(lp1503
sg17
(lp1504
sg19
(lp1505
sg21
I0
sba(iArchitecture
Entity
p1506
(dp1507
g11
(lp1508
sg13
S'tools.aapt.Resource.c'
p1509
sg15
(lp1510
sg17
(lp1511
sg19
(lp1512
sg21
I0
sbasg29
(lp1513
g1502
ag1509
asg21
I0
sg31
S'tools.aapt.Resource.ss'
p1514
sba(iArchitecture
Cluster
p1515
(dp1516
g7
(lp1517
(iArchitecture
Entity
p1518
(dp1519
g11
(lp1520
sg13
S'tools.aapt.ResourceFilter.c'
p1521
sg15
(lp1522
sg17
(lp1523
sg19
(lp1524
sg21
I0
sba(iArchitecture
Entity
p1525
(dp1526
g11
(lp1527
sg13
S'tools.aapt.ResourceFilter.h'
p1528
sg15
(lp1529
sg17
(lp1530
sg19
(lp1531
sg21
I0
sbasg29
(lp1532
g1521
ag1528
asg21
I0
sg31
S'tools.aapt.ResourceFilter.ch'
p1533
sba(iArchitecture
Cluster
p1534
(dp1535
g7
(lp1536
(iArchitecture
Entity
p1537
(dp1538
g11
(lp1539
sg13
S'tools.aapt.ResourceIdCache.c'
p1540
sg15
(lp1541
sg17
(lp1542
sg19
(lp1543
sg21
I0
sba(iArchitecture
Entity
p1544
(dp1545
g11
(lp1546
sg13
S'tools.aapt.ResourceIdCache.h'
p1547
sg15
(lp1548
sg17
(lp1549
sg19
(lp1550
sg21
I0
sbasg29
(lp1551
g1540
ag1547
asg21
I0
sg31
S'tools.aapt.ResourceIdCache.ch'
p1552
sba(iArchitecture
Cluster
p1553
(dp1554
g7
(lp1555
(iArchitecture
Entity
p1556
(dp1557
g11
(lp1558
sg13
S'tools.aapt.ResourceTable.c'
p1559
sg15
(lp1560
sg17
(lp1561
sg19
(lp1562
sg21
I0
sba(iArchitecture
Entity
p1563
(dp1564
g11
(lp1565
sg13
S'tools.aapt.ResourceTable.h'
p1566
sg15
(lp1567
sg17
(lp1568
sg19
(lp1569
sg21
I0
sbasg29
(lp1570
g1559
ag1566
asg21
I0
sg31
S'tools.aapt.ResourceTable.ch'
p1571
sba(iArchitecture
Cluster
p1572
(dp1573
g7
(lp1574
(iArchitecture
Entity
p1575
(dp1576
g11
(lp1577
sg13
S'tools.aapt.SourcePos.c'
p1578
sg15
(lp1579
sg17
(lp1580
sg19
(lp1581
sg21
I0
sba(iArchitecture
Entity
p1582
(dp1583
g11
(lp1584
sg13
S'tools.aapt.SourcePos.h'
p1585
sg15
(lp1586
sg17
(lp1587
sg19
(lp1588
sg21
I0
sbasg29
(lp1589
g1578
ag1585
asg21
I0
sg31
S'tools.aapt.SourcePos.ch'
p1590
sba(iArchitecture
Cluster
p1591
(dp1592
g7
(lp1593
(iArchitecture
Entity
p1594
(dp1595
g11
(lp1596
sg13
S'tools.aapt.StringPool.c'
p1597
sg15
(lp1598
sg17
(lp1599
sg19
(lp1600
sg21
I0
sba(iArchitecture
Entity
p1601
(dp1602
g11
(lp1603
sg13
S'tools.aapt.StringPool.h'
p1604
sg15
(lp1605
sg17
(lp1606
sg19
(lp1607
sg21
I0
sbasg29
(lp1608
g1597
ag1604
asg21
I0
sg31
S'tools.aapt.StringPool.ch'
p1609
sba(iArchitecture
Cluster
p1610
(dp1611
g7
(lp1612
(iArchitecture
Entity
p1613
(dp1614
g11
(lp1615
sg13
S'tools.aapt.WorkQueue.c'
p1616
sg15
(lp1617
sg17
(lp1618
sg19
(lp1619
sg21
I0
sba(iArchitecture
Entity
p1620
(dp1621
g11
(lp1622
sg13
S'tools.aapt.WorkQueue.h'
p1623
sg15
(lp1624
sg17
(lp1625
sg19
(lp1626
sg21
I0
sbasg29
(lp1627
g1616
ag1623
asg21
I0
sg31
S'tools.aapt.WorkQueue.ch'
p1628
sba(iArchitecture
Cluster
p1629
(dp1630
g7
(lp1631
(iArchitecture
Entity
p1632
(dp1633
g11
(lp1634
sg13
S'tools.aapt.XMLNode.c'
p1635
sg15
(lp1636
sg17
(lp1637
sg19
(lp1638
sg21
I0
sba(iArchitecture
Entity
p1639
(dp1640
g11
(lp1641
sg13
S'tools.aapt.XMLNode.h'
p1642
sg15
(lp1643
sg17
(lp1644
sg19
(lp1645
sg21
I0
sbasg29
(lp1646
g1635
ag1642
asg21
I0
sg31
S'tools.aapt.XMLNode.ch'
p1647
sba(iArchitecture
Cluster
p1648
(dp1649
g7
(lp1650
(iArchitecture
Entity
p1651
(dp1652
g11
(lp1653
sg13
S'tools.aapt.ZipEntry.c'
p1654
sg15
(lp1655
sg17
(lp1656
sg19
(lp1657
sg21
I0
sba(iArchitecture
Entity
p1658
(dp1659
g11
(lp1660
sg13
S'tools.aapt.ZipEntry.h'
p1661
sg15
(lp1662
sg17
(lp1663
sg19
(lp1664
sg21
I0
sbasg29
(lp1665
g1654
ag1661
asg21
I0
sg31
S'tools.aapt.ZipEntry.ch'
p1666
sba(iArchitecture
Cluster
p1667
(dp1668
g7
(lp1669
(iArchitecture
Entity
p1670
(dp1671
g11
(lp1672
sg13
S'tools.aapt.ZipFile.c'
p1673
sg15
(lp1674
sg17
(lp1675
sg19
(lp1676
sg21
I0
sba(iArchitecture
Entity
p1677
(dp1678
g11
(lp1679
sg13
S'tools.aapt.ZipFile.h'
p1680
sg15
(lp1681
sg17
(lp1682
sg19
(lp1683
sg21
I0
sbasg29
(lp1684
g1673
ag1680
asg21
I0
sg31
S'tools.aapt.ZipFile.ch'
p1685
sba(iArchitecture
Cluster
p1686
(dp1687
g7
(lp1688
(iArchitecture
Entity
p1689
(dp1690
g11
(lp1691
sg13
S'tools.aapt.pseudolocalize.c'
p1692
sg15
(lp1693
sg17
(lp1694
sg19
(lp1695
sg21
I0
sba(iArchitecture
Entity
p1696
(dp1697
g11
(lp1698
sg13
S'tools.aapt.pseudolocalize.h'
p1699
sg15
(lp1700
sg17
(lp1701
sg19
(lp1702
sg21
I0
sbasg29
(lp1703
g1692
ag1699
asg21
I0
sg31
S'tools.aapt.pseudolocalize.ch'
p1704
sba(iArchitecture
Cluster
p1705
(dp1706
g7
(lp1707
(iArchitecture
Entity
p1708
(dp1709
g11
(lp1710
sg13
S'tools.aapt.tests.CrunchCache_test.c'
p1711
sg15
(lp1712
sg17
(lp1713
sg19
(lp1714
sg21
I0
sba(iArchitecture
Entity
p1715
(dp1716
g11
(lp1717
sg13
S'tools.aapt.tests.MockCacheUpdater.h'
p1718
sg15
(lp1719
sg17
(lp1720
sg19
(lp1721
sg21
I0
sba(iArchitecture
Entity
p1722
(dp1723
g11
(lp1724
sg13
S'tools.aapt.tests.MockFileFinder.h'
p1725
sg15
(lp1726
sg17
(lp1727
sg19
(lp1728
sg21
I0
sbasg29
(lp1729
g1711
ag1718
ag1725
asg21
I0
sg31
S'tools.aapt.tests.CrunchCache_test.ss'
p1730
sba(iArchitecture
Cluster
p1731
(dp1732
g7
(lp1733
(iArchitecture
Entity
p1734
(dp1735
g11
(lp1736
sg13
S'tools.aapt.tests.FileFinder_test.c'
p1737
sg15
(lp1738
sg17
(lp1739
sg19
(lp1740
sg21
I0
sba(iArchitecture
Entity
p1741
(dp1742
g11
(lp1743
sg13
S'tools.aapt.tests.MockDirectoryWalker.h'
p1744
sg15
(lp1745
sg17
(lp1746
sg19
(lp1747
sg21
I0
sbasg29
(lp1748
g1737
ag1744
asg21
I0
sg31
S'tools.aapt.tests.FileFinder_test.ss'
p1749
sba(iArchitecture
Cluster
p1750
(dp1751
g7
(lp1752
(iArchitecture
Entity
p1753
(dp1754
g11
(lp1755
sg13
S'tools.aapt2.Flags.c'
p1756
sg15
(lp1757
sg17
(lp1758
sg19
(lp1759
sg21
I0
sba(iArchitecture
Entity
p1760
(dp1761
g11
(lp1762
sg13
S'tools.aapt2.Flags.h'
p1763
sg15
(lp1764
sg17
(lp1765
sg19
(lp1766
sg21
I0
sbasg29
(lp1767
g1756
ag1763
asg21
I0
sg31
S'tools.aapt2.Flags.ch'
p1768
sba(iArchitecture
Cluster
p1769
(dp1770
g7
(lp1771
(iArchitecture
Entity
p1772
(dp1773
g11
(lp1774
sg13
S'tools.aapt2.Locale.c'
p1775
sg15
(lp1776
sg17
(lp1777
sg19
(lp1778
sg21
I0
sba(iArchitecture
Entity
p1779
(dp1780
g11
(lp1781
sg13
S'tools.aapt2.Locale.h'
p1782
sg15
(lp1783
sg17
(lp1784
sg19
(lp1785
sg21
I0
sbasg29
(lp1786
g1775
ag1782
asg21
I0
sg31
S'tools.aapt2.Locale.ch'
p1787
sba(iArchitecture
Cluster
p1788
(dp1789
g7
(lp1790
(iArchitecture
Entity
p1791
(dp1792
g11
(lp1793
sg13
S'tools.aapt.CacheUpdater.h'
p1794
sg15
(lp1795
sg17
(lp1796
sg19
(lp1797
sg21
I0
sba(iArchitecture
Entity
p1798
(dp1799
g11
(lp1800
sg13
S'tools.aapt.DirectoryWalker.h'
p1801
sg15
(lp1802
sg17
(lp1803
sg19
(lp1804
sg21
I0
sba(iArchitecture
Entity
p1805
(dp1806
g11
(lp1807
sg13
S'tools.aapt2.Resource.c'
p1808
sg15
(lp1809
sg17
(lp1810
sg19
(lp1811
sg21
I0
sba(iArchitecture
Entity
p1812
(dp1813
g11
(lp1814
sg13
S'tools.aapt2.Resource.h'
p1815
sg15
(lp1816
sg17
(lp1817
sg19
(lp1818
sg21
I0
sbasg29
(lp1819
g1794
ag1801
ag1808
ag1815
asg21
I0
sg31
S'tools.aapt2.Resource.ch'
p1820
sba(iArchitecture
Cluster
p1821
(dp1822
g7
(lp1823
(iArchitecture
Entity
p1824
(dp1825
g11
(lp1826
sg13
S'tools.aapt2.ResourceParser.c'
p1827
sg15
(lp1828
sg17
(lp1829
sg19
(lp1830
sg21
I0
sba(iArchitecture
Entity
p1831
(dp1832
g11
(lp1833
sg13
S'tools.aapt2.ResourceParser.h'
p1834
sg15
(lp1835
sg17
(lp1836
sg19
(lp1837
sg21
I0
sba(iArchitecture
Entity
p1838
(dp1839
g11
(lp1840
sg13
S'tools.aapt2.util.ImmutableMap.h'
p1841
sg15
(lp1842
sg17
(lp1843
sg19
(lp1844
sg21
I0
sbasg29
(lp1845
g1827
ag1834
ag1841
asg21
I0
sg31
S'tools.aapt2.ResourceParser.ch'
p1846
sba(iArchitecture
Cluster
p1847
(dp1848
g7
(lp1849
(iArchitecture
Entity
p1850
(dp1851
g11
(lp1852
sg13
S'tools.aapt2.ResourceUtils.c'
p1853
sg15
(lp1854
sg17
(lp1855
sg19
(lp1856
sg21
I0
sba(iArchitecture
Entity
p1857
(dp1858
g11
(lp1859
sg13
S'tools.aapt2.ResourceUtils.h'
p1860
sg15
(lp1861
sg17
(lp1862
sg19
(lp1863
sg21
I0
sbasg29
(lp1864
g1853
ag1860
asg21
I0
sg31
S'tools.aapt2.ResourceUtils.ch'
p1865
sba(iArchitecture
Cluster
p1866
(dp1867
g7
(lp1868
(iArchitecture
Entity
p1869
(dp1870
g11
(lp1871
sg13
S'tools.aapt2.ResourceValues.c'
p1872
sg15
(lp1873
sg17
(lp1874
sg19
(lp1875
sg21
I0
sba(iArchitecture
Entity
p1876
(dp1877
g11
(lp1878
sg13
S'tools.aapt2.ResourceValues.h'
p1879
sg15
(lp1880
sg17
(lp1881
sg19
(lp1882
sg21
I0
sbasg29
(lp1883
g1872
ag1879
asg21
I0
sg31
S'tools.aapt2.ResourceValues.ch'
p1884
sba(iArchitecture
Cluster
p1885
(dp1886
g7
(lp1887
(iArchitecture
Entity
p1888
(dp1889
g11
(lp1890
sg13
S'tools.aapt2.compile.IdAssigner.c'
p1891
sg15
(lp1892
sg17
(lp1893
sg19
(lp1894
sg21
I0
sba(iArchitecture
Entity
p1895
(dp1896
g11
(lp1897
sg13
S'tools.aapt2.compile.IdAssigner.h'
p1898
sg15
(lp1899
sg17
(lp1900
sg19
(lp1901
sg21
I0
sbasg29
(lp1902
g1891
ag1898
asg21
I0
sg31
S'tools.aapt2.compile.IdAssigner.ch'
p1903
sba(iArchitecture
Cluster
p1904
(dp1905
g7
(lp1906
(iArchitecture
Entity
p1907
(dp1908
g11
(lp1909
sg13
S'tools.aapt2.compile.Png.c'
p1910
sg15
(lp1911
sg17
(lp1912
sg19
(lp1913
sg21
I0
sba(iArchitecture
Entity
p1914
(dp1915
g11
(lp1916
sg13
S'tools.aapt2.compile.Png.h'
p1917
sg15
(lp1918
sg17
(lp1919
sg19
(lp1920
sg21
I0
sbasg29
(lp1921
g1910
ag1917
asg21
I0
sg31
S'tools.aapt2.compile.Png.ch'
p1922
sba(iArchitecture
Cluster
p1923
(dp1924
g7
(lp1925
(iArchitecture
Entity
p1926
(dp1927
g11
(lp1928
sg13
S'tools.aapt2.compile.PseudolocaleGenerator.c'
p1929
sg15
(lp1930
sg17
(lp1931
sg19
(lp1932
sg21
I0
sba(iArchitecture
Entity
p1933
(dp1934
g11
(lp1935
sg13
S'tools.aapt2.compile.PseudolocaleGenerator.h'
p1936
sg15
(lp1937
sg17
(lp1938
sg19
(lp1939
sg21
I0
sbasg29
(lp1940
g1929
ag1936
asg21
I0
sg31
S'tools.aapt2.compile.PseudolocaleGenerator.ch'
p1941
sba(iArchitecture
Cluster
p1942
(dp1943
g7
(lp1944
(iArchitecture
Entity
p1945
(dp1946
g11
(lp1947
sg13
S'tools.aapt2.compile.Pseudolocalizer.c'
p1948
sg15
(lp1949
sg17
(lp1950
sg19
(lp1951
sg21
I0
sba(iArchitecture
Entity
p1952
(dp1953
g11
(lp1954
sg13
S'tools.aapt2.compile.Pseudolocalizer.h'
p1955
sg15
(lp1956
sg17
(lp1957
sg19
(lp1958
sg21
I0
sbasg29
(lp1959
g1948
ag1955
asg21
I0
sg31
S'tools.aapt2.compile.Pseudolocalizer.ch'
p1960
sba(iArchitecture
Cluster
p1961
(dp1962
g7
(lp1963
(iArchitecture
Entity
p1964
(dp1965
g11
(lp1966
sg13
S'tools.aapt2.compile.XmlIdCollector.c'
p1967
sg15
(lp1968
sg17
(lp1969
sg19
(lp1970
sg21
I0
sba(iArchitecture
Entity
p1971
(dp1972
g11
(lp1973
sg13
S'tools.aapt2.compile.XmlIdCollector.h'
p1974
sg15
(lp1975
sg17
(lp1976
sg19
(lp1977
sg21
I0
sbasg29
(lp1978
g1967
ag1974
asg21
I0
sg31
S'tools.aapt2.compile.XmlIdCollector.ch'
p1979
sba(iArchitecture
Cluster
p1980
(dp1981
g7
(lp1982
(iArchitecture
Entity
p1983
(dp1984
g11
(lp1985
sg13
S'tools.aapt2.filter.ConfigFilter.c'
p1986
sg15
(lp1987
sg17
(lp1988
sg19
(lp1989
sg21
I0
sba(iArchitecture
Entity
p1990
(dp1991
g11
(lp1992
sg13
S'tools.aapt2.filter.ConfigFilter.h'
p1993
sg15
(lp1994
sg17
(lp1995
sg19
(lp1996
sg21
I0
sbasg29
(lp1997
g1986
ag1993
asg21
I0
sg31
S'tools.aapt2.filter.ConfigFilter.ch'
p1998
sba(iArchitecture
Cluster
p1999
(dp2000
g7
(lp2001
(iArchitecture
Entity
p2002
(dp2003
g11
(lp2004
sg13
S'tools.aapt2.flatten.Archive.c'
p2005
sg15
(lp2006
sg17
(lp2007
sg19
(lp2008
sg21
I0
sba(iArchitecture
Entity
p2009
(dp2010
g11
(lp2011
sg13
S'tools.aapt2.flatten.Archive.h'
p2012
sg15
(lp2013
sg17
(lp2014
sg19
(lp2015
sg21
I0
sbasg29
(lp2016
g2005
ag2012
asg21
I0
sg31
S'tools.aapt2.flatten.Archive.ch'
p2017
sba(iArchitecture
Cluster
p2018
(dp2019
g7
(lp2020
(iArchitecture
Entity
p2021
(dp2022
g11
(lp2023
sg13
S'tools.aapt2.flatten.TableFlattener.c'
p2024
sg15
(lp2025
sg17
(lp2026
sg19
(lp2027
sg21
I0
sba(iArchitecture
Entity
p2028
(dp2029
g11
(lp2030
sg13
S'tools.aapt2.flatten.TableFlattener.h'
p2031
sg15
(lp2032
sg17
(lp2033
sg19
(lp2034
sg21
I0
sbasg29
(lp2035
g2024
ag2031
asg21
I0
sg31
S'tools.aapt2.flatten.TableFlattener.ch'
p2036
sba(iArchitecture
Cluster
p2037
(dp2038
g7
(lp2039
(iArchitecture
Entity
p2040
(dp2041
g11
(lp2042
sg13
S'tools.aapt2.flatten.ChunkWriter.h'
p2043
sg15
(lp2044
sg17
(lp2045
sg19
(lp2046
sg21
I0
sba(iArchitecture
Entity
p2047
(dp2048
g11
(lp2049
sg13
S'tools.aapt2.flatten.ResourceTypeExtensions.h'
p2050
sg15
(lp2051
sg17
(lp2052
sg19
(lp2053
sg21
I0
sba(iArchitecture
Entity
p2054
(dp2055
g11
(lp2056
sg13
S'tools.aapt2.flatten.XmlFlattener.c'
p2057
sg15
(lp2058
sg17
(lp2059
sg19
(lp2060
sg21
I0
sba(iArchitecture
Entity
p2061
(dp2062
g11
(lp2063
sg13
S'tools.aapt2.flatten.XmlFlattener.h'
p2064
sg15
(lp2065
sg17
(lp2066
sg19
(lp2067
sg21
I0
sbasg29
(lp2068
g2043
ag2050
ag2057
ag2064
asg21
I0
sg31
S'tools.aapt2.flatten.XmlFlattener.ch'
p2069
sba(iArchitecture
Cluster
p2070
(dp2071
g7
(lp2072
(iArchitecture
Entity
p2073
(dp2074
g11
(lp2075
sg13
S'tools.aapt2.io.FileSystem.c'
p2076
sg15
(lp2077
sg17
(lp2078
sg19
(lp2079
sg21
I0
sba(iArchitecture
Entity
p2080
(dp2081
g11
(lp2082
sg13
S'tools.aapt2.io.FileSystem.h'
p2083
sg15
(lp2084
sg17
(lp2085
sg19
(lp2086
sg21
I0
sbasg29
(lp2087
g2076
ag2083
asg21
I0
sg31
S'tools.aapt2.io.FileSystem.ch'
p2088
sba(iArchitecture
Cluster
p2089
(dp2090
g7
(lp2091
(iArchitecture
Entity
p2092
(dp2093
g11
(lp2094
sg13
S'tools.aapt2.io.ZipArchive.c'
p2095
sg15
(lp2096
sg17
(lp2097
sg19
(lp2098
sg21
I0
sba(iArchitecture
Entity
p2099
(dp2100
g11
(lp2101
sg13
S'tools.aapt2.io.ZipArchive.h'
p2102
sg15
(lp2103
sg17
(lp2104
sg19
(lp2105
sg21
I0
sbasg29
(lp2106
g2095
ag2102
asg21
I0
sg31
S'tools.aapt2.io.ZipArchive.ch'
p2107
sba(iArchitecture
Cluster
p2108
(dp2109
g7
(lp2110
(iArchitecture
Entity
p2111
(dp2112
g11
(lp2113
sg13
S'tools.aapt2.java.AnnotationProcessor.c'
p2114
sg15
(lp2115
sg17
(lp2116
sg19
(lp2117
sg21
I0
sba(iArchitecture
Entity
p2118
(dp2119
g11
(lp2120
sg13
S'tools.aapt2.java.AnnotationProcessor.h'
p2121
sg15
(lp2122
sg17
(lp2123
sg19
(lp2124
sg21
I0
sbasg29
(lp2125
g2114
ag2121
asg21
I0
sg31
S'tools.aapt2.java.AnnotationProcessor.ch'
p2126
sba(iArchitecture
Cluster
p2127
(dp2128
g7
(lp2129
(iArchitecture
Entity
p2130
(dp2131
g11
(lp2132
sg13
S'tools.aapt2.java.ClassDefinition.c'
p2133
sg15
(lp2134
sg17
(lp2135
sg19
(lp2136
sg21
I0
sba(iArchitecture
Entity
p2137
(dp2138
g11
(lp2139
sg13
S'tools.aapt2.java.ClassDefinition.h'
p2140
sg15
(lp2141
sg17
(lp2142
sg19
(lp2143
sg21
I0
sbasg29
(lp2144
g2133
ag2140
asg21
I0
sg31
S'tools.aapt2.java.ClassDefinition.ch'
p2145
sba(iArchitecture
Cluster
p2146
(dp2147
g7
(lp2148
(iArchitecture
Entity
p2149
(dp2150
g11
(lp2151
sg13
S'tools.aapt2.java.JavaClassGenerator.c'
p2152
sg15
(lp2153
sg17
(lp2154
sg19
(lp2155
sg21
I0
sba(iArchitecture
Entity
p2156
(dp2157
g11
(lp2158
sg13
S'tools.aapt2.java.JavaClassGenerator.h'
p2159
sg15
(lp2160
sg17
(lp2161
sg19
(lp2162
sg21
I0
sbasg29
(lp2163
g2152
ag2159
asg21
I0
sg31
S'tools.aapt2.java.JavaClassGenerator.ch'
p2164
sba(iArchitecture
Cluster
p2165
(dp2166
g7
(lp2167
(iArchitecture
Entity
p2168
(dp2169
g11
(lp2170
sg13
S'tools.aapt2.java.ManifestClassGenerator.c'
p2171
sg15
(lp2172
sg17
(lp2173
sg19
(lp2174
sg21
I0
sba(iArchitecture
Entity
p2175
(dp2176
g11
(lp2177
sg13
S'tools.aapt2.java.ManifestClassGenerator.h'
p2178
sg15
(lp2179
sg17
(lp2180
sg19
(lp2181
sg21
I0
sbasg29
(lp2182
g2171
ag2178
asg21
I0
sg31
S'tools.aapt2.java.ManifestClassGenerator.ch'
p2183
sba(iArchitecture
Cluster
p2184
(dp2185
g7
(lp2186
(iArchitecture
Entity
p2187
(dp2188
g11
(lp2189
sg13
S'tools.aapt2.java.ProguardRules.c'
p2190
sg15
(lp2191
sg17
(lp2192
sg19
(lp2193
sg21
I0
sba(iArchitecture
Entity
p2194
(dp2195
g11
(lp2196
sg13
S'tools.aapt2.java.ProguardRules.h'
p2197
sg15
(lp2198
sg17
(lp2199
sg19
(lp2200
sg21
I0
sbasg29
(lp2201
g2190
ag2197
asg21
I0
sg31
S'tools.aapt2.java.ProguardRules.ch'
p2202
sba(iArchitecture
Cluster
p2203
(dp2204
g7
(lp2205
(iArchitecture
Entity
p2206
(dp2207
g11
(lp2208
sg13
S'tools.aapt2.AppInfo.h'
p2209
sg15
(lp2210
sg17
(lp2211
sg19
(lp2212
sg21
I0
sba(iArchitecture
Entity
p2213
(dp2214
g11
(lp2215
sg13
S'tools.aapt2.link.Link.c'
p2216
sg15
(lp2217
sg17
(lp2218
sg19
(lp2219
sg21
I0
sba(iArchitecture
Entity
p2220
(dp2221
g11
(lp2222
sg13
S'tools.aapt2.proto.ProtoHelpers.c'
p2223
sg15
(lp2224
sg17
(lp2225
sg19
(lp2226
sg21
I0
sba(iArchitecture
Entity
p2227
(dp2228
g11
(lp2229
sg13
S'tools.aapt2.proto.ProtoSerialize.h'
p2230
sg15
(lp2231
sg17
(lp2232
sg19
(lp2233
sg21
I0
sbasg29
(lp2234
g2209
ag2216
ag2223
ag2230
asg21
I0
sg31
S'tools.aapt2.link.Link.ss'
p2235
sba(iArchitecture
Cluster
p2236
(dp2237
g7
(lp2238
(iArchitecture
Entity
p2239
(dp2240
g11
(lp2241
sg13
S'tools.aapt2.link.ManifestFixer.c'
p2242
sg15
(lp2243
sg17
(lp2244
sg19
(lp2245
sg21
I0
sba(iArchitecture
Entity
p2246
(dp2247
g11
(lp2248
sg13
S'tools.aapt2.link.ManifestFixer.h'
p2249
sg15
(lp2250
sg17
(lp2251
sg19
(lp2252
sg21
I0
sbasg29
(lp2253
g2242
ag2249
asg21
I0
sg31
S'tools.aapt2.link.ManifestFixer.ch'
p2254
sba(iArchitecture
Cluster
p2255
(dp2256
g7
(lp2257
(iArchitecture
Entity
p2258
(dp2259
g11
(lp2260
sg13
S'tools.aapt2.link.ProductFilter.c'
p2261
sg15
(lp2262
sg17
(lp2263
sg19
(lp2264
sg21
I0
sba(iArchitecture
Entity
p2265
(dp2266
g11
(lp2267
sg13
S'tools.aapt2.link.ProductFilter.h'
p2268
sg15
(lp2269
sg17
(lp2270
sg19
(lp2271
sg21
I0
sbasg29
(lp2272
g2261
ag2268
asg21
I0
sg31
S'tools.aapt2.link.ProductFilter.ch'
p2273
sba(iArchitecture
Cluster
p2274
(dp2275
g7
(lp2276
(iArchitecture
Entity
p2277
(dp2278
g11
(lp2279
sg13
S'tools.aapt2.link.Linkers.h'
p2280
sg15
(lp2281
sg17
(lp2282
sg19
(lp2283
sg21
I0
sba(iArchitecture
Entity
p2284
(dp2285
g11
(lp2286
sg13
S'tools.aapt2.link.ReferenceLinker.c'
p2287
sg15
(lp2288
sg17
(lp2289
sg19
(lp2290
sg21
I0
sba(iArchitecture
Entity
p2291
(dp2292
g11
(lp2293
sg13
S'tools.aapt2.link.ReferenceLinker.h'
p2294
sg15
(lp2295
sg17
(lp2296
sg19
(lp2297
sg21
I0
sbasg29
(lp2298
g2280
ag2287
ag2294
asg21
I0
sg31
S'tools.aapt2.link.ReferenceLinker.ch'
p2299
sba(iArchitecture
Cluster
p2300
(dp2301
g7
(lp2302
(iArchitecture
Entity
p2303
(dp2304
g11
(lp2305
sg13
S'tools.aapt2.link.TableMerger.c'
p2306
sg15
(lp2307
sg17
(lp2308
sg19
(lp2309
sg21
I0
sba(iArchitecture
Entity
p2310
(dp2311
g11
(lp2312
sg13
S'tools.aapt2.link.TableMerger.h'
p2313
sg15
(lp2314
sg17
(lp2315
sg19
(lp2316
sg21
I0
sbasg29
(lp2317
g2306
ag2313
asg21
I0
sg31
S'tools.aapt2.link.TableMerger.ch'
p2318
sba(iArchitecture
Cluster
p2319
(dp2320
g7
(lp2321
(iArchitecture
Entity
p2322
(dp2323
g11
(lp2324
sg13
S'tools.aapt2.process.SymbolTable.c'
p2325
sg15
(lp2326
sg17
(lp2327
sg19
(lp2328
sg21
I0
sba(iArchitecture
Entity
p2329
(dp2330
g11
(lp2331
sg13
S'tools.aapt2.process.SymbolTable.h'
p2332
sg15
(lp2333
sg17
(lp2334
sg19
(lp2335
sg21
I0
sbasg29
(lp2336
g2325
ag2332
asg21
I0
sg31
S'tools.aapt2.process.SymbolTable.ch'
p2337
sba(iArchitecture
Cluster
p2338
(dp2339
g7
(lp2340
(iArchitecture
Entity
p2341
(dp2342
g11
(lp2343
sg13
S'tools.aapt2.split.TableSplitter.c'
p2344
sg15
(lp2345
sg17
(lp2346
sg19
(lp2347
sg21
I0
sba(iArchitecture
Entity
p2348
(dp2349
g11
(lp2350
sg13
S'tools.aapt2.split.TableSplitter.h'
p2351
sg15
(lp2352
sg17
(lp2353
sg19
(lp2354
sg21
I0
sbasg29
(lp2355
g2344
ag2351
asg21
I0
sg31
S'tools.aapt2.split.TableSplitter.ch'
p2356
sba(iArchitecture
Cluster
p2357
(dp2358
g7
(lp2359
(iArchitecture
Entity
p2360
(dp2361
g11
(lp2362
sg13
S'tools.aapt.Symbol.h'
p2363
sg15
(lp2364
sg17
(lp2365
sg19
(lp2366
sg21
I0
sba(iArchitecture
Entity
p2367
(dp2368
g11
(lp2369
sg13
S'tools.aapt2.ValueVisitor.h'
p2370
sg15
(lp2371
sg17
(lp2372
sg19
(lp2373
sg21
I0
sba(iArchitecture
Entity
p2374
(dp2375
g11
(lp2376
sg13
S'tools.aapt2.unflatten.BinaryResourceParser.c'
p2377
sg15
(lp2378
sg17
(lp2379
sg19
(lp2380
sg21
I0
sba(iArchitecture
Entity
p2381
(dp2382
g11
(lp2383
sg13
S'tools.aapt2.unflatten.BinaryResourceParser.h'
p2384
sg15
(lp2385
sg17
(lp2386
sg19
(lp2387
sg21
I0
sbasg29
(lp2388
g2363
ag2370
ag2377
ag2384
asg21
I0
sg31
S'tools.aapt2.unflatten.BinaryResourceParser.ch'
p2389
sba(iArchitecture
Cluster
p2390
(dp2391
g7
(lp2392
(iArchitecture
Entity
p2393
(dp2394
g11
(lp2395
sg13
S'tools.aapt2.unflatten.ResChunkPullParser.c'
p2396
sg15
(lp2397
sg17
(lp2398
sg19
(lp2399
sg21
I0
sba(iArchitecture
Entity
p2400
(dp2401
g11
(lp2402
sg13
S'tools.aapt2.unflatten.ResChunkPullParser.h'
p2403
sg15
(lp2404
sg17
(lp2405
sg19
(lp2406
sg21
I0
sbasg29
(lp2407
g2396
ag2403
asg21
I0
sg31
S'tools.aapt2.unflatten.ResChunkPullParser.ch'
p2408
sba(iArchitecture
Cluster
p2409
(dp2410
g7
(lp2411
(iArchitecture
Entity
p2412
(dp2413
g11
(lp2414
sg13
S'tools.aapt2.util.BigBuffer.c'
p2415
sg15
(lp2416
sg17
(lp2417
sg19
(lp2418
sg21
I0
sba(iArchitecture
Entity
p2419
(dp2420
g11
(lp2421
sg13
S'tools.aapt2.util.BigBuffer.h'
p2422
sg15
(lp2423
sg17
(lp2424
sg19
(lp2425
sg21
I0
sba(iArchitecture
Entity
p2426
(dp2427
g11
(lp2428
sg13
S'tools.aapt2.util.BigBuffer_test.c'
p2429
sg15
(lp2430
sg17
(lp2431
sg19
(lp2432
sg21
I0
sbasg29
(lp2433
g2415
ag2422
ag2429
asg21
I0
sg31
S'tools.aapt2.util.BigBuffer.ch'
p2434
sba(iArchitecture
Cluster
p2435
(dp2436
g7
(lp2437
(iArchitecture
Entity
p2438
(dp2439
g11
(lp2440
sg13
S'tools.aapt2.util.Files.c'
p2441
sg15
(lp2442
sg17
(lp2443
sg19
(lp2444
sg21
I0
sba(iArchitecture
Entity
p2445
(dp2446
g11
(lp2447
sg13
S'tools.aapt2.util.Files.h'
p2448
sg15
(lp2449
sg17
(lp2450
sg19
(lp2451
sg21
I0
sbasg29
(lp2452
g2441
ag2448
asg21
I0
sg31
S'tools.aapt2.util.Files.ch'
p2453
sba(iArchitecture
Cluster
p2454
(dp2455
g7
(lp2456
(iArchitecture
Entity
p2457
(dp2458
g11
(lp2459
sg13
S'tools.aapt2.util.Util.c'
p2460
sg15
(lp2461
sg17
(lp2462
sg19
(lp2463
sg21
I0
sba(iArchitecture
Entity
p2464
(dp2465
g11
(lp2466
sg13
S'tools.aapt2.util.Util.h'
p2467
sg15
(lp2468
sg17
(lp2469
sg19
(lp2470
sg21
I0
sbasg29
(lp2471
g2460
ag2467
asg21
I0
sg31
S'tools.aapt2.util.Util.ch'
p2472
sba(iArchitecture
Cluster
p2473
(dp2474
g7
(lp2475
(iArchitecture
Entity
p2476
(dp2477
g11
(lp2478
sg13
S'tools.aapt2.xml.XmlActionExecutor.c'
p2479
sg15
(lp2480
sg17
(lp2481
sg19
(lp2482
sg21
I0
sba(iArchitecture
Entity
p2483
(dp2484
g11
(lp2485
sg13
S'tools.aapt2.xml.XmlActionExecutor.h'
p2486
sg15
(lp2487
sg17
(lp2488
sg19
(lp2489
sg21
I0
sbasg29
(lp2490
g2479
ag2486
asg21
I0
sg31
S'tools.aapt2.xml.XmlActionExecutor.ch'
p2491
sba(iArchitecture
Cluster
p2492
(dp2493
g7
(lp2494
(iArchitecture
Entity
p2495
(dp2496
g11
(lp2497
sg13
S'tools.aapt2.xml.XmlDom.c'
p2498
sg15
(lp2499
sg17
(lp2500
sg19
(lp2501
sg21
I0
sba(iArchitecture
Entity
p2502
(dp2503
g11
(lp2504
sg13
S'tools.aapt2.xml.XmlDom.h'
p2505
sg15
(lp2506
sg17
(lp2507
sg19
(lp2508
sg21
I0
sbasg29
(lp2509
g2498
ag2505
asg21
I0
sg31
S'tools.aapt2.xml.XmlDom.ch'
p2510
sba(iArchitecture
Cluster
p2511
(dp2512
g7
(lp2513
(iArchitecture
Entity
p2514
(dp2515
g11
(lp2516
sg13
S'tools.aapt2.NameMangler.h'
p2517
sg15
(lp2518
sg17
(lp2519
sg19
(lp2520
sg21
I0
sba(iArchitecture
Entity
p2521
(dp2522
g11
(lp2523
sg13
S'tools.aapt2.process.IResourceTableConsumer.h'
p2524
sg15
(lp2525
sg17
(lp2526
sg19
(lp2527
sg21
I0
sba(iArchitecture
Entity
p2528
(dp2529
g11
(lp2530
sg13
S'tools.aapt2.xml.XmlPullParser.c'
p2531
sg15
(lp2532
sg17
(lp2533
sg19
(lp2534
sg21
I0
sba(iArchitecture
Entity
p2535
(dp2536
g11
(lp2537
sg13
S'tools.aapt2.xml.XmlPullParser.h'
p2538
sg15
(lp2539
sg17
(lp2540
sg19
(lp2541
sg21
I0
sbasg29
(lp2542
g2517
ag2524
ag2531
ag2538
asg21
I0
sg31
S'tools.aapt2.xml.XmlPullParser.ch'
p2543
sba(iArchitecture
Cluster
p2544
(dp2545
g7
(lp2546
(iArchitecture
Entity
p2547
(dp2548
g11
(lp2549
sg13
S'tools.aapt.Bundle.h'
p2550
sg15
(lp2551
sg17
(lp2552
sg19
(lp2553
sg21
I0
sba(iArchitecture
Entity
p2554
(dp2555
g11
(lp2556
sg13
S'tools.aapt.Command.c'
p2557
sg15
(lp2558
sg17
(lp2559
sg19
(lp2560
sg21
I0
sba(iArchitecture
Entity
p2561
(dp2562
g11
(lp2563
sg13
S'tools.aapt.OutputSet.h'
p2564
sg15
(lp2565
sg17
(lp2566
sg19
(lp2567
sg21
I0
sba(iArchitecture
Entity
p2568
(dp2569
g11
(lp2570
sg13
S'tools.aapt.Package.c'
p2571
sg15
(lp2572
sg17
(lp2573
sg19
(lp2574
sg21
I0
sba(iArchitecture
Entity
p2575
(dp2576
g11
(lp2577
sg13
S'tools.aapt.tests.Pseudolocales_test.c'
p2578
sg15
(lp2579
sg17
(lp2580
sg19
(lp2581
sg21
I0
sba(iArchitecture
Entity
p2582
(dp2583
g11
(lp2584
sg13
S'tools.aapt.tests.ResourceTable_test.c'
p2585
sg15
(lp2586
sg17
(lp2587
sg19
(lp2588
sg21
I0
sba(iArchitecture
Entity
p2589
(dp2590
g11
(lp2591
sg13
S'tools.aapt.tests.TestHelper.h'
p2592
sg15
(lp2593
sg17
(lp2594
sg19
(lp2595
sg21
I0
sba(iArchitecture
Entity
p2596
(dp2597
g11
(lp2598
sg13
S'tools.aapt2.Debug.c'
p2599
sg15
(lp2600
sg17
(lp2601
sg19
(lp2602
sg21
I0
sba(iArchitecture
Entity
p2603
(dp2604
g11
(lp2605
sg13
S'tools.aapt2.Diagnostics.h'
p2606
sg15
(lp2607
sg17
(lp2608
sg19
(lp2609
sg21
I0
sba(iArchitecture
Entity
p2610
(dp2611
g11
(lp2612
sg13
S'tools.aapt2.ResourceParser_test.c'
p2613
sg15
(lp2614
sg17
(lp2615
sg19
(lp2616
sg21
I0
sba(iArchitecture
Entity
p2617
(dp2618
g11
(lp2619
sg13
S'tools.aapt2.ResourceTable.c'
p2620
sg15
(lp2621
sg17
(lp2622
sg19
(lp2623
sg21
I0
sba(iArchitecture
Entity
p2624
(dp2625
g11
(lp2626
sg13
S'tools.aapt2.ResourceTable_test.c'
p2627
sg15
(lp2628
sg17
(lp2629
sg19
(lp2630
sg21
I0
sba(iArchitecture
Entity
p2631
(dp2632
g11
(lp2633
sg13
S'tools.aapt2.ResourceUtils_test.c'
p2634
sg15
(lp2635
sg17
(lp2636
sg19
(lp2637
sg21
I0
sba(iArchitecture
Entity
p2638
(dp2639
g11
(lp2640
sg13
S'tools.aapt2.Source.h'
p2641
sg15
(lp2642
sg17
(lp2643
sg19
(lp2644
sg21
I0
sba(iArchitecture
Entity
p2645
(dp2646
g11
(lp2647
sg13
S'tools.aapt2.StringPool.c'
p2648
sg15
(lp2649
sg17
(lp2650
sg19
(lp2651
sg21
I0
sba(iArchitecture
Entity
p2652
(dp2653
g11
(lp2654
sg13
S'tools.aapt2.StringPool_test.c'
p2655
sg15
(lp2656
sg17
(lp2657
sg19
(lp2658
sg21
I0
sba(iArchitecture
Entity
p2659
(dp2660
g11
(lp2661
sg13
S'tools.aapt2.ValueVisitor_test.c'
p2662
sg15
(lp2663
sg17
(lp2664
sg19
(lp2665
sg21
I0
sba(iArchitecture
Entity
p2666
(dp2667
g11
(lp2668
sg13
S'tools.aapt2.compile.Compile.c'
p2669
sg15
(lp2670
sg17
(lp2671
sg19
(lp2672
sg21
I0
sba(iArchitecture
Entity
p2673
(dp2674
g11
(lp2675
sg13
S'tools.aapt2.compile.IdAssigner_test.c'
p2676
sg15
(lp2677
sg17
(lp2678
sg19
(lp2679
sg21
I0
sba(iArchitecture
Entity
p2680
(dp2681
g11
(lp2682
sg13
S'tools.aapt2.compile.PseudolocaleGenerator_test.c'
p2683
sg15
(lp2684
sg17
(lp2685
sg19
(lp2686
sg21
I0
sba(iArchitecture
Entity
p2687
(dp2688
g11
(lp2689
sg13
S'tools.aapt2.compile.Pseudolocalizer_test.c'
p2690
sg15
(lp2691
sg17
(lp2692
sg19
(lp2693
sg21
I0
sba(iArchitecture
Entity
p2694
(dp2695
g11
(lp2696
sg13
S'tools.aapt2.compile.XmlIdCollector_test.c'
p2697
sg15
(lp2698
sg17
(lp2699
sg19
(lp2700
sg21
I0
sba(iArchitecture
Entity
p2701
(dp2702
g11
(lp2703
sg13
S'tools.aapt2.dump.Dump.c'
p2704
sg15
(lp2705
sg17
(lp2706
sg19
(lp2707
sg21
I0
sba(iArchitecture
Entity
p2708
(dp2709
g11
(lp2710
sg13
S'tools.aapt2.filter.ConfigFilter_test.c'
p2711
sg15
(lp2712
sg17
(lp2713
sg19
(lp2714
sg21
I0
sba(iArchitecture
Entity
p2715
(dp2716
g11
(lp2717
sg13
S'tools.aapt2.flatten.TableFlattener_test.c'
p2718
sg15
(lp2719
sg17
(lp2720
sg19
(lp2721
sg21
I0
sba(iArchitecture
Entity
p2722
(dp2723
g11
(lp2724
sg13
S'tools.aapt2.flatten.XmlFlattener_test.c'
p2725
sg15
(lp2726
sg17
(lp2727
sg19
(lp2728
sg21
I0
sba(iArchitecture
Entity
p2729
(dp2730
g11
(lp2731
sg13
S'tools.aapt2.io.Data.h'
p2732
sg15
(lp2733
sg17
(lp2734
sg19
(lp2735
sg21
I0
sba(iArchitecture
Entity
p2736
(dp2737
g11
(lp2738
sg13
S'tools.aapt2.io.File.h'
p2739
sg15
(lp2740
sg17
(lp2741
sg19
(lp2742
sg21
I0
sba(iArchitecture
Entity
p2743
(dp2744
g11
(lp2745
sg13
S'tools.aapt2.java.AnnotationProcessor_test.c'
p2746
sg15
(lp2747
sg17
(lp2748
sg19
(lp2749
sg21
I0
sba(iArchitecture
Entity
p2750
(dp2751
g11
(lp2752
sg13
S'tools.aapt2.java.JavaClassGenerator_test.c'
p2753
sg15
(lp2754
sg17
(lp2755
sg19
(lp2756
sg21
I0
sba(iArchitecture
Entity
p2757
(dp2758
g11
(lp2759
sg13
S'tools.aapt2.java.ManifestClassGenerator_test.c'
p2760
sg15
(lp2761
sg17
(lp2762
sg19
(lp2763
sg21
I0
sba(iArchitecture
Entity
p2764
(dp2765
g11
(lp2766
sg13
S'tools.aapt2.link.AutoVersioner.c'
p2767
sg15
(lp2768
sg17
(lp2769
sg19
(lp2770
sg21
I0
sba(iArchitecture
Entity
p2771
(dp2772
g11
(lp2773
sg13
S'tools.aapt2.link.AutoVersioner_test.c'
p2774
sg15
(lp2775
sg17
(lp2776
sg19
(lp2777
sg21
I0
sba(iArchitecture
Entity
p2778
(dp2779
g11
(lp2780
sg13
S'tools.aapt2.link.ManifestFixer_test.c'
p2781
sg15
(lp2782
sg17
(lp2783
sg19
(lp2784
sg21
I0
sba(iArchitecture
Entity
p2785
(dp2786
g11
(lp2787
sg13
S'tools.aapt2.link.PrivateAttributeMover.c'
p2788
sg15
(lp2789
sg17
(lp2790
sg19
(lp2791
sg21
I0
sba(iArchitecture
Entity
p2792
(dp2793
g11
(lp2794
sg13
S'tools.aapt2.link.PrivateAttributeMover_test.c'
p2795
sg15
(lp2796
sg17
(lp2797
sg19
(lp2798
sg21
I0
sba(iArchitecture
Entity
p2799
(dp2800
g11
(lp2801
sg13
S'tools.aapt2.link.ProductFilter_test.c'
p2802
sg15
(lp2803
sg17
(lp2804
sg19
(lp2805
sg21
I0
sba(iArchitecture
Entity
p2806
(dp2807
g11
(lp2808
sg13
S'tools.aapt2.link.ReferenceLinker_test.c'
p2809
sg15
(lp2810
sg17
(lp2811
sg19
(lp2812
sg21
I0
sba(iArchitecture
Entity
p2813
(dp2814
g11
(lp2815
sg13
S'tools.aapt2.link.TableMerger_test.c'
p2816
sg15
(lp2817
sg17
(lp2818
sg19
(lp2819
sg21
I0
sba(iArchitecture
Entity
p2820
(dp2821
g11
(lp2822
sg13
S'tools.aapt2.link.XmlReferenceLinker.c'
p2823
sg15
(lp2824
sg17
(lp2825
sg19
(lp2826
sg21
I0
sba(iArchitecture
Entity
p2827
(dp2828
g11
(lp2829
sg13
S'tools.aapt2.link.XmlReferenceLinker_test.c'
p2830
sg15
(lp2831
sg17
(lp2832
sg19
(lp2833
sg21
I0
sba(iArchitecture
Entity
p2834
(dp2835
g11
(lp2836
sg13
S'tools.aapt2.process.SymbolTable_test.c'
p2837
sg15
(lp2838
sg17
(lp2839
sg19
(lp2840
sg21
I0
sba(iArchitecture
Entity
p2841
(dp2842
g11
(lp2843
sg13
S'tools.aapt2.proto.TableProtoDeserializer.c'
p2844
sg15
(lp2845
sg17
(lp2846
sg19
(lp2847
sg21
I0
sba(iArchitecture
Entity
p2848
(dp2849
g11
(lp2850
sg13
S'tools.aapt2.proto.TableProtoSerializer.c'
p2851
sg15
(lp2852
sg17
(lp2853
sg19
(lp2854
sg21
I0
sba(iArchitecture
Entity
p2855
(dp2856
g11
(lp2857
sg13
S'tools.aapt2.proto.TableProtoSerializer_test.c'
p2858
sg15
(lp2859
sg17
(lp2860
sg19
(lp2861
sg21
I0
sba(iArchitecture
Entity
p2862
(dp2863
g11
(lp2864
sg13
S'tools.aapt2.split.TableSplitter_test.c'
p2865
sg15
(lp2866
sg17
(lp2867
sg19
(lp2868
sg21
I0
sba(iArchitecture
Entity
p2869
(dp2870
g11
(lp2871
sg13
S'tools.aapt2.test.Builders.h'
p2872
sg15
(lp2873
sg17
(lp2874
sg19
(lp2875
sg21
I0
sba(iArchitecture
Entity
p2876
(dp2877
g11
(lp2878
sg13
S'tools.aapt2.test.Common.h'
p2879
sg15
(lp2880
sg17
(lp2881
sg19
(lp2882
sg21
I0
sba(iArchitecture
Entity
p2883
(dp2884
g11
(lp2885
sg13
S'tools.aapt2.test.Context.h'
p2886
sg15
(lp2887
sg17
(lp2888
sg19
(lp2889
sg21
I0
sba(iArchitecture
Entity
p2890
(dp2891
g11
(lp2892
sg13
S'tools.aapt2.test.Test.h'
p2893
sg15
(lp2894
sg17
(lp2895
sg19
(lp2896
sg21
I0
sba(iArchitecture
Entity
p2897
(dp2898
g11
(lp2899
sg13
S'tools.aapt2.util.Files_test.c'
p2900
sg15
(lp2901
sg17
(lp2902
sg19
(lp2903
sg21
I0
sba(iArchitecture
Entity
p2904
(dp2905
g11
(lp2906
sg13
S'tools.aapt2.util.Maybe.h'
p2907
sg15
(lp2908
sg17
(lp2909
sg19
(lp2910
sg21
I0
sba(iArchitecture
Entity
p2911
(dp2912
g11
(lp2913
sg13
S'tools.aapt2.util.Maybe_test.c'
p2914
sg15
(lp2915
sg17
(lp2916
sg19
(lp2917
sg21
I0
sba(iArchitecture
Entity
p2918
(dp2919
g11
(lp2920
sg13
S'tools.aapt2.util.StringPiece.h'
p2921
sg15
(lp2922
sg17
(lp2923
sg19
(lp2924
sg21
I0
sba(iArchitecture
Entity
p2925
(dp2926
g11
(lp2927
sg13
S'tools.aapt2.util.StringPiece_test.c'
p2928
sg15
(lp2929
sg17
(lp2930
sg19
(lp2931
sg21
I0
sba(iArchitecture
Entity
p2932
(dp2933
g11
(lp2934
sg13
S'tools.aapt2.util.TypeTraits.h'
p2935
sg15
(lp2936
sg17
(lp2937
sg19
(lp2938
sg21
I0
sba(iArchitecture
Entity
p2939
(dp2940
g11
(lp2941
sg13
S'tools.aapt2.util.Util_test.c'
p2942
sg15
(lp2943
sg17
(lp2944
sg19
(lp2945
sg21
I0
sba(iArchitecture
Entity
p2946
(dp2947
g11
(lp2948
sg13
S'tools.aapt2.xml.XmlActionExecutor_test.c'
p2949
sg15
(lp2950
sg17
(lp2951
sg19
(lp2952
sg21
I0
sba(iArchitecture
Entity
p2953
(dp2954
g11
(lp2955
sg13
S'tools.aapt2.xml.XmlDom_test.c'
p2956
sg15
(lp2957
sg17
(lp2958
sg19
(lp2959
sg21
I0
sba(iArchitecture
Entity
p2960
(dp2961
g11
(lp2962
sg13
S'tools.aapt2.xml.XmlPullParser_test.c'
p2963
sg15
(lp2964
sg17
(lp2965
sg19
(lp2966
sg21
I0
sba(iArchitecture
Entity
p2967
(dp2968
g11
(lp2969
sg13
S'tools.aapt2.xml.XmlUtil.c'
p2970
sg15
(lp2971
sg17
(lp2972
sg19
(lp2973
sg21
I0
sba(iArchitecture
Entity
p2974
(dp2975
g11
(lp2976
sg13
S'tools.aapt2.xml.XmlUtil.h'
p2977
sg15
(lp2978
sg17
(lp2979
sg19
(lp2980
sg21
I0
sba(iArchitecture
Entity
p2981
(dp2982
g11
(lp2983
sg13
S'tools.aapt2.xml.XmlUtil_test.c'
p2984
sg15
(lp2985
sg17
(lp2986
sg19
(lp2987
sg21
I0
sbasg29
(lp2988
g2550
ag2557
ag2564
ag2571
ag2578
ag2585
ag2592
ag2599
ag2606
ag2613
ag2620
ag2627
ag2634
ag2641
ag2648
ag2655
ag2662
ag2669
ag2676
ag2683
ag2690
ag2697
ag2704
ag2711
ag2718
ag2725
ag2732
ag2739
ag2746
ag2753
ag2760
ag2767
ag2774
ag2781
ag2788
ag2795
ag2802
ag2809
ag2816
ag2823
ag2830
ag2837
ag2844
ag2851
ag2858
ag2865
ag2872
ag2879
ag2886
ag2893
ag2900
ag2907
ag2914
ag2921
ag2928
ag2935
ag2942
ag2949
ag2956
ag2963
ag2970
ag2977
ag2984
asg21
I0
sg31
S'tools.aapt2.xml.XmlUtil.ch'
p2989
sba(iArchitecture
Cluster
p2990
(dp2991
g7
(lp2992
(iArchitecture
Entity
p2993
(dp2994
g11
(lp2995
sg13
S'tools.aapt.SdkConstants.h'
p2996
sg15
(lp2997
sg17
(lp2998
sg19
(lp2999
sg21
I0
sba(iArchitecture
Entity
p3000
(dp3001
g11
(lp3002
sg13
S'tools.aapt2.SdkConstants.c'
p3003
sg15
(lp3004
sg17
(lp3005
sg19
(lp3006
sg21
I0
sba(iArchitecture
Entity
p3007
(dp3008
g11
(lp3009
sg13
S'tools.aapt2.SdkConstants_test.c'
p3010
sg15
(lp3011
sg17
(lp3012
sg19
(lp3013
sg21
I0
sbasg29
(lp3014
g2996
ag3003
ag3010
asg21
I0
sg31
S'tools.split-select.RuleGenerator.ch'
p3015
sba(iArchitecture
Cluster
p3016
(dp3017
g7
(lp3018
(iArchitecture
Entity
p3019
(dp3020
g11
(lp3021
sg13
S'tools.aapt.ConfigDescription.h'
p3022
sg15
(lp3023
sg17
(lp3024
sg19
(lp3025
sg21
I0
sba(iArchitecture
Entity
p3026
(dp3027
g11
(lp3028
sg13
S'tools.aapt.tests.AaptConfig_test.c'
p3029
sg15
(lp3030
sg17
(lp3031
sg19
(lp3032
sg21
I0
sba(iArchitecture
Entity
p3033
(dp3034
g11
(lp3035
sg13
S'tools.aapt.tests.AaptGroupEntry_test.c'
p3036
sg15
(lp3037
sg17
(lp3038
sg19
(lp3039
sg21
I0
sba(iArchitecture
Entity
p3040
(dp3041
g11
(lp3042
sg13
S'tools.aapt.tests.ResourceFilter_test.c'
p3043
sg15
(lp3044
sg17
(lp3045
sg19
(lp3046
sg21
I0
sba(iArchitecture
Entity
p3047
(dp3048
g11
(lp3049
sg13
S'tools.aapt2.ConfigDescription.c'
p3050
sg15
(lp3051
sg17
(lp3052
sg19
(lp3053
sg21
I0
sba(iArchitecture
Entity
p3054
(dp3055
g11
(lp3056
sg13
S'tools.aapt2.ConfigDescription_test.c'
p3057
sg15
(lp3058
sg17
(lp3059
sg19
(lp3060
sg21
I0
sba(iArchitecture
Entity
p3061
(dp3062
g11
(lp3063
sg13
S'tools.aapt2.Locale_test.c'
p3064
sg15
(lp3065
sg17
(lp3066
sg19
(lp3067
sg21
I0
sba(iArchitecture
Entity
p3068
(dp3069
g11
(lp3070
sg13
S'tools.aapt2.Main.c'
p3071
sg15
(lp3072
sg17
(lp3073
sg19
(lp3074
sg21
I0
sba(iArchitecture
Entity
p3075
(dp3076
g11
(lp3077
sg13
S'tools.aapt2.NameMangler_test.c'
p3078
sg15
(lp3079
sg17
(lp3080
sg19
(lp3081
sg21
I0
sba(iArchitecture
Entity
p3082
(dp3083
g11
(lp3084
sg13
S'tools.aapt2.Resource_test.c'
p3085
sg15
(lp3086
sg17
(lp3087
sg19
(lp3088
sg21
I0
sbasg29
(lp3089
g3022
ag3029
ag3036
ag3043
ag3050
ag3057
ag3064
ag3071
ag3078
ag3085
asg21
I0
sg31
S'tools.split-select.TestRules.ch'
p3090
sbasg1317
g1318
sg29
(lp3091
sg1320
I00
sg31
S'7.0.0_r1'
p3092
sba.