(lp0
(iArchitecture
Architecture
p1
(dp2
S'clusters'
p3
(lp4
(iArchitecture
Cluster
p5
(dp6
S'entities'
p7
(lp8
(iArchitecture
Entity
p9
(dp10
S'issue_ids'
p11
(lp12
sS'name'
p13
S'media.jni.android_media_MediaCodec.c'
p14
sS'descs'
p15
(lp16
sS'labels'
p17
(lp18
sS'titles'
p19
(lp20
sS'change'
p21
I0
sba(iArchitecture
Entity
p22
(dp23
g11
(lp24
sg13
S'media.jni.android_media_MediaCodec.h'
p25
sg15
(lp26
sg17
(lp27
sg19
(lp28
sg21
I0
sbasS'classes'
p29
(lp30
g14
ag25
asg21
I0
sS'label'
p31
S'media.jni.android_media_MediaCodec.ch'
p32
sba(iArchitecture
Cluster
p33
(dp34
g7
(lp35
(iArchitecture
Entity
p36
(dp37
g11
(lp38
sg13
S'media.jni.android_media_MediaCrypto.c'
p39
sg15
(lp40
sg17
(lp41
sg19
(lp42
sg21
I0
sba(iArchitecture
Entity
p43
(dp44
g11
(lp45
sg13
S'media.jni.android_media_MediaCrypto.h'
p46
sg15
(lp47
sg17
(lp48
sg19
(lp49
sg21
I0
sbasg29
(lp50
g39
ag46
asg21
I0
sg31
S'media.jni.android_media_MediaCrypto.ch'
p51
sba(iArchitecture
Cluster
p52
(dp53
g7
(lp54
(iArchitecture
Entity
p55
(dp56
g11
(lp57
sg13
S'media.jni.android_media_MediaDataSource.c'
p58
sg15
(lp59
sg17
(lp60
sg19
(lp61
sg21
I0
sba(iArchitecture
Entity
p62
(dp63
g11
(lp64
sg13
S'media.jni.android_media_MediaDataSource.h'
p65
sg15
(lp66
sg17
(lp67
sg19
(lp68
sg21
I0
sbasg29
(lp69
g58
ag65
asg21
I0
sg31
S'media.jni.android_media_MediaDataSource.ch'
p70
sba(iArchitecture
Cluster
p71
(dp72
g7
(lp73
(iArchitecture
Entity
p74
(dp75
g11
(lp76
sg13
S'media.jni.android_media_MediaDrm.c'
p77
sg15
(lp78
sg17
(lp79
sg19
(lp80
sg21
I0
sba(iArchitecture
Entity
p81
(dp82
g11
(lp83
sg13
S'media.jni.android_media_MediaDrm.h'
p84
sg15
(lp85
sg17
(lp86
sg19
(lp87
sg21
I0
sbasg29
(lp88
g77
ag84
asg21
I0
sg31
S'media.jni.android_media_MediaDrm.ch'
p89
sba(iArchitecture
Cluster
p90
(dp91
g7
(lp92
(iArchitecture
Entity
p93
(dp94
g11
(lp95
sg13
S'media.jni.android_media_MediaExtractor.c'
p96
sg15
(lp97
sg17
(lp98
sg19
(lp99
sg21
I0
sba(iArchitecture
Entity
p100
(dp101
g11
(lp102
sg13
S'media.jni.android_media_MediaExtractor.h'
p103
sg15
(lp104
sg17
(lp105
sg19
(lp106
sg21
I0
sbasg29
(lp107
g96
ag103
asg21
I0
sg31
S'media.jni.android_media_MediaExtractor.ch'
p108
sba(iArchitecture
Cluster
p109
(dp110
g7
(lp111
(iArchitecture
Entity
p112
(dp113
g11
(lp114
sg13
S'media.jni.android_media_MediaHTTPConnection.c'
p115
sg15
(lp116
sg17
(lp117
sg19
(lp118
sg21
I0
sba(iArchitecture
Entity
p119
(dp120
g11
(lp121
sg13
S'media.jni.android_media_MediaHTTPConnection.h'
p122
sg15
(lp123
sg17
(lp124
sg19
(lp125
sg21
I0
sbasg29
(lp126
g115
ag122
asg21
I0
sg31
S'media.jni.android_media_MediaHTTPConnection.ch'
p127
sba(iArchitecture
Cluster
p128
(dp129
g7
(lp130
(iArchitecture
Entity
p131
(dp132
g11
(lp133
sg13
S'media.jni.android_media_MediaPlayer.c'
p134
sg15
(lp135
sg17
(lp136
sg19
(lp137
sg21
I0
sba(iArchitecture
Entity
p138
(dp139
g11
(lp140
sg13
S'media.jni.android_media_PlaybackParams.h'
p141
sg15
(lp142
sg17
(lp143
sg19
(lp144
sg21
I0
sbasg29
(lp145
g134
ag141
asg21
I0
sg31
S'media.jni.android_media_MediaPlayer.ss'
p146
sba(iArchitecture
Cluster
p147
(dp148
g7
(lp149
(iArchitecture
Entity
p150
(dp151
g11
(lp152
sg13
S'media.jni.android_media_MediaSync.c'
p153
sg15
(lp154
sg17
(lp155
sg19
(lp156
sg21
I0
sba(iArchitecture
Entity
p157
(dp158
g11
(lp159
sg13
S'media.jni.android_media_MediaSync.h'
p160
sg15
(lp161
sg17
(lp162
sg19
(lp163
sg21
I0
sbasg29
(lp164
g153
ag160
asg21
I0
sg31
S'media.jni.android_media_MediaSync.ch'
p165
sba(iArchitecture
Cluster
p166
(dp167
g7
(lp168
(iArchitecture
Entity
p169
(dp170
g11
(lp171
sg13
S'media.jni.android_media_SyncParams.c'
p172
sg15
(lp173
sg17
(lp174
sg19
(lp175
sg21
I0
sba(iArchitecture
Entity
p176
(dp177
g11
(lp178
sg13
S'media.jni.android_media_SyncParams.h'
p179
sg15
(lp180
sg17
(lp181
sg19
(lp182
sg21
I0
sbasg29
(lp183
g172
ag179
asg21
I0
sg31
S'media.jni.android_media_SyncParams.ch'
p184
sba(iArchitecture
Cluster
p185
(dp186
g7
(lp187
(iArchitecture
Entity
p188
(dp189
g11
(lp190
sg13
S'media.jni.android_media_Utils.c'
p191
sg15
(lp192
sg17
(lp193
sg19
(lp194
sg21
I0
sba(iArchitecture
Entity
p195
(dp196
g11
(lp197
sg13
S'media.jni.android_media_Utils.h'
p198
sg15
(lp199
sg17
(lp200
sg19
(lp201
sg21
I0
sbasg29
(lp202
g191
ag198
asg21
I0
sg31
S'media.jni.android_media_Utils.ch'
p203
sba(iArchitecture
Cluster
p204
(dp205
g7
(lp206
(iArchitecture
Entity
p207
(dp208
g11
(lp209
sg13
S'media.jni.soundpool.SoundPool.c'
p210
sg15
(lp211
sg17
(lp212
sg19
(lp213
sg21
I0
sba(iArchitecture
Entity
p214
(dp215
g11
(lp216
sg13
S'media.jni.soundpool.SoundPool.h'
p217
sg15
(lp218
sg17
(lp219
sg19
(lp220
sg21
I0
sbasg29
(lp221
g210
ag217
asg21
I0
sg31
S'media.jni.soundpool.SoundPool.ch'
p222
sba(iArchitecture
Cluster
p223
(dp224
g7
(lp225
(iArchitecture
Entity
p226
(dp227
g11
(lp228
sg13
S'media.jni.soundpool.SoundPoolThread.c'
p229
sg15
(lp230
sg17
(lp231
sg19
(lp232
sg21
I0
sba(iArchitecture
Entity
p233
(dp234
g11
(lp235
sg13
S'media.jni.soundpool.SoundPoolThread.h'
p236
sg15
(lp237
sg17
(lp238
sg19
(lp239
sg21
I0
sbasg29
(lp240
g229
ag236
asg21
I0
sg31
S'media.jni.soundpool.SoundPoolThread.ch'
p241
sba(iArchitecture
Cluster
p242
(dp243
g7
(lp244
(iArchitecture
Entity
p245
(dp246
g11
(lp247
sg13
S'media.jni.android_media_MediaMetadataRetriever.c'
p248
sg15
(lp249
sg17
(lp250
sg19
(lp251
sg21
I0
sbasg29
(lp252
g248
asg21
I0
sg31
S'tools.aapt2.Util.ch'
p253
sba(iArchitecture
Cluster
p254
(dp255
g7
(lp256
(iArchitecture
Entity
p257
(dp258
g11
(lp259
sg13
S'media.jni.android_media_AmrInputStream.c'
p260
sg15
(lp261
sg17
(lp262
sg19
(lp263
sg21
I0
sba(iArchitecture
Entity
p264
(dp265
g11
(lp266
sg13
S'media.jni.android_media_ImageReader.c'
p267
sg15
(lp268
sg17
(lp269
sg19
(lp270
sg21
I0
sba(iArchitecture
Entity
p271
(dp272
g11
(lp273
sg13
S'media.jni.android_media_ImageWriter.c'
p274
sg15
(lp275
sg17
(lp276
sg19
(lp277
sg21
I0
sba(iArchitecture
Entity
p278
(dp279
g11
(lp280
sg13
S'media.jni.android_media_MediaCodecList.c'
p281
sg15
(lp282
sg17
(lp283
sg19
(lp284
sg21
I0
sba(iArchitecture
Entity
p285
(dp286
g11
(lp287
sg13
S'media.jni.android_media_MediaMuxer.c'
p288
sg15
(lp289
sg17
(lp290
sg19
(lp291
sg21
I0
sba(iArchitecture
Entity
p292
(dp293
g11
(lp294
sg13
S'media.jni.android_media_MediaProfiles.c'
p295
sg15
(lp296
sg17
(lp297
sg19
(lp298
sg21
I0
sba(iArchitecture
Entity
p299
(dp300
g11
(lp301
sg13
S'media.jni.android_media_MediaRecorder.c'
p302
sg15
(lp303
sg17
(lp304
sg19
(lp305
sg21
I0
sba(iArchitecture
Entity
p306
(dp307
g11
(lp308
sg13
S'media.jni.android_media_MediaScanner.c'
p309
sg15
(lp310
sg17
(lp311
sg19
(lp312
sg21
I0
sba(iArchitecture
Entity
p313
(dp314
g11
(lp315
sg13
S'media.jni.android_media_ResampleInputStream.c'
p316
sg15
(lp317
sg17
(lp318
sg19
(lp319
sg21
I0
sba(iArchitecture
Entity
p320
(dp321
g11
(lp322
sg13
S'media.jni.android_mtp_MtpDatabase.c'
p323
sg15
(lp324
sg17
(lp325
sg19
(lp326
sg21
I0
sba(iArchitecture
Entity
p327
(dp328
g11
(lp329
sg13
S'media.jni.android_mtp_MtpDevice.c'
p330
sg15
(lp331
sg17
(lp332
sg19
(lp333
sg21
I0
sba(iArchitecture
Entity
p334
(dp335
g11
(lp336
sg13
S'media.jni.android_mtp_MtpServer.c'
p337
sg15
(lp338
sg17
(lp339
sg19
(lp340
sg21
I0
sba(iArchitecture
Entity
p341
(dp342
g11
(lp343
sg13
S'media.jni.audioeffect.android_media_AudioEffect.c'
p344
sg15
(lp345
sg17
(lp346
sg19
(lp347
sg21
I0
sba(iArchitecture
Entity
p348
(dp349
g11
(lp350
sg13
S'media.jni.audioeffect.android_media_Visualizer.c'
p351
sg15
(lp352
sg17
(lp353
sg19
(lp354
sg21
I0
sba(iArchitecture
Entity
p355
(dp356
g11
(lp357
sg13
S'media.jni.soundpool.android_media_SoundPool.c'
p358
sg15
(lp359
sg17
(lp360
sg19
(lp361
sg21
I0
sbasg29
(lp362
g260
ag267
ag274
ag281
ag288
ag295
ag302
ag309
ag316
ag323
ag330
ag337
ag344
ag351
ag358
asg21
I0
sg31
S'tools.split-select.TestRules.ch'
p363
sbasS'target_sub'
p364
S'media.jni'
p365
sg29
(lp366
sS'is_component_arch'
p367
I00
sg31
S'6.0.0_r1'
p368
sba(iArchitecture
Architecture
p369
(dp370
g3
(lp371
(iArchitecture
Cluster
p372
(dp373
g7
(lp374
(iArchitecture
Entity
p375
(dp376
g11
(lp377
sg13
S'media.jni.android_media_MediaCodec.c'
p378
sg15
(lp379
sg17
(lp380
sg19
(lp381
sg21
I0
sba(iArchitecture
Entity
p382
(dp383
g11
(lp384
sg13
S'media.jni.android_media_MediaCodec.h'
p385
sg15
(lp386
sg17
(lp387
sg19
(lp388
sg21
I0
sbasg29
(lp389
g378
ag385
asg21
I0
sg31
S'media.jni.android_media_MediaCodec.ch'
p390
sba(iArchitecture
Cluster
p391
(dp392
g7
(lp393
(iArchitecture
Entity
p394
(dp395
g11
(lp396
sg13
S'media.jni.android_media_MediaCrypto.c'
p397
sg15
(lp398
sg17
(lp399
sg19
(lp400
sg21
I0
sba(iArchitecture
Entity
p401
(dp402
g11
(lp403
sg13
S'media.jni.android_media_MediaCrypto.h'
p404
sg15
(lp405
sg17
(lp406
sg19
(lp407
sg21
I0
sbasg29
(lp408
g397
ag404
asg21
I0
sg31
S'media.jni.android_media_MediaCrypto.ch'
p409
sba(iArchitecture
Cluster
p410
(dp411
g7
(lp412
(iArchitecture
Entity
p413
(dp414
g11
(lp415
sg13
S'media.jni.android_media_MediaDataSource.c'
p416
sg15
(lp417
sg17
(lp418
sg19
(lp419
sg21
I0
sba(iArchitecture
Entity
p420
(dp421
g11
(lp422
sg13
S'media.jni.android_media_MediaDataSource.h'
p423
sg15
(lp424
sg17
(lp425
sg19
(lp426
sg21
I0
sbasg29
(lp427
g416
ag423
asg21
I0
sg31
S'media.jni.android_media_MediaDataSource.ch'
p428
sba(iArchitecture
Cluster
p429
(dp430
g7
(lp431
(iArchitecture
Entity
p432
(dp433
g11
(lp434
sg13
S'media.jni.android_media_MediaDrm.c'
p435
sg15
(lp436
sg17
(lp437
sg19
(lp438
sg21
I0
sba(iArchitecture
Entity
p439
(dp440
g11
(lp441
sg13
S'media.jni.android_media_MediaDrm.h'
p442
sg15
(lp443
sg17
(lp444
sg19
(lp445
sg21
I0
sbasg29
(lp446
g435
ag442
asg21
I0
sg31
S'media.jni.android_media_MediaDrm.ch'
p447
sba(iArchitecture
Cluster
p448
(dp449
g7
(lp450
(iArchitecture
Entity
p451
(dp452
g11
(lp453
sg13
S'media.jni.android_media_MediaExtractor.c'
p454
sg15
(lp455
sg17
(lp456
sg19
(lp457
sg21
I0
sba(iArchitecture
Entity
p458
(dp459
g11
(lp460
sg13
S'media.jni.android_media_MediaExtractor.h'
p461
sg15
(lp462
sg17
(lp463
sg19
(lp464
sg21
I0
sbasg29
(lp465
g454
ag461
asg21
I0
sg31
S'media.jni.android_media_MediaExtractor.ch'
p466
sba(iArchitecture
Cluster
p467
(dp468
g7
(lp469
(iArchitecture
Entity
p470
(dp471
g11
(lp472
sg13
S'media.jni.android_media_MediaHTTPConnection.c'
p473
sg15
(lp474
sg17
(lp475
sg19
(lp476
sg21
I0
sba(iArchitecture
Entity
p477
(dp478
g11
(lp479
sg13
S'media.jni.android_media_MediaHTTPConnection.h'
p480
sg15
(lp481
sg17
(lp482
sg19
(lp483
sg21
I0
sbasg29
(lp484
g473
ag480
asg21
I0
sg31
S'media.jni.android_media_MediaHTTPConnection.ch'
p485
sba(iArchitecture
Cluster
p486
(dp487
g7
(lp488
(iArchitecture
Entity
p489
(dp490
g11
(lp491
sg13
S'media.jni.android_media_MediaPlayer.c'
p492
sg15
(lp493
sg17
(lp494
sg19
(lp495
sg21
I0
sba(iArchitecture
Entity
p496
(dp497
g11
(lp498
sg13
S'media.jni.android_media_PlaybackParams.h'
p499
sg15
(lp500
sg17
(lp501
sg19
(lp502
sg21
I0
sbasg29
(lp503
g492
ag499
asg21
I0
sg31
S'media.jni.android_media_MediaPlayer.ss'
p504
sba(iArchitecture
Cluster
p505
(dp506
g7
(lp507
(iArchitecture
Entity
p508
(dp509
g11
(lp510
sg13
S'media.jni.android_media_MediaSync.c'
p511
sg15
(lp512
sg17
(lp513
sg19
(lp514
sg21
I0
sba(iArchitecture
Entity
p515
(dp516
g11
(lp517
sg13
S'media.jni.android_media_MediaSync.h'
p518
sg15
(lp519
sg17
(lp520
sg19
(lp521
sg21
I0
sbasg29
(lp522
g511
ag518
asg21
I0
sg31
S'media.jni.android_media_MediaSync.ch'
p523
sba(iArchitecture
Cluster
p524
(dp525
g7
(lp526
(iArchitecture
Entity
p527
(dp528
g11
(lp529
sg13
S'media.jni.android_media_SyncParams.c'
p530
sg15
(lp531
sg17
(lp532
sg19
(lp533
sg21
I0
sba(iArchitecture
Entity
p534
(dp535
g11
(lp536
sg13
S'media.jni.android_media_SyncParams.h'
p537
sg15
(lp538
sg17
(lp539
sg19
(lp540
sg21
I0
sbasg29
(lp541
g530
ag537
asg21
I0
sg31
S'media.jni.android_media_SyncParams.ch'
p542
sba(iArchitecture
Cluster
p543
(dp544
g7
(lp545
(iArchitecture
Entity
p546
(dp547
g11
(lp548
sg13
S'media.jni.android_media_Utils.c'
p549
sg15
(lp550
sg17
(lp551
sg19
(lp552
sg21
I0
sba(iArchitecture
Entity
p553
(dp554
g11
(lp555
sg13
S'media.jni.android_media_Utils.h'
p556
sg15
(lp557
sg17
(lp558
sg19
(lp559
sg21
I0
sbasg29
(lp560
g549
ag556
asg21
I0
sg31
S'media.jni.android_media_Utils.ch'
p561
sba(iArchitecture
Cluster
p562
(dp563
g7
(lp564
(iArchitecture
Entity
p565
(dp566
g11
(lp567
sg13
S'media.jni.soundpool.SoundPool.c'
p568
sg15
(lp569
sg17
(lp570
sg19
(lp571
sg21
I0
sba(iArchitecture
Entity
p572
(dp573
g11
(lp574
sg13
S'media.jni.soundpool.SoundPool.h'
p575
sg15
(lp576
sg17
(lp577
sg19
(lp578
sg21
I0
sbasg29
(lp579
g568
ag575
asg21
I0
sg31
S'media.jni.soundpool.SoundPool.ch'
p580
sba(iArchitecture
Cluster
p581
(dp582
g7
(lp583
(iArchitecture
Entity
p584
(dp585
g11
(lp586
sg13
S'media.jni.soundpool.SoundPoolThread.c'
p587
sg15
(lp588
sg17
(lp589
sg19
(lp590
sg21
I0
sba(iArchitecture
Entity
p591
(dp592
g11
(lp593
sg13
S'media.jni.soundpool.SoundPoolThread.h'
p594
sg15
(lp595
sg17
(lp596
sg19
(lp597
sg21
I0
sbasg29
(lp598
g587
ag594
asg21
I0
sg31
S'media.jni.soundpool.SoundPoolThread.ch'
p599
sba(iArchitecture
Cluster
p600
(dp601
g7
(lp602
(iArchitecture
Entity
p603
(dp604
g11
(lp605
sg13
S'media.jni.android_media_AmrInputStream.c'
p606
sg15
(lp607
sg17
(lp608
sg19
(lp609
sg21
I0
sba(iArchitecture
Entity
p610
(dp611
g11
(lp612
sg13
S'media.jni.android_media_ExifInterface.c'
p613
sg15
(lp614
sg17
(lp615
sg19
(lp616
sg21
I0
sba(iArchitecture
Entity
p617
(dp618
g11
(lp619
sg13
S'media.jni.android_media_ImageReader.c'
p620
sg15
(lp621
sg17
(lp622
sg19
(lp623
sg21
I0
sba(iArchitecture
Entity
p624
(dp625
g11
(lp626
sg13
S'media.jni.android_media_ImageWriter.c'
p627
sg15
(lp628
sg17
(lp629
sg19
(lp630
sg21
I0
sba(iArchitecture
Entity
p631
(dp632
g11
(lp633
sg13
S'media.jni.android_media_MediaCodecList.c'
p634
sg15
(lp635
sg17
(lp636
sg19
(lp637
sg21
I0
sba(iArchitecture
Entity
p638
(dp639
g11
(lp640
sg13
S'media.jni.android_media_MediaMetadataRetriever.c'
p641
sg15
(lp642
sg17
(lp643
sg19
(lp644
sg21
I0
sba(iArchitecture
Entity
p645
(dp646
g11
(lp647
sg13
S'media.jni.android_media_MediaMuxer.c'
p648
sg15
(lp649
sg17
(lp650
sg19
(lp651
sg21
I0
sba(iArchitecture
Entity
p652
(dp653
g11
(lp654
sg13
S'media.jni.android_media_MediaProfiles.c'
p655
sg15
(lp656
sg17
(lp657
sg19
(lp658
sg21
I0
sba(iArchitecture
Entity
p659
(dp660
g11
(lp661
sg13
S'media.jni.android_media_MediaRecorder.c'
p662
sg15
(lp663
sg17
(lp664
sg19
(lp665
sg21
I0
sba(iArchitecture
Entity
p666
(dp667
g11
(lp668
sg13
S'media.jni.android_media_MediaScanner.c'
p669
sg15
(lp670
sg17
(lp671
sg19
(lp672
sg21
I0
sba(iArchitecture
Entity
p673
(dp674
g11
(lp675
sg13
S'media.jni.android_media_ResampleInputStream.c'
p676
sg15
(lp677
sg17
(lp678
sg19
(lp679
sg21
I0
sba(iArchitecture
Entity
p680
(dp681
g11
(lp682
sg13
S'media.jni.android_mtp_MtpDatabase.c'
p683
sg15
(lp684
sg17
(lp685
sg19
(lp686
sg21
I0
sba(iArchitecture
Entity
p687
(dp688
g11
(lp689
sg13
S'media.jni.android_mtp_MtpDevice.c'
p690
sg15
(lp691
sg17
(lp692
sg19
(lp693
sg21
I0
sba(iArchitecture
Entity
p694
(dp695
g11
(lp696
sg13
S'media.jni.android_mtp_MtpServer.c'
p697
sg15
(lp698
sg17
(lp699
sg19
(lp700
sg21
I0
sba(iArchitecture
Entity
p701
(dp702
g11
(lp703
sg13
S'media.jni.audioeffect.android_media_AudioEffect.c'
p704
sg15
(lp705
sg17
(lp706
sg19
(lp707
sg21
I0
sba(iArchitecture
Entity
p708
(dp709
g11
(lp710
sg13
S'media.jni.audioeffect.android_media_Visualizer.c'
p711
sg15
(lp712
sg17
(lp713
sg19
(lp714
sg21
I0
sba(iArchitecture
Entity
p715
(dp716
g11
(lp717
sg13
S'media.jni.soundpool.android_media_SoundPool.c'
p718
sg15
(lp719
sg17
(lp720
sg19
(lp721
sg21
I0
sbasg29
(lp722
g606
ag613
ag620
ag627
ag634
ag641
ag648
ag655
ag662
ag669
ag676
ag683
ag690
ag697
ag704
ag711
ag718
asg21
I0
sg31
S'tools.split-select.TestRules.ch'
p723
sbasg364
g365
sg29
(lp724
sg367
I00
sg31
S'7.0.0_r1'
p725
sba.