(lp0
(iArchitecture
Architecture
p1
(dp2
S'clusters'
p3
(lp4
(iArchitecture
Cluster
p5
(dp6
S'entities'
p7
(lp8
(iArchitecture
Entity
p9
(dp10
S'issue_ids'
p11
(lp12
sS'name'
p13
S'cmds.bootanimation.AudioPlayer.c'
p14
sS'descs'
p15
(lp16
sS'labels'
p17
(lp18
sS'titles'
p19
(lp20
sS'change'
p21
I0
sba(iArchitecture
Entity
p22
(dp23
g11
(lp24
sg13
S'cmds.bootanimation.AudioPlayer.h'
p25
sg15
(lp26
sg17
(lp27
sg19
(lp28
sg21
I0
sbasS'classes'
p29
(lp30
g14
ag25
asg21
I0
sS'label'
p31
S'cmds.bootanimation.AudioPlayer.ch'
p32
sba(iArchitecture
Cluster
p33
(dp34
g7
(lp35
(iArchitecture
Entity
p36
(dp37
g11
(lp38
sg13
S'cmds.bootanimation.BootAnimation.c'
p39
sg15
(lp40
sg17
(lp41
sg19
(lp42
sg21
I0
sba(iArchitecture
Entity
p43
(dp44
g11
(lp45
sg13
S'cmds.bootanimation.BootAnimation.h'
p46
sg15
(lp47
sg17
(lp48
sg19
(lp49
sg21
I0
sbasg29
(lp50
g39
ag46
asg21
I0
sg31
S'cmds.bootanimation.BootAnimation.ch'
p51
sba(iArchitecture
Cluster
p52
(dp53
g7
(lp54
(iArchitecture
Entity
p55
(dp56
g11
(lp57
sg13
S'cmds.bootanimation.bootanimation_main.c'
p58
sg15
(lp59
sg17
(lp60
sg19
(lp61
sg21
I0
sbasg29
(lp62
g58
asg21
I0
sg31
S'tools.aapt2.XmlFlattener.ch'
p63
sbasS'target_sub'
p64
S'cmds.bootanimation'
p65
sg29
(lp66
sS'is_component_arch'
p67
I00
sg31
S'6.0.0_r1'
p68
sba(iArchitecture
Architecture
p69
(dp70
g3
(lp71
(iArchitecture
Cluster
p72
(dp73
g7
(lp74
(iArchitecture
Entity
p75
(dp76
g11
(lp77
sg13
S'cmds.bootanimation.AudioPlayer.c'
p78
sg15
(lp79
sg17
(lp80
sg19
(lp81
sg21
I0
sba(iArchitecture
Entity
p82
(dp83
g11
(lp84
sg13
S'cmds.bootanimation.AudioPlayer.h'
p85
sg15
(lp86
sg17
(lp87
sg19
(lp88
sg21
I0
sbasg29
(lp89
g78
ag85
asg21
I0
sg31
S'cmds.bootanimation.AudioPlayer.ch'
p90
sba(iArchitecture
Cluster
p91
(dp92
g7
(lp93
(iArchitecture
Entity
p94
(dp95
g11
(lp96
sg13
S'cmds.bootanimation.BootAnimation.c'
p97
sg15
(lp98
sg17
(lp99
sg19
(lp100
sg21
I0
sba(iArchitecture
Entity
p101
(dp102
g11
(lp103
sg13
S'cmds.bootanimation.BootAnimation.h'
p104
sg15
(lp105
sg17
(lp106
sg19
(lp107
sg21
I0
sbasg29
(lp108
g97
ag104
asg21
I0
sg31
S'cmds.bootanimation.BootAnimation.ch'
p109
sba(iArchitecture
Cluster
p110
(dp111
g7
(lp112
(iArchitecture
Entity
p113
(dp114
g11
(lp115
sg13
S'cmds.bootanimation.bootanimation_main.c'
p116
sg15
(lp117
sg17
(lp118
sg19
(lp119
sg21
I0
sbasg29
(lp120
g116
asg21
I0
sg31
S'tools.aapt2.xml.XmlUtil.ch'
p121
sbasg64
g65
sg29
(lp122
sg67
I00
sg31
S'7.0.0_r1'
p123
sba.