(lp0
(iArchitecture
Architecture
p1
(dp2
S'clusters'
p3
(lp4
(iArchitecture
Cluster
p5
(dp6
S'entities'
p7
(lp8
(iArchitecture
Entity
p9
(dp10
S'issue_ids'
p11
(lp12
sS'name'
p13
S'core.jni.android.graphics.AutoDecodeCancel.c'
p14
sS'descs'
p15
(lp16
sS'labels'
p17
(lp18
sS'titles'
p19
(lp20
sS'change'
p21
I0
sba(iArchitecture
Entity
p22
(dp23
g11
(lp24
sg13
S'core.jni.android.graphics.AutoDecodeCancel.h'
p25
sg15
(lp26
sg17
(lp27
sg19
(lp28
sg21
I0
sbasS'classes'
p29
(lp30
g14
ag25
asg21
I0
sS'label'
p31
S'core.jni.android.graphics.AutoDecodeCancel.ch'
p32
sba(iArchitecture
Cluster
p33
(dp34
g7
(lp35
(iArchitecture
Entity
p36
(dp37
g11
(lp38
sg13
S'core.jni.android.graphics.AvoidXfermode.c'
p39
sg15
(lp40
sg17
(lp41
sg19
(lp42
sg21
I0
sba(iArchitecture
Entity
p43
(dp44
g11
(lp45
sg13
S'core.jni.android.graphics.AvoidXfermode.h'
p46
sg15
(lp47
sg17
(lp48
sg19
(lp49
sg21
I0
sbasg29
(lp50
g39
ag46
asg21
I0
sg31
S'core.jni.android.graphics.AvoidXfermode.ch'
p51
sba(iArchitecture
Cluster
p52
(dp53
g7
(lp54
(iArchitecture
Entity
p55
(dp56
g11
(lp57
sg13
S'core.jni.android.graphics.Bitmap.c'
p58
sg15
(lp59
sg17
(lp60
sg19
(lp61
sg21
I0
sba(iArchitecture
Entity
p62
(dp63
g11
(lp64
sg13
S'core.jni.android.graphics.Bitmap.h'
p65
sg15
(lp66
sg17
(lp67
sg19
(lp68
sg21
I0
sbasg29
(lp69
g58
ag65
asg21
I0
sg31
S'core.jni.android.graphics.Bitmap.ch'
p70
sba(iArchitecture
Cluster
p71
(dp72
g7
(lp73
(iArchitecture
Entity
p74
(dp75
g11
(lp76
sg13
S'core.jni.android.graphics.BitmapFactory.c'
p77
sg15
(lp78
sg17
(lp79
sg19
(lp80
sg21
I0
sba(iArchitecture
Entity
p81
(dp82
g11
(lp83
sg13
S'core.jni.android.graphics.BitmapFactory.h'
p84
sg15
(lp85
sg17
(lp86
sg19
(lp87
sg21
I0
sbasg29
(lp88
g77
ag84
asg21
I0
sg31
S'core.jni.android.graphics.BitmapFactory.ch'
p89
sba(iArchitecture
Cluster
p90
(dp91
g7
(lp92
(iArchitecture
Entity
p93
(dp94
g11
(lp95
sg13
S'core.jni.android.graphics.CreateJavaOutputStreamAdaptor.c'
p96
sg15
(lp97
sg17
(lp98
sg19
(lp99
sg21
I0
sba(iArchitecture
Entity
p100
(dp101
g11
(lp102
sg13
S'core.jni.android.graphics.CreateJavaOutputStreamAdaptor.h'
p103
sg15
(lp104
sg17
(lp105
sg19
(lp106
sg21
I0
sbasg29
(lp107
g96
ag103
asg21
I0
sg31
S'core.jni.android.graphics.CreateJavaOutputStreamAdaptor.ch'
p108
sba(iArchitecture
Cluster
p109
(dp110
g7
(lp111
(iArchitecture
Entity
p112
(dp113
g11
(lp114
sg13
S'core.jni.android.graphics.HarfBuzzNGFaceSkia.c'
p115
sg15
(lp116
sg17
(lp117
sg19
(lp118
sg21
I0
sba(iArchitecture
Entity
p119
(dp120
g11
(lp121
sg13
S'core.jni.android.graphics.HarfBuzzNGFaceSkia.h'
p122
sg15
(lp123
sg17
(lp124
sg19
(lp125
sg21
I0
sbasg29
(lp126
g115
ag122
asg21
I0
sg31
S'core.jni.android.graphics.HarfBuzzNGFaceSkia.ch'
p127
sba(iArchitecture
Cluster
p128
(dp129
g7
(lp130
(iArchitecture
Entity
p131
(dp132
g11
(lp133
sg13
S'core.jni.android.graphics.Matrix.c'
p134
sg15
(lp135
sg17
(lp136
sg19
(lp137
sg21
I0
sba(iArchitecture
Entity
p138
(dp139
g11
(lp140
sg13
S'core.jni.android.graphics.Matrix.h'
p141
sg15
(lp142
sg17
(lp143
sg19
(lp144
sg21
I0
sbasg29
(lp145
g134
ag141
asg21
I0
sg31
S'core.jni.android.graphics.Matrix.ch'
p146
sba(iArchitecture
Cluster
p147
(dp148
g7
(lp149
(iArchitecture
Entity
p150
(dp151
g11
(lp152
sg13
S'core.jni.android.graphics.MinikinSkia.c'
p153
sg15
(lp154
sg17
(lp155
sg19
(lp156
sg21
I0
sba(iArchitecture
Entity
p157
(dp158
g11
(lp159
sg13
S'core.jni.android.graphics.MinikinSkia.h'
p160
sg15
(lp161
sg17
(lp162
sg19
(lp163
sg21
I0
sbasg29
(lp164
g153
ag160
asg21
I0
sg31
S'core.jni.android.graphics.MinikinSkia.ch'
p165
sba(iArchitecture
Cluster
p166
(dp167
g7
(lp168
(iArchitecture
Entity
p169
(dp170
g11
(lp171
sg13
S'core.jni.android.graphics.MinikinUtils.c'
p172
sg15
(lp173
sg17
(lp174
sg19
(lp175
sg21
I0
sba(iArchitecture
Entity
p176
(dp177
g11
(lp178
sg13
S'core.jni.android.graphics.MinikinUtils.h'
p179
sg15
(lp180
sg17
(lp181
sg19
(lp182
sg21
I0
sbasg29
(lp183
g172
ag179
asg21
I0
sg31
S'core.jni.android.graphics.MinikinUtils.ch'
p184
sba(iArchitecture
Cluster
p185
(dp186
g7
(lp187
(iArchitecture
Entity
p188
(dp189
g11
(lp190
sg13
S'core.jni.android.graphics.NinePatchPeeker.c'
p191
sg15
(lp192
sg17
(lp193
sg19
(lp194
sg21
I0
sba(iArchitecture
Entity
p195
(dp196
g11
(lp197
sg13
S'core.jni.android.graphics.NinePatchPeeker.h'
p198
sg15
(lp199
sg17
(lp200
sg19
(lp201
sg21
I0
sbasg29
(lp202
g191
ag198
asg21
I0
sg31
S'core.jni.android.graphics.NinePatchPeeker.ch'
p203
sba(iArchitecture
Cluster
p204
(dp205
g7
(lp206
(iArchitecture
Entity
p207
(dp208
g11
(lp209
sg13
S'core.jni.android.graphics.Paint.c'
p210
sg15
(lp211
sg17
(lp212
sg19
(lp213
sg21
I0
sba(iArchitecture
Entity
p214
(dp215
g11
(lp216
sg13
S'core.jni.android.graphics.Paint.h'
p217
sg15
(lp218
sg17
(lp219
sg19
(lp220
sg21
I0
sbasg29
(lp221
g210
ag217
asg21
I0
sg31
S'core.jni.android.graphics.Paint.ch'
p222
sba(iArchitecture
Cluster
p223
(dp224
g7
(lp225
(iArchitecture
Entity
p226
(dp227
g11
(lp228
sg13
S'core.jni.android.graphics.Picture.c'
p229
sg15
(lp230
sg17
(lp231
sg19
(lp232
sg21
I0
sba(iArchitecture
Entity
p233
(dp234
g11
(lp235
sg13
S'core.jni.android.graphics.Picture.h'
p236
sg15
(lp237
sg17
(lp238
sg19
(lp239
sg21
I0
sbasg29
(lp240
g229
ag236
asg21
I0
sg31
S'core.jni.android.graphics.Picture.ch'
p241
sba(iArchitecture
Cluster
p242
(dp243
g7
(lp244
(iArchitecture
Entity
p245
(dp246
g11
(lp247
sg13
S'core.jni.android.graphics.Region.c'
p248
sg15
(lp249
sg17
(lp250
sg19
(lp251
sg21
I0
sba(iArchitecture
Entity
p252
(dp253
g11
(lp254
sg13
S'core.jni.android.graphics.Region.h'
p255
sg15
(lp256
sg17
(lp257
sg19
(lp258
sg21
I0
sbasg29
(lp259
g248
ag255
asg21
I0
sg31
S'core.jni.android.graphics.Region.ch'
p260
sba(iArchitecture
Cluster
p261
(dp262
g7
(lp263
(iArchitecture
Entity
p264
(dp265
g11
(lp266
sg13
S'core.jni.android.graphics.TypefaceImpl.c'
p267
sg15
(lp268
sg17
(lp269
sg19
(lp270
sg21
I0
sba(iArchitecture
Entity
p271
(dp272
g11
(lp273
sg13
S'core.jni.android.graphics.TypefaceImpl.h'
p274
sg15
(lp275
sg17
(lp276
sg19
(lp277
sg21
I0
sbasg29
(lp278
g267
ag274
asg21
I0
sg31
S'core.jni.android.graphics.TypefaceImpl.ch'
p279
sba(iArchitecture
Cluster
p280
(dp281
g7
(lp282
(iArchitecture
Entity
p283
(dp284
g11
(lp285
sg13
S'core.jni.android.graphics.Utils.c'
p286
sg15
(lp287
sg17
(lp288
sg19
(lp289
sg21
I0
sba(iArchitecture
Entity
p290
(dp291
g11
(lp292
sg13
S'core.jni.android.graphics.Utils.h'
p293
sg15
(lp294
sg17
(lp295
sg19
(lp296
sg21
I0
sbasg29
(lp297
g286
ag293
asg21
I0
sg31
S'core.jni.android.graphics.Utils.ch'
p298
sba(iArchitecture
Cluster
p299
(dp300
g7
(lp301
(iArchitecture
Entity
p302
(dp303
g11
(lp304
sg13
S'core.jni.android.graphics.YuvToJpegEncoder.c'
p305
sg15
(lp306
sg17
(lp307
sg19
(lp308
sg21
I0
sba(iArchitecture
Entity
p309
(dp310
g11
(lp311
sg13
S'core.jni.android.graphics.YuvToJpegEncoder.h'
p312
sg15
(lp313
sg17
(lp314
sg19
(lp315
sg21
I0
sbasg29
(lp316
g305
ag312
asg21
I0
sg31
S'core.jni.android.graphics.YuvToJpegEncoder.ch'
p317
sba(iArchitecture
Cluster
p318
(dp319
g7
(lp320
(iArchitecture
Entity
p321
(dp322
g11
(lp323
sg13
S'core.jni.android_database_SQLiteCommon.c'
p324
sg15
(lp325
sg17
(lp326
sg19
(lp327
sg21
I0
sba(iArchitecture
Entity
p328
(dp329
g11
(lp330
sg13
S'core.jni.android_database_SQLiteCommon.h'
p331
sg15
(lp332
sg17
(lp333
sg19
(lp334
sg21
I0
sbasg29
(lp335
g324
ag331
asg21
I0
sg31
S'core.jni.android_database_SQLiteCommon.ch'
p336
sba(iArchitecture
Cluster
p337
(dp338
g7
(lp339
(iArchitecture
Entity
p340
(dp341
g11
(lp342
sg13
S'core.jni.android_media_AudioErrors.h'
p343
sg15
(lp344
sg17
(lp345
sg19
(lp346
sg21
I0
sba(iArchitecture
Entity
p347
(dp348
g11
(lp349
sg13
S'core.jni.android_media_AudioFormat.h'
p350
sg15
(lp351
sg17
(lp352
sg19
(lp353
sg21
I0
sba(iArchitecture
Entity
p354
(dp355
g11
(lp356
sg13
S'core.jni.android_media_AudioTrack.c'
p357
sg15
(lp358
sg17
(lp359
sg19
(lp360
sg21
I0
sba(iArchitecture
Entity
p361
(dp362
g11
(lp363
sg13
S'core.jni.android_media_AudioTrack.h'
p364
sg15
(lp365
sg17
(lp366
sg19
(lp367
sg21
I0
sbasg29
(lp368
g343
ag350
ag357
ag364
asg21
I0
sg31
S'core.jni.android_media_AudioTrack.ch'
p369
sba(iArchitecture
Cluster
p370
(dp371
g7
(lp372
(iArchitecture
Entity
p373
(dp374
g11
(lp375
sg13
S'core.jni.android_media_DeviceCallback.c'
p376
sg15
(lp377
sg17
(lp378
sg19
(lp379
sg21
I0
sba(iArchitecture
Entity
p380
(dp381
g11
(lp382
sg13
S'core.jni.android_media_DeviceCallback.h'
p383
sg15
(lp384
sg17
(lp385
sg19
(lp386
sg21
I0
sbasg29
(lp387
g376
ag383
asg21
I0
sg31
S'core.jni.android_media_DeviceCallback.ch'
p388
sba(iArchitecture
Cluster
p389
(dp390
g7
(lp391
(iArchitecture
Entity
p392
(dp393
g11
(lp394
sg13
S'core.jni.android_nio_utils.c'
p395
sg15
(lp396
sg17
(lp397
sg19
(lp398
sg21
I0
sba(iArchitecture
Entity
p399
(dp400
g11
(lp401
sg13
S'core.jni.android_nio_utils.h'
p402
sg15
(lp403
sg17
(lp404
sg19
(lp405
sg21
I0
sbasg29
(lp406
g395
ag402
asg21
I0
sg31
S'core.jni.android_nio_utils.ch'
p407
sba(iArchitecture
Cluster
p408
(dp409
g7
(lp410
(iArchitecture
Entity
p411
(dp412
g11
(lp413
sg13
S'core.jni.android_os_MessageQueue.c'
p414
sg15
(lp415
sg17
(lp416
sg19
(lp417
sg21
I0
sba(iArchitecture
Entity
p418
(dp419
g11
(lp420
sg13
S'core.jni.android_os_MessageQueue.h'
p421
sg15
(lp422
sg17
(lp423
sg19
(lp424
sg21
I0
sbasg29
(lp425
g414
ag421
asg21
I0
sg31
S'core.jni.android_os_MessageQueue.ch'
p426
sba(iArchitecture
Cluster
p427
(dp428
g7
(lp429
(iArchitecture
Entity
p430
(dp431
g11
(lp432
sg13
S'core.jni.android_os_Parcel.c'
p433
sg15
(lp434
sg17
(lp435
sg19
(lp436
sg21
I0
sba(iArchitecture
Entity
p437
(dp438
g11
(lp439
sg13
S'core.jni.android_os_Parcel.h'
p440
sg15
(lp441
sg17
(lp442
sg19
(lp443
sg21
I0
sbasg29
(lp444
g433
ag440
asg21
I0
sg31
S'core.jni.android_os_Parcel.ch'
p445
sba(iArchitecture
Cluster
p446
(dp447
g7
(lp448
(iArchitecture
Entity
p449
(dp450
g11
(lp451
sg13
S'core.jni.android_util_Binder.c'
p452
sg15
(lp453
sg17
(lp454
sg19
(lp455
sg21
I0
sba(iArchitecture
Entity
p456
(dp457
g11
(lp458
sg13
S'core.jni.android_util_Binder.h'
p459
sg15
(lp460
sg17
(lp461
sg19
(lp462
sg21
I0
sbasg29
(lp463
g452
ag459
asg21
I0
sg31
S'core.jni.android_util_Binder.ch'
p464
sba(iArchitecture
Cluster
p465
(dp466
g7
(lp467
(iArchitecture
Entity
p468
(dp469
g11
(lp470
sg13
S'core.jni.android_util_Log.c'
p471
sg15
(lp472
sg17
(lp473
sg19
(lp474
sg21
I0
sba(iArchitecture
Entity
p475
(dp476
g11
(lp477
sg13
S'core.jni.android_util_Log.h'
p478
sg15
(lp479
sg17
(lp480
sg19
(lp481
sg21
I0
sbasg29
(lp482
g471
ag478
asg21
I0
sg31
S'core.jni.android_util_Log.ch'
p483
sba(iArchitecture
Cluster
p484
(dp485
g7
(lp486
(iArchitecture
Entity
p487
(dp488
g11
(lp489
sg13
S'core.jni.android_view_GraphicBuffer.c'
p490
sg15
(lp491
sg17
(lp492
sg19
(lp493
sg21
I0
sba(iArchitecture
Entity
p494
(dp495
g11
(lp496
sg13
S'core.jni.android_view_GraphicBuffer.h'
p497
sg15
(lp498
sg17
(lp499
sg19
(lp500
sg21
I0
sbasg29
(lp501
g490
ag497
asg21
I0
sg31
S'core.jni.android_view_GraphicBuffer.ch'
p502
sba(iArchitecture
Cluster
p503
(dp504
g7
(lp505
(iArchitecture
Entity
p506
(dp507
g11
(lp508
sg13
S'core.jni.android_view_InputChannel.c'
p509
sg15
(lp510
sg17
(lp511
sg19
(lp512
sg21
I0
sba(iArchitecture
Entity
p513
(dp514
g11
(lp515
sg13
S'core.jni.android_view_InputChannel.h'
p516
sg15
(lp517
sg17
(lp518
sg19
(lp519
sg21
I0
sbasg29
(lp520
g509
ag516
asg21
I0
sg31
S'core.jni.android_view_InputChannel.ch'
p521
sba(iArchitecture
Cluster
p522
(dp523
g7
(lp524
(iArchitecture
Entity
p525
(dp526
g11
(lp527
sg13
S'core.jni.android_view_InputDevice.c'
p528
sg15
(lp529
sg17
(lp530
sg19
(lp531
sg21
I0
sba(iArchitecture
Entity
p532
(dp533
g11
(lp534
sg13
S'core.jni.android_view_InputDevice.h'
p535
sg15
(lp536
sg17
(lp537
sg19
(lp538
sg21
I0
sbasg29
(lp539
g528
ag535
asg21
I0
sg31
S'core.jni.android_view_InputDevice.ch'
p540
sba(iArchitecture
Cluster
p541
(dp542
g7
(lp543
(iArchitecture
Entity
p544
(dp545
g11
(lp546
sg13
S'core.jni.android_view_KeyCharacterMap.c'
p547
sg15
(lp548
sg17
(lp549
sg19
(lp550
sg21
I0
sba(iArchitecture
Entity
p551
(dp552
g11
(lp553
sg13
S'core.jni.android_view_KeyCharacterMap.h'
p554
sg15
(lp555
sg17
(lp556
sg19
(lp557
sg21
I0
sbasg29
(lp558
g547
ag554
asg21
I0
sg31
S'core.jni.android_view_KeyCharacterMap.ch'
p559
sba(iArchitecture
Cluster
p560
(dp561
g7
(lp562
(iArchitecture
Entity
p563
(dp564
g11
(lp565
sg13
S'core.jni.android_view_KeyEvent.c'
p566
sg15
(lp567
sg17
(lp568
sg19
(lp569
sg21
I0
sba(iArchitecture
Entity
p570
(dp571
g11
(lp572
sg13
S'core.jni.android_view_KeyEvent.h'
p573
sg15
(lp574
sg17
(lp575
sg19
(lp576
sg21
I0
sbasg29
(lp577
g566
ag573
asg21
I0
sg31
S'core.jni.android_view_KeyEvent.ch'
p578
sba(iArchitecture
Cluster
p579
(dp580
g7
(lp581
(iArchitecture
Entity
p582
(dp583
g11
(lp584
sg13
S'core.jni.android_view_MotionEvent.c'
p585
sg15
(lp586
sg17
(lp587
sg19
(lp588
sg21
I0
sba(iArchitecture
Entity
p589
(dp590
g11
(lp591
sg13
S'core.jni.android_view_MotionEvent.h'
p592
sg15
(lp593
sg17
(lp594
sg19
(lp595
sg21
I0
sbasg29
(lp596
g585
ag592
asg21
I0
sg31
S'core.jni.android_view_MotionEvent.ch'
p597
sba(iArchitecture
Cluster
p598
(dp599
g7
(lp600
(iArchitecture
Entity
p601
(dp602
g11
(lp603
sg13
S'core.jni.android_view_PointerIcon.c'
p604
sg15
(lp605
sg17
(lp606
sg19
(lp607
sg21
I0
sba(iArchitecture
Entity
p608
(dp609
g11
(lp610
sg13
S'core.jni.android_view_PointerIcon.h'
p611
sg15
(lp612
sg17
(lp613
sg19
(lp614
sg21
I0
sbasg29
(lp615
g604
ag611
asg21
I0
sg31
S'core.jni.android_view_PointerIcon.ch'
p616
sba(iArchitecture
Cluster
p617
(dp618
g7
(lp619
(iArchitecture
Entity
p620
(dp621
g11
(lp622
sg13
S'services.core.jni.com_android_server_SystemServer.c'
p623
sg15
(lp624
sg17
(lp625
sg19
(lp626
sg21
I0
sbasg29
(lp627
g623
asg21
I0
sg31
S'libs.hwui.Properties.ch'
p628
sba(iArchitecture
Cluster
p629
(dp630
g7
(lp631
(iArchitecture
Entity
p632
(dp633
g11
(lp634
sg13
S'core.jni.android.graphics.ColorFilter.c'
p635
sg15
(lp636
sg17
(lp637
sg19
(lp638
sg21
I0
sba(iArchitecture
Entity
p639
(dp640
g11
(lp641
sg13
S'core.jni.android.graphics.Graphics.c'
p642
sg15
(lp643
sg17
(lp644
sg19
(lp645
sg21
I0
sba(iArchitecture
Entity
p646
(dp647
g11
(lp648
sg13
S'core.jni.android.graphics.Path.c'
p649
sg15
(lp650
sg17
(lp651
sg19
(lp652
sg21
I0
sba(iArchitecture
Entity
p653
(dp654
g11
(lp655
sg13
S'core.jni.android.graphics.Shader.c'
p656
sg15
(lp657
sg17
(lp658
sg19
(lp659
sg21
I0
sba(iArchitecture
Entity
p660
(dp661
g11
(lp662
sg13
S'core.jni.android_view_DisplayListCanvas.c'
p663
sg15
(lp664
sg17
(lp665
sg19
(lp666
sg21
I0
sba(iArchitecture
Entity
p667
(dp668
g11
(lp669
sg13
S'core.jni.android_view_HardwareLayer.c'
p670
sg15
(lp671
sg17
(lp672
sg19
(lp673
sg21
I0
sba(iArchitecture
Entity
p674
(dp675
g11
(lp676
sg13
S'core.jni.android_view_RenderNode.c'
p677
sg15
(lp678
sg17
(lp679
sg19
(lp680
sg21
I0
sba(iArchitecture
Entity
p681
(dp682
g11
(lp683
sg13
S'core.jni.android_view_RenderNodeAnimator.c'
p684
sg15
(lp685
sg17
(lp686
sg19
(lp687
sg21
I0
sba(iArchitecture
Entity
p688
(dp689
g11
(lp690
sg13
S'core.jni.android_view_Surface.c'
p691
sg15
(lp692
sg17
(lp693
sg19
(lp694
sg21
I0
sba(iArchitecture
Entity
p695
(dp696
g11
(lp697
sg13
S'core.jni.android_view_ThreadedRenderer.c'
p698
sg15
(lp699
sg17
(lp700
sg19
(lp701
sg21
I0
sbasg29
(lp702
g635
ag642
ag649
ag656
ag663
ag670
ag677
ag684
ag691
ag698
asg21
I0
sg31
S'libs.hwui.renderthread.RenderThread.ch'
p703
sba(iArchitecture
Cluster
p704
(dp705
g7
(lp706
(iArchitecture
Entity
p707
(dp708
g11
(lp709
sg13
S'services.core.jni.com_android_server_input_InputApplicationHandle.c'
p710
sg15
(lp711
sg17
(lp712
sg19
(lp713
sg21
I0
sba(iArchitecture
Entity
p714
(dp715
g11
(lp716
sg13
S'services.core.jni.com_android_server_input_InputApplicationHandle.h'
p717
sg15
(lp718
sg17
(lp719
sg19
(lp720
sg21
I0
sbasg29
(lp721
g710
ag717
asg21
I0
sg31
S'services.core.jni.com_android_server_input_InputApplicationHandle.ch'
p722
sba(iArchitecture
Cluster
p723
(dp724
g7
(lp725
(iArchitecture
Entity
p726
(dp727
g11
(lp728
sg13
S'services.core.jni.com_android_server_input_InputWindowHandle.c'
p729
sg15
(lp730
sg17
(lp731
sg19
(lp732
sg21
I0
sba(iArchitecture
Entity
p733
(dp734
g11
(lp735
sg13
S'services.core.jni.com_android_server_input_InputWindowHandle.h'
p736
sg15
(lp737
sg17
(lp738
sg19
(lp739
sg21
I0
sbasg29
(lp740
g729
ag736
asg21
I0
sg31
S'services.core.jni.com_android_server_input_InputWindowHandle.ch'
p741
sba(iArchitecture
Cluster
p742
(dp743
g7
(lp744
(iArchitecture
Entity
p745
(dp746
g11
(lp747
sg13
S'services.core.jni.com_android_server_power_PowerManagerService.c'
p748
sg15
(lp749
sg17
(lp750
sg19
(lp751
sg21
I0
sba(iArchitecture
Entity
p752
(dp753
g11
(lp754
sg13
S'services.core.jni.com_android_server_power_PowerManagerService.h'
p755
sg15
(lp756
sg17
(lp757
sg19
(lp758
sg21
I0
sbasg29
(lp759
g748
ag755
asg21
I0
sg31
S'services.core.jni.com_android_server_power_PowerManagerService.ch'
p760
sba(iArchitecture
Cluster
p761
(dp762
g7
(lp763
(iArchitecture
Entity
p764
(dp765
g11
(lp766
sg13
S'core.jni.android.graphics.BitmapRegionDecoder.c'
p767
sg15
(lp768
sg17
(lp769
sg19
(lp770
sg21
I0
sba(iArchitecture
Entity
p771
(dp772
g11
(lp773
sg13
S'core.jni.android.graphics.Camera.c'
p774
sg15
(lp775
sg17
(lp776
sg19
(lp777
sg21
I0
sba(iArchitecture
Entity
p778
(dp779
g11
(lp780
sg13
S'core.jni.android.graphics.CanvasProperty.c'
p781
sg15
(lp782
sg17
(lp783
sg19
(lp784
sg21
I0
sba(iArchitecture
Entity
p785
(dp786
g11
(lp787
sg13
S'core.jni.android.graphics.DrawFilter.c'
p788
sg15
(lp789
sg17
(lp790
sg19
(lp791
sg21
I0
sba(iArchitecture
Entity
p792
(dp793
g11
(lp794
sg13
S'core.jni.android.graphics.FontFamily.c'
p795
sg15
(lp796
sg17
(lp797
sg19
(lp798
sg21
I0
sba(iArchitecture
Entity
p799
(dp800
g11
(lp801
sg13
S'core.jni.android.graphics.GraphicsJNI.h'
p802
sg15
(lp803
sg17
(lp804
sg19
(lp805
sg21
I0
sba(iArchitecture
Entity
p806
(dp807
g11
(lp808
sg13
S'core.jni.android.graphics.Interpolator.c'
p809
sg15
(lp810
sg17
(lp811
sg19
(lp812
sg21
I0
sba(iArchitecture
Entity
p813
(dp814
g11
(lp815
sg13
S'core.jni.android.graphics.MaskFilter.c'
p816
sg15
(lp817
sg17
(lp818
sg19
(lp819
sg21
I0
sba(iArchitecture
Entity
p820
(dp821
g11
(lp822
sg13
S'core.jni.android.graphics.PathEffect.c'
p823
sg15
(lp824
sg17
(lp825
sg19
(lp826
sg21
I0
sba(iArchitecture
Entity
p827
(dp828
g11
(lp829
sg13
S'core.jni.android.graphics.PathMeasure.c'
p830
sg15
(lp831
sg17
(lp832
sg19
(lp833
sg21
I0
sba(iArchitecture
Entity
p834
(dp835
g11
(lp836
sg13
S'core.jni.android.graphics.PorterDuff.c'
p837
sg15
(lp838
sg17
(lp839
sg19
(lp840
sg21
I0
sba(iArchitecture
Entity
p841
(dp842
g11
(lp843
sg13
S'core.jni.android.graphics.Rasterizer.c'
p844
sg15
(lp845
sg17
(lp846
sg19
(lp847
sg21
I0
sba(iArchitecture
Entity
p848
(dp849
g11
(lp850
sg13
S'core.jni.android.graphics.Typeface.c'
p851
sg15
(lp852
sg17
(lp853
sg19
(lp854
sg21
I0
sba(iArchitecture
Entity
p855
(dp856
g11
(lp857
sg13
S'core.jni.android.graphics.Xfermode.c'
p858
sg15
(lp859
sg17
(lp860
sg19
(lp861
sg21
I0
sba(iArchitecture
Entity
p862
(dp863
g11
(lp864
sg13
S'core.jni.android.graphics.pdf.PdfDocument.c'
p865
sg15
(lp866
sg17
(lp867
sg19
(lp868
sg21
I0
sba(iArchitecture
Entity
p869
(dp870
g11
(lp871
sg13
S'core.jni.android.graphics.pdf.PdfRenderer.c'
p872
sg15
(lp873
sg17
(lp874
sg19
(lp875
sg21
I0
sba(iArchitecture
Entity
p876
(dp877
g11
(lp878
sg13
S'core.jni.android.opengl.poly.h'
p879
sg15
(lp880
sg17
(lp881
sg19
(lp882
sg21
I0
sba(iArchitecture
Entity
p883
(dp884
g11
(lp885
sg13
S'core.jni.android.opengl.util.c'
p886
sg15
(lp887
sg17
(lp888
sg19
(lp889
sg21
I0
sba(iArchitecture
Entity
p890
(dp891
g11
(lp892
sg13
S'core.jni.android_emoji_EmojiFactory.c'
p893
sg15
(lp894
sg17
(lp895
sg19
(lp896
sg21
I0
sba(iArchitecture
Entity
p897
(dp898
g11
(lp899
sg13
S'core.jni.android_graphics_Canvas.c'
p900
sg15
(lp901
sg17
(lp902
sg19
(lp903
sg21
I0
sba(iArchitecture
Entity
p904
(dp905
g11
(lp906
sg13
S'core.jni.android_graphics_Picture.c'
p907
sg15
(lp908
sg17
(lp909
sg19
(lp910
sg21
I0
sba(iArchitecture
Entity
p911
(dp912
g11
(lp913
sg13
S'core.jni.android_view_SurfaceControl.c'
p914
sg15
(lp915
sg17
(lp916
sg19
(lp917
sg21
I0
sba(iArchitecture
Entity
p918
(dp919
g11
(lp920
sg13
S'core.jni.android_view_TextureView.c'
p921
sg15
(lp922
sg17
(lp923
sg19
(lp924
sg21
I0
sba(iArchitecture
Entity
p925
(dp926
g11
(lp927
sg13
S'core.jni.com_google_android_gles_jni_EGLImpl.c'
p928
sg15
(lp929
sg17
(lp930
sg19
(lp931
sg21
I0
sba(iArchitecture
Entity
p932
(dp933
g11
(lp934
sg13
S'core.jni.core_jni_helpers.h'
p935
sg15
(lp936
sg17
(lp937
sg19
(lp938
sg21
I0
sba(iArchitecture
Entity
p939
(dp940
g11
(lp941
sg13
S'services.core.jni.com_android_server_AssetAtlasService.c'
p942
sg15
(lp943
sg17
(lp944
sg19
(lp945
sg21
I0
sba(iArchitecture
Entity
p946
(dp947
g11
(lp948
sg13
S'services.core.jni.com_android_server_input_InputManagerService.c'
p949
sg15
(lp950
sg17
(lp951
sg19
(lp952
sg21
I0
sbasg29
(lp953
g767
ag774
ag781
ag788
ag795
ag802
ag809
ag816
ag823
ag830
ag837
ag844
ag851
ag858
ag865
ag872
ag879
ag886
ag893
ag900
ag907
ag914
ag921
ag928
ag935
ag942
ag949
asg21
I0
sg31
S'tools.aapt2.Util.ch'
p954
sba(iArchitecture
Cluster
p955
(dp956
g7
(lp957
(iArchitecture
Entity
p958
(dp959
g11
(lp960
sg13
S'core.jni.android_app_NativeActivity.c'
p961
sg15
(lp962
sg17
(lp963
sg19
(lp964
sg21
I0
sba(iArchitecture
Entity
p965
(dp966
g11
(lp967
sg13
S'core.jni.android_net_LocalSocketImpl.c'
p968
sg15
(lp969
sg17
(lp970
sg19
(lp971
sg21
I0
sba(iArchitecture
Entity
p972
(dp973
g11
(lp974
sg13
S'core.jni.android_os_Debug.c'
p975
sg15
(lp976
sg17
(lp977
sg19
(lp978
sg21
I0
sba(iArchitecture
Entity
p979
(dp980
g11
(lp981
sg13
S'core.jni.android_server_NetworkManagementSocketTagger.c'
p982
sg15
(lp983
sg17
(lp984
sg19
(lp985
sg21
I0
sba(iArchitecture
Entity
p986
(dp987
g11
(lp988
sg13
S'core.jni.android_text_StaticLayout.c'
p989
sg15
(lp990
sg17
(lp991
sg19
(lp992
sg21
I0
sba(iArchitecture
Entity
p993
(dp994
g11
(lp995
sg13
S'services.core.jni.com_android_server_AlarmManagerService.c'
p996
sg15
(lp997
sg17
(lp998
sg19
(lp999
sg21
I0
sba(iArchitecture
Entity
p1000
(dp1001
g11
(lp1002
sg13
S'services.core.jni.onload.c'
p1003
sg15
(lp1004
sg17
(lp1005
sg19
(lp1006
sg21
I0
sbasg29
(lp1007
g961
ag968
ag975
ag982
ag989
ag996
ag1003
asg21
I0
sg31
S'tools.aapt2.XmlFlattener.ch'
p1008
sba(iArchitecture
Cluster
p1009
(dp1010
g7
(lp1011
(iArchitecture
Entity
p1012
(dp1013
g11
(lp1014
sg13
S'core.jni.AndroidRuntime.c'
p1015
sg15
(lp1016
sg17
(lp1017
sg19
(lp1018
sg21
I0
sba(iArchitecture
Entity
p1019
(dp1020
g11
(lp1021
sg13
S'core.jni.android.graphics.Movie.c'
p1022
sg15
(lp1023
sg17
(lp1024
sg19
(lp1025
sg21
I0
sba(iArchitecture
Entity
p1026
(dp1027
g11
(lp1028
sg13
S'core.jni.android.graphics.NinePatch.c'
p1029
sg15
(lp1030
sg17
(lp1031
sg19
(lp1032
sg21
I0
sba(iArchitecture
Entity
p1033
(dp1034
g11
(lp1035
sg13
S'core.jni.android.graphics.NinePatchImpl.c'
p1036
sg15
(lp1037
sg17
(lp1038
sg19
(lp1039
sg21
I0
sba(iArchitecture
Entity
p1040
(dp1041
g11
(lp1042
sg13
S'core.jni.android.graphics.PaintImpl.c'
p1043
sg15
(lp1044
sg17
(lp1045
sg19
(lp1046
sg21
I0
sba(iArchitecture
Entity
p1047
(dp1048
g11
(lp1049
sg13
S'core.jni.android.graphics.SurfaceTexture.c'
p1050
sg15
(lp1051
sg17
(lp1052
sg19
(lp1053
sg21
I0
sba(iArchitecture
Entity
p1054
(dp1055
g11
(lp1056
sg13
S'core.jni.android.graphics.pdf.PdfEditor.c'
p1057
sg15
(lp1058
sg17
(lp1059
sg19
(lp1060
sg21
I0
sba(iArchitecture
Entity
p1061
(dp1062
g11
(lp1063
sg13
S'core.jni.android.opengl.poly_clip.c'
p1064
sg15
(lp1065
sg17
(lp1066
sg19
(lp1067
sg21
I0
sba(iArchitecture
Entity
p1068
(dp1069
g11
(lp1070
sg13
S'core.jni.android_animation_PropertyValuesHolder.c'
p1071
sg15
(lp1072
sg17
(lp1073
sg19
(lp1074
sg21
I0
sba(iArchitecture
Entity
p1075
(dp1076
g11
(lp1077
sg13
S'core.jni.android_app_backup_FullBackup.c'
p1078
sg15
(lp1079
sg17
(lp1080
sg19
(lp1081
sg21
I0
sba(iArchitecture
Entity
p1082
(dp1083
g11
(lp1084
sg13
S'core.jni.android_backup_BackupDataInput.c'
p1085
sg15
(lp1086
sg17
(lp1087
sg19
(lp1088
sg21
I0
sba(iArchitecture
Entity
p1089
(dp1090
g11
(lp1091
sg13
S'core.jni.android_backup_BackupDataOutput.c'
p1092
sg15
(lp1093
sg17
(lp1094
sg19
(lp1095
sg21
I0
sba(iArchitecture
Entity
p1096
(dp1097
g11
(lp1098
sg13
S'core.jni.android_backup_BackupHelperDispatcher.c'
p1099
sg15
(lp1100
sg17
(lp1101
sg19
(lp1102
sg21
I0
sba(iArchitecture
Entity
p1103
(dp1104
g11
(lp1105
sg13
S'core.jni.android_backup_FileBackupHelperBase.c'
p1106
sg15
(lp1107
sg17
(lp1108
sg19
(lp1109
sg21
I0
sba(iArchitecture
Entity
p1110
(dp1111
g11
(lp1112
sg13
S'core.jni.android_content_res_Configuration.c'
p1113
sg15
(lp1114
sg17
(lp1115
sg19
(lp1116
sg21
I0
sba(iArchitecture
Entity
p1117
(dp1118
g11
(lp1119
sg13
S'core.jni.android_content_res_ObbScanner.c'
p1120
sg15
(lp1121
sg17
(lp1122
sg19
(lp1123
sg21
I0
sba(iArchitecture
Entity
p1124
(dp1125
g11
(lp1126
sg13
S'core.jni.android_database_CursorWindow.c'
p1127
sg15
(lp1128
sg17
(lp1129
sg19
(lp1130
sg21
I0
sba(iArchitecture
Entity
p1131
(dp1132
g11
(lp1133
sg13
S'core.jni.android_database_SQLiteConnection.c'
p1134
sg15
(lp1135
sg17
(lp1136
sg19
(lp1137
sg21
I0
sba(iArchitecture
Entity
p1138
(dp1139
g11
(lp1140
sg13
S'core.jni.android_database_SQLiteDebug.c'
p1141
sg15
(lp1142
sg17
(lp1143
sg19
(lp1144
sg21
I0
sba(iArchitecture
Entity
p1145
(dp1146
g11
(lp1147
sg13
S'core.jni.android_database_SQLiteGlobal.c'
p1148
sg15
(lp1149
sg17
(lp1150
sg19
(lp1151
sg21
I0
sba(iArchitecture
Entity
p1152
(dp1153
g11
(lp1154
sg13
S'core.jni.android_ddm_DdmHandleNativeHeap.c'
p1155
sg15
(lp1156
sg17
(lp1157
sg19
(lp1158
sg21
I0
sba(iArchitecture
Entity
p1159
(dp1160
g11
(lp1161
sg13
S'core.jni.android_hardware_Camera.c'
p1162
sg15
(lp1163
sg17
(lp1164
sg19
(lp1165
sg21
I0
sba(iArchitecture
Entity
p1166
(dp1167
g11
(lp1168
sg13
S'core.jni.android_hardware_Radio.c'
p1169
sg15
(lp1170
sg17
(lp1171
sg19
(lp1172
sg21
I0
sba(iArchitecture
Entity
p1173
(dp1174
g11
(lp1175
sg13
S'core.jni.android_hardware_SensorManager.c'
p1176
sg15
(lp1177
sg17
(lp1178
sg19
(lp1179
sg21
I0
sba(iArchitecture
Entity
p1180
(dp1181
g11
(lp1182
sg13
S'core.jni.android_hardware_SerialPort.c'
p1183
sg15
(lp1184
sg17
(lp1185
sg19
(lp1186
sg21
I0
sba(iArchitecture
Entity
p1187
(dp1188
g11
(lp1189
sg13
S'core.jni.android_hardware_SoundTrigger.c'
p1190
sg15
(lp1191
sg17
(lp1192
sg19
(lp1193
sg21
I0
sba(iArchitecture
Entity
p1194
(dp1195
g11
(lp1196
sg13
S'core.jni.android_hardware_UsbDevice.c'
p1197
sg15
(lp1198
sg17
(lp1199
sg19
(lp1200
sg21
I0
sba(iArchitecture
Entity
p1201
(dp1202
g11
(lp1203
sg13
S'core.jni.android_hardware_UsbDeviceConnection.c'
p1204
sg15
(lp1205
sg17
(lp1206
sg19
(lp1207
sg21
I0
sba(iArchitecture
Entity
p1208
(dp1209
g11
(lp1210
sg13
S'core.jni.android_hardware_UsbRequest.c'
p1211
sg15
(lp1212
sg17
(lp1213
sg19
(lp1214
sg21
I0
sba(iArchitecture
Entity
p1215
(dp1216
g11
(lp1217
sg13
S'core.jni.android_hardware_camera2_CameraMetadata.c'
p1218
sg15
(lp1219
sg17
(lp1220
sg19
(lp1221
sg21
I0
sba(iArchitecture
Entity
p1222
(dp1223
g11
(lp1224
sg13
S'core.jni.android_hardware_camera2_DngCreator.c'
p1225
sg15
(lp1226
sg17
(lp1227
sg19
(lp1228
sg21
I0
sba(iArchitecture
Entity
p1229
(dp1230
g11
(lp1231
sg13
S'core.jni.android_hardware_camera2_legacy_LegacyCameraDevice.c'
p1232
sg15
(lp1233
sg17
(lp1234
sg19
(lp1235
sg21
I0
sba(iArchitecture
Entity
p1236
(dp1237
g11
(lp1238
sg13
S'core.jni.android_hardware_camera2_legacy_PerfMeasurement.c'
p1239
sg15
(lp1240
sg17
(lp1241
sg19
(lp1242
sg21
I0
sba(iArchitecture
Entity
p1243
(dp1244
g11
(lp1245
sg13
S'core.jni.android_hardware_location_ActivityRecognitionHardware.c'
p1246
sg15
(lp1247
sg17
(lp1248
sg19
(lp1249
sg21
I0
sba(iArchitecture
Entity
p1250
(dp1251
g11
(lp1252
sg13
S'core.jni.android_media_AudioRecord.c'
p1253
sg15
(lp1254
sg17
(lp1255
sg19
(lp1256
sg21
I0
sba(iArchitecture
Entity
p1257
(dp1258
g11
(lp1259
sg13
S'core.jni.android_media_AudioSystem.c'
p1260
sg15
(lp1261
sg17
(lp1262
sg19
(lp1263
sg21
I0
sba(iArchitecture
Entity
p1264
(dp1265
g11
(lp1266
sg13
S'core.jni.android_media_JetPlayer.c'
p1267
sg15
(lp1268
sg17
(lp1269
sg19
(lp1270
sg21
I0
sba(iArchitecture
Entity
p1271
(dp1272
g11
(lp1273
sg13
S'core.jni.android_media_RemoteDisplay.c'
p1274
sg15
(lp1275
sg17
(lp1276
sg19
(lp1277
sg21
I0
sba(iArchitecture
Entity
p1278
(dp1279
g11
(lp1280
sg13
S'core.jni.android_media_ToneGenerator.c'
p1281
sg15
(lp1282
sg17
(lp1283
sg19
(lp1284
sg21
I0
sba(iArchitecture
Entity
p1285
(dp1286
g11
(lp1287
sg13
S'core.jni.android_net_NetUtils.c'
p1288
sg15
(lp1289
sg17
(lp1290
sg19
(lp1291
sg21
I0
sba(iArchitecture
Entity
p1292
(dp1293
g11
(lp1294
sg13
S'core.jni.android_net_TrafficStats.c'
p1295
sg15
(lp1296
sg17
(lp1297
sg19
(lp1298
sg21
I0
sba(iArchitecture
Entity
p1299
(dp1300
g11
(lp1301
sg13
S'core.jni.android_opengl_EGL14.c'
p1302
sg15
(lp1303
sg17
(lp1304
sg19
(lp1305
sg21
I0
sba(iArchitecture
Entity
p1306
(dp1307
g11
(lp1308
sg13
S'core.jni.android_opengl_EGLExt.c'
p1309
sg15
(lp1310
sg17
(lp1311
sg19
(lp1312
sg21
I0
sba(iArchitecture
Entity
p1313
(dp1314
g11
(lp1315
sg13
S'core.jni.android_opengl_GLES10.c'
p1316
sg15
(lp1317
sg17
(lp1318
sg19
(lp1319
sg21
I0
sba(iArchitecture
Entity
p1320
(dp1321
g11
(lp1322
sg13
S'core.jni.android_opengl_GLES10Ext.c'
p1323
sg15
(lp1324
sg17
(lp1325
sg19
(lp1326
sg21
I0
sba(iArchitecture
Entity
p1327
(dp1328
g11
(lp1329
sg13
S'core.jni.android_opengl_GLES11.c'
p1330
sg15
(lp1331
sg17
(lp1332
sg19
(lp1333
sg21
I0
sba(iArchitecture
Entity
p1334
(dp1335
g11
(lp1336
sg13
S'core.jni.android_opengl_GLES11Ext.c'
p1337
sg15
(lp1338
sg17
(lp1339
sg19
(lp1340
sg21
I0
sba(iArchitecture
Entity
p1341
(dp1342
g11
(lp1343
sg13
S'core.jni.android_opengl_GLES20.c'
p1344
sg15
(lp1345
sg17
(lp1346
sg19
(lp1347
sg21
I0
sba(iArchitecture
Entity
p1348
(dp1349
g11
(lp1350
sg13
S'core.jni.android_opengl_GLES30.c'
p1351
sg15
(lp1352
sg17
(lp1353
sg19
(lp1354
sg21
I0
sba(iArchitecture
Entity
p1355
(dp1356
g11
(lp1357
sg13
S'core.jni.android_opengl_GLES31.c'
p1358
sg15
(lp1359
sg17
(lp1360
sg19
(lp1361
sg21
I0
sba(iArchitecture
Entity
p1362
(dp1363
g11
(lp1364
sg13
S'core.jni.android_opengl_GLES31Ext.c'
p1365
sg15
(lp1366
sg17
(lp1367
sg19
(lp1368
sg21
I0
sba(iArchitecture
Entity
p1369
(dp1370
g11
(lp1371
sg13
S'core.jni.android_os_MemoryFile.c'
p1372
sg15
(lp1373
sg17
(lp1374
sg19
(lp1375
sg21
I0
sba(iArchitecture
Entity
p1376
(dp1377
g11
(lp1378
sg13
S'core.jni.android_os_SELinux.c'
p1379
sg15
(lp1380
sg17
(lp1381
sg19
(lp1382
sg21
I0
sba(iArchitecture
Entity
p1383
(dp1384
g11
(lp1385
sg13
S'core.jni.android_os_SystemClock.c'
p1386
sg15
(lp1387
sg17
(lp1388
sg19
(lp1389
sg21
I0
sba(iArchitecture
Entity
p1390
(dp1391
g11
(lp1392
sg13
S'core.jni.android_os_SystemProperties.c'
p1393
sg15
(lp1394
sg17
(lp1395
sg19
(lp1396
sg21
I0
sba(iArchitecture
Entity
p1397
(dp1398
g11
(lp1399
sg13
S'core.jni.android_os_Trace.c'
p1400
sg15
(lp1401
sg17
(lp1402
sg19
(lp1403
sg21
I0
sba(iArchitecture
Entity
p1404
(dp1405
g11
(lp1406
sg13
S'core.jni.android_os_UEventObserver.c'
p1407
sg15
(lp1408
sg17
(lp1409
sg19
(lp1410
sg21
I0
sba(iArchitecture
Entity
p1411
(dp1412
g11
(lp1413
sg13
S'core.jni.android_server_Watchdog.c'
p1414
sg15
(lp1415
sg17
(lp1416
sg19
(lp1417
sg21
I0
sba(iArchitecture
Entity
p1418
(dp1419
g11
(lp1420
sg13
S'core.jni.android_text_AndroidBidi.c'
p1421
sg15
(lp1422
sg17
(lp1423
sg19
(lp1424
sg21
I0
sba(iArchitecture
Entity
p1425
(dp1426
g11
(lp1427
sg13
S'core.jni.android_text_AndroidCharacter.c'
p1428
sg15
(lp1429
sg17
(lp1430
sg19
(lp1431
sg21
I0
sba(iArchitecture
Entity
p1432
(dp1433
g11
(lp1434
sg13
S'core.jni.android_util_AssetManager.c'
p1435
sg15
(lp1436
sg17
(lp1437
sg19
(lp1438
sg21
I0
sba(iArchitecture
Entity
p1439
(dp1440
g11
(lp1441
sg13
S'core.jni.android_util_EventLog.c'
p1442
sg15
(lp1443
sg17
(lp1444
sg19
(lp1445
sg21
I0
sba(iArchitecture
Entity
p1446
(dp1447
g11
(lp1448
sg13
S'core.jni.android_util_FileObserver.c'
p1449
sg15
(lp1450
sg17
(lp1451
sg19
(lp1452
sg21
I0
sba(iArchitecture
Entity
p1453
(dp1454
g11
(lp1455
sg13
S'core.jni.android_util_Process.c'
p1456
sg15
(lp1457
sg17
(lp1458
sg19
(lp1459
sg21
I0
sba(iArchitecture
Entity
p1460
(dp1461
g11
(lp1462
sg13
S'core.jni.android_util_StringBlock.c'
p1463
sg15
(lp1464
sg17
(lp1465
sg19
(lp1466
sg21
I0
sba(iArchitecture
Entity
p1467
(dp1468
g11
(lp1469
sg13
S'core.jni.android_util_XmlBlock.c'
p1470
sg15
(lp1471
sg17
(lp1472
sg19
(lp1473
sg21
I0
sba(iArchitecture
Entity
p1474
(dp1475
g11
(lp1476
sg13
S'core.jni.android_view_DisplayEventReceiver.c'
p1477
sg15
(lp1478
sg17
(lp1479
sg19
(lp1480
sg21
I0
sba(iArchitecture
Entity
p1481
(dp1482
g11
(lp1483
sg13
S'core.jni.android_view_InputEventReceiver.c'
p1484
sg15
(lp1485
sg17
(lp1486
sg19
(lp1487
sg21
I0
sba(iArchitecture
Entity
p1488
(dp1489
g11
(lp1490
sg13
S'core.jni.android_view_InputEventSender.c'
p1491
sg15
(lp1492
sg17
(lp1493
sg19
(lp1494
sg21
I0
sba(iArchitecture
Entity
p1495
(dp1496
g11
(lp1497
sg13
S'core.jni.android_view_InputQueue.c'
p1498
sg15
(lp1499
sg17
(lp1500
sg19
(lp1501
sg21
I0
sba(iArchitecture
Entity
p1502
(dp1503
g11
(lp1504
sg13
S'core.jni.android_view_SurfaceSession.c'
p1505
sg15
(lp1506
sg17
(lp1507
sg19
(lp1508
sg21
I0
sba(iArchitecture
Entity
p1509
(dp1510
g11
(lp1511
sg13
S'core.jni.android_view_VelocityTracker.c'
p1512
sg15
(lp1513
sg17
(lp1514
sg19
(lp1515
sg21
I0
sba(iArchitecture
Entity
p1516
(dp1517
g11
(lp1518
sg13
S'core.jni.com_android_internal_content_NativeLibraryHelper.c'
p1519
sg15
(lp1520
sg17
(lp1521
sg19
(lp1522
sg21
I0
sba(iArchitecture
Entity
p1523
(dp1524
g11
(lp1525
sg13
S'core.jni.com_android_internal_net_NetworkStatsFactory.c'
p1526
sg15
(lp1527
sg17
(lp1528
sg19
(lp1529
sg21
I0
sba(iArchitecture
Entity
p1530
(dp1531
g11
(lp1532
sg13
S'core.jni.com_android_internal_os_Zygote.c'
p1533
sg15
(lp1534
sg17
(lp1535
sg19
(lp1536
sg21
I0
sba(iArchitecture
Entity
p1537
(dp1538
g11
(lp1539
sg13
S'core.jni.com_android_internal_util_VirtualRefBasePtr.c'
p1540
sg15
(lp1541
sg17
(lp1542
sg19
(lp1543
sg21
I0
sba(iArchitecture
Entity
p1544
(dp1545
g11
(lp1546
sg13
S'core.jni.com_android_internal_view_animation_NativeInterpolatorFactoryHelper.c'
p1547
sg15
(lp1548
sg17
(lp1549
sg19
(lp1550
sg21
I0
sba(iArchitecture
Entity
p1551
(dp1552
g11
(lp1553
sg13
S'core.jni.com_google_android_gles_jni_GLImpl.c'
p1554
sg15
(lp1555
sg17
(lp1556
sg19
(lp1557
sg21
I0
sba(iArchitecture
Entity
p1558
(dp1559
g11
(lp1560
sg13
S'services.core.jni.com_android_server_ConsumerIrService.c'
p1561
sg15
(lp1562
sg17
(lp1563
sg19
(lp1564
sg21
I0
sba(iArchitecture
Entity
p1565
(dp1566
g11
(lp1567
sg13
S'services.core.jni.com_android_server_PersistentDataBlockService.c'
p1568
sg15
(lp1569
sg17
(lp1570
sg19
(lp1571
sg21
I0
sba(iArchitecture
Entity
p1572
(dp1573
g11
(lp1574
sg13
S'services.core.jni.com_android_server_SerialService.c'
p1575
sg15
(lp1576
sg17
(lp1577
sg19
(lp1578
sg21
I0
sba(iArchitecture
Entity
p1579
(dp1580
g11
(lp1581
sg13
S'services.core.jni.com_android_server_UsbDeviceManager.c'
p1582
sg15
(lp1583
sg17
(lp1584
sg19
(lp1585
sg21
I0
sba(iArchitecture
Entity
p1586
(dp1587
g11
(lp1588
sg13
S'services.core.jni.com_android_server_UsbHostManager.c'
p1589
sg15
(lp1590
sg17
(lp1591
sg19
(lp1592
sg21
I0
sba(iArchitecture
Entity
p1593
(dp1594
g11
(lp1595
sg13
S'services.core.jni.com_android_server_UsbMidiDevice.c'
p1596
sg15
(lp1597
sg17
(lp1598
sg19
(lp1599
sg21
I0
sba(iArchitecture
Entity
p1600
(dp1601
g11
(lp1602
sg13
S'services.core.jni.com_android_server_VibratorService.c'
p1603
sg15
(lp1604
sg17
(lp1605
sg19
(lp1606
sg21
I0
sba(iArchitecture
Entity
p1607
(dp1608
g11
(lp1609
sg13
S'services.core.jni.com_android_server_am_BatteryStatsService.c'
p1610
sg15
(lp1611
sg17
(lp1612
sg19
(lp1613
sg21
I0
sba(iArchitecture
Entity
p1614
(dp1615
g11
(lp1616
sg13
S'services.core.jni.com_android_server_connectivity_Vpn.c'
p1617
sg15
(lp1618
sg17
(lp1619
sg19
(lp1620
sg21
I0
sba(iArchitecture
Entity
p1621
(dp1622
g11
(lp1623
sg13
S'services.core.jni.com_android_server_fingerprint_FingerprintService.c'
p1624
sg15
(lp1625
sg17
(lp1626
sg19
(lp1627
sg21
I0
sba(iArchitecture
Entity
p1628
(dp1629
g11
(lp1630
sg13
S'services.core.jni.com_android_server_hdmi_HdmiCecController.c'
p1631
sg15
(lp1632
sg17
(lp1633
sg19
(lp1634
sg21
I0
sba(iArchitecture
Entity
p1635
(dp1636
g11
(lp1637
sg13
S'services.core.jni.com_android_server_lights_LightsService.c'
p1638
sg15
(lp1639
sg17
(lp1640
sg19
(lp1641
sg21
I0
sba(iArchitecture
Entity
p1642
(dp1643
g11
(lp1644
sg13
S'services.core.jni.com_android_server_location_FlpHardwareProvider.c'
p1645
sg15
(lp1646
sg17
(lp1647
sg19
(lp1648
sg21
I0
sba(iArchitecture
Entity
p1649
(dp1650
g11
(lp1651
sg13
S'services.core.jni.com_android_server_location_GpsLocationProvider.c'
p1652
sg15
(lp1653
sg17
(lp1654
sg19
(lp1655
sg21
I0
sba(iArchitecture
Entity
p1656
(dp1657
g11
(lp1658
sg13
S'services.core.jni.com_android_server_tv_TvInputHal.c'
p1659
sg15
(lp1660
sg17
(lp1661
sg19
(lp1662
sg21
I0
sbasg29
(lp1663
g1015
ag1022
ag1029
ag1036
ag1043
ag1050
ag1057
ag1064
ag1071
ag1078
ag1085
ag1092
ag1099
ag1106
ag1113
ag1120
ag1127
ag1134
ag1141
ag1148
ag1155
ag1162
ag1169
ag1176
ag1183
ag1190
ag1197
ag1204
ag1211
ag1218
ag1225
ag1232
ag1239
ag1246
ag1253
ag1260
ag1267
ag1274
ag1281
ag1288
ag1295
ag1302
ag1309
ag1316
ag1323
ag1330
ag1337
ag1344
ag1351
ag1358
ag1365
ag1372
ag1379
ag1386
ag1393
ag1400
ag1407
ag1414
ag1421
ag1428
ag1435
ag1442
ag1449
ag1456
ag1463
ag1470
ag1477
ag1484
ag1491
ag1498
ag1505
ag1512
ag1519
ag1526
ag1533
ag1540
ag1547
ag1554
ag1561
ag1568
ag1575
ag1582
ag1589
ag1596
ag1603
ag1610
ag1617
ag1624
ag1631
ag1638
ag1645
ag1652
ag1659
asg21
I0
sg31
S'tools.split-select.TestRules.ch'
p1664
sbasS'target_sub'
p1665
S'core.jni'
p1666
sg29
(lp1667
sS'is_component_arch'
p1668
I00
sg31
S'6.0.0_r1'
p1669
sba(iArchitecture
Architecture
p1670
(dp1671
g3
(lp1672
(iArchitecture
Cluster
p1673
(dp1674
g7
(lp1675
(iArchitecture
Entity
p1676
(dp1677
g11
(lp1678
sg13
S'core.jni.android.graphics.Bitmap.c'
p1679
sg15
(lp1680
sg17
(lp1681
sg19
(lp1682
sg21
I0
sba(iArchitecture
Entity
p1683
(dp1684
g11
(lp1685
sg13
S'core.jni.android.graphics.Bitmap.h'
p1686
sg15
(lp1687
sg17
(lp1688
sg19
(lp1689
sg21
I0
sbasg29
(lp1690
g1679
ag1686
asg21
I0
sg31
S'core.jni.android.graphics.Bitmap.ch'
p1691
sba(iArchitecture
Cluster
p1692
(dp1693
g7
(lp1694
(iArchitecture
Entity
p1695
(dp1696
g11
(lp1697
sg13
S'core.jni.android.graphics.BitmapFactory.c'
p1698
sg15
(lp1699
sg17
(lp1700
sg19
(lp1701
sg21
I0
sba(iArchitecture
Entity
p1702
(dp1703
g11
(lp1704
sg13
S'core.jni.android.graphics.BitmapFactory.h'
p1705
sg15
(lp1706
sg17
(lp1707
sg19
(lp1708
sg21
I0
sbasg29
(lp1709
g1698
ag1705
asg21
I0
sg31
S'core.jni.android.graphics.BitmapFactory.ch'
p1710
sba(iArchitecture
Cluster
p1711
(dp1712
g7
(lp1713
(iArchitecture
Entity
p1714
(dp1715
g11
(lp1716
sg13
S'core.jni.android.graphics.CreateJavaOutputStreamAdaptor.c'
p1717
sg15
(lp1718
sg17
(lp1719
sg19
(lp1720
sg21
I0
sba(iArchitecture
Entity
p1721
(dp1722
g11
(lp1723
sg13
S'core.jni.android.graphics.CreateJavaOutputStreamAdaptor.h'
p1724
sg15
(lp1725
sg17
(lp1726
sg19
(lp1727
sg21
I0
sbasg29
(lp1728
g1717
ag1724
asg21
I0
sg31
S'core.jni.android.graphics.CreateJavaOutputStreamAdaptor.ch'
p1729
sba(iArchitecture
Cluster
p1730
(dp1731
g7
(lp1732
(iArchitecture
Entity
p1733
(dp1734
g11
(lp1735
sg13
S'core.jni.android.graphics.HarfBuzzNGFaceSkia.c'
p1736
sg15
(lp1737
sg17
(lp1738
sg19
(lp1739
sg21
I0
sba(iArchitecture
Entity
p1740
(dp1741
g11
(lp1742
sg13
S'core.jni.android.graphics.HarfBuzzNGFaceSkia.h'
p1743
sg15
(lp1744
sg17
(lp1745
sg19
(lp1746
sg21
I0
sbasg29
(lp1747
g1736
ag1743
asg21
I0
sg31
S'core.jni.android.graphics.HarfBuzzNGFaceSkia.ch'
p1748
sba(iArchitecture
Cluster
p1749
(dp1750
g7
(lp1751
(iArchitecture
Entity
p1752
(dp1753
g11
(lp1754
sg13
S'core.jni.android.graphics.Matrix.c'
p1755
sg15
(lp1756
sg17
(lp1757
sg19
(lp1758
sg21
I0
sba(iArchitecture
Entity
p1759
(dp1760
g11
(lp1761
sg13
S'core.jni.android.graphics.Matrix.h'
p1762
sg15
(lp1763
sg17
(lp1764
sg19
(lp1765
sg21
I0
sbasg29
(lp1766
g1755
ag1762
asg21
I0
sg31
S'core.jni.android.graphics.Matrix.ch'
p1767
sba(iArchitecture
Cluster
p1768
(dp1769
g7
(lp1770
(iArchitecture
Entity
p1771
(dp1772
g11
(lp1773
sg13
S'core.jni.android.graphics.NinePatchPeeker.c'
p1774
sg15
(lp1775
sg17
(lp1776
sg19
(lp1777
sg21
I0
sba(iArchitecture
Entity
p1778
(dp1779
g11
(lp1780
sg13
S'core.jni.android.graphics.NinePatchPeeker.h'
p1781
sg15
(lp1782
sg17
(lp1783
sg19
(lp1784
sg21
I0
sbasg29
(lp1785
g1774
ag1781
asg21
I0
sg31
S'core.jni.android.graphics.NinePatchPeeker.ch'
p1786
sba(iArchitecture
Cluster
p1787
(dp1788
g7
(lp1789
(iArchitecture
Entity
p1790
(dp1791
g11
(lp1792
sg13
S'core.jni.android.graphics.Picture.c'
p1793
sg15
(lp1794
sg17
(lp1795
sg19
(lp1796
sg21
I0
sba(iArchitecture
Entity
p1797
(dp1798
g11
(lp1799
sg13
S'core.jni.android.graphics.Picture.h'
p1800
sg15
(lp1801
sg17
(lp1802
sg19
(lp1803
sg21
I0
sbasg29
(lp1804
g1793
ag1800
asg21
I0
sg31
S'core.jni.android.graphics.Picture.ch'
p1805
sba(iArchitecture
Cluster
p1806
(dp1807
g7
(lp1808
(iArchitecture
Entity
p1809
(dp1810
g11
(lp1811
sg13
S'core.jni.android.graphics.Region.c'
p1812
sg15
(lp1813
sg17
(lp1814
sg19
(lp1815
sg21
I0
sba(iArchitecture
Entity
p1816
(dp1817
g11
(lp1818
sg13
S'core.jni.android.graphics.Region.h'
p1819
sg15
(lp1820
sg17
(lp1821
sg19
(lp1822
sg21
I0
sbasg29
(lp1823
g1812
ag1819
asg21
I0
sg31
S'core.jni.android.graphics.Region.ch'
p1824
sba(iArchitecture
Cluster
p1825
(dp1826
g7
(lp1827
(iArchitecture
Entity
p1828
(dp1829
g11
(lp1830
sg13
S'core.jni.android.graphics.Utils.c'
p1831
sg15
(lp1832
sg17
(lp1833
sg19
(lp1834
sg21
I0
sba(iArchitecture
Entity
p1835
(dp1836
g11
(lp1837
sg13
S'core.jni.android.graphics.Utils.h'
p1838
sg15
(lp1839
sg17
(lp1840
sg19
(lp1841
sg21
I0
sbasg29
(lp1842
g1831
ag1838
asg21
I0
sg31
S'core.jni.android.graphics.Utils.ch'
p1843
sba(iArchitecture
Cluster
p1844
(dp1845
g7
(lp1846
(iArchitecture
Entity
p1847
(dp1848
g11
(lp1849
sg13
S'core.jni.android.graphics.YuvToJpegEncoder.c'
p1850
sg15
(lp1851
sg17
(lp1852
sg19
(lp1853
sg21
I0
sba(iArchitecture
Entity
p1854
(dp1855
g11
(lp1856
sg13
S'core.jni.android.graphics.YuvToJpegEncoder.h'
p1857
sg15
(lp1858
sg17
(lp1859
sg19
(lp1860
sg21
I0
sbasg29
(lp1861
g1850
ag1857
asg21
I0
sg31
S'core.jni.android.graphics.YuvToJpegEncoder.ch'
p1862
sba(iArchitecture
Cluster
p1863
(dp1864
g7
(lp1865
(iArchitecture
Entity
p1866
(dp1867
g11
(lp1868
sg13
S'core.jni.android_database_SQLiteCommon.c'
p1869
sg15
(lp1870
sg17
(lp1871
sg19
(lp1872
sg21
I0
sba(iArchitecture
Entity
p1873
(dp1874
g11
(lp1875
sg13
S'core.jni.android_database_SQLiteCommon.h'
p1876
sg15
(lp1877
sg17
(lp1878
sg19
(lp1879
sg21
I0
sbasg29
(lp1880
g1869
ag1876
asg21
I0
sg31
S'core.jni.android_database_SQLiteCommon.ch'
p1881
sba(iArchitecture
Cluster
p1882
(dp1883
g7
(lp1884
(iArchitecture
Entity
p1885
(dp1886
g11
(lp1887
sg13
S'core.jni.android_media_AudioErrors.h'
p1888
sg15
(lp1889
sg17
(lp1890
sg19
(lp1891
sg21
I0
sba(iArchitecture
Entity
p1892
(dp1893
g11
(lp1894
sg13
S'core.jni.android_media_AudioFormat.h'
p1895
sg15
(lp1896
sg17
(lp1897
sg19
(lp1898
sg21
I0
sba(iArchitecture
Entity
p1899
(dp1900
g11
(lp1901
sg13
S'core.jni.android_media_AudioTrack.c'
p1902
sg15
(lp1903
sg17
(lp1904
sg19
(lp1905
sg21
I0
sba(iArchitecture
Entity
p1906
(dp1907
g11
(lp1908
sg13
S'core.jni.android_media_AudioTrack.h'
p1909
sg15
(lp1910
sg17
(lp1911
sg19
(lp1912
sg21
I0
sbasg29
(lp1913
g1888
ag1895
ag1902
ag1909
asg21
I0
sg31
S'core.jni.android_media_AudioTrack.ch'
p1914
sba(iArchitecture
Cluster
p1915
(dp1916
g7
(lp1917
(iArchitecture
Entity
p1918
(dp1919
g11
(lp1920
sg13
S'core.jni.android_media_DeviceCallback.c'
p1921
sg15
(lp1922
sg17
(lp1923
sg19
(lp1924
sg21
I0
sba(iArchitecture
Entity
p1925
(dp1926
g11
(lp1927
sg13
S'core.jni.android_media_DeviceCallback.h'
p1928
sg15
(lp1929
sg17
(lp1930
sg19
(lp1931
sg21
I0
sbasg29
(lp1932
g1921
ag1928
asg21
I0
sg31
S'core.jni.android_media_DeviceCallback.ch'
p1933
sba(iArchitecture
Cluster
p1934
(dp1935
g7
(lp1936
(iArchitecture
Entity
p1937
(dp1938
g11
(lp1939
sg13
S'core.jni.android_nio_utils.c'
p1940
sg15
(lp1941
sg17
(lp1942
sg19
(lp1943
sg21
I0
sba(iArchitecture
Entity
p1944
(dp1945
g11
(lp1946
sg13
S'core.jni.android_nio_utils.h'
p1947
sg15
(lp1948
sg17
(lp1949
sg19
(lp1950
sg21
I0
sbasg29
(lp1951
g1940
ag1947
asg21
I0
sg31
S'core.jni.android_nio_utils.ch'
p1952
sba(iArchitecture
Cluster
p1953
(dp1954
g7
(lp1955
(iArchitecture
Entity
p1956
(dp1957
g11
(lp1958
sg13
S'core.jni.android_os_MessageQueue.c'
p1959
sg15
(lp1960
sg17
(lp1961
sg19
(lp1962
sg21
I0
sba(iArchitecture
Entity
p1963
(dp1964
g11
(lp1965
sg13
S'core.jni.android_os_MessageQueue.h'
p1966
sg15
(lp1967
sg17
(lp1968
sg19
(lp1969
sg21
I0
sbasg29
(lp1970
g1959
ag1966
asg21
I0
sg31
S'core.jni.android_os_MessageQueue.ch'
p1971
sba(iArchitecture
Cluster
p1972
(dp1973
g7
(lp1974
(iArchitecture
Entity
p1975
(dp1976
g11
(lp1977
sg13
S'core.jni.android_os_Parcel.c'
p1978
sg15
(lp1979
sg17
(lp1980
sg19
(lp1981
sg21
I0
sba(iArchitecture
Entity
p1982
(dp1983
g11
(lp1984
sg13
S'core.jni.android_os_Parcel.h'
p1985
sg15
(lp1986
sg17
(lp1987
sg19
(lp1988
sg21
I0
sbasg29
(lp1989
g1978
ag1985
asg21
I0
sg31
S'core.jni.android_os_Parcel.ch'
p1990
sba(iArchitecture
Cluster
p1991
(dp1992
g7
(lp1993
(iArchitecture
Entity
p1994
(dp1995
g11
(lp1996
sg13
S'core.jni.android_util_Binder.c'
p1997
sg15
(lp1998
sg17
(lp1999
sg19
(lp2000
sg21
I0
sba(iArchitecture
Entity
p2001
(dp2002
g11
(lp2003
sg13
S'core.jni.android_util_Binder.h'
p2004
sg15
(lp2005
sg17
(lp2006
sg19
(lp2007
sg21
I0
sbasg29
(lp2008
g1997
ag2004
asg21
I0
sg31
S'core.jni.android_util_Binder.ch'
p2009
sba(iArchitecture
Cluster
p2010
(dp2011
g7
(lp2012
(iArchitecture
Entity
p2013
(dp2014
g11
(lp2015
sg13
S'core.jni.android_util_Log.c'
p2016
sg15
(lp2017
sg17
(lp2018
sg19
(lp2019
sg21
I0
sba(iArchitecture
Entity
p2020
(dp2021
g11
(lp2022
sg13
S'core.jni.android_util_Log.h'
p2023
sg15
(lp2024
sg17
(lp2025
sg19
(lp2026
sg21
I0
sbasg29
(lp2027
g2016
ag2023
asg21
I0
sg31
S'core.jni.android_util_Log.ch'
p2028
sba(iArchitecture
Cluster
p2029
(dp2030
g7
(lp2031
(iArchitecture
Entity
p2032
(dp2033
g11
(lp2034
sg13
S'core.jni.android_view_GraphicBuffer.c'
p2035
sg15
(lp2036
sg17
(lp2037
sg19
(lp2038
sg21
I0
sba(iArchitecture
Entity
p2039
(dp2040
g11
(lp2041
sg13
S'core.jni.android_view_GraphicBuffer.h'
p2042
sg15
(lp2043
sg17
(lp2044
sg19
(lp2045
sg21
I0
sbasg29
(lp2046
g2035
ag2042
asg21
I0
sg31
S'core.jni.android_view_GraphicBuffer.ch'
p2047
sba(iArchitecture
Cluster
p2048
(dp2049
g7
(lp2050
(iArchitecture
Entity
p2051
(dp2052
g11
(lp2053
sg13
S'core.jni.android_view_InputChannel.c'
p2054
sg15
(lp2055
sg17
(lp2056
sg19
(lp2057
sg21
I0
sba(iArchitecture
Entity
p2058
(dp2059
g11
(lp2060
sg13
S'core.jni.android_view_InputChannel.h'
p2061
sg15
(lp2062
sg17
(lp2063
sg19
(lp2064
sg21
I0
sbasg29
(lp2065
g2054
ag2061
asg21
I0
sg31
S'core.jni.android_view_InputChannel.ch'
p2066
sba(iArchitecture
Cluster
p2067
(dp2068
g7
(lp2069
(iArchitecture
Entity
p2070
(dp2071
g11
(lp2072
sg13
S'core.jni.android_view_InputDevice.c'
p2073
sg15
(lp2074
sg17
(lp2075
sg19
(lp2076
sg21
I0
sba(iArchitecture
Entity
p2077
(dp2078
g11
(lp2079
sg13
S'core.jni.android_view_InputDevice.h'
p2080
sg15
(lp2081
sg17
(lp2082
sg19
(lp2083
sg21
I0
sbasg29
(lp2084
g2073
ag2080
asg21
I0
sg31
S'core.jni.android_view_InputDevice.ch'
p2085
sba(iArchitecture
Cluster
p2086
(dp2087
g7
(lp2088
(iArchitecture
Entity
p2089
(dp2090
g11
(lp2091
sg13
S'core.jni.android_view_KeyCharacterMap.c'
p2092
sg15
(lp2093
sg17
(lp2094
sg19
(lp2095
sg21
I0
sba(iArchitecture
Entity
p2096
(dp2097
g11
(lp2098
sg13
S'core.jni.android_view_KeyCharacterMap.h'
p2099
sg15
(lp2100
sg17
(lp2101
sg19
(lp2102
sg21
I0
sbasg29
(lp2103
g2092
ag2099
asg21
I0
sg31
S'core.jni.android_view_KeyCharacterMap.ch'
p2104
sba(iArchitecture
Cluster
p2105
(dp2106
g7
(lp2107
(iArchitecture
Entity
p2108
(dp2109
g11
(lp2110
sg13
S'core.jni.android_view_KeyEvent.c'
p2111
sg15
(lp2112
sg17
(lp2113
sg19
(lp2114
sg21
I0
sba(iArchitecture
Entity
p2115
(dp2116
g11
(lp2117
sg13
S'core.jni.android_view_KeyEvent.h'
p2118
sg15
(lp2119
sg17
(lp2120
sg19
(lp2121
sg21
I0
sbasg29
(lp2122
g2111
ag2118
asg21
I0
sg31
S'core.jni.android_view_KeyEvent.ch'
p2123
sba(iArchitecture
Cluster
p2124
(dp2125
g7
(lp2126
(iArchitecture
Entity
p2127
(dp2128
g11
(lp2129
sg13
S'core.jni.android_view_MotionEvent.c'
p2130
sg15
(lp2131
sg17
(lp2132
sg19
(lp2133
sg21
I0
sba(iArchitecture
Entity
p2134
(dp2135
g11
(lp2136
sg13
S'core.jni.android_view_MotionEvent.h'
p2137
sg15
(lp2138
sg17
(lp2139
sg19
(lp2140
sg21
I0
sbasg29
(lp2141
g2130
ag2137
asg21
I0
sg31
S'core.jni.android_view_MotionEvent.ch'
p2142
sba(iArchitecture
Cluster
p2143
(dp2144
g7
(lp2145
(iArchitecture
Entity
p2146
(dp2147
g11
(lp2148
sg13
S'core.jni.android_view_PointerIcon.c'
p2149
sg15
(lp2150
sg17
(lp2151
sg19
(lp2152
sg21
I0
sba(iArchitecture
Entity
p2153
(dp2154
g11
(lp2155
sg13
S'core.jni.android_view_PointerIcon.h'
p2156
sg15
(lp2157
sg17
(lp2158
sg19
(lp2159
sg21
I0
sbasg29
(lp2160
g2149
ag2156
asg21
I0
sg31
S'core.jni.android_view_PointerIcon.ch'
p2161
sba(iArchitecture
Cluster
p2162
(dp2163
g7
(lp2164
(iArchitecture
Entity
p2165
(dp2166
g11
(lp2167
sg13
S'services.core.jni.com_android_server_SystemServer.c'
p2168
sg15
(lp2169
sg17
(lp2170
sg19
(lp2171
sg21
I0
sbasg29
(lp2172
g2168
asg21
I0
sg31
S'libs.hwui.Properties.ch'
p2173
sba(iArchitecture
Cluster
p2174
(dp2175
g7
(lp2176
(iArchitecture
Entity
p2177
(dp2178
g11
(lp2179
sg13
S'core.jni.android.graphics.ColorFilter.c'
p2180
sg15
(lp2181
sg17
(lp2182
sg19
(lp2183
sg21
I0
sba(iArchitecture
Entity
p2184
(dp2185
g11
(lp2186
sg13
S'core.jni.android.graphics.Graphics.c'
p2187
sg15
(lp2188
sg17
(lp2189
sg19
(lp2190
sg21
I0
sba(iArchitecture
Entity
p2191
(dp2192
g11
(lp2193
sg13
S'core.jni.android.graphics.Path.c'
p2194
sg15
(lp2195
sg17
(lp2196
sg19
(lp2197
sg21
I0
sba(iArchitecture
Entity
p2198
(dp2199
g11
(lp2200
sg13
S'core.jni.android.graphics.Shader.c'
p2201
sg15
(lp2202
sg17
(lp2203
sg19
(lp2204
sg21
I0
sba(iArchitecture
Entity
p2205
(dp2206
g11
(lp2207
sg13
S'core.jni.android_graphics_drawable_AnimatedVectorDrawable.c'
p2208
sg15
(lp2209
sg17
(lp2210
sg19
(lp2211
sg21
I0
sba(iArchitecture
Entity
p2212
(dp2213
g11
(lp2214
sg13
S'core.jni.android_graphics_drawable_VectorDrawable.c'
p2215
sg15
(lp2216
sg17
(lp2217
sg19
(lp2218
sg21
I0
sba(iArchitecture
Entity
p2219
(dp2220
g11
(lp2221
sg13
S'core.jni.android_util_PathParser.c'
p2222
sg15
(lp2223
sg17
(lp2224
sg19
(lp2225
sg21
I0
sba(iArchitecture
Entity
p2226
(dp2227
g11
(lp2228
sg13
S'core.jni.android_view_DisplayListCanvas.c'
p2229
sg15
(lp2230
sg17
(lp2231
sg19
(lp2232
sg21
I0
sba(iArchitecture
Entity
p2233
(dp2234
g11
(lp2235
sg13
S'core.jni.android_view_HardwareLayer.c'
p2236
sg15
(lp2237
sg17
(lp2238
sg19
(lp2239
sg21
I0
sba(iArchitecture
Entity
p2240
(dp2241
g11
(lp2242
sg13
S'core.jni.android_view_RenderNode.c'
p2243
sg15
(lp2244
sg17
(lp2245
sg19
(lp2246
sg21
I0
sba(iArchitecture
Entity
p2247
(dp2248
g11
(lp2249
sg13
S'core.jni.android_view_RenderNodeAnimator.c'
p2250
sg15
(lp2251
sg17
(lp2252
sg19
(lp2253
sg21
I0
sba(iArchitecture
Entity
p2254
(dp2255
g11
(lp2256
sg13
S'core.jni.android_view_Surface.c'
p2257
sg15
(lp2258
sg17
(lp2259
sg19
(lp2260
sg21
I0
sba(iArchitecture
Entity
p2261
(dp2262
g11
(lp2263
sg13
S'core.jni.android_view_ThreadedRenderer.c'
p2264
sg15
(lp2265
sg17
(lp2266
sg19
(lp2267
sg21
I0
sbasg29
(lp2268
g2180
ag2187
ag2194
ag2201
ag2208
ag2215
ag2222
ag2229
ag2236
ag2243
ag2250
ag2257
ag2264
asg21
I0
sg31
S'libs.hwui.utils.VectorDrawableUtils.ch'
p2269
sba(iArchitecture
Cluster
p2270
(dp2271
g7
(lp2272
(iArchitecture
Entity
p2273
(dp2274
g11
(lp2275
sg13
S'services.core.jni.com_android_server_input_InputApplicationHandle.c'
p2276
sg15
(lp2277
sg17
(lp2278
sg19
(lp2279
sg21
I0
sba(iArchitecture
Entity
p2280
(dp2281
g11
(lp2282
sg13
S'services.core.jni.com_android_server_input_InputApplicationHandle.h'
p2283
sg15
(lp2284
sg17
(lp2285
sg19
(lp2286
sg21
I0
sbasg29
(lp2287
g2276
ag2283
asg21
I0
sg31
S'services.core.jni.com_android_server_input_InputApplicationHandle.ch'
p2288
sba(iArchitecture
Cluster
p2289
(dp2290
g7
(lp2291
(iArchitecture
Entity
p2292
(dp2293
g11
(lp2294
sg13
S'services.core.jni.com_android_server_input_InputWindowHandle.c'
p2295
sg15
(lp2296
sg17
(lp2297
sg19
(lp2298
sg21
I0
sba(iArchitecture
Entity
p2299
(dp2300
g11
(lp2301
sg13
S'services.core.jni.com_android_server_input_InputWindowHandle.h'
p2302
sg15
(lp2303
sg17
(lp2304
sg19
(lp2305
sg21
I0
sbasg29
(lp2306
g2295
ag2302
asg21
I0
sg31
S'services.core.jni.com_android_server_input_InputWindowHandle.ch'
p2307
sba(iArchitecture
Cluster
p2308
(dp2309
g7
(lp2310
(iArchitecture
Entity
p2311
(dp2312
g11
(lp2313
sg13
S'services.core.jni.com_android_server_power_PowerManagerService.c'
p2314
sg15
(lp2315
sg17
(lp2316
sg19
(lp2317
sg21
I0
sba(iArchitecture
Entity
p2318
(dp2319
g11
(lp2320
sg13
S'services.core.jni.com_android_server_power_PowerManagerService.h'
p2321
sg15
(lp2322
sg17
(lp2323
sg19
(lp2324
sg21
I0
sbasg29
(lp2325
g2314
ag2321
asg21
I0
sg31
S'services.core.jni.com_android_server_power_PowerManagerService.ch'
p2326
sba(iArchitecture
Cluster
p2327
(dp2328
g7
(lp2329
(iArchitecture
Entity
p2330
(dp2331
g11
(lp2332
sg13
S'services.core.jni.com_android_server_tv_TvKeys.h'
p2333
sg15
(lp2334
sg17
(lp2335
sg19
(lp2336
sg21
I0
sba(iArchitecture
Entity
p2337
(dp2338
g11
(lp2339
sg13
S'services.core.jni.com_android_server_tv_TvUinputBridge.c'
p2340
sg15
(lp2341
sg17
(lp2342
sg19
(lp2343
sg21
I0
sbasg29
(lp2344
g2333
ag2340
asg21
I0
sg31
S'services.core.jni.com_android_server_tv_TvUinputBridge.ss'
p2345
sba(iArchitecture
Cluster
p2346
(dp2347
g7
(lp2348
(iArchitecture
Entity
p2349
(dp2350
g11
(lp2351
sg13
S'core.jni.android.graphics.BitmapRegionDecoder.c'
p2352
sg15
(lp2353
sg17
(lp2354
sg19
(lp2355
sg21
I0
sba(iArchitecture
Entity
p2356
(dp2357
g11
(lp2358
sg13
S'core.jni.android.graphics.Camera.c'
p2359
sg15
(lp2360
sg17
(lp2361
sg19
(lp2362
sg21
I0
sba(iArchitecture
Entity
p2363
(dp2364
g11
(lp2365
sg13
S'core.jni.android.graphics.CanvasProperty.c'
p2366
sg15
(lp2367
sg17
(lp2368
sg19
(lp2369
sg21
I0
sba(iArchitecture
Entity
p2370
(dp2371
g11
(lp2372
sg13
S'core.jni.android.graphics.DrawFilter.c'
p2373
sg15
(lp2374
sg17
(lp2375
sg19
(lp2376
sg21
I0
sba(iArchitecture
Entity
p2377
(dp2378
g11
(lp2379
sg13
S'core.jni.android.graphics.FontFamily.c'
p2380
sg15
(lp2381
sg17
(lp2382
sg19
(lp2383
sg21
I0
sba(iArchitecture
Entity
p2384
(dp2385
g11
(lp2386
sg13
S'core.jni.android.graphics.GraphicsJNI.h'
p2387
sg15
(lp2388
sg17
(lp2389
sg19
(lp2390
sg21
I0
sba(iArchitecture
Entity
p2391
(dp2392
g11
(lp2393
sg13
S'core.jni.android.graphics.Interpolator.c'
p2394
sg15
(lp2395
sg17
(lp2396
sg19
(lp2397
sg21
I0
sba(iArchitecture
Entity
p2398
(dp2399
g11
(lp2400
sg13
S'core.jni.android.graphics.MaskFilter.c'
p2401
sg15
(lp2402
sg17
(lp2403
sg19
(lp2404
sg21
I0
sba(iArchitecture
Entity
p2405
(dp2406
g11
(lp2407
sg13
S'core.jni.android.graphics.Movie.c'
p2408
sg15
(lp2409
sg17
(lp2410
sg19
(lp2411
sg21
I0
sba(iArchitecture
Entity
p2412
(dp2413
g11
(lp2414
sg13
S'core.jni.android.graphics.NinePatch.c'
p2415
sg15
(lp2416
sg17
(lp2417
sg19
(lp2418
sg21
I0
sba(iArchitecture
Entity
p2419
(dp2420
g11
(lp2421
sg13
S'core.jni.android.graphics.Paint.c'
p2422
sg15
(lp2423
sg17
(lp2424
sg19
(lp2425
sg21
I0
sba(iArchitecture
Entity
p2426
(dp2427
g11
(lp2428
sg13
S'core.jni.android.graphics.PathEffect.c'
p2429
sg15
(lp2430
sg17
(lp2431
sg19
(lp2432
sg21
I0
sba(iArchitecture
Entity
p2433
(dp2434
g11
(lp2435
sg13
S'core.jni.android.graphics.PathMeasure.c'
p2436
sg15
(lp2437
sg17
(lp2438
sg19
(lp2439
sg21
I0
sba(iArchitecture
Entity
p2440
(dp2441
g11
(lp2442
sg13
S'core.jni.android.graphics.PorterDuff.c'
p2443
sg15
(lp2444
sg17
(lp2445
sg19
(lp2446
sg21
I0
sba(iArchitecture
Entity
p2447
(dp2448
g11
(lp2449
sg13
S'core.jni.android.graphics.Rasterizer.c'
p2450
sg15
(lp2451
sg17
(lp2452
sg19
(lp2453
sg21
I0
sba(iArchitecture
Entity
p2454
(dp2455
g11
(lp2456
sg13
S'core.jni.android.graphics.Typeface.c'
p2457
sg15
(lp2458
sg17
(lp2459
sg19
(lp2460
sg21
I0
sba(iArchitecture
Entity
p2461
(dp2462
g11
(lp2463
sg13
S'core.jni.android.graphics.pdf.PdfDocument.c'
p2464
sg15
(lp2465
sg17
(lp2466
sg19
(lp2467
sg21
I0
sba(iArchitecture
Entity
p2468
(dp2469
g11
(lp2470
sg13
S'core.jni.android.graphics.pdf.PdfRenderer.c'
p2471
sg15
(lp2472
sg17
(lp2473
sg19
(lp2474
sg21
I0
sba(iArchitecture
Entity
p2475
(dp2476
g11
(lp2477
sg13
S'core.jni.android.opengl.poly.h'
p2478
sg15
(lp2479
sg17
(lp2480
sg19
(lp2481
sg21
I0
sba(iArchitecture
Entity
p2482
(dp2483
g11
(lp2484
sg13
S'core.jni.android.opengl.util.c'
p2485
sg15
(lp2486
sg17
(lp2487
sg19
(lp2488
sg21
I0
sba(iArchitecture
Entity
p2489
(dp2490
g11
(lp2491
sg13
S'core.jni.android_graphics_Canvas.c'
p2492
sg15
(lp2493
sg17
(lp2494
sg19
(lp2495
sg21
I0
sba(iArchitecture
Entity
p2496
(dp2497
g11
(lp2498
sg13
S'core.jni.android_graphics_Picture.c'
p2499
sg15
(lp2500
sg17
(lp2501
sg19
(lp2502
sg21
I0
sba(iArchitecture
Entity
p2503
(dp2504
g11
(lp2505
sg13
S'core.jni.android_view_SurfaceControl.c'
p2506
sg15
(lp2507
sg17
(lp2508
sg19
(lp2509
sg21
I0
sba(iArchitecture
Entity
p2510
(dp2511
g11
(lp2512
sg13
S'core.jni.android_view_TextureView.c'
p2513
sg15
(lp2514
sg17
(lp2515
sg19
(lp2516
sg21
I0
sba(iArchitecture
Entity
p2517
(dp2518
g11
(lp2519
sg13
S'core.jni.core_jni_helpers.h'
p2520
sg15
(lp2521
sg17
(lp2522
sg19
(lp2523
sg21
I0
sbasg29
(lp2524
g2352
ag2359
ag2366
ag2373
ag2380
ag2387
ag2394
ag2401
ag2408
ag2415
ag2422
ag2429
ag2436
ag2443
ag2450
ag2457
ag2464
ag2471
ag2478
ag2485
ag2492
ag2499
ag2506
ag2513
ag2520
asg21
I0
sg31
S'tools.aapt2.util.Util.ch'
p2525
sba(iArchitecture
Cluster
p2526
(dp2527
g7
(lp2528
(iArchitecture
Entity
p2529
(dp2530
g11
(lp2531
sg13
S'core.jni.android_app_NativeActivity.c'
p2532
sg15
(lp2533
sg17
(lp2534
sg19
(lp2535
sg21
I0
sba(iArchitecture
Entity
p2536
(dp2537
g11
(lp2538
sg13
S'core.jni.android_net_LocalSocketImpl.c'
p2539
sg15
(lp2540
sg17
(lp2541
sg19
(lp2542
sg21
I0
sba(iArchitecture
Entity
p2543
(dp2544
g11
(lp2545
sg13
S'core.jni.android_os_Debug.c'
p2546
sg15
(lp2547
sg17
(lp2548
sg19
(lp2549
sg21
I0
sba(iArchitecture
Entity
p2550
(dp2551
g11
(lp2552
sg13
S'core.jni.android_server_NetworkManagementSocketTagger.c'
p2553
sg15
(lp2554
sg17
(lp2555
sg19
(lp2556
sg21
I0
sba(iArchitecture
Entity
p2557
(dp2558
g11
(lp2559
sg13
S'services.core.jni.com_android_server_AlarmManagerService.c'
p2560
sg15
(lp2561
sg17
(lp2562
sg19
(lp2563
sg21
I0
sba(iArchitecture
Entity
p2564
(dp2565
g11
(lp2566
sg13
S'services.core.jni.onload.c'
p2567
sg15
(lp2568
sg17
(lp2569
sg19
(lp2570
sg21
I0
sbasg29
(lp2571
g2532
ag2539
ag2546
ag2553
ag2560
ag2567
asg21
I0
sg31
S'tools.aapt2.xml.XmlUtil.ch'
p2572
sba(iArchitecture
Cluster
p2573
(dp2574
g7
(lp2575
(iArchitecture
Entity
p2576
(dp2577
g11
(lp2578
sg13
S'core.jni.AndroidRuntime.c'
p2579
sg15
(lp2580
sg17
(lp2581
sg19
(lp2582
sg21
I0
sba(iArchitecture
Entity
p2583
(dp2584
g11
(lp2585
sg13
S'core.jni.android.graphics.SurfaceTexture.c'
p2586
sg15
(lp2587
sg17
(lp2588
sg19
(lp2589
sg21
I0
sba(iArchitecture
Entity
p2590
(dp2591
g11
(lp2592
sg13
S'core.jni.android.graphics.Xfermode.c'
p2593
sg15
(lp2594
sg17
(lp2595
sg19
(lp2596
sg21
I0
sba(iArchitecture
Entity
p2597
(dp2598
g11
(lp2599
sg13
S'core.jni.android.graphics.pdf.PdfEditor.c'
p2600
sg15
(lp2601
sg17
(lp2602
sg19
(lp2603
sg21
I0
sba(iArchitecture
Entity
p2604
(dp2605
g11
(lp2606
sg13
S'core.jni.android.opengl.poly_clip.c'
p2607
sg15
(lp2608
sg17
(lp2609
sg19
(lp2610
sg21
I0
sba(iArchitecture
Entity
p2611
(dp2612
g11
(lp2613
sg13
S'core.jni.android_animation_PropertyValuesHolder.c'
p2614
sg15
(lp2615
sg17
(lp2616
sg19
(lp2617
sg21
I0
sba(iArchitecture
Entity
p2618
(dp2619
g11
(lp2620
sg13
S'core.jni.android_app_Activity.c'
p2621
sg15
(lp2622
sg17
(lp2623
sg19
(lp2624
sg21
I0
sba(iArchitecture
Entity
p2625
(dp2626
g11
(lp2627
sg13
S'core.jni.android_app_ApplicationLoaders.c'
p2628
sg15
(lp2629
sg17
(lp2630
sg19
(lp2631
sg21
I0
sba(iArchitecture
Entity
p2632
(dp2633
g11
(lp2634
sg13
S'core.jni.android_app_admin_SecurityLog.c'
p2635
sg15
(lp2636
sg17
(lp2637
sg19
(lp2638
sg21
I0
sba(iArchitecture
Entity
p2639
(dp2640
g11
(lp2641
sg13
S'core.jni.android_app_backup_FullBackup.c'
p2642
sg15
(lp2643
sg17
(lp2644
sg19
(lp2645
sg21
I0
sba(iArchitecture
Entity
p2646
(dp2647
g11
(lp2648
sg13
S'core.jni.android_backup_BackupDataInput.c'
p2649
sg15
(lp2650
sg17
(lp2651
sg19
(lp2652
sg21
I0
sba(iArchitecture
Entity
p2653
(dp2654
g11
(lp2655
sg13
S'core.jni.android_backup_BackupDataOutput.c'
p2656
sg15
(lp2657
sg17
(lp2658
sg19
(lp2659
sg21
I0
sba(iArchitecture
Entity
p2660
(dp2661
g11
(lp2662
sg13
S'core.jni.android_backup_BackupHelperDispatcher.c'
p2663
sg15
(lp2664
sg17
(lp2665
sg19
(lp2666
sg21
I0
sba(iArchitecture
Entity
p2667
(dp2668
g11
(lp2669
sg13
S'core.jni.android_backup_FileBackupHelperBase.c'
p2670
sg15
(lp2671
sg17
(lp2672
sg19
(lp2673
sg21
I0
sba(iArchitecture
Entity
p2674
(dp2675
g11
(lp2676
sg13
S'core.jni.android_content_res_Configuration.c'
p2677
sg15
(lp2678
sg17
(lp2679
sg19
(lp2680
sg21
I0
sba(iArchitecture
Entity
p2681
(dp2682
g11
(lp2683
sg13
S'core.jni.android_content_res_ObbScanner.c'
p2684
sg15
(lp2685
sg17
(lp2686
sg19
(lp2687
sg21
I0
sba(iArchitecture
Entity
p2688
(dp2689
g11
(lp2690
sg13
S'core.jni.android_database_CursorWindow.c'
p2691
sg15
(lp2692
sg17
(lp2693
sg19
(lp2694
sg21
I0
sba(iArchitecture
Entity
p2695
(dp2696
g11
(lp2697
sg13
S'core.jni.android_database_SQLiteConnection.c'
p2698
sg15
(lp2699
sg17
(lp2700
sg19
(lp2701
sg21
I0
sba(iArchitecture
Entity
p2702
(dp2703
g11
(lp2704
sg13
S'core.jni.android_database_SQLiteDebug.c'
p2705
sg15
(lp2706
sg17
(lp2707
sg19
(lp2708
sg21
I0
sba(iArchitecture
Entity
p2709
(dp2710
g11
(lp2711
sg13
S'core.jni.android_database_SQLiteGlobal.c'
p2712
sg15
(lp2713
sg17
(lp2714
sg19
(lp2715
sg21
I0
sba(iArchitecture
Entity
p2716
(dp2717
g11
(lp2718
sg13
S'core.jni.android_ddm_DdmHandleNativeHeap.c'
p2719
sg15
(lp2720
sg17
(lp2721
sg19
(lp2722
sg21
I0
sba(iArchitecture
Entity
p2723
(dp2724
g11
(lp2725
sg13
S'core.jni.android_hardware_Camera.c'
p2726
sg15
(lp2727
sg17
(lp2728
sg19
(lp2729
sg21
I0
sba(iArchitecture
Entity
p2730
(dp2731
g11
(lp2732
sg13
S'core.jni.android_hardware_Radio.c'
p2733
sg15
(lp2734
sg17
(lp2735
sg19
(lp2736
sg21
I0
sba(iArchitecture
Entity
p2737
(dp2738
g11
(lp2739
sg13
S'core.jni.android_hardware_SensorManager.c'
p2740
sg15
(lp2741
sg17
(lp2742
sg19
(lp2743
sg21
I0
sba(iArchitecture
Entity
p2744
(dp2745
g11
(lp2746
sg13
S'core.jni.android_hardware_SerialPort.c'
p2747
sg15
(lp2748
sg17
(lp2749
sg19
(lp2750
sg21
I0
sba(iArchitecture
Entity
p2751
(dp2752
g11
(lp2753
sg13
S'core.jni.android_hardware_SoundTrigger.c'
p2754
sg15
(lp2755
sg17
(lp2756
sg19
(lp2757
sg21
I0
sba(iArchitecture
Entity
p2758
(dp2759
g11
(lp2760
sg13
S'core.jni.android_hardware_UsbDevice.c'
p2761
sg15
(lp2762
sg17
(lp2763
sg19
(lp2764
sg21
I0
sba(iArchitecture
Entity
p2765
(dp2766
g11
(lp2767
sg13
S'core.jni.android_hardware_UsbDeviceConnection.c'
p2768
sg15
(lp2769
sg17
(lp2770
sg19
(lp2771
sg21
I0
sba(iArchitecture
Entity
p2772
(dp2773
g11
(lp2774
sg13
S'core.jni.android_hardware_UsbRequest.c'
p2775
sg15
(lp2776
sg17
(lp2777
sg19
(lp2778
sg21
I0
sba(iArchitecture
Entity
p2779
(dp2780
g11
(lp2781
sg13
S'core.jni.android_hardware_camera2_CameraMetadata.c'
p2782
sg15
(lp2783
sg17
(lp2784
sg19
(lp2785
sg21
I0
sba(iArchitecture
Entity
p2786
(dp2787
g11
(lp2788
sg13
S'core.jni.android_hardware_camera2_DngCreator.c'
p2789
sg15
(lp2790
sg17
(lp2791
sg19
(lp2792
sg21
I0
sba(iArchitecture
Entity
p2793
(dp2794
g11
(lp2795
sg13
S'core.jni.android_hardware_camera2_legacy_LegacyCameraDevice.c'
p2796
sg15
(lp2797
sg17
(lp2798
sg19
(lp2799
sg21
I0
sba(iArchitecture
Entity
p2800
(dp2801
g11
(lp2802
sg13
S'core.jni.android_hardware_camera2_legacy_PerfMeasurement.c'
p2803
sg15
(lp2804
sg17
(lp2805
sg19
(lp2806
sg21
I0
sba(iArchitecture
Entity
p2807
(dp2808
g11
(lp2809
sg13
S'core.jni.android_hardware_location_ActivityRecognitionHardware.c'
p2810
sg15
(lp2811
sg17
(lp2812
sg19
(lp2813
sg21
I0
sba(iArchitecture
Entity
p2814
(dp2815
g11
(lp2816
sg13
S'core.jni.android_hardware_location_ContextHubService.c'
p2817
sg15
(lp2818
sg17
(lp2819
sg19
(lp2820
sg21
I0
sba(iArchitecture
Entity
p2821
(dp2822
g11
(lp2823
sg13
S'core.jni.android_media_AudioRecord.c'
p2824
sg15
(lp2825
sg17
(lp2826
sg19
(lp2827
sg21
I0
sba(iArchitecture
Entity
p2828
(dp2829
g11
(lp2830
sg13
S'core.jni.android_media_AudioSystem.c'
p2831
sg15
(lp2832
sg17
(lp2833
sg19
(lp2834
sg21
I0
sba(iArchitecture
Entity
p2835
(dp2836
g11
(lp2837
sg13
S'core.jni.android_media_JetPlayer.c'
p2838
sg15
(lp2839
sg17
(lp2840
sg19
(lp2841
sg21
I0
sba(iArchitecture
Entity
p2842
(dp2843
g11
(lp2844
sg13
S'core.jni.android_media_RemoteDisplay.c'
p2845
sg15
(lp2846
sg17
(lp2847
sg19
(lp2848
sg21
I0
sba(iArchitecture
Entity
p2849
(dp2850
g11
(lp2851
sg13
S'core.jni.android_media_ToneGenerator.c'
p2852
sg15
(lp2853
sg17
(lp2854
sg19
(lp2855
sg21
I0
sba(iArchitecture
Entity
p2856
(dp2857
g11
(lp2858
sg13
S'core.jni.android_net_NetUtils.c'
p2859
sg15
(lp2860
sg17
(lp2861
sg19
(lp2862
sg21
I0
sba(iArchitecture
Entity
p2863
(dp2864
g11
(lp2865
sg13
S'core.jni.android_net_TrafficStats.c'
p2866
sg15
(lp2867
sg17
(lp2868
sg19
(lp2869
sg21
I0
sba(iArchitecture
Entity
p2870
(dp2871
g11
(lp2872
sg13
S'core.jni.android_opengl_EGL14.c'
p2873
sg15
(lp2874
sg17
(lp2875
sg19
(lp2876
sg21
I0
sba(iArchitecture
Entity
p2877
(dp2878
g11
(lp2879
sg13
S'core.jni.android_opengl_EGLExt.c'
p2880
sg15
(lp2881
sg17
(lp2882
sg19
(lp2883
sg21
I0
sba(iArchitecture
Entity
p2884
(dp2885
g11
(lp2886
sg13
S'core.jni.android_opengl_GLES10.c'
p2887
sg15
(lp2888
sg17
(lp2889
sg19
(lp2890
sg21
I0
sba(iArchitecture
Entity
p2891
(dp2892
g11
(lp2893
sg13
S'core.jni.android_opengl_GLES10Ext.c'
p2894
sg15
(lp2895
sg17
(lp2896
sg19
(lp2897
sg21
I0
sba(iArchitecture
Entity
p2898
(dp2899
g11
(lp2900
sg13
S'core.jni.android_opengl_GLES11.c'
p2901
sg15
(lp2902
sg17
(lp2903
sg19
(lp2904
sg21
I0
sba(iArchitecture
Entity
p2905
(dp2906
g11
(lp2907
sg13
S'core.jni.android_opengl_GLES11Ext.c'
p2908
sg15
(lp2909
sg17
(lp2910
sg19
(lp2911
sg21
I0
sba(iArchitecture
Entity
p2912
(dp2913
g11
(lp2914
sg13
S'core.jni.android_opengl_GLES20.c'
p2915
sg15
(lp2916
sg17
(lp2917
sg19
(lp2918
sg21
I0
sba(iArchitecture
Entity
p2919
(dp2920
g11
(lp2921
sg13
S'core.jni.android_opengl_GLES30.c'
p2922
sg15
(lp2923
sg17
(lp2924
sg19
(lp2925
sg21
I0
sba(iArchitecture
Entity
p2926
(dp2927
g11
(lp2928
sg13
S'core.jni.android_opengl_GLES31.c'
p2929
sg15
(lp2930
sg17
(lp2931
sg19
(lp2932
sg21
I0
sba(iArchitecture
Entity
p2933
(dp2934
g11
(lp2935
sg13
S'core.jni.android_opengl_GLES31Ext.c'
p2936
sg15
(lp2937
sg17
(lp2938
sg19
(lp2939
sg21
I0
sba(iArchitecture
Entity
p2940
(dp2941
g11
(lp2942
sg13
S'core.jni.android_opengl_GLES32.c'
p2943
sg15
(lp2944
sg17
(lp2945
sg19
(lp2946
sg21
I0
sba(iArchitecture
Entity
p2947
(dp2948
g11
(lp2949
sg13
S'core.jni.android_os_MemoryFile.c'
p2950
sg15
(lp2951
sg17
(lp2952
sg19
(lp2953
sg21
I0
sba(iArchitecture
Entity
p2954
(dp2955
g11
(lp2956
sg13
S'core.jni.android_os_SELinux.c'
p2957
sg15
(lp2958
sg17
(lp2959
sg19
(lp2960
sg21
I0
sba(iArchitecture
Entity
p2961
(dp2962
g11
(lp2963
sg13
S'core.jni.android_os_SystemClock.c'
p2964
sg15
(lp2965
sg17
(lp2966
sg19
(lp2967
sg21
I0
sba(iArchitecture
Entity
p2968
(dp2969
g11
(lp2970
sg13
S'core.jni.android_os_SystemProperties.c'
p2971
sg15
(lp2972
sg17
(lp2973
sg19
(lp2974
sg21
I0
sba(iArchitecture
Entity
p2975
(dp2976
g11
(lp2977
sg13
S'core.jni.android_os_Trace.c'
p2978
sg15
(lp2979
sg17
(lp2980
sg19
(lp2981
sg21
I0
sba(iArchitecture
Entity
p2982
(dp2983
g11
(lp2984
sg13
S'core.jni.android_os_UEventObserver.c'
p2985
sg15
(lp2986
sg17
(lp2987
sg19
(lp2988
sg21
I0
sba(iArchitecture
Entity
p2989
(dp2990
g11
(lp2991
sg13
S'core.jni.android_server_Watchdog.c'
p2992
sg15
(lp2993
sg17
(lp2994
sg19
(lp2995
sg21
I0
sba(iArchitecture
Entity
p2996
(dp2997
g11
(lp2998
sg13
S'core.jni.android_text_AndroidBidi.c'
p2999
sg15
(lp3000
sg17
(lp3001
sg19
(lp3002
sg21
I0
sba(iArchitecture
Entity
p3003
(dp3004
g11
(lp3005
sg13
S'core.jni.android_text_AndroidCharacter.c'
p3006
sg15
(lp3007
sg17
(lp3008
sg19
(lp3009
sg21
I0
sba(iArchitecture
Entity
p3010
(dp3011
g11
(lp3012
sg13
S'core.jni.android_text_StaticLayout.c'
p3013
sg15
(lp3014
sg17
(lp3015
sg19
(lp3016
sg21
I0
sba(iArchitecture
Entity
p3017
(dp3018
g11
(lp3019
sg13
S'core.jni.android_util_AssetManager.c'
p3020
sg15
(lp3021
sg17
(lp3022
sg19
(lp3023
sg21
I0
sba(iArchitecture
Entity
p3024
(dp3025
g11
(lp3026
sg13
S'core.jni.android_util_EventLog.c'
p3027
sg15
(lp3028
sg17
(lp3029
sg19
(lp3030
sg21
I0
sba(iArchitecture
Entity
p3031
(dp3032
g11
(lp3033
sg13
S'core.jni.android_util_FileObserver.c'
p3034
sg15
(lp3035
sg17
(lp3036
sg19
(lp3037
sg21
I0
sba(iArchitecture
Entity
p3038
(dp3039
g11
(lp3040
sg13
S'core.jni.android_util_MemoryIntArray.c'
p3041
sg15
(lp3042
sg17
(lp3043
sg19
(lp3044
sg21
I0
sba(iArchitecture
Entity
p3045
(dp3046
g11
(lp3047
sg13
S'core.jni.android_util_Process.c'
p3048
sg15
(lp3049
sg17
(lp3050
sg19
(lp3051
sg21
I0
sba(iArchitecture
Entity
p3052
(dp3053
g11
(lp3054
sg13
S'core.jni.android_util_StringBlock.c'
p3055
sg15
(lp3056
sg17
(lp3057
sg19
(lp3058
sg21
I0
sba(iArchitecture
Entity
p3059
(dp3060
g11
(lp3061
sg13
S'core.jni.android_util_XmlBlock.c'
p3062
sg15
(lp3063
sg17
(lp3064
sg19
(lp3065
sg21
I0
sba(iArchitecture
Entity
p3066
(dp3067
g11
(lp3068
sg13
S'core.jni.android_util_jar_StrictJarFile.c'
p3069
sg15
(lp3070
sg17
(lp3071
sg19
(lp3072
sg21
I0
sba(iArchitecture
Entity
p3073
(dp3074
g11
(lp3075
sg13
S'core.jni.android_view_DisplayEventReceiver.c'
p3076
sg15
(lp3077
sg17
(lp3078
sg19
(lp3079
sg21
I0
sba(iArchitecture
Entity
p3080
(dp3081
g11
(lp3082
sg13
S'core.jni.android_view_InputEventReceiver.c'
p3083
sg15
(lp3084
sg17
(lp3085
sg19
(lp3086
sg21
I0
sba(iArchitecture
Entity
p3087
(dp3088
g11
(lp3089
sg13
S'core.jni.android_view_InputEventSender.c'
p3090
sg15
(lp3091
sg17
(lp3092
sg19
(lp3093
sg21
I0
sba(iArchitecture
Entity
p3094
(dp3095
g11
(lp3096
sg13
S'core.jni.android_view_InputQueue.c'
p3097
sg15
(lp3098
sg17
(lp3099
sg19
(lp3100
sg21
I0
sba(iArchitecture
Entity
p3101
(dp3102
g11
(lp3103
sg13
S'core.jni.android_view_SurfaceSession.c'
p3104
sg15
(lp3105
sg17
(lp3106
sg19
(lp3107
sg21
I0
sba(iArchitecture
Entity
p3108
(dp3109
g11
(lp3110
sg13
S'core.jni.android_view_VelocityTracker.c'
p3111
sg15
(lp3112
sg17
(lp3113
sg19
(lp3114
sg21
I0
sba(iArchitecture
Entity
p3115
(dp3116
g11
(lp3117
sg13
S'core.jni.com_android_internal_content_NativeLibraryHelper.c'
p3118
sg15
(lp3119
sg17
(lp3120
sg19
(lp3121
sg21
I0
sba(iArchitecture
Entity
p3122
(dp3123
g11
(lp3124
sg13
S'core.jni.com_android_internal_net_NetworkStatsFactory.c'
p3125
sg15
(lp3126
sg17
(lp3127
sg19
(lp3128
sg21
I0
sba(iArchitecture
Entity
p3129
(dp3130
g11
(lp3131
sg13
S'core.jni.com_android_internal_os_PathClassLoaderFactory.c'
p3132
sg15
(lp3133
sg17
(lp3134
sg19
(lp3135
sg21
I0
sba(iArchitecture
Entity
p3136
(dp3137
g11
(lp3138
sg13
S'core.jni.com_android_internal_os_Zygote.c'
p3139
sg15
(lp3140
sg17
(lp3141
sg19
(lp3142
sg21
I0
sba(iArchitecture
Entity
p3143
(dp3144
g11
(lp3145
sg13
S'core.jni.com_android_internal_util_VirtualRefBasePtr.c'
p3146
sg15
(lp3147
sg17
(lp3148
sg19
(lp3149
sg21
I0
sba(iArchitecture
Entity
p3150
(dp3151
g11
(lp3152
sg13
S'core.jni.com_android_internal_view_animation_NativeInterpolatorFactoryHelper.c'
p3153
sg15
(lp3154
sg17
(lp3155
sg19
(lp3156
sg21
I0
sba(iArchitecture
Entity
p3157
(dp3158
g11
(lp3159
sg13
S'core.jni.com_google_android_gles_jni_EGLImpl.c'
p3160
sg15
(lp3161
sg17
(lp3162
sg19
(lp3163
sg21
I0
sba(iArchitecture
Entity
p3164
(dp3165
g11
(lp3166
sg13
S'core.jni.com_google_android_gles_jni_GLImpl.c'
p3167
sg15
(lp3168
sg17
(lp3169
sg19
(lp3170
sg21
I0
sba(iArchitecture
Entity
p3171
(dp3172
g11
(lp3173
sg13
S'services.core.jni.com_android_server_AssetAtlasService.c'
p3174
sg15
(lp3175
sg17
(lp3176
sg19
(lp3177
sg21
I0
sba(iArchitecture
Entity
p3178
(dp3179
g11
(lp3180
sg13
S'services.core.jni.com_android_server_ConsumerIrService.c'
p3181
sg15
(lp3182
sg17
(lp3183
sg19
(lp3184
sg21
I0
sba(iArchitecture
Entity
p3185
(dp3186
g11
(lp3187
sg13
S'services.core.jni.com_android_server_HardwarePropertiesManagerService.c'
p3188
sg15
(lp3189
sg17
(lp3190
sg19
(lp3191
sg21
I0
sba(iArchitecture
Entity
p3192
(dp3193
g11
(lp3194
sg13
S'services.core.jni.com_android_server_PersistentDataBlockService.c'
p3195
sg15
(lp3196
sg17
(lp3197
sg19
(lp3198
sg21
I0
sba(iArchitecture
Entity
p3199
(dp3200
g11
(lp3201
sg13
S'services.core.jni.com_android_server_SerialService.c'
p3202
sg15
(lp3203
sg17
(lp3204
sg19
(lp3205
sg21
I0
sba(iArchitecture
Entity
p3206
(dp3207
g11
(lp3208
sg13
S'services.core.jni.com_android_server_UsbDeviceManager.c'
p3209
sg15
(lp3210
sg17
(lp3211
sg19
(lp3212
sg21
I0
sba(iArchitecture
Entity
p3213
(dp3214
g11
(lp3215
sg13
S'services.core.jni.com_android_server_UsbHostManager.c'
p3216
sg15
(lp3217
sg17
(lp3218
sg19
(lp3219
sg21
I0
sba(iArchitecture
Entity
p3220
(dp3221
g11
(lp3222
sg13
S'services.core.jni.com_android_server_UsbMidiDevice.c'
p3223
sg15
(lp3224
sg17
(lp3225
sg19
(lp3226
sg21
I0
sba(iArchitecture
Entity
p3227
(dp3228
g11
(lp3229
sg13
S'services.core.jni.com_android_server_VibratorService.c'
p3230
sg15
(lp3231
sg17
(lp3232
sg19
(lp3233
sg21
I0
sba(iArchitecture
Entity
p3234
(dp3235
g11
(lp3236
sg13
S'services.core.jni.com_android_server_am_ActivityManagerService.c'
p3237
sg15
(lp3238
sg17
(lp3239
sg19
(lp3240
sg21
I0
sba(iArchitecture
Entity
p3241
(dp3242
g11
(lp3243
sg13
S'services.core.jni.com_android_server_am_BatteryStatsService.c'
p3244
sg15
(lp3245
sg17
(lp3246
sg19
(lp3247
sg21
I0
sba(iArchitecture
Entity
p3248
(dp3249
g11
(lp3250
sg13
S'services.core.jni.com_android_server_connectivity_Vpn.c'
p3251
sg15
(lp3252
sg17
(lp3253
sg19
(lp3254
sg21
I0
sba(iArchitecture
Entity
p3255
(dp3256
g11
(lp3257
sg13
S'services.core.jni.com_android_server_fingerprint_FingerprintService.c'
p3258
sg15
(lp3259
sg17
(lp3260
sg19
(lp3261
sg21
I0
sba(iArchitecture
Entity
p3262
(dp3263
g11
(lp3264
sg13
S'services.core.jni.com_android_server_hdmi_HdmiCecController.c'
p3265
sg15
(lp3266
sg17
(lp3267
sg19
(lp3268
sg21
I0
sba(iArchitecture
Entity
p3269
(dp3270
g11
(lp3271
sg13
S'services.core.jni.com_android_server_input_InputManagerService.c'
p3272
sg15
(lp3273
sg17
(lp3274
sg19
(lp3275
sg21
I0
sba(iArchitecture
Entity
p3276
(dp3277
g11
(lp3278
sg13
S'services.core.jni.com_android_server_lights_LightsService.c'
p3279
sg15
(lp3280
sg17
(lp3281
sg19
(lp3282
sg21
I0
sba(iArchitecture
Entity
p3283
(dp3284
g11
(lp3285
sg13
S'services.core.jni.com_android_server_location_FlpHardwareProvider.c'
p3286
sg15
(lp3287
sg17
(lp3288
sg19
(lp3289
sg21
I0
sba(iArchitecture
Entity
p3290
(dp3291
g11
(lp3292
sg13
S'services.core.jni.com_android_server_location_GnssLocationProvider.c'
p3293
sg15
(lp3294
sg17
(lp3295
sg19
(lp3296
sg21
I0
sba(iArchitecture
Entity
p3297
(dp3298
g11
(lp3299
sg13
S'services.core.jni.com_android_server_tv_TvInputHal.c'
p3300
sg15
(lp3301
sg17
(lp3302
sg19
(lp3303
sg21
I0
sba(iArchitecture
Entity
p3304
(dp3305
g11
(lp3306
sg13
S'services.core.jni.com_android_server_vr_VrManagerService.c'
p3307
sg15
(lp3308
sg17
(lp3309
sg19
(lp3310
sg21
I0
sbasg29
(lp3311
g2579
ag2586
ag2593
ag2600
ag2607
ag2614
ag2621
ag2628
ag2635
ag2642
ag2649
ag2656
ag2663
ag2670
ag2677
ag2684
ag2691
ag2698
ag2705
ag2712
ag2719
ag2726
ag2733
ag2740
ag2747
ag2754
ag2761
ag2768
ag2775
ag2782
ag2789
ag2796
ag2803
ag2810
ag2817
ag2824
ag2831
ag2838
ag2845
ag2852
ag2859
ag2866
ag2873
ag2880
ag2887
ag2894
ag2901
ag2908
ag2915
ag2922
ag2929
ag2936
ag2943
ag2950
ag2957
ag2964
ag2971
ag2978
ag2985
ag2992
ag2999
ag3006
ag3013
ag3020
ag3027
ag3034
ag3041
ag3048
ag3055
ag3062
ag3069
ag3076
ag3083
ag3090
ag3097
ag3104
ag3111
ag3118
ag3125
ag3132
ag3139
ag3146
ag3153
ag3160
ag3167
ag3174
ag3181
ag3188
ag3195
ag3202
ag3209
ag3216
ag3223
ag3230
ag3237
ag3244
ag3251
ag3258
ag3265
ag3272
ag3279
ag3286
ag3293
ag3300
ag3307
asg21
I0
sg31
S'tools.split-select.TestRules.ch'
p3312
sbasg1665
g1666
sg29
(lp3313
sg1668
I00
sg31
S'7.0.0_r1'
p3314
sba.