(lp0
(iArchitecture
Architecture
p1
(dp2
S'clusters'
p3
(lp4
(iArchitecture
Cluster
p5
(dp6
S'entities'
p7
(lp8
(iArchitecture
Entity
p9
(dp10
S'issue_ids'
p11
(lp12
sS'name'
p13
S'include.androidfw.ZipUtils.h'
p14
sS'descs'
p15
(lp16
sS'labels'
p17
(lp18
sS'titles'
p19
(lp20
sS'change'
p21
I0
sbasS'classes'
p22
(lp23
g14
asg21
I0
sS'label'
p24
S'tools.aapt.ZipFile.ch'
p25
sba(iArchitecture
Cluster
p26
(dp27
g7
(lp28
(iArchitecture
Entity
p29
(dp30
g11
(lp31
sg13
S'include.androidfw.TypeWrappers.h'
p32
sg15
(lp33
sg17
(lp34
sg19
(lp35
sg21
I0
sbasg22
(lp36
g32
asg21
I0
sg24
S'tools.aapt2.BinaryResourceParser.ch'
p37
sba(iArchitecture
Cluster
p38
(dp39
g7
(lp40
(iArchitecture
Entity
p41
(dp42
g11
(lp43
sg13
S'include.androidfw.AssetDir.h'
p44
sg15
(lp45
sg17
(lp46
sg19
(lp47
sg21
I0
sba(iArchitecture
Entity
p48
(dp49
g11
(lp50
sg13
S'include.androidfw.AssetManager.h'
p51
sg15
(lp52
sg17
(lp53
sg19
(lp54
sg21
I0
sba(iArchitecture
Entity
p55
(dp56
g11
(lp57
sg13
S'include.androidfw.ZipFileRO.h'
p58
sg15
(lp59
sg17
(lp60
sg19
(lp61
sg21
I0
sba(iArchitecture
Entity
p62
(dp63
g11
(lp64
sg13
S'include.androidfw.misc.h'
p65
sg15
(lp66
sg17
(lp67
sg19
(lp68
sg21
I0
sbasg22
(lp69
g44
ag51
ag58
ag65
asg21
I0
sg24
S'tools.aapt2.XmlFlattener.ch'
p70
sba(iArchitecture
Cluster
p71
(dp72
g7
(lp73
(iArchitecture
Entity
p74
(dp75
g11
(lp76
sg13
S'include.androidfw.Asset.h'
p77
sg15
(lp78
sg17
(lp79
sg19
(lp80
sg21
I0
sba(iArchitecture
Entity
p81
(dp82
g11
(lp83
sg13
S'include.androidfw.AttributeFinder.h'
p84
sg15
(lp85
sg17
(lp86
sg19
(lp87
sg21
I0
sba(iArchitecture
Entity
p88
(dp89
g11
(lp90
sg13
S'include.androidfw.BackupHelpers.h'
p91
sg15
(lp92
sg17
(lp93
sg19
(lp94
sg21
I0
sba(iArchitecture
Entity
p95
(dp96
g11
(lp97
sg13
S'include.androidfw.ByteBucketArray.h'
p98
sg15
(lp99
sg17
(lp100
sg19
(lp101
sg21
I0
sba(iArchitecture
Entity
p102
(dp103
g11
(lp104
sg13
S'include.androidfw.CursorWindow.h'
p105
sg15
(lp106
sg17
(lp107
sg19
(lp108
sg21
I0
sba(iArchitecture
Entity
p109
(dp110
g11
(lp111
sg13
S'include.androidfw.ObbFile.h'
p112
sg15
(lp113
sg17
(lp114
sg19
(lp115
sg21
I0
sba(iArchitecture
Entity
p116
(dp117
g11
(lp118
sg13
S'include.androidfw.ResourceTypes.h'
p119
sg15
(lp120
sg17
(lp121
sg19
(lp122
sg21
I0
sba(iArchitecture
Entity
p123
(dp124
g11
(lp125
sg13
S'include.androidfw.StreamingZipInflater.h'
p126
sg15
(lp127
sg17
(lp128
sg19
(lp129
sg21
I0
sbasg22
(lp130
g77
ag84
ag91
ag98
ag105
ag112
ag119
ag126
asg21
I0
sg24
S'tools.split-select.TestRules.ch'
p131
sbasS'target_sub'
p132
S'include.androidfw'
p133
sg22
(lp134
sS'is_component_arch'
p135
I00
sg24
S'6.0.0_r1'
p136
sba(iArchitecture
Architecture
p137
(dp138
g3
(lp139
(iArchitecture
Cluster
p140
(dp141
g7
(lp142
(iArchitecture
Entity
p143
(dp144
g11
(lp145
sg13
S'include.androidfw.ZipUtils.h'
p146
sg15
(lp147
sg17
(lp148
sg19
(lp149
sg21
I0
sbasg22
(lp150
g146
asg21
I0
sg24
S'tools.aapt.ZipFile.ch'
p151
sba(iArchitecture
Cluster
p152
(dp153
g7
(lp154
(iArchitecture
Entity
p155
(dp156
g11
(lp157
sg13
S'include.androidfw.TypeWrappers.h'
p158
sg15
(lp159
sg17
(lp160
sg19
(lp161
sg21
I0
sbasg22
(lp162
g158
asg21
I0
sg24
S'tools.aapt2.unflatten.BinaryResourceParser.ch'
p163
sba(iArchitecture
Cluster
p164
(dp165
g7
(lp166
(iArchitecture
Entity
p167
(dp168
g11
(lp169
sg13
S'include.androidfw.AssetDir.h'
p170
sg15
(lp171
sg17
(lp172
sg19
(lp173
sg21
I0
sba(iArchitecture
Entity
p174
(dp175
g11
(lp176
sg13
S'include.androidfw.AssetManager.h'
p177
sg15
(lp178
sg17
(lp179
sg19
(lp180
sg21
I0
sba(iArchitecture
Entity
p181
(dp182
g11
(lp183
sg13
S'include.androidfw.ZipFileRO.h'
p184
sg15
(lp185
sg17
(lp186
sg19
(lp187
sg21
I0
sba(iArchitecture
Entity
p188
(dp189
g11
(lp190
sg13
S'include.androidfw.misc.h'
p191
sg15
(lp192
sg17
(lp193
sg19
(lp194
sg21
I0
sbasg22
(lp195
g170
ag177
ag184
ag191
asg21
I0
sg24
S'tools.aapt2.xml.XmlUtil.ch'
p196
sba(iArchitecture
Cluster
p197
(dp198
g7
(lp199
(iArchitecture
Entity
p200
(dp201
g11
(lp202
sg13
S'include.androidfw.Asset.h'
p203
sg15
(lp204
sg17
(lp205
sg19
(lp206
sg21
I0
sba(iArchitecture
Entity
p207
(dp208
g11
(lp209
sg13
S'include.androidfw.AttributeFinder.h'
p210
sg15
(lp211
sg17
(lp212
sg19
(lp213
sg21
I0
sba(iArchitecture
Entity
p214
(dp215
g11
(lp216
sg13
S'include.androidfw.BackupHelpers.h'
p217
sg15
(lp218
sg17
(lp219
sg19
(lp220
sg21
I0
sba(iArchitecture
Entity
p221
(dp222
g11
(lp223
sg13
S'include.androidfw.ByteBucketArray.h'
p224
sg15
(lp225
sg17
(lp226
sg19
(lp227
sg21
I0
sba(iArchitecture
Entity
p228
(dp229
g11
(lp230
sg13
S'include.androidfw.CursorWindow.h'
p231
sg15
(lp232
sg17
(lp233
sg19
(lp234
sg21
I0
sba(iArchitecture
Entity
p235
(dp236
g11
(lp237
sg13
S'include.androidfw.DisplayEventDispatcher.h'
p238
sg15
(lp239
sg17
(lp240
sg19
(lp241
sg21
I0
sba(iArchitecture
Entity
p242
(dp243
g11
(lp244
sg13
S'include.androidfw.LocaleData.h'
p245
sg15
(lp246
sg17
(lp247
sg19
(lp248
sg21
I0
sba(iArchitecture
Entity
p249
(dp250
g11
(lp251
sg13
S'include.androidfw.ObbFile.h'
p252
sg15
(lp253
sg17
(lp254
sg19
(lp255
sg21
I0
sba(iArchitecture
Entity
p256
(dp257
g11
(lp258
sg13
S'include.androidfw.ResourceTypes.h'
p259
sg15
(lp260
sg17
(lp261
sg19
(lp262
sg21
I0
sba(iArchitecture
Entity
p263
(dp264
g11
(lp265
sg13
S'include.androidfw.StreamingZipInflater.h'
p266
sg15
(lp267
sg17
(lp268
sg19
(lp269
sg21
I0
sbasg22
(lp270
g203
ag210
ag217
ag224
ag231
ag238
ag245
ag252
ag259
ag266
asg21
I0
sg24
S'tools.split-select.TestRules.ch'
p271
sbasg132
g133
sg22
(lp272
sg135
I00
sg24
S'7.0.0_r1'
p273
sba.