(lp0
(iArchitecture
Architecture
p1
(dp2
S'clusters'
p3
(lp4
(iArchitecture
Cluster
p5
(dp6
S'entities'
p7
(lp8
(iArchitecture
Entity
p9
(dp10
S'issue_ids'
p11
(lp12
sS'name'
p13
S'include.android_runtime.android_view_Surface.h'
p14
sS'descs'
p15
(lp16
sS'labels'
p17
(lp18
sS'titles'
p19
(lp20
sS'change'
p21
I0
sbasS'classes'
p22
(lp23
g14
asg21
I0
sS'label'
p24
S'media.jni.android_media_MediaSync.ch'
p25
sba(iArchitecture
Cluster
p26
(dp27
g7
(lp28
(iArchitecture
Entity
p29
(dp30
g11
(lp31
sg13
S'include.android_runtime.AndroidRuntime.h'
p32
sg15
(lp33
sg17
(lp34
sg19
(lp35
sg21
I0
sbasg22
(lp36
g32
asg21
I0
sg24
S'tools.aapt2.Util.ch'
p37
sba(iArchitecture
Cluster
p38
(dp39
g7
(lp40
(iArchitecture
Entity
p41
(dp42
g11
(lp43
sg13
S'include.android_runtime.Log.h'
p44
sg15
(lp45
sg17
(lp46
sg19
(lp47
sg21
I0
sba(iArchitecture
Entity
p48
(dp49
g11
(lp50
sg13
S'include.android_runtime.android_app_NativeActivity.h'
p51
sg15
(lp52
sg17
(lp53
sg19
(lp54
sg21
I0
sba(iArchitecture
Entity
p55
(dp56
g11
(lp57
sg13
S'include.android_runtime.android_content_res_Configuration.h'
p58
sg15
(lp59
sg17
(lp60
sg19
(lp61
sg21
I0
sba(iArchitecture
Entity
p62
(dp63
g11
(lp64
sg13
S'include.android_runtime.android_graphics_SurfaceTexture.h'
p65
sg15
(lp66
sg17
(lp67
sg19
(lp68
sg21
I0
sba(iArchitecture
Entity
p69
(dp70
g11
(lp71
sg13
S'include.android_runtime.android_hardware_camera2_CameraMetadata.h'
p72
sg15
(lp73
sg17
(lp74
sg19
(lp75
sg21
I0
sba(iArchitecture
Entity
p76
(dp77
g11
(lp78
sg13
S'include.android_runtime.android_util_AssetManager.h'
p79
sg15
(lp80
sg17
(lp81
sg19
(lp82
sg21
I0
sba(iArchitecture
Entity
p83
(dp84
g11
(lp85
sg13
S'include.android_runtime.android_view_InputQueue.h'
p86
sg15
(lp87
sg17
(lp88
sg19
(lp89
sg21
I0
sba(iArchitecture
Entity
p90
(dp91
g11
(lp92
sg13
S'include.android_runtime.android_view_SurfaceSession.h'
p93
sg15
(lp94
sg17
(lp95
sg19
(lp96
sg21
I0
sbasg22
(lp97
g44
ag51
ag58
ag65
ag72
ag79
ag86
ag93
asg21
I0
sg24
S'tools.split-select.TestRules.ch'
p98
sbasS'target_sub'
p99
S'include.android_runtime'
p100
sg22
(lp101
sS'is_component_arch'
p102
I00
sg24
S'6.0.0_r1'
p103
sba(iArchitecture
Architecture
p104
(dp105
g3
(lp106
(iArchitecture
Cluster
p107
(dp108
g7
(lp109
(iArchitecture
Entity
p110
(dp111
g11
(lp112
sg13
S'include.android_runtime.android_util_AssetManager.h'
p113
sg15
(lp114
sg17
(lp115
sg19
(lp116
sg21
I0
sbasg22
(lp117
g113
asg21
I0
sg24
S'libs.hwui.hwui.Typeface.ch'
p118
sba(iArchitecture
Cluster
p119
(dp120
g7
(lp121
(iArchitecture
Entity
p122
(dp123
g11
(lp124
sg13
S'include.android_runtime.android_view_Surface.h'
p125
sg15
(lp126
sg17
(lp127
sg19
(lp128
sg21
I0
sbasg22
(lp129
g125
asg21
I0
sg24
S'media.jni.android_media_MediaSync.ch'
p130
sba(iArchitecture
Cluster
p131
(dp132
g7
(lp133
(iArchitecture
Entity
p134
(dp135
g11
(lp136
sg13
S'include.android_runtime.AndroidRuntime.h'
p137
sg15
(lp138
sg17
(lp139
sg19
(lp140
sg21
I0
sbasg22
(lp141
g137
asg21
I0
sg24
S'tools.aapt2.util.Util.ch'
p142
sba(iArchitecture
Cluster
p143
(dp144
g7
(lp145
(iArchitecture
Entity
p146
(dp147
g11
(lp148
sg13
S'include.android_runtime.Log.h'
p149
sg15
(lp150
sg17
(lp151
sg19
(lp152
sg21
I0
sba(iArchitecture
Entity
p153
(dp154
g11
(lp155
sg13
S'include.android_runtime.android_app_NativeActivity.h'
p156
sg15
(lp157
sg17
(lp158
sg19
(lp159
sg21
I0
sba(iArchitecture
Entity
p160
(dp161
g11
(lp162
sg13
S'include.android_runtime.android_content_res_Configuration.h'
p163
sg15
(lp164
sg17
(lp165
sg19
(lp166
sg21
I0
sba(iArchitecture
Entity
p167
(dp168
g11
(lp169
sg13
S'include.android_runtime.android_graphics_SurfaceTexture.h'
p170
sg15
(lp171
sg17
(lp172
sg19
(lp173
sg21
I0
sba(iArchitecture
Entity
p174
(dp175
g11
(lp176
sg13
S'include.android_runtime.android_hardware_camera2_CameraMetadata.h'
p177
sg15
(lp178
sg17
(lp179
sg19
(lp180
sg21
I0
sba(iArchitecture
Entity
p181
(dp182
g11
(lp183
sg13
S'include.android_runtime.android_view_InputQueue.h'
p184
sg15
(lp185
sg17
(lp186
sg19
(lp187
sg21
I0
sba(iArchitecture
Entity
p188
(dp189
g11
(lp190
sg13
S'include.android_runtime.android_view_SurfaceSession.h'
p191
sg15
(lp192
sg17
(lp193
sg19
(lp194
sg21
I0
sbasg22
(lp195
g149
ag156
ag163
ag170
ag177
ag184
ag191
asg21
I0
sg24
S'tools.split-select.TestRules.ch'
p196
sbasg99
g100
sg22
(lp197
sg102
I00
sg24
S'7.0.0_r1'
p198
sba.