(lp0
(iArchitecture
Architecture
p1
(dp2
S'clusters'
p3
(lp4
sS'target_sub'
p5
S'packages.MtpDocumentsProvider'
p6
sS'classes'
p7
(lp8
sS'is_component_arch'
p9
I00
sS'label'
p10
S'6.0.0_r1'
p11
sba(iArchitecture
Architecture
p12
(dp13
g3
(lp14
(iArchitecture
Cluster
p15
(dp16
S'entities'
p17
(lp18
(iArchitecture
Entity
p19
(dp20
S'issue_ids'
p21
(lp22
sS'name'
p23
S'packages.MtpDocumentsProvider.jni.com_android_mtp_AppFuse.c'
p24
sS'descs'
p25
(lp26
sS'labels'
p27
(lp28
sS'titles'
p29
(lp30
sS'change'
p31
I0
sbasg7
(lp32
g24
asg31
I0
sg10
S'tools.split-select.TestRules.ch'
p33
sbasg5
g6
sg7
(lp34
sg9
I00
sg10
S'7.0.0_r1'
p35
sba.