(lp0
(iArchitecture
Architecture
p1
(dp2
S'clusters'
p3
(lp4
(iArchitecture
Cluster
p5
(dp6
S'entities'
p7
(lp8
(iArchitecture
Entity
p9
(dp10
S'issue_ids'
p11
(lp12
sS'name'
p13
S'include.storage.IMountService.h'
p14
sS'descs'
p15
(lp16
sS'labels'
p17
(lp18
sS'titles'
p19
(lp20
sS'change'
p21
I0
sba(iArchitecture
Entity
p22
(dp23
g11
(lp24
sg13
S'include.storage.IMountServiceListener.h'
p25
sg15
(lp26
sg17
(lp27
sg19
(lp28
sg21
I0
sba(iArchitecture
Entity
p29
(dp30
g11
(lp31
sg13
S'include.storage.IMountShutdownObserver.h'
p32
sg15
(lp33
sg17
(lp34
sg19
(lp35
sg21
I0
sba(iArchitecture
Entity
p36
(dp37
g11
(lp38
sg13
S'include.storage.IObbActionListener.h'
p39
sg15
(lp40
sg17
(lp41
sg19
(lp42
sg21
I0
sbasS'classes'
p43
(lp44
g14
ag25
ag32
ag39
asg21
I0
sS'label'
p45
S'tools.split-select.TestRules.ch'
p46
sbasS'target_sub'
p47
S'include.storage'
p48
sg43
(lp49
sS'is_component_arch'
p50
I00
sg45
S'6.0.0_r1'
p51
sba(iArchitecture
Architecture
p52
(dp53
g3
(lp54
(iArchitecture
Cluster
p55
(dp56
g7
(lp57
(iArchitecture
Entity
p58
(dp59
g11
(lp60
sg13
S'include.storage.IMountService.h'
p61
sg15
(lp62
sg17
(lp63
sg19
(lp64
sg21
I0
sba(iArchitecture
Entity
p65
(dp66
g11
(lp67
sg13
S'include.storage.IMountServiceListener.h'
p68
sg15
(lp69
sg17
(lp70
sg19
(lp71
sg21
I0
sba(iArchitecture
Entity
p72
(dp73
g11
(lp74
sg13
S'include.storage.IMountShutdownObserver.h'
p75
sg15
(lp76
sg17
(lp77
sg19
(lp78
sg21
I0
sba(iArchitecture
Entity
p79
(dp80
g11
(lp81
sg13
S'include.storage.IObbActionListener.h'
p82
sg15
(lp83
sg17
(lp84
sg19
(lp85
sg21
I0
sbasg43
(lp86
g61
ag68
ag75
ag82
asg21
I0
sg45
S'tools.split-select.TestRules.ch'
p87
sbasg47
g48
sg43
(lp88
sg50
I00
sg45
S'7.0.0_r1'
p89
sba.