(lp0
(iArchitecture
Architecture
p1
(dp2
S'clusters'
p3
(lp4
(iArchitecture
Cluster
p5
(dp6
S'entities'
p7
(lp8
(iArchitecture
Entity
p9
(dp10
S'issue_ids'
p11
(lp12
sS'name'
p13
S'libs.common_time.clock_recovery.c'
p14
sS'descs'
p15
(lp16
sS'labels'
p17
(lp18
sS'titles'
p19
(lp20
sS'change'
p21
I0
sba(iArchitecture
Entity
p22
(dp23
g11
(lp24
sg13
S'libs.common_time.clock_recovery.h'
p25
sg15
(lp26
sg17
(lp27
sg19
(lp28
sg21
I0
sbasS'classes'
p29
(lp30
g14
ag25
asg21
I0
sS'label'
p31
S'libs.common_time.clock_recovery.ch'
p32
sba(iArchitecture
Cluster
p33
(dp34
g7
(lp35
(iArchitecture
Entity
p36
(dp37
g11
(lp38
sg13
S'libs.common_time.common_clock.c'
p39
sg15
(lp40
sg17
(lp41
sg19
(lp42
sg21
I0
sba(iArchitecture
Entity
p43
(dp44
g11
(lp45
sg13
S'libs.common_time.common_clock.h'
p46
sg15
(lp47
sg17
(lp48
sg19
(lp49
sg21
I0
sbasg29
(lp50
g39
ag46
asg21
I0
sg31
S'libs.common_time.common_clock.ch'
p51
sba(iArchitecture
Cluster
p52
(dp53
g7
(lp54
(iArchitecture
Entity
p55
(dp56
g11
(lp57
sg13
S'libs.common_time.common_clock_service.c'
p58
sg15
(lp59
sg17
(lp60
sg19
(lp61
sg21
I0
sba(iArchitecture
Entity
p62
(dp63
g11
(lp64
sg13
S'libs.common_time.common_clock_service.h'
p65
sg15
(lp66
sg17
(lp67
sg19
(lp68
sg21
I0
sbasg29
(lp69
g58
ag65
asg21
I0
sg31
S'libs.common_time.common_clock_service.ch'
p70
sba(iArchitecture
Cluster
p71
(dp72
g7
(lp73
(iArchitecture
Entity
p74
(dp75
g11
(lp76
sg13
S'libs.common_time.common_time_config_service.c'
p77
sg15
(lp78
sg17
(lp79
sg19
(lp80
sg21
I0
sba(iArchitecture
Entity
p81
(dp82
g11
(lp83
sg13
S'libs.common_time.common_time_config_service.h'
p84
sg15
(lp85
sg17
(lp86
sg19
(lp87
sg21
I0
sbasg29
(lp88
g77
ag84
asg21
I0
sg31
S'libs.common_time.common_time_config_service.ch'
p89
sba(iArchitecture
Cluster
p90
(dp91
g7
(lp92
(iArchitecture
Entity
p93
(dp94
g11
(lp95
sg13
S'libs.common_time.common_time_server.c'
p96
sg15
(lp97
sg17
(lp98
sg19
(lp99
sg21
I0
sba(iArchitecture
Entity
p100
(dp101
g11
(lp102
sg13
S'libs.common_time.common_time_server.h'
p103
sg15
(lp104
sg17
(lp105
sg19
(lp106
sg21
I0
sbasg29
(lp107
g96
ag103
asg21
I0
sg31
S'libs.common_time.common_time_server.ch'
p108
sba(iArchitecture
Cluster
p109
(dp110
g7
(lp111
(iArchitecture
Entity
p112
(dp113
g11
(lp114
sg13
S'libs.common_time.common_time_server_packets.c'
p115
sg15
(lp116
sg17
(lp117
sg19
(lp118
sg21
I0
sba(iArchitecture
Entity
p119
(dp120
g11
(lp121
sg13
S'libs.common_time.common_time_server_packets.h'
p122
sg15
(lp123
sg17
(lp124
sg19
(lp125
sg21
I0
sbasg29
(lp126
g115
ag122
asg21
I0
sg31
S'libs.common_time.common_time_server_packets.ch'
p127
sba(iArchitecture
Cluster
p128
(dp129
g7
(lp130
(iArchitecture
Entity
p131
(dp132
g11
(lp133
sg13
S'libs.common_time.diag_thread.c'
p134
sg15
(lp135
sg17
(lp136
sg19
(lp137
sg21
I0
sba(iArchitecture
Entity
p138
(dp139
g11
(lp140
sg13
S'libs.common_time.diag_thread.h'
p141
sg15
(lp142
sg17
(lp143
sg19
(lp144
sg21
I0
sbasg29
(lp145
g134
ag141
asg21
I0
sg31
S'libs.common_time.diag_thread.ch'
p146
sba(iArchitecture
Cluster
p147
(dp148
g7
(lp149
(iArchitecture
Entity
p150
(dp151
g11
(lp152
sg13
S'libs.common_time.common_time_server_api.c'
p153
sg15
(lp154
sg17
(lp155
sg19
(lp156
sg21
I0
sba(iArchitecture
Entity
p157
(dp158
g11
(lp159
sg13
S'libs.common_time.main.c'
p160
sg15
(lp161
sg17
(lp162
sg19
(lp163
sg21
I0
sba(iArchitecture
Entity
p164
(dp165
g11
(lp166
sg13
S'libs.common_time.utils.c'
p167
sg15
(lp168
sg17
(lp169
sg19
(lp170
sg21
I0
sbasg29
(lp171
g153
ag160
ag167
asg21
I0
sg31
S'tools.split-select.TestRules.ch'
p172
sbasS'target_sub'
p173
S'libs.common_time'
p174
sg29
(lp175
sS'is_component_arch'
p176
I00
sg31
S'6.0.0_r1'
p177
sba(iArchitecture
Architecture
p178
(dp179
g3
(lp180
(iArchitecture
Cluster
p181
(dp182
g7
(lp183
(iArchitecture
Entity
p184
(dp185
g11
(lp186
sg13
S'libs.common_time.clock_recovery.c'
p187
sg15
(lp188
sg17
(lp189
sg19
(lp190
sg21
I0
sba(iArchitecture
Entity
p191
(dp192
g11
(lp193
sg13
S'libs.common_time.clock_recovery.h'
p194
sg15
(lp195
sg17
(lp196
sg19
(lp197
sg21
I0
sbasg29
(lp198
g187
ag194
asg21
I0
sg31
S'libs.common_time.clock_recovery.ch'
p199
sba(iArchitecture
Cluster
p200
(dp201
g7
(lp202
(iArchitecture
Entity
p203
(dp204
g11
(lp205
sg13
S'libs.common_time.common_clock.c'
p206
sg15
(lp207
sg17
(lp208
sg19
(lp209
sg21
I0
sba(iArchitecture
Entity
p210
(dp211
g11
(lp212
sg13
S'libs.common_time.common_clock.h'
p213
sg15
(lp214
sg17
(lp215
sg19
(lp216
sg21
I0
sbasg29
(lp217
g206
ag213
asg21
I0
sg31
S'libs.common_time.common_clock.ch'
p218
sba(iArchitecture
Cluster
p219
(dp220
g7
(lp221
(iArchitecture
Entity
p222
(dp223
g11
(lp224
sg13
S'libs.common_time.common_clock_service.c'
p225
sg15
(lp226
sg17
(lp227
sg19
(lp228
sg21
I0
sba(iArchitecture
Entity
p229
(dp230
g11
(lp231
sg13
S'libs.common_time.common_clock_service.h'
p232
sg15
(lp233
sg17
(lp234
sg19
(lp235
sg21
I0
sbasg29
(lp236
g225
ag232
asg21
I0
sg31
S'libs.common_time.common_clock_service.ch'
p237
sba(iArchitecture
Cluster
p238
(dp239
g7
(lp240
(iArchitecture
Entity
p241
(dp242
g11
(lp243
sg13
S'libs.common_time.common_time_config_service.c'
p244
sg15
(lp245
sg17
(lp246
sg19
(lp247
sg21
I0
sba(iArchitecture
Entity
p248
(dp249
g11
(lp250
sg13
S'libs.common_time.common_time_config_service.h'
p251
sg15
(lp252
sg17
(lp253
sg19
(lp254
sg21
I0
sbasg29
(lp255
g244
ag251
asg21
I0
sg31
S'libs.common_time.common_time_config_service.ch'
p256
sba(iArchitecture
Cluster
p257
(dp258
g7
(lp259
(iArchitecture
Entity
p260
(dp261
g11
(lp262
sg13
S'libs.common_time.common_time_server.c'
p263
sg15
(lp264
sg17
(lp265
sg19
(lp266
sg21
I0
sba(iArchitecture
Entity
p267
(dp268
g11
(lp269
sg13
S'libs.common_time.common_time_server.h'
p270
sg15
(lp271
sg17
(lp272
sg19
(lp273
sg21
I0
sbasg29
(lp274
g263
ag270
asg21
I0
sg31
S'libs.common_time.common_time_server.ch'
p275
sba(iArchitecture
Cluster
p276
(dp277
g7
(lp278
(iArchitecture
Entity
p279
(dp280
g11
(lp281
sg13
S'libs.common_time.common_time_server_packets.c'
p282
sg15
(lp283
sg17
(lp284
sg19
(lp285
sg21
I0
sba(iArchitecture
Entity
p286
(dp287
g11
(lp288
sg13
S'libs.common_time.common_time_server_packets.h'
p289
sg15
(lp290
sg17
(lp291
sg19
(lp292
sg21
I0
sbasg29
(lp293
g282
ag289
asg21
I0
sg31
S'libs.common_time.common_time_server_packets.ch'
p294
sba(iArchitecture
Cluster
p295
(dp296
g7
(lp297
(iArchitecture
Entity
p298
(dp299
g11
(lp300
sg13
S'libs.common_time.diag_thread.c'
p301
sg15
(lp302
sg17
(lp303
sg19
(lp304
sg21
I0
sba(iArchitecture
Entity
p305
(dp306
g11
(lp307
sg13
S'libs.common_time.diag_thread.h'
p308
sg15
(lp309
sg17
(lp310
sg19
(lp311
sg21
I0
sbasg29
(lp312
g301
ag308
asg21
I0
sg31
S'libs.common_time.diag_thread.ch'
p313
sba(iArchitecture
Cluster
p314
(dp315
g7
(lp316
(iArchitecture
Entity
p317
(dp318
g11
(lp319
sg13
S'libs.common_time.common_time_server_api.c'
p320
sg15
(lp321
sg17
(lp322
sg19
(lp323
sg21
I0
sba(iArchitecture
Entity
p324
(dp325
g11
(lp326
sg13
S'libs.common_time.main.c'
p327
sg15
(lp328
sg17
(lp329
sg19
(lp330
sg21
I0
sba(iArchitecture
Entity
p331
(dp332
g11
(lp333
sg13
S'libs.common_time.utils.c'
p334
sg15
(lp335
sg17
(lp336
sg19
(lp337
sg21
I0
sbasg29
(lp338
g320
ag327
ag334
asg21
I0
sg31
S'tools.split-select.TestRules.ch'
p339
sbasg173
g174
sg29
(lp340
sg176
I00
sg31
S'7.0.0_r1'
p341
sba.