(lp0
(iArchitecture
Architecture
p1
(dp2
S'clusters'
p3
(lp4
(iArchitecture
Cluster
p5
(dp6
S'entities'
p7
(lp8
(iArchitecture
Entity
p9
(dp10
S'issue_ids'
p11
(lp12
sS'name'
p13
S'services.core.jni.com_android_server_SystemServer.c'
p14
sS'descs'
p15
(lp16
sS'labels'
p17
(lp18
sS'titles'
p19
(lp20
sS'change'
p21
I0
sbasS'classes'
p22
(lp23
g14
asg21
I0
sS'label'
p24
S'libs.hwui.Properties.ch'
p25
sba(iArchitecture
Cluster
p26
(dp27
g7
(lp28
(iArchitecture
Entity
p29
(dp30
g11
(lp31
sg13
S'services.core.jni.com_android_server_input_InputApplicationHandle.c'
p32
sg15
(lp33
sg17
(lp34
sg19
(lp35
sg21
I0
sba(iArchitecture
Entity
p36
(dp37
g11
(lp38
sg13
S'services.core.jni.com_android_server_input_InputApplicationHandle.h'
p39
sg15
(lp40
sg17
(lp41
sg19
(lp42
sg21
I0
sbasg22
(lp43
g32
ag39
asg21
I0
sg24
S'services.core.jni.com_android_server_input_InputApplicationHandle.ch'
p44
sba(iArchitecture
Cluster
p45
(dp46
g7
(lp47
(iArchitecture
Entity
p48
(dp49
g11
(lp50
sg13
S'services.core.jni.com_android_server_input_InputWindowHandle.c'
p51
sg15
(lp52
sg17
(lp53
sg19
(lp54
sg21
I0
sba(iArchitecture
Entity
p55
(dp56
g11
(lp57
sg13
S'services.core.jni.com_android_server_input_InputWindowHandle.h'
p58
sg15
(lp59
sg17
(lp60
sg19
(lp61
sg21
I0
sbasg22
(lp62
g51
ag58
asg21
I0
sg24
S'services.core.jni.com_android_server_input_InputWindowHandle.ch'
p63
sba(iArchitecture
Cluster
p64
(dp65
g7
(lp66
(iArchitecture
Entity
p67
(dp68
g11
(lp69
sg13
S'services.core.jni.com_android_server_power_PowerManagerService.c'
p70
sg15
(lp71
sg17
(lp72
sg19
(lp73
sg21
I0
sba(iArchitecture
Entity
p74
(dp75
g11
(lp76
sg13
S'services.core.jni.com_android_server_power_PowerManagerService.h'
p77
sg15
(lp78
sg17
(lp79
sg19
(lp80
sg21
I0
sbasg22
(lp81
g70
ag77
asg21
I0
sg24
S'services.core.jni.com_android_server_power_PowerManagerService.ch'
p82
sba(iArchitecture
Cluster
p83
(dp84
g7
(lp85
(iArchitecture
Entity
p86
(dp87
g11
(lp88
sg13
S'services.core.jni.com_android_server_AssetAtlasService.c'
p89
sg15
(lp90
sg17
(lp91
sg19
(lp92
sg21
I0
sba(iArchitecture
Entity
p93
(dp94
g11
(lp95
sg13
S'services.core.jni.com_android_server_input_InputManagerService.c'
p96
sg15
(lp97
sg17
(lp98
sg19
(lp99
sg21
I0
sbasg22
(lp100
g89
ag96
asg21
I0
sg24
S'tools.aapt2.Util.ch'
p101
sba(iArchitecture
Cluster
p102
(dp103
g7
(lp104
(iArchitecture
Entity
p105
(dp106
g11
(lp107
sg13
S'services.core.jni.com_android_server_AlarmManagerService.c'
p108
sg15
(lp109
sg17
(lp110
sg19
(lp111
sg21
I0
sba(iArchitecture
Entity
p112
(dp113
g11
(lp114
sg13
S'services.core.jni.onload.c'
p115
sg15
(lp116
sg17
(lp117
sg19
(lp118
sg21
I0
sbasg22
(lp119
g108
ag115
asg21
I0
sg24
S'tools.aapt2.XmlFlattener.ch'
p120
sba(iArchitecture
Cluster
p121
(dp122
g7
(lp123
(iArchitecture
Entity
p124
(dp125
g11
(lp126
sg13
S'services.core.jni.com_android_server_ConsumerIrService.c'
p127
sg15
(lp128
sg17
(lp129
sg19
(lp130
sg21
I0
sba(iArchitecture
Entity
p131
(dp132
g11
(lp133
sg13
S'services.core.jni.com_android_server_PersistentDataBlockService.c'
p134
sg15
(lp135
sg17
(lp136
sg19
(lp137
sg21
I0
sba(iArchitecture
Entity
p138
(dp139
g11
(lp140
sg13
S'services.core.jni.com_android_server_SerialService.c'
p141
sg15
(lp142
sg17
(lp143
sg19
(lp144
sg21
I0
sba(iArchitecture
Entity
p145
(dp146
g11
(lp147
sg13
S'services.core.jni.com_android_server_UsbDeviceManager.c'
p148
sg15
(lp149
sg17
(lp150
sg19
(lp151
sg21
I0
sba(iArchitecture
Entity
p152
(dp153
g11
(lp154
sg13
S'services.core.jni.com_android_server_UsbHostManager.c'
p155
sg15
(lp156
sg17
(lp157
sg19
(lp158
sg21
I0
sba(iArchitecture
Entity
p159
(dp160
g11
(lp161
sg13
S'services.core.jni.com_android_server_UsbMidiDevice.c'
p162
sg15
(lp163
sg17
(lp164
sg19
(lp165
sg21
I0
sba(iArchitecture
Entity
p166
(dp167
g11
(lp168
sg13
S'services.core.jni.com_android_server_VibratorService.c'
p169
sg15
(lp170
sg17
(lp171
sg19
(lp172
sg21
I0
sba(iArchitecture
Entity
p173
(dp174
g11
(lp175
sg13
S'services.core.jni.com_android_server_am_BatteryStatsService.c'
p176
sg15
(lp177
sg17
(lp178
sg19
(lp179
sg21
I0
sba(iArchitecture
Entity
p180
(dp181
g11
(lp182
sg13
S'services.core.jni.com_android_server_connectivity_Vpn.c'
p183
sg15
(lp184
sg17
(lp185
sg19
(lp186
sg21
I0
sba(iArchitecture
Entity
p187
(dp188
g11
(lp189
sg13
S'services.core.jni.com_android_server_fingerprint_FingerprintService.c'
p190
sg15
(lp191
sg17
(lp192
sg19
(lp193
sg21
I0
sba(iArchitecture
Entity
p194
(dp195
g11
(lp196
sg13
S'services.core.jni.com_android_server_hdmi_HdmiCecController.c'
p197
sg15
(lp198
sg17
(lp199
sg19
(lp200
sg21
I0
sba(iArchitecture
Entity
p201
(dp202
g11
(lp203
sg13
S'services.core.jni.com_android_server_lights_LightsService.c'
p204
sg15
(lp205
sg17
(lp206
sg19
(lp207
sg21
I0
sba(iArchitecture
Entity
p208
(dp209
g11
(lp210
sg13
S'services.core.jni.com_android_server_location_FlpHardwareProvider.c'
p211
sg15
(lp212
sg17
(lp213
sg19
(lp214
sg21
I0
sba(iArchitecture
Entity
p215
(dp216
g11
(lp217
sg13
S'services.core.jni.com_android_server_location_GpsLocationProvider.c'
p218
sg15
(lp219
sg17
(lp220
sg19
(lp221
sg21
I0
sba(iArchitecture
Entity
p222
(dp223
g11
(lp224
sg13
S'services.core.jni.com_android_server_tv_TvInputHal.c'
p225
sg15
(lp226
sg17
(lp227
sg19
(lp228
sg21
I0
sbasg22
(lp229
g127
ag134
ag141
ag148
ag155
ag162
ag169
ag176
ag183
ag190
ag197
ag204
ag211
ag218
ag225
asg21
I0
sg24
S'tools.split-select.TestRules.ch'
p230
sbasS'target_sub'
p231
S'services.core'
p232
sg22
(lp233
sS'is_component_arch'
p234
I00
sg24
S'6.0.0_r1'
p235
sba(iArchitecture
Architecture
p236
(dp237
g3
(lp238
(iArchitecture
Cluster
p239
(dp240
g7
(lp241
(iArchitecture
Entity
p242
(dp243
g11
(lp244
sg13
S'services.core.jni.com_android_server_SystemServer.c'
p245
sg15
(lp246
sg17
(lp247
sg19
(lp248
sg21
I0
sbasg22
(lp249
g245
asg21
I0
sg24
S'libs.hwui.Properties.ch'
p250
sba(iArchitecture
Cluster
p251
(dp252
g7
(lp253
(iArchitecture
Entity
p254
(dp255
g11
(lp256
sg13
S'services.core.jni.com_android_server_input_InputApplicationHandle.c'
p257
sg15
(lp258
sg17
(lp259
sg19
(lp260
sg21
I0
sba(iArchitecture
Entity
p261
(dp262
g11
(lp263
sg13
S'services.core.jni.com_android_server_input_InputApplicationHandle.h'
p264
sg15
(lp265
sg17
(lp266
sg19
(lp267
sg21
I0
sbasg22
(lp268
g257
ag264
asg21
I0
sg24
S'services.core.jni.com_android_server_input_InputApplicationHandle.ch'
p269
sba(iArchitecture
Cluster
p270
(dp271
g7
(lp272
(iArchitecture
Entity
p273
(dp274
g11
(lp275
sg13
S'services.core.jni.com_android_server_input_InputWindowHandle.c'
p276
sg15
(lp277
sg17
(lp278
sg19
(lp279
sg21
I0
sba(iArchitecture
Entity
p280
(dp281
g11
(lp282
sg13
S'services.core.jni.com_android_server_input_InputWindowHandle.h'
p283
sg15
(lp284
sg17
(lp285
sg19
(lp286
sg21
I0
sbasg22
(lp287
g276
ag283
asg21
I0
sg24
S'services.core.jni.com_android_server_input_InputWindowHandle.ch'
p288
sba(iArchitecture
Cluster
p289
(dp290
g7
(lp291
(iArchitecture
Entity
p292
(dp293
g11
(lp294
sg13
S'services.core.jni.com_android_server_power_PowerManagerService.c'
p295
sg15
(lp296
sg17
(lp297
sg19
(lp298
sg21
I0
sba(iArchitecture
Entity
p299
(dp300
g11
(lp301
sg13
S'services.core.jni.com_android_server_power_PowerManagerService.h'
p302
sg15
(lp303
sg17
(lp304
sg19
(lp305
sg21
I0
sbasg22
(lp306
g295
ag302
asg21
I0
sg24
S'services.core.jni.com_android_server_power_PowerManagerService.ch'
p307
sba(iArchitecture
Cluster
p308
(dp309
g7
(lp310
(iArchitecture
Entity
p311
(dp312
g11
(lp313
sg13
S'services.core.jni.com_android_server_tv_TvKeys.h'
p314
sg15
(lp315
sg17
(lp316
sg19
(lp317
sg21
I0
sba(iArchitecture
Entity
p318
(dp319
g11
(lp320
sg13
S'services.core.jni.com_android_server_tv_TvUinputBridge.c'
p321
sg15
(lp322
sg17
(lp323
sg19
(lp324
sg21
I0
sbasg22
(lp325
g314
ag321
asg21
I0
sg24
S'services.core.jni.com_android_server_tv_TvUinputBridge.ss'
p326
sba(iArchitecture
Cluster
p327
(dp328
g7
(lp329
(iArchitecture
Entity
p330
(dp331
g11
(lp332
sg13
S'services.core.jni.com_android_server_AlarmManagerService.c'
p333
sg15
(lp334
sg17
(lp335
sg19
(lp336
sg21
I0
sba(iArchitecture
Entity
p337
(dp338
g11
(lp339
sg13
S'services.core.jni.onload.c'
p340
sg15
(lp341
sg17
(lp342
sg19
(lp343
sg21
I0
sbasg22
(lp344
g333
ag340
asg21
I0
sg24
S'tools.aapt2.xml.XmlUtil.ch'
p345
sba(iArchitecture
Cluster
p346
(dp347
g7
(lp348
(iArchitecture
Entity
p349
(dp350
g11
(lp351
sg13
S'services.core.jni.com_android_server_AssetAtlasService.c'
p352
sg15
(lp353
sg17
(lp354
sg19
(lp355
sg21
I0
sba(iArchitecture
Entity
p356
(dp357
g11
(lp358
sg13
S'services.core.jni.com_android_server_ConsumerIrService.c'
p359
sg15
(lp360
sg17
(lp361
sg19
(lp362
sg21
I0
sba(iArchitecture
Entity
p363
(dp364
g11
(lp365
sg13
S'services.core.jni.com_android_server_HardwarePropertiesManagerService.c'
p366
sg15
(lp367
sg17
(lp368
sg19
(lp369
sg21
I0
sba(iArchitecture
Entity
p370
(dp371
g11
(lp372
sg13
S'services.core.jni.com_android_server_PersistentDataBlockService.c'
p373
sg15
(lp374
sg17
(lp375
sg19
(lp376
sg21
I0
sba(iArchitecture
Entity
p377
(dp378
g11
(lp379
sg13
S'services.core.jni.com_android_server_SerialService.c'
p380
sg15
(lp381
sg17
(lp382
sg19
(lp383
sg21
I0
sba(iArchitecture
Entity
p384
(dp385
g11
(lp386
sg13
S'services.core.jni.com_android_server_UsbDeviceManager.c'
p387
sg15
(lp388
sg17
(lp389
sg19
(lp390
sg21
I0
sba(iArchitecture
Entity
p391
(dp392
g11
(lp393
sg13
S'services.core.jni.com_android_server_UsbHostManager.c'
p394
sg15
(lp395
sg17
(lp396
sg19
(lp397
sg21
I0
sba(iArchitecture
Entity
p398
(dp399
g11
(lp400
sg13
S'services.core.jni.com_android_server_UsbMidiDevice.c'
p401
sg15
(lp402
sg17
(lp403
sg19
(lp404
sg21
I0
sba(iArchitecture
Entity
p405
(dp406
g11
(lp407
sg13
S'services.core.jni.com_android_server_VibratorService.c'
p408
sg15
(lp409
sg17
(lp410
sg19
(lp411
sg21
I0
sba(iArchitecture
Entity
p412
(dp413
g11
(lp414
sg13
S'services.core.jni.com_android_server_am_ActivityManagerService.c'
p415
sg15
(lp416
sg17
(lp417
sg19
(lp418
sg21
I0
sba(iArchitecture
Entity
p419
(dp420
g11
(lp421
sg13
S'services.core.jni.com_android_server_am_BatteryStatsService.c'
p422
sg15
(lp423
sg17
(lp424
sg19
(lp425
sg21
I0
sba(iArchitecture
Entity
p426
(dp427
g11
(lp428
sg13
S'services.core.jni.com_android_server_connectivity_Vpn.c'
p429
sg15
(lp430
sg17
(lp431
sg19
(lp432
sg21
I0
sba(iArchitecture
Entity
p433
(dp434
g11
(lp435
sg13
S'services.core.jni.com_android_server_fingerprint_FingerprintService.c'
p436
sg15
(lp437
sg17
(lp438
sg19
(lp439
sg21
I0
sba(iArchitecture
Entity
p440
(dp441
g11
(lp442
sg13
S'services.core.jni.com_android_server_hdmi_HdmiCecController.c'
p443
sg15
(lp444
sg17
(lp445
sg19
(lp446
sg21
I0
sba(iArchitecture
Entity
p447
(dp448
g11
(lp449
sg13
S'services.core.jni.com_android_server_input_InputManagerService.c'
p450
sg15
(lp451
sg17
(lp452
sg19
(lp453
sg21
I0
sba(iArchitecture
Entity
p454
(dp455
g11
(lp456
sg13
S'services.core.jni.com_android_server_lights_LightsService.c'
p457
sg15
(lp458
sg17
(lp459
sg19
(lp460
sg21
I0
sba(iArchitecture
Entity
p461
(dp462
g11
(lp463
sg13
S'services.core.jni.com_android_server_location_FlpHardwareProvider.c'
p464
sg15
(lp465
sg17
(lp466
sg19
(lp467
sg21
I0
sba(iArchitecture
Entity
p468
(dp469
g11
(lp470
sg13
S'services.core.jni.com_android_server_location_GnssLocationProvider.c'
p471
sg15
(lp472
sg17
(lp473
sg19
(lp474
sg21
I0
sba(iArchitecture
Entity
p475
(dp476
g11
(lp477
sg13
S'services.core.jni.com_android_server_tv_TvInputHal.c'
p478
sg15
(lp479
sg17
(lp480
sg19
(lp481
sg21
I0
sba(iArchitecture
Entity
p482
(dp483
g11
(lp484
sg13
S'services.core.jni.com_android_server_vr_VrManagerService.c'
p485
sg15
(lp486
sg17
(lp487
sg19
(lp488
sg21
I0
sbasg22
(lp489
g352
ag359
ag366
ag373
ag380
ag387
ag394
ag401
ag408
ag415
ag422
ag429
ag436
ag443
ag450
ag457
ag464
ag471
ag478
ag485
asg21
I0
sg24
S'tools.split-select.TestRules.ch'
p490
sbasg231
g232
sg22
(lp491
sg234
I00
sg24
S'7.0.0_r1'
p492
sba.