(lp0
(iArchitecture
Architecture
p1
(dp2
S'clusters'
p3
(lp4
(iArchitecture
Cluster
p5
(dp6
S'entities'
p7
(lp8
(iArchitecture
Entity
p9
(dp10
S'issue_ids'
p11
(lp12
sS'name'
p13
S'rs.jni.android_renderscript_RenderScript.c'
p14
sS'descs'
p15
(lp16
sS'labels'
p17
(lp18
sS'titles'
p19
(lp20
sS'change'
p21
I0
sbasS'classes'
p22
(lp23
g14
asg21
I0
sS'label'
p24
S'tools.split-select.TestRules.ch'
p25
sbasS'target_sub'
p26
S'rs.jni'
p27
sg22
(lp28
sS'is_component_arch'
p29
I00
sg24
S'6.0.0_r1'
p30
sba(iArchitecture
Architecture
p31
(dp32
g3
(lp33
(iArchitecture
Cluster
p34
(dp35
g7
(lp36
(iArchitecture
Entity
p37
(dp38
g11
(lp39
sg13
S'rs.jni.android_renderscript_RenderScript.c'
p40
sg15
(lp41
sg17
(lp42
sg19
(lp43
sg21
I0
sbasg22
(lp44
g40
asg21
I0
sg24
S'tools.split-select.TestRules.ch'
p45
sbasg26
g27
sg22
(lp46
sg29
I00
sg24
S'7.0.0_r1'
p47
sba.