(lp0
(iArchitecture
Architecture
p1
(dp2
S'clusters'
p3
(lp4
(iArchitecture
Cluster
p5
(dp6
S'entities'
p7
(lp8
(iArchitecture
Entity
p9
(dp10
S'issue_ids'
p11
(lp12
sS'name'
p13
S'android.inputmethodservice.AbstractInputMethodService'
p14
sS'descs'
p15
(lp16
sS'labels'
p17
(lp18
sS'titles'
p19
(lp20
sS'change'
p21
I0
sba(iArchitecture
Entity
p22
(dp23
g11
(lp24
sg13
S'android.inputmethodservice.AbstractInputMethodService$AbstractInputMethodImpl'
p25
sg15
(lp26
sg17
(lp27
sg19
(lp28
sg21
I0
sba(iArchitecture
Entity
p29
(dp30
g11
(lp31
sg13
S'android.inputmethodservice.AbstractInputMethodService$AbstractInputMethodSessionImpl'
p32
sg15
(lp33
sg17
(lp34
sg19
(lp35
sg21
I0
sba(iArchitecture
Entity
p36
(dp37
g11
(lp38
sg13
S'android.inputmethodservice.ExtractEditText'
p39
sg15
(lp40
sg17
(lp41
sg19
(lp42
sg21
I0
sba(iArchitecture
Entity
p43
(dp44
g11
(lp45
sg13
S'android.inputmethodservice.IInputMethodSessionWrapper'
p46
sg15
(lp47
sg17
(lp48
sg19
(lp49
sg21
I0
sba(iArchitecture
Entity
p50
(dp51
g11
(lp52
sg13
S'android.inputmethodservice.IInputMethodSessionWrapper$ImeInputEventReceiver'
p53
sg15
(lp54
sg17
(lp55
sg19
(lp56
sg21
I0
sba(iArchitecture
Entity
p57
(dp58
g11
(lp59
sg13
S'android.inputmethodservice.IInputMethodWrapper'
p60
sg15
(lp61
sg17
(lp62
sg19
(lp63
sg21
I0
sba(iArchitecture
Entity
p64
(dp65
g11
(lp66
sg13
S'android.inputmethodservice.IInputMethodWrapper$InputMethodSessionCallbackWrapper'
p67
sg15
(lp68
sg17
(lp69
sg19
(lp70
sg21
I0
sba(iArchitecture
Entity
p71
(dp72
g11
(lp73
sg13
S'android.inputmethodservice.IInputMethodWrapper$Notifier'
p74
sg15
(lp75
sg17
(lp76
sg19
(lp77
sg21
I0
sba(iArchitecture
Entity
p78
(dp79
g11
(lp80
sg13
S'android.inputmethodservice.InputMethodService'
p81
sg15
(lp82
sg17
(lp83
sg19
(lp84
sg21
I0
sba(iArchitecture
Entity
p85
(dp86
g11
(lp87
sg13
S'android.inputmethodservice.InputMethodService$1'
p88
sg15
(lp89
sg17
(lp90
sg19
(lp91
sg21
I0
sba(iArchitecture
Entity
p92
(dp93
g11
(lp94
sg13
S'android.inputmethodservice.InputMethodService$2'
p95
sg15
(lp96
sg17
(lp97
sg19
(lp98
sg21
I0
sba(iArchitecture
Entity
p99
(dp100
g11
(lp101
sg13
S'android.inputmethodservice.InputMethodService$InputMethodImpl'
p102
sg15
(lp103
sg17
(lp104
sg19
(lp105
sg21
I0
sba(iArchitecture
Entity
p106
(dp107
g11
(lp108
sg13
S'android.inputmethodservice.InputMethodService$InputMethodSessionImpl'
p109
sg15
(lp110
sg17
(lp111
sg19
(lp112
sg21
I0
sba(iArchitecture
Entity
p113
(dp114
g11
(lp115
sg13
S'android.inputmethodservice.InputMethodService$Insets'
p116
sg15
(lp117
sg17
(lp118
sg19
(lp119
sg21
I0
sba(iArchitecture
Entity
p120
(dp121
g11
(lp122
sg13
S'android.inputmethodservice.KeyboardView'
p123
sg15
(lp124
sg17
(lp125
sg19
(lp126
sg21
I0
sba(iArchitecture
Entity
p127
(dp128
g11
(lp129
sg13
S'android.inputmethodservice.KeyboardView$1'
p130
sg15
(lp131
sg17
(lp132
sg19
(lp133
sg21
I0
sba(iArchitecture
Entity
p134
(dp135
g11
(lp136
sg13
S'android.inputmethodservice.KeyboardView$2'
p137
sg15
(lp138
sg17
(lp139
sg19
(lp140
sg21
I0
sba(iArchitecture
Entity
p141
(dp142
g11
(lp143
sg13
S'android.inputmethodservice.KeyboardView$3'
p144
sg15
(lp145
sg17
(lp146
sg19
(lp147
sg21
I0
sba(iArchitecture
Entity
p148
(dp149
g11
(lp150
sg13
S'android.inputmethodservice.KeyboardView$OnKeyboardActionListener'
p151
sg15
(lp152
sg17
(lp153
sg19
(lp154
sg21
I0
sba(iArchitecture
Entity
p155
(dp156
g11
(lp157
sg13
S'android.inputmethodservice.KeyboardView$SwipeTracker'
p158
sg15
(lp159
sg17
(lp160
sg19
(lp161
sg21
I0
sba(iArchitecture
Entity
p162
(dp163
g11
(lp164
sg13
S'android.inputmethodservice.SoftInputWindow'
p165
sg15
(lp166
sg17
(lp167
sg19
(lp168
sg21
I0
sba(iArchitecture
Entity
p169
(dp170
g11
(lp171
sg13
S'android.inputmethodservice.SoftInputWindow$Callback'
p172
sg15
(lp173
sg17
(lp174
sg19
(lp175
sg21
I0
sbasS'classes'
p176
(lp177
g14
ag25
ag32
ag39
ag46
ag53
ag60
ag67
ag74
ag81
ag88
ag95
ag102
ag109
ag116
ag123
ag130
ag137
ag144
ag151
ag158
ag165
ag172
asg21
I0
sS'label'
p178
S'android.inputmethodservice.ss'
p179
sba(iArchitecture
Cluster
p180
(dp181
g7
(lp182
(iArchitecture
Entity
p183
(dp184
g11
(lp185
sg13
S'android.inputmethodservice.ExtractButton'
p186
sg15
(lp187
sg17
(lp188
sg19
(lp189
sg21
I0
sbasg176
(lp190
g186
asg21
I0
sg178
S'com.android.internal.app.ss'
p191
sba(iArchitecture
Cluster
p192
(dp193
g7
(lp194
(iArchitecture
Entity
p195
(dp196
g11
(lp197
sg13
S'android.inputmethodservice.ExtractEditLayout'
p198
sg15
(lp199
sg17
(lp200
sg19
(lp201
sg21
I0
sba(iArchitecture
Entity
p202
(dp203
g11
(lp204
sg13
S'android.inputmethodservice.Keyboard'
p205
sg15
(lp206
sg17
(lp207
sg19
(lp208
sg21
I0
sba(iArchitecture
Entity
p209
(dp210
g11
(lp211
sg13
S'android.inputmethodservice.Keyboard$Key'
p212
sg15
(lp213
sg17
(lp214
sg19
(lp215
sg21
I0
sba(iArchitecture
Entity
p216
(dp217
g11
(lp218
sg13
S'android.inputmethodservice.Keyboard$Row'
p219
sg15
(lp220
sg17
(lp221
sg19
(lp222
sg21
I0
sbasg176
(lp223
g198
ag205
ag212
ag219
asg21
I0
sg178
S'com.android.internal.widget.ss'
p224
sbasS'target_sub'
p225
S'android.inputmethodservice'
p226
sg176
(lp227
sS'is_component_arch'
p228
I00
sg178
S'6.0.0_r1'
p229
sba(iArchitecture
Architecture
p230
(dp231
g3
(lp232
(iArchitecture
Cluster
p233
(dp234
g7
(lp235
(iArchitecture
Entity
p236
(dp237
g11
(lp238
sg13
S'android.inputmethodservice.AbstractInputMethodService'
p239
sg15
(lp240
sg17
(lp241
sg19
(lp242
sg21
I0
sba(iArchitecture
Entity
p243
(dp244
g11
(lp245
sg13
S'android.inputmethodservice.AbstractInputMethodService$AbstractInputMethodImpl'
p246
sg15
(lp247
sg17
(lp248
sg19
(lp249
sg21
I0
sba(iArchitecture
Entity
p250
(dp251
g11
(lp252
sg13
S'android.inputmethodservice.AbstractInputMethodService$AbstractInputMethodSessionImpl'
p253
sg15
(lp254
sg17
(lp255
sg19
(lp256
sg21
I0
sba(iArchitecture
Entity
p257
(dp258
g11
(lp259
sg13
S'android.inputmethodservice.ExtractEditText'
p260
sg15
(lp261
sg17
(lp262
sg19
(lp263
sg21
I0
sba(iArchitecture
Entity
p264
(dp265
g11
(lp266
sg13
S'android.inputmethodservice.IInputMethodSessionWrapper'
p267
sg15
(lp268
sg17
(lp269
sg19
(lp270
sg21
I0
sba(iArchitecture
Entity
p271
(dp272
g11
(lp273
sg13
S'android.inputmethodservice.IInputMethodSessionWrapper$ImeInputEventReceiver'
p274
sg15
(lp275
sg17
(lp276
sg19
(lp277
sg21
I0
sba(iArchitecture
Entity
p278
(dp279
g11
(lp280
sg13
S'android.inputmethodservice.IInputMethodWrapper'
p281
sg15
(lp282
sg17
(lp283
sg19
(lp284
sg21
I0
sba(iArchitecture
Entity
p285
(dp286
g11
(lp287
sg13
S'android.inputmethodservice.IInputMethodWrapper$InputMethodSessionCallbackWrapper'
p288
sg15
(lp289
sg17
(lp290
sg19
(lp291
sg21
I0
sba(iArchitecture
Entity
p292
(dp293
g11
(lp294
sg13
S'android.inputmethodservice.IInputMethodWrapper$Notifier'
p295
sg15
(lp296
sg17
(lp297
sg19
(lp298
sg21
I0
sba(iArchitecture
Entity
p299
(dp300
g11
(lp301
sg13
S'android.inputmethodservice.InputMethodService'
p302
sg15
(lp303
sg17
(lp304
sg19
(lp305
sg21
I0
sba(iArchitecture
Entity
p306
(dp307
g11
(lp308
sg13
S'android.inputmethodservice.InputMethodService$1'
p309
sg15
(lp310
sg17
(lp311
sg19
(lp312
sg21
I0
sba(iArchitecture
Entity
p313
(dp314
g11
(lp315
sg13
S'android.inputmethodservice.InputMethodService$2'
p316
sg15
(lp317
sg17
(lp318
sg19
(lp319
sg21
I0
sba(iArchitecture
Entity
p320
(dp321
g11
(lp322
sg13
S'android.inputmethodservice.InputMethodService$InputMethodImpl'
p323
sg15
(lp324
sg17
(lp325
sg19
(lp326
sg21
I0
sba(iArchitecture
Entity
p327
(dp328
g11
(lp329
sg13
S'android.inputmethodservice.InputMethodService$InputMethodSessionImpl'
p330
sg15
(lp331
sg17
(lp332
sg19
(lp333
sg21
I0
sba(iArchitecture
Entity
p334
(dp335
g11
(lp336
sg13
S'android.inputmethodservice.InputMethodService$Insets'
p337
sg15
(lp338
sg17
(lp339
sg19
(lp340
sg21
I0
sba(iArchitecture
Entity
p341
(dp342
g11
(lp343
sg13
S'android.inputmethodservice.InputMethodService$SettingsObserver'
p344
sg15
(lp345
sg17
(lp346
sg19
(lp347
sg21
I0
sba(iArchitecture
Entity
p348
(dp349
g11
(lp350
sg13
S'android.inputmethodservice.KeyboardView'
p351
sg15
(lp352
sg17
(lp353
sg19
(lp354
sg21
I0
sba(iArchitecture
Entity
p355
(dp356
g11
(lp357
sg13
S'android.inputmethodservice.KeyboardView$1'
p358
sg15
(lp359
sg17
(lp360
sg19
(lp361
sg21
I0
sba(iArchitecture
Entity
p362
(dp363
g11
(lp364
sg13
S'android.inputmethodservice.KeyboardView$2'
p365
sg15
(lp366
sg17
(lp367
sg19
(lp368
sg21
I0
sba(iArchitecture
Entity
p369
(dp370
g11
(lp371
sg13
S'android.inputmethodservice.KeyboardView$3'
p372
sg15
(lp373
sg17
(lp374
sg19
(lp375
sg21
I0
sba(iArchitecture
Entity
p376
(dp377
g11
(lp378
sg13
S'android.inputmethodservice.KeyboardView$OnKeyboardActionListener'
p379
sg15
(lp380
sg17
(lp381
sg19
(lp382
sg21
I0
sba(iArchitecture
Entity
p383
(dp384
g11
(lp385
sg13
S'android.inputmethodservice.KeyboardView$SwipeTracker'
p386
sg15
(lp387
sg17
(lp388
sg19
(lp389
sg21
I0
sba(iArchitecture
Entity
p390
(dp391
g11
(lp392
sg13
S'android.inputmethodservice.SoftInputWindow'
p393
sg15
(lp394
sg17
(lp395
sg19
(lp396
sg21
I0
sba(iArchitecture
Entity
p397
(dp398
g11
(lp399
sg13
S'android.inputmethodservice.SoftInputWindow$Callback'
p400
sg15
(lp401
sg17
(lp402
sg19
(lp403
sg21
I0
sbasg176
(lp404
g239
ag246
ag253
ag260
ag267
ag274
ag281
ag288
ag295
ag302
ag309
ag316
ag323
ag330
ag337
ag344
ag351
ag358
ag365
ag372
ag379
ag386
ag393
ag400
asg21
I0
sg178
S'android.inputmethodservice.ss'
p405
sba(iArchitecture
Cluster
p406
(dp407
g7
(lp408
(iArchitecture
Entity
p409
(dp410
g11
(lp411
sg13
S'android.inputmethodservice.CompactExtractEditLayout'
p412
sg15
(lp413
sg17
(lp414
sg19
(lp415
sg21
I0
sbasg176
(lp416
g412
asg21
I0
sg178
S'android.widget.ss'
p417
sba(iArchitecture
Cluster
p418
(dp419
g7
(lp420
(iArchitecture
Entity
p421
(dp422
g11
(lp423
sg13
S'android.inputmethodservice.ExtractButton'
p424
sg15
(lp425
sg17
(lp426
sg19
(lp427
sg21
I0
sbasg176
(lp428
g424
asg21
I0
sg178
S'com.android.internal.app.ss'
p429
sba(iArchitecture
Cluster
p430
(dp431
g7
(lp432
(iArchitecture
Entity
p433
(dp434
g11
(lp435
sg13
S'android.inputmethodservice.ExtractEditLayout'
p436
sg15
(lp437
sg17
(lp438
sg19
(lp439
sg21
I0
sba(iArchitecture
Entity
p440
(dp441
g11
(lp442
sg13
S'android.inputmethodservice.Keyboard'
p443
sg15
(lp444
sg17
(lp445
sg19
(lp446
sg21
I0
sba(iArchitecture
Entity
p447
(dp448
g11
(lp449
sg13
S'android.inputmethodservice.Keyboard$Key'
p450
sg15
(lp451
sg17
(lp452
sg19
(lp453
sg21
I0
sba(iArchitecture
Entity
p454
(dp455
g11
(lp456
sg13
S'android.inputmethodservice.Keyboard$Row'
p457
sg15
(lp458
sg17
(lp459
sg19
(lp460
sg21
I0
sbasg176
(lp461
g436
ag443
ag450
ag457
asg21
I0
sg178
S'com.android.internal.widget.ss'
p462
sbasg225
g226
sg176
(lp463
sg228
I00
sg178
S'7.0.0_r1'
p464
sba.