(lp0
(iArchitecture
Architecture
p1
(dp2
S'clusters'
p3
(lp4
(iArchitecture
Cluster
p5
(dp6
S'entities'
p7
(lp8
(iArchitecture
Entity
p9
(dp10
S'issue_ids'
p11
(lp12
sS'name'
p13
S'com.android.server.backup.AccountSyncSettingsBackupHelper'
p14
sS'descs'
p15
(lp16
sS'labels'
p17
(lp18
sS'titles'
p19
(lp20
sS'change'
p21
I0
sba(iArchitecture
Entity
p22
(dp23
g11
(lp24
sg13
S'com.android.server.backup.BackupManagerService'
p25
sg15
(lp26
sg17
(lp27
sg19
(lp28
sg21
I0
sba(iArchitecture
Entity
p29
(dp30
g11
(lp31
sg13
S'com.android.server.backup.BackupManagerService$1'
p32
sg15
(lp33
sg17
(lp34
sg19
(lp35
sg21
I0
sba(iArchitecture
Entity
p36
(dp37
g11
(lp38
sg13
S'com.android.server.backup.BackupManagerService$2'
p39
sg15
(lp40
sg17
(lp41
sg19
(lp42
sg21
I0
sba(iArchitecture
Entity
p43
(dp44
g11
(lp45
sg13
S'com.android.server.backup.BackupManagerService$3'
p46
sg15
(lp47
sg17
(lp48
sg19
(lp49
sg21
I0
sba(iArchitecture
Entity
p50
(dp51
g11
(lp52
sg13
S'com.android.server.backup.BackupManagerService$4'
p53
sg15
(lp54
sg17
(lp55
sg19
(lp56
sg21
I0
sba(iArchitecture
Entity
p57
(dp58
g11
(lp59
sg13
S'com.android.server.backup.BackupManagerService$5'
p60
sg15
(lp61
sg17
(lp62
sg19
(lp63
sg21
I0
sba(iArchitecture
Entity
p64
(dp65
g11
(lp66
sg13
S'com.android.server.backup.BackupManagerService$ActiveRestoreSession'
p67
sg15
(lp68
sg17
(lp69
sg19
(lp70
sg21
I0
sba(iArchitecture
Entity
p71
(dp72
g11
(lp73
sg13
S'com.android.server.backup.BackupManagerService$ActiveRestoreSession$EndRestoreRunnable'
p74
sg15
(lp75
sg17
(lp76
sg19
(lp77
sg21
I0
sba(iArchitecture
Entity
p78
(dp79
g11
(lp80
sg13
S'com.android.server.backup.BackupManagerService$BackupHandler'
p81
sg15
(lp82
sg17
(lp83
sg19
(lp84
sg21
I0
sba(iArchitecture
Entity
p85
(dp86
g11
(lp87
sg13
S'com.android.server.backup.BackupManagerService$BackupRequest'
p88
sg15
(lp89
sg17
(lp90
sg19
(lp91
sg21
I0
sba(iArchitecture
Entity
p92
(dp93
g11
(lp94
sg13
S'com.android.server.backup.BackupManagerService$BackupRestoreTask'
p95
sg15
(lp96
sg17
(lp97
sg19
(lp98
sg21
I0
sba(iArchitecture
Entity
p99
(dp100
g11
(lp101
sg13
S'com.android.server.backup.BackupManagerService$BackupState'
p102
sg15
(lp103
sg17
(lp104
sg19
(lp105
sg21
I0
sba(iArchitecture
Entity
p106
(dp107
g11
(lp108
sg13
S'com.android.server.backup.BackupManagerService$ClearDataObserver'
p109
sg15
(lp110
sg17
(lp111
sg19
(lp112
sg21
I0
sba(iArchitecture
Entity
p113
(dp114
g11
(lp115
sg13
S'com.android.server.backup.BackupManagerService$ClearParams'
p116
sg15
(lp117
sg17
(lp118
sg19
(lp119
sg21
I0
sba(iArchitecture
Entity
p120
(dp121
g11
(lp122
sg13
S'com.android.server.backup.BackupManagerService$ClearRetryParams'
p123
sg15
(lp124
sg17
(lp125
sg19
(lp126
sg21
I0
sba(iArchitecture
Entity
p127
(dp128
g11
(lp129
sg13
S'com.android.server.backup.BackupManagerService$FileMetadata'
p130
sg15
(lp131
sg17
(lp132
sg19
(lp133
sg21
I0
sba(iArchitecture
Entity
p134
(dp135
g11
(lp136
sg13
S'com.android.server.backup.BackupManagerService$FullBackupEngine'
p137
sg15
(lp138
sg17
(lp139
sg19
(lp140
sg21
I0
sba(iArchitecture
Entity
p141
(dp142
g11
(lp143
sg13
S'com.android.server.backup.BackupManagerService$FullBackupEngine$FullBackupRunner'
p144
sg15
(lp145
sg17
(lp146
sg19
(lp147
sg21
I0
sba(iArchitecture
Entity
p148
(dp149
g11
(lp150
sg13
S'com.android.server.backup.BackupManagerService$FullBackupEntry'
p151
sg15
(lp152
sg17
(lp153
sg19
(lp154
sg21
I0
sba(iArchitecture
Entity
p155
(dp156
g11
(lp157
sg13
S'com.android.server.backup.BackupManagerService$FullBackupObbConnection'
p158
sg15
(lp159
sg17
(lp160
sg19
(lp161
sg21
I0
sba(iArchitecture
Entity
p162
(dp163
g11
(lp164
sg13
S'com.android.server.backup.BackupManagerService$FullBackupParams'
p165
sg15
(lp166
sg17
(lp167
sg19
(lp168
sg21
I0
sba(iArchitecture
Entity
p169
(dp170
g11
(lp171
sg13
S'com.android.server.backup.BackupManagerService$FullBackupPreflight'
p172
sg15
(lp173
sg17
(lp174
sg19
(lp175
sg21
I0
sba(iArchitecture
Entity
p176
(dp177
g11
(lp178
sg13
S'com.android.server.backup.BackupManagerService$FullBackupTask'
p179
sg15
(lp180
sg17
(lp181
sg19
(lp182
sg21
I0
sba(iArchitecture
Entity
p183
(dp184
g11
(lp185
sg13
S'com.android.server.backup.BackupManagerService$FullParams'
p186
sg15
(lp187
sg17
(lp188
sg19
(lp189
sg21
I0
sba(iArchitecture
Entity
p190
(dp191
g11
(lp192
sg13
S'com.android.server.backup.BackupManagerService$FullRestoreEngine'
p193
sg15
(lp194
sg17
(lp195
sg19
(lp196
sg21
I0
sba(iArchitecture
Entity
p197
(dp198
g11
(lp199
sg13
S'com.android.server.backup.BackupManagerService$FullRestoreEngine$RestoreDeleteObserver'
p200
sg15
(lp201
sg17
(lp202
sg19
(lp203
sg21
I0
sba(iArchitecture
Entity
p204
(dp205
g11
(lp206
sg13
S'com.android.server.backup.BackupManagerService$FullRestoreEngine$RestoreFileRunnable'
p207
sg15
(lp208
sg17
(lp209
sg19
(lp210
sg21
I0
sba(iArchitecture
Entity
p211
(dp212
g11
(lp213
sg13
S'com.android.server.backup.BackupManagerService$FullRestoreEngine$RestoreInstallObserver'
p214
sg15
(lp215
sg17
(lp216
sg19
(lp217
sg21
I0
sba(iArchitecture
Entity
p218
(dp219
g11
(lp220
sg13
S'com.android.server.backup.BackupManagerService$FullRestoreParams'
p221
sg15
(lp222
sg17
(lp223
sg19
(lp224
sg21
I0
sba(iArchitecture
Entity
p225
(dp226
g11
(lp227
sg13
S'com.android.server.backup.BackupManagerService$Lifecycle'
p228
sg15
(lp229
sg17
(lp230
sg19
(lp231
sg21
I0
sba(iArchitecture
Entity
p232
(dp233
g11
(lp234
sg13
S'com.android.server.backup.BackupManagerService$Operation'
p235
sg15
(lp236
sg17
(lp237
sg19
(lp238
sg21
I0
sba(iArchitecture
Entity
p239
(dp240
g11
(lp241
sg13
S'com.android.server.backup.BackupManagerService$PerformAdbBackupTask'
p242
sg15
(lp243
sg17
(lp244
sg19
(lp245
sg21
I0
sba(iArchitecture
Entity
p246
(dp247
g11
(lp248
sg13
S'com.android.server.backup.BackupManagerService$PerformAdbRestoreTask'
p249
sg15
(lp250
sg17
(lp251
sg19
(lp252
sg21
I0
sba(iArchitecture
Entity
p253
(dp254
g11
(lp255
sg13
S'com.android.server.backup.BackupManagerService$PerformAdbRestoreTask$RestoreDeleteObserver'
p256
sg15
(lp257
sg17
(lp258
sg19
(lp259
sg21
I0
sba(iArchitecture
Entity
p260
(dp261
g11
(lp262
sg13
S'com.android.server.backup.BackupManagerService$PerformAdbRestoreTask$RestoreFileRunnable'
p263
sg15
(lp264
sg17
(lp265
sg19
(lp266
sg21
I0
sba(iArchitecture
Entity
p267
(dp268
g11
(lp269
sg13
S'com.android.server.backup.BackupManagerService$PerformAdbRestoreTask$RestoreInstallObserver'
p270
sg15
(lp271
sg17
(lp272
sg19
(lp273
sg21
I0
sba(iArchitecture
Entity
p274
(dp275
g11
(lp276
sg13
S'com.android.server.backup.BackupManagerService$PerformBackupTask'
p277
sg15
(lp278
sg17
(lp279
sg19
(lp280
sg21
I0
sba(iArchitecture
Entity
p281
(dp282
g11
(lp283
sg13
S'com.android.server.backup.BackupManagerService$PerformClearTask'
p284
sg15
(lp285
sg17
(lp286
sg19
(lp287
sg21
I0
sba(iArchitecture
Entity
p288
(dp289
g11
(lp290
sg13
S'com.android.server.backup.BackupManagerService$PerformFullTransportBackupTask'
p291
sg15
(lp292
sg17
(lp293
sg19
(lp294
sg21
I0
sba(iArchitecture
Entity
p295
(dp296
g11
(lp297
sg13
S'com.android.server.backup.BackupManagerService$PerformFullTransportBackupTask$SinglePackageBackupPreflight'
p298
sg15
(lp299
sg17
(lp300
sg19
(lp301
sg21
I0
sba(iArchitecture
Entity
p302
(dp303
g11
(lp304
sg13
S'com.android.server.backup.BackupManagerService$PerformFullTransportBackupTask$SinglePackageBackupRunner'
p305
sg15
(lp306
sg17
(lp307
sg19
(lp308
sg21
I0
sba(iArchitecture
Entity
p309
(dp310
g11
(lp311
sg13
S'com.android.server.backup.BackupManagerService$PerformInitializeTask'
p312
sg15
(lp313
sg17
(lp314
sg19
(lp315
sg21
I0
sba(iArchitecture
Entity
p316
(dp317
g11
(lp318
sg13
S'com.android.server.backup.BackupManagerService$PerformUnifiedRestoreTask'
p319
sg15
(lp320
sg17
(lp321
sg19
(lp322
sg21
I0
sba(iArchitecture
Entity
p323
(dp324
g11
(lp325
sg13
S'com.android.server.backup.BackupManagerService$PerformUnifiedRestoreTask$EngineThread'
p326
sg15
(lp327
sg17
(lp328
sg19
(lp329
sg21
I0
sba(iArchitecture
Entity
p330
(dp331
g11
(lp332
sg13
S'com.android.server.backup.BackupManagerService$PerformUnifiedRestoreTask$StreamFeederThread'
p333
sg15
(lp334
sg17
(lp335
sg19
(lp336
sg21
I0
sba(iArchitecture
Entity
p337
(dp338
g11
(lp339
sg13
S'com.android.server.backup.BackupManagerService$ProvisionedObserver'
p340
sg15
(lp341
sg17
(lp342
sg19
(lp343
sg21
I0
sba(iArchitecture
Entity
p344
(dp345
g11
(lp346
sg13
S'com.android.server.backup.BackupManagerService$RestoreEngine'
p347
sg15
(lp348
sg17
(lp349
sg19
(lp350
sg21
I0
sba(iArchitecture
Entity
p351
(dp352
g11
(lp353
sg13
S'com.android.server.backup.BackupManagerService$RestoreGetSetsParams'
p354
sg15
(lp355
sg17
(lp356
sg19
(lp357
sg21
I0
sba(iArchitecture
Entity
p358
(dp359
g11
(lp360
sg13
S'com.android.server.backup.BackupManagerService$RestoreParams'
p361
sg15
(lp362
sg17
(lp363
sg19
(lp364
sg21
I0
sba(iArchitecture
Entity
p365
(dp366
g11
(lp367
sg13
S'com.android.server.backup.BackupManagerService$RestorePolicy'
p368
sg15
(lp369
sg17
(lp370
sg19
(lp371
sg21
I0
sba(iArchitecture
Entity
p372
(dp373
g11
(lp374
sg13
S'com.android.server.backup.BackupManagerService$RunBackupReceiver'
p375
sg15
(lp376
sg17
(lp377
sg19
(lp378
sg21
I0
sba(iArchitecture
Entity
p379
(dp380
g11
(lp381
sg13
S'com.android.server.backup.BackupManagerService$RunInitializeReceiver'
p382
sg15
(lp383
sg17
(lp384
sg19
(lp385
sg21
I0
sba(iArchitecture
Entity
p386
(dp387
g11
(lp388
sg13
S'com.android.server.backup.BackupManagerService$TransportConnection'
p389
sg15
(lp390
sg17
(lp391
sg19
(lp392
sg21
I0
sba(iArchitecture
Entity
p393
(dp394
g11
(lp395
sg13
S'com.android.server.backup.BackupManagerService$UnifiedRestoreState'
p396
sg15
(lp397
sg17
(lp398
sg19
(lp399
sg21
I0
sba(iArchitecture
Entity
p400
(dp401
g11
(lp402
sg13
S'com.android.server.backup.FullBackupJob'
p403
sg15
(lp404
sg17
(lp405
sg19
(lp406
sg21
I0
sba(iArchitecture
Entity
p407
(dp408
g11
(lp409
sg13
S'com.android.server.backup.KeyValueBackupJob'
p410
sg15
(lp411
sg17
(lp412
sg19
(lp413
sg21
I0
sba(iArchitecture
Entity
p414
(dp415
g11
(lp416
sg13
S'com.android.server.backup.NotificationBackupHelper'
p417
sg15
(lp418
sg17
(lp419
sg19
(lp420
sg21
I0
sba(iArchitecture
Entity
p421
(dp422
g11
(lp423
sg13
S'com.android.server.backup.PackageManagerBackupAgent'
p424
sg15
(lp425
sg17
(lp426
sg19
(lp427
sg21
I0
sba(iArchitecture
Entity
p428
(dp429
g11
(lp430
sg13
S'com.android.server.backup.PackageManagerBackupAgent$Metadata'
p431
sg15
(lp432
sg17
(lp433
sg19
(lp434
sg21
I0
sba(iArchitecture
Entity
p435
(dp436
g11
(lp437
sg13
S'com.android.server.backup.PreferredActivityBackupHelper'
p438
sg15
(lp439
sg17
(lp440
sg19
(lp441
sg21
I0
sba(iArchitecture
Entity
p442
(dp443
g11
(lp444
sg13
S'com.android.server.backup.SystemBackupAgent'
p445
sg15
(lp446
sg17
(lp447
sg19
(lp448
sg21
I0
sba(iArchitecture
Entity
p449
(dp450
g11
(lp451
sg13
S'com.android.server.backup.Trampoline'
p452
sg15
(lp453
sg17
(lp454
sg19
(lp455
sg21
I0
sbasS'classes'
p456
(lp457
g14
ag25
ag32
ag39
ag46
ag53
ag60
ag67
ag74
ag81
ag88
ag95
ag102
ag109
ag116
ag123
ag130
ag137
ag144
ag151
ag158
ag165
ag172
ag179
ag186
ag193
ag200
ag207
ag214
ag221
ag228
ag235
ag242
ag249
ag256
ag263
ag270
ag277
ag284
ag291
ag298
ag305
ag312
ag319
ag326
ag333
ag340
ag347
ag354
ag361
ag368
ag375
ag382
ag389
ag396
ag403
ag410
ag417
ag424
ag431
ag438
ag445
ag452
asg21
I0
sS'label'
p458
S'com.android.server.backup.ss'
p459
sbasS'target_sub'
p460
S'com.android.server.backup'
p461
sg456
(lp462
sS'is_component_arch'
p463
I00
sg458
S'6.0.0_r1'
p464
sba(iArchitecture
Architecture
p465
(dp466
g3
(lp467
(iArchitecture
Cluster
p468
(dp469
g7
(lp470
(iArchitecture
Entity
p471
(dp472
g11
(lp473
sg13
S'com.android.server.backup.AccountSyncSettingsBackupHelper'
p474
sg15
(lp475
sg17
(lp476
sg19
(lp477
sg21
I0
sba(iArchitecture
Entity
p478
(dp479
g11
(lp480
sg13
S'com.android.server.backup.BackupManagerService'
p481
sg15
(lp482
sg17
(lp483
sg19
(lp484
sg21
I0
sba(iArchitecture
Entity
p485
(dp486
g11
(lp487
sg13
S'com.android.server.backup.BackupManagerService$1'
p488
sg15
(lp489
sg17
(lp490
sg19
(lp491
sg21
I0
sba(iArchitecture
Entity
p492
(dp493
g11
(lp494
sg13
S'com.android.server.backup.BackupManagerService$2'
p495
sg15
(lp496
sg17
(lp497
sg19
(lp498
sg21
I0
sba(iArchitecture
Entity
p499
(dp500
g11
(lp501
sg13
S'com.android.server.backup.BackupManagerService$3'
p502
sg15
(lp503
sg17
(lp504
sg19
(lp505
sg21
I0
sba(iArchitecture
Entity
p506
(dp507
g11
(lp508
sg13
S'com.android.server.backup.BackupManagerService$4'
p509
sg15
(lp510
sg17
(lp511
sg19
(lp512
sg21
I0
sba(iArchitecture
Entity
p513
(dp514
g11
(lp515
sg13
S'com.android.server.backup.BackupManagerService$5'
p516
sg15
(lp517
sg17
(lp518
sg19
(lp519
sg21
I0
sba(iArchitecture
Entity
p520
(dp521
g11
(lp522
sg13
S'com.android.server.backup.BackupManagerService$ActiveRestoreSession'
p523
sg15
(lp524
sg17
(lp525
sg19
(lp526
sg21
I0
sba(iArchitecture
Entity
p527
(dp528
g11
(lp529
sg13
S'com.android.server.backup.BackupManagerService$ActiveRestoreSession$EndRestoreRunnable'
p530
sg15
(lp531
sg17
(lp532
sg19
(lp533
sg21
I0
sba(iArchitecture
Entity
p534
(dp535
g11
(lp536
sg13
S'com.android.server.backup.BackupManagerService$AdbRestoreFinishedLatch'
p537
sg15
(lp538
sg17
(lp539
sg19
(lp540
sg21
I0
sba(iArchitecture
Entity
p541
(dp542
g11
(lp543
sg13
S'com.android.server.backup.BackupManagerService$BackupHandler'
p544
sg15
(lp545
sg17
(lp546
sg19
(lp547
sg21
I0
sba(iArchitecture
Entity
p548
(dp549
g11
(lp550
sg13
S'com.android.server.backup.BackupManagerService$BackupParams'
p551
sg15
(lp552
sg17
(lp553
sg19
(lp554
sg21
I0
sba(iArchitecture
Entity
p555
(dp556
g11
(lp557
sg13
S'com.android.server.backup.BackupManagerService$BackupRequest'
p558
sg15
(lp559
sg17
(lp560
sg19
(lp561
sg21
I0
sba(iArchitecture
Entity
p562
(dp563
g11
(lp564
sg13
S'com.android.server.backup.BackupManagerService$BackupRestoreTask'
p565
sg15
(lp566
sg17
(lp567
sg19
(lp568
sg21
I0
sba(iArchitecture
Entity
p569
(dp570
g11
(lp571
sg13
S'com.android.server.backup.BackupManagerService$BackupState'
p572
sg15
(lp573
sg17
(lp574
sg19
(lp575
sg21
I0
sba(iArchitecture
Entity
p576
(dp577
g11
(lp578
sg13
S'com.android.server.backup.BackupManagerService$ClearDataObserver'
p579
sg15
(lp580
sg17
(lp581
sg19
(lp582
sg21
I0
sba(iArchitecture
Entity
p583
(dp584
g11
(lp585
sg13
S'com.android.server.backup.BackupManagerService$ClearParams'
p586
sg15
(lp587
sg17
(lp588
sg19
(lp589
sg21
I0
sba(iArchitecture
Entity
p590
(dp591
g11
(lp592
sg13
S'com.android.server.backup.BackupManagerService$ClearRetryParams'
p593
sg15
(lp594
sg17
(lp595
sg19
(lp596
sg21
I0
sba(iArchitecture
Entity
p597
(dp598
g11
(lp599
sg13
S'com.android.server.backup.BackupManagerService$FileMetadata'
p600
sg15
(lp601
sg17
(lp602
sg19
(lp603
sg21
I0
sba(iArchitecture
Entity
p604
(dp605
g11
(lp606
sg13
S'com.android.server.backup.BackupManagerService$FullBackupEngine'
p607
sg15
(lp608
sg17
(lp609
sg19
(lp610
sg21
I0
sba(iArchitecture
Entity
p611
(dp612
g11
(lp613
sg13
S'com.android.server.backup.BackupManagerService$FullBackupEngine$FullBackupRunner'
p614
sg15
(lp615
sg17
(lp616
sg19
(lp617
sg21
I0
sba(iArchitecture
Entity
p618
(dp619
g11
(lp620
sg13
S'com.android.server.backup.BackupManagerService$FullBackupEntry'
p621
sg15
(lp622
sg17
(lp623
sg19
(lp624
sg21
I0
sba(iArchitecture
Entity
p625
(dp626
g11
(lp627
sg13
S'com.android.server.backup.BackupManagerService$FullBackupObbConnection'
p628
sg15
(lp629
sg17
(lp630
sg19
(lp631
sg21
I0
sba(iArchitecture
Entity
p632
(dp633
g11
(lp634
sg13
S'com.android.server.backup.BackupManagerService$FullBackupParams'
p635
sg15
(lp636
sg17
(lp637
sg19
(lp638
sg21
I0
sba(iArchitecture
Entity
p639
(dp640
g11
(lp641
sg13
S'com.android.server.backup.BackupManagerService$FullBackupPreflight'
p642
sg15
(lp643
sg17
(lp644
sg19
(lp645
sg21
I0
sba(iArchitecture
Entity
p646
(dp647
g11
(lp648
sg13
S'com.android.server.backup.BackupManagerService$FullBackupTask'
p649
sg15
(lp650
sg17
(lp651
sg19
(lp652
sg21
I0
sba(iArchitecture
Entity
p653
(dp654
g11
(lp655
sg13
S'com.android.server.backup.BackupManagerService$FullParams'
p656
sg15
(lp657
sg17
(lp658
sg19
(lp659
sg21
I0
sba(iArchitecture
Entity
p660
(dp661
g11
(lp662
sg13
S'com.android.server.backup.BackupManagerService$FullRestoreEngine'
p663
sg15
(lp664
sg17
(lp665
sg19
(lp666
sg21
I0
sba(iArchitecture
Entity
p667
(dp668
g11
(lp669
sg13
S'com.android.server.backup.BackupManagerService$FullRestoreEngine$RestoreDeleteObserver'
p670
sg15
(lp671
sg17
(lp672
sg19
(lp673
sg21
I0
sba(iArchitecture
Entity
p674
(dp675
g11
(lp676
sg13
S'com.android.server.backup.BackupManagerService$FullRestoreEngine$RestoreFileRunnable'
p677
sg15
(lp678
sg17
(lp679
sg19
(lp680
sg21
I0
sba(iArchitecture
Entity
p681
(dp682
g11
(lp683
sg13
S'com.android.server.backup.BackupManagerService$FullRestoreEngine$RestoreInstallObserver'
p684
sg15
(lp685
sg17
(lp686
sg19
(lp687
sg21
I0
sba(iArchitecture
Entity
p688
(dp689
g11
(lp690
sg13
S'com.android.server.backup.BackupManagerService$FullRestoreParams'
p691
sg15
(lp692
sg17
(lp693
sg19
(lp694
sg21
I0
sba(iArchitecture
Entity
p695
(dp696
g11
(lp697
sg13
S'com.android.server.backup.BackupManagerService$Lifecycle'
p698
sg15
(lp699
sg17
(lp700
sg19
(lp701
sg21
I0
sba(iArchitecture
Entity
p702
(dp703
g11
(lp704
sg13
S'com.android.server.backup.BackupManagerService$Operation'
p705
sg15
(lp706
sg17
(lp707
sg19
(lp708
sg21
I0
sba(iArchitecture
Entity
p709
(dp710
g11
(lp711
sg13
S'com.android.server.backup.BackupManagerService$PerformAdbBackupTask'
p712
sg15
(lp713
sg17
(lp714
sg19
(lp715
sg21
I0
sba(iArchitecture
Entity
p716
(dp717
g11
(lp718
sg13
S'com.android.server.backup.BackupManagerService$PerformAdbRestoreTask'
p719
sg15
(lp720
sg17
(lp721
sg19
(lp722
sg21
I0
sba(iArchitecture
Entity
p723
(dp724
g11
(lp725
sg13
S'com.android.server.backup.BackupManagerService$PerformAdbRestoreTask$RestoreDeleteObserver'
p726
sg15
(lp727
sg17
(lp728
sg19
(lp729
sg21
I0
sba(iArchitecture
Entity
p730
(dp731
g11
(lp732
sg13
S'com.android.server.backup.BackupManagerService$PerformAdbRestoreTask$RestoreFileRunnable'
p733
sg15
(lp734
sg17
(lp735
sg19
(lp736
sg21
I0
sba(iArchitecture
Entity
p737
(dp738
g11
(lp739
sg13
S'com.android.server.backup.BackupManagerService$PerformAdbRestoreTask$RestoreFinishedRunnable'
p740
sg15
(lp741
sg17
(lp742
sg19
(lp743
sg21
I0
sba(iArchitecture
Entity
p744
(dp745
g11
(lp746
sg13
S'com.android.server.backup.BackupManagerService$PerformAdbRestoreTask$RestoreInstallObserver'
p747
sg15
(lp748
sg17
(lp749
sg19
(lp750
sg21
I0
sba(iArchitecture
Entity
p751
(dp752
g11
(lp753
sg13
S'com.android.server.backup.BackupManagerService$PerformBackupTask'
p754
sg15
(lp755
sg17
(lp756
sg19
(lp757
sg21
I0
sba(iArchitecture
Entity
p758
(dp759
g11
(lp760
sg13
S'com.android.server.backup.BackupManagerService$PerformClearTask'
p761
sg15
(lp762
sg17
(lp763
sg19
(lp764
sg21
I0
sba(iArchitecture
Entity
p765
(dp766
g11
(lp767
sg13
S'com.android.server.backup.BackupManagerService$PerformFullTransportBackupTask'
p768
sg15
(lp769
sg17
(lp770
sg19
(lp771
sg21
I0
sba(iArchitecture
Entity
p772
(dp773
g11
(lp774
sg13
S'com.android.server.backup.BackupManagerService$PerformFullTransportBackupTask$SinglePackageBackupPreflight'
p775
sg15
(lp776
sg17
(lp777
sg19
(lp778
sg21
I0
sba(iArchitecture
Entity
p779
(dp780
g11
(lp781
sg13
S'com.android.server.backup.BackupManagerService$PerformFullTransportBackupTask$SinglePackageBackupRunner'
p782
sg15
(lp783
sg17
(lp784
sg19
(lp785
sg21
I0
sba(iArchitecture
Entity
p786
(dp787
g11
(lp788
sg13
S'com.android.server.backup.BackupManagerService$PerformInitializeTask'
p789
sg15
(lp790
sg17
(lp791
sg19
(lp792
sg21
I0
sba(iArchitecture
Entity
p793
(dp794
g11
(lp795
sg13
S'com.android.server.backup.BackupManagerService$PerformUnifiedRestoreTask'
p796
sg15
(lp797
sg17
(lp798
sg19
(lp799
sg21
I0
sba(iArchitecture
Entity
p800
(dp801
g11
(lp802
sg13
S'com.android.server.backup.BackupManagerService$PerformUnifiedRestoreTask$EngineThread'
p803
sg15
(lp804
sg17
(lp805
sg19
(lp806
sg21
I0
sba(iArchitecture
Entity
p807
(dp808
g11
(lp809
sg13
S'com.android.server.backup.BackupManagerService$PerformUnifiedRestoreTask$StreamFeederThread'
p810
sg15
(lp811
sg17
(lp812
sg19
(lp813
sg21
I0
sba(iArchitecture
Entity
p814
(dp815
g11
(lp816
sg13
S'com.android.server.backup.BackupManagerService$ProvisionedObserver'
p817
sg15
(lp818
sg17
(lp819
sg19
(lp820
sg21
I0
sba(iArchitecture
Entity
p821
(dp822
g11
(lp823
sg13
S'com.android.server.backup.BackupManagerService$RestoreEngine'
p824
sg15
(lp825
sg17
(lp826
sg19
(lp827
sg21
I0
sba(iArchitecture
Entity
p828
(dp829
g11
(lp830
sg13
S'com.android.server.backup.BackupManagerService$RestoreGetSetsParams'
p831
sg15
(lp832
sg17
(lp833
sg19
(lp834
sg21
I0
sba(iArchitecture
Entity
p835
(dp836
g11
(lp837
sg13
S'com.android.server.backup.BackupManagerService$RestoreParams'
p838
sg15
(lp839
sg17
(lp840
sg19
(lp841
sg21
I0
sba(iArchitecture
Entity
p842
(dp843
g11
(lp844
sg13
S'com.android.server.backup.BackupManagerService$RestorePolicy'
p845
sg15
(lp846
sg17
(lp847
sg19
(lp848
sg21
I0
sba(iArchitecture
Entity
p849
(dp850
g11
(lp851
sg13
S'com.android.server.backup.BackupManagerService$RunBackupReceiver'
p852
sg15
(lp853
sg17
(lp854
sg19
(lp855
sg21
I0
sba(iArchitecture
Entity
p856
(dp857
g11
(lp858
sg13
S'com.android.server.backup.BackupManagerService$RunInitializeReceiver'
p859
sg15
(lp860
sg17
(lp861
sg19
(lp862
sg21
I0
sba(iArchitecture
Entity
p863
(dp864
g11
(lp865
sg13
S'com.android.server.backup.BackupManagerService$TransportConnection'
p866
sg15
(lp867
sg17
(lp868
sg19
(lp869
sg21
I0
sba(iArchitecture
Entity
p870
(dp871
g11
(lp872
sg13
S'com.android.server.backup.BackupManagerService$UnifiedRestoreState'
p873
sg15
(lp874
sg17
(lp875
sg19
(lp876
sg21
I0
sba(iArchitecture
Entity
p877
(dp878
g11
(lp879
sg13
S'com.android.server.backup.BackupUtils'
p880
sg15
(lp881
sg17
(lp882
sg19
(lp883
sg21
I0
sba(iArchitecture
Entity
p884
(dp885
g11
(lp886
sg13
S'com.android.server.backup.FullBackupJob'
p887
sg15
(lp888
sg17
(lp889
sg19
(lp890
sg21
I0
sba(iArchitecture
Entity
p891
(dp892
g11
(lp893
sg13
S'com.android.server.backup.KeyValueBackupJob'
p894
sg15
(lp895
sg17
(lp896
sg19
(lp897
sg21
I0
sba(iArchitecture
Entity
p898
(dp899
g11
(lp900
sg13
S'com.android.server.backup.NotificationBackupHelper'
p901
sg15
(lp902
sg17
(lp903
sg19
(lp904
sg21
I0
sba(iArchitecture
Entity
p905
(dp906
g11
(lp907
sg13
S'com.android.server.backup.PackageManagerBackupAgent'
p908
sg15
(lp909
sg17
(lp910
sg19
(lp911
sg21
I0
sba(iArchitecture
Entity
p912
(dp913
g11
(lp914
sg13
S'com.android.server.backup.PackageManagerBackupAgent$Metadata'
p915
sg15
(lp916
sg17
(lp917
sg19
(lp918
sg21
I0
sba(iArchitecture
Entity
p919
(dp920
g11
(lp921
sg13
S'com.android.server.backup.PermissionBackupHelper'
p922
sg15
(lp923
sg17
(lp924
sg19
(lp925
sg21
I0
sba(iArchitecture
Entity
p926
(dp927
g11
(lp928
sg13
S'com.android.server.backup.PreferredActivityBackupHelper'
p929
sg15
(lp930
sg17
(lp931
sg19
(lp932
sg21
I0
sba(iArchitecture
Entity
p933
(dp934
g11
(lp935
sg13
S'com.android.server.backup.ShortcutBackupHelper'
p936
sg15
(lp937
sg17
(lp938
sg19
(lp939
sg21
I0
sba(iArchitecture
Entity
p940
(dp941
g11
(lp942
sg13
S'com.android.server.backup.SystemBackupAgent'
p943
sg15
(lp944
sg17
(lp945
sg19
(lp946
sg21
I0
sba(iArchitecture
Entity
p947
(dp948
g11
(lp949
sg13
S'com.android.server.backup.Trampoline'
p950
sg15
(lp951
sg17
(lp952
sg19
(lp953
sg21
I0
sba(iArchitecture
Entity
p954
(dp955
g11
(lp956
sg13
S'com.android.server.backup.UsageStatsBackupHelper'
p957
sg15
(lp958
sg17
(lp959
sg19
(lp960
sg21
I0
sbasg456
(lp961
g474
ag481
ag488
ag495
ag502
ag509
ag516
ag523
ag530
ag537
ag544
ag551
ag558
ag565
ag572
ag579
ag586
ag593
ag600
ag607
ag614
ag621
ag628
ag635
ag642
ag649
ag656
ag663
ag670
ag677
ag684
ag691
ag698
ag705
ag712
ag719
ag726
ag733
ag740
ag747
ag754
ag761
ag768
ag775
ag782
ag789
ag796
ag803
ag810
ag817
ag824
ag831
ag838
ag845
ag852
ag859
ag866
ag873
ag880
ag887
ag894
ag901
ag908
ag915
ag922
ag929
ag936
ag943
ag950
ag957
asg21
I0
sg458
S'com.android.server.backup.ss'
p962
sbasg460
g461
sg456
(lp963
sg463
I00
sg458
S'7.0.0_r1'
p964
sba.