(lp0
(iArchitecture
Architecture
p1
(dp2
S'clusters'
p3
(lp4
(iArchitecture
Cluster
p5
(dp6
S'entities'
p7
(lp8
(iArchitecture
Entity
p9
(dp10
S'issue_ids'
p11
(lp12
sS'name'
p13
S'android.database.CharArrayBuffer'
p14
sS'descs'
p15
(lp16
sS'labels'
p17
(lp18
sS'titles'
p19
(lp20
sS'change'
p21
I0
sba(iArchitecture
Entity
p22
(dp23
g11
(lp24
sg13
S'android.database.CursorWrapper'
p25
sg15
(lp26
sg17
(lp27
sg19
(lp28
sg21
I0
sba(iArchitecture
Entity
p29
(dp30
g11
(lp31
sg13
S'android.database.sqlite.SQLiteDatabase$CursorFactory'
p32
sg15
(lp33
sg17
(lp34
sg19
(lp35
sg21
I0
sba(iArchitecture
Entity
p36
(dp37
g11
(lp38
sg13
S'android.database.sqlite.SqliteWrapper'
p39
sg15
(lp40
sg17
(lp41
sg19
(lp42
sg21
I0
sbasS'classes'
p43
(lp44
g14
ag25
ag32
ag39
asg21
I0
sS'label'
p45
S'android.app.ss'
p46
sba(iArchitecture
Cluster
p47
(dp48
g7
(lp49
(iArchitecture
Entity
p50
(dp51
g11
(lp52
sg13
S'android.database.AbstractCursor$SelfContentObserver'
p53
sg15
(lp54
sg17
(lp55
sg19
(lp56
sg21
I0
sba(iArchitecture
Entity
p57
(dp58
g11
(lp59
sg13
S'android.database.BulkCursorToCursorAdaptor'
p60
sg15
(lp61
sg17
(lp62
sg19
(lp63
sg21
I0
sbasg43
(lp64
g53
ag60
asg21
I0
sg45
S'android.content.ss'
p65
sba(iArchitecture
Cluster
p66
(dp67
g7
(lp68
(iArchitecture
Entity
p69
(dp70
g11
(lp71
sg13
S'android.database.AbstractWindowedCursor'
p72
sg15
(lp73
sg17
(lp74
sg19
(lp75
sg21
I0
sba(iArchitecture
Entity
p76
(dp77
g11
(lp78
sg13
S'android.database.DatabaseErrorHandler'
p79
sg15
(lp80
sg17
(lp81
sg19
(lp82
sg21
I0
sba(iArchitecture
Entity
p83
(dp84
g11
(lp85
sg13
S'android.database.DefaultDatabaseErrorHandler'
p86
sg15
(lp87
sg17
(lp88
sg19
(lp89
sg21
I0
sba(iArchitecture
Entity
p90
(dp91
g11
(lp92
sg13
S'android.database.sqlite.DatabaseObjectNotClosedException'
p93
sg15
(lp94
sg17
(lp95
sg19
(lp96
sg21
I0
sba(iArchitecture
Entity
p97
(dp98
g11
(lp99
sg13
S'android.database.sqlite.SQLiteBindOrColumnIndexOutOfRangeException'
p100
sg15
(lp101
sg17
(lp102
sg19
(lp103
sg21
I0
sba(iArchitecture
Entity
p104
(dp105
g11
(lp106
sg13
S'android.database.sqlite.SQLiteClosable'
p107
sg15
(lp108
sg17
(lp109
sg19
(lp110
sg21
I0
sba(iArchitecture
Entity
p111
(dp112
g11
(lp113
sg13
S'android.database.sqlite.SQLiteConnection'
p114
sg15
(lp115
sg17
(lp116
sg19
(lp117
sg21
I0
sba(iArchitecture
Entity
p118
(dp119
g11
(lp120
sg13
S'android.database.sqlite.SQLiteConnection$Operation'
p121
sg15
(lp122
sg17
(lp123
sg19
(lp124
sg21
I0
sba(iArchitecture
Entity
p125
(dp126
g11
(lp127
sg13
S'android.database.sqlite.SQLiteConnection$OperationLog'
p128
sg15
(lp129
sg17
(lp130
sg19
(lp131
sg21
I0
sba(iArchitecture
Entity
p132
(dp133
g11
(lp134
sg13
S'android.database.sqlite.SQLiteConnection$PreparedStatement'
p135
sg15
(lp136
sg17
(lp137
sg19
(lp138
sg21
I0
sba(iArchitecture
Entity
p139
(dp140
g11
(lp141
sg13
S'android.database.sqlite.SQLiteConnection$PreparedStatementCache'
p142
sg15
(lp143
sg17
(lp144
sg19
(lp145
sg21
I0
sba(iArchitecture
Entity
p146
(dp147
g11
(lp148
sg13
S'android.database.sqlite.SQLiteConnectionPool'
p149
sg15
(lp150
sg17
(lp151
sg19
(lp152
sg21
I0
sba(iArchitecture
Entity
p153
(dp154
g11
(lp155
sg13
S'android.database.sqlite.SQLiteConnectionPool$1'
p156
sg15
(lp157
sg17
(lp158
sg19
(lp159
sg21
I0
sba(iArchitecture
Entity
p160
(dp161
g11
(lp162
sg13
S'android.database.sqlite.SQLiteConnectionPool$AcquiredConnectionStatus'
p163
sg15
(lp164
sg17
(lp165
sg19
(lp166
sg21
I0
sba(iArchitecture
Entity
p167
(dp168
g11
(lp169
sg13
S'android.database.sqlite.SQLiteConnectionPool$ConnectionWaiter'
p170
sg15
(lp171
sg17
(lp172
sg19
(lp173
sg21
I0
sba(iArchitecture
Entity
p174
(dp175
g11
(lp176
sg13
S'android.database.sqlite.SQLiteCursor'
p177
sg15
(lp178
sg17
(lp179
sg19
(lp180
sg21
I0
sba(iArchitecture
Entity
p181
(dp182
g11
(lp183
sg13
S'android.database.sqlite.SQLiteCursorDriver'
p184
sg15
(lp185
sg17
(lp186
sg19
(lp187
sg21
I0
sba(iArchitecture
Entity
p188
(dp189
g11
(lp190
sg13
S'android.database.sqlite.SQLiteCustomFunction'
p191
sg15
(lp192
sg17
(lp193
sg19
(lp194
sg21
I0
sba(iArchitecture
Entity
p195
(dp196
g11
(lp197
sg13
S'android.database.sqlite.SQLiteDatabase'
p198
sg15
(lp199
sg17
(lp200
sg19
(lp201
sg21
I0
sba(iArchitecture
Entity
p202
(dp203
g11
(lp204
sg13
S'android.database.sqlite.SQLiteDatabase$1'
p205
sg15
(lp206
sg17
(lp207
sg19
(lp208
sg21
I0
sba(iArchitecture
Entity
p209
(dp210
g11
(lp211
sg13
S'android.database.sqlite.SQLiteDatabase$2'
p212
sg15
(lp213
sg17
(lp214
sg19
(lp215
sg21
I0
sba(iArchitecture
Entity
p216
(dp217
g11
(lp218
sg13
S'android.database.sqlite.SQLiteDatabase$CustomFunction'
p219
sg15
(lp220
sg17
(lp221
sg19
(lp222
sg21
I0
sba(iArchitecture
Entity
p223
(dp224
g11
(lp225
sg13
S'android.database.sqlite.SQLiteDatabaseConfiguration'
p226
sg15
(lp227
sg17
(lp228
sg19
(lp229
sg21
I0
sba(iArchitecture
Entity
p230
(dp231
g11
(lp232
sg13
S'android.database.sqlite.SQLiteDatabaseLockedException'
p233
sg15
(lp234
sg17
(lp235
sg19
(lp236
sg21
I0
sba(iArchitecture
Entity
p237
(dp238
g11
(lp239
sg13
S'android.database.sqlite.SQLiteDebug'
p240
sg15
(lp241
sg17
(lp242
sg19
(lp243
sg21
I0
sba(iArchitecture
Entity
p244
(dp245
g11
(lp246
sg13
S'android.database.sqlite.SQLiteDebug$DbStats'
p247
sg15
(lp248
sg17
(lp249
sg19
(lp250
sg21
I0
sba(iArchitecture
Entity
p251
(dp252
g11
(lp253
sg13
S'android.database.sqlite.SQLiteDebug$PagerStats'
p254
sg15
(lp255
sg17
(lp256
sg19
(lp257
sg21
I0
sba(iArchitecture
Entity
p258
(dp259
g11
(lp260
sg13
S'android.database.sqlite.SQLiteDirectCursorDriver'
p261
sg15
(lp262
sg17
(lp263
sg19
(lp264
sg21
I0
sba(iArchitecture
Entity
p265
(dp266
g11
(lp267
sg13
S'android.database.sqlite.SQLiteGlobal'
p268
sg15
(lp269
sg17
(lp270
sg19
(lp271
sg21
I0
sba(iArchitecture
Entity
p272
(dp273
g11
(lp274
sg13
S'android.database.sqlite.SQLiteQuery'
p275
sg15
(lp276
sg17
(lp277
sg19
(lp278
sg21
I0
sba(iArchitecture
Entity
p279
(dp280
g11
(lp281
sg13
S'android.database.sqlite.SQLiteQueryBuilder'
p282
sg15
(lp283
sg17
(lp284
sg19
(lp285
sg21
I0
sba(iArchitecture
Entity
p286
(dp287
g11
(lp288
sg13
S'android.database.sqlite.SQLiteSession'
p289
sg15
(lp290
sg17
(lp291
sg19
(lp292
sg21
I0
sba(iArchitecture
Entity
p293
(dp294
g11
(lp295
sg13
S'android.database.sqlite.SQLiteSession$Transaction'
p296
sg15
(lp297
sg17
(lp298
sg19
(lp299
sg21
I0
sba(iArchitecture
Entity
p300
(dp301
g11
(lp302
sg13
S'android.database.sqlite.SQLiteStatementInfo'
p303
sg15
(lp304
sg17
(lp305
sg19
(lp306
sg21
I0
sba(iArchitecture
Entity
p307
(dp308
g11
(lp309
sg13
S'android.database.sqlite.SQLiteTransactionListener'
p310
sg15
(lp311
sg17
(lp312
sg19
(lp313
sg21
I0
sbasg43
(lp314
g72
ag79
ag86
ag93
ag100
ag107
ag114
ag121
ag128
ag135
ag142
ag149
ag156
ag163
ag170
ag177
ag184
ag191
ag198
ag205
ag212
ag219
ag226
ag233
ag240
ag247
ag254
ag261
ag268
ag275
ag282
ag289
ag296
ag303
ag310
asg21
I0
sg45
S'android.database.sqlite.ss'
p315
sba(iArchitecture
Cluster
p316
(dp317
g7
(lp318
(iArchitecture
Entity
p319
(dp320
g11
(lp321
sg13
S'android.database.AbstractCursor'
p322
sg15
(lp323
sg17
(lp324
sg19
(lp325
sg21
I0
sba(iArchitecture
Entity
p326
(dp327
g11
(lp328
sg13
S'android.database.BulkCursorDescriptor'
p329
sg15
(lp330
sg17
(lp331
sg19
(lp332
sg21
I0
sba(iArchitecture
Entity
p333
(dp334
g11
(lp335
sg13
S'android.database.BulkCursorDescriptor$1'
p336
sg15
(lp337
sg17
(lp338
sg19
(lp339
sg21
I0
sba(iArchitecture
Entity
p340
(dp341
g11
(lp342
sg13
S'android.database.BulkCursorNative'
p343
sg15
(lp344
sg17
(lp345
sg19
(lp346
sg21
I0
sba(iArchitecture
Entity
p347
(dp348
g11
(lp349
sg13
S'android.database.BulkCursorProxy'
p350
sg15
(lp351
sg17
(lp352
sg19
(lp353
sg21
I0
sba(iArchitecture
Entity
p354
(dp355
g11
(lp356
sg13
S'android.database.ContentObservable'
p357
sg15
(lp358
sg17
(lp359
sg19
(lp360
sg21
I0
sba(iArchitecture
Entity
p361
(dp362
g11
(lp363
sg13
S'android.database.ContentObserver'
p364
sg15
(lp365
sg17
(lp366
sg19
(lp367
sg21
I0
sba(iArchitecture
Entity
p368
(dp369
g11
(lp370
sg13
S'android.database.ContentObserver$NotificationRunnable'
p371
sg15
(lp372
sg17
(lp373
sg19
(lp374
sg21
I0
sba(iArchitecture
Entity
p375
(dp376
g11
(lp377
sg13
S'android.database.ContentObserver$Transport'
p378
sg15
(lp379
sg17
(lp380
sg19
(lp381
sg21
I0
sba(iArchitecture
Entity
p382
(dp383
g11
(lp384
sg13
S'android.database.CrossProcessCursor'
p385
sg15
(lp386
sg17
(lp387
sg19
(lp388
sg21
I0
sba(iArchitecture
Entity
p389
(dp390
g11
(lp391
sg13
S'android.database.CrossProcessCursorWrapper'
p392
sg15
(lp393
sg17
(lp394
sg19
(lp395
sg21
I0
sba(iArchitecture
Entity
p396
(dp397
g11
(lp398
sg13
S'android.database.CursorIndexOutOfBoundsException'
p399
sg15
(lp400
sg17
(lp401
sg19
(lp402
sg21
I0
sba(iArchitecture
Entity
p403
(dp404
g11
(lp405
sg13
S'android.database.CursorJoiner'
p406
sg15
(lp407
sg17
(lp408
sg19
(lp409
sg21
I0
sba(iArchitecture
Entity
p410
(dp411
g11
(lp412
sg13
S'android.database.CursorJoiner$Result'
p413
sg15
(lp414
sg17
(lp415
sg19
(lp416
sg21
I0
sba(iArchitecture
Entity
p417
(dp418
g11
(lp419
sg13
S'android.database.CursorToBulkCursorAdaptor'
p420
sg15
(lp421
sg17
(lp422
sg19
(lp423
sg21
I0
sba(iArchitecture
Entity
p424
(dp425
g11
(lp426
sg13
S'android.database.CursorToBulkCursorAdaptor$ContentObserverProxy'
p427
sg15
(lp428
sg17
(lp429
sg19
(lp430
sg21
I0
sba(iArchitecture
Entity
p431
(dp432
g11
(lp433
sg13
S'android.database.CursorWindow'
p434
sg15
(lp435
sg17
(lp436
sg19
(lp437
sg21
I0
sba(iArchitecture
Entity
p438
(dp439
g11
(lp440
sg13
S'android.database.CursorWindow$1'
p441
sg15
(lp442
sg17
(lp443
sg19
(lp444
sg21
I0
sba(iArchitecture
Entity
p445
(dp446
g11
(lp447
sg13
S'android.database.CursorWindowAllocationException'
p448
sg15
(lp449
sg17
(lp450
sg19
(lp451
sg21
I0
sba(iArchitecture
Entity
p452
(dp453
g11
(lp454
sg13
S'android.database.DatabaseUtils'
p455
sg15
(lp456
sg17
(lp457
sg19
(lp458
sg21
I0
sba(iArchitecture
Entity
p459
(dp460
g11
(lp461
sg13
S'android.database.DatabaseUtils$InsertHelper'
p462
sg15
(lp463
sg17
(lp464
sg19
(lp465
sg21
I0
sba(iArchitecture
Entity
p466
(dp467
g11
(lp468
sg13
S'android.database.IBulkCursor'
p469
sg15
(lp470
sg17
(lp471
sg19
(lp472
sg21
I0
sba(iArchitecture
Entity
p473
(dp474
g11
(lp475
sg13
S'android.database.IContentObserver$Stub'
p476
sg15
(lp477
sg17
(lp478
sg19
(lp479
sg21
I0
sba(iArchitecture
Entity
p480
(dp481
g11
(lp482
sg13
S'android.database.IContentObserver$Stub$Proxy'
p483
sg15
(lp484
sg17
(lp485
sg19
(lp486
sg21
I0
sba(iArchitecture
Entity
p487
(dp488
g11
(lp489
sg13
S'android.database.MatrixCursor'
p490
sg15
(lp491
sg17
(lp492
sg19
(lp493
sg21
I0
sba(iArchitecture
Entity
p494
(dp495
g11
(lp496
sg13
S'android.database.MatrixCursor$RowBuilder'
p497
sg15
(lp498
sg17
(lp499
sg19
(lp500
sg21
I0
sba(iArchitecture
Entity
p501
(dp502
g11
(lp503
sg13
S'android.database.MergeCursor'
p504
sg15
(lp505
sg17
(lp506
sg19
(lp507
sg21
I0
sba(iArchitecture
Entity
p508
(dp509
g11
(lp510
sg13
S'android.database.MergeCursor$1'
p511
sg15
(lp512
sg17
(lp513
sg19
(lp514
sg21
I0
sba(iArchitecture
Entity
p515
(dp516
g11
(lp517
sg13
S'android.database.StaleDataException'
p518
sg15
(lp519
sg17
(lp520
sg19
(lp521
sg21
I0
sba(iArchitecture
Entity
p522
(dp523
g11
(lp524
sg13
S'android.database.sqlite.SQLiteAbortException'
p525
sg15
(lp526
sg17
(lp527
sg19
(lp528
sg21
I0
sba(iArchitecture
Entity
p529
(dp530
g11
(lp531
sg13
S'android.database.sqlite.SQLiteConstraintException'
p532
sg15
(lp533
sg17
(lp534
sg19
(lp535
sg21
I0
sba(iArchitecture
Entity
p536
(dp537
g11
(lp538
sg13
S'android.database.sqlite.SQLiteDatabaseCorruptException'
p539
sg15
(lp540
sg17
(lp541
sg19
(lp542
sg21
I0
sba(iArchitecture
Entity
p543
(dp544
g11
(lp545
sg13
S'android.database.sqlite.SQLiteDiskIOException'
p546
sg15
(lp547
sg17
(lp548
sg19
(lp549
sg21
I0
sba(iArchitecture
Entity
p550
(dp551
g11
(lp552
sg13
S'android.database.sqlite.SQLiteException'
p553
sg15
(lp554
sg17
(lp555
sg19
(lp556
sg21
I0
sba(iArchitecture
Entity
p557
(dp558
g11
(lp559
sg13
S'android.database.sqlite.SQLiteFullException'
p560
sg15
(lp561
sg17
(lp562
sg19
(lp563
sg21
I0
sba(iArchitecture
Entity
p564
(dp565
g11
(lp566
sg13
S'android.database.sqlite.SQLiteProgram'
p567
sg15
(lp568
sg17
(lp569
sg19
(lp570
sg21
I0
sba(iArchitecture
Entity
p571
(dp572
g11
(lp573
sg13
S'android.database.sqlite.SQLiteStatement'
p574
sg15
(lp575
sg17
(lp576
sg19
(lp577
sg21
I0
sbasg43
(lp578
g322
ag329
ag336
ag343
ag350
ag357
ag364
ag371
ag378
ag385
ag392
ag399
ag406
ag413
ag420
ag427
ag434
ag441
ag448
ag455
ag462
ag469
ag476
ag483
ag490
ag497
ag504
ag511
ag518
ag525
ag532
ag539
ag546
ag553
ag560
ag567
ag574
asg21
I0
sg45
S'android.database.ss'
p579
sba(iArchitecture
Cluster
p580
(dp581
g7
(lp582
(iArchitecture
Entity
p583
(dp584
g11
(lp585
sg13
S'android.database.Cursor'
p586
sg15
(lp587
sg17
(lp588
sg19
(lp589
sg21
I0
sbasg43
(lp590
g586
asg21
I0
sg45
S'android.provider.ss'
p591
sba(iArchitecture
Cluster
p592
(dp593
g7
(lp594
(iArchitecture
Entity
p595
(dp596
g11
(lp597
sg13
S'android.database.DataSetObserver'
p598
sg15
(lp599
sg17
(lp600
sg19
(lp601
sg21
I0
sbasg43
(lp602
g598
asg21
I0
sg45
S'android.widget.ss'
p603
sba(iArchitecture
Cluster
p604
(dp605
g7
(lp606
(iArchitecture
Entity
p607
(dp608
g11
(lp609
sg13
S'android.database.SQLException'
p610
sg15
(lp611
sg17
(lp612
sg19
(lp613
sg21
I0
sbasg43
(lp614
g610
asg21
I0
sg45
S'com.android.internal.telephony.ss'
p615
sba(iArchitecture
Cluster
p616
(dp617
g7
(lp618
(iArchitecture
Entity
p619
(dp620
g11
(lp621
sg13
S'android.database.IContentObserver'
p622
sg15
(lp623
sg17
(lp624
sg19
(lp625
sg21
I0
sbasg43
(lp626
g622
asg21
I0
sg45
S'com.android.server.content.ss'
p627
sba(iArchitecture
Cluster
p628
(dp629
g7
(lp630
(iArchitecture
Entity
p631
(dp632
g11
(lp633
sg13
S'android.database.sqlite.SQLiteOpenHelper'
p634
sg15
(lp635
sg17
(lp636
sg19
(lp637
sg21
I0
sbasg43
(lp638
g634
asg21
I0
sg45
S'com.android.server.notification.ss'
p639
sba(iArchitecture
Cluster
p640
(dp641
g7
(lp642
(iArchitecture
Entity
p643
(dp644
g11
(lp645
sg13
S'android.database.sqlite.SQLiteAccessPermException'
p646
sg15
(lp647
sg17
(lp648
sg19
(lp649
sg21
I0
sba(iArchitecture
Entity
p650
(dp651
g11
(lp652
sg13
S'android.database.sqlite.SQLiteBlobTooBigException'
p653
sg15
(lp654
sg17
(lp655
sg19
(lp656
sg21
I0
sba(iArchitecture
Entity
p657
(dp658
g11
(lp659
sg13
S'android.database.sqlite.SQLiteCantOpenDatabaseException'
p660
sg15
(lp661
sg17
(lp662
sg19
(lp663
sg21
I0
sba(iArchitecture
Entity
p664
(dp665
g11
(lp666
sg13
S'android.database.sqlite.SQLiteDatatypeMismatchException'
p667
sg15
(lp668
sg17
(lp669
sg19
(lp670
sg21
I0
sba(iArchitecture
Entity
p671
(dp672
g11
(lp673
sg13
S'android.database.sqlite.SQLiteDoneException'
p674
sg15
(lp675
sg17
(lp676
sg19
(lp677
sg21
I0
sba(iArchitecture
Entity
p678
(dp679
g11
(lp680
sg13
S'android.database.sqlite.SQLiteMisuseException'
p681
sg15
(lp682
sg17
(lp683
sg19
(lp684
sg21
I0
sba(iArchitecture
Entity
p685
(dp686
g11
(lp687
sg13
S'android.database.sqlite.SQLiteOutOfMemoryException'
p688
sg15
(lp689
sg17
(lp690
sg19
(lp691
sg21
I0
sba(iArchitecture
Entity
p692
(dp693
g11
(lp694
sg13
S'android.database.sqlite.SQLiteReadOnlyDatabaseException'
p695
sg15
(lp696
sg17
(lp697
sg19
(lp698
sg21
I0
sba(iArchitecture
Entity
p699
(dp700
g11
(lp701
sg13
S'android.database.sqlite.SQLiteTableLockedException'
p702
sg15
(lp703
sg17
(lp704
sg19
(lp705
sg21
I0
sbasg43
(lp706
g646
ag653
ag660
ag667
ag674
ag681
ag688
ag695
ag702
asg21
I0
sg45
S'com.android.server.pm.ss'
p707
sba(iArchitecture
Cluster
p708
(dp709
g7
(lp710
(iArchitecture
Entity
p711
(dp712
g11
(lp713
sg13
S'android.database.DataSetObservable'
p714
sg15
(lp715
sg17
(lp716
sg19
(lp717
sg21
I0
sba(iArchitecture
Entity
p718
(dp719
g11
(lp720
sg13
S'android.database.Observable'
p721
sg15
(lp722
sg17
(lp723
sg19
(lp724
sg21
I0
sbasg43
(lp725
g714
ag721
asg21
I0
sg45
S'com.android.server.policy.ss'
p726
sbasS'target_sub'
p727
S'android.database'
p728
sg43
(lp729
sS'is_component_arch'
p730
I00
sg45
S'6.0.0_r1'
p731
sba(iArchitecture
Architecture
p732
(dp733
g3
(lp734
(iArchitecture
Cluster
p735
(dp736
g7
(lp737
(iArchitecture
Entity
p738
(dp739
g11
(lp740
sg13
S'android.database.SQLException'
p741
sg15
(lp742
sg17
(lp743
sg19
(lp744
sg21
I0
sbasg43
(lp745
g741
asg21
I0
sg45
S'android.accounts.ss'
p746
sba(iArchitecture
Cluster
p747
(dp748
g7
(lp749
(iArchitecture
Entity
p750
(dp751
g11
(lp752
sg13
S'android.database.CharArrayBuffer'
p753
sg15
(lp754
sg17
(lp755
sg19
(lp756
sg21
I0
sba(iArchitecture
Entity
p757
(dp758
g11
(lp759
sg13
S'android.database.CursorWrapper'
p760
sg15
(lp761
sg17
(lp762
sg19
(lp763
sg21
I0
sbasg43
(lp764
g753
ag760
asg21
I0
sg45
S'android.app.ss'
p765
sba(iArchitecture
Cluster
p766
(dp767
g7
(lp768
(iArchitecture
Entity
p769
(dp770
g11
(lp771
sg13
S'android.database.AbstractCursor$SelfContentObserver'
p772
sg15
(lp773
sg17
(lp774
sg19
(lp775
sg21
I0
sba(iArchitecture
Entity
p776
(dp777
g11
(lp778
sg13
S'android.database.BulkCursorToCursorAdaptor'
p779
sg15
(lp780
sg17
(lp781
sg19
(lp782
sg21
I0
sbasg43
(lp783
g772
ag779
asg21
I0
sg45
S'android.content.ss'
p784
sba(iArchitecture
Cluster
p785
(dp786
g7
(lp787
(iArchitecture
Entity
p788
(dp789
g11
(lp790
sg13
S'android.database.AbstractWindowedCursor'
p791
sg15
(lp792
sg17
(lp793
sg19
(lp794
sg21
I0
sba(iArchitecture
Entity
p795
(dp796
g11
(lp797
sg13
S'android.database.DatabaseErrorHandler'
p798
sg15
(lp799
sg17
(lp800
sg19
(lp801
sg21
I0
sba(iArchitecture
Entity
p802
(dp803
g11
(lp804
sg13
S'android.database.DefaultDatabaseErrorHandler'
p805
sg15
(lp806
sg17
(lp807
sg19
(lp808
sg21
I0
sba(iArchitecture
Entity
p809
(dp810
g11
(lp811
sg13
S'android.database.sqlite.DatabaseObjectNotClosedException'
p812
sg15
(lp813
sg17
(lp814
sg19
(lp815
sg21
I0
sba(iArchitecture
Entity
p816
(dp817
g11
(lp818
sg13
S'android.database.sqlite.SQLiteBindOrColumnIndexOutOfRangeException'
p819
sg15
(lp820
sg17
(lp821
sg19
(lp822
sg21
I0
sba(iArchitecture
Entity
p823
(dp824
g11
(lp825
sg13
S'android.database.sqlite.SQLiteClosable'
p826
sg15
(lp827
sg17
(lp828
sg19
(lp829
sg21
I0
sba(iArchitecture
Entity
p830
(dp831
g11
(lp832
sg13
S'android.database.sqlite.SQLiteConnection'
p833
sg15
(lp834
sg17
(lp835
sg19
(lp836
sg21
I0
sba(iArchitecture
Entity
p837
(dp838
g11
(lp839
sg13
S'android.database.sqlite.SQLiteConnection$Operation'
p840
sg15
(lp841
sg17
(lp842
sg19
(lp843
sg21
I0
sba(iArchitecture
Entity
p844
(dp845
g11
(lp846
sg13
S'android.database.sqlite.SQLiteConnection$OperationLog'
p847
sg15
(lp848
sg17
(lp849
sg19
(lp850
sg21
I0
sba(iArchitecture
Entity
p851
(dp852
g11
(lp853
sg13
S'android.database.sqlite.SQLiteConnection$PreparedStatement'
p854
sg15
(lp855
sg17
(lp856
sg19
(lp857
sg21
I0
sba(iArchitecture
Entity
p858
(dp859
g11
(lp860
sg13
S'android.database.sqlite.SQLiteConnection$PreparedStatementCache'
p861
sg15
(lp862
sg17
(lp863
sg19
(lp864
sg21
I0
sba(iArchitecture
Entity
p865
(dp866
g11
(lp867
sg13
S'android.database.sqlite.SQLiteConnectionPool'
p868
sg15
(lp869
sg17
(lp870
sg19
(lp871
sg21
I0
sba(iArchitecture
Entity
p872
(dp873
g11
(lp874
sg13
S'android.database.sqlite.SQLiteConnectionPool$1'
p875
sg15
(lp876
sg17
(lp877
sg19
(lp878
sg21
I0
sba(iArchitecture
Entity
p879
(dp880
g11
(lp881
sg13
S'android.database.sqlite.SQLiteConnectionPool$AcquiredConnectionStatus'
p882
sg15
(lp883
sg17
(lp884
sg19
(lp885
sg21
I0
sba(iArchitecture
Entity
p886
(dp887
g11
(lp888
sg13
S'android.database.sqlite.SQLiteConnectionPool$ConnectionWaiter'
p889
sg15
(lp890
sg17
(lp891
sg19
(lp892
sg21
I0
sba(iArchitecture
Entity
p893
(dp894
g11
(lp895
sg13
S'android.database.sqlite.SQLiteCursor'
p896
sg15
(lp897
sg17
(lp898
sg19
(lp899
sg21
I0
sba(iArchitecture
Entity
p900
(dp901
g11
(lp902
sg13
S'android.database.sqlite.SQLiteCursorDriver'
p903
sg15
(lp904
sg17
(lp905
sg19
(lp906
sg21
I0
sba(iArchitecture
Entity
p907
(dp908
g11
(lp909
sg13
S'android.database.sqlite.SQLiteCustomFunction'
p910
sg15
(lp911
sg17
(lp912
sg19
(lp913
sg21
I0
sba(iArchitecture
Entity
p914
(dp915
g11
(lp916
sg13
S'android.database.sqlite.SQLiteDatabase'
p917
sg15
(lp918
sg17
(lp919
sg19
(lp920
sg21
I0
sba(iArchitecture
Entity
p921
(dp922
g11
(lp923
sg13
S'android.database.sqlite.SQLiteDatabase$1'
p924
sg15
(lp925
sg17
(lp926
sg19
(lp927
sg21
I0
sba(iArchitecture
Entity
p928
(dp929
g11
(lp930
sg13
S'android.database.sqlite.SQLiteDatabase$2'
p931
sg15
(lp932
sg17
(lp933
sg19
(lp934
sg21
I0
sba(iArchitecture
Entity
p935
(dp936
g11
(lp937
sg13
S'android.database.sqlite.SQLiteDatabase$CustomFunction'
p938
sg15
(lp939
sg17
(lp940
sg19
(lp941
sg21
I0
sba(iArchitecture
Entity
p942
(dp943
g11
(lp944
sg13
S'android.database.sqlite.SQLiteDatabaseConfiguration'
p945
sg15
(lp946
sg17
(lp947
sg19
(lp948
sg21
I0
sba(iArchitecture
Entity
p949
(dp950
g11
(lp951
sg13
S'android.database.sqlite.SQLiteDatabaseLockedException'
p952
sg15
(lp953
sg17
(lp954
sg19
(lp955
sg21
I0
sba(iArchitecture
Entity
p956
(dp957
g11
(lp958
sg13
S'android.database.sqlite.SQLiteDebug'
p959
sg15
(lp960
sg17
(lp961
sg19
(lp962
sg21
I0
sba(iArchitecture
Entity
p963
(dp964
g11
(lp965
sg13
S'android.database.sqlite.SQLiteDebug$DbStats'
p966
sg15
(lp967
sg17
(lp968
sg19
(lp969
sg21
I0
sba(iArchitecture
Entity
p970
(dp971
g11
(lp972
sg13
S'android.database.sqlite.SQLiteDebug$PagerStats'
p973
sg15
(lp974
sg17
(lp975
sg19
(lp976
sg21
I0
sba(iArchitecture
Entity
p977
(dp978
g11
(lp979
sg13
S'android.database.sqlite.SQLiteDirectCursorDriver'
p980
sg15
(lp981
sg17
(lp982
sg19
(lp983
sg21
I0
sba(iArchitecture
Entity
p984
(dp985
g11
(lp986
sg13
S'android.database.sqlite.SQLiteGlobal'
p987
sg15
(lp988
sg17
(lp989
sg19
(lp990
sg21
I0
sba(iArchitecture
Entity
p991
(dp992
g11
(lp993
sg13
S'android.database.sqlite.SQLiteQuery'
p994
sg15
(lp995
sg17
(lp996
sg19
(lp997
sg21
I0
sba(iArchitecture
Entity
p998
(dp999
g11
(lp1000
sg13
S'android.database.sqlite.SQLiteQueryBuilder'
p1001
sg15
(lp1002
sg17
(lp1003
sg19
(lp1004
sg21
I0
sba(iArchitecture
Entity
p1005
(dp1006
g11
(lp1007
sg13
S'android.database.sqlite.SQLiteSession'
p1008
sg15
(lp1009
sg17
(lp1010
sg19
(lp1011
sg21
I0
sba(iArchitecture
Entity
p1012
(dp1013
g11
(lp1014
sg13
S'android.database.sqlite.SQLiteSession$Transaction'
p1015
sg15
(lp1016
sg17
(lp1017
sg19
(lp1018
sg21
I0
sba(iArchitecture
Entity
p1019
(dp1020
g11
(lp1021
sg13
S'android.database.sqlite.SQLiteStatementInfo'
p1022
sg15
(lp1023
sg17
(lp1024
sg19
(lp1025
sg21
I0
sba(iArchitecture
Entity
p1026
(dp1027
g11
(lp1028
sg13
S'android.database.sqlite.SQLiteTransactionListener'
p1029
sg15
(lp1030
sg17
(lp1031
sg19
(lp1032
sg21
I0
sbasg43
(lp1033
g791
ag798
ag805
ag812
ag819
ag826
ag833
ag840
ag847
ag854
ag861
ag868
ag875
ag882
ag889
ag896
ag903
ag910
ag917
ag924
ag931
ag938
ag945
ag952
ag959
ag966
ag973
ag980
ag987
ag994
ag1001
ag1008
ag1015
ag1022
ag1029
asg21
I0
sg45
S'android.database.sqlite.ss'
p1034
sba(iArchitecture
Cluster
p1035
(dp1036
g7
(lp1037
(iArchitecture
Entity
p1038
(dp1039
g11
(lp1040
sg13
S'android.database.AbstractCursor'
p1041
sg15
(lp1042
sg17
(lp1043
sg19
(lp1044
sg21
I0
sba(iArchitecture
Entity
p1045
(dp1046
g11
(lp1047
sg13
S'android.database.BulkCursorDescriptor'
p1048
sg15
(lp1049
sg17
(lp1050
sg19
(lp1051
sg21
I0
sba(iArchitecture
Entity
p1052
(dp1053
g11
(lp1054
sg13
S'android.database.BulkCursorDescriptor$1'
p1055
sg15
(lp1056
sg17
(lp1057
sg19
(lp1058
sg21
I0
sba(iArchitecture
Entity
p1059
(dp1060
g11
(lp1061
sg13
S'android.database.BulkCursorNative'
p1062
sg15
(lp1063
sg17
(lp1064
sg19
(lp1065
sg21
I0
sba(iArchitecture
Entity
p1066
(dp1067
g11
(lp1068
sg13
S'android.database.BulkCursorProxy'
p1069
sg15
(lp1070
sg17
(lp1071
sg19
(lp1072
sg21
I0
sba(iArchitecture
Entity
p1073
(dp1074
g11
(lp1075
sg13
S'android.database.ContentObservable'
p1076
sg15
(lp1077
sg17
(lp1078
sg19
(lp1079
sg21
I0
sba(iArchitecture
Entity
p1080
(dp1081
g11
(lp1082
sg13
S'android.database.ContentObserver'
p1083
sg15
(lp1084
sg17
(lp1085
sg19
(lp1086
sg21
I0
sba(iArchitecture
Entity
p1087
(dp1088
g11
(lp1089
sg13
S'android.database.ContentObserver$NotificationRunnable'
p1090
sg15
(lp1091
sg17
(lp1092
sg19
(lp1093
sg21
I0
sba(iArchitecture
Entity
p1094
(dp1095
g11
(lp1096
sg13
S'android.database.ContentObserver$Transport'
p1097
sg15
(lp1098
sg17
(lp1099
sg19
(lp1100
sg21
I0
sba(iArchitecture
Entity
p1101
(dp1102
g11
(lp1103
sg13
S'android.database.CrossProcessCursor'
p1104
sg15
(lp1105
sg17
(lp1106
sg19
(lp1107
sg21
I0
sba(iArchitecture
Entity
p1108
(dp1109
g11
(lp1110
sg13
S'android.database.CrossProcessCursorWrapper'
p1111
sg15
(lp1112
sg17
(lp1113
sg19
(lp1114
sg21
I0
sba(iArchitecture
Entity
p1115
(dp1116
g11
(lp1117
sg13
S'android.database.CursorIndexOutOfBoundsException'
p1118
sg15
(lp1119
sg17
(lp1120
sg19
(lp1121
sg21
I0
sba(iArchitecture
Entity
p1122
(dp1123
g11
(lp1124
sg13
S'android.database.CursorJoiner'
p1125
sg15
(lp1126
sg17
(lp1127
sg19
(lp1128
sg21
I0
sba(iArchitecture
Entity
p1129
(dp1130
g11
(lp1131
sg13
S'android.database.CursorJoiner$Result'
p1132
sg15
(lp1133
sg17
(lp1134
sg19
(lp1135
sg21
I0
sba(iArchitecture
Entity
p1136
(dp1137
g11
(lp1138
sg13
S'android.database.CursorToBulkCursorAdaptor'
p1139
sg15
(lp1140
sg17
(lp1141
sg19
(lp1142
sg21
I0
sba(iArchitecture
Entity
p1143
(dp1144
g11
(lp1145
sg13
S'android.database.CursorToBulkCursorAdaptor$ContentObserverProxy'
p1146
sg15
(lp1147
sg17
(lp1148
sg19
(lp1149
sg21
I0
sba(iArchitecture
Entity
p1150
(dp1151
g11
(lp1152
sg13
S'android.database.CursorWindow'
p1153
sg15
(lp1154
sg17
(lp1155
sg19
(lp1156
sg21
I0
sba(iArchitecture
Entity
p1157
(dp1158
g11
(lp1159
sg13
S'android.database.CursorWindow$1'
p1160
sg15
(lp1161
sg17
(lp1162
sg19
(lp1163
sg21
I0
sba(iArchitecture
Entity
p1164
(dp1165
g11
(lp1166
sg13
S'android.database.CursorWindowAllocationException'
p1167
sg15
(lp1168
sg17
(lp1169
sg19
(lp1170
sg21
I0
sba(iArchitecture
Entity
p1171
(dp1172
g11
(lp1173
sg13
S'android.database.DatabaseUtils'
p1174
sg15
(lp1175
sg17
(lp1176
sg19
(lp1177
sg21
I0
sba(iArchitecture
Entity
p1178
(dp1179
g11
(lp1180
sg13
S'android.database.DatabaseUtils$InsertHelper'
p1181
sg15
(lp1182
sg17
(lp1183
sg19
(lp1184
sg21
I0
sba(iArchitecture
Entity
p1185
(dp1186
g11
(lp1187
sg13
S'android.database.IBulkCursor'
p1188
sg15
(lp1189
sg17
(lp1190
sg19
(lp1191
sg21
I0
sba(iArchitecture
Entity
p1192
(dp1193
g11
(lp1194
sg13
S'android.database.IContentObserver$Stub'
p1195
sg15
(lp1196
sg17
(lp1197
sg19
(lp1198
sg21
I0
sba(iArchitecture
Entity
p1199
(dp1200
g11
(lp1201
sg13
S'android.database.IContentObserver$Stub$Proxy'
p1202
sg15
(lp1203
sg17
(lp1204
sg19
(lp1205
sg21
I0
sba(iArchitecture
Entity
p1206
(dp1207
g11
(lp1208
sg13
S'android.database.MatrixCursor'
p1209
sg15
(lp1210
sg17
(lp1211
sg19
(lp1212
sg21
I0
sba(iArchitecture
Entity
p1213
(dp1214
g11
(lp1215
sg13
S'android.database.MatrixCursor$RowBuilder'
p1216
sg15
(lp1217
sg17
(lp1218
sg19
(lp1219
sg21
I0
sba(iArchitecture
Entity
p1220
(dp1221
g11
(lp1222
sg13
S'android.database.MergeCursor'
p1223
sg15
(lp1224
sg17
(lp1225
sg19
(lp1226
sg21
I0
sba(iArchitecture
Entity
p1227
(dp1228
g11
(lp1229
sg13
S'android.database.MergeCursor$1'
p1230
sg15
(lp1231
sg17
(lp1232
sg19
(lp1233
sg21
I0
sba(iArchitecture
Entity
p1234
(dp1235
g11
(lp1236
sg13
S'android.database.StaleDataException'
p1237
sg15
(lp1238
sg17
(lp1239
sg19
(lp1240
sg21
I0
sba(iArchitecture
Entity
p1241
(dp1242
g11
(lp1243
sg13
S'android.database.sqlite.SQLiteAbortException'
p1244
sg15
(lp1245
sg17
(lp1246
sg19
(lp1247
sg21
I0
sba(iArchitecture
Entity
p1248
(dp1249
g11
(lp1250
sg13
S'android.database.sqlite.SQLiteConstraintException'
p1251
sg15
(lp1252
sg17
(lp1253
sg19
(lp1254
sg21
I0
sba(iArchitecture
Entity
p1255
(dp1256
g11
(lp1257
sg13
S'android.database.sqlite.SQLiteDatabaseCorruptException'
p1258
sg15
(lp1259
sg17
(lp1260
sg19
(lp1261
sg21
I0
sba(iArchitecture
Entity
p1262
(dp1263
g11
(lp1264
sg13
S'android.database.sqlite.SQLiteDiskIOException'
p1265
sg15
(lp1266
sg17
(lp1267
sg19
(lp1268
sg21
I0
sba(iArchitecture
Entity
p1269
(dp1270
g11
(lp1271
sg13
S'android.database.sqlite.SQLiteException'
p1272
sg15
(lp1273
sg17
(lp1274
sg19
(lp1275
sg21
I0
sba(iArchitecture
Entity
p1276
(dp1277
g11
(lp1278
sg13
S'android.database.sqlite.SQLiteFullException'
p1279
sg15
(lp1280
sg17
(lp1281
sg19
(lp1282
sg21
I0
sba(iArchitecture
Entity
p1283
(dp1284
g11
(lp1285
sg13
S'android.database.sqlite.SQLiteProgram'
p1286
sg15
(lp1287
sg17
(lp1288
sg19
(lp1289
sg21
I0
sba(iArchitecture
Entity
p1290
(dp1291
g11
(lp1292
sg13
S'android.database.sqlite.SQLiteStatement'
p1293
sg15
(lp1294
sg17
(lp1295
sg19
(lp1296
sg21
I0
sbasg43
(lp1297
g1041
ag1048
ag1055
ag1062
ag1069
ag1076
ag1083
ag1090
ag1097
ag1104
ag1111
ag1118
ag1125
ag1132
ag1139
ag1146
ag1153
ag1160
ag1167
ag1174
ag1181
ag1188
ag1195
ag1202
ag1209
ag1216
ag1223
ag1230
ag1237
ag1244
ag1251
ag1258
ag1265
ag1272
ag1279
ag1286
ag1293
asg21
I0
sg45
S'android.database.ss'
p1298
sba(iArchitecture
Cluster
p1299
(dp1300
g7
(lp1301
(iArchitecture
Entity
p1302
(dp1303
g11
(lp1304
sg13
S'android.database.Cursor'
p1305
sg15
(lp1306
sg17
(lp1307
sg19
(lp1308
sg21
I0
sbasg43
(lp1309
g1305
asg21
I0
sg45
S'android.provider.ss'
p1310
sba(iArchitecture
Cluster
p1311
(dp1312
g7
(lp1313
(iArchitecture
Entity
p1314
(dp1315
g11
(lp1316
sg13
S'android.database.DataSetObserver'
p1317
sg15
(lp1318
sg17
(lp1319
sg19
(lp1320
sg21
I0
sbasg43
(lp1321
g1317
asg21
I0
sg45
S'com.android.internal.app.ss'
p1322
sba(iArchitecture
Cluster
p1323
(dp1324
g7
(lp1325
(iArchitecture
Entity
p1326
(dp1327
g11
(lp1328
sg13
S'android.database.sqlite.SQLiteDatabase$CursorFactory'
p1329
sg15
(lp1330
sg17
(lp1331
sg19
(lp1332
sg21
I0
sba(iArchitecture
Entity
p1333
(dp1334
g11
(lp1335
sg13
S'android.database.sqlite.SQLiteOpenHelper'
p1336
sg15
(lp1337
sg17
(lp1338
sg19
(lp1339
sg21
I0
sbasg43
(lp1340
g1329
ag1336
asg21
I0
sg45
S'com.android.server.accounts.ss'
p1341
sba(iArchitecture
Cluster
p1342
(dp1343
g7
(lp1344
(iArchitecture
Entity
p1345
(dp1346
g11
(lp1347
sg13
S'android.database.IContentObserver'
p1348
sg15
(lp1349
sg17
(lp1350
sg19
(lp1351
sg21
I0
sbasg43
(lp1352
g1348
asg21
I0
sg45
S'com.android.server.content.ss'
p1353
sba(iArchitecture
Cluster
p1354
(dp1355
g7
(lp1356
(iArchitecture
Entity
p1357
(dp1358
g11
(lp1359
sg13
S'android.database.sqlite.SQLiteAccessPermException'
p1360
sg15
(lp1361
sg17
(lp1362
sg19
(lp1363
sg21
I0
sba(iArchitecture
Entity
p1364
(dp1365
g11
(lp1366
sg13
S'android.database.sqlite.SQLiteBlobTooBigException'
p1367
sg15
(lp1368
sg17
(lp1369
sg19
(lp1370
sg21
I0
sba(iArchitecture
Entity
p1371
(dp1372
g11
(lp1373
sg13
S'android.database.sqlite.SQLiteCantOpenDatabaseException'
p1374
sg15
(lp1375
sg17
(lp1376
sg19
(lp1377
sg21
I0
sba(iArchitecture
Entity
p1378
(dp1379
g11
(lp1380
sg13
S'android.database.sqlite.SQLiteDatatypeMismatchException'
p1381
sg15
(lp1382
sg17
(lp1383
sg19
(lp1384
sg21
I0
sba(iArchitecture
Entity
p1385
(dp1386
g11
(lp1387
sg13
S'android.database.sqlite.SQLiteDoneException'
p1388
sg15
(lp1389
sg17
(lp1390
sg19
(lp1391
sg21
I0
sba(iArchitecture
Entity
p1392
(dp1393
g11
(lp1394
sg13
S'android.database.sqlite.SQLiteMisuseException'
p1395
sg15
(lp1396
sg17
(lp1397
sg19
(lp1398
sg21
I0
sba(iArchitecture
Entity
p1399
(dp1400
g11
(lp1401
sg13
S'android.database.sqlite.SQLiteOutOfMemoryException'
p1402
sg15
(lp1403
sg17
(lp1404
sg19
(lp1405
sg21
I0
sba(iArchitecture
Entity
p1406
(dp1407
g11
(lp1408
sg13
S'android.database.sqlite.SQLiteReadOnlyDatabaseException'
p1409
sg15
(lp1410
sg17
(lp1411
sg19
(lp1412
sg21
I0
sba(iArchitecture
Entity
p1413
(dp1414
g11
(lp1415
sg13
S'android.database.sqlite.SQLiteTableLockedException'
p1416
sg15
(lp1417
sg17
(lp1418
sg19
(lp1419
sg21
I0
sba(iArchitecture
Entity
p1420
(dp1421
g11
(lp1422
sg13
S'android.database.sqlite.SqliteWrapper'
p1423
sg15
(lp1424
sg17
(lp1425
sg19
(lp1426
sg21
I0
sbasg43
(lp1427
g1360
ag1367
ag1374
ag1381
ag1388
ag1395
ag1402
ag1409
ag1416
ag1423
asg21
I0
sg45
S'com.android.server.pm.ss'
p1428
sba(iArchitecture
Cluster
p1429
(dp1430
g7
(lp1431
(iArchitecture
Entity
p1432
(dp1433
g11
(lp1434
sg13
S'android.database.DataSetObservable'
p1435
sg15
(lp1436
sg17
(lp1437
sg19
(lp1438
sg21
I0
sba(iArchitecture
Entity
p1439
(dp1440
g11
(lp1441
sg13
S'android.database.Observable'
p1442
sg15
(lp1443
sg17
(lp1444
sg19
(lp1445
sg21
I0
sbasg43
(lp1446
g1435
ag1442
asg21
I0
sg45
S'com.android.server.policy.ss'
p1447
sbasg727
g728
sg43
(lp1448
sg730
I00
sg45
S'7.0.0_r1'
p1449
sba.