(lp0
(iArchitecture
Architecture
p1
(dp2
S'clusters'
p3
(lp4
(iArchitecture
Cluster
p5
(dp6
S'entities'
p7
(lp8
(iArchitecture
Entity
p9
(dp10
S'issue_ids'
p11
(lp12
sS'name'
p13
S'com.android.server.trust.TrustAgentWrapper'
p14
sS'descs'
p15
(lp16
sS'labels'
p17
(lp18
sS'titles'
p19
(lp20
sS'change'
p21
I0
sba(iArchitecture
Entity
p22
(dp23
g11
(lp24
sg13
S'com.android.server.trust.TrustAgentWrapper$1'
p25
sg15
(lp26
sg17
(lp27
sg19
(lp28
sg21
I0
sba(iArchitecture
Entity
p29
(dp30
g11
(lp31
sg13
S'com.android.server.trust.TrustAgentWrapper$2'
p32
sg15
(lp33
sg17
(lp34
sg19
(lp35
sg21
I0
sba(iArchitecture
Entity
p36
(dp37
g11
(lp38
sg13
S'com.android.server.trust.TrustAgentWrapper$3'
p39
sg15
(lp40
sg17
(lp41
sg19
(lp42
sg21
I0
sba(iArchitecture
Entity
p43
(dp44
g11
(lp45
sg13
S'com.android.server.trust.TrustAgentWrapper$4'
p46
sg15
(lp47
sg17
(lp48
sg19
(lp49
sg21
I0
sba(iArchitecture
Entity
p50
(dp51
g11
(lp52
sg13
S'com.android.server.trust.TrustArchive'
p53
sg15
(lp54
sg17
(lp55
sg19
(lp56
sg21
I0
sba(iArchitecture
Entity
p57
(dp58
g11
(lp59
sg13
S'com.android.server.trust.TrustArchive$Event'
p60
sg15
(lp61
sg17
(lp62
sg19
(lp63
sg21
I0
sba(iArchitecture
Entity
p64
(dp65
g11
(lp66
sg13
S'com.android.server.trust.TrustManagerService'
p67
sg15
(lp68
sg17
(lp69
sg19
(lp70
sg21
I0
sba(iArchitecture
Entity
p71
(dp72
g11
(lp73
sg13
S'com.android.server.trust.TrustManagerService$1'
p74
sg15
(lp75
sg17
(lp76
sg19
(lp77
sg21
I0
sba(iArchitecture
Entity
p78
(dp79
g11
(lp80
sg13
S'com.android.server.trust.TrustManagerService$1$1'
p81
sg15
(lp82
sg17
(lp83
sg19
(lp84
sg21
I0
sba(iArchitecture
Entity
p85
(dp86
g11
(lp87
sg13
S'com.android.server.trust.TrustManagerService$2'
p88
sg15
(lp89
sg17
(lp90
sg19
(lp91
sg21
I0
sba(iArchitecture
Entity
p92
(dp93
g11
(lp94
sg13
S'com.android.server.trust.TrustManagerService$3'
p95
sg15
(lp96
sg17
(lp97
sg19
(lp98
sg21
I0
sba(iArchitecture
Entity
p99
(dp100
g11
(lp101
sg13
S'com.android.server.trust.TrustManagerService$AgentInfo'
p102
sg15
(lp103
sg17
(lp104
sg19
(lp105
sg21
I0
sba(iArchitecture
Entity
p106
(dp107
g11
(lp108
sg13
S'com.android.server.trust.TrustManagerService$Receiver'
p109
sg15
(lp110
sg17
(lp111
sg19
(lp112
sg21
I0
sbasS'classes'
p113
(lp114
g14
ag25
ag32
ag39
ag46
ag53
ag60
ag67
ag74
ag81
ag88
ag95
ag102
ag109
asg21
I0
sS'label'
p115
S'com.android.server.trust.ss'
p116
sbasS'target_sub'
p117
S'com.android.server.trust'
p118
sg113
(lp119
sS'is_component_arch'
p120
I00
sg115
S'6.0.0_r1'
p121
sba(iArchitecture
Architecture
p122
(dp123
g3
(lp124
(iArchitecture
Cluster
p125
(dp126
g7
(lp127
(iArchitecture
Entity
p128
(dp129
g11
(lp130
sg13
S'com.android.server.trust.TrustAgentWrapper'
p131
sg15
(lp132
sg17
(lp133
sg19
(lp134
sg21
I0
sba(iArchitecture
Entity
p135
(dp136
g11
(lp137
sg13
S'com.android.server.trust.TrustAgentWrapper$1'
p138
sg15
(lp139
sg17
(lp140
sg19
(lp141
sg21
I0
sba(iArchitecture
Entity
p142
(dp143
g11
(lp144
sg13
S'com.android.server.trust.TrustAgentWrapper$2'
p145
sg15
(lp146
sg17
(lp147
sg19
(lp148
sg21
I0
sba(iArchitecture
Entity
p149
(dp150
g11
(lp151
sg13
S'com.android.server.trust.TrustAgentWrapper$3'
p152
sg15
(lp153
sg17
(lp154
sg19
(lp155
sg21
I0
sba(iArchitecture
Entity
p156
(dp157
g11
(lp158
sg13
S'com.android.server.trust.TrustAgentWrapper$4'
p159
sg15
(lp160
sg17
(lp161
sg19
(lp162
sg21
I0
sba(iArchitecture
Entity
p163
(dp164
g11
(lp165
sg13
S'com.android.server.trust.TrustArchive'
p166
sg15
(lp167
sg17
(lp168
sg19
(lp169
sg21
I0
sba(iArchitecture
Entity
p170
(dp171
g11
(lp172
sg13
S'com.android.server.trust.TrustArchive$Event'
p173
sg15
(lp174
sg17
(lp175
sg19
(lp176
sg21
I0
sba(iArchitecture
Entity
p177
(dp178
g11
(lp179
sg13
S'com.android.server.trust.TrustManagerService'
p180
sg15
(lp181
sg17
(lp182
sg19
(lp183
sg21
I0
sba(iArchitecture
Entity
p184
(dp185
g11
(lp186
sg13
S'com.android.server.trust.TrustManagerService$1'
p187
sg15
(lp188
sg17
(lp189
sg19
(lp190
sg21
I0
sba(iArchitecture
Entity
p191
(dp192
g11
(lp193
sg13
S'com.android.server.trust.TrustManagerService$1$1'
p194
sg15
(lp195
sg17
(lp196
sg19
(lp197
sg21
I0
sba(iArchitecture
Entity
p198
(dp199
g11
(lp200
sg13
S'com.android.server.trust.TrustManagerService$2'
p201
sg15
(lp202
sg17
(lp203
sg19
(lp204
sg21
I0
sba(iArchitecture
Entity
p205
(dp206
g11
(lp207
sg13
S'com.android.server.trust.TrustManagerService$3'
p208
sg15
(lp209
sg17
(lp210
sg19
(lp211
sg21
I0
sba(iArchitecture
Entity
p212
(dp213
g11
(lp214
sg13
S'com.android.server.trust.TrustManagerService$AgentInfo'
p215
sg15
(lp216
sg17
(lp217
sg19
(lp218
sg21
I0
sba(iArchitecture
Entity
p219
(dp220
g11
(lp221
sg13
S'com.android.server.trust.TrustManagerService$Receiver'
p222
sg15
(lp223
sg17
(lp224
sg19
(lp225
sg21
I0
sba(iArchitecture
Entity
p226
(dp227
g11
(lp228
sg13
S'com.android.server.trust.TrustManagerService$StrongAuthTracker'
p229
sg15
(lp230
sg17
(lp231
sg19
(lp232
sg21
I0
sbasg113
(lp233
g131
ag138
ag145
ag152
ag159
ag166
ag173
ag180
ag187
ag194
ag201
ag208
ag215
ag222
ag229
asg21
I0
sg115
S'com.android.server.trust.ss'
p234
sbasg117
g118
sg113
(lp235
sg120
I00
sg115
S'7.0.0_r1'
p236
sba.