(lp0
(iArchitecture
Architecture
p1
(dp2
S'clusters'
p3
(lp4
(iArchitecture
Cluster
p5
(dp6
S'entities'
p7
(lp8
(iArchitecture
Entity
p9
(dp10
S'issue_ids'
p11
(lp12
sS'name'
p13
S'com.android.server.notification.CalendarTracker'
p14
sS'descs'
p15
(lp16
sS'labels'
p17
(lp18
sS'titles'
p19
(lp20
sS'change'
p21
I0
sba(iArchitecture
Entity
p22
(dp23
g11
(lp24
sg13
S'com.android.server.notification.CalendarTracker$1'
p25
sg15
(lp26
sg17
(lp27
sg19
(lp28
sg21
I0
sba(iArchitecture
Entity
p29
(dp30
g11
(lp31
sg13
S'com.android.server.notification.CalendarTracker$Callback'
p32
sg15
(lp33
sg17
(lp34
sg19
(lp35
sg21
I0
sba(iArchitecture
Entity
p36
(dp37
g11
(lp38
sg13
S'com.android.server.notification.CalendarTracker$CheckEventResult'
p39
sg15
(lp40
sg17
(lp41
sg19
(lp42
sg21
I0
sba(iArchitecture
Entity
p43
(dp44
g11
(lp45
sg13
S'com.android.server.notification.ConditionProviders'
p46
sg15
(lp47
sg17
(lp48
sg19
(lp49
sg21
I0
sba(iArchitecture
Entity
p50
(dp51
g11
(lp52
sg13
S'com.android.server.notification.ConditionProviders$Callback'
p53
sg15
(lp54
sg17
(lp55
sg19
(lp56
sg21
I0
sba(iArchitecture
Entity
p57
(dp58
g11
(lp59
sg13
S'com.android.server.notification.ConditionProviders$ConditionRecord'
p60
sg15
(lp61
sg17
(lp62
sg19
(lp63
sg21
I0
sba(iArchitecture
Entity
p64
(dp65
g11
(lp66
sg13
S'com.android.server.notification.CountdownConditionProvider'
p67
sg15
(lp68
sg17
(lp69
sg19
(lp70
sg21
I0
sba(iArchitecture
Entity
p71
(dp72
g11
(lp73
sg13
S'com.android.server.notification.CountdownConditionProvider$Receiver'
p74
sg15
(lp75
sg17
(lp76
sg19
(lp77
sg21
I0
sba(iArchitecture
Entity
p78
(dp79
g11
(lp80
sg13
S'com.android.server.notification.EventConditionProvider'
p81
sg15
(lp82
sg17
(lp83
sg19
(lp84
sg21
I0
sba(iArchitecture
Entity
p85
(dp86
g11
(lp87
sg13
S'com.android.server.notification.EventConditionProvider$1'
p88
sg15
(lp89
sg17
(lp90
sg19
(lp91
sg21
I0
sba(iArchitecture
Entity
p92
(dp93
g11
(lp94
sg13
S'com.android.server.notification.EventConditionProvider$2'
p95
sg15
(lp96
sg17
(lp97
sg19
(lp98
sg21
I0
sba(iArchitecture
Entity
p99
(dp100
g11
(lp101
sg13
S'com.android.server.notification.EventConditionProvider$3'
p102
sg15
(lp103
sg17
(lp104
sg19
(lp105
sg21
I0
sba(iArchitecture
Entity
p106
(dp107
g11
(lp108
sg13
S'com.android.server.notification.EventConditionProvider$4'
p109
sg15
(lp110
sg17
(lp111
sg19
(lp112
sg21
I0
sba(iArchitecture
Entity
p113
(dp114
g11
(lp115
sg13
S'com.android.server.notification.GlobalSortKeyComparator'
p116
sg15
(lp117
sg17
(lp118
sg19
(lp119
sg21
I0
sba(iArchitecture
Entity
p120
(dp121
g11
(lp122
sg13
S'com.android.server.notification.ManagedServices'
p123
sg15
(lp124
sg17
(lp125
sg19
(lp126
sg21
I0
sba(iArchitecture
Entity
p127
(dp128
g11
(lp129
sg13
S'com.android.server.notification.ManagedServices$1'
p130
sg15
(lp131
sg17
(lp132
sg19
(lp133
sg21
I0
sba(iArchitecture
Entity
p134
(dp135
g11
(lp136
sg13
S'com.android.server.notification.ManagedServices$Config'
p137
sg15
(lp138
sg17
(lp139
sg19
(lp140
sg21
I0
sba(iArchitecture
Entity
p141
(dp142
g11
(lp143
sg13
S'com.android.server.notification.ManagedServices$ManagedServiceInfo'
p144
sg15
(lp145
sg17
(lp146
sg19
(lp147
sg21
I0
sba(iArchitecture
Entity
p148
(dp149
g11
(lp150
sg13
S'com.android.server.notification.ManagedServices$SettingRestoredReceiver'
p151
sg15
(lp152
sg17
(lp153
sg19
(lp154
sg21
I0
sba(iArchitecture
Entity
p155
(dp156
g11
(lp157
sg13
S'com.android.server.notification.ManagedServices$SettingsObserver'
p158
sg15
(lp159
sg17
(lp160
sg19
(lp161
sg21
I0
sba(iArchitecture
Entity
p162
(dp163
g11
(lp164
sg13
S'com.android.server.notification.ManagedServices$UserProfiles'
p165
sg15
(lp166
sg17
(lp167
sg19
(lp168
sg21
I0
sba(iArchitecture
Entity
p169
(dp170
g11
(lp171
sg13
S'com.android.server.notification.NotificationComparator'
p172
sg15
(lp173
sg17
(lp174
sg19
(lp175
sg21
I0
sba(iArchitecture
Entity
p176
(dp177
g11
(lp178
sg13
S'com.android.server.notification.NotificationIntrusivenessExtractor'
p179
sg15
(lp180
sg17
(lp181
sg19
(lp182
sg21
I0
sba(iArchitecture
Entity
p183
(dp184
g11
(lp185
sg13
S'com.android.server.notification.NotificationIntrusivenessExtractor$1'
p186
sg15
(lp187
sg17
(lp188
sg19
(lp189
sg21
I0
sba(iArchitecture
Entity
p190
(dp191
g11
(lp192
sg13
S'com.android.server.notification.NotificationManagerInternal'
p193
sg15
(lp194
sg17
(lp195
sg19
(lp196
sg21
I0
sba(iArchitecture
Entity
p197
(dp198
g11
(lp199
sg13
S'com.android.server.notification.NotificationManagerService'
p200
sg15
(lp201
sg17
(lp202
sg19
(lp203
sg21
I0
sba(iArchitecture
Entity
p204
(dp205
g11
(lp206
sg13
S'com.android.server.notification.NotificationManagerService$1'
p207
sg15
(lp208
sg17
(lp209
sg19
(lp210
sg21
I0
sba(iArchitecture
Entity
p211
(dp212
g11
(lp213
sg13
S'com.android.server.notification.NotificationManagerService$10'
p214
sg15
(lp215
sg17
(lp216
sg19
(lp217
sg21
I0
sba(iArchitecture
Entity
p218
(dp219
g11
(lp220
sg13
S'com.android.server.notification.NotificationManagerService$2'
p221
sg15
(lp222
sg17
(lp223
sg19
(lp224
sg21
I0
sba(iArchitecture
Entity
p225
(dp226
g11
(lp227
sg13
S'com.android.server.notification.NotificationManagerService$3'
p228
sg15
(lp229
sg17
(lp230
sg19
(lp231
sg21
I0
sba(iArchitecture
Entity
p232
(dp233
g11
(lp234
sg13
S'com.android.server.notification.NotificationManagerService$4'
p235
sg15
(lp236
sg17
(lp237
sg19
(lp238
sg21
I0
sba(iArchitecture
Entity
p239
(dp240
g11
(lp241
sg13
S'com.android.server.notification.NotificationManagerService$5'
p242
sg15
(lp243
sg17
(lp244
sg19
(lp245
sg21
I0
sba(iArchitecture
Entity
p246
(dp247
g11
(lp248
sg13
S'com.android.server.notification.NotificationManagerService$5$1'
p249
sg15
(lp250
sg17
(lp251
sg19
(lp252
sg21
I0
sba(iArchitecture
Entity
p253
(dp254
g11
(lp255
sg13
S'com.android.server.notification.NotificationManagerService$6'
p256
sg15
(lp257
sg17
(lp258
sg19
(lp259
sg21
I0
sba(iArchitecture
Entity
p260
(dp261
g11
(lp262
sg13
S'com.android.server.notification.NotificationManagerService$7'
p263
sg15
(lp264
sg17
(lp265
sg19
(lp266
sg21
I0
sba(iArchitecture
Entity
p267
(dp268
g11
(lp269
sg13
S'com.android.server.notification.NotificationManagerService$8'
p270
sg15
(lp271
sg17
(lp272
sg19
(lp273
sg21
I0
sba(iArchitecture
Entity
p274
(dp275
g11
(lp276
sg13
S'com.android.server.notification.NotificationManagerService$9'
p277
sg15
(lp278
sg17
(lp279
sg19
(lp280
sg21
I0
sba(iArchitecture
Entity
p281
(dp282
g11
(lp283
sg13
S'com.android.server.notification.NotificationManagerService$Archive'
p284
sg15
(lp285
sg17
(lp286
sg19
(lp287
sg21
I0
sba(iArchitecture
Entity
p288
(dp289
g11
(lp290
sg13
S'com.android.server.notification.NotificationManagerService$DumpFilter'
p291
sg15
(lp292
sg17
(lp293
sg19
(lp294
sg21
I0
sba(iArchitecture
Entity
p295
(dp296
g11
(lp297
sg13
S'com.android.server.notification.NotificationManagerService$NotificationListeners'
p298
sg15
(lp299
sg17
(lp300
sg19
(lp301
sg21
I0
sba(iArchitecture
Entity
p302
(dp303
g11
(lp304
sg13
S'com.android.server.notification.NotificationManagerService$NotificationListeners$1'
p305
sg15
(lp306
sg17
(lp307
sg19
(lp308
sg21
I0
sba(iArchitecture
Entity
p309
(dp310
g11
(lp311
sg13
S'com.android.server.notification.NotificationManagerService$NotificationListeners$2'
p312
sg15
(lp313
sg17
(lp314
sg19
(lp315
sg21
I0
sba(iArchitecture
Entity
p316
(dp317
g11
(lp318
sg13
S'com.android.server.notification.NotificationManagerService$NotificationListeners$3'
p319
sg15
(lp320
sg17
(lp321
sg19
(lp322
sg21
I0
sba(iArchitecture
Entity
p323
(dp324
g11
(lp325
sg13
S'com.android.server.notification.NotificationManagerService$NotificationListeners$4'
p326
sg15
(lp327
sg17
(lp328
sg19
(lp329
sg21
I0
sba(iArchitecture
Entity
p330
(dp331
g11
(lp332
sg13
S'com.android.server.notification.NotificationManagerService$NotificationListeners$5'
p333
sg15
(lp334
sg17
(lp335
sg19
(lp336
sg21
I0
sba(iArchitecture
Entity
p337
(dp338
g11
(lp339
sg13
S'com.android.server.notification.NotificationManagerService$NotificationListeners$6'
p340
sg15
(lp341
sg17
(lp342
sg19
(lp343
sg21
I0
sba(iArchitecture
Entity
p344
(dp345
g11
(lp346
sg13
S'com.android.server.notification.NotificationManagerService$PolicyAccess'
p347
sg15
(lp348
sg17
(lp349
sg19
(lp350
sg21
I0
sba(iArchitecture
Entity
p351
(dp352
g11
(lp353
sg13
S'com.android.server.notification.NotificationManagerService$RankingWorkerHandler'
p354
sg15
(lp355
sg17
(lp356
sg19
(lp357
sg21
I0
sba(iArchitecture
Entity
p358
(dp359
g11
(lp360
sg13
S'com.android.server.notification.NotificationManagerService$SettingsObserver'
p361
sg15
(lp362
sg17
(lp363
sg19
(lp364
sg21
I0
sba(iArchitecture
Entity
p365
(dp366
g11
(lp367
sg13
S'com.android.server.notification.NotificationManagerService$StatusBarNotificationHolder'
p368
sg15
(lp369
sg17
(lp370
sg19
(lp371
sg21
I0
sba(iArchitecture
Entity
p372
(dp373
g11
(lp374
sg13
S'com.android.server.notification.NotificationManagerService$ToastRecord'
p375
sg15
(lp376
sg17
(lp377
sg19
(lp378
sg21
I0
sba(iArchitecture
Entity
p379
(dp380
g11
(lp381
sg13
S'com.android.server.notification.NotificationManagerService$WorkerHandler'
p382
sg15
(lp383
sg17
(lp384
sg19
(lp385
sg21
I0
sba(iArchitecture
Entity
p386
(dp387
g11
(lp388
sg13
S'com.android.server.notification.NotificationRecord'
p389
sg15
(lp390
sg17
(lp391
sg19
(lp392
sg21
I0
sba(iArchitecture
Entity
p393
(dp394
g11
(lp395
sg13
S'com.android.server.notification.NotificationSignalExtractor'
p396
sg15
(lp397
sg17
(lp398
sg19
(lp399
sg21
I0
sba(iArchitecture
Entity
p400
(dp401
g11
(lp402
sg13
S'com.android.server.notification.NotificationUsageStats'
p403
sg15
(lp404
sg17
(lp405
sg19
(lp406
sg21
I0
sba(iArchitecture
Entity
p407
(dp408
g11
(lp409
sg13
S'com.android.server.notification.NotificationUsageStats$1'
p410
sg15
(lp411
sg17
(lp412
sg19
(lp413
sg21
I0
sba(iArchitecture
Entity
p414
(dp415
g11
(lp416
sg13
S'com.android.server.notification.NotificationUsageStats$Aggregate'
p417
sg15
(lp418
sg17
(lp419
sg19
(lp420
sg21
I0
sba(iArchitecture
Entity
p421
(dp422
g11
(lp423
sg13
S'com.android.server.notification.NotificationUsageStats$AggregatedStats'
p424
sg15
(lp425
sg17
(lp426
sg19
(lp427
sg21
I0
sba(iArchitecture
Entity
p428
(dp429
g11
(lp430
sg13
S'com.android.server.notification.NotificationUsageStats$SQLiteLog'
p431
sg15
(lp432
sg17
(lp433
sg19
(lp434
sg21
I0
sba(iArchitecture
Entity
p435
(dp436
g11
(lp437
sg13
S'com.android.server.notification.NotificationUsageStats$SQLiteLog$1'
p438
sg15
(lp439
sg17
(lp440
sg19
(lp441
sg21
I0
sba(iArchitecture
Entity
p442
(dp443
g11
(lp444
sg13
S'com.android.server.notification.NotificationUsageStats$SQLiteLog$2'
p445
sg15
(lp446
sg17
(lp447
sg19
(lp448
sg21
I0
sba(iArchitecture
Entity
p449
(dp450
g11
(lp451
sg13
S'com.android.server.notification.NotificationUsageStats$SingleNotificationStats'
p452
sg15
(lp453
sg17
(lp454
sg19
(lp455
sg21
I0
sba(iArchitecture
Entity
p456
(dp457
g11
(lp458
sg13
S'com.android.server.notification.PackagePriorityExtractor'
p459
sg15
(lp460
sg17
(lp461
sg19
(lp462
sg21
I0
sba(iArchitecture
Entity
p463
(dp464
g11
(lp465
sg13
S'com.android.server.notification.PackageVisibilityExtractor'
p466
sg15
(lp467
sg17
(lp468
sg19
(lp469
sg21
I0
sba(iArchitecture
Entity
p470
(dp471
g11
(lp472
sg13
S'com.android.server.notification.PropConfig'
p473
sg15
(lp474
sg17
(lp475
sg19
(lp476
sg21
I0
sba(iArchitecture
Entity
p477
(dp478
g11
(lp479
sg13
S'com.android.server.notification.RankingConfig'
p480
sg15
(lp481
sg17
(lp482
sg19
(lp483
sg21
I0
sba(iArchitecture
Entity
p484
(dp485
g11
(lp486
sg13
S'com.android.server.notification.RankingHelper'
p487
sg15
(lp488
sg17
(lp489
sg19
(lp490
sg21
I0
sba(iArchitecture
Entity
p491
(dp492
g11
(lp493
sg13
S'com.android.server.notification.RankingHelper$Record'
p494
sg15
(lp495
sg17
(lp496
sg19
(lp497
sg21
I0
sba(iArchitecture
Entity
p498
(dp499
g11
(lp500
sg13
S'com.android.server.notification.RankingReconsideration'
p501
sg15
(lp502
sg17
(lp503
sg19
(lp504
sg21
I0
sba(iArchitecture
Entity
p505
(dp506
g11
(lp507
sg13
S'com.android.server.notification.ScheduleCalendar'
p508
sg15
(lp509
sg17
(lp510
sg19
(lp511
sg21
I0
sba(iArchitecture
Entity
p512
(dp513
g11
(lp514
sg13
S'com.android.server.notification.ScheduleConditionProvider'
p515
sg15
(lp516
sg17
(lp517
sg19
(lp518
sg21
I0
sba(iArchitecture
Entity
p519
(dp520
g11
(lp521
sg13
S'com.android.server.notification.ScheduleConditionProvider$1'
p522
sg15
(lp523
sg17
(lp524
sg19
(lp525
sg21
I0
sba(iArchitecture
Entity
p526
(dp527
g11
(lp528
sg13
S'com.android.server.notification.SystemConditionProviderService'
p529
sg15
(lp530
sg17
(lp531
sg19
(lp532
sg21
I0
sba(iArchitecture
Entity
p533
(dp534
g11
(lp535
sg13
S'com.android.server.notification.ValidateNotificationPeople'
p536
sg15
(lp537
sg17
(lp538
sg19
(lp539
sg21
I0
sba(iArchitecture
Entity
p540
(dp541
g11
(lp542
sg13
S'com.android.server.notification.ValidateNotificationPeople$1'
p543
sg15
(lp544
sg17
(lp545
sg19
(lp546
sg21
I0
sba(iArchitecture
Entity
p547
(dp548
g11
(lp549
sg13
S'com.android.server.notification.ValidateNotificationPeople$2'
p550
sg15
(lp551
sg17
(lp552
sg19
(lp553
sg21
I0
sba(iArchitecture
Entity
p554
(dp555
g11
(lp556
sg13
S'com.android.server.notification.ValidateNotificationPeople$LookupResult'
p557
sg15
(lp558
sg17
(lp559
sg19
(lp560
sg21
I0
sba(iArchitecture
Entity
p561
(dp562
g11
(lp563
sg13
S'com.android.server.notification.ValidateNotificationPeople$PeopleRankingReconsideration'
p564
sg15
(lp565
sg17
(lp566
sg19
(lp567
sg21
I0
sba(iArchitecture
Entity
p568
(dp569
g11
(lp570
sg13
S'com.android.server.notification.ZenLog'
p571
sg15
(lp572
sg17
(lp573
sg19
(lp574
sg21
I0
sba(iArchitecture
Entity
p575
(dp576
g11
(lp577
sg13
S'com.android.server.notification.ZenModeConditions'
p578
sg15
(lp579
sg17
(lp580
sg19
(lp581
sg21
I0
sba(iArchitecture
Entity
p582
(dp583
g11
(lp584
sg13
S'com.android.server.notification.ZenModeFiltering'
p585
sg15
(lp586
sg17
(lp587
sg19
(lp588
sg21
I0
sba(iArchitecture
Entity
p589
(dp590
g11
(lp591
sg13
S'com.android.server.notification.ZenModeFiltering$RepeatCallers'
p592
sg15
(lp593
sg17
(lp594
sg19
(lp595
sg21
I0
sba(iArchitecture
Entity
p596
(dp597
g11
(lp598
sg13
S'com.android.server.notification.ZenModeHelper'
p599
sg15
(lp600
sg17
(lp601
sg19
(lp602
sg21
I0
sba(iArchitecture
Entity
p603
(dp604
g11
(lp605
sg13
S'com.android.server.notification.ZenModeHelper$1'
p606
sg15
(lp607
sg17
(lp608
sg19
(lp609
sg21
I0
sba(iArchitecture
Entity
p610
(dp611
g11
(lp612
sg13
S'com.android.server.notification.ZenModeHelper$Callback'
p613
sg15
(lp614
sg17
(lp615
sg19
(lp616
sg21
I0
sba(iArchitecture
Entity
p617
(dp618
g11
(lp619
sg13
S'com.android.server.notification.ZenModeHelper$H'
p620
sg15
(lp621
sg17
(lp622
sg19
(lp623
sg21
I0
sba(iArchitecture
Entity
p624
(dp625
g11
(lp626
sg13
S'com.android.server.notification.ZenModeHelper$Metrics'
p627
sg15
(lp628
sg17
(lp629
sg19
(lp630
sg21
I0
sba(iArchitecture
Entity
p631
(dp632
g11
(lp633
sg13
S'com.android.server.notification.ZenModeHelper$RingerModeDelegate'
p634
sg15
(lp635
sg17
(lp636
sg19
(lp637
sg21
I0
sba(iArchitecture
Entity
p638
(dp639
g11
(lp640
sg13
S'com.android.server.notification.ZenModeHelper$SettingsObserver'
p641
sg15
(lp642
sg17
(lp643
sg19
(lp644
sg21
I0
sbasS'classes'
p645
(lp646
g14
ag25
ag32
ag39
ag46
ag53
ag60
ag67
ag74
ag81
ag88
ag95
ag102
ag109
ag116
ag123
ag130
ag137
ag144
ag151
ag158
ag165
ag172
ag179
ag186
ag193
ag200
ag207
ag214
ag221
ag228
ag235
ag242
ag249
ag256
ag263
ag270
ag277
ag284
ag291
ag298
ag305
ag312
ag319
ag326
ag333
ag340
ag347
ag354
ag361
ag368
ag375
ag382
ag389
ag396
ag403
ag410
ag417
ag424
ag431
ag438
ag445
ag452
ag459
ag466
ag473
ag480
ag487
ag494
ag501
ag508
ag515
ag522
ag529
ag536
ag543
ag550
ag557
ag564
ag571
ag578
ag585
ag592
ag599
ag606
ag613
ag620
ag627
ag634
ag641
asg21
I0
sS'label'
p647
S'com.android.server.notification.ss'
p648
sba(iArchitecture
Cluster
p649
(dp650
g7
(lp651
(iArchitecture
Entity
p652
(dp653
g11
(lp654
sg13
S'com.android.server.notification.NotificationDelegate'
p655
sg15
(lp656
sg17
(lp657
sg19
(lp658
sg21
I0
sbasg645
(lp659
g655
asg21
I0
sg647
S'com.android.server.statusbar.ss'
p660
sbasS'target_sub'
p661
S'com.android.server.notification'
p662
sg645
(lp663
sS'is_component_arch'
p664
I00
sg647
S'6.0.0_r1'
p665
sba(iArchitecture
Architecture
p666
(dp667
g3
(lp668
(iArchitecture
Cluster
p669
(dp670
g7
(lp671
(iArchitecture
Entity
p672
(dp673
g11
(lp674
sg13
S'com.android.server.notification.CalendarTracker'
p675
sg15
(lp676
sg17
(lp677
sg19
(lp678
sg21
I0
sba(iArchitecture
Entity
p679
(dp680
g11
(lp681
sg13
S'com.android.server.notification.CalendarTracker$1'
p682
sg15
(lp683
sg17
(lp684
sg19
(lp685
sg21
I0
sba(iArchitecture
Entity
p686
(dp687
g11
(lp688
sg13
S'com.android.server.notification.CalendarTracker$Callback'
p689
sg15
(lp690
sg17
(lp691
sg19
(lp692
sg21
I0
sba(iArchitecture
Entity
p693
(dp694
g11
(lp695
sg13
S'com.android.server.notification.CalendarTracker$CheckEventResult'
p696
sg15
(lp697
sg17
(lp698
sg19
(lp699
sg21
I0
sba(iArchitecture
Entity
p700
(dp701
g11
(lp702
sg13
S'com.android.server.notification.ConditionProviders'
p703
sg15
(lp704
sg17
(lp705
sg19
(lp706
sg21
I0
sba(iArchitecture
Entity
p707
(dp708
g11
(lp709
sg13
S'com.android.server.notification.ConditionProviders$Callback'
p710
sg15
(lp711
sg17
(lp712
sg19
(lp713
sg21
I0
sba(iArchitecture
Entity
p714
(dp715
g11
(lp716
sg13
S'com.android.server.notification.ConditionProviders$ConditionRecord'
p717
sg15
(lp718
sg17
(lp719
sg19
(lp720
sg21
I0
sba(iArchitecture
Entity
p721
(dp722
g11
(lp723
sg13
S'com.android.server.notification.CountdownConditionProvider'
p724
sg15
(lp725
sg17
(lp726
sg19
(lp727
sg21
I0
sba(iArchitecture
Entity
p728
(dp729
g11
(lp730
sg13
S'com.android.server.notification.CountdownConditionProvider$Receiver'
p731
sg15
(lp732
sg17
(lp733
sg19
(lp734
sg21
I0
sba(iArchitecture
Entity
p735
(dp736
g11
(lp737
sg13
S'com.android.server.notification.EventConditionProvider'
p738
sg15
(lp739
sg17
(lp740
sg19
(lp741
sg21
I0
sba(iArchitecture
Entity
p742
(dp743
g11
(lp744
sg13
S'com.android.server.notification.EventConditionProvider$1'
p745
sg15
(lp746
sg17
(lp747
sg19
(lp748
sg21
I0
sba(iArchitecture
Entity
p749
(dp750
g11
(lp751
sg13
S'com.android.server.notification.EventConditionProvider$2'
p752
sg15
(lp753
sg17
(lp754
sg19
(lp755
sg21
I0
sba(iArchitecture
Entity
p756
(dp757
g11
(lp758
sg13
S'com.android.server.notification.EventConditionProvider$3'
p759
sg15
(lp760
sg17
(lp761
sg19
(lp762
sg21
I0
sba(iArchitecture
Entity
p763
(dp764
g11
(lp765
sg13
S'com.android.server.notification.EventConditionProvider$4'
p766
sg15
(lp767
sg17
(lp768
sg19
(lp769
sg21
I0
sba(iArchitecture
Entity
p770
(dp771
g11
(lp772
sg13
S'com.android.server.notification.GlobalSortKeyComparator'
p773
sg15
(lp774
sg17
(lp775
sg19
(lp776
sg21
I0
sba(iArchitecture
Entity
p777
(dp778
g11
(lp779
sg13
S'com.android.server.notification.ImportanceExtractor'
p780
sg15
(lp781
sg17
(lp782
sg19
(lp783
sg21
I0
sba(iArchitecture
Entity
p784
(dp785
g11
(lp786
sg13
S'com.android.server.notification.ManagedServices'
p787
sg15
(lp788
sg17
(lp789
sg19
(lp790
sg21
I0
sba(iArchitecture
Entity
p791
(dp792
g11
(lp793
sg13
S'com.android.server.notification.ManagedServices$1'
p794
sg15
(lp795
sg17
(lp796
sg19
(lp797
sg21
I0
sba(iArchitecture
Entity
p798
(dp799
g11
(lp800
sg13
S'com.android.server.notification.ManagedServices$Config'
p801
sg15
(lp802
sg17
(lp803
sg19
(lp804
sg21
I0
sba(iArchitecture
Entity
p805
(dp806
g11
(lp807
sg13
S'com.android.server.notification.ManagedServices$ManagedServiceInfo'
p808
sg15
(lp809
sg17
(lp810
sg19
(lp811
sg21
I0
sba(iArchitecture
Entity
p812
(dp813
g11
(lp814
sg13
S'com.android.server.notification.ManagedServices$SettingRestoredReceiver'
p815
sg15
(lp816
sg17
(lp817
sg19
(lp818
sg21
I0
sba(iArchitecture
Entity
p819
(dp820
g11
(lp821
sg13
S'com.android.server.notification.ManagedServices$SettingsObserver'
p822
sg15
(lp823
sg17
(lp824
sg19
(lp825
sg21
I0
sba(iArchitecture
Entity
p826
(dp827
g11
(lp828
sg13
S'com.android.server.notification.ManagedServices$UserProfiles'
p829
sg15
(lp830
sg17
(lp831
sg19
(lp832
sg21
I0
sba(iArchitecture
Entity
p833
(dp834
g11
(lp835
sg13
S'com.android.server.notification.NotificationComparator'
p836
sg15
(lp837
sg17
(lp838
sg19
(lp839
sg21
I0
sba(iArchitecture
Entity
p840
(dp841
g11
(lp842
sg13
S'com.android.server.notification.NotificationIntrusivenessExtractor'
p843
sg15
(lp844
sg17
(lp845
sg19
(lp846
sg21
I0
sba(iArchitecture
Entity
p847
(dp848
g11
(lp849
sg13
S'com.android.server.notification.NotificationIntrusivenessExtractor$1'
p850
sg15
(lp851
sg17
(lp852
sg19
(lp853
sg21
I0
sba(iArchitecture
Entity
p854
(dp855
g11
(lp856
sg13
S'com.android.server.notification.NotificationManagerInternal'
p857
sg15
(lp858
sg17
(lp859
sg19
(lp860
sg21
I0
sba(iArchitecture
Entity
p861
(dp862
g11
(lp863
sg13
S'com.android.server.notification.NotificationManagerService'
p864
sg15
(lp865
sg17
(lp866
sg19
(lp867
sg21
I0
sba(iArchitecture
Entity
p868
(dp869
g11
(lp870
sg13
S'com.android.server.notification.NotificationManagerService$1'
p871
sg15
(lp872
sg17
(lp873
sg19
(lp874
sg21
I0
sba(iArchitecture
Entity
p875
(dp876
g11
(lp877
sg13
S'com.android.server.notification.NotificationManagerService$2'
p878
sg15
(lp879
sg17
(lp880
sg19
(lp881
sg21
I0
sba(iArchitecture
Entity
p882
(dp883
g11
(lp884
sg13
S'com.android.server.notification.NotificationManagerService$3'
p885
sg15
(lp886
sg17
(lp887
sg19
(lp888
sg21
I0
sba(iArchitecture
Entity
p889
(dp890
g11
(lp891
sg13
S'com.android.server.notification.NotificationManagerService$4'
p892
sg15
(lp893
sg17
(lp894
sg19
(lp895
sg21
I0
sba(iArchitecture
Entity
p896
(dp897
g11
(lp898
sg13
S'com.android.server.notification.NotificationManagerService$5'
p899
sg15
(lp900
sg17
(lp901
sg19
(lp902
sg21
I0
sba(iArchitecture
Entity
p903
(dp904
g11
(lp905
sg13
S'com.android.server.notification.NotificationManagerService$5$1'
p906
sg15
(lp907
sg17
(lp908
sg19
(lp909
sg21
I0
sba(iArchitecture
Entity
p910
(dp911
g11
(lp912
sg13
S'com.android.server.notification.NotificationManagerService$6'
p913
sg15
(lp914
sg17
(lp915
sg19
(lp916
sg21
I0
sba(iArchitecture
Entity
p917
(dp918
g11
(lp919
sg13
S'com.android.server.notification.NotificationManagerService$7'
p920
sg15
(lp921
sg17
(lp922
sg19
(lp923
sg21
I0
sba(iArchitecture
Entity
p924
(dp925
g11
(lp926
sg13
S'com.android.server.notification.NotificationManagerService$8'
p927
sg15
(lp928
sg17
(lp929
sg19
(lp930
sg21
I0
sba(iArchitecture
Entity
p931
(dp932
g11
(lp933
sg13
S'com.android.server.notification.NotificationManagerService$9'
p934
sg15
(lp935
sg17
(lp936
sg19
(lp937
sg21
I0
sba(iArchitecture
Entity
p938
(dp939
g11
(lp940
sg13
S'com.android.server.notification.NotificationManagerService$Archive'
p941
sg15
(lp942
sg17
(lp943
sg19
(lp944
sg21
I0
sba(iArchitecture
Entity
p945
(dp946
g11
(lp947
sg13
S'com.android.server.notification.NotificationManagerService$DumpFilter'
p948
sg15
(lp949
sg17
(lp950
sg19
(lp951
sg21
I0
sba(iArchitecture
Entity
p952
(dp953
g11
(lp954
sg13
S'com.android.server.notification.NotificationManagerService$EnqueueNotificationRunnable'
p955
sg15
(lp956
sg17
(lp957
sg19
(lp958
sg21
I0
sba(iArchitecture
Entity
p959
(dp960
g11
(lp961
sg13
S'com.android.server.notification.NotificationManagerService$NotificationListeners'
p962
sg15
(lp963
sg17
(lp964
sg19
(lp965
sg21
I0
sba(iArchitecture
Entity
p966
(dp967
g11
(lp968
sg13
S'com.android.server.notification.NotificationManagerService$NotificationListeners$1'
p969
sg15
(lp970
sg17
(lp971
sg19
(lp972
sg21
I0
sba(iArchitecture
Entity
p973
(dp974
g11
(lp975
sg13
S'com.android.server.notification.NotificationManagerService$NotificationListeners$2'
p976
sg15
(lp977
sg17
(lp978
sg19
(lp979
sg21
I0
sba(iArchitecture
Entity
p980
(dp981
g11
(lp982
sg13
S'com.android.server.notification.NotificationManagerService$NotificationListeners$3'
p983
sg15
(lp984
sg17
(lp985
sg19
(lp986
sg21
I0
sba(iArchitecture
Entity
p987
(dp988
g11
(lp989
sg13
S'com.android.server.notification.NotificationManagerService$NotificationListeners$4'
p990
sg15
(lp991
sg17
(lp992
sg19
(lp993
sg21
I0
sba(iArchitecture
Entity
p994
(dp995
g11
(lp996
sg13
S'com.android.server.notification.NotificationManagerService$NotificationListeners$5'
p997
sg15
(lp998
sg17
(lp999
sg19
(lp1000
sg21
I0
sba(iArchitecture
Entity
p1001
(dp1002
g11
(lp1003
sg13
S'com.android.server.notification.NotificationManagerService$NotificationListeners$6'
p1004
sg15
(lp1005
sg17
(lp1006
sg19
(lp1007
sg21
I0
sba(iArchitecture
Entity
p1008
(dp1009
g11
(lp1010
sg13
S'com.android.server.notification.NotificationManagerService$NotificationRankers'
p1011
sg15
(lp1012
sg17
(lp1013
sg19
(lp1014
sg21
I0
sba(iArchitecture
Entity
p1015
(dp1016
g11
(lp1017
sg13
S'com.android.server.notification.NotificationManagerService$NotificationRankers$1'
p1018
sg15
(lp1019
sg17
(lp1020
sg19
(lp1021
sg21
I0
sba(iArchitecture
Entity
p1022
(dp1023
g11
(lp1024
sg13
S'com.android.server.notification.NotificationManagerService$PolicyAccess'
p1025
sg15
(lp1026
sg17
(lp1027
sg19
(lp1028
sg21
I0
sba(iArchitecture
Entity
p1029
(dp1030
g11
(lp1031
sg13
S'com.android.server.notification.NotificationManagerService$RankingHandlerWorker'
p1032
sg15
(lp1033
sg17
(lp1034
sg19
(lp1035
sg21
I0
sba(iArchitecture
Entity
p1036
(dp1037
g11
(lp1038
sg13
S'com.android.server.notification.NotificationManagerService$SettingsObserver'
p1039
sg15
(lp1040
sg17
(lp1041
sg19
(lp1042
sg21
I0
sba(iArchitecture
Entity
p1043
(dp1044
g11
(lp1045
sg13
S'com.android.server.notification.NotificationManagerService$StatusBarNotificationHolder'
p1046
sg15
(lp1047
sg17
(lp1048
sg19
(lp1049
sg21
I0
sba(iArchitecture
Entity
p1050
(dp1051
g11
(lp1052
sg13
S'com.android.server.notification.NotificationManagerService$ToastRecord'
p1053
sg15
(lp1054
sg17
(lp1055
sg19
(lp1056
sg21
I0
sba(iArchitecture
Entity
p1057
(dp1058
g11
(lp1059
sg13
S'com.android.server.notification.NotificationManagerService$TrimCache'
p1060
sg15
(lp1061
sg17
(lp1062
sg19
(lp1063
sg21
I0
sba(iArchitecture
Entity
p1064
(dp1065
g11
(lp1066
sg13
S'com.android.server.notification.NotificationManagerService$WorkerHandler'
p1067
sg15
(lp1068
sg17
(lp1069
sg19
(lp1070
sg21
I0
sba(iArchitecture
Entity
p1071
(dp1072
g11
(lp1073
sg13
S'com.android.server.notification.NotificationRecord'
p1074
sg15
(lp1075
sg17
(lp1076
sg19
(lp1077
sg21
I0
sba(iArchitecture
Entity
p1078
(dp1079
g11
(lp1080
sg13
S'com.android.server.notification.NotificationSignalExtractor'
p1081
sg15
(lp1082
sg17
(lp1083
sg19
(lp1084
sg21
I0
sba(iArchitecture
Entity
p1085
(dp1086
g11
(lp1087
sg13
S'com.android.server.notification.NotificationUsageStats'
p1088
sg15
(lp1089
sg17
(lp1090
sg19
(lp1091
sg21
I0
sba(iArchitecture
Entity
p1092
(dp1093
g11
(lp1094
sg13
S'com.android.server.notification.NotificationUsageStats$1'
p1095
sg15
(lp1096
sg17
(lp1097
sg19
(lp1098
sg21
I0
sba(iArchitecture
Entity
p1099
(dp1100
g11
(lp1101
sg13
S'com.android.server.notification.NotificationUsageStats$Aggregate'
p1102
sg15
(lp1103
sg17
(lp1104
sg19
(lp1105
sg21
I0
sba(iArchitecture
Entity
p1106
(dp1107
g11
(lp1108
sg13
S'com.android.server.notification.NotificationUsageStats$AggregatedStats'
p1109
sg15
(lp1110
sg17
(lp1111
sg19
(lp1112
sg21
I0
sba(iArchitecture
Entity
p1113
(dp1114
g11
(lp1115
sg13
S'com.android.server.notification.NotificationUsageStats$ImportanceHistogram'
p1116
sg15
(lp1117
sg17
(lp1118
sg19
(lp1119
sg21
I0
sba(iArchitecture
Entity
p1120
(dp1121
g11
(lp1122
sg13
S'com.android.server.notification.NotificationUsageStats$SQLiteLog'
p1123
sg15
(lp1124
sg17
(lp1125
sg19
(lp1126
sg21
I0
sba(iArchitecture
Entity
p1127
(dp1128
g11
(lp1129
sg13
S'com.android.server.notification.NotificationUsageStats$SQLiteLog$1'
p1130
sg15
(lp1131
sg17
(lp1132
sg19
(lp1133
sg21
I0
sba(iArchitecture
Entity
p1134
(dp1135
g11
(lp1136
sg13
S'com.android.server.notification.NotificationUsageStats$SQLiteLog$2'
p1137
sg15
(lp1138
sg17
(lp1139
sg19
(lp1140
sg21
I0
sba(iArchitecture
Entity
p1141
(dp1142
g11
(lp1143
sg13
S'com.android.server.notification.NotificationUsageStats$SingleNotificationStats'
p1144
sg15
(lp1145
sg17
(lp1146
sg19
(lp1147
sg21
I0
sba(iArchitecture
Entity
p1148
(dp1149
g11
(lp1150
sg13
S'com.android.server.notification.PriorityExtractor'
p1151
sg15
(lp1152
sg17
(lp1153
sg19
(lp1154
sg21
I0
sba(iArchitecture
Entity
p1155
(dp1156
g11
(lp1157
sg13
S'com.android.server.notification.PropConfig'
p1158
sg15
(lp1159
sg17
(lp1160
sg19
(lp1161
sg21
I0
sba(iArchitecture
Entity
p1162
(dp1163
g11
(lp1164
sg13
S'com.android.server.notification.RankingConfig'
p1165
sg15
(lp1166
sg17
(lp1167
sg19
(lp1168
sg21
I0
sba(iArchitecture
Entity
p1169
(dp1170
g11
(lp1171
sg13
S'com.android.server.notification.RankingHandler'
p1172
sg15
(lp1173
sg17
(lp1174
sg19
(lp1175
sg21
I0
sba(iArchitecture
Entity
p1176
(dp1177
g11
(lp1178
sg13
S'com.android.server.notification.RankingHelper'
p1179
sg15
(lp1180
sg17
(lp1181
sg19
(lp1182
sg21
I0
sba(iArchitecture
Entity
p1183
(dp1184
g11
(lp1185
sg13
S'com.android.server.notification.RankingHelper$Record'
p1186
sg15
(lp1187
sg17
(lp1188
sg19
(lp1189
sg21
I0
sba(iArchitecture
Entity
p1190
(dp1191
g11
(lp1192
sg13
S'com.android.server.notification.RankingReconsideration'
p1193
sg15
(lp1194
sg17
(lp1195
sg19
(lp1196
sg21
I0
sba(iArchitecture
Entity
p1197
(dp1198
g11
(lp1199
sg13
S'com.android.server.notification.RateEstimator'
p1200
sg15
(lp1201
sg17
(lp1202
sg19
(lp1203
sg21
I0
sba(iArchitecture
Entity
p1204
(dp1205
g11
(lp1206
sg13
S'com.android.server.notification.ScheduleCalendar'
p1207
sg15
(lp1208
sg17
(lp1209
sg19
(lp1210
sg21
I0
sba(iArchitecture
Entity
p1211
(dp1212
g11
(lp1213
sg13
S'com.android.server.notification.ScheduleConditionProvider'
p1214
sg15
(lp1215
sg17
(lp1216
sg19
(lp1217
sg21
I0
sba(iArchitecture
Entity
p1218
(dp1219
g11
(lp1220
sg13
S'com.android.server.notification.ScheduleConditionProvider$1'
p1221
sg15
(lp1222
sg17
(lp1223
sg19
(lp1224
sg21
I0
sba(iArchitecture
Entity
p1225
(dp1226
g11
(lp1227
sg13
S'com.android.server.notification.SystemConditionProviderService'
p1228
sg15
(lp1229
sg17
(lp1230
sg19
(lp1231
sg21
I0
sba(iArchitecture
Entity
p1232
(dp1233
g11
(lp1234
sg13
S'com.android.server.notification.ValidateNotificationPeople'
p1235
sg15
(lp1236
sg17
(lp1237
sg19
(lp1238
sg21
I0
sba(iArchitecture
Entity
p1239
(dp1240
g11
(lp1241
sg13
S'com.android.server.notification.ValidateNotificationPeople$1'
p1242
sg15
(lp1243
sg17
(lp1244
sg19
(lp1245
sg21
I0
sba(iArchitecture
Entity
p1246
(dp1247
g11
(lp1248
sg13
S'com.android.server.notification.ValidateNotificationPeople$2'
p1249
sg15
(lp1250
sg17
(lp1251
sg19
(lp1252
sg21
I0
sba(iArchitecture
Entity
p1253
(dp1254
g11
(lp1255
sg13
S'com.android.server.notification.ValidateNotificationPeople$LookupResult'
p1256
sg15
(lp1257
sg17
(lp1258
sg19
(lp1259
sg21
I0
sba(iArchitecture
Entity
p1260
(dp1261
g11
(lp1262
sg13
S'com.android.server.notification.ValidateNotificationPeople$PeopleRankingReconsideration'
p1263
sg15
(lp1264
sg17
(lp1265
sg19
(lp1266
sg21
I0
sba(iArchitecture
Entity
p1267
(dp1268
g11
(lp1269
sg13
S'com.android.server.notification.VisibilityExtractor'
p1270
sg15
(lp1271
sg17
(lp1272
sg19
(lp1273
sg21
I0
sba(iArchitecture
Entity
p1274
(dp1275
g11
(lp1276
sg13
S'com.android.server.notification.ZenLog'
p1277
sg15
(lp1278
sg17
(lp1279
sg19
(lp1280
sg21
I0
sba(iArchitecture
Entity
p1281
(dp1282
g11
(lp1283
sg13
S'com.android.server.notification.ZenModeConditions'
p1284
sg15
(lp1285
sg17
(lp1286
sg19
(lp1287
sg21
I0
sba(iArchitecture
Entity
p1288
(dp1289
g11
(lp1290
sg13
S'com.android.server.notification.ZenModeFiltering'
p1291
sg15
(lp1292
sg17
(lp1293
sg19
(lp1294
sg21
I0
sba(iArchitecture
Entity
p1295
(dp1296
g11
(lp1297
sg13
S'com.android.server.notification.ZenModeFiltering$RepeatCallers'
p1298
sg15
(lp1299
sg17
(lp1300
sg19
(lp1301
sg21
I0
sba(iArchitecture
Entity
p1302
(dp1303
g11
(lp1304
sg13
S'com.android.server.notification.ZenModeHelper'
p1305
sg15
(lp1306
sg17
(lp1307
sg19
(lp1308
sg21
I0
sba(iArchitecture
Entity
p1309
(dp1310
g11
(lp1311
sg13
S'com.android.server.notification.ZenModeHelper$1'
p1312
sg15
(lp1313
sg17
(lp1314
sg19
(lp1315
sg21
I0
sba(iArchitecture
Entity
p1316
(dp1317
g11
(lp1318
sg13
S'com.android.server.notification.ZenModeHelper$Callback'
p1319
sg15
(lp1320
sg17
(lp1321
sg19
(lp1322
sg21
I0
sba(iArchitecture
Entity
p1323
(dp1324
g11
(lp1325
sg13
S'com.android.server.notification.ZenModeHelper$H'
p1326
sg15
(lp1327
sg17
(lp1328
sg19
(lp1329
sg21
I0
sba(iArchitecture
Entity
p1330
(dp1331
g11
(lp1332
sg13
S'com.android.server.notification.ZenModeHelper$H$ConfigMessageData'
p1333
sg15
(lp1334
sg17
(lp1335
sg19
(lp1336
sg21
I0
sba(iArchitecture
Entity
p1337
(dp1338
g11
(lp1339
sg13
S'com.android.server.notification.ZenModeHelper$Metrics'
p1340
sg15
(lp1341
sg17
(lp1342
sg19
(lp1343
sg21
I0
sba(iArchitecture
Entity
p1344
(dp1345
g11
(lp1346
sg13
S'com.android.server.notification.ZenModeHelper$RingerModeDelegate'
p1347
sg15
(lp1348
sg17
(lp1349
sg19
(lp1350
sg21
I0
sba(iArchitecture
Entity
p1351
(dp1352
g11
(lp1353
sg13
S'com.android.server.notification.ZenModeHelper$SettingsObserver'
p1354
sg15
(lp1355
sg17
(lp1356
sg19
(lp1357
sg21
I0
sbasg645
(lp1358
g675
ag682
ag689
ag696
ag703
ag710
ag717
ag724
ag731
ag738
ag745
ag752
ag759
ag766
ag773
ag780
ag787
ag794
ag801
ag808
ag815
ag822
ag829
ag836
ag843
ag850
ag857
ag864
ag871
ag878
ag885
ag892
ag899
ag906
ag913
ag920
ag927
ag934
ag941
ag948
ag955
ag962
ag969
ag976
ag983
ag990
ag997
ag1004
ag1011
ag1018
ag1025
ag1032
ag1039
ag1046
ag1053
ag1060
ag1067
ag1074
ag1081
ag1088
ag1095
ag1102
ag1109
ag1116
ag1123
ag1130
ag1137
ag1144
ag1151
ag1158
ag1165
ag1172
ag1179
ag1186
ag1193
ag1200
ag1207
ag1214
ag1221
ag1228
ag1235
ag1242
ag1249
ag1256
ag1263
ag1270
ag1277
ag1284
ag1291
ag1298
ag1305
ag1312
ag1319
ag1326
ag1333
ag1340
ag1347
ag1354
asg21
I0
sg647
S'com.android.server.notification.ss'
p1359
sba(iArchitecture
Cluster
p1360
(dp1361
g7
(lp1362
(iArchitecture
Entity
p1363
(dp1364
g11
(lp1365
sg13
S'com.android.server.notification.NotificationDelegate'
p1366
sg15
(lp1367
sg17
(lp1368
sg19
(lp1369
sg21
I0
sbasg645
(lp1370
g1366
asg21
I0
sg647
S'com.android.server.statusbar.ss'
p1371
sbasg661
g662
sg645
(lp1372
sg664
I00
sg647
S'7.0.0_r1'
p1373
sba.