(lp0
(iArchitecture
Architecture
p1
(dp2
S'clusters'
p3
(lp4
(iArchitecture
Cluster
p5
(dp6
S'entities'
p7
(lp8
(iArchitecture
Entity
p9
(dp10
S'issue_ids'
p11
(lp12
sS'name'
p13
S'com.android.server.hdmi.HdmiConfig'
p14
sS'descs'
p15
(lp16
sS'labels'
p17
(lp18
sS'titles'
p19
(lp20
sS'change'
p21
I0
sbasS'classes'
p22
(lp23
g14
asg21
I0
sS'label'
p24
S'android.app.ss'
p25
sba(iArchitecture
Cluster
p26
(dp27
g7
(lp28
(iArchitecture
Entity
p29
(dp30
g11
(lp31
sg13
S'com.android.server.hdmi.ActiveSourceHandler'
p32
sg15
(lp33
sg17
(lp34
sg19
(lp35
sg21
I0
sba(iArchitecture
Entity
p36
(dp37
g11
(lp38
sg13
S'com.android.server.hdmi.DelayedMessageBuffer'
p39
sg15
(lp40
sg17
(lp41
sg19
(lp42
sg21
I0
sba(iArchitecture
Entity
p43
(dp44
g11
(lp45
sg13
S'com.android.server.hdmi.DeviceDiscoveryAction'
p46
sg15
(lp47
sg17
(lp48
sg19
(lp49
sg21
I0
sba(iArchitecture
Entity
p50
(dp51
g11
(lp52
sg13
S'com.android.server.hdmi.DeviceDiscoveryAction$1'
p53
sg15
(lp54
sg17
(lp55
sg19
(lp56
sg21
I0
sba(iArchitecture
Entity
p57
(dp58
g11
(lp59
sg13
S'com.android.server.hdmi.DeviceDiscoveryAction$DeviceDiscoveryCallback'
p60
sg15
(lp61
sg17
(lp62
sg19
(lp63
sg21
I0
sba(iArchitecture
Entity
p64
(dp65
g11
(lp66
sg13
S'com.android.server.hdmi.DeviceDiscoveryAction$DeviceInfo'
p67
sg15
(lp68
sg17
(lp69
sg19
(lp70
sg21
I0
sba(iArchitecture
Entity
p71
(dp72
g11
(lp73
sg13
S'com.android.server.hdmi.DevicePowerStatusAction'
p74
sg15
(lp75
sg17
(lp76
sg19
(lp77
sg21
I0
sba(iArchitecture
Entity
p78
(dp79
g11
(lp80
sg13
S'com.android.server.hdmi.DeviceSelectAction'
p81
sg15
(lp82
sg17
(lp83
sg19
(lp84
sg21
I0
sba(iArchitecture
Entity
p85
(dp86
g11
(lp87
sg13
S'com.android.server.hdmi.DeviceSelectAction$1'
p88
sg15
(lp89
sg17
(lp90
sg19
(lp91
sg21
I0
sba(iArchitecture
Entity
p92
(dp93
g11
(lp94
sg13
S'com.android.server.hdmi.HdmiAnnotations'
p95
sg15
(lp96
sg17
(lp97
sg19
(lp98
sg21
I0
sba(iArchitecture
Entity
p99
(dp100
g11
(lp101
sg13
S'com.android.server.hdmi.HdmiAnnotations$IoThreadOnly'
p102
sg15
(lp103
sg17
(lp104
sg19
(lp105
sg21
I0
sba(iArchitecture
Entity
p106
(dp107
g11
(lp108
sg13
S'com.android.server.hdmi.HdmiAnnotations$ServiceThreadOnly'
p109
sg15
(lp110
sg17
(lp111
sg19
(lp112
sg21
I0
sba(iArchitecture
Entity
p113
(dp114
g11
(lp115
sg13
S'com.android.server.hdmi.HdmiCecController'
p116
sg15
(lp117
sg17
(lp118
sg19
(lp119
sg21
I0
sba(iArchitecture
Entity
p120
(dp121
g11
(lp122
sg13
S'com.android.server.hdmi.HdmiCecController$1'
p123
sg15
(lp124
sg17
(lp125
sg19
(lp126
sg21
I0
sba(iArchitecture
Entity
p127
(dp128
g11
(lp129
sg13
S'com.android.server.hdmi.HdmiCecController$2'
p130
sg15
(lp131
sg17
(lp132
sg19
(lp133
sg21
I0
sba(iArchitecture
Entity
p134
(dp135
g11
(lp136
sg13
S'com.android.server.hdmi.HdmiCecController$3'
p137
sg15
(lp138
sg17
(lp139
sg19
(lp140
sg21
I0
sba(iArchitecture
Entity
p141
(dp142
g11
(lp143
sg13
S'com.android.server.hdmi.HdmiCecController$4'
p144
sg15
(lp145
sg17
(lp146
sg19
(lp147
sg21
I0
sba(iArchitecture
Entity
p148
(dp149
g11
(lp150
sg13
S'com.android.server.hdmi.HdmiCecController$5'
p151
sg15
(lp152
sg17
(lp153
sg19
(lp154
sg21
I0
sba(iArchitecture
Entity
p155
(dp156
g11
(lp157
sg13
S'com.android.server.hdmi.HdmiCecController$5$1'
p158
sg15
(lp159
sg17
(lp160
sg19
(lp161
sg21
I0
sba(iArchitecture
Entity
p162
(dp163
g11
(lp164
sg13
S'com.android.server.hdmi.HdmiCecController$6'
p165
sg15
(lp166
sg17
(lp167
sg19
(lp168
sg21
I0
sba(iArchitecture
Entity
p169
(dp170
g11
(lp171
sg13
S'com.android.server.hdmi.HdmiCecController$7'
p172
sg15
(lp173
sg17
(lp174
sg19
(lp175
sg21
I0
sba(iArchitecture
Entity
p176
(dp177
g11
(lp178
sg13
S'com.android.server.hdmi.HdmiCecController$7$1'
p179
sg15
(lp180
sg17
(lp181
sg19
(lp182
sg21
I0
sba(iArchitecture
Entity
p183
(dp184
g11
(lp185
sg13
S'com.android.server.hdmi.HdmiCecController$AllocateAddressCallback'
p186
sg15
(lp187
sg17
(lp188
sg19
(lp189
sg21
I0
sba(iArchitecture
Entity
p190
(dp191
g11
(lp192
sg13
S'com.android.server.hdmi.HdmiCecFeatureAction'
p193
sg15
(lp194
sg17
(lp195
sg19
(lp196
sg21
I0
sba(iArchitecture
Entity
p197
(dp198
g11
(lp199
sg13
S'com.android.server.hdmi.HdmiCecFeatureAction$ActionTimer'
p200
sg15
(lp201
sg17
(lp202
sg19
(lp203
sg21
I0
sba(iArchitecture
Entity
p204
(dp205
g11
(lp206
sg13
S'com.android.server.hdmi.HdmiCecFeatureAction$ActionTimerHandler'
p207
sg15
(lp208
sg17
(lp209
sg19
(lp210
sg21
I0
sba(iArchitecture
Entity
p211
(dp212
g11
(lp213
sg13
S'com.android.server.hdmi.HdmiCecKeycode'
p214
sg15
(lp215
sg17
(lp216
sg19
(lp217
sg21
I0
sba(iArchitecture
Entity
p218
(dp219
g11
(lp220
sg13
S'com.android.server.hdmi.HdmiCecKeycode$KeycodeEntry'
p221
sg15
(lp222
sg17
(lp223
sg19
(lp224
sg21
I0
sba(iArchitecture
Entity
p225
(dp226
g11
(lp227
sg13
S'com.android.server.hdmi.HdmiCecLocalDevice'
p228
sg15
(lp229
sg17
(lp230
sg19
(lp231
sg21
I0
sba(iArchitecture
Entity
p232
(dp233
g11
(lp234
sg13
S'com.android.server.hdmi.HdmiCecLocalDevice$1'
p235
sg15
(lp236
sg17
(lp237
sg19
(lp238
sg21
I0
sba(iArchitecture
Entity
p239
(dp240
g11
(lp241
sg13
S'com.android.server.hdmi.HdmiCecLocalDevice$2'
p242
sg15
(lp243
sg17
(lp244
sg19
(lp245
sg21
I0
sba(iArchitecture
Entity
p246
(dp247
g11
(lp248
sg13
S'com.android.server.hdmi.HdmiCecLocalDevice$ActiveSource'
p249
sg15
(lp250
sg17
(lp251
sg19
(lp252
sg21
I0
sba(iArchitecture
Entity
p253
(dp254
g11
(lp255
sg13
S'com.android.server.hdmi.HdmiCecLocalDevice$PendingActionClearedCallback'
p256
sg15
(lp257
sg17
(lp258
sg19
(lp259
sg21
I0
sba(iArchitecture
Entity
p260
(dp261
g11
(lp262
sg13
S'com.android.server.hdmi.HdmiCecLocalDevicePlayback'
p263
sg15
(lp264
sg17
(lp265
sg19
(lp266
sg21
I0
sba(iArchitecture
Entity
p267
(dp268
g11
(lp269
sg13
S'com.android.server.hdmi.HdmiCecLocalDevicePlayback$1'
p270
sg15
(lp271
sg17
(lp272
sg19
(lp273
sg21
I0
sba(iArchitecture
Entity
p274
(dp275
g11
(lp276
sg13
S'com.android.server.hdmi.HdmiCecLocalDevicePlayback$ActiveWakeLock'
p277
sg15
(lp278
sg17
(lp279
sg19
(lp280
sg21
I0
sba(iArchitecture
Entity
p281
(dp282
g11
(lp283
sg13
S'com.android.server.hdmi.HdmiCecLocalDevicePlayback$SystemWakeLock'
p284
sg15
(lp285
sg17
(lp286
sg19
(lp287
sg21
I0
sba(iArchitecture
Entity
p288
(dp289
g11
(lp290
sg13
S'com.android.server.hdmi.HdmiCecLocalDeviceTv'
p291
sg15
(lp292
sg17
(lp293
sg19
(lp294
sg21
I0
sba(iArchitecture
Entity
p295
(dp296
g11
(lp297
sg13
S'com.android.server.hdmi.HdmiCecLocalDeviceTv$1'
p298
sg15
(lp299
sg17
(lp300
sg19
(lp301
sg21
I0
sba(iArchitecture
Entity
p302
(dp303
g11
(lp304
sg13
S'com.android.server.hdmi.HdmiCecLocalDeviceTv$2'
p305
sg15
(lp306
sg17
(lp307
sg19
(lp308
sg21
I0
sba(iArchitecture
Entity
p309
(dp310
g11
(lp311
sg13
S'com.android.server.hdmi.HdmiCecLocalDeviceTv$3'
p312
sg15
(lp313
sg17
(lp314
sg19
(lp315
sg21
I0
sba(iArchitecture
Entity
p316
(dp317
g11
(lp318
sg13
S'com.android.server.hdmi.HdmiCecMessage'
p319
sg15
(lp320
sg17
(lp321
sg19
(lp322
sg21
I0
sba(iArchitecture
Entity
p323
(dp324
g11
(lp325
sg13
S'com.android.server.hdmi.HdmiCecMessageBuilder'
p326
sg15
(lp327
sg17
(lp328
sg19
(lp329
sg21
I0
sba(iArchitecture
Entity
p330
(dp331
g11
(lp332
sg13
S'com.android.server.hdmi.HdmiCecMessageCache'
p333
sg15
(lp334
sg17
(lp335
sg19
(lp336
sg21
I0
sba(iArchitecture
Entity
p337
(dp338
g11
(lp339
sg13
S'com.android.server.hdmi.HdmiCecMessageValidator'
p340
sg15
(lp341
sg17
(lp342
sg19
(lp343
sg21
I0
sba(iArchitecture
Entity
p344
(dp345
g11
(lp346
sg13
S'com.android.server.hdmi.HdmiCecMessageValidator$FixedLengthValidator'
p347
sg15
(lp348
sg17
(lp349
sg19
(lp350
sg21
I0
sba(iArchitecture
Entity
p351
(dp352
g11
(lp353
sg13
S'com.android.server.hdmi.HdmiCecMessageValidator$ParameterValidator'
p354
sg15
(lp355
sg17
(lp356
sg19
(lp357
sg21
I0
sba(iArchitecture
Entity
p358
(dp359
g11
(lp360
sg13
S'com.android.server.hdmi.HdmiCecMessageValidator$PhysicalAddressValidator'
p361
sg15
(lp362
sg17
(lp363
sg19
(lp364
sg21
I0
sba(iArchitecture
Entity
p365
(dp366
g11
(lp367
sg13
S'com.android.server.hdmi.HdmiCecMessageValidator$ReportPhysicalAddressValidator'
p368
sg15
(lp369
sg17
(lp370
sg19
(lp371
sg21
I0
sba(iArchitecture
Entity
p372
(dp373
g11
(lp374
sg13
S'com.android.server.hdmi.HdmiCecMessageValidator$RoutingChangeValidator'
p375
sg15
(lp376
sg17
(lp377
sg19
(lp378
sg21
I0
sba(iArchitecture
Entity
p379
(dp380
g11
(lp381
sg13
S'com.android.server.hdmi.HdmiCecMessageValidator$SystemAudioModeRequestValidator'
p382
sg15
(lp383
sg17
(lp384
sg19
(lp385
sg21
I0
sba(iArchitecture
Entity
p386
(dp387
g11
(lp388
sg13
S'com.android.server.hdmi.HdmiCecMessageValidator$ValidationInfo'
p389
sg15
(lp390
sg17
(lp391
sg19
(lp392
sg21
I0
sba(iArchitecture
Entity
p393
(dp394
g11
(lp395
sg13
S'com.android.server.hdmi.HdmiCecMessageValidator$VariableLengthValidator'
p396
sg15
(lp397
sg17
(lp398
sg19
(lp399
sg21
I0
sba(iArchitecture
Entity
p400
(dp401
g11
(lp402
sg13
S'com.android.server.hdmi.HdmiCecStandbyModeHandler'
p403
sg15
(lp404
sg17
(lp405
sg19
(lp406
sg21
I0
sba(iArchitecture
Entity
p407
(dp408
g11
(lp409
sg13
S'com.android.server.hdmi.HdmiCecStandbyModeHandler$Aborter'
p410
sg15
(lp411
sg17
(lp412
sg19
(lp413
sg21
I0
sba(iArchitecture
Entity
p414
(dp415
g11
(lp416
sg13
S'com.android.server.hdmi.HdmiCecStandbyModeHandler$AutoOnHandler'
p417
sg15
(lp418
sg17
(lp419
sg19
(lp420
sg21
I0
sba(iArchitecture
Entity
p421
(dp422
g11
(lp423
sg13
S'com.android.server.hdmi.HdmiCecStandbyModeHandler$Bypasser'
p424
sg15
(lp425
sg17
(lp426
sg19
(lp427
sg21
I0
sba(iArchitecture
Entity
p428
(dp429
g11
(lp430
sg13
S'com.android.server.hdmi.HdmiCecStandbyModeHandler$Bystander'
p431
sg15
(lp432
sg17
(lp433
sg19
(lp434
sg21
I0
sba(iArchitecture
Entity
p435
(dp436
g11
(lp437
sg13
S'com.android.server.hdmi.HdmiCecStandbyModeHandler$CecMessageHandler'
p438
sg15
(lp439
sg17
(lp440
sg19
(lp441
sg21
I0
sba(iArchitecture
Entity
p442
(dp443
g11
(lp444
sg13
S'com.android.server.hdmi.HdmiCecStandbyModeHandler$UserControlProcessedHandler'
p445
sg15
(lp446
sg17
(lp447
sg19
(lp448
sg21
I0
sba(iArchitecture
Entity
p449
(dp450
g11
(lp451
sg13
S'com.android.server.hdmi.HdmiControlService'
p452
sg15
(lp453
sg17
(lp454
sg19
(lp455
sg21
I0
sba(iArchitecture
Entity
p456
(dp457
g11
(lp458
sg13
S'com.android.server.hdmi.HdmiControlService$1'
p459
sg15
(lp460
sg17
(lp461
sg19
(lp462
sg21
I0
sba(iArchitecture
Entity
p463
(dp464
g11
(lp465
sg13
S'com.android.server.hdmi.HdmiControlService$2'
p466
sg15
(lp467
sg17
(lp468
sg19
(lp469
sg21
I0
sba(iArchitecture
Entity
p470
(dp471
g11
(lp472
sg13
S'com.android.server.hdmi.HdmiControlService$3'
p473
sg15
(lp474
sg17
(lp475
sg19
(lp476
sg21
I0
sba(iArchitecture
Entity
p477
(dp478
g11
(lp479
sg13
S'com.android.server.hdmi.HdmiControlService$4'
p480
sg15
(lp481
sg17
(lp482
sg19
(lp483
sg21
I0
sba(iArchitecture
Entity
p484
(dp485
g11
(lp486
sg13
S'com.android.server.hdmi.HdmiControlService$5'
p487
sg15
(lp488
sg17
(lp489
sg19
(lp490
sg21
I0
sba(iArchitecture
Entity
p491
(dp492
g11
(lp493
sg13
S'com.android.server.hdmi.HdmiControlService$5$1'
p494
sg15
(lp495
sg17
(lp496
sg19
(lp497
sg21
I0
sba(iArchitecture
Entity
p498
(dp499
g11
(lp500
sg13
S'com.android.server.hdmi.HdmiControlService$6'
p501
sg15
(lp502
sg17
(lp503
sg19
(lp504
sg21
I0
sba(iArchitecture
Entity
p505
(dp506
g11
(lp507
sg13
S'com.android.server.hdmi.HdmiControlService$BinderService'
p508
sg15
(lp509
sg17
(lp510
sg19
(lp511
sg21
I0
sba(iArchitecture
Entity
p512
(dp513
g11
(lp514
sg13
S'com.android.server.hdmi.HdmiControlService$BinderService$1'
p515
sg15
(lp516
sg17
(lp517
sg19
(lp518
sg21
I0
sba(iArchitecture
Entity
p519
(dp520
g11
(lp521
sg13
S'com.android.server.hdmi.HdmiControlService$BinderService$10'
p522
sg15
(lp523
sg17
(lp524
sg19
(lp525
sg21
I0
sba(iArchitecture
Entity
p526
(dp527
g11
(lp528
sg13
S'com.android.server.hdmi.HdmiControlService$BinderService$11'
p529
sg15
(lp530
sg17
(lp531
sg19
(lp532
sg21
I0
sba(iArchitecture
Entity
p533
(dp534
g11
(lp535
sg13
S'com.android.server.hdmi.HdmiControlService$BinderService$12'
p536
sg15
(lp537
sg17
(lp538
sg19
(lp539
sg21
I0
sba(iArchitecture
Entity
p540
(dp541
g11
(lp542
sg13
S'com.android.server.hdmi.HdmiControlService$BinderService$13'
p543
sg15
(lp544
sg17
(lp545
sg19
(lp546
sg21
I0
sba(iArchitecture
Entity
p547
(dp548
g11
(lp549
sg13
S'com.android.server.hdmi.HdmiControlService$BinderService$14'
p550
sg15
(lp551
sg17
(lp552
sg19
(lp553
sg21
I0
sba(iArchitecture
Entity
p554
(dp555
g11
(lp556
sg13
S'com.android.server.hdmi.HdmiControlService$BinderService$15'
p557
sg15
(lp558
sg17
(lp559
sg19
(lp560
sg21
I0
sba(iArchitecture
Entity
p561
(dp562
g11
(lp563
sg13
S'com.android.server.hdmi.HdmiControlService$BinderService$16'
p564
sg15
(lp565
sg17
(lp566
sg19
(lp567
sg21
I0
sba(iArchitecture
Entity
p568
(dp569
g11
(lp570
sg13
S'com.android.server.hdmi.HdmiControlService$BinderService$2'
p571
sg15
(lp572
sg17
(lp573
sg19
(lp574
sg21
I0
sba(iArchitecture
Entity
p575
(dp576
g11
(lp577
sg13
S'com.android.server.hdmi.HdmiControlService$BinderService$3'
p578
sg15
(lp579
sg17
(lp580
sg19
(lp581
sg21
I0
sba(iArchitecture
Entity
p582
(dp583
g11
(lp584
sg13
S'com.android.server.hdmi.HdmiControlService$BinderService$4'
p585
sg15
(lp586
sg17
(lp587
sg19
(lp588
sg21
I0
sba(iArchitecture
Entity
p589
(dp590
g11
(lp591
sg13
S'com.android.server.hdmi.HdmiControlService$BinderService$5'
p592
sg15
(lp593
sg17
(lp594
sg19
(lp595
sg21
I0
sba(iArchitecture
Entity
p596
(dp597
g11
(lp598
sg13
S'com.android.server.hdmi.HdmiControlService$BinderService$6'
p599
sg15
(lp600
sg17
(lp601
sg19
(lp602
sg21
I0
sba(iArchitecture
Entity
p603
(dp604
g11
(lp605
sg13
S'com.android.server.hdmi.HdmiControlService$BinderService$7'
p606
sg15
(lp607
sg17
(lp608
sg19
(lp609
sg21
I0
sba(iArchitecture
Entity
p610
(dp611
g11
(lp612
sg13
S'com.android.server.hdmi.HdmiControlService$BinderService$8'
p613
sg15
(lp614
sg17
(lp615
sg19
(lp616
sg21
I0
sba(iArchitecture
Entity
p617
(dp618
g11
(lp619
sg13
S'com.android.server.hdmi.HdmiControlService$BinderService$9'
p620
sg15
(lp621
sg17
(lp622
sg19
(lp623
sg21
I0
sba(iArchitecture
Entity
p624
(dp625
g11
(lp626
sg13
S'com.android.server.hdmi.HdmiControlService$CecMessageBuffer'
p627
sg15
(lp628
sg17
(lp629
sg19
(lp630
sg21
I0
sba(iArchitecture
Entity
p631
(dp632
g11
(lp633
sg13
S'com.android.server.hdmi.HdmiControlService$CecMessageBuffer$1'
p634
sg15
(lp635
sg17
(lp636
sg19
(lp637
sg21
I0
sba(iArchitecture
Entity
p638
(dp639
g11
(lp640
sg13
S'com.android.server.hdmi.HdmiControlService$DeviceEventListenerRecord'
p641
sg15
(lp642
sg17
(lp643
sg19
(lp644
sg21
I0
sba(iArchitecture
Entity
p645
(dp646
g11
(lp647
sg13
S'com.android.server.hdmi.HdmiControlService$DevicePollingCallback'
p648
sg15
(lp649
sg17
(lp650
sg19
(lp651
sg21
I0
sba(iArchitecture
Entity
p652
(dp653
g11
(lp654
sg13
S'com.android.server.hdmi.HdmiControlService$HdmiControlBroadcastReceiver'
p655
sg15
(lp656
sg17
(lp657
sg19
(lp658
sg21
I0
sba(iArchitecture
Entity
p659
(dp660
g11
(lp661
sg13
S'com.android.server.hdmi.HdmiControlService$HdmiMhlVendorCommandListenerRecord'
p662
sg15
(lp663
sg17
(lp664
sg19
(lp665
sg21
I0
sba(iArchitecture
Entity
p666
(dp667
g11
(lp668
sg13
S'com.android.server.hdmi.HdmiControlService$HdmiRecordListenerRecord'
p669
sg15
(lp670
sg17
(lp671
sg19
(lp672
sg21
I0
sba(iArchitecture
Entity
p673
(dp674
g11
(lp675
sg13
S'com.android.server.hdmi.HdmiControlService$HotplugEventListenerRecord'
p676
sg15
(lp677
sg17
(lp678
sg19
(lp679
sg21
I0
sba(iArchitecture
Entity
p680
(dp681
g11
(lp682
sg13
S'com.android.server.hdmi.HdmiControlService$InputChangeListenerRecord'
p683
sg15
(lp684
sg17
(lp685
sg19
(lp686
sg21
I0
sba(iArchitecture
Entity
p687
(dp688
g11
(lp689
sg13
S'com.android.server.hdmi.HdmiControlService$SendMessageCallback'
p690
sg15
(lp691
sg17
(lp692
sg19
(lp693
sg21
I0
sba(iArchitecture
Entity
p694
(dp695
g11
(lp696
sg13
S'com.android.server.hdmi.HdmiControlService$SettingsObserver'
p697
sg15
(lp698
sg17
(lp699
sg19
(lp700
sg21
I0
sba(iArchitecture
Entity
p701
(dp702
g11
(lp703
sg13
S'com.android.server.hdmi.HdmiControlService$SystemAudioModeChangeListenerRecord'
p704
sg15
(lp705
sg17
(lp706
sg19
(lp707
sg21
I0
sba(iArchitecture
Entity
p708
(dp709
g11
(lp710
sg13
S'com.android.server.hdmi.HdmiControlService$VendorCommandListenerRecord'
p711
sg15
(lp712
sg17
(lp713
sg19
(lp714
sg21
I0
sba(iArchitecture
Entity
p715
(dp716
g11
(lp717
sg13
S'com.android.server.hdmi.HdmiLogger'
p718
sg15
(lp719
sg17
(lp720
sg19
(lp721
sg21
I0
sba(iArchitecture
Entity
p722
(dp723
g11
(lp724
sg13
S'com.android.server.hdmi.HdmiMhlControllerStub'
p725
sg15
(lp726
sg17
(lp727
sg19
(lp728
sg21
I0
sba(iArchitecture
Entity
p729
(dp730
g11
(lp731
sg13
S'com.android.server.hdmi.HdmiMhlLocalDeviceStub'
p732
sg15
(lp733
sg17
(lp734
sg19
(lp735
sg21
I0
sba(iArchitecture
Entity
p736
(dp737
g11
(lp738
sg13
S'com.android.server.hdmi.HdmiUtils'
p739
sg15
(lp740
sg17
(lp741
sg19
(lp742
sg21
I0
sba(iArchitecture
Entity
p743
(dp744
g11
(lp745
sg13
S'com.android.server.hdmi.HotplugDetectionAction'
p746
sg15
(lp747
sg17
(lp748
sg19
(lp749
sg21
I0
sba(iArchitecture
Entity
p750
(dp751
g11
(lp752
sg13
S'com.android.server.hdmi.HotplugDetectionAction$1'
p753
sg15
(lp754
sg17
(lp755
sg19
(lp756
sg21
I0
sba(iArchitecture
Entity
p757
(dp758
g11
(lp759
sg13
S'com.android.server.hdmi.HotplugDetectionAction$2'
p760
sg15
(lp761
sg17
(lp762
sg19
(lp763
sg21
I0
sba(iArchitecture
Entity
p764
(dp765
g11
(lp766
sg13
S'com.android.server.hdmi.NewDeviceAction'
p767
sg15
(lp768
sg17
(lp769
sg19
(lp770
sg21
I0
sba(iArchitecture
Entity
p771
(dp772
g11
(lp773
sg13
S'com.android.server.hdmi.OneTouchPlayAction'
p774
sg15
(lp775
sg17
(lp776
sg19
(lp777
sg21
I0
sba(iArchitecture
Entity
p778
(dp779
g11
(lp780
sg13
S'com.android.server.hdmi.OneTouchRecordAction'
p781
sg15
(lp782
sg17
(lp783
sg19
(lp784
sg21
I0
sba(iArchitecture
Entity
p785
(dp786
g11
(lp787
sg13
S'com.android.server.hdmi.OneTouchRecordAction$1'
p788
sg15
(lp789
sg17
(lp790
sg19
(lp791
sg21
I0
sba(iArchitecture
Entity
p792
(dp793
g11
(lp794
sg13
S'com.android.server.hdmi.PowerStatusMonitorAction'
p795
sg15
(lp796
sg17
(lp797
sg19
(lp798
sg21
I0
sba(iArchitecture
Entity
p799
(dp800
g11
(lp801
sg13
S'com.android.server.hdmi.PowerStatusMonitorAction$1'
p802
sg15
(lp803
sg17
(lp804
sg19
(lp805
sg21
I0
sba(iArchitecture
Entity
p806
(dp807
g11
(lp808
sg13
S'com.android.server.hdmi.RequestArcAction'
p809
sg15
(lp810
sg17
(lp811
sg19
(lp812
sg21
I0
sba(iArchitecture
Entity
p813
(dp814
g11
(lp815
sg13
S'com.android.server.hdmi.RequestArcInitiationAction'
p816
sg15
(lp817
sg17
(lp818
sg19
(lp819
sg21
I0
sba(iArchitecture
Entity
p820
(dp821
g11
(lp822
sg13
S'com.android.server.hdmi.RequestArcInitiationAction$1'
p823
sg15
(lp824
sg17
(lp825
sg19
(lp826
sg21
I0
sba(iArchitecture
Entity
p827
(dp828
g11
(lp829
sg13
S'com.android.server.hdmi.RequestArcTerminationAction'
p830
sg15
(lp831
sg17
(lp832
sg19
(lp833
sg21
I0
sba(iArchitecture
Entity
p834
(dp835
g11
(lp836
sg13
S'com.android.server.hdmi.RequestArcTerminationAction$1'
p837
sg15
(lp838
sg17
(lp839
sg19
(lp840
sg21
I0
sba(iArchitecture
Entity
p841
(dp842
g11
(lp843
sg13
S'com.android.server.hdmi.RoutingControlAction'
p844
sg15
(lp845
sg17
(lp846
sg19
(lp847
sg21
I0
sba(iArchitecture
Entity
p848
(dp849
g11
(lp850
sg13
S'com.android.server.hdmi.RoutingControlAction$1'
p851
sg15
(lp852
sg17
(lp853
sg19
(lp854
sg21
I0
sba(iArchitecture
Entity
p855
(dp856
g11
(lp857
sg13
S'com.android.server.hdmi.SendKeyAction'
p858
sg15
(lp859
sg17
(lp860
sg19
(lp861
sg21
I0
sba(iArchitecture
Entity
p862
(dp863
g11
(lp864
sg13
S'com.android.server.hdmi.SetArcTransmissionStateAction'
p865
sg15
(lp866
sg17
(lp867
sg19
(lp868
sg21
I0
sba(iArchitecture
Entity
p869
(dp870
g11
(lp871
sg13
S'com.android.server.hdmi.SetArcTransmissionStateAction$1'
p872
sg15
(lp873
sg17
(lp874
sg19
(lp875
sg21
I0
sba(iArchitecture
Entity
p876
(dp877
g11
(lp878
sg13
S'com.android.server.hdmi.SystemAudioAction'
p879
sg15
(lp880
sg17
(lp881
sg19
(lp882
sg21
I0
sba(iArchitecture
Entity
p883
(dp884
g11
(lp885
sg13
S'com.android.server.hdmi.SystemAudioAction$1'
p886
sg15
(lp887
sg17
(lp888
sg19
(lp889
sg21
I0
sba(iArchitecture
Entity
p890
(dp891
g11
(lp892
sg13
S'com.android.server.hdmi.SystemAudioAction$2'
p893
sg15
(lp894
sg17
(lp895
sg19
(lp896
sg21
I0
sba(iArchitecture
Entity
p897
(dp898
g11
(lp899
sg13
S'com.android.server.hdmi.SystemAudioActionFromAvr'
p900
sg15
(lp901
sg17
(lp902
sg19
(lp903
sg21
I0
sba(iArchitecture
Entity
p904
(dp905
g11
(lp906
sg13
S'com.android.server.hdmi.SystemAudioActionFromTv'
p907
sg15
(lp908
sg17
(lp909
sg19
(lp910
sg21
I0
sba(iArchitecture
Entity
p911
(dp912
g11
(lp913
sg13
S'com.android.server.hdmi.SystemAudioAutoInitiationAction'
p914
sg15
(lp915
sg17
(lp916
sg19
(lp917
sg21
I0
sba(iArchitecture
Entity
p918
(dp919
g11
(lp920
sg13
S'com.android.server.hdmi.SystemAudioAutoInitiationAction$1'
p921
sg15
(lp922
sg17
(lp923
sg19
(lp924
sg21
I0
sba(iArchitecture
Entity
p925
(dp926
g11
(lp927
sg13
S'com.android.server.hdmi.SystemAudioStatusAction'
p928
sg15
(lp929
sg17
(lp930
sg19
(lp931
sg21
I0
sba(iArchitecture
Entity
p932
(dp933
g11
(lp934
sg13
S'com.android.server.hdmi.SystemAudioStatusAction$1'
p935
sg15
(lp936
sg17
(lp937
sg19
(lp938
sg21
I0
sba(iArchitecture
Entity
p939
(dp940
g11
(lp941
sg13
S'com.android.server.hdmi.TimerRecordingAction'
p942
sg15
(lp943
sg17
(lp944
sg19
(lp945
sg21
I0
sba(iArchitecture
Entity
p946
(dp947
g11
(lp948
sg13
S'com.android.server.hdmi.TimerRecordingAction$1'
p949
sg15
(lp950
sg17
(lp951
sg19
(lp952
sg21
I0
sba(iArchitecture
Entity
p953
(dp954
g11
(lp955
sg13
S'com.android.server.hdmi.UnmodifiableSparseArray'
p956
sg15
(lp957
sg17
(lp958
sg19
(lp959
sg21
I0
sba(iArchitecture
Entity
p960
(dp961
g11
(lp962
sg13
S'com.android.server.hdmi.UnmodifiableSparseIntArray'
p963
sg15
(lp964
sg17
(lp965
sg19
(lp966
sg21
I0
sba(iArchitecture
Entity
p967
(dp968
g11
(lp969
sg13
S'com.android.server.hdmi.VolumeControlAction'
p970
sg15
(lp971
sg17
(lp972
sg19
(lp973
sg21
I0
sbasg22
(lp974
g32
ag39
ag46
ag53
ag60
ag67
ag74
ag81
ag88
ag95
ag102
ag109
ag116
ag123
ag130
ag137
ag144
ag151
ag158
ag165
ag172
ag179
ag186
ag193
ag200
ag207
ag214
ag221
ag228
ag235
ag242
ag249
ag256
ag263
ag270
ag277
ag284
ag291
ag298
ag305
ag312
ag319
ag326
ag333
ag340
ag347
ag354
ag361
ag368
ag375
ag382
ag389
ag396
ag403
ag410
ag417
ag424
ag431
ag438
ag445
ag452
ag459
ag466
ag473
ag480
ag487
ag494
ag501
ag508
ag515
ag522
ag529
ag536
ag543
ag550
ag557
ag564
ag571
ag578
ag585
ag592
ag599
ag606
ag613
ag620
ag627
ag634
ag641
ag648
ag655
ag662
ag669
ag676
ag683
ag690
ag697
ag704
ag711
ag718
ag725
ag732
ag739
ag746
ag753
ag760
ag767
ag774
ag781
ag788
ag795
ag802
ag809
ag816
ag823
ag830
ag837
ag844
ag851
ag858
ag865
ag872
ag879
ag886
ag893
ag900
ag907
ag914
ag921
ag928
ag935
ag942
ag949
ag956
ag963
ag970
asg21
I0
sg24
S'com.android.server.hdmi.ss'
p975
sba(iArchitecture
Cluster
p976
(dp977
g7
(lp978
(iArchitecture
Entity
p979
(dp980
g11
(lp981
sg13
S'com.android.server.hdmi.Constants'
p982
sg15
(lp983
sg17
(lp984
sg19
(lp985
sg21
I0
sbasg22
(lp986
g982
asg21
I0
sg24
S'com.android.server.pm.ss'
p987
sbasS'target_sub'
p988
S'com.android.server.hdmi'
p989
sg22
(lp990
sS'is_component_arch'
p991
I00
sg24
S'6.0.0_r1'
p992
sba(iArchitecture
Architecture
p993
(dp994
g3
(lp995
(iArchitecture
Cluster
p996
(dp997
g7
(lp998
(iArchitecture
Entity
p999
(dp1000
g11
(lp1001
sg13
S'com.android.server.hdmi.HdmiConfig'
p1002
sg15
(lp1003
sg17
(lp1004
sg19
(lp1005
sg21
I0
sbasg22
(lp1006
g1002
asg21
I0
sg24
S'android.app.ss'
p1007
sba(iArchitecture
Cluster
p1008
(dp1009
g7
(lp1010
(iArchitecture
Entity
p1011
(dp1012
g11
(lp1013
sg13
S'com.android.server.hdmi.ActiveSourceHandler'
p1014
sg15
(lp1015
sg17
(lp1016
sg19
(lp1017
sg21
I0
sba(iArchitecture
Entity
p1018
(dp1019
g11
(lp1020
sg13
S'com.android.server.hdmi.DelayedMessageBuffer'
p1021
sg15
(lp1022
sg17
(lp1023
sg19
(lp1024
sg21
I0
sba(iArchitecture
Entity
p1025
(dp1026
g11
(lp1027
sg13
S'com.android.server.hdmi.DeviceDiscoveryAction'
p1028
sg15
(lp1029
sg17
(lp1030
sg19
(lp1031
sg21
I0
sba(iArchitecture
Entity
p1032
(dp1033
g11
(lp1034
sg13
S'com.android.server.hdmi.DeviceDiscoveryAction$1'
p1035
sg15
(lp1036
sg17
(lp1037
sg19
(lp1038
sg21
I0
sba(iArchitecture
Entity
p1039
(dp1040
g11
(lp1041
sg13
S'com.android.server.hdmi.DeviceDiscoveryAction$DeviceDiscoveryCallback'
p1042
sg15
(lp1043
sg17
(lp1044
sg19
(lp1045
sg21
I0
sba(iArchitecture
Entity
p1046
(dp1047
g11
(lp1048
sg13
S'com.android.server.hdmi.DeviceDiscoveryAction$DeviceInfo'
p1049
sg15
(lp1050
sg17
(lp1051
sg19
(lp1052
sg21
I0
sba(iArchitecture
Entity
p1053
(dp1054
g11
(lp1055
sg13
S'com.android.server.hdmi.DevicePowerStatusAction'
p1056
sg15
(lp1057
sg17
(lp1058
sg19
(lp1059
sg21
I0
sba(iArchitecture
Entity
p1060
(dp1061
g11
(lp1062
sg13
S'com.android.server.hdmi.DeviceSelectAction'
p1063
sg15
(lp1064
sg17
(lp1065
sg19
(lp1066
sg21
I0
sba(iArchitecture
Entity
p1067
(dp1068
g11
(lp1069
sg13
S'com.android.server.hdmi.DeviceSelectAction$1'
p1070
sg15
(lp1071
sg17
(lp1072
sg19
(lp1073
sg21
I0
sba(iArchitecture
Entity
p1074
(dp1075
g11
(lp1076
sg13
S'com.android.server.hdmi.HdmiAnnotations'
p1077
sg15
(lp1078
sg17
(lp1079
sg19
(lp1080
sg21
I0
sba(iArchitecture
Entity
p1081
(dp1082
g11
(lp1083
sg13
S'com.android.server.hdmi.HdmiAnnotations$IoThreadOnly'
p1084
sg15
(lp1085
sg17
(lp1086
sg19
(lp1087
sg21
I0
sba(iArchitecture
Entity
p1088
(dp1089
g11
(lp1090
sg13
S'com.android.server.hdmi.HdmiAnnotations$ServiceThreadOnly'
p1091
sg15
(lp1092
sg17
(lp1093
sg19
(lp1094
sg21
I0
sba(iArchitecture
Entity
p1095
(dp1096
g11
(lp1097
sg13
S'com.android.server.hdmi.HdmiCecController'
p1098
sg15
(lp1099
sg17
(lp1100
sg19
(lp1101
sg21
I0
sba(iArchitecture
Entity
p1102
(dp1103
g11
(lp1104
sg13
S'com.android.server.hdmi.HdmiCecController$1'
p1105
sg15
(lp1106
sg17
(lp1107
sg19
(lp1108
sg21
I0
sba(iArchitecture
Entity
p1109
(dp1110
g11
(lp1111
sg13
S'com.android.server.hdmi.HdmiCecController$2'
p1112
sg15
(lp1113
sg17
(lp1114
sg19
(lp1115
sg21
I0
sba(iArchitecture
Entity
p1116
(dp1117
g11
(lp1118
sg13
S'com.android.server.hdmi.HdmiCecController$3'
p1119
sg15
(lp1120
sg17
(lp1121
sg19
(lp1122
sg21
I0
sba(iArchitecture
Entity
p1123
(dp1124
g11
(lp1125
sg13
S'com.android.server.hdmi.HdmiCecController$4'
p1126
sg15
(lp1127
sg17
(lp1128
sg19
(lp1129
sg21
I0
sba(iArchitecture
Entity
p1130
(dp1131
g11
(lp1132
sg13
S'com.android.server.hdmi.HdmiCecController$5'
p1133
sg15
(lp1134
sg17
(lp1135
sg19
(lp1136
sg21
I0
sba(iArchitecture
Entity
p1137
(dp1138
g11
(lp1139
sg13
S'com.android.server.hdmi.HdmiCecController$5$1'
p1140
sg15
(lp1141
sg17
(lp1142
sg19
(lp1143
sg21
I0
sba(iArchitecture
Entity
p1144
(dp1145
g11
(lp1146
sg13
S'com.android.server.hdmi.HdmiCecController$6'
p1147
sg15
(lp1148
sg17
(lp1149
sg19
(lp1150
sg21
I0
sba(iArchitecture
Entity
p1151
(dp1152
g11
(lp1153
sg13
S'com.android.server.hdmi.HdmiCecController$7'
p1154
sg15
(lp1155
sg17
(lp1156
sg19
(lp1157
sg21
I0
sba(iArchitecture
Entity
p1158
(dp1159
g11
(lp1160
sg13
S'com.android.server.hdmi.HdmiCecController$7$1'
p1161
sg15
(lp1162
sg17
(lp1163
sg19
(lp1164
sg21
I0
sba(iArchitecture
Entity
p1165
(dp1166
g11
(lp1167
sg13
S'com.android.server.hdmi.HdmiCecController$AllocateAddressCallback'
p1168
sg15
(lp1169
sg17
(lp1170
sg19
(lp1171
sg21
I0
sba(iArchitecture
Entity
p1172
(dp1173
g11
(lp1174
sg13
S'com.android.server.hdmi.HdmiCecFeatureAction'
p1175
sg15
(lp1176
sg17
(lp1177
sg19
(lp1178
sg21
I0
sba(iArchitecture
Entity
p1179
(dp1180
g11
(lp1181
sg13
S'com.android.server.hdmi.HdmiCecFeatureAction$ActionTimer'
p1182
sg15
(lp1183
sg17
(lp1184
sg19
(lp1185
sg21
I0
sba(iArchitecture
Entity
p1186
(dp1187
g11
(lp1188
sg13
S'com.android.server.hdmi.HdmiCecFeatureAction$ActionTimerHandler'
p1189
sg15
(lp1190
sg17
(lp1191
sg19
(lp1192
sg21
I0
sba(iArchitecture
Entity
p1193
(dp1194
g11
(lp1195
sg13
S'com.android.server.hdmi.HdmiCecKeycode'
p1196
sg15
(lp1197
sg17
(lp1198
sg19
(lp1199
sg21
I0
sba(iArchitecture
Entity
p1200
(dp1201
g11
(lp1202
sg13
S'com.android.server.hdmi.HdmiCecKeycode$KeycodeEntry'
p1203
sg15
(lp1204
sg17
(lp1205
sg19
(lp1206
sg21
I0
sba(iArchitecture
Entity
p1207
(dp1208
g11
(lp1209
sg13
S'com.android.server.hdmi.HdmiCecLocalDevice'
p1210
sg15
(lp1211
sg17
(lp1212
sg19
(lp1213
sg21
I0
sba(iArchitecture
Entity
p1214
(dp1215
g11
(lp1216
sg13
S'com.android.server.hdmi.HdmiCecLocalDevice$1'
p1217
sg15
(lp1218
sg17
(lp1219
sg19
(lp1220
sg21
I0
sba(iArchitecture
Entity
p1221
(dp1222
g11
(lp1223
sg13
S'com.android.server.hdmi.HdmiCecLocalDevice$2'
p1224
sg15
(lp1225
sg17
(lp1226
sg19
(lp1227
sg21
I0
sba(iArchitecture
Entity
p1228
(dp1229
g11
(lp1230
sg13
S'com.android.server.hdmi.HdmiCecLocalDevice$ActiveSource'
p1231
sg15
(lp1232
sg17
(lp1233
sg19
(lp1234
sg21
I0
sba(iArchitecture
Entity
p1235
(dp1236
g11
(lp1237
sg13
S'com.android.server.hdmi.HdmiCecLocalDevice$PendingActionClearedCallback'
p1238
sg15
(lp1239
sg17
(lp1240
sg19
(lp1241
sg21
I0
sba(iArchitecture
Entity
p1242
(dp1243
g11
(lp1244
sg13
S'com.android.server.hdmi.HdmiCecLocalDevicePlayback'
p1245
sg15
(lp1246
sg17
(lp1247
sg19
(lp1248
sg21
I0
sba(iArchitecture
Entity
p1249
(dp1250
g11
(lp1251
sg13
S'com.android.server.hdmi.HdmiCecLocalDevicePlayback$1'
p1252
sg15
(lp1253
sg17
(lp1254
sg19
(lp1255
sg21
I0
sba(iArchitecture
Entity
p1256
(dp1257
g11
(lp1258
sg13
S'com.android.server.hdmi.HdmiCecLocalDevicePlayback$ActiveWakeLock'
p1259
sg15
(lp1260
sg17
(lp1261
sg19
(lp1262
sg21
I0
sba(iArchitecture
Entity
p1263
(dp1264
g11
(lp1265
sg13
S'com.android.server.hdmi.HdmiCecLocalDevicePlayback$SystemWakeLock'
p1266
sg15
(lp1267
sg17
(lp1268
sg19
(lp1269
sg21
I0
sba(iArchitecture
Entity
p1270
(dp1271
g11
(lp1272
sg13
S'com.android.server.hdmi.HdmiCecLocalDeviceTv'
p1273
sg15
(lp1274
sg17
(lp1275
sg19
(lp1276
sg21
I0
sba(iArchitecture
Entity
p1277
(dp1278
g11
(lp1279
sg13
S'com.android.server.hdmi.HdmiCecLocalDeviceTv$1'
p1280
sg15
(lp1281
sg17
(lp1282
sg19
(lp1283
sg21
I0
sba(iArchitecture
Entity
p1284
(dp1285
g11
(lp1286
sg13
S'com.android.server.hdmi.HdmiCecLocalDeviceTv$2'
p1287
sg15
(lp1288
sg17
(lp1289
sg19
(lp1290
sg21
I0
sba(iArchitecture
Entity
p1291
(dp1292
g11
(lp1293
sg13
S'com.android.server.hdmi.HdmiCecLocalDeviceTv$3'
p1294
sg15
(lp1295
sg17
(lp1296
sg19
(lp1297
sg21
I0
sba(iArchitecture
Entity
p1298
(dp1299
g11
(lp1300
sg13
S'com.android.server.hdmi.HdmiCecMessage'
p1301
sg15
(lp1302
sg17
(lp1303
sg19
(lp1304
sg21
I0
sba(iArchitecture
Entity
p1305
(dp1306
g11
(lp1307
sg13
S'com.android.server.hdmi.HdmiCecMessageBuilder'
p1308
sg15
(lp1309
sg17
(lp1310
sg19
(lp1311
sg21
I0
sba(iArchitecture
Entity
p1312
(dp1313
g11
(lp1314
sg13
S'com.android.server.hdmi.HdmiCecMessageCache'
p1315
sg15
(lp1316
sg17
(lp1317
sg19
(lp1318
sg21
I0
sba(iArchitecture
Entity
p1319
(dp1320
g11
(lp1321
sg13
S'com.android.server.hdmi.HdmiCecMessageValidator'
p1322
sg15
(lp1323
sg17
(lp1324
sg19
(lp1325
sg21
I0
sba(iArchitecture
Entity
p1326
(dp1327
g11
(lp1328
sg13
S'com.android.server.hdmi.HdmiCecMessageValidator$FixedLengthValidator'
p1329
sg15
(lp1330
sg17
(lp1331
sg19
(lp1332
sg21
I0
sba(iArchitecture
Entity
p1333
(dp1334
g11
(lp1335
sg13
S'com.android.server.hdmi.HdmiCecMessageValidator$ParameterValidator'
p1336
sg15
(lp1337
sg17
(lp1338
sg19
(lp1339
sg21
I0
sba(iArchitecture
Entity
p1340
(dp1341
g11
(lp1342
sg13
S'com.android.server.hdmi.HdmiCecMessageValidator$PhysicalAddressValidator'
p1343
sg15
(lp1344
sg17
(lp1345
sg19
(lp1346
sg21
I0
sba(iArchitecture
Entity
p1347
(dp1348
g11
(lp1349
sg13
S'com.android.server.hdmi.HdmiCecMessageValidator$ReportPhysicalAddressValidator'
p1350
sg15
(lp1351
sg17
(lp1352
sg19
(lp1353
sg21
I0
sba(iArchitecture
Entity
p1354
(dp1355
g11
(lp1356
sg13
S'com.android.server.hdmi.HdmiCecMessageValidator$RoutingChangeValidator'
p1357
sg15
(lp1358
sg17
(lp1359
sg19
(lp1360
sg21
I0
sba(iArchitecture
Entity
p1361
(dp1362
g11
(lp1363
sg13
S'com.android.server.hdmi.HdmiCecMessageValidator$SystemAudioModeRequestValidator'
p1364
sg15
(lp1365
sg17
(lp1366
sg19
(lp1367
sg21
I0
sba(iArchitecture
Entity
p1368
(dp1369
g11
(lp1370
sg13
S'com.android.server.hdmi.HdmiCecMessageValidator$ValidationInfo'
p1371
sg15
(lp1372
sg17
(lp1373
sg19
(lp1374
sg21
I0
sba(iArchitecture
Entity
p1375
(dp1376
g11
(lp1377
sg13
S'com.android.server.hdmi.HdmiCecMessageValidator$VariableLengthValidator'
p1378
sg15
(lp1379
sg17
(lp1380
sg19
(lp1381
sg21
I0
sba(iArchitecture
Entity
p1382
(dp1383
g11
(lp1384
sg13
S'com.android.server.hdmi.HdmiCecStandbyModeHandler'
p1385
sg15
(lp1386
sg17
(lp1387
sg19
(lp1388
sg21
I0
sba(iArchitecture
Entity
p1389
(dp1390
g11
(lp1391
sg13
S'com.android.server.hdmi.HdmiCecStandbyModeHandler$Aborter'
p1392
sg15
(lp1393
sg17
(lp1394
sg19
(lp1395
sg21
I0
sba(iArchitecture
Entity
p1396
(dp1397
g11
(lp1398
sg13
S'com.android.server.hdmi.HdmiCecStandbyModeHandler$AutoOnHandler'
p1399
sg15
(lp1400
sg17
(lp1401
sg19
(lp1402
sg21
I0
sba(iArchitecture
Entity
p1403
(dp1404
g11
(lp1405
sg13
S'com.android.server.hdmi.HdmiCecStandbyModeHandler$Bypasser'
p1406
sg15
(lp1407
sg17
(lp1408
sg19
(lp1409
sg21
I0
sba(iArchitecture
Entity
p1410
(dp1411
g11
(lp1412
sg13
S'com.android.server.hdmi.HdmiCecStandbyModeHandler$Bystander'
p1413
sg15
(lp1414
sg17
(lp1415
sg19
(lp1416
sg21
I0
sba(iArchitecture
Entity
p1417
(dp1418
g11
(lp1419
sg13
S'com.android.server.hdmi.HdmiCecStandbyModeHandler$CecMessageHandler'
p1420
sg15
(lp1421
sg17
(lp1422
sg19
(lp1423
sg21
I0
sba(iArchitecture
Entity
p1424
(dp1425
g11
(lp1426
sg13
S'com.android.server.hdmi.HdmiCecStandbyModeHandler$UserControlProcessedHandler'
p1427
sg15
(lp1428
sg17
(lp1429
sg19
(lp1430
sg21
I0
sba(iArchitecture
Entity
p1431
(dp1432
g11
(lp1433
sg13
S'com.android.server.hdmi.HdmiControlService'
p1434
sg15
(lp1435
sg17
(lp1436
sg19
(lp1437
sg21
I0
sba(iArchitecture
Entity
p1438
(dp1439
g11
(lp1440
sg13
S'com.android.server.hdmi.HdmiControlService$1'
p1441
sg15
(lp1442
sg17
(lp1443
sg19
(lp1444
sg21
I0
sba(iArchitecture
Entity
p1445
(dp1446
g11
(lp1447
sg13
S'com.android.server.hdmi.HdmiControlService$2'
p1448
sg15
(lp1449
sg17
(lp1450
sg19
(lp1451
sg21
I0
sba(iArchitecture
Entity
p1452
(dp1453
g11
(lp1454
sg13
S'com.android.server.hdmi.HdmiControlService$3'
p1455
sg15
(lp1456
sg17
(lp1457
sg19
(lp1458
sg21
I0
sba(iArchitecture
Entity
p1459
(dp1460
g11
(lp1461
sg13
S'com.android.server.hdmi.HdmiControlService$4'
p1462
sg15
(lp1463
sg17
(lp1464
sg19
(lp1465
sg21
I0
sba(iArchitecture
Entity
p1466
(dp1467
g11
(lp1468
sg13
S'com.android.server.hdmi.HdmiControlService$5'
p1469
sg15
(lp1470
sg17
(lp1471
sg19
(lp1472
sg21
I0
sba(iArchitecture
Entity
p1473
(dp1474
g11
(lp1475
sg13
S'com.android.server.hdmi.HdmiControlService$5$1'
p1476
sg15
(lp1477
sg17
(lp1478
sg19
(lp1479
sg21
I0
sba(iArchitecture
Entity
p1480
(dp1481
g11
(lp1482
sg13
S'com.android.server.hdmi.HdmiControlService$6'
p1483
sg15
(lp1484
sg17
(lp1485
sg19
(lp1486
sg21
I0
sba(iArchitecture
Entity
p1487
(dp1488
g11
(lp1489
sg13
S'com.android.server.hdmi.HdmiControlService$BinderService'
p1490
sg15
(lp1491
sg17
(lp1492
sg19
(lp1493
sg21
I0
sba(iArchitecture
Entity
p1494
(dp1495
g11
(lp1496
sg13
S'com.android.server.hdmi.HdmiControlService$BinderService$1'
p1497
sg15
(lp1498
sg17
(lp1499
sg19
(lp1500
sg21
I0
sba(iArchitecture
Entity
p1501
(dp1502
g11
(lp1503
sg13
S'com.android.server.hdmi.HdmiControlService$BinderService$10'
p1504
sg15
(lp1505
sg17
(lp1506
sg19
(lp1507
sg21
I0
sba(iArchitecture
Entity
p1508
(dp1509
g11
(lp1510
sg13
S'com.android.server.hdmi.HdmiControlService$BinderService$11'
p1511
sg15
(lp1512
sg17
(lp1513
sg19
(lp1514
sg21
I0
sba(iArchitecture
Entity
p1515
(dp1516
g11
(lp1517
sg13
S'com.android.server.hdmi.HdmiControlService$BinderService$12'
p1518
sg15
(lp1519
sg17
(lp1520
sg19
(lp1521
sg21
I0
sba(iArchitecture
Entity
p1522
(dp1523
g11
(lp1524
sg13
S'com.android.server.hdmi.HdmiControlService$BinderService$13'
p1525
sg15
(lp1526
sg17
(lp1527
sg19
(lp1528
sg21
I0
sba(iArchitecture
Entity
p1529
(dp1530
g11
(lp1531
sg13
S'com.android.server.hdmi.HdmiControlService$BinderService$14'
p1532
sg15
(lp1533
sg17
(lp1534
sg19
(lp1535
sg21
I0
sba(iArchitecture
Entity
p1536
(dp1537
g11
(lp1538
sg13
S'com.android.server.hdmi.HdmiControlService$BinderService$15'
p1539
sg15
(lp1540
sg17
(lp1541
sg19
(lp1542
sg21
I0
sba(iArchitecture
Entity
p1543
(dp1544
g11
(lp1545
sg13
S'com.android.server.hdmi.HdmiControlService$BinderService$16'
p1546
sg15
(lp1547
sg17
(lp1548
sg19
(lp1549
sg21
I0
sba(iArchitecture
Entity
p1550
(dp1551
g11
(lp1552
sg13
S'com.android.server.hdmi.HdmiControlService$BinderService$2'
p1553
sg15
(lp1554
sg17
(lp1555
sg19
(lp1556
sg21
I0
sba(iArchitecture
Entity
p1557
(dp1558
g11
(lp1559
sg13
S'com.android.server.hdmi.HdmiControlService$BinderService$3'
p1560
sg15
(lp1561
sg17
(lp1562
sg19
(lp1563
sg21
I0
sba(iArchitecture
Entity
p1564
(dp1565
g11
(lp1566
sg13
S'com.android.server.hdmi.HdmiControlService$BinderService$4'
p1567
sg15
(lp1568
sg17
(lp1569
sg19
(lp1570
sg21
I0
sba(iArchitecture
Entity
p1571
(dp1572
g11
(lp1573
sg13
S'com.android.server.hdmi.HdmiControlService$BinderService$5'
p1574
sg15
(lp1575
sg17
(lp1576
sg19
(lp1577
sg21
I0
sba(iArchitecture
Entity
p1578
(dp1579
g11
(lp1580
sg13
S'com.android.server.hdmi.HdmiControlService$BinderService$6'
p1581
sg15
(lp1582
sg17
(lp1583
sg19
(lp1584
sg21
I0
sba(iArchitecture
Entity
p1585
(dp1586
g11
(lp1587
sg13
S'com.android.server.hdmi.HdmiControlService$BinderService$7'
p1588
sg15
(lp1589
sg17
(lp1590
sg19
(lp1591
sg21
I0
sba(iArchitecture
Entity
p1592
(dp1593
g11
(lp1594
sg13
S'com.android.server.hdmi.HdmiControlService$BinderService$8'
p1595
sg15
(lp1596
sg17
(lp1597
sg19
(lp1598
sg21
I0
sba(iArchitecture
Entity
p1599
(dp1600
g11
(lp1601
sg13
S'com.android.server.hdmi.HdmiControlService$BinderService$9'
p1602
sg15
(lp1603
sg17
(lp1604
sg19
(lp1605
sg21
I0
sba(iArchitecture
Entity
p1606
(dp1607
g11
(lp1608
sg13
S'com.android.server.hdmi.HdmiControlService$CecMessageBuffer'
p1609
sg15
(lp1610
sg17
(lp1611
sg19
(lp1612
sg21
I0
sba(iArchitecture
Entity
p1613
(dp1614
g11
(lp1615
sg13
S'com.android.server.hdmi.HdmiControlService$CecMessageBuffer$1'
p1616
sg15
(lp1617
sg17
(lp1618
sg19
(lp1619
sg21
I0
sba(iArchitecture
Entity
p1620
(dp1621
g11
(lp1622
sg13
S'com.android.server.hdmi.HdmiControlService$DeviceEventListenerRecord'
p1623
sg15
(lp1624
sg17
(lp1625
sg19
(lp1626
sg21
I0
sba(iArchitecture
Entity
p1627
(dp1628
g11
(lp1629
sg13
S'com.android.server.hdmi.HdmiControlService$DevicePollingCallback'
p1630
sg15
(lp1631
sg17
(lp1632
sg19
(lp1633
sg21
I0
sba(iArchitecture
Entity
p1634
(dp1635
g11
(lp1636
sg13
S'com.android.server.hdmi.HdmiControlService$HdmiControlBroadcastReceiver'
p1637
sg15
(lp1638
sg17
(lp1639
sg19
(lp1640
sg21
I0
sba(iArchitecture
Entity
p1641
(dp1642
g11
(lp1643
sg13
S'com.android.server.hdmi.HdmiControlService$HdmiMhlVendorCommandListenerRecord'
p1644
sg15
(lp1645
sg17
(lp1646
sg19
(lp1647
sg21
I0
sba(iArchitecture
Entity
p1648
(dp1649
g11
(lp1650
sg13
S'com.android.server.hdmi.HdmiControlService$HdmiRecordListenerRecord'
p1651
sg15
(lp1652
sg17
(lp1653
sg19
(lp1654
sg21
I0
sba(iArchitecture
Entity
p1655
(dp1656
g11
(lp1657
sg13
S'com.android.server.hdmi.HdmiControlService$HotplugEventListenerRecord'
p1658
sg15
(lp1659
sg17
(lp1660
sg19
(lp1661
sg21
I0
sba(iArchitecture
Entity
p1662
(dp1663
g11
(lp1664
sg13
S'com.android.server.hdmi.HdmiControlService$InputChangeListenerRecord'
p1665
sg15
(lp1666
sg17
(lp1667
sg19
(lp1668
sg21
I0
sba(iArchitecture
Entity
p1669
(dp1670
g11
(lp1671
sg13
S'com.android.server.hdmi.HdmiControlService$SendMessageCallback'
p1672
sg15
(lp1673
sg17
(lp1674
sg19
(lp1675
sg21
I0
sba(iArchitecture
Entity
p1676
(dp1677
g11
(lp1678
sg13
S'com.android.server.hdmi.HdmiControlService$SettingsObserver'
p1679
sg15
(lp1680
sg17
(lp1681
sg19
(lp1682
sg21
I0
sba(iArchitecture
Entity
p1683
(dp1684
g11
(lp1685
sg13
S'com.android.server.hdmi.HdmiControlService$SystemAudioModeChangeListenerRecord'
p1686
sg15
(lp1687
sg17
(lp1688
sg19
(lp1689
sg21
I0
sba(iArchitecture
Entity
p1690
(dp1691
g11
(lp1692
sg13
S'com.android.server.hdmi.HdmiControlService$VendorCommandListenerRecord'
p1693
sg15
(lp1694
sg17
(lp1695
sg19
(lp1696
sg21
I0
sba(iArchitecture
Entity
p1697
(dp1698
g11
(lp1699
sg13
S'com.android.server.hdmi.HdmiLogger'
p1700
sg15
(lp1701
sg17
(lp1702
sg19
(lp1703
sg21
I0
sba(iArchitecture
Entity
p1704
(dp1705
g11
(lp1706
sg13
S'com.android.server.hdmi.HdmiMhlControllerStub'
p1707
sg15
(lp1708
sg17
(lp1709
sg19
(lp1710
sg21
I0
sba(iArchitecture
Entity
p1711
(dp1712
g11
(lp1713
sg13
S'com.android.server.hdmi.HdmiMhlLocalDeviceStub'
p1714
sg15
(lp1715
sg17
(lp1716
sg19
(lp1717
sg21
I0
sba(iArchitecture
Entity
p1718
(dp1719
g11
(lp1720
sg13
S'com.android.server.hdmi.HdmiUtils'
p1721
sg15
(lp1722
sg17
(lp1723
sg19
(lp1724
sg21
I0
sba(iArchitecture
Entity
p1725
(dp1726
g11
(lp1727
sg13
S'com.android.server.hdmi.HotplugDetectionAction'
p1728
sg15
(lp1729
sg17
(lp1730
sg19
(lp1731
sg21
I0
sba(iArchitecture
Entity
p1732
(dp1733
g11
(lp1734
sg13
S'com.android.server.hdmi.HotplugDetectionAction$1'
p1735
sg15
(lp1736
sg17
(lp1737
sg19
(lp1738
sg21
I0
sba(iArchitecture
Entity
p1739
(dp1740
g11
(lp1741
sg13
S'com.android.server.hdmi.HotplugDetectionAction$2'
p1742
sg15
(lp1743
sg17
(lp1744
sg19
(lp1745
sg21
I0
sba(iArchitecture
Entity
p1746
(dp1747
g11
(lp1748
sg13
S'com.android.server.hdmi.NewDeviceAction'
p1749
sg15
(lp1750
sg17
(lp1751
sg19
(lp1752
sg21
I0
sba(iArchitecture
Entity
p1753
(dp1754
g11
(lp1755
sg13
S'com.android.server.hdmi.OneTouchPlayAction'
p1756
sg15
(lp1757
sg17
(lp1758
sg19
(lp1759
sg21
I0
sba(iArchitecture
Entity
p1760
(dp1761
g11
(lp1762
sg13
S'com.android.server.hdmi.OneTouchRecordAction'
p1763
sg15
(lp1764
sg17
(lp1765
sg19
(lp1766
sg21
I0
sba(iArchitecture
Entity
p1767
(dp1768
g11
(lp1769
sg13
S'com.android.server.hdmi.OneTouchRecordAction$1'
p1770
sg15
(lp1771
sg17
(lp1772
sg19
(lp1773
sg21
I0
sba(iArchitecture
Entity
p1774
(dp1775
g11
(lp1776
sg13
S'com.android.server.hdmi.PowerStatusMonitorAction'
p1777
sg15
(lp1778
sg17
(lp1779
sg19
(lp1780
sg21
I0
sba(iArchitecture
Entity
p1781
(dp1782
g11
(lp1783
sg13
S'com.android.server.hdmi.PowerStatusMonitorAction$1'
p1784
sg15
(lp1785
sg17
(lp1786
sg19
(lp1787
sg21
I0
sba(iArchitecture
Entity
p1788
(dp1789
g11
(lp1790
sg13
S'com.android.server.hdmi.RequestArcAction'
p1791
sg15
(lp1792
sg17
(lp1793
sg19
(lp1794
sg21
I0
sba(iArchitecture
Entity
p1795
(dp1796
g11
(lp1797
sg13
S'com.android.server.hdmi.RequestArcInitiationAction'
p1798
sg15
(lp1799
sg17
(lp1800
sg19
(lp1801
sg21
I0
sba(iArchitecture
Entity
p1802
(dp1803
g11
(lp1804
sg13
S'com.android.server.hdmi.RequestArcInitiationAction$1'
p1805
sg15
(lp1806
sg17
(lp1807
sg19
(lp1808
sg21
I0
sba(iArchitecture
Entity
p1809
(dp1810
g11
(lp1811
sg13
S'com.android.server.hdmi.RequestArcTerminationAction'
p1812
sg15
(lp1813
sg17
(lp1814
sg19
(lp1815
sg21
I0
sba(iArchitecture
Entity
p1816
(dp1817
g11
(lp1818
sg13
S'com.android.server.hdmi.RequestArcTerminationAction$1'
p1819
sg15
(lp1820
sg17
(lp1821
sg19
(lp1822
sg21
I0
sba(iArchitecture
Entity
p1823
(dp1824
g11
(lp1825
sg13
S'com.android.server.hdmi.RoutingControlAction'
p1826
sg15
(lp1827
sg17
(lp1828
sg19
(lp1829
sg21
I0
sba(iArchitecture
Entity
p1830
(dp1831
g11
(lp1832
sg13
S'com.android.server.hdmi.RoutingControlAction$1'
p1833
sg15
(lp1834
sg17
(lp1835
sg19
(lp1836
sg21
I0
sba(iArchitecture
Entity
p1837
(dp1838
g11
(lp1839
sg13
S'com.android.server.hdmi.SelectRequestBuffer'
p1840
sg15
(lp1841
sg17
(lp1842
sg19
(lp1843
sg21
I0
sba(iArchitecture
Entity
p1844
(dp1845
g11
(lp1846
sg13
S'com.android.server.hdmi.SelectRequestBuffer$1'
p1847
sg15
(lp1848
sg17
(lp1849
sg19
(lp1850
sg21
I0
sba(iArchitecture
Entity
p1851
(dp1852
g11
(lp1853
sg13
S'com.android.server.hdmi.SelectRequestBuffer$DeviceSelectRequest'
p1854
sg15
(lp1855
sg17
(lp1856
sg19
(lp1857
sg21
I0
sba(iArchitecture
Entity
p1858
(dp1859
g11
(lp1860
sg13
S'com.android.server.hdmi.SelectRequestBuffer$PortSelectRequest'
p1861
sg15
(lp1862
sg17
(lp1863
sg19
(lp1864
sg21
I0
sba(iArchitecture
Entity
p1865
(dp1866
g11
(lp1867
sg13
S'com.android.server.hdmi.SelectRequestBuffer$SelectRequest'
p1868
sg15
(lp1869
sg17
(lp1870
sg19
(lp1871
sg21
I0
sba(iArchitecture
Entity
p1872
(dp1873
g11
(lp1874
sg13
S'com.android.server.hdmi.SendKeyAction'
p1875
sg15
(lp1876
sg17
(lp1877
sg19
(lp1878
sg21
I0
sba(iArchitecture
Entity
p1879
(dp1880
g11
(lp1881
sg13
S'com.android.server.hdmi.SetArcTransmissionStateAction'
p1882
sg15
(lp1883
sg17
(lp1884
sg19
(lp1885
sg21
I0
sba(iArchitecture
Entity
p1886
(dp1887
g11
(lp1888
sg13
S'com.android.server.hdmi.SetArcTransmissionStateAction$1'
p1889
sg15
(lp1890
sg17
(lp1891
sg19
(lp1892
sg21
I0
sba(iArchitecture
Entity
p1893
(dp1894
g11
(lp1895
sg13
S'com.android.server.hdmi.SystemAudioAction'
p1896
sg15
(lp1897
sg17
(lp1898
sg19
(lp1899
sg21
I0
sba(iArchitecture
Entity
p1900
(dp1901
g11
(lp1902
sg13
S'com.android.server.hdmi.SystemAudioAction$1'
p1903
sg15
(lp1904
sg17
(lp1905
sg19
(lp1906
sg21
I0
sba(iArchitecture
Entity
p1907
(dp1908
g11
(lp1909
sg13
S'com.android.server.hdmi.SystemAudioAction$2'
p1910
sg15
(lp1911
sg17
(lp1912
sg19
(lp1913
sg21
I0
sba(iArchitecture
Entity
p1914
(dp1915
g11
(lp1916
sg13
S'com.android.server.hdmi.SystemAudioActionFromAvr'
p1917
sg15
(lp1918
sg17
(lp1919
sg19
(lp1920
sg21
I0
sba(iArchitecture
Entity
p1921
(dp1922
g11
(lp1923
sg13
S'com.android.server.hdmi.SystemAudioActionFromTv'
p1924
sg15
(lp1925
sg17
(lp1926
sg19
(lp1927
sg21
I0
sba(iArchitecture
Entity
p1928
(dp1929
g11
(lp1930
sg13
S'com.android.server.hdmi.SystemAudioAutoInitiationAction'
p1931
sg15
(lp1932
sg17
(lp1933
sg19
(lp1934
sg21
I0
sba(iArchitecture
Entity
p1935
(dp1936
g11
(lp1937
sg13
S'com.android.server.hdmi.SystemAudioAutoInitiationAction$1'
p1938
sg15
(lp1939
sg17
(lp1940
sg19
(lp1941
sg21
I0
sba(iArchitecture
Entity
p1942
(dp1943
g11
(lp1944
sg13
S'com.android.server.hdmi.SystemAudioStatusAction'
p1945
sg15
(lp1946
sg17
(lp1947
sg19
(lp1948
sg21
I0
sba(iArchitecture
Entity
p1949
(dp1950
g11
(lp1951
sg13
S'com.android.server.hdmi.SystemAudioStatusAction$1'
p1952
sg15
(lp1953
sg17
(lp1954
sg19
(lp1955
sg21
I0
sba(iArchitecture
Entity
p1956
(dp1957
g11
(lp1958
sg13
S'com.android.server.hdmi.TimerRecordingAction'
p1959
sg15
(lp1960
sg17
(lp1961
sg19
(lp1962
sg21
I0
sba(iArchitecture
Entity
p1963
(dp1964
g11
(lp1965
sg13
S'com.android.server.hdmi.TimerRecordingAction$1'
p1966
sg15
(lp1967
sg17
(lp1968
sg19
(lp1969
sg21
I0
sba(iArchitecture
Entity
p1970
(dp1971
g11
(lp1972
sg13
S'com.android.server.hdmi.UnmodifiableSparseArray'
p1973
sg15
(lp1974
sg17
(lp1975
sg19
(lp1976
sg21
I0
sba(iArchitecture
Entity
p1977
(dp1978
g11
(lp1979
sg13
S'com.android.server.hdmi.UnmodifiableSparseIntArray'
p1980
sg15
(lp1981
sg17
(lp1982
sg19
(lp1983
sg21
I0
sba(iArchitecture
Entity
p1984
(dp1985
g11
(lp1986
sg13
S'com.android.server.hdmi.VolumeControlAction'
p1987
sg15
(lp1988
sg17
(lp1989
sg19
(lp1990
sg21
I0
sbasg22
(lp1991
g1014
ag1021
ag1028
ag1035
ag1042
ag1049
ag1056
ag1063
ag1070
ag1077
ag1084
ag1091
ag1098
ag1105
ag1112
ag1119
ag1126
ag1133
ag1140
ag1147
ag1154
ag1161
ag1168
ag1175
ag1182
ag1189
ag1196
ag1203
ag1210
ag1217
ag1224
ag1231
ag1238
ag1245
ag1252
ag1259
ag1266
ag1273
ag1280
ag1287
ag1294
ag1301
ag1308
ag1315
ag1322
ag1329
ag1336
ag1343
ag1350
ag1357
ag1364
ag1371
ag1378
ag1385
ag1392
ag1399
ag1406
ag1413
ag1420
ag1427
ag1434
ag1441
ag1448
ag1455
ag1462
ag1469
ag1476
ag1483
ag1490
ag1497
ag1504
ag1511
ag1518
ag1525
ag1532
ag1539
ag1546
ag1553
ag1560
ag1567
ag1574
ag1581
ag1588
ag1595
ag1602
ag1609
ag1616
ag1623
ag1630
ag1637
ag1644
ag1651
ag1658
ag1665
ag1672
ag1679
ag1686
ag1693
ag1700
ag1707
ag1714
ag1721
ag1728
ag1735
ag1742
ag1749
ag1756
ag1763
ag1770
ag1777
ag1784
ag1791
ag1798
ag1805
ag1812
ag1819
ag1826
ag1833
ag1840
ag1847
ag1854
ag1861
ag1868
ag1875
ag1882
ag1889
ag1896
ag1903
ag1910
ag1917
ag1924
ag1931
ag1938
ag1945
ag1952
ag1959
ag1966
ag1973
ag1980
ag1987
asg21
I0
sg24
S'com.android.server.hdmi.ss'
p1992
sba(iArchitecture
Cluster
p1993
(dp1994
g7
(lp1995
(iArchitecture
Entity
p1996
(dp1997
g11
(lp1998
sg13
S'com.android.server.hdmi.Constants'
p1999
sg15
(lp2000
sg17
(lp2001
sg19
(lp2002
sg21
I0
sbasg22
(lp2003
g1999
asg21
I0
sg24
S'com.android.server.pm.ss'
p2004
sbasg988
g989
sg22
(lp2005
sg991
I00
sg24
S'7.0.0_r1'
p2006
sba.