(lp0
(iArchitecture
Architecture
p1
(dp2
S'clusters'
p3
(lp4
(iArchitecture
Cluster
p5
(dp6
S'entities'
p7
(lp8
(iArchitecture
Entity
p9
(dp10
S'issue_ids'
p11
(lp12
sS'name'
p13
S'android.content.ComponentCallbacks2'
p14
sS'descs'
p15
(lp16
sS'labels'
p17
(lp18
sS'titles'
p19
(lp20
sS'change'
p21
I0
sba(iArchitecture
Entity
p22
(dp23
g11
(lp24
sg13
S'android.content.Context'
p25
sg15
(lp26
sg17
(lp27
sg19
(lp28
sg21
I0
sba(iArchitecture
Entity
p29
(dp30
g11
(lp31
sg13
S'android.content.ContextWrapper'
p32
sg15
(lp33
sg17
(lp34
sg19
(lp35
sg21
I0
sba(iArchitecture
Entity
p36
(dp37
g11
(lp38
sg13
S'android.content.CursorLoader'
p39
sg15
(lp40
sg17
(lp41
sg19
(lp42
sg21
I0
sba(iArchitecture
Entity
p43
(dp44
g11
(lp45
sg13
S'android.content.DialogInterface$OnShowListener'
p46
sg15
(lp47
sg17
(lp48
sg19
(lp49
sg21
I0
sba(iArchitecture
Entity
p50
(dp51
g11
(lp52
sg13
S'android.content.IIntentSender'
p53
sg15
(lp54
sg17
(lp55
sg19
(lp56
sg21
I0
sba(iArchitecture
Entity
p57
(dp58
g11
(lp59
sg13
S'android.content.IIntentSender$Stub'
p60
sg15
(lp61
sg17
(lp62
sg19
(lp63
sg21
I0
sba(iArchitecture
Entity
p64
(dp65
g11
(lp66
sg13
S'android.content.IIntentSender$Stub$Proxy'
p67
sg15
(lp68
sg17
(lp69
sg19
(lp70
sg21
I0
sba(iArchitecture
Entity
p71
(dp72
g11
(lp73
sg13
S'android.content.IRestrictionsManager'
p74
sg15
(lp75
sg17
(lp76
sg19
(lp77
sg21
I0
sba(iArchitecture
Entity
p78
(dp79
g11
(lp80
sg13
S'android.content.IRestrictionsManager$Stub'
p81
sg15
(lp82
sg17
(lp83
sg19
(lp84
sg21
I0
sba(iArchitecture
Entity
p85
(dp86
g11
(lp87
sg13
S'android.content.IRestrictionsManager$Stub$Proxy'
p88
sg15
(lp89
sg17
(lp90
sg19
(lp91
sg21
I0
sba(iArchitecture
Entity
p92
(dp93
g11
(lp94
sg13
S'android.content.Loader'
p95
sg15
(lp96
sg17
(lp97
sg19
(lp98
sg21
I0
sba(iArchitecture
Entity
p99
(dp100
g11
(lp101
sg13
S'android.content.Loader$ForceLoadContentObserver'
p102
sg15
(lp103
sg17
(lp104
sg19
(lp105
sg21
I0
sba(iArchitecture
Entity
p106
(dp107
g11
(lp108
sg13
S'android.content.Loader$OnLoadCanceledListener'
p109
sg15
(lp110
sg17
(lp111
sg19
(lp112
sg21
I0
sba(iArchitecture
Entity
p113
(dp114
g11
(lp115
sg13
S'android.content.Loader$OnLoadCompleteListener'
p116
sg15
(lp117
sg17
(lp118
sg19
(lp119
sg21
I0
sba(iArchitecture
Entity
p120
(dp121
g11
(lp122
sg13
S'android.content.MutableContextWrapper'
p123
sg15
(lp124
sg17
(lp125
sg19
(lp126
sg21
I0
sba(iArchitecture
Entity
p127
(dp128
g11
(lp129
sg13
S'android.content.ReceiverCallNotAllowedException'
p130
sg15
(lp131
sg17
(lp132
sg19
(lp133
sg21
I0
sba(iArchitecture
Entity
p134
(dp135
g11
(lp136
sg13
S'android.content.RestrictionsManager'
p137
sg15
(lp138
sg17
(lp139
sg19
(lp140
sg21
I0
sba(iArchitecture
Entity
p141
(dp142
g11
(lp143
sg13
S'android.content.SharedPreferences$OnSharedPreferenceChangeListener'
p144
sg15
(lp145
sg17
(lp146
sg19
(lp147
sg21
I0
sba(iArchitecture
Entity
p148
(dp149
g11
(lp150
sg13
S'android.content.pm.ILauncherApps'
p151
sg15
(lp152
sg17
(lp153
sg19
(lp154
sg21
I0
sba(iArchitecture
Entity
p155
(dp156
g11
(lp157
sg13
S'android.content.pm.ILauncherApps$Stub'
p158
sg15
(lp159
sg17
(lp160
sg19
(lp161
sg21
I0
sba(iArchitecture
Entity
p162
(dp163
g11
(lp164
sg13
S'android.content.pm.ILauncherApps$Stub$Proxy'
p165
sg15
(lp166
sg17
(lp167
sg19
(lp168
sg21
I0
sba(iArchitecture
Entity
p169
(dp170
g11
(lp171
sg13
S'android.content.pm.IOnAppsChangedListener'
p172
sg15
(lp173
sg17
(lp174
sg19
(lp175
sg21
I0
sba(iArchitecture
Entity
p176
(dp177
g11
(lp178
sg13
S'android.content.pm.IOnAppsChangedListener$Stub'
p179
sg15
(lp180
sg17
(lp181
sg19
(lp182
sg21
I0
sba(iArchitecture
Entity
p183
(dp184
g11
(lp185
sg13
S'android.content.pm.IOnAppsChangedListener$Stub$Proxy'
p186
sg15
(lp187
sg17
(lp188
sg19
(lp189
sg21
I0
sba(iArchitecture
Entity
p190
(dp191
g11
(lp192
sg13
S'android.content.pm.IPackageDeleteObserver2$Stub'
p193
sg15
(lp194
sg17
(lp195
sg19
(lp196
sg21
I0
sba(iArchitecture
Entity
p197
(dp198
g11
(lp199
sg13
S'android.content.pm.PackageManager$MoveCallback'
p200
sg15
(lp201
sg17
(lp202
sg19
(lp203
sg21
I0
sba(iArchitecture
Entity
p204
(dp205
g11
(lp206
sg13
S'android.content.res.AssetManager$AssetInputStream'
p207
sg15
(lp208
sg17
(lp209
sg19
(lp210
sg21
I0
sba(iArchitecture
Entity
p211
(dp212
g11
(lp213
sg13
S'android.content.res.ResourcesKey'
p214
sg15
(lp215
sg17
(lp216
sg19
(lp217
sg21
I0
sbasS'classes'
p218
(lp219
g14
ag25
ag32
ag39
ag46
ag53
ag60
ag67
ag74
ag81
ag88
ag95
ag102
ag109
ag116
ag123
ag130
ag137
ag144
ag151
ag158
ag165
ag172
ag179
ag186
ag193
ag200
ag207
ag214
asg21
I0
sS'label'
p220
S'android.app.ss'
p221
sba(iArchitecture
Cluster
p222
(dp223
g7
(lp224
(iArchitecture
Entity
p225
(dp226
g11
(lp227
sg13
S'android.content.pm.ActivityInfo'
p228
sg15
(lp229
sg17
(lp230
sg19
(lp231
sg21
I0
sba(iArchitecture
Entity
p232
(dp233
g11
(lp234
sg13
S'android.content.pm.ActivityInfo$1'
p235
sg15
(lp236
sg17
(lp237
sg19
(lp238
sg21
I0
sba(iArchitecture
Entity
p239
(dp240
g11
(lp241
sg13
S'android.content.pm.ApplicationInfo'
p242
sg15
(lp243
sg17
(lp244
sg19
(lp245
sg21
I0
sba(iArchitecture
Entity
p246
(dp247
g11
(lp248
sg13
S'android.content.pm.ApplicationInfo$1'
p249
sg15
(lp250
sg17
(lp251
sg19
(lp252
sg21
I0
sba(iArchitecture
Entity
p253
(dp254
g11
(lp255
sg13
S'android.content.pm.ApplicationInfo$DisplayNameComparator'
p256
sg15
(lp257
sg17
(lp258
sg19
(lp259
sg21
I0
sba(iArchitecture
Entity
p260
(dp261
g11
(lp262
sg13
S'android.content.pm.ConfigurationInfo'
p263
sg15
(lp264
sg17
(lp265
sg19
(lp266
sg21
I0
sba(iArchitecture
Entity
p267
(dp268
g11
(lp269
sg13
S'android.content.pm.ConfigurationInfo$1'
p270
sg15
(lp271
sg17
(lp272
sg19
(lp273
sg21
I0
sba(iArchitecture
Entity
p274
(dp275
g11
(lp276
sg13
S'android.content.pm.ContainerEncryptionParams'
p277
sg15
(lp278
sg17
(lp279
sg19
(lp280
sg21
I0
sba(iArchitecture
Entity
p281
(dp282
g11
(lp283
sg13
S'android.content.pm.ContainerEncryptionParams$1'
p284
sg15
(lp285
sg17
(lp286
sg19
(lp287
sg21
I0
sba(iArchitecture
Entity
p288
(dp289
g11
(lp290
sg13
S'android.content.pm.FeatureGroupInfo'
p291
sg15
(lp292
sg17
(lp293
sg19
(lp294
sg21
I0
sba(iArchitecture
Entity
p295
(dp296
g11
(lp297
sg13
S'android.content.pm.FeatureGroupInfo$1'
p298
sg15
(lp299
sg17
(lp300
sg19
(lp301
sg21
I0
sba(iArchitecture
Entity
p302
(dp303
g11
(lp304
sg13
S'android.content.pm.FeatureInfo'
p305
sg15
(lp306
sg17
(lp307
sg19
(lp308
sg21
I0
sba(iArchitecture
Entity
p309
(dp310
g11
(lp311
sg13
S'android.content.pm.FeatureInfo$1'
p312
sg15
(lp313
sg17
(lp314
sg19
(lp315
sg21
I0
sba(iArchitecture
Entity
p316
(dp317
g11
(lp318
sg13
S'android.content.pm.IPackageInstallObserver'
p319
sg15
(lp320
sg17
(lp321
sg19
(lp322
sg21
I0
sba(iArchitecture
Entity
p323
(dp324
g11
(lp325
sg13
S'android.content.pm.IPackageInstallObserver$Stub'
p326
sg15
(lp327
sg17
(lp328
sg19
(lp329
sg21
I0
sba(iArchitecture
Entity
p330
(dp331
g11
(lp332
sg13
S'android.content.pm.IPackageInstallObserver$Stub$Proxy'
p333
sg15
(lp334
sg17
(lp335
sg19
(lp336
sg21
I0
sba(iArchitecture
Entity
p337
(dp338
g11
(lp339
sg13
S'android.content.pm.InstrumentationInfo'
p340
sg15
(lp341
sg17
(lp342
sg19
(lp343
sg21
I0
sba(iArchitecture
Entity
p344
(dp345
g11
(lp346
sg13
S'android.content.pm.InstrumentationInfo$1'
p347
sg15
(lp348
sg17
(lp349
sg19
(lp350
sg21
I0
sba(iArchitecture
Entity
p351
(dp352
g11
(lp353
sg13
S'android.content.pm.IntentFilterVerificationInfo'
p354
sg15
(lp355
sg17
(lp356
sg19
(lp357
sg21
I0
sba(iArchitecture
Entity
p358
(dp359
g11
(lp360
sg13
S'android.content.pm.IntentFilterVerificationInfo$1'
p361
sg15
(lp362
sg17
(lp363
sg19
(lp364
sg21
I0
sba(iArchitecture
Entity
p365
(dp366
g11
(lp367
sg13
S'android.content.pm.KeySet'
p368
sg15
(lp369
sg17
(lp370
sg19
(lp371
sg21
I0
sba(iArchitecture
Entity
p372
(dp373
g11
(lp374
sg13
S'android.content.pm.KeySet$1'
p375
sg15
(lp376
sg17
(lp377
sg19
(lp378
sg21
I0
sba(iArchitecture
Entity
p379
(dp380
g11
(lp381
sg13
S'android.content.pm.LabeledIntent'
p382
sg15
(lp383
sg17
(lp384
sg19
(lp385
sg21
I0
sba(iArchitecture
Entity
p386
(dp387
g11
(lp388
sg13
S'android.content.pm.LabeledIntent$1'
p389
sg15
(lp390
sg17
(lp391
sg19
(lp392
sg21
I0
sba(iArchitecture
Entity
p393
(dp394
g11
(lp395
sg13
S'android.content.pm.LauncherActivityInfo'
p396
sg15
(lp397
sg17
(lp398
sg19
(lp399
sg21
I0
sba(iArchitecture
Entity
p400
(dp401
g11
(lp402
sg13
S'android.content.pm.LauncherApps'
p403
sg15
(lp404
sg17
(lp405
sg19
(lp406
sg21
I0
sba(iArchitecture
Entity
p407
(dp408
g11
(lp409
sg13
S'android.content.pm.LauncherApps$1'
p410
sg15
(lp411
sg17
(lp412
sg19
(lp413
sg21
I0
sba(iArchitecture
Entity
p414
(dp415
g11
(lp416
sg13
S'android.content.pm.LauncherApps$Callback'
p417
sg15
(lp418
sg17
(lp419
sg19
(lp420
sg21
I0
sba(iArchitecture
Entity
p421
(dp422
g11
(lp423
sg13
S'android.content.pm.LauncherApps$CallbackMessageHandler'
p424
sg15
(lp425
sg17
(lp426
sg19
(lp427
sg21
I0
sba(iArchitecture
Entity
p428
(dp429
g11
(lp430
sg13
S'android.content.pm.LauncherApps$CallbackMessageHandler$CallbackInfo'
p431
sg15
(lp432
sg17
(lp433
sg19
(lp434
sg21
I0
sba(iArchitecture
Entity
p435
(dp436
g11
(lp437
sg13
S'android.content.pm.ManifestDigest'
p438
sg15
(lp439
sg17
(lp440
sg19
(lp441
sg21
I0
sba(iArchitecture
Entity
p442
(dp443
g11
(lp444
sg13
S'android.content.pm.ManifestDigest$1'
p445
sg15
(lp446
sg17
(lp447
sg19
(lp448
sg21
I0
sba(iArchitecture
Entity
p449
(dp450
g11
(lp451
sg13
S'android.content.pm.PackageCleanItem'
p452
sg15
(lp453
sg17
(lp454
sg19
(lp455
sg21
I0
sba(iArchitecture
Entity
p456
(dp457
g11
(lp458
sg13
S'android.content.pm.PackageCleanItem$1'
p459
sg15
(lp460
sg17
(lp461
sg19
(lp462
sg21
I0
sba(iArchitecture
Entity
p463
(dp464
g11
(lp465
sg13
S'android.content.pm.PackageInfo'
p466
sg15
(lp467
sg17
(lp468
sg19
(lp469
sg21
I0
sba(iArchitecture
Entity
p470
(dp471
g11
(lp472
sg13
S'android.content.pm.PackageInfo$1'
p473
sg15
(lp474
sg17
(lp475
sg19
(lp476
sg21
I0
sba(iArchitecture
Entity
p477
(dp478
g11
(lp479
sg13
S'android.content.pm.PackageInfoLite'
p480
sg15
(lp481
sg17
(lp482
sg19
(lp483
sg21
I0
sba(iArchitecture
Entity
p484
(dp485
g11
(lp486
sg13
S'android.content.pm.PackageInfoLite$1'
p487
sg15
(lp488
sg17
(lp489
sg19
(lp490
sg21
I0
sba(iArchitecture
Entity
p491
(dp492
g11
(lp493
sg13
S'android.content.pm.PackageInstaller'
p494
sg15
(lp495
sg17
(lp496
sg19
(lp497
sg21
I0
sba(iArchitecture
Entity
p498
(dp499
g11
(lp500
sg13
S'android.content.pm.PackageInstaller$Session'
p501
sg15
(lp502
sg17
(lp503
sg19
(lp504
sg21
I0
sba(iArchitecture
Entity
p505
(dp506
g11
(lp507
sg13
S'android.content.pm.PackageInstaller$SessionCallback'
p508
sg15
(lp509
sg17
(lp510
sg19
(lp511
sg21
I0
sba(iArchitecture
Entity
p512
(dp513
g11
(lp514
sg13
S'android.content.pm.PackageInstaller$SessionCallbackDelegate'
p515
sg15
(lp516
sg17
(lp517
sg19
(lp518
sg21
I0
sba(iArchitecture
Entity
p519
(dp520
g11
(lp521
sg13
S'android.content.pm.PackageItemInfo'
p522
sg15
(lp523
sg17
(lp524
sg19
(lp525
sg21
I0
sba(iArchitecture
Entity
p526
(dp527
g11
(lp528
sg13
S'android.content.pm.PackageItemInfo$DisplayNameComparator'
p529
sg15
(lp530
sg17
(lp531
sg19
(lp532
sg21
I0
sba(iArchitecture
Entity
p533
(dp534
g11
(lp535
sg13
S'android.content.pm.PackageParser'
p536
sg15
(lp537
sg17
(lp538
sg19
(lp539
sg21
I0
sba(iArchitecture
Entity
p540
(dp541
g11
(lp542
sg13
S'android.content.pm.PackageParser$SplitNameComparator'
p543
sg15
(lp544
sg17
(lp545
sg19
(lp546
sg21
I0
sba(iArchitecture
Entity
p547
(dp548
g11
(lp549
sg13
S'android.content.pm.PackageParser$SplitPermissionInfo'
p550
sg15
(lp551
sg17
(lp552
sg19
(lp553
sg21
I0
sba(iArchitecture
Entity
p554
(dp555
g11
(lp556
sg13
S'android.content.pm.PackageStats'
p557
sg15
(lp558
sg17
(lp559
sg19
(lp560
sg21
I0
sba(iArchitecture
Entity
p561
(dp562
g11
(lp563
sg13
S'android.content.pm.PackageStats$1'
p564
sg15
(lp565
sg17
(lp566
sg19
(lp567
sg21
I0
sba(iArchitecture
Entity
p568
(dp569
g11
(lp570
sg13
S'android.content.pm.ParceledListSlice'
p571
sg15
(lp572
sg17
(lp573
sg19
(lp574
sg21
I0
sba(iArchitecture
Entity
p575
(dp576
g11
(lp577
sg13
S'android.content.pm.ParceledListSlice$1'
p578
sg15
(lp579
sg17
(lp580
sg19
(lp581
sg21
I0
sba(iArchitecture
Entity
p582
(dp583
g11
(lp584
sg13
S'android.content.pm.ParceledListSlice$2'
p585
sg15
(lp586
sg17
(lp587
sg19
(lp588
sg21
I0
sba(iArchitecture
Entity
p589
(dp590
g11
(lp591
sg13
S'android.content.pm.PathPermission'
p592
sg15
(lp593
sg17
(lp594
sg19
(lp595
sg21
I0
sba(iArchitecture
Entity
p596
(dp597
g11
(lp598
sg13
S'android.content.pm.PathPermission$1'
p599
sg15
(lp600
sg17
(lp601
sg19
(lp602
sg21
I0
sba(iArchitecture
Entity
p603
(dp604
g11
(lp605
sg13
S'android.content.pm.PermissionGroupInfo'
p606
sg15
(lp607
sg17
(lp608
sg19
(lp609
sg21
I0
sba(iArchitecture
Entity
p610
(dp611
g11
(lp612
sg13
S'android.content.pm.PermissionGroupInfo$1'
p613
sg15
(lp614
sg17
(lp615
sg19
(lp616
sg21
I0
sba(iArchitecture
Entity
p617
(dp618
g11
(lp619
sg13
S'android.content.pm.PermissionInfo'
p620
sg15
(lp621
sg17
(lp622
sg19
(lp623
sg21
I0
sba(iArchitecture
Entity
p624
(dp625
g11
(lp626
sg13
S'android.content.pm.PermissionInfo$1'
p627
sg15
(lp628
sg17
(lp629
sg19
(lp630
sg21
I0
sba(iArchitecture
Entity
p631
(dp632
g11
(lp633
sg13
S'android.content.pm.ProviderInfo'
p634
sg15
(lp635
sg17
(lp636
sg19
(lp637
sg21
I0
sba(iArchitecture
Entity
p638
(dp639
g11
(lp640
sg13
S'android.content.pm.ProviderInfo$1'
p641
sg15
(lp642
sg17
(lp643
sg19
(lp644
sg21
I0
sba(iArchitecture
Entity
p645
(dp646
g11
(lp647
sg13
S'android.content.pm.RegisteredServicesCache'
p648
sg15
(lp649
sg17
(lp650
sg19
(lp651
sg21
I0
sba(iArchitecture
Entity
p652
(dp653
g11
(lp654
sg13
S'android.content.pm.RegisteredServicesCache$1'
p655
sg15
(lp656
sg17
(lp657
sg19
(lp658
sg21
I0
sba(iArchitecture
Entity
p659
(dp660
g11
(lp661
sg13
S'android.content.pm.RegisteredServicesCache$2'
p662
sg15
(lp663
sg17
(lp664
sg19
(lp665
sg21
I0
sba(iArchitecture
Entity
p666
(dp667
g11
(lp668
sg13
S'android.content.pm.RegisteredServicesCache$3'
p669
sg15
(lp670
sg17
(lp671
sg19
(lp672
sg21
I0
sba(iArchitecture
Entity
p673
(dp674
g11
(lp675
sg13
S'android.content.pm.RegisteredServicesCache$4'
p676
sg15
(lp677
sg17
(lp678
sg19
(lp679
sg21
I0
sba(iArchitecture
Entity
p680
(dp681
g11
(lp682
sg13
S'android.content.pm.RegisteredServicesCache$UserServices'
p683
sg15
(lp684
sg17
(lp685
sg19
(lp686
sg21
I0
sba(iArchitecture
Entity
p687
(dp688
g11
(lp689
sg13
S'android.content.pm.ResolveInfo'
p690
sg15
(lp691
sg17
(lp692
sg19
(lp693
sg21
I0
sba(iArchitecture
Entity
p694
(dp695
g11
(lp696
sg13
S'android.content.pm.ResolveInfo$1'
p697
sg15
(lp698
sg17
(lp699
sg19
(lp700
sg21
I0
sba(iArchitecture
Entity
p701
(dp702
g11
(lp703
sg13
S'android.content.pm.ResolveInfo$DisplayNameComparator'
p704
sg15
(lp705
sg17
(lp706
sg19
(lp707
sg21
I0
sba(iArchitecture
Entity
p708
(dp709
g11
(lp710
sg13
S'android.content.pm.ServiceInfo'
p711
sg15
(lp712
sg17
(lp713
sg19
(lp714
sg21
I0
sba(iArchitecture
Entity
p715
(dp716
g11
(lp717
sg13
S'android.content.pm.ServiceInfo$1'
p718
sg15
(lp719
sg17
(lp720
sg19
(lp721
sg21
I0
sba(iArchitecture
Entity
p722
(dp723
g11
(lp724
sg13
S'android.content.pm.Signature'
p725
sg15
(lp726
sg17
(lp727
sg19
(lp728
sg21
I0
sba(iArchitecture
Entity
p729
(dp730
g11
(lp731
sg13
S'android.content.pm.Signature$1'
p732
sg15
(lp733
sg17
(lp734
sg19
(lp735
sg21
I0
sba(iArchitecture
Entity
p736
(dp737
g11
(lp738
sg13
S'android.content.pm.UserInfo'
p739
sg15
(lp740
sg17
(lp741
sg19
(lp742
sg21
I0
sba(iArchitecture
Entity
p743
(dp744
g11
(lp745
sg13
S'android.content.pm.UserInfo$1'
p746
sg15
(lp747
sg17
(lp748
sg19
(lp749
sg21
I0
sba(iArchitecture
Entity
p750
(dp751
g11
(lp752
sg13
S'android.content.pm.VerificationParams'
p753
sg15
(lp754
sg17
(lp755
sg19
(lp756
sg21
I0
sba(iArchitecture
Entity
p757
(dp758
g11
(lp759
sg13
S'android.content.pm.VerificationParams$1'
p760
sg15
(lp761
sg17
(lp762
sg19
(lp763
sg21
I0
sba(iArchitecture
Entity
p764
(dp765
g11
(lp766
sg13
S'android.content.pm.VerifierDeviceIdentity'
p767
sg15
(lp768
sg17
(lp769
sg19
(lp770
sg21
I0
sba(iArchitecture
Entity
p771
(dp772
g11
(lp773
sg13
S'android.content.pm.VerifierDeviceIdentity$1'
p774
sg15
(lp775
sg17
(lp776
sg19
(lp777
sg21
I0
sba(iArchitecture
Entity
p778
(dp779
g11
(lp780
sg13
S'android.content.pm.VerifierInfo'
p781
sg15
(lp782
sg17
(lp783
sg19
(lp784
sg21
I0
sba(iArchitecture
Entity
p785
(dp786
g11
(lp787
sg13
S'android.content.pm.VerifierInfo$1'
p788
sg15
(lp789
sg17
(lp790
sg19
(lp791
sg21
I0
sbasg218
(lp792
g228
ag235
ag242
ag249
ag256
ag263
ag270
ag277
ag284
ag291
ag298
ag305
ag312
ag319
ag326
ag333
ag340
ag347
ag354
ag361
ag368
ag375
ag382
ag389
ag396
ag403
ag410
ag417
ag424
ag431
ag438
ag445
ag452
ag459
ag466
ag473
ag480
ag487
ag494
ag501
ag508
ag515
ag522
ag529
ag536
ag543
ag550
ag557
ag564
ag571
ag578
ag585
ag592
ag599
ag606
ag613
ag620
ag627
ag634
ag641
ag648
ag655
ag662
ag669
ag676
ag683
ag690
ag697
ag704
ag711
ag718
ag725
ag732
ag739
ag746
ag753
ag760
ag767
ag774
ag781
ag788
asg21
I0
sg220
S'android.content.pm.ss'
p793
sba(iArchitecture
Cluster
p794
(dp795
g7
(lp796
(iArchitecture
Entity
p797
(dp798
g11
(lp799
sg13
S'android.content.res.AssetFileDescriptor'
p800
sg15
(lp801
sg17
(lp802
sg19
(lp803
sg21
I0
sba(iArchitecture
Entity
p804
(dp805
g11
(lp806
sg13
S'android.content.res.AssetFileDescriptor$1'
p807
sg15
(lp808
sg17
(lp809
sg19
(lp810
sg21
I0
sba(iArchitecture
Entity
p811
(dp812
g11
(lp813
sg13
S'android.content.res.AssetFileDescriptor$AutoCloseInputStream'
p814
sg15
(lp815
sg17
(lp816
sg19
(lp817
sg21
I0
sba(iArchitecture
Entity
p818
(dp819
g11
(lp820
sg13
S'android.content.res.AssetFileDescriptor$AutoCloseOutputStream'
p821
sg15
(lp822
sg17
(lp823
sg19
(lp824
sg21
I0
sba(iArchitecture
Entity
p825
(dp826
g11
(lp827
sg13
S'android.content.res.ColorStateList'
p828
sg15
(lp829
sg17
(lp830
sg19
(lp831
sg21
I0
sba(iArchitecture
Entity
p832
(dp833
g11
(lp834
sg13
S'android.content.res.ColorStateList$1'
p835
sg15
(lp836
sg17
(lp837
sg19
(lp838
sg21
I0
sba(iArchitecture
Entity
p839
(dp840
g11
(lp841
sg13
S'android.content.res.ColorStateList$ColorStateListFactory'
p842
sg15
(lp843
sg17
(lp844
sg19
(lp845
sg21
I0
sba(iArchitecture
Entity
p846
(dp847
g11
(lp848
sg13
S'android.content.res.CompatibilityInfo'
p849
sg15
(lp850
sg17
(lp851
sg19
(lp852
sg21
I0
sba(iArchitecture
Entity
p853
(dp854
g11
(lp855
sg13
S'android.content.res.CompatibilityInfo$1'
p856
sg15
(lp857
sg17
(lp858
sg19
(lp859
sg21
I0
sba(iArchitecture
Entity
p860
(dp861
g11
(lp862
sg13
S'android.content.res.CompatibilityInfo$2'
p863
sg15
(lp864
sg17
(lp865
sg19
(lp866
sg21
I0
sba(iArchitecture
Entity
p867
(dp868
g11
(lp869
sg13
S'android.content.res.Configuration'
p870
sg15
(lp871
sg17
(lp872
sg19
(lp873
sg21
I0
sba(iArchitecture
Entity
p874
(dp875
g11
(lp876
sg13
S'android.content.res.Configuration$1'
p877
sg15
(lp878
sg17
(lp879
sg19
(lp880
sg21
I0
sba(iArchitecture
Entity
p881
(dp882
g11
(lp883
sg13
S'android.content.res.ConfigurationBoundResourceCache'
p884
sg15
(lp885
sg17
(lp886
sg19
(lp887
sg21
I0
sba(iArchitecture
Entity
p888
(dp889
g11
(lp890
sg13
S'android.content.res.ConstantState'
p891
sg15
(lp892
sg17
(lp893
sg19
(lp894
sg21
I0
sba(iArchitecture
Entity
p895
(dp896
g11
(lp897
sg13
S'android.content.res.DrawableCache'
p898
sg15
(lp899
sg17
(lp900
sg19
(lp901
sg21
I0
sba(iArchitecture
Entity
p902
(dp903
g11
(lp904
sg13
S'android.content.res.ObbInfo'
p905
sg15
(lp906
sg17
(lp907
sg19
(lp908
sg21
I0
sba(iArchitecture
Entity
p909
(dp910
g11
(lp911
sg13
S'android.content.res.ObbInfo$1'
p912
sg15
(lp913
sg17
(lp914
sg19
(lp915
sg21
I0
sba(iArchitecture
Entity
p916
(dp917
g11
(lp918
sg13
S'android.content.res.Resources'
p919
sg15
(lp920
sg17
(lp921
sg19
(lp922
sg21
I0
sba(iArchitecture
Entity
p923
(dp924
g11
(lp925
sg13
S'android.content.res.Resources$ThemeKey'
p926
sg15
(lp927
sg17
(lp928
sg19
(lp929
sg21
I0
sba(iArchitecture
Entity
p930
(dp931
g11
(lp932
sg13
S'android.content.res.StringBlock'
p933
sg15
(lp934
sg17
(lp935
sg19
(lp936
sg21
I0
sba(iArchitecture
Entity
p937
(dp938
g11
(lp939
sg13
S'android.content.res.StringBlock$Height'
p940
sg15
(lp941
sg17
(lp942
sg19
(lp943
sg21
I0
sba(iArchitecture
Entity
p944
(dp945
g11
(lp946
sg13
S'android.content.res.StringBlock$StyleIDs'
p947
sg15
(lp948
sg17
(lp949
sg19
(lp950
sg21
I0
sba(iArchitecture
Entity
p951
(dp952
g11
(lp953
sg13
S'android.content.res.ThemedResourceCache'
p954
sg15
(lp955
sg17
(lp956
sg19
(lp957
sg21
I0
sba(iArchitecture
Entity
p958
(dp959
g11
(lp960
sg13
S'android.content.res.XmlBlock'
p961
sg15
(lp962
sg17
(lp963
sg19
(lp964
sg21
I0
sba(iArchitecture
Entity
p965
(dp966
g11
(lp967
sg13
S'android.content.res.XmlBlock$Parser'
p968
sg15
(lp969
sg17
(lp970
sg19
(lp971
sg21
I0
sbasg218
(lp972
g800
ag807
ag814
ag821
ag828
ag835
ag842
ag849
ag856
ag863
ag870
ag877
ag884
ag891
ag898
ag905
ag912
ag919
ag926
ag933
ag940
ag947
ag954
ag961
ag968
asg21
I0
sg220
S'android.content.res.ss'
p973
sba(iArchitecture
Cluster
p974
(dp975
g7
(lp976
(iArchitecture
Entity
p977
(dp978
g11
(lp979
sg13
S'android.content.AbstractThreadedSyncAdapter'
p980
sg15
(lp981
sg17
(lp982
sg19
(lp983
sg21
I0
sba(iArchitecture
Entity
p984
(dp985
g11
(lp986
sg13
S'android.content.AbstractThreadedSyncAdapter$ISyncAdapterImpl'
p987
sg15
(lp988
sg17
(lp989
sg19
(lp990
sg21
I0
sba(iArchitecture
Entity
p991
(dp992
g11
(lp993
sg13
S'android.content.AbstractThreadedSyncAdapter$SyncThread'
p994
sg15
(lp995
sg17
(lp996
sg19
(lp997
sg21
I0
sba(iArchitecture
Entity
p998
(dp999
g11
(lp1000
sg13
S'android.content.AsyncTaskLoader'
p1001
sg15
(lp1002
sg17
(lp1003
sg19
(lp1004
sg21
I0
sba(iArchitecture
Entity
p1005
(dp1006
g11
(lp1007
sg13
S'android.content.AsyncTaskLoader$LoadTask'
p1008
sg15
(lp1009
sg17
(lp1010
sg19
(lp1011
sg21
I0
sba(iArchitecture
Entity
p1012
(dp1013
g11
(lp1014
sg13
S'android.content.ClipData'
p1015
sg15
(lp1016
sg17
(lp1017
sg19
(lp1018
sg21
I0
sba(iArchitecture
Entity
p1019
(dp1020
g11
(lp1021
sg13
S'android.content.ClipData$1'
p1022
sg15
(lp1023
sg17
(lp1024
sg19
(lp1025
sg21
I0
sba(iArchitecture
Entity
p1026
(dp1027
g11
(lp1028
sg13
S'android.content.ClipDescription'
p1029
sg15
(lp1030
sg17
(lp1031
sg19
(lp1032
sg21
I0
sba(iArchitecture
Entity
p1033
(dp1034
g11
(lp1035
sg13
S'android.content.ClipDescription$1'
p1036
sg15
(lp1037
sg17
(lp1038
sg19
(lp1039
sg21
I0
sba(iArchitecture
Entity
p1040
(dp1041
g11
(lp1042
sg13
S'android.content.ClipboardManager'
p1043
sg15
(lp1044
sg17
(lp1045
sg19
(lp1046
sg21
I0
sba(iArchitecture
Entity
p1047
(dp1048
g11
(lp1049
sg13
S'android.content.ClipboardManager$1'
p1050
sg15
(lp1051
sg17
(lp1052
sg19
(lp1053
sg21
I0
sba(iArchitecture
Entity
p1054
(dp1055
g11
(lp1056
sg13
S'android.content.ClipboardManager$2'
p1057
sg15
(lp1058
sg17
(lp1059
sg19
(lp1060
sg21
I0
sba(iArchitecture
Entity
p1061
(dp1062
g11
(lp1063
sg13
S'android.content.ClipboardManager$OnPrimaryClipChangedListener'
p1064
sg15
(lp1065
sg17
(lp1066
sg19
(lp1067
sg21
I0
sba(iArchitecture
Entity
p1068
(dp1069
g11
(lp1070
sg13
S'android.content.ComponentName'
p1071
sg15
(lp1072
sg17
(lp1073
sg19
(lp1074
sg21
I0
sba(iArchitecture
Entity
p1075
(dp1076
g11
(lp1077
sg13
S'android.content.ComponentName$1'
p1078
sg15
(lp1079
sg17
(lp1080
sg19
(lp1081
sg21
I0
sba(iArchitecture
Entity
p1082
(dp1083
g11
(lp1084
sg13
S'android.content.ContentInsertHandler'
p1085
sg15
(lp1086
sg17
(lp1087
sg19
(lp1088
sg21
I0
sba(iArchitecture
Entity
p1089
(dp1090
g11
(lp1091
sg13
S'android.content.ContentProvider'
p1092
sg15
(lp1093
sg17
(lp1094
sg19
(lp1095
sg21
I0
sba(iArchitecture
Entity
p1096
(dp1097
g11
(lp1098
sg13
S'android.content.ContentProvider$1'
p1099
sg15
(lp1100
sg17
(lp1101
sg19
(lp1102
sg21
I0
sba(iArchitecture
Entity
p1103
(dp1104
g11
(lp1105
sg13
S'android.content.ContentProvider$PipeDataWriter'
p1106
sg15
(lp1107
sg17
(lp1108
sg19
(lp1109
sg21
I0
sba(iArchitecture
Entity
p1110
(dp1111
g11
(lp1112
sg13
S'android.content.ContentProvider$Transport'
p1113
sg15
(lp1114
sg17
(lp1115
sg19
(lp1116
sg21
I0
sba(iArchitecture
Entity
p1117
(dp1118
g11
(lp1119
sg13
S'android.content.ContentProviderClient'
p1120
sg15
(lp1121
sg17
(lp1122
sg19
(lp1123
sg21
I0
sba(iArchitecture
Entity
p1124
(dp1125
g11
(lp1126
sg13
S'android.content.ContentProviderClient$NotRespondingRunnable'
p1127
sg15
(lp1128
sg17
(lp1129
sg19
(lp1130
sg21
I0
sba(iArchitecture
Entity
p1131
(dp1132
g11
(lp1133
sg13
S'android.content.ContentProviderNative'
p1134
sg15
(lp1135
sg17
(lp1136
sg19
(lp1137
sg21
I0
sba(iArchitecture
Entity
p1138
(dp1139
g11
(lp1140
sg13
S'android.content.ContentProviderOperation'
p1141
sg15
(lp1142
sg17
(lp1143
sg19
(lp1144
sg21
I0
sba(iArchitecture
Entity
p1145
(dp1146
g11
(lp1147
sg13
S'android.content.ContentProviderOperation$1'
p1148
sg15
(lp1149
sg17
(lp1150
sg19
(lp1151
sg21
I0
sba(iArchitecture
Entity
p1152
(dp1153
g11
(lp1154
sg13
S'android.content.ContentProviderProxy'
p1155
sg15
(lp1156
sg17
(lp1157
sg19
(lp1158
sg21
I0
sba(iArchitecture
Entity
p1159
(dp1160
g11
(lp1161
sg13
S'android.content.ContentProviderResult'
p1162
sg15
(lp1163
sg17
(lp1164
sg19
(lp1165
sg21
I0
sba(iArchitecture
Entity
p1166
(dp1167
g11
(lp1168
sg13
S'android.content.ContentProviderResult$1'
p1169
sg15
(lp1170
sg17
(lp1171
sg19
(lp1172
sg21
I0
sba(iArchitecture
Entity
p1173
(dp1174
g11
(lp1175
sg13
S'android.content.ContentQueryMap'
p1176
sg15
(lp1177
sg17
(lp1178
sg19
(lp1179
sg21
I0
sba(iArchitecture
Entity
p1180
(dp1181
g11
(lp1182
sg13
S'android.content.ContentQueryMap$1'
p1183
sg15
(lp1184
sg17
(lp1185
sg19
(lp1186
sg21
I0
sba(iArchitecture
Entity
p1187
(dp1188
g11
(lp1189
sg13
S'android.content.ContentResolver'
p1190
sg15
(lp1191
sg17
(lp1192
sg19
(lp1193
sg21
I0
sba(iArchitecture
Entity
p1194
(dp1195
g11
(lp1196
sg13
S'android.content.ContentResolver$1'
p1197
sg15
(lp1198
sg17
(lp1199
sg19
(lp1200
sg21
I0
sba(iArchitecture
Entity
p1201
(dp1202
g11
(lp1203
sg13
S'android.content.ContentResolver$CursorWrapperInner'
p1204
sg15
(lp1205
sg17
(lp1206
sg19
(lp1207
sg21
I0
sba(iArchitecture
Entity
p1208
(dp1209
g11
(lp1210
sg13
S'android.content.ContentResolver$ParcelFileDescriptorInner'
p1211
sg15
(lp1212
sg17
(lp1213
sg19
(lp1214
sg21
I0
sba(iArchitecture
Entity
p1215
(dp1216
g11
(lp1217
sg13
S'android.content.ContentValues'
p1218
sg15
(lp1219
sg17
(lp1220
sg19
(lp1221
sg21
I0
sba(iArchitecture
Entity
p1222
(dp1223
g11
(lp1224
sg13
S'android.content.ContentValues$1'
p1225
sg15
(lp1226
sg17
(lp1227
sg19
(lp1228
sg21
I0
sba(iArchitecture
Entity
p1229
(dp1230
g11
(lp1231
sg13
S'android.content.DefaultDataHandler'
p1232
sg15
(lp1233
sg17
(lp1234
sg19
(lp1235
sg21
I0
sba(iArchitecture
Entity
p1236
(dp1237
g11
(lp1238
sg13
S'android.content.Entity'
p1239
sg15
(lp1240
sg17
(lp1241
sg19
(lp1242
sg21
I0
sba(iArchitecture
Entity
p1243
(dp1244
g11
(lp1245
sg13
S'android.content.Entity$NamedContentValues'
p1246
sg15
(lp1247
sg17
(lp1248
sg19
(lp1249
sg21
I0
sba(iArchitecture
Entity
p1250
(dp1251
g11
(lp1252
sg13
S'android.content.IClipboard'
p1253
sg15
(lp1254
sg17
(lp1255
sg19
(lp1256
sg21
I0
sba(iArchitecture
Entity
p1257
(dp1258
g11
(lp1259
sg13
S'android.content.IClipboard$Stub'
p1260
sg15
(lp1261
sg17
(lp1262
sg19
(lp1263
sg21
I0
sba(iArchitecture
Entity
p1264
(dp1265
g11
(lp1266
sg13
S'android.content.IClipboard$Stub$Proxy'
p1267
sg15
(lp1268
sg17
(lp1269
sg19
(lp1270
sg21
I0
sba(iArchitecture
Entity
p1271
(dp1272
g11
(lp1273
sg13
S'android.content.IContentService'
p1274
sg15
(lp1275
sg17
(lp1276
sg19
(lp1277
sg21
I0
sba(iArchitecture
Entity
p1278
(dp1279
g11
(lp1280
sg13
S'android.content.IContentService$Stub'
p1281
sg15
(lp1282
sg17
(lp1283
sg19
(lp1284
sg21
I0
sba(iArchitecture
Entity
p1285
(dp1286
g11
(lp1287
sg13
S'android.content.IContentService$Stub$Proxy'
p1288
sg15
(lp1289
sg17
(lp1290
sg19
(lp1291
sg21
I0
sba(iArchitecture
Entity
p1292
(dp1293
g11
(lp1294
sg13
S'android.content.IOnPrimaryClipChangedListener'
p1295
sg15
(lp1296
sg17
(lp1297
sg19
(lp1298
sg21
I0
sba(iArchitecture
Entity
p1299
(dp1300
g11
(lp1301
sg13
S'android.content.IOnPrimaryClipChangedListener$Stub'
p1302
sg15
(lp1303
sg17
(lp1304
sg19
(lp1305
sg21
I0
sba(iArchitecture
Entity
p1306
(dp1307
g11
(lp1308
sg13
S'android.content.IOnPrimaryClipChangedListener$Stub$Proxy'
p1309
sg15
(lp1310
sg17
(lp1311
sg19
(lp1312
sg21
I0
sba(iArchitecture
Entity
p1313
(dp1314
g11
(lp1315
sg13
S'android.content.ISyncStatusObserver'
p1316
sg15
(lp1317
sg17
(lp1318
sg19
(lp1319
sg21
I0
sba(iArchitecture
Entity
p1320
(dp1321
g11
(lp1322
sg13
S'android.content.ISyncStatusObserver$Stub'
p1323
sg15
(lp1324
sg17
(lp1325
sg19
(lp1326
sg21
I0
sba(iArchitecture
Entity
p1327
(dp1328
g11
(lp1329
sg13
S'android.content.ISyncStatusObserver$Stub$Proxy'
p1330
sg15
(lp1331
sg17
(lp1332
sg19
(lp1333
sg21
I0
sba(iArchitecture
Entity
p1334
(dp1335
g11
(lp1336
sg13
S'android.content.Intent'
p1337
sg15
(lp1338
sg17
(lp1339
sg19
(lp1340
sg21
I0
sba(iArchitecture
Entity
p1341
(dp1342
g11
(lp1343
sg13
S'android.content.Intent$1'
p1344
sg15
(lp1345
sg17
(lp1346
sg19
(lp1347
sg21
I0
sba(iArchitecture
Entity
p1348
(dp1349
g11
(lp1350
sg13
S'android.content.Intent$ShortcutIconResource'
p1351
sg15
(lp1352
sg17
(lp1353
sg19
(lp1354
sg21
I0
sba(iArchitecture
Entity
p1355
(dp1356
g11
(lp1357
sg13
S'android.content.Intent$ShortcutIconResource$1'
p1358
sg15
(lp1359
sg17
(lp1360
sg19
(lp1361
sg21
I0
sba(iArchitecture
Entity
p1362
(dp1363
g11
(lp1364
sg13
S'android.content.IntentFilter'
p1365
sg15
(lp1366
sg17
(lp1367
sg19
(lp1368
sg21
I0
sba(iArchitecture
Entity
p1369
(dp1370
g11
(lp1371
sg13
S'android.content.IntentFilter$1'
p1372
sg15
(lp1373
sg17
(lp1374
sg19
(lp1375
sg21
I0
sba(iArchitecture
Entity
p1376
(dp1377
g11
(lp1378
sg13
S'android.content.IntentSender'
p1379
sg15
(lp1380
sg17
(lp1381
sg19
(lp1382
sg21
I0
sba(iArchitecture
Entity
p1383
(dp1384
g11
(lp1385
sg13
S'android.content.IntentSender$1'
p1386
sg15
(lp1387
sg17
(lp1388
sg19
(lp1389
sg21
I0
sba(iArchitecture
Entity
p1390
(dp1391
g11
(lp1392
sg13
S'android.content.IntentSender$FinishedDispatcher'
p1393
sg15
(lp1394
sg17
(lp1395
sg19
(lp1396
sg21
I0
sba(iArchitecture
Entity
p1397
(dp1398
g11
(lp1399
sg13
S'android.content.IntentSender$OnFinished'
p1400
sg15
(lp1401
sg17
(lp1402
sg19
(lp1403
sg21
I0
sba(iArchitecture
Entity
p1404
(dp1405
g11
(lp1406
sg13
S'android.content.OperationApplicationException'
p1407
sg15
(lp1408
sg17
(lp1409
sg19
(lp1410
sg21
I0
sba(iArchitecture
Entity
p1411
(dp1412
g11
(lp1413
sg13
S'android.content.PeriodicSync'
p1414
sg15
(lp1415
sg17
(lp1416
sg19
(lp1417
sg21
I0
sba(iArchitecture
Entity
p1418
(dp1419
g11
(lp1420
sg13
S'android.content.PeriodicSync$1'
p1421
sg15
(lp1422
sg17
(lp1423
sg19
(lp1424
sg21
I0
sba(iArchitecture
Entity
p1425
(dp1426
g11
(lp1427
sg13
S'android.content.RestrictionEntry'
p1428
sg15
(lp1429
sg17
(lp1430
sg19
(lp1431
sg21
I0
sba(iArchitecture
Entity
p1432
(dp1433
g11
(lp1434
sg13
S'android.content.RestrictionEntry$1'
p1435
sg15
(lp1436
sg17
(lp1437
sg19
(lp1438
sg21
I0
sba(iArchitecture
Entity
p1439
(dp1440
g11
(lp1441
sg13
S'android.content.SearchRecentSuggestionsProvider'
p1442
sg15
(lp1443
sg17
(lp1444
sg19
(lp1445
sg21
I0
sba(iArchitecture
Entity
p1446
(dp1447
g11
(lp1448
sg13
S'android.content.SearchRecentSuggestionsProvider$DatabaseHelper'
p1449
sg15
(lp1450
sg17
(lp1451
sg19
(lp1452
sg21
I0
sba(iArchitecture
Entity
p1453
(dp1454
g11
(lp1455
sg13
S'android.content.SyncAdapterType'
p1456
sg15
(lp1457
sg17
(lp1458
sg19
(lp1459
sg21
I0
sba(iArchitecture
Entity
p1460
(dp1461
g11
(lp1462
sg13
S'android.content.SyncAdapterType$1'
p1463
sg15
(lp1464
sg17
(lp1465
sg19
(lp1466
sg21
I0
sba(iArchitecture
Entity
p1467
(dp1468
g11
(lp1469
sg13
S'android.content.SyncAdaptersCache'
p1470
sg15
(lp1471
sg17
(lp1472
sg19
(lp1473
sg21
I0
sba(iArchitecture
Entity
p1474
(dp1475
g11
(lp1476
sg13
S'android.content.SyncAdaptersCache$MySerializer'
p1477
sg15
(lp1478
sg17
(lp1479
sg19
(lp1480
sg21
I0
sba(iArchitecture
Entity
p1481
(dp1482
g11
(lp1483
sg13
S'android.content.SyncContext'
p1484
sg15
(lp1485
sg17
(lp1486
sg19
(lp1487
sg21
I0
sba(iArchitecture
Entity
p1488
(dp1489
g11
(lp1490
sg13
S'android.content.SyncInfo'
p1491
sg15
(lp1492
sg17
(lp1493
sg19
(lp1494
sg21
I0
sba(iArchitecture
Entity
p1495
(dp1496
g11
(lp1497
sg13
S'android.content.SyncInfo$1'
p1498
sg15
(lp1499
sg17
(lp1500
sg19
(lp1501
sg21
I0
sba(iArchitecture
Entity
p1502
(dp1503
g11
(lp1504
sg13
S'android.content.SyncRequest'
p1505
sg15
(lp1506
sg17
(lp1507
sg19
(lp1508
sg21
I0
sba(iArchitecture
Entity
p1509
(dp1510
g11
(lp1511
sg13
S'android.content.SyncRequest$1'
p1512
sg15
(lp1513
sg17
(lp1514
sg19
(lp1515
sg21
I0
sba(iArchitecture
Entity
p1516
(dp1517
g11
(lp1518
sg13
S'android.content.SyncResult'
p1519
sg15
(lp1520
sg17
(lp1521
sg19
(lp1522
sg21
I0
sba(iArchitecture
Entity
p1523
(dp1524
g11
(lp1525
sg13
S'android.content.SyncResult$1'
p1526
sg15
(lp1527
sg17
(lp1528
sg19
(lp1529
sg21
I0
sba(iArchitecture
Entity
p1530
(dp1531
g11
(lp1532
sg13
S'android.content.SyncStats'
p1533
sg15
(lp1534
sg17
(lp1535
sg19
(lp1536
sg21
I0
sba(iArchitecture
Entity
p1537
(dp1538
g11
(lp1539
sg13
S'android.content.SyncStats$1'
p1540
sg15
(lp1541
sg17
(lp1542
sg19
(lp1543
sg21
I0
sba(iArchitecture
Entity
p1544
(dp1545
g11
(lp1546
sg13
S'android.content.SyncStatusInfo'
p1547
sg15
(lp1548
sg17
(lp1549
sg19
(lp1550
sg21
I0
sba(iArchitecture
Entity
p1551
(dp1552
g11
(lp1553
sg13
S'android.content.SyncStatusInfo$1'
p1554
sg15
(lp1555
sg17
(lp1556
sg19
(lp1557
sg21
I0
sba(iArchitecture
Entity
p1558
(dp1559
g11
(lp1560
sg13
S'android.content.SyncStatusObserver'
p1561
sg15
(lp1562
sg17
(lp1563
sg19
(lp1564
sg21
I0
sba(iArchitecture
Entity
p1565
(dp1566
g11
(lp1567
sg13
S'android.content.UndoManager'
p1568
sg15
(lp1569
sg17
(lp1570
sg19
(lp1571
sg21
I0
sba(iArchitecture
Entity
p1572
(dp1573
g11
(lp1574
sg13
S'android.content.UndoManager$UndoState'
p1575
sg15
(lp1576
sg17
(lp1577
sg19
(lp1578
sg21
I0
sba(iArchitecture
Entity
p1579
(dp1580
g11
(lp1581
sg13
S'android.content.UndoOperation'
p1582
sg15
(lp1583
sg17
(lp1584
sg19
(lp1585
sg21
I0
sba(iArchitecture
Entity
p1586
(dp1587
g11
(lp1588
sg13
S'android.content.UndoOwner'
p1589
sg15
(lp1590
sg17
(lp1591
sg19
(lp1592
sg21
I0
sba(iArchitecture
Entity
p1593
(dp1594
g11
(lp1595
sg13
S'android.content.UriMatcher'
p1596
sg15
(lp1597
sg17
(lp1598
sg19
(lp1599
sg21
I0
sba(iArchitecture
Entity
p1600
(dp1601
g11
(lp1602
sg13
S'android.content.UriPermission'
p1603
sg15
(lp1604
sg17
(lp1605
sg19
(lp1606
sg21
I0
sba(iArchitecture
Entity
p1607
(dp1608
g11
(lp1609
sg13
S'android.content.UriPermission$1'
p1610
sg15
(lp1611
sg17
(lp1612
sg19
(lp1613
sg21
I0
sbasg218
(lp1614
g980
ag987
ag994
ag1001
ag1008
ag1015
ag1022
ag1029
ag1036
ag1043
ag1050
ag1057
ag1064
ag1071
ag1078
ag1085
ag1092
ag1099
ag1106
ag1113
ag1120
ag1127
ag1134
ag1141
ag1148
ag1155
ag1162
ag1169
ag1176
ag1183
ag1190
ag1197
ag1204
ag1211
ag1218
ag1225
ag1232
ag1239
ag1246
ag1253
ag1260
ag1267
ag1274
ag1281
ag1288
ag1295
ag1302
ag1309
ag1316
ag1323
ag1330
ag1337
ag1344
ag1351
ag1358
ag1365
ag1372
ag1379
ag1386
ag1393
ag1400
ag1407
ag1414
ag1421
ag1428
ag1435
ag1442
ag1449
ag1456
ag1463
ag1470
ag1477
ag1484
ag1491
ag1498
ag1505
ag1512
ag1519
ag1526
ag1533
ag1540
ag1547
ag1554
ag1561
ag1568
ag1575
ag1582
ag1589
ag1596
ag1603
ag1610
asg21
I0
sg220
S'android.content.ss'
p1615
sba(iArchitecture
Cluster
p1616
(dp1617
g7
(lp1618
(iArchitecture
Entity
p1619
(dp1620
g11
(lp1621
sg13
S'android.content.IContentProvider'
p1622
sg15
(lp1623
sg17
(lp1624
sg19
(lp1625
sg21
I0
sbasg218
(lp1626
g1622
asg21
I0
sg220
S'android.media.ss'
p1627
sba(iArchitecture
Cluster
p1628
(dp1629
g7
(lp1630
(iArchitecture
Entity
p1631
(dp1632
g11
(lp1633
sg13
S'android.content.ContentUris'
p1634
sg15
(lp1635
sg17
(lp1636
sg19
(lp1637
sg21
I0
sba(iArchitecture
Entity
p1638
(dp1639
g11
(lp1640
sg13
S'android.content.CursorEntityIterator'
p1641
sg15
(lp1642
sg17
(lp1643
sg19
(lp1644
sg21
I0
sba(iArchitecture
Entity
p1645
(dp1646
g11
(lp1647
sg13
S'android.content.EntityIterator'
p1648
sg15
(lp1649
sg17
(lp1650
sg19
(lp1651
sg21
I0
sbasg218
(lp1652
g1634
ag1641
ag1648
asg21
I0
sg220
S'android.provider.ss'
p1653
sba(iArchitecture
Cluster
p1654
(dp1655
g7
(lp1656
(iArchitecture
Entity
p1657
(dp1658
g11
(lp1659
sg13
S'android.content.res.AssetManager'
p1660
sg15
(lp1661
sg17
(lp1662
sg19
(lp1663
sg21
I0
sba(iArchitecture
Entity
p1664
(dp1665
g11
(lp1666
sg13
S'android.content.res.Resources$Theme'
p1667
sg15
(lp1668
sg17
(lp1669
sg19
(lp1670
sg21
I0
sba(iArchitecture
Entity
p1671
(dp1672
g11
(lp1673
sg13
S'android.content.res.TypedArray'
p1674
sg15
(lp1675
sg17
(lp1676
sg19
(lp1677
sg21
I0
sbasg218
(lp1678
g1660
ag1667
ag1674
asg21
I0
sg220
S'android.view.animation.ss'
p1679
sba(iArchitecture
Cluster
p1680
(dp1681
g7
(lp1682
(iArchitecture
Entity
p1683
(dp1684
g11
(lp1685
sg13
S'android.content.res.CompatibilityInfo$Translator'
p1686
sg15
(lp1687
sg17
(lp1688
sg19
(lp1689
sg21
I0
sbasg218
(lp1690
g1686
asg21
I0
sg220
S'android.view.ss'
p1691
sba(iArchitecture
Cluster
p1692
(dp1693
g7
(lp1694
(iArchitecture
Entity
p1695
(dp1696
g11
(lp1697
sg13
S'android.content.ContentResolver$OpenResourceIdResult'
p1698
sg15
(lp1699
sg17
(lp1700
sg19
(lp1701
sg21
I0
sbasg218
(lp1702
g1698
asg21
I0
sg220
S'android.widget.ss'
p1703
sba(iArchitecture
Cluster
p1704
(dp1705
g7
(lp1706
(iArchitecture
Entity
p1707
(dp1708
g11
(lp1709
sg13
S'android.content.AsyncQueryHandler'
p1710
sg15
(lp1711
sg17
(lp1712
sg19
(lp1713
sg21
I0
sba(iArchitecture
Entity
p1714
(dp1715
g11
(lp1716
sg13
S'android.content.AsyncQueryHandler$WorkerArgs'
p1717
sg15
(lp1718
sg17
(lp1719
sg19
(lp1720
sg21
I0
sba(iArchitecture
Entity
p1721
(dp1722
g11
(lp1723
sg13
S'android.content.AsyncQueryHandler$WorkerHandler'
p1724
sg15
(lp1725
sg17
(lp1726
sg19
(lp1727
sg21
I0
sbasg218
(lp1728
g1710
ag1717
ag1724
asg21
I0
sg220
S'com.android.internal.telephony.ss'
p1729
sba(iArchitecture
Cluster
p1730
(dp1731
g7
(lp1732
(iArchitecture
Entity
p1733
(dp1734
g11
(lp1735
sg13
S'android.content.ComponentCallbacks'
p1736
sg15
(lp1737
sg17
(lp1738
sg19
(lp1739
sg21
I0
sba(iArchitecture
Entity
p1740
(dp1741
g11
(lp1742
sg13
S'android.content.res.XmlResourceParser'
p1743
sg15
(lp1744
sg17
(lp1745
sg19
(lp1746
sg21
I0
sbasg218
(lp1747
g1736
ag1743
asg21
I0
sg220
S'com.android.internal.widget.ss'
p1748
sba(iArchitecture
Cluster
p1749
(dp1750
g7
(lp1751
(iArchitecture
Entity
p1752
(dp1753
g11
(lp1754
sg13
S'android.content.pm.XmlSerializerAndParser'
p1755
sg15
(lp1756
sg17
(lp1757
sg19
(lp1758
sg21
I0
sbasg218
(lp1759
g1755
asg21
I0
sg220
S'com.android.server.accounts.ss'
p1760
sba(iArchitecture
Cluster
p1761
(dp1762
g7
(lp1763
(iArchitecture
Entity
p1764
(dp1765
g11
(lp1766
sg13
S'android.content.ClipData$Item'
p1767
sg15
(lp1768
sg17
(lp1769
sg19
(lp1770
sg21
I0
sba(iArchitecture
Entity
p1771
(dp1772
g11
(lp1773
sg13
S'android.content.IIntentReceiver'
p1774
sg15
(lp1775
sg17
(lp1776
sg19
(lp1777
sg21
I0
sba(iArchitecture
Entity
p1778
(dp1779
g11
(lp1780
sg13
S'android.content.IIntentReceiver$Stub'
p1781
sg15
(lp1782
sg17
(lp1783
sg19
(lp1784
sg21
I0
sba(iArchitecture
Entity
p1785
(dp1786
g11
(lp1787
sg13
S'android.content.IIntentReceiver$Stub$Proxy'
p1788
sg15
(lp1789
sg17
(lp1790
sg19
(lp1791
sg21
I0
sba(iArchitecture
Entity
p1792
(dp1793
g11
(lp1794
sg13
S'android.content.Intent$FilterComparison'
p1795
sg15
(lp1796
sg17
(lp1797
sg19
(lp1798
sg21
I0
sbasg218
(lp1799
g1767
ag1774
ag1781
ag1788
ag1795
asg21
I0
sg220
S'com.android.server.am.ss'
p1800
sba(iArchitecture
Cluster
p1801
(dp1802
g7
(lp1803
(iArchitecture
Entity
p1804
(dp1805
g11
(lp1806
sg13
S'android.content.pm.LimitedLengthInputStream'
p1807
sg15
(lp1808
sg17
(lp1809
sg19
(lp1810
sg21
I0
sba(iArchitecture
Entity
p1811
(dp1812
g11
(lp1813
sg13
S'android.content.pm.MacAuthenticatedInputStream'
p1814
sg15
(lp1815
sg17
(lp1816
sg19
(lp1817
sg21
I0
sba(iArchitecture
Entity
p1818
(dp1819
g11
(lp1820
sg13
S'android.content.pm.PackageManager'
p1821
sg15
(lp1822
sg17
(lp1823
sg19
(lp1824
sg21
I0
sba(iArchitecture
Entity
p1825
(dp1826
g11
(lp1827
sg13
S'android.content.pm.PackageManager$LegacyPackageInstallObserver'
p1828
sg15
(lp1829
sg17
(lp1830
sg19
(lp1831
sg21
I0
sba(iArchitecture
Entity
p1832
(dp1833
g11
(lp1834
sg13
S'android.content.pm.PackageManager$NameNotFoundException'
p1835
sg15
(lp1836
sg17
(lp1837
sg19
(lp1838
sg21
I0
sba(iArchitecture
Entity
p1839
(dp1840
g11
(lp1841
sg13
S'android.content.res.ObbScanner'
p1842
sg15
(lp1843
sg17
(lp1844
sg19
(lp1845
sg21
I0
sbasg218
(lp1846
g1807
ag1814
ag1821
ag1828
ag1835
ag1842
asg21
I0
sg220
S'com.android.server.backup.ss'
p1847
sba(iArchitecture
Cluster
p1848
(dp1849
g7
(lp1850
(iArchitecture
Entity
p1851
(dp1852
g11
(lp1853
sg13
S'android.content.ISyncAdapter'
p1854
sg15
(lp1855
sg17
(lp1856
sg19
(lp1857
sg21
I0
sba(iArchitecture
Entity
p1858
(dp1859
g11
(lp1860
sg13
S'android.content.ISyncAdapter$Stub'
p1861
sg15
(lp1862
sg17
(lp1863
sg19
(lp1864
sg21
I0
sba(iArchitecture
Entity
p1865
(dp1866
g11
(lp1867
sg13
S'android.content.ISyncAdapter$Stub$Proxy'
p1868
sg15
(lp1869
sg17
(lp1870
sg19
(lp1871
sg21
I0
sba(iArchitecture
Entity
p1872
(dp1873
g11
(lp1874
sg13
S'android.content.ISyncContext'
p1875
sg15
(lp1876
sg17
(lp1877
sg19
(lp1878
sg21
I0
sba(iArchitecture
Entity
p1879
(dp1880
g11
(lp1881
sg13
S'android.content.ISyncContext$Stub'
p1882
sg15
(lp1883
sg17
(lp1884
sg19
(lp1885
sg21
I0
sba(iArchitecture
Entity
p1886
(dp1887
g11
(lp1888
sg13
S'android.content.ISyncContext$Stub$Proxy'
p1889
sg15
(lp1890
sg17
(lp1891
sg19
(lp1892
sg21
I0
sba(iArchitecture
Entity
p1893
(dp1894
g11
(lp1895
sg13
S'android.content.ISyncServiceAdapter'
p1896
sg15
(lp1897
sg17
(lp1898
sg19
(lp1899
sg21
I0
sba(iArchitecture
Entity
p1900
(dp1901
g11
(lp1902
sg13
S'android.content.ISyncServiceAdapter$Stub'
p1903
sg15
(lp1904
sg17
(lp1905
sg19
(lp1906
sg21
I0
sba(iArchitecture
Entity
p1907
(dp1908
g11
(lp1909
sg13
S'android.content.ISyncServiceAdapter$Stub$Proxy'
p1910
sg15
(lp1911
sg17
(lp1912
sg19
(lp1913
sg21
I0
sba(iArchitecture
Entity
p1914
(dp1915
g11
(lp1916
sg13
S'android.content.SyncActivityTooManyDeletes'
p1917
sg15
(lp1918
sg17
(lp1919
sg19
(lp1920
sg21
I0
sba(iArchitecture
Entity
p1921
(dp1922
g11
(lp1923
sg13
S'android.content.SyncRequest$Builder'
p1924
sg15
(lp1925
sg17
(lp1926
sg19
(lp1927
sg21
I0
sba(iArchitecture
Entity
p1928
(dp1929
g11
(lp1930
sg13
S'android.content.pm.RegisteredServicesCache$ServiceInfo'
p1931
sg15
(lp1932
sg17
(lp1933
sg19
(lp1934
sg21
I0
sba(iArchitecture
Entity
p1935
(dp1936
g11
(lp1937
sg13
S'android.content.pm.RegisteredServicesCacheListener'
p1938
sg15
(lp1939
sg17
(lp1940
sg19
(lp1941
sg21
I0
sbasg218
(lp1942
g1854
ag1861
ag1868
ag1875
ag1882
ag1889
ag1896
ag1903
ag1910
ag1917
ag1924
ag1931
ag1938
asg21
I0
sg220
S'com.android.server.content.ss'
p1943
sba(iArchitecture
Cluster
p1944
(dp1945
g7
(lp1946
(iArchitecture
Entity
p1947
(dp1948
g11
(lp1949
sg13
S'android.content.BroadcastReceiver'
p1950
sg15
(lp1951
sg17
(lp1952
sg19
(lp1953
sg21
I0
sba(iArchitecture
Entity
p1954
(dp1955
g11
(lp1956
sg13
S'android.content.BroadcastReceiver$PendingResult'
p1957
sg15
(lp1958
sg17
(lp1959
sg19
(lp1960
sg21
I0
sba(iArchitecture
Entity
p1961
(dp1962
g11
(lp1963
sg13
S'android.content.BroadcastReceiver$PendingResult$1'
p1964
sg15
(lp1965
sg17
(lp1966
sg19
(lp1967
sg21
I0
sbasg218
(lp1968
g1950
ag1957
ag1964
asg21
I0
sg220
S'com.android.server.net.ss'
p1969
sba(iArchitecture
Cluster
p1970
(dp1971
g7
(lp1972
(iArchitecture
Entity
p1973
(dp1974
g11
(lp1975
sg13
S'android.content.pm.IPackageManager'
p1976
sg15
(lp1977
sg17
(lp1978
sg19
(lp1979
sg21
I0
sbasg218
(lp1980
g1976
asg21
I0
sg220
S'com.android.server.notification.ss'
p1981
sba(iArchitecture
Cluster
p1982
(dp1983
g7
(lp1984
(iArchitecture
Entity
p1985
(dp1986
g11
(lp1987
sg13
S'android.content.EventLogTags'
p1988
sg15
(lp1989
sg17
(lp1990
sg19
(lp1991
sg21
I0
sba(iArchitecture
Entity
p1992
(dp1993
g11
(lp1994
sg13
S'android.content.IntentFilter$AuthorityEntry'
p1995
sg15
(lp1996
sg17
(lp1997
sg19
(lp1998
sg21
I0
sba(iArchitecture
Entity
p1999
(dp2000
g11
(lp2001
sg13
S'android.content.IntentFilter$MalformedMimeTypeException'
p2002
sg15
(lp2003
sg17
(lp2004
sg19
(lp2005
sg21
I0
sba(iArchitecture
Entity
p2006
(dp2007
g11
(lp2008
sg13
S'android.content.IntentSender$SendIntentException'
p2009
sg15
(lp2010
sg17
(lp2011
sg19
(lp2012
sg21
I0
sba(iArchitecture
Entity
p2013
(dp2014
g11
(lp2015
sg13
S'android.content.pm.ComponentInfo'
p2016
sg15
(lp2017
sg17
(lp2018
sg19
(lp2019
sg21
I0
sba(iArchitecture
Entity
p2020
(dp2021
g11
(lp2022
sg13
S'android.content.pm.IOnPermissionsChangeListener'
p2023
sg15
(lp2024
sg17
(lp2025
sg19
(lp2026
sg21
I0
sba(iArchitecture
Entity
p2027
(dp2028
g11
(lp2029
sg13
S'android.content.pm.IOnPermissionsChangeListener$Stub'
p2030
sg15
(lp2031
sg17
(lp2032
sg19
(lp2033
sg21
I0
sba(iArchitecture
Entity
p2034
(dp2035
g11
(lp2036
sg13
S'android.content.pm.IOnPermissionsChangeListener$Stub$Proxy'
p2037
sg15
(lp2038
sg17
(lp2039
sg19
(lp2040
sg21
I0
sba(iArchitecture
Entity
p2041
(dp2042
g11
(lp2043
sg13
S'android.content.pm.IPackageDataObserver'
p2044
sg15
(lp2045
sg17
(lp2046
sg19
(lp2047
sg21
I0
sba(iArchitecture
Entity
p2048
(dp2049
g11
(lp2050
sg13
S'android.content.pm.IPackageDataObserver$Stub'
p2051
sg15
(lp2052
sg17
(lp2053
sg19
(lp2054
sg21
I0
sba(iArchitecture
Entity
p2055
(dp2056
g11
(lp2057
sg13
S'android.content.pm.IPackageDataObserver$Stub$Proxy'
p2058
sg15
(lp2059
sg17
(lp2060
sg19
(lp2061
sg21
I0
sba(iArchitecture
Entity
p2062
(dp2063
g11
(lp2064
sg13
S'android.content.pm.IPackageDeleteObserver'
p2065
sg15
(lp2066
sg17
(lp2067
sg19
(lp2068
sg21
I0
sba(iArchitecture
Entity
p2069
(dp2070
g11
(lp2071
sg13
S'android.content.pm.IPackageDeleteObserver$Stub'
p2072
sg15
(lp2073
sg17
(lp2074
sg19
(lp2075
sg21
I0
sba(iArchitecture
Entity
p2076
(dp2077
g11
(lp2078
sg13
S'android.content.pm.IPackageDeleteObserver$Stub$Proxy'
p2079
sg15
(lp2080
sg17
(lp2081
sg19
(lp2082
sg21
I0
sba(iArchitecture
Entity
p2083
(dp2084
g11
(lp2085
sg13
S'android.content.pm.IPackageDeleteObserver2'
p2086
sg15
(lp2087
sg17
(lp2088
sg19
(lp2089
sg21
I0
sba(iArchitecture
Entity
p2090
(dp2091
g11
(lp2092
sg13
S'android.content.pm.IPackageDeleteObserver2$Stub$Proxy'
p2093
sg15
(lp2094
sg17
(lp2095
sg19
(lp2096
sg21
I0
sba(iArchitecture
Entity
p2097
(dp2098
g11
(lp2099
sg13
S'android.content.pm.IPackageInstallObserver2'
p2100
sg15
(lp2101
sg17
(lp2102
sg19
(lp2103
sg21
I0
sba(iArchitecture
Entity
p2104
(dp2105
g11
(lp2106
sg13
S'android.content.pm.IPackageInstallObserver2$Stub'
p2107
sg15
(lp2108
sg17
(lp2109
sg19
(lp2110
sg21
I0
sba(iArchitecture
Entity
p2111
(dp2112
g11
(lp2113
sg13
S'android.content.pm.IPackageInstallObserver2$Stub$Proxy'
p2114
sg15
(lp2115
sg17
(lp2116
sg19
(lp2117
sg21
I0
sba(iArchitecture
Entity
p2118
(dp2119
g11
(lp2120
sg13
S'android.content.pm.IPackageInstaller'
p2121
sg15
(lp2122
sg17
(lp2123
sg19
(lp2124
sg21
I0
sba(iArchitecture
Entity
p2125
(dp2126
g11
(lp2127
sg13
S'android.content.pm.IPackageInstaller$Stub'
p2128
sg15
(lp2129
sg17
(lp2130
sg19
(lp2131
sg21
I0
sba(iArchitecture
Entity
p2132
(dp2133
g11
(lp2134
sg13
S'android.content.pm.IPackageInstaller$Stub$Proxy'
p2135
sg15
(lp2136
sg17
(lp2137
sg19
(lp2138
sg21
I0
sba(iArchitecture
Entity
p2139
(dp2140
g11
(lp2141
sg13
S'android.content.pm.IPackageInstallerCallback'
p2142
sg15
(lp2143
sg17
(lp2144
sg19
(lp2145
sg21
I0
sba(iArchitecture
Entity
p2146
(dp2147
g11
(lp2148
sg13
S'android.content.pm.IPackageInstallerCallback$Stub'
p2149
sg15
(lp2150
sg17
(lp2151
sg19
(lp2152
sg21
I0
sba(iArchitecture
Entity
p2153
(dp2154
g11
(lp2155
sg13
S'android.content.pm.IPackageInstallerCallback$Stub$Proxy'
p2156
sg15
(lp2157
sg17
(lp2158
sg19
(lp2159
sg21
I0
sba(iArchitecture
Entity
p2160
(dp2161
g11
(lp2162
sg13
S'android.content.pm.IPackageInstallerSession'
p2163
sg15
(lp2164
sg17
(lp2165
sg19
(lp2166
sg21
I0
sba(iArchitecture
Entity
p2167
(dp2168
g11
(lp2169
sg13
S'android.content.pm.IPackageInstallerSession$Stub'
p2170
sg15
(lp2171
sg17
(lp2172
sg19
(lp2173
sg21
I0
sba(iArchitecture
Entity
p2174
(dp2175
g11
(lp2176
sg13
S'android.content.pm.IPackageInstallerSession$Stub$Proxy'
p2177
sg15
(lp2178
sg17
(lp2179
sg19
(lp2180
sg21
I0
sba(iArchitecture
Entity
p2181
(dp2182
g11
(lp2183
sg13
S'android.content.pm.IPackageManager$Stub'
p2184
sg15
(lp2185
sg17
(lp2186
sg19
(lp2187
sg21
I0
sba(iArchitecture
Entity
p2188
(dp2189
g11
(lp2190
sg13
S'android.content.pm.IPackageManager$Stub$Proxy'
p2191
sg15
(lp2192
sg17
(lp2193
sg19
(lp2194
sg21
I0
sba(iArchitecture
Entity
p2195
(dp2196
g11
(lp2197
sg13
S'android.content.pm.IPackageMoveObserver'
p2198
sg15
(lp2199
sg17
(lp2200
sg19
(lp2201
sg21
I0
sba(iArchitecture
Entity
p2202
(dp2203
g11
(lp2204
sg13
S'android.content.pm.IPackageMoveObserver$Stub'
p2205
sg15
(lp2206
sg17
(lp2207
sg19
(lp2208
sg21
I0
sba(iArchitecture
Entity
p2209
(dp2210
g11
(lp2211
sg13
S'android.content.pm.IPackageMoveObserver$Stub$Proxy'
p2212
sg15
(lp2213
sg17
(lp2214
sg19
(lp2215
sg21
I0
sba(iArchitecture
Entity
p2216
(dp2217
g11
(lp2218
sg13
S'android.content.pm.IPackageStatsObserver'
p2219
sg15
(lp2220
sg17
(lp2221
sg19
(lp2222
sg21
I0
sba(iArchitecture
Entity
p2223
(dp2224
g11
(lp2225
sg13
S'android.content.pm.IPackageStatsObserver$Stub'
p2226
sg15
(lp2227
sg17
(lp2228
sg19
(lp2229
sg21
I0
sba(iArchitecture
Entity
p2230
(dp2231
g11
(lp2232
sg13
S'android.content.pm.IPackageStatsObserver$Stub$Proxy'
p2233
sg15
(lp2234
sg17
(lp2235
sg19
(lp2236
sg21
I0
sba(iArchitecture
Entity
p2237
(dp2238
g11
(lp2239
sg13
S'android.content.pm.PackageInstaller$SessionInfo'
p2240
sg15
(lp2241
sg17
(lp2242
sg19
(lp2243
sg21
I0
sba(iArchitecture
Entity
p2244
(dp2245
g11
(lp2246
sg13
S'android.content.pm.PackageInstaller$SessionInfo$1'
p2247
sg15
(lp2248
sg17
(lp2249
sg19
(lp2250
sg21
I0
sba(iArchitecture
Entity
p2251
(dp2252
g11
(lp2253
sg13
S'android.content.pm.PackageInstaller$SessionParams'
p2254
sg15
(lp2255
sg17
(lp2256
sg19
(lp2257
sg21
I0
sba(iArchitecture
Entity
p2258
(dp2259
g11
(lp2260
sg13
S'android.content.pm.PackageInstaller$SessionParams$1'
p2261
sg15
(lp2262
sg17
(lp2263
sg19
(lp2264
sg21
I0
sba(iArchitecture
Entity
p2265
(dp2266
g11
(lp2267
sg13
S'android.content.pm.PackageManager$LegacyPackageDeleteObserver'
p2268
sg15
(lp2269
sg17
(lp2270
sg19
(lp2271
sg21
I0
sba(iArchitecture
Entity
p2272
(dp2273
g11
(lp2274
sg13
S'android.content.pm.PackageManagerInternal$SyncAdapterPackagesProvider'
p2275
sg15
(lp2276
sg17
(lp2277
sg19
(lp2278
sg21
I0
sba(iArchitecture
Entity
p2279
(dp2280
g11
(lp2281
sg13
S'android.content.pm.PackageParser$Activity'
p2282
sg15
(lp2283
sg17
(lp2284
sg19
(lp2285
sg21
I0
sba(iArchitecture
Entity
p2286
(dp2287
g11
(lp2288
sg13
S'android.content.pm.PackageParser$ActivityIntentInfo'
p2289
sg15
(lp2290
sg17
(lp2291
sg19
(lp2292
sg21
I0
sba(iArchitecture
Entity
p2293
(dp2294
g11
(lp2295
sg13
S'android.content.pm.PackageParser$ApkLite'
p2296
sg15
(lp2297
sg17
(lp2298
sg19
(lp2299
sg21
I0
sba(iArchitecture
Entity
p2300
(dp2301
g11
(lp2302
sg13
S'android.content.pm.PackageParser$Component'
p2303
sg15
(lp2304
sg17
(lp2305
sg19
(lp2306
sg21
I0
sba(iArchitecture
Entity
p2307
(dp2308
g11
(lp2309
sg13
S'android.content.pm.PackageParser$Instrumentation'
p2310
sg15
(lp2311
sg17
(lp2312
sg19
(lp2313
sg21
I0
sba(iArchitecture
Entity
p2314
(dp2315
g11
(lp2316
sg13
S'android.content.pm.PackageParser$IntentInfo'
p2317
sg15
(lp2318
sg17
(lp2319
sg19
(lp2320
sg21
I0
sba(iArchitecture
Entity
p2321
(dp2322
g11
(lp2323
sg13
S'android.content.pm.PackageParser$NewPermissionInfo'
p2324
sg15
(lp2325
sg17
(lp2326
sg19
(lp2327
sg21
I0
sba(iArchitecture
Entity
p2328
(dp2329
g11
(lp2330
sg13
S'android.content.pm.PackageParser$Package'
p2331
sg15
(lp2332
sg17
(lp2333
sg19
(lp2334
sg21
I0
sba(iArchitecture
Entity
p2335
(dp2336
g11
(lp2337
sg13
S'android.content.pm.PackageParser$PackageLite'
p2338
sg15
(lp2339
sg17
(lp2340
sg19
(lp2341
sg21
I0
sba(iArchitecture
Entity
p2342
(dp2343
g11
(lp2344
sg13
S'android.content.pm.PackageParser$PackageParserException'
p2345
sg15
(lp2346
sg17
(lp2347
sg19
(lp2348
sg21
I0
sba(iArchitecture
Entity
p2349
(dp2350
g11
(lp2351
sg13
S'android.content.pm.PackageParser$ParseComponentArgs'
p2352
sg15
(lp2353
sg17
(lp2354
sg19
(lp2355
sg21
I0
sba(iArchitecture
Entity
p2356
(dp2357
g11
(lp2358
sg13
S'android.content.pm.PackageParser$ParsePackageItemArgs'
p2359
sg15
(lp2360
sg17
(lp2361
sg19
(lp2362
sg21
I0
sba(iArchitecture
Entity
p2363
(dp2364
g11
(lp2365
sg13
S'android.content.pm.PackageParser$Permission'
p2366
sg15
(lp2367
sg17
(lp2368
sg19
(lp2369
sg21
I0
sba(iArchitecture
Entity
p2370
(dp2371
g11
(lp2372
sg13
S'android.content.pm.PackageParser$PermissionGroup'
p2373
sg15
(lp2374
sg17
(lp2375
sg19
(lp2376
sg21
I0
sba(iArchitecture
Entity
p2377
(dp2378
g11
(lp2379
sg13
S'android.content.pm.PackageParser$Provider'
p2380
sg15
(lp2381
sg17
(lp2382
sg19
(lp2383
sg21
I0
sba(iArchitecture
Entity
p2384
(dp2385
g11
(lp2386
sg13
S'android.content.pm.PackageParser$ProviderIntentInfo'
p2387
sg15
(lp2388
sg17
(lp2389
sg19
(lp2390
sg21
I0
sba(iArchitecture
Entity
p2391
(dp2392
g11
(lp2393
sg13
S'android.content.pm.PackageParser$Service'
p2394
sg15
(lp2395
sg17
(lp2396
sg19
(lp2397
sg21
I0
sba(iArchitecture
Entity
p2398
(dp2399
g11
(lp2400
sg13
S'android.content.pm.PackageParser$ServiceIntentInfo'
p2401
sg15
(lp2402
sg17
(lp2403
sg19
(lp2404
sg21
I0
sba(iArchitecture
Entity
p2405
(dp2406
g11
(lp2407
sg13
S'android.content.pm.PackageUserState'
p2408
sg15
(lp2409
sg17
(lp2410
sg19
(lp2411
sg21
I0
sbasg218
(lp2412
g1988
ag1995
ag2002
ag2009
ag2016
ag2023
ag2030
ag2037
ag2044
ag2051
ag2058
ag2065
ag2072
ag2079
ag2086
ag2093
ag2100
ag2107
ag2114
ag2121
ag2128
ag2135
ag2142
ag2149
ag2156
ag2163
ag2170
ag2177
ag2184
ag2191
ag2198
ag2205
ag2212
ag2219
ag2226
ag2233
ag2240
ag2247
ag2254
ag2261
ag2268
ag2275
ag2282
ag2289
ag2296
ag2303
ag2310
ag2317
ag2324
ag2331
ag2338
ag2345
ag2352
ag2359
ag2366
ag2373
ag2380
ag2387
ag2394
ag2401
ag2408
asg21
I0
sg220
S'com.android.server.pm.ss'
p2413
sba(iArchitecture
Cluster
p2414
(dp2415
g7
(lp2416
(iArchitecture
Entity
p2417
(dp2418
g11
(lp2419
sg13
S'android.content.DialogInterface'
p2420
sg15
(lp2421
sg17
(lp2422
sg19
(lp2423
sg21
I0
sba(iArchitecture
Entity
p2424
(dp2425
g11
(lp2426
sg13
S'android.content.DialogInterface$OnDismissListener'
p2427
sg15
(lp2428
sg17
(lp2429
sg19
(lp2430
sg21
I0
sba(iArchitecture
Entity
p2431
(dp2432
g11
(lp2433
sg13
S'android.content.DialogInterface$OnKeyListener'
p2434
sg15
(lp2435
sg17
(lp2436
sg19
(lp2437
sg21
I0
sba(iArchitecture
Entity
p2438
(dp2439
g11
(lp2440
sg13
S'android.content.DialogInterface$OnMultiChoiceClickListener'
p2441
sg15
(lp2442
sg17
(lp2443
sg19
(lp2444
sg21
I0
sba(iArchitecture
Entity
p2445
(dp2446
g11
(lp2447
sg13
S'android.content.ServiceConnection'
p2448
sg15
(lp2449
sg17
(lp2450
sg19
(lp2451
sg21
I0
sba(iArchitecture
Entity
p2452
(dp2453
g11
(lp2454
sg13
S'android.content.res.Resources$NotFoundException'
p2455
sg15
(lp2456
sg17
(lp2457
sg19
(lp2458
sg21
I0
sbasg218
(lp2459
g2420
ag2427
ag2434
ag2441
ag2448
ag2455
asg21
I0
sg220
S'com.android.server.policy.ss'
p2460
sba(iArchitecture
Cluster
p2461
(dp2462
g7
(lp2463
(iArchitecture
Entity
p2464
(dp2465
g11
(lp2466
sg13
S'android.content.DialogInterface$OnCancelListener'
p2467
sg15
(lp2468
sg17
(lp2469
sg19
(lp2470
sg21
I0
sba(iArchitecture
Entity
p2471
(dp2472
g11
(lp2473
sg13
S'android.content.DialogInterface$OnClickListener'
p2474
sg15
(lp2475
sg17
(lp2476
sg19
(lp2477
sg21
I0
sba(iArchitecture
Entity
p2478
(dp2479
g11
(lp2480
sg13
S'android.content.SharedPreferences'
p2481
sg15
(lp2482
sg17
(lp2483
sg19
(lp2484
sg21
I0
sba(iArchitecture
Entity
p2485
(dp2486
g11
(lp2487
sg13
S'android.content.SharedPreferences$Editor'
p2488
sg15
(lp2489
sg17
(lp2490
sg19
(lp2491
sg21
I0
sba(iArchitecture
Entity
p2492
(dp2493
g11
(lp2494
sg13
S'android.content.pm.PackageManager$OnPermissionsChangedListener'
p2495
sg15
(lp2496
sg17
(lp2497
sg19
(lp2498
sg21
I0
sbasg218
(lp2499
g2467
ag2474
ag2481
ag2488
ag2495
asg21
I0
sg220
S'com.android.server.ss'
p2500
sba(iArchitecture
Cluster
p2501
(dp2502
g7
(lp2503
(iArchitecture
Entity
p2504
(dp2505
g11
(lp2506
sg13
S'android.content.pm.PackageManagerInternal'
p2507
sg15
(lp2508
sg17
(lp2509
sg19
(lp2510
sg21
I0
sba(iArchitecture
Entity
p2511
(dp2512
g11
(lp2513
sg13
S'android.content.pm.PackageManagerInternal$PackagesProvider'
p2514
sg15
(lp2515
sg17
(lp2516
sg19
(lp2517
sg21
I0
sbasg218
(lp2518
g2507
ag2514
asg21
I0
sg220
S'com.android.server.telecom.ss'
p2519
sba(iArchitecture
Cluster
p2520
(dp2521
g7
(lp2522
(iArchitecture
Entity
p2523
(dp2524
g11
(lp2525
sg13
S'android.content.ContentProviderOperation$Builder'
p2526
sg15
(lp2527
sg17
(lp2528
sg19
(lp2529
sg21
I0
sbasg218
(lp2530
g2526
asg21
I0
sg220
S'com.android.server.tv.ss'
p2531
sba(iArchitecture
Cluster
p2532
(dp2533
g7
(lp2534
(iArchitecture
Entity
p2535
(dp2536
g11
(lp2537
sg13
S'android.content.ActivityNotFoundException'
p2538
sg15
(lp2539
sg17
(lp2540
sg19
(lp2541
sg21
I0
sbasg218
(lp2542
g2538
asg21
I0
sg220
S'com.android.server.usb.ss'
p2543
sbasS'target_sub'
p2544
S'android.content'
p2545
sg218
(lp2546
sS'is_component_arch'
p2547
I00
sg220
S'6.0.0_r1'
p2548
sba(iArchitecture
Architecture
p2549
(dp2550
g3
(lp2551
(iArchitecture
Cluster
p2552
(dp2553
g7
(lp2554
(iArchitecture
Entity
p2555
(dp2556
g11
(lp2557
sg13
S'android.content.ComponentCallbacks'
p2558
sg15
(lp2559
sg17
(lp2560
sg19
(lp2561
sg21
I0
sba(iArchitecture
Entity
p2562
(dp2563
g11
(lp2564
sg13
S'android.content.ComponentCallbacks2'
p2565
sg15
(lp2566
sg17
(lp2567
sg19
(lp2568
sg21
I0
sba(iArchitecture
Entity
p2569
(dp2570
g11
(lp2571
sg13
S'android.content.Context'
p2572
sg15
(lp2573
sg17
(lp2574
sg19
(lp2575
sg21
I0
sba(iArchitecture
Entity
p2576
(dp2577
g11
(lp2578
sg13
S'android.content.ContextWrapper'
p2579
sg15
(lp2580
sg17
(lp2581
sg19
(lp2582
sg21
I0
sba(iArchitecture
Entity
p2583
(dp2584
g11
(lp2585
sg13
S'android.content.CursorLoader'
p2586
sg15
(lp2587
sg17
(lp2588
sg19
(lp2589
sg21
I0
sba(iArchitecture
Entity
p2590
(dp2591
g11
(lp2592
sg13
S'android.content.DialogInterface$OnShowListener'
p2593
sg15
(lp2594
sg17
(lp2595
sg19
(lp2596
sg21
I0
sba(iArchitecture
Entity
p2597
(dp2598
g11
(lp2599
sg13
S'android.content.IRestrictionsManager'
p2600
sg15
(lp2601
sg17
(lp2602
sg19
(lp2603
sg21
I0
sba(iArchitecture
Entity
p2604
(dp2605
g11
(lp2606
sg13
S'android.content.IRestrictionsManager$Stub'
p2607
sg15
(lp2608
sg17
(lp2609
sg19
(lp2610
sg21
I0
sba(iArchitecture
Entity
p2611
(dp2612
g11
(lp2613
sg13
S'android.content.IRestrictionsManager$Stub$Proxy'
p2614
sg15
(lp2615
sg17
(lp2616
sg19
(lp2617
sg21
I0
sba(iArchitecture
Entity
p2618
(dp2619
g11
(lp2620
sg13
S'android.content.IntentSender$SendIntentException'
p2621
sg15
(lp2622
sg17
(lp2623
sg19
(lp2624
sg21
I0
sba(iArchitecture
Entity
p2625
(dp2626
g11
(lp2627
sg13
S'android.content.Loader'
p2628
sg15
(lp2629
sg17
(lp2630
sg19
(lp2631
sg21
I0
sba(iArchitecture
Entity
p2632
(dp2633
g11
(lp2634
sg13
S'android.content.Loader$ForceLoadContentObserver'
p2635
sg15
(lp2636
sg17
(lp2637
sg19
(lp2638
sg21
I0
sba(iArchitecture
Entity
p2639
(dp2640
g11
(lp2641
sg13
S'android.content.Loader$OnLoadCanceledListener'
p2642
sg15
(lp2643
sg17
(lp2644
sg19
(lp2645
sg21
I0
sba(iArchitecture
Entity
p2646
(dp2647
g11
(lp2648
sg13
S'android.content.Loader$OnLoadCompleteListener'
p2649
sg15
(lp2650
sg17
(lp2651
sg19
(lp2652
sg21
I0
sba(iArchitecture
Entity
p2653
(dp2654
g11
(lp2655
sg13
S'android.content.MutableContextWrapper'
p2656
sg15
(lp2657
sg17
(lp2658
sg19
(lp2659
sg21
I0
sba(iArchitecture
Entity
p2660
(dp2661
g11
(lp2662
sg13
S'android.content.ReceiverCallNotAllowedException'
p2663
sg15
(lp2664
sg17
(lp2665
sg19
(lp2666
sg21
I0
sba(iArchitecture
Entity
p2667
(dp2668
g11
(lp2669
sg13
S'android.content.RestrictionsManager'
p2670
sg15
(lp2671
sg17
(lp2672
sg19
(lp2673
sg21
I0
sba(iArchitecture
Entity
p2674
(dp2675
g11
(lp2676
sg13
S'android.content.SharedPreferences$OnSharedPreferenceChangeListener'
p2677
sg15
(lp2678
sg17
(lp2679
sg19
(lp2680
sg21
I0
sba(iArchitecture
Entity
p2681
(dp2682
g11
(lp2683
sg13
S'android.content.pm.IPackageDeleteObserver2$Stub'
p2684
sg15
(lp2685
sg17
(lp2686
sg19
(lp2687
sg21
I0
sba(iArchitecture
Entity
p2688
(dp2689
g11
(lp2690
sg13
S'android.content.pm.IShortcutService'
p2691
sg15
(lp2692
sg17
(lp2693
sg19
(lp2694
sg21
I0
sba(iArchitecture
Entity
p2695
(dp2696
g11
(lp2697
sg13
S'android.content.pm.IShortcutService$Stub'
p2698
sg15
(lp2699
sg17
(lp2700
sg19
(lp2701
sg21
I0
sba(iArchitecture
Entity
p2702
(dp2703
g11
(lp2704
sg13
S'android.content.pm.IShortcutService$Stub$Proxy'
p2705
sg15
(lp2706
sg17
(lp2707
sg19
(lp2708
sg21
I0
sba(iArchitecture
Entity
p2709
(dp2710
g11
(lp2711
sg13
S'android.content.pm.PackageManager$MoveCallback'
p2712
sg15
(lp2713
sg17
(lp2714
sg19
(lp2715
sg21
I0
sba(iArchitecture
Entity
p2716
(dp2717
g11
(lp2718
sg13
S'android.content.pm.ShortcutManager'
p2719
sg15
(lp2720
sg17
(lp2721
sg19
(lp2722
sg21
I0
sba(iArchitecture
Entity
p2723
(dp2724
g11
(lp2725
sg13
S'android.content.res.AssetManager'
p2726
sg15
(lp2727
sg17
(lp2728
sg19
(lp2729
sg21
I0
sba(iArchitecture
Entity
p2730
(dp2731
g11
(lp2732
sg13
S'android.content.res.AssetManager$AssetInputStream'
p2733
sg15
(lp2734
sg17
(lp2735
sg19
(lp2736
sg21
I0
sba(iArchitecture
Entity
p2737
(dp2738
g11
(lp2739
sg13
S'android.content.res.ResourcesKey'
p2740
sg15
(lp2741
sg17
(lp2742
sg19
(lp2743
sg21
I0
sba(iArchitecture
Entity
p2744
(dp2745
g11
(lp2746
sg13
S'android.content.res.XmlBlock'
p2747
sg15
(lp2748
sg17
(lp2749
sg19
(lp2750
sg21
I0
sba(iArchitecture
Entity
p2751
(dp2752
g11
(lp2753
sg13
S'android.content.res.XmlBlock$Parser'
p2754
sg15
(lp2755
sg17
(lp2756
sg19
(lp2757
sg21
I0
sbasg218
(lp2758
g2558
ag2565
ag2572
ag2579
ag2586
ag2593
ag2600
ag2607
ag2614
ag2621
ag2628
ag2635
ag2642
ag2649
ag2656
ag2663
ag2670
ag2677
ag2684
ag2691
ag2698
ag2705
ag2712
ag2719
ag2726
ag2733
ag2740
ag2747
ag2754
asg21
I0
sg220
S'android.app.ss'
p2759
sba(iArchitecture
Cluster
p2760
(dp2761
g7
(lp2762
(iArchitecture
Entity
p2763
(dp2764
g11
(lp2765
sg13
S'android.content.pm.permission.IRuntimePermissionPresenter'
p2766
sg15
(lp2767
sg17
(lp2768
sg19
(lp2769
sg21
I0
sba(iArchitecture
Entity
p2770
(dp2771
g11
(lp2772
sg13
S'android.content.pm.permission.IRuntimePermissionPresenter$Stub'
p2773
sg15
(lp2774
sg17
(lp2775
sg19
(lp2776
sg21
I0
sba(iArchitecture
Entity
p2777
(dp2778
g11
(lp2779
sg13
S'android.content.pm.permission.IRuntimePermissionPresenter$Stub$Proxy'
p2780
sg15
(lp2781
sg17
(lp2782
sg19
(lp2783
sg21
I0
sba(iArchitecture
Entity
p2784
(dp2785
g11
(lp2786
sg13
S'android.content.pm.permission.RuntimePermissionPresentationInfo'
p2787
sg15
(lp2788
sg17
(lp2789
sg19
(lp2790
sg21
I0
sba(iArchitecture
Entity
p2791
(dp2792
g11
(lp2793
sg13
S'android.content.pm.permission.RuntimePermissionPresentationInfo$1'
p2794
sg15
(lp2795
sg17
(lp2796
sg19
(lp2797
sg21
I0
sba(iArchitecture
Entity
p2798
(dp2799
g11
(lp2800
sg13
S'android.content.pm.permission.RuntimePermissionPresenter'
p2801
sg15
(lp2802
sg17
(lp2803
sg19
(lp2804
sg21
I0
sba(iArchitecture
Entity
p2805
(dp2806
g11
(lp2807
sg13
S'android.content.pm.permission.RuntimePermissionPresenter$OnResultCallback'
p2808
sg15
(lp2809
sg17
(lp2810
sg19
(lp2811
sg21
I0
sba(iArchitecture
Entity
p2812
(dp2813
g11
(lp2814
sg13
S'android.content.pm.permission.RuntimePermissionPresenter$RemoteService'
p2815
sg15
(lp2816
sg17
(lp2817
sg19
(lp2818
sg21
I0
sba(iArchitecture
Entity
p2819
(dp2820
g11
(lp2821
sg13
S'android.content.pm.permission.RuntimePermissionPresenter$RemoteService$1'
p2822
sg15
(lp2823
sg17
(lp2824
sg19
(lp2825
sg21
I0
sba(iArchitecture
Entity
p2826
(dp2827
g11
(lp2828
sg13
S'android.content.pm.permission.RuntimePermissionPresenter$RemoteService$1$1'
p2829
sg15
(lp2830
sg17
(lp2831
sg19
(lp2832
sg21
I0
sba(iArchitecture
Entity
p2833
(dp2834
g11
(lp2835
sg13
S'android.content.pm.permission.RuntimePermissionPresenter$RemoteService$2'
p2836
sg15
(lp2837
sg17
(lp2838
sg19
(lp2839
sg21
I0
sba(iArchitecture
Entity
p2840
(dp2841
g11
(lp2842
sg13
S'android.content.pm.permission.RuntimePermissionPresenter$RemoteService$2$1'
p2843
sg15
(lp2844
sg17
(lp2845
sg19
(lp2846
sg21
I0
sbasg218
(lp2847
g2766
ag2773
ag2780
ag2787
ag2794
ag2801
ag2808
ag2815
ag2822
ag2829
ag2836
ag2843
asg21
I0
sg220
S'android.content.pm.permission.ss'
p2848
sba(iArchitecture
Cluster
p2849
(dp2850
g7
(lp2851
(iArchitecture
Entity
p2852
(dp2853
g11
(lp2854
sg13
S'android.content.pm.ActivityInfo'
p2855
sg15
(lp2856
sg17
(lp2857
sg19
(lp2858
sg21
I0
sba(iArchitecture
Entity
p2859
(dp2860
g11
(lp2861
sg13
S'android.content.pm.ActivityInfo$1'
p2862
sg15
(lp2863
sg17
(lp2864
sg19
(lp2865
sg21
I0
sba(iArchitecture
Entity
p2866
(dp2867
g11
(lp2868
sg13
S'android.content.pm.ApplicationInfo'
p2869
sg15
(lp2870
sg17
(lp2871
sg19
(lp2872
sg21
I0
sba(iArchitecture
Entity
p2873
(dp2874
g11
(lp2875
sg13
S'android.content.pm.ApplicationInfo$1'
p2876
sg15
(lp2877
sg17
(lp2878
sg19
(lp2879
sg21
I0
sba(iArchitecture
Entity
p2880
(dp2881
g11
(lp2882
sg13
S'android.content.pm.ApplicationInfo$DisplayNameComparator'
p2883
sg15
(lp2884
sg17
(lp2885
sg19
(lp2886
sg21
I0
sba(iArchitecture
Entity
p2887
(dp2888
g11
(lp2889
sg13
S'android.content.pm.ConfigurationInfo'
p2890
sg15
(lp2891
sg17
(lp2892
sg19
(lp2893
sg21
I0
sba(iArchitecture
Entity
p2894
(dp2895
g11
(lp2896
sg13
S'android.content.pm.ConfigurationInfo$1'
p2897
sg15
(lp2898
sg17
(lp2899
sg19
(lp2900
sg21
I0
sba(iArchitecture
Entity
p2901
(dp2902
g11
(lp2903
sg13
S'android.content.pm.EphemeralApplicationInfo'
p2904
sg15
(lp2905
sg17
(lp2906
sg19
(lp2907
sg21
I0
sba(iArchitecture
Entity
p2908
(dp2909
g11
(lp2910
sg13
S'android.content.pm.EphemeralApplicationInfo$1'
p2911
sg15
(lp2912
sg17
(lp2913
sg19
(lp2914
sg21
I0
sba(iArchitecture
Entity
p2915
(dp2916
g11
(lp2917
sg13
S'android.content.pm.EphemeralResolveInfo'
p2918
sg15
(lp2919
sg17
(lp2920
sg19
(lp2921
sg21
I0
sba(iArchitecture
Entity
p2922
(dp2923
g11
(lp2924
sg13
S'android.content.pm.EphemeralResolveInfo$1'
p2925
sg15
(lp2926
sg17
(lp2927
sg19
(lp2928
sg21
I0
sba(iArchitecture
Entity
p2929
(dp2930
g11
(lp2931
sg13
S'android.content.pm.FeatureGroupInfo'
p2932
sg15
(lp2933
sg17
(lp2934
sg19
(lp2935
sg21
I0
sba(iArchitecture
Entity
p2936
(dp2937
g11
(lp2938
sg13
S'android.content.pm.FeatureGroupInfo$1'
p2939
sg15
(lp2940
sg17
(lp2941
sg19
(lp2942
sg21
I0
sba(iArchitecture
Entity
p2943
(dp2944
g11
(lp2945
sg13
S'android.content.pm.FeatureInfo'
p2946
sg15
(lp2947
sg17
(lp2948
sg19
(lp2949
sg21
I0
sba(iArchitecture
Entity
p2950
(dp2951
g11
(lp2952
sg13
S'android.content.pm.FeatureInfo$1'
p2953
sg15
(lp2954
sg17
(lp2955
sg19
(lp2956
sg21
I0
sba(iArchitecture
Entity
p2957
(dp2958
g11
(lp2959
sg13
S'android.content.pm.ILauncherApps'
p2960
sg15
(lp2961
sg17
(lp2962
sg19
(lp2963
sg21
I0
sba(iArchitecture
Entity
p2964
(dp2965
g11
(lp2966
sg13
S'android.content.pm.ILauncherApps$Stub'
p2967
sg15
(lp2968
sg17
(lp2969
sg19
(lp2970
sg21
I0
sba(iArchitecture
Entity
p2971
(dp2972
g11
(lp2973
sg13
S'android.content.pm.ILauncherApps$Stub$Proxy'
p2974
sg15
(lp2975
sg17
(lp2976
sg19
(lp2977
sg21
I0
sba(iArchitecture
Entity
p2978
(dp2979
g11
(lp2980
sg13
S'android.content.pm.IOnAppsChangedListener'
p2981
sg15
(lp2982
sg17
(lp2983
sg19
(lp2984
sg21
I0
sba(iArchitecture
Entity
p2985
(dp2986
g11
(lp2987
sg13
S'android.content.pm.IOnAppsChangedListener$Stub'
p2988
sg15
(lp2989
sg17
(lp2990
sg19
(lp2991
sg21
I0
sba(iArchitecture
Entity
p2992
(dp2993
g11
(lp2994
sg13
S'android.content.pm.IOnAppsChangedListener$Stub$Proxy'
p2995
sg15
(lp2996
sg17
(lp2997
sg19
(lp2998
sg21
I0
sba(iArchitecture
Entity
p2999
(dp3000
g11
(lp3001
sg13
S'android.content.pm.IPackageInstallObserver'
p3002
sg15
(lp3003
sg17
(lp3004
sg19
(lp3005
sg21
I0
sba(iArchitecture
Entity
p3006
(dp3007
g11
(lp3008
sg13
S'android.content.pm.IPackageInstallObserver$Stub'
p3009
sg15
(lp3010
sg17
(lp3011
sg19
(lp3012
sg21
I0
sba(iArchitecture
Entity
p3013
(dp3014
g11
(lp3015
sg13
S'android.content.pm.IPackageInstallObserver$Stub$Proxy'
p3016
sg15
(lp3017
sg17
(lp3018
sg19
(lp3019
sg21
I0
sba(iArchitecture
Entity
p3020
(dp3021
g11
(lp3022
sg13
S'android.content.pm.InstrumentationInfo'
p3023
sg15
(lp3024
sg17
(lp3025
sg19
(lp3026
sg21
I0
sba(iArchitecture
Entity
p3027
(dp3028
g11
(lp3029
sg13
S'android.content.pm.InstrumentationInfo$1'
p3030
sg15
(lp3031
sg17
(lp3032
sg19
(lp3033
sg21
I0
sba(iArchitecture
Entity
p3034
(dp3035
g11
(lp3036
sg13
S'android.content.pm.IntentFilterVerificationInfo'
p3037
sg15
(lp3038
sg17
(lp3039
sg19
(lp3040
sg21
I0
sba(iArchitecture
Entity
p3041
(dp3042
g11
(lp3043
sg13
S'android.content.pm.IntentFilterVerificationInfo$1'
p3044
sg15
(lp3045
sg17
(lp3046
sg19
(lp3047
sg21
I0
sba(iArchitecture
Entity
p3048
(dp3049
g11
(lp3050
sg13
S'android.content.pm.KeySet'
p3051
sg15
(lp3052
sg17
(lp3053
sg19
(lp3054
sg21
I0
sba(iArchitecture
Entity
p3055
(dp3056
g11
(lp3057
sg13
S'android.content.pm.KeySet$1'
p3058
sg15
(lp3059
sg17
(lp3060
sg19
(lp3061
sg21
I0
sba(iArchitecture
Entity
p3062
(dp3063
g11
(lp3064
sg13
S'android.content.pm.LabeledIntent'
p3065
sg15
(lp3066
sg17
(lp3067
sg19
(lp3068
sg21
I0
sba(iArchitecture
Entity
p3069
(dp3070
g11
(lp3071
sg13
S'android.content.pm.LabeledIntent$1'
p3072
sg15
(lp3073
sg17
(lp3074
sg19
(lp3075
sg21
I0
sba(iArchitecture
Entity
p3076
(dp3077
g11
(lp3078
sg13
S'android.content.pm.LauncherActivityInfo'
p3079
sg15
(lp3080
sg17
(lp3081
sg19
(lp3082
sg21
I0
sba(iArchitecture
Entity
p3083
(dp3084
g11
(lp3085
sg13
S'android.content.pm.LauncherApps'
p3086
sg15
(lp3087
sg17
(lp3088
sg19
(lp3089
sg21
I0
sba(iArchitecture
Entity
p3090
(dp3091
g11
(lp3092
sg13
S'android.content.pm.LauncherApps$1'
p3093
sg15
(lp3094
sg17
(lp3095
sg19
(lp3096
sg21
I0
sba(iArchitecture
Entity
p3097
(dp3098
g11
(lp3099
sg13
S'android.content.pm.LauncherApps$Callback'
p3100
sg15
(lp3101
sg17
(lp3102
sg19
(lp3103
sg21
I0
sba(iArchitecture
Entity
p3104
(dp3105
g11
(lp3106
sg13
S'android.content.pm.LauncherApps$CallbackMessageHandler'
p3107
sg15
(lp3108
sg17
(lp3109
sg19
(lp3110
sg21
I0
sba(iArchitecture
Entity
p3111
(dp3112
g11
(lp3113
sg13
S'android.content.pm.LauncherApps$CallbackMessageHandler$CallbackInfo'
p3114
sg15
(lp3115
sg17
(lp3116
sg19
(lp3117
sg21
I0
sba(iArchitecture
Entity
p3118
(dp3119
g11
(lp3120
sg13
S'android.content.pm.LauncherApps$ShortcutQuery'
p3121
sg15
(lp3122
sg17
(lp3123
sg19
(lp3124
sg21
I0
sba(iArchitecture
Entity
p3125
(dp3126
g11
(lp3127
sg13
S'android.content.pm.PackageCleanItem'
p3128
sg15
(lp3129
sg17
(lp3130
sg19
(lp3131
sg21
I0
sba(iArchitecture
Entity
p3132
(dp3133
g11
(lp3134
sg13
S'android.content.pm.PackageCleanItem$1'
p3135
sg15
(lp3136
sg17
(lp3137
sg19
(lp3138
sg21
I0
sba(iArchitecture
Entity
p3139
(dp3140
g11
(lp3141
sg13
S'android.content.pm.PackageInfo'
p3142
sg15
(lp3143
sg17
(lp3144
sg19
(lp3145
sg21
I0
sba(iArchitecture
Entity
p3146
(dp3147
g11
(lp3148
sg13
S'android.content.pm.PackageInfo$1'
p3149
sg15
(lp3150
sg17
(lp3151
sg19
(lp3152
sg21
I0
sba(iArchitecture
Entity
p3153
(dp3154
g11
(lp3155
sg13
S'android.content.pm.PackageInfoLite'
p3156
sg15
(lp3157
sg17
(lp3158
sg19
(lp3159
sg21
I0
sba(iArchitecture
Entity
p3160
(dp3161
g11
(lp3162
sg13
S'android.content.pm.PackageInfoLite$1'
p3163
sg15
(lp3164
sg17
(lp3165
sg19
(lp3166
sg21
I0
sba(iArchitecture
Entity
p3167
(dp3168
g11
(lp3169
sg13
S'android.content.pm.PackageInstaller'
p3170
sg15
(lp3171
sg17
(lp3172
sg19
(lp3173
sg21
I0
sba(iArchitecture
Entity
p3174
(dp3175
g11
(lp3176
sg13
S'android.content.pm.PackageInstaller$SessionCallback'
p3177
sg15
(lp3178
sg17
(lp3179
sg19
(lp3180
sg21
I0
sba(iArchitecture
Entity
p3181
(dp3182
g11
(lp3183
sg13
S'android.content.pm.PackageInstaller$SessionCallbackDelegate'
p3184
sg15
(lp3185
sg17
(lp3186
sg19
(lp3187
sg21
I0
sba(iArchitecture
Entity
p3188
(dp3189
g11
(lp3190
sg13
S'android.content.pm.PackageItemInfo'
p3191
sg15
(lp3192
sg17
(lp3193
sg19
(lp3194
sg21
I0
sba(iArchitecture
Entity
p3195
(dp3196
g11
(lp3197
sg13
S'android.content.pm.PackageItemInfo$DisplayNameComparator'
p3198
sg15
(lp3199
sg17
(lp3200
sg19
(lp3201
sg21
I0
sba(iArchitecture
Entity
p3202
(dp3203
g11
(lp3204
sg13
S'android.content.pm.PackageParser'
p3205
sg15
(lp3206
sg17
(lp3207
sg19
(lp3208
sg21
I0
sba(iArchitecture
Entity
p3209
(dp3210
g11
(lp3211
sg13
S'android.content.pm.PackageParser$SplitNameComparator'
p3212
sg15
(lp3213
sg17
(lp3214
sg19
(lp3215
sg21
I0
sba(iArchitecture
Entity
p3216
(dp3217
g11
(lp3218
sg13
S'android.content.pm.PackageParser$SplitPermissionInfo'
p3219
sg15
(lp3220
sg17
(lp3221
sg19
(lp3222
sg21
I0
sba(iArchitecture
Entity
p3223
(dp3224
g11
(lp3225
sg13
S'android.content.pm.PackageStats'
p3226
sg15
(lp3227
sg17
(lp3228
sg19
(lp3229
sg21
I0
sba(iArchitecture
Entity
p3230
(dp3231
g11
(lp3232
sg13
S'android.content.pm.PackageStats$1'
p3233
sg15
(lp3234
sg17
(lp3235
sg19
(lp3236
sg21
I0
sba(iArchitecture
Entity
p3237
(dp3238
g11
(lp3239
sg13
S'android.content.pm.ParceledListSlice'
p3240
sg15
(lp3241
sg17
(lp3242
sg19
(lp3243
sg21
I0
sba(iArchitecture
Entity
p3244
(dp3245
g11
(lp3246
sg13
S'android.content.pm.ParceledListSlice$1'
p3247
sg15
(lp3248
sg17
(lp3249
sg19
(lp3250
sg21
I0
sba(iArchitecture
Entity
p3251
(dp3252
g11
(lp3253
sg13
S'android.content.pm.ParceledListSlice$2'
p3254
sg15
(lp3255
sg17
(lp3256
sg19
(lp3257
sg21
I0
sba(iArchitecture
Entity
p3258
(dp3259
g11
(lp3260
sg13
S'android.content.pm.PathPermission'
p3261
sg15
(lp3262
sg17
(lp3263
sg19
(lp3264
sg21
I0
sba(iArchitecture
Entity
p3265
(dp3266
g11
(lp3267
sg13
S'android.content.pm.PathPermission$1'
p3268
sg15
(lp3269
sg17
(lp3270
sg19
(lp3271
sg21
I0
sba(iArchitecture
Entity
p3272
(dp3273
g11
(lp3274
sg13
S'android.content.pm.PermissionGroupInfo'
p3275
sg15
(lp3276
sg17
(lp3277
sg19
(lp3278
sg21
I0
sba(iArchitecture
Entity
p3279
(dp3280
g11
(lp3281
sg13
S'android.content.pm.PermissionGroupInfo$1'
p3282
sg15
(lp3283
sg17
(lp3284
sg19
(lp3285
sg21
I0
sba(iArchitecture
Entity
p3286
(dp3287
g11
(lp3288
sg13
S'android.content.pm.PermissionInfo'
p3289
sg15
(lp3290
sg17
(lp3291
sg19
(lp3292
sg21
I0
sba(iArchitecture
Entity
p3293
(dp3294
g11
(lp3295
sg13
S'android.content.pm.PermissionInfo$1'
p3296
sg15
(lp3297
sg17
(lp3298
sg19
(lp3299
sg21
I0
sba(iArchitecture
Entity
p3300
(dp3301
g11
(lp3302
sg13
S'android.content.pm.ProviderInfo'
p3303
sg15
(lp3304
sg17
(lp3305
sg19
(lp3306
sg21
I0
sba(iArchitecture
Entity
p3307
(dp3308
g11
(lp3309
sg13
S'android.content.pm.ProviderInfo$1'
p3310
sg15
(lp3311
sg17
(lp3312
sg19
(lp3313
sg21
I0
sba(iArchitecture
Entity
p3314
(dp3315
g11
(lp3316
sg13
S'android.content.pm.RegisteredServicesCache'
p3317
sg15
(lp3318
sg17
(lp3319
sg19
(lp3320
sg21
I0
sba(iArchitecture
Entity
p3321
(dp3322
g11
(lp3323
sg13
S'android.content.pm.RegisteredServicesCache$1'
p3324
sg15
(lp3325
sg17
(lp3326
sg19
(lp3327
sg21
I0
sba(iArchitecture
Entity
p3328
(dp3329
g11
(lp3330
sg13
S'android.content.pm.RegisteredServicesCache$2'
p3331
sg15
(lp3332
sg17
(lp3333
sg19
(lp3334
sg21
I0
sba(iArchitecture
Entity
p3335
(dp3336
g11
(lp3337
sg13
S'android.content.pm.RegisteredServicesCache$3'
p3338
sg15
(lp3339
sg17
(lp3340
sg19
(lp3341
sg21
I0
sba(iArchitecture
Entity
p3342
(dp3343
g11
(lp3344
sg13
S'android.content.pm.RegisteredServicesCache$4'
p3345
sg15
(lp3346
sg17
(lp3347
sg19
(lp3348
sg21
I0
sba(iArchitecture
Entity
p3349
(dp3350
g11
(lp3351
sg13
S'android.content.pm.RegisteredServicesCache$UserServices'
p3352
sg15
(lp3353
sg17
(lp3354
sg19
(lp3355
sg21
I0
sba(iArchitecture
Entity
p3356
(dp3357
g11
(lp3358
sg13
S'android.content.pm.ResolveInfo'
p3359
sg15
(lp3360
sg17
(lp3361
sg19
(lp3362
sg21
I0
sba(iArchitecture
Entity
p3363
(dp3364
g11
(lp3365
sg13
S'android.content.pm.ResolveInfo$1'
p3366
sg15
(lp3367
sg17
(lp3368
sg19
(lp3369
sg21
I0
sba(iArchitecture
Entity
p3370
(dp3371
g11
(lp3372
sg13
S'android.content.pm.ResolveInfo$DisplayNameComparator'
p3373
sg15
(lp3374
sg17
(lp3375
sg19
(lp3376
sg21
I0
sba(iArchitecture
Entity
p3377
(dp3378
g11
(lp3379
sg13
S'android.content.pm.ServiceInfo'
p3380
sg15
(lp3381
sg17
(lp3382
sg19
(lp3383
sg21
I0
sba(iArchitecture
Entity
p3384
(dp3385
g11
(lp3386
sg13
S'android.content.pm.ServiceInfo$1'
p3387
sg15
(lp3388
sg17
(lp3389
sg19
(lp3390
sg21
I0
sba(iArchitecture
Entity
p3391
(dp3392
g11
(lp3393
sg13
S'android.content.pm.ShortcutInfo'
p3394
sg15
(lp3395
sg17
(lp3396
sg19
(lp3397
sg21
I0
sba(iArchitecture
Entity
p3398
(dp3399
g11
(lp3400
sg13
S'android.content.pm.ShortcutInfo$1'
p3401
sg15
(lp3402
sg17
(lp3403
sg19
(lp3404
sg21
I0
sba(iArchitecture
Entity
p3405
(dp3406
g11
(lp3407
sg13
S'android.content.pm.ShortcutInfo$Builder'
p3408
sg15
(lp3409
sg17
(lp3410
sg19
(lp3411
sg21
I0
sba(iArchitecture
Entity
p3412
(dp3413
g11
(lp3414
sg13
S'android.content.pm.Signature'
p3415
sg15
(lp3416
sg17
(lp3417
sg19
(lp3418
sg21
I0
sba(iArchitecture
Entity
p3419
(dp3420
g11
(lp3421
sg13
S'android.content.pm.Signature$1'
p3422
sg15
(lp3423
sg17
(lp3424
sg19
(lp3425
sg21
I0
sba(iArchitecture
Entity
p3426
(dp3427
g11
(lp3428
sg13
S'android.content.pm.UserInfo'
p3429
sg15
(lp3430
sg17
(lp3431
sg19
(lp3432
sg21
I0
sba(iArchitecture
Entity
p3433
(dp3434
g11
(lp3435
sg13
S'android.content.pm.UserInfo$1'
p3436
sg15
(lp3437
sg17
(lp3438
sg19
(lp3439
sg21
I0
sba(iArchitecture
Entity
p3440
(dp3441
g11
(lp3442
sg13
S'android.content.pm.VerificationParams'
p3443
sg15
(lp3444
sg17
(lp3445
sg19
(lp3446
sg21
I0
sba(iArchitecture
Entity
p3447
(dp3448
g11
(lp3449
sg13
S'android.content.pm.VerificationParams$1'
p3450
sg15
(lp3451
sg17
(lp3452
sg19
(lp3453
sg21
I0
sba(iArchitecture
Entity
p3454
(dp3455
g11
(lp3456
sg13
S'android.content.pm.VerifierDeviceIdentity'
p3457
sg15
(lp3458
sg17
(lp3459
sg19
(lp3460
sg21
I0
sba(iArchitecture
Entity
p3461
(dp3462
g11
(lp3463
sg13
S'android.content.pm.VerifierDeviceIdentity$1'
p3464
sg15
(lp3465
sg17
(lp3466
sg19
(lp3467
sg21
I0
sba(iArchitecture
Entity
p3468
(dp3469
g11
(lp3470
sg13
S'android.content.pm.VerifierInfo'
p3471
sg15
(lp3472
sg17
(lp3473
sg19
(lp3474
sg21
I0
sba(iArchitecture
Entity
p3475
(dp3476
g11
(lp3477
sg13
S'android.content.pm.VerifierInfo$1'
p3478
sg15
(lp3479
sg17
(lp3480
sg19
(lp3481
sg21
I0
sbasg218
(lp3482
g2855
ag2862
ag2869
ag2876
ag2883
ag2890
ag2897
ag2904
ag2911
ag2918
ag2925
ag2932
ag2939
ag2946
ag2953
ag2960
ag2967
ag2974
ag2981
ag2988
ag2995
ag3002
ag3009
ag3016
ag3023
ag3030
ag3037
ag3044
ag3051
ag3058
ag3065
ag3072
ag3079
ag3086
ag3093
ag3100
ag3107
ag3114
ag3121
ag3128
ag3135
ag3142
ag3149
ag3156
ag3163
ag3170
ag3177
ag3184
ag3191
ag3198
ag3205
ag3212
ag3219
ag3226
ag3233
ag3240
ag3247
ag3254
ag3261
ag3268
ag3275
ag3282
ag3289
ag3296
ag3303
ag3310
ag3317
ag3324
ag3331
ag3338
ag3345
ag3352
ag3359
ag3366
ag3373
ag3380
ag3387
ag3394
ag3401
ag3408
ag3415
ag3422
ag3429
ag3436
ag3443
ag3450
ag3457
ag3464
ag3471
ag3478
asg21
I0
sg220
S'android.content.pm.ss'
p3483
sba(iArchitecture
Cluster
p3484
(dp3485
g7
(lp3486
(iArchitecture
Entity
p3487
(dp3488
g11
(lp3489
sg13
S'android.content.res.AssetFileDescriptor'
p3490
sg15
(lp3491
sg17
(lp3492
sg19
(lp3493
sg21
I0
sba(iArchitecture
Entity
p3494
(dp3495
g11
(lp3496
sg13
S'android.content.res.AssetFileDescriptor$1'
p3497
sg15
(lp3498
sg17
(lp3499
sg19
(lp3500
sg21
I0
sba(iArchitecture
Entity
p3501
(dp3502
g11
(lp3503
sg13
S'android.content.res.AssetFileDescriptor$AutoCloseInputStream'
p3504
sg15
(lp3505
sg17
(lp3506
sg19
(lp3507
sg21
I0
sba(iArchitecture
Entity
p3508
(dp3509
g11
(lp3510
sg13
S'android.content.res.AssetFileDescriptor$AutoCloseOutputStream'
p3511
sg15
(lp3512
sg17
(lp3513
sg19
(lp3514
sg21
I0
sba(iArchitecture
Entity
p3515
(dp3516
g11
(lp3517
sg13
S'android.content.res.ColorStateList'
p3518
sg15
(lp3519
sg17
(lp3520
sg19
(lp3521
sg21
I0
sba(iArchitecture
Entity
p3522
(dp3523
g11
(lp3524
sg13
S'android.content.res.ColorStateList$1'
p3525
sg15
(lp3526
sg17
(lp3527
sg19
(lp3528
sg21
I0
sba(iArchitecture
Entity
p3529
(dp3530
g11
(lp3531
sg13
S'android.content.res.ColorStateList$ColorStateListFactory'
p3532
sg15
(lp3533
sg17
(lp3534
sg19
(lp3535
sg21
I0
sba(iArchitecture
Entity
p3536
(dp3537
g11
(lp3538
sg13
S'android.content.res.CompatibilityInfo'
p3539
sg15
(lp3540
sg17
(lp3541
sg19
(lp3542
sg21
I0
sba(iArchitecture
Entity
p3543
(dp3544
g11
(lp3545
sg13
S'android.content.res.CompatibilityInfo$1'
p3546
sg15
(lp3547
sg17
(lp3548
sg19
(lp3549
sg21
I0
sba(iArchitecture
Entity
p3550
(dp3551
g11
(lp3552
sg13
S'android.content.res.CompatibilityInfo$2'
p3553
sg15
(lp3554
sg17
(lp3555
sg19
(lp3556
sg21
I0
sba(iArchitecture
Entity
p3557
(dp3558
g11
(lp3559
sg13
S'android.content.res.ComplexColor'
p3560
sg15
(lp3561
sg17
(lp3562
sg19
(lp3563
sg21
I0
sba(iArchitecture
Entity
p3564
(dp3565
g11
(lp3566
sg13
S'android.content.res.Configuration'
p3567
sg15
(lp3568
sg17
(lp3569
sg19
(lp3570
sg21
I0
sba(iArchitecture
Entity
p3571
(dp3572
g11
(lp3573
sg13
S'android.content.res.Configuration$1'
p3574
sg15
(lp3575
sg17
(lp3576
sg19
(lp3577
sg21
I0
sba(iArchitecture
Entity
p3578
(dp3579
g11
(lp3580
sg13
S'android.content.res.ConfigurationBoundResourceCache'
p3581
sg15
(lp3582
sg17
(lp3583
sg19
(lp3584
sg21
I0
sba(iArchitecture
Entity
p3585
(dp3586
g11
(lp3587
sg13
S'android.content.res.ConstantState'
p3588
sg15
(lp3589
sg17
(lp3590
sg19
(lp3591
sg21
I0
sba(iArchitecture
Entity
p3592
(dp3593
g11
(lp3594
sg13
S'android.content.res.DrawableCache'
p3595
sg15
(lp3596
sg17
(lp3597
sg19
(lp3598
sg21
I0
sba(iArchitecture
Entity
p3599
(dp3600
g11
(lp3601
sg13
S'android.content.res.GradientColor'
p3602
sg15
(lp3603
sg17
(lp3604
sg19
(lp3605
sg21
I0
sba(iArchitecture
Entity
p3606
(dp3607
g11
(lp3608
sg13
S'android.content.res.GradientColor$GradientColorFactory'
p3609
sg15
(lp3610
sg17
(lp3611
sg19
(lp3612
sg21
I0
sba(iArchitecture
Entity
p3613
(dp3614
g11
(lp3615
sg13
S'android.content.res.ObbInfo'
p3616
sg15
(lp3617
sg17
(lp3618
sg19
(lp3619
sg21
I0
sba(iArchitecture
Entity
p3620
(dp3621
g11
(lp3622
sg13
S'android.content.res.ObbInfo$1'
p3623
sg15
(lp3624
sg17
(lp3625
sg19
(lp3626
sg21
I0
sba(iArchitecture
Entity
p3627
(dp3628
g11
(lp3629
sg13
S'android.content.res.Resources'
p3630
sg15
(lp3631
sg17
(lp3632
sg19
(lp3633
sg21
I0
sba(iArchitecture
Entity
p3634
(dp3635
g11
(lp3636
sg13
S'android.content.res.Resources$ThemeKey'
p3637
sg15
(lp3638
sg17
(lp3639
sg19
(lp3640
sg21
I0
sba(iArchitecture
Entity
p3641
(dp3642
g11
(lp3643
sg13
S'android.content.res.ResourcesImpl'
p3644
sg15
(lp3645
sg17
(lp3646
sg19
(lp3647
sg21
I0
sba(iArchitecture
Entity
p3648
(dp3649
g11
(lp3650
sg13
S'android.content.res.ResourcesImpl$ThemeImpl'
p3651
sg15
(lp3652
sg17
(lp3653
sg19
(lp3654
sg21
I0
sba(iArchitecture
Entity
p3655
(dp3656
g11
(lp3657
sg13
S'android.content.res.StringBlock'
p3658
sg15
(lp3659
sg17
(lp3660
sg19
(lp3661
sg21
I0
sba(iArchitecture
Entity
p3662
(dp3663
g11
(lp3664
sg13
S'android.content.res.StringBlock$Height'
p3665
sg15
(lp3666
sg17
(lp3667
sg19
(lp3668
sg21
I0
sba(iArchitecture
Entity
p3669
(dp3670
g11
(lp3671
sg13
S'android.content.res.StringBlock$StyleIDs'
p3672
sg15
(lp3673
sg17
(lp3674
sg19
(lp3675
sg21
I0
sba(iArchitecture
Entity
p3676
(dp3677
g11
(lp3678
sg13
S'android.content.res.ThemedResourceCache'
p3679
sg15
(lp3680
sg17
(lp3681
sg19
(lp3682
sg21
I0
sbasg218
(lp3683
g3490
ag3497
ag3504
ag3511
ag3518
ag3525
ag3532
ag3539
ag3546
ag3553
ag3560
ag3567
ag3574
ag3581
ag3588
ag3595
ag3602
ag3609
ag3616
ag3623
ag3630
ag3637
ag3644
ag3651
ag3658
ag3665
ag3672
ag3679
asg21
I0
sg220
S'android.content.res.ss'
p3684
sba(iArchitecture
Cluster
p3685
(dp3686
g7
(lp3687
(iArchitecture
Entity
p3688
(dp3689
g11
(lp3690
sg13
S'android.content.AbstractThreadedSyncAdapter'
p3691
sg15
(lp3692
sg17
(lp3693
sg19
(lp3694
sg21
I0
sba(iArchitecture
Entity
p3695
(dp3696
g11
(lp3697
sg13
S'android.content.AbstractThreadedSyncAdapter$ISyncAdapterImpl'
p3698
sg15
(lp3699
sg17
(lp3700
sg19
(lp3701
sg21
I0
sba(iArchitecture
Entity
p3702
(dp3703
g11
(lp3704
sg13
S'android.content.AbstractThreadedSyncAdapter$SyncThread'
p3705
sg15
(lp3706
sg17
(lp3707
sg19
(lp3708
sg21
I0
sba(iArchitecture
Entity
p3709
(dp3710
g11
(lp3711
sg13
S'android.content.AsyncTaskLoader'
p3712
sg15
(lp3713
sg17
(lp3714
sg19
(lp3715
sg21
I0
sba(iArchitecture
Entity
p3716
(dp3717
g11
(lp3718
sg13
S'android.content.AsyncTaskLoader$LoadTask'
p3719
sg15
(lp3720
sg17
(lp3721
sg19
(lp3722
sg21
I0
sba(iArchitecture
Entity
p3723
(dp3724
g11
(lp3725
sg13
S'android.content.ClipData'
p3726
sg15
(lp3727
sg17
(lp3728
sg19
(lp3729
sg21
I0
sba(iArchitecture
Entity
p3730
(dp3731
g11
(lp3732
sg13
S'android.content.ClipData$1'
p3733
sg15
(lp3734
sg17
(lp3735
sg19
(lp3736
sg21
I0
sba(iArchitecture
Entity
p3737
(dp3738
g11
(lp3739
sg13
S'android.content.ClipDescription'
p3740
sg15
(lp3741
sg17
(lp3742
sg19
(lp3743
sg21
I0
sba(iArchitecture
Entity
p3744
(dp3745
g11
(lp3746
sg13
S'android.content.ClipDescription$1'
p3747
sg15
(lp3748
sg17
(lp3749
sg19
(lp3750
sg21
I0
sba(iArchitecture
Entity
p3751
(dp3752
g11
(lp3753
sg13
S'android.content.ClipboardManager'
p3754
sg15
(lp3755
sg17
(lp3756
sg19
(lp3757
sg21
I0
sba(iArchitecture
Entity
p3758
(dp3759
g11
(lp3760
sg13
S'android.content.ClipboardManager$1'
p3761
sg15
(lp3762
sg17
(lp3763
sg19
(lp3764
sg21
I0
sba(iArchitecture
Entity
p3765
(dp3766
g11
(lp3767
sg13
S'android.content.ClipboardManager$2'
p3768
sg15
(lp3769
sg17
(lp3770
sg19
(lp3771
sg21
I0
sba(iArchitecture
Entity
p3772
(dp3773
g11
(lp3774
sg13
S'android.content.ClipboardManager$OnPrimaryClipChangedListener'
p3775
sg15
(lp3776
sg17
(lp3777
sg19
(lp3778
sg21
I0
sba(iArchitecture
Entity
p3779
(dp3780
g11
(lp3781
sg13
S'android.content.ComponentName'
p3782
sg15
(lp3783
sg17
(lp3784
sg19
(lp3785
sg21
I0
sba(iArchitecture
Entity
p3786
(dp3787
g11
(lp3788
sg13
S'android.content.ComponentName$1'
p3789
sg15
(lp3790
sg17
(lp3791
sg19
(lp3792
sg21
I0
sba(iArchitecture
Entity
p3793
(dp3794
g11
(lp3795
sg13
S'android.content.ContentInsertHandler'
p3796
sg15
(lp3797
sg17
(lp3798
sg19
(lp3799
sg21
I0
sba(iArchitecture
Entity
p3800
(dp3801
g11
(lp3802
sg13
S'android.content.ContentProvider'
p3803
sg15
(lp3804
sg17
(lp3805
sg19
(lp3806
sg21
I0
sba(iArchitecture
Entity
p3807
(dp3808
g11
(lp3809
sg13
S'android.content.ContentProvider$1'
p3810
sg15
(lp3811
sg17
(lp3812
sg19
(lp3813
sg21
I0
sba(iArchitecture
Entity
p3814
(dp3815
g11
(lp3816
sg13
S'android.content.ContentProvider$PipeDataWriter'
p3817
sg15
(lp3818
sg17
(lp3819
sg19
(lp3820
sg21
I0
sba(iArchitecture
Entity
p3821
(dp3822
g11
(lp3823
sg13
S'android.content.ContentProvider$Transport'
p3824
sg15
(lp3825
sg17
(lp3826
sg19
(lp3827
sg21
I0
sba(iArchitecture
Entity
p3828
(dp3829
g11
(lp3830
sg13
S'android.content.ContentProviderClient'
p3831
sg15
(lp3832
sg17
(lp3833
sg19
(lp3834
sg21
I0
sba(iArchitecture
Entity
p3835
(dp3836
g11
(lp3837
sg13
S'android.content.ContentProviderClient$CursorWrapperInner'
p3838
sg15
(lp3839
sg17
(lp3840
sg19
(lp3841
sg21
I0
sba(iArchitecture
Entity
p3842
(dp3843
g11
(lp3844
sg13
S'android.content.ContentProviderClient$NotRespondingRunnable'
p3845
sg15
(lp3846
sg17
(lp3847
sg19
(lp3848
sg21
I0
sba(iArchitecture
Entity
p3849
(dp3850
g11
(lp3851
sg13
S'android.content.ContentProviderNative'
p3852
sg15
(lp3853
sg17
(lp3854
sg19
(lp3855
sg21
I0
sba(iArchitecture
Entity
p3856
(dp3857
g11
(lp3858
sg13
S'android.content.ContentProviderOperation'
p3859
sg15
(lp3860
sg17
(lp3861
sg19
(lp3862
sg21
I0
sba(iArchitecture
Entity
p3863
(dp3864
g11
(lp3865
sg13
S'android.content.ContentProviderOperation$1'
p3866
sg15
(lp3867
sg17
(lp3868
sg19
(lp3869
sg21
I0
sba(iArchitecture
Entity
p3870
(dp3871
g11
(lp3872
sg13
S'android.content.ContentProviderProxy'
p3873
sg15
(lp3874
sg17
(lp3875
sg19
(lp3876
sg21
I0
sba(iArchitecture
Entity
p3877
(dp3878
g11
(lp3879
sg13
S'android.content.ContentProviderResult'
p3880
sg15
(lp3881
sg17
(lp3882
sg19
(lp3883
sg21
I0
sba(iArchitecture
Entity
p3884
(dp3885
g11
(lp3886
sg13
S'android.content.ContentProviderResult$1'
p3887
sg15
(lp3888
sg17
(lp3889
sg19
(lp3890
sg21
I0
sba(iArchitecture
Entity
p3891
(dp3892
g11
(lp3893
sg13
S'android.content.ContentQueryMap'
p3894
sg15
(lp3895
sg17
(lp3896
sg19
(lp3897
sg21
I0
sba(iArchitecture
Entity
p3898
(dp3899
g11
(lp3900
sg13
S'android.content.ContentQueryMap$1'
p3901
sg15
(lp3902
sg17
(lp3903
sg19
(lp3904
sg21
I0
sba(iArchitecture
Entity
p3905
(dp3906
g11
(lp3907
sg13
S'android.content.ContentResolver'
p3908
sg15
(lp3909
sg17
(lp3910
sg19
(lp3911
sg21
I0
sba(iArchitecture
Entity
p3912
(dp3913
g11
(lp3914
sg13
S'android.content.ContentResolver$1'
p3915
sg15
(lp3916
sg17
(lp3917
sg19
(lp3918
sg21
I0
sba(iArchitecture
Entity
p3919
(dp3920
g11
(lp3921
sg13
S'android.content.ContentResolver$CursorWrapperInner'
p3922
sg15
(lp3923
sg17
(lp3924
sg19
(lp3925
sg21
I0
sba(iArchitecture
Entity
p3926
(dp3927
g11
(lp3928
sg13
S'android.content.ContentResolver$OpenResourceIdResult'
p3929
sg15
(lp3930
sg17
(lp3931
sg19
(lp3932
sg21
I0
sba(iArchitecture
Entity
p3933
(dp3934
g11
(lp3935
sg13
S'android.content.ContentResolver$ParcelFileDescriptorInner'
p3936
sg15
(lp3937
sg17
(lp3938
sg19
(lp3939
sg21
I0
sba(iArchitecture
Entity
p3940
(dp3941
g11
(lp3942
sg13
S'android.content.ContentValues'
p3943
sg15
(lp3944
sg17
(lp3945
sg19
(lp3946
sg21
I0
sba(iArchitecture
Entity
p3947
(dp3948
g11
(lp3949
sg13
S'android.content.ContentValues$1'
p3950
sg15
(lp3951
sg17
(lp3952
sg19
(lp3953
sg21
I0
sba(iArchitecture
Entity
p3954
(dp3955
g11
(lp3956
sg13
S'android.content.DefaultDataHandler'
p3957
sg15
(lp3958
sg17
(lp3959
sg19
(lp3960
sg21
I0
sba(iArchitecture
Entity
p3961
(dp3962
g11
(lp3963
sg13
S'android.content.Entity'
p3964
sg15
(lp3965
sg17
(lp3966
sg19
(lp3967
sg21
I0
sba(iArchitecture
Entity
p3968
(dp3969
g11
(lp3970
sg13
S'android.content.Entity$NamedContentValues'
p3971
sg15
(lp3972
sg17
(lp3973
sg19
(lp3974
sg21
I0
sba(iArchitecture
Entity
p3975
(dp3976
g11
(lp3977
sg13
S'android.content.IClipboard'
p3978
sg15
(lp3979
sg17
(lp3980
sg19
(lp3981
sg21
I0
sba(iArchitecture
Entity
p3982
(dp3983
g11
(lp3984
sg13
S'android.content.IClipboard$Stub'
p3985
sg15
(lp3986
sg17
(lp3987
sg19
(lp3988
sg21
I0
sba(iArchitecture
Entity
p3989
(dp3990
g11
(lp3991
sg13
S'android.content.IClipboard$Stub$Proxy'
p3992
sg15
(lp3993
sg17
(lp3994
sg19
(lp3995
sg21
I0
sba(iArchitecture
Entity
p3996
(dp3997
g11
(lp3998
sg13
S'android.content.IContentProvider'
p3999
sg15
(lp4000
sg17
(lp4001
sg19
(lp4002
sg21
I0
sba(iArchitecture
Entity
p4003
(dp4004
g11
(lp4005
sg13
S'android.content.IContentService'
p4006
sg15
(lp4007
sg17
(lp4008
sg19
(lp4009
sg21
I0
sba(iArchitecture
Entity
p4010
(dp4011
g11
(lp4012
sg13
S'android.content.IContentService$Stub'
p4013
sg15
(lp4014
sg17
(lp4015
sg19
(lp4016
sg21
I0
sba(iArchitecture
Entity
p4017
(dp4018
g11
(lp4019
sg13
S'android.content.IContentService$Stub$Proxy'
p4020
sg15
(lp4021
sg17
(lp4022
sg19
(lp4023
sg21
I0
sba(iArchitecture
Entity
p4024
(dp4025
g11
(lp4026
sg13
S'android.content.IOnPrimaryClipChangedListener'
p4027
sg15
(lp4028
sg17
(lp4029
sg19
(lp4030
sg21
I0
sba(iArchitecture
Entity
p4031
(dp4032
g11
(lp4033
sg13
S'android.content.IOnPrimaryClipChangedListener$Stub'
p4034
sg15
(lp4035
sg17
(lp4036
sg19
(lp4037
sg21
I0
sba(iArchitecture
Entity
p4038
(dp4039
g11
(lp4040
sg13
S'android.content.IOnPrimaryClipChangedListener$Stub$Proxy'
p4041
sg15
(lp4042
sg17
(lp4043
sg19
(lp4044
sg21
I0
sba(iArchitecture
Entity
p4045
(dp4046
g11
(lp4047
sg13
S'android.content.ISyncContext'
p4048
sg15
(lp4049
sg17
(lp4050
sg19
(lp4051
sg21
I0
sba(iArchitecture
Entity
p4052
(dp4053
g11
(lp4054
sg13
S'android.content.ISyncContext$Stub'
p4055
sg15
(lp4056
sg17
(lp4057
sg19
(lp4058
sg21
I0
sba(iArchitecture
Entity
p4059
(dp4060
g11
(lp4061
sg13
S'android.content.ISyncContext$Stub$Proxy'
p4062
sg15
(lp4063
sg17
(lp4064
sg19
(lp4065
sg21
I0
sba(iArchitecture
Entity
p4066
(dp4067
g11
(lp4068
sg13
S'android.content.ISyncServiceAdapter'
p4069
sg15
(lp4070
sg17
(lp4071
sg19
(lp4072
sg21
I0
sba(iArchitecture
Entity
p4073
(dp4074
g11
(lp4075
sg13
S'android.content.ISyncServiceAdapter$Stub'
p4076
sg15
(lp4077
sg17
(lp4078
sg19
(lp4079
sg21
I0
sba(iArchitecture
Entity
p4080
(dp4081
g11
(lp4082
sg13
S'android.content.ISyncServiceAdapter$Stub$Proxy'
p4083
sg15
(lp4084
sg17
(lp4085
sg19
(lp4086
sg21
I0
sba(iArchitecture
Entity
p4087
(dp4088
g11
(lp4089
sg13
S'android.content.ISyncStatusObserver'
p4090
sg15
(lp4091
sg17
(lp4092
sg19
(lp4093
sg21
I0
sba(iArchitecture
Entity
p4094
(dp4095
g11
(lp4096
sg13
S'android.content.ISyncStatusObserver$Stub'
p4097
sg15
(lp4098
sg17
(lp4099
sg19
(lp4100
sg21
I0
sba(iArchitecture
Entity
p4101
(dp4102
g11
(lp4103
sg13
S'android.content.ISyncStatusObserver$Stub$Proxy'
p4104
sg15
(lp4105
sg17
(lp4106
sg19
(lp4107
sg21
I0
sba(iArchitecture
Entity
p4108
(dp4109
g11
(lp4110
sg13
S'android.content.Intent'
p4111
sg15
(lp4112
sg17
(lp4113
sg19
(lp4114
sg21
I0
sba(iArchitecture
Entity
p4115
(dp4116
g11
(lp4117
sg13
S'android.content.Intent$1'
p4118
sg15
(lp4119
sg17
(lp4120
sg19
(lp4121
sg21
I0
sba(iArchitecture
Entity
p4122
(dp4123
g11
(lp4124
sg13
S'android.content.Intent$ShortcutIconResource'
p4125
sg15
(lp4126
sg17
(lp4127
sg19
(lp4128
sg21
I0
sba(iArchitecture
Entity
p4129
(dp4130
g11
(lp4131
sg13
S'android.content.Intent$ShortcutIconResource$1'
p4132
sg15
(lp4133
sg17
(lp4134
sg19
(lp4135
sg21
I0
sba(iArchitecture
Entity
p4136
(dp4137
g11
(lp4138
sg13
S'android.content.IntentFilter'
p4139
sg15
(lp4140
sg17
(lp4141
sg19
(lp4142
sg21
I0
sba(iArchitecture
Entity
p4143
(dp4144
g11
(lp4145
sg13
S'android.content.IntentFilter$1'
p4146
sg15
(lp4147
sg17
(lp4148
sg19
(lp4149
sg21
I0
sba(iArchitecture
Entity
p4150
(dp4151
g11
(lp4152
sg13
S'android.content.IntentSender'
p4153
sg15
(lp4154
sg17
(lp4155
sg19
(lp4156
sg21
I0
sba(iArchitecture
Entity
p4157
(dp4158
g11
(lp4159
sg13
S'android.content.IntentSender$1'
p4160
sg15
(lp4161
sg17
(lp4162
sg19
(lp4163
sg21
I0
sba(iArchitecture
Entity
p4164
(dp4165
g11
(lp4166
sg13
S'android.content.IntentSender$FinishedDispatcher'
p4167
sg15
(lp4168
sg17
(lp4169
sg19
(lp4170
sg21
I0
sba(iArchitecture
Entity
p4171
(dp4172
g11
(lp4173
sg13
S'android.content.IntentSender$OnFinished'
p4174
sg15
(lp4175
sg17
(lp4176
sg19
(lp4177
sg21
I0
sba(iArchitecture
Entity
p4178
(dp4179
g11
(lp4180
sg13
S'android.content.OperationApplicationException'
p4181
sg15
(lp4182
sg17
(lp4183
sg19
(lp4184
sg21
I0
sba(iArchitecture
Entity
p4185
(dp4186
g11
(lp4187
sg13
S'android.content.PeriodicSync'
p4188
sg15
(lp4189
sg17
(lp4190
sg19
(lp4191
sg21
I0
sba(iArchitecture
Entity
p4192
(dp4193
g11
(lp4194
sg13
S'android.content.PeriodicSync$1'
p4195
sg15
(lp4196
sg17
(lp4197
sg19
(lp4198
sg21
I0
sba(iArchitecture
Entity
p4199
(dp4200
g11
(lp4201
sg13
S'android.content.RestrictionEntry'
p4202
sg15
(lp4203
sg17
(lp4204
sg19
(lp4205
sg21
I0
sba(iArchitecture
Entity
p4206
(dp4207
g11
(lp4208
sg13
S'android.content.RestrictionEntry$1'
p4209
sg15
(lp4210
sg17
(lp4211
sg19
(lp4212
sg21
I0
sba(iArchitecture
Entity
p4213
(dp4214
g11
(lp4215
sg13
S'android.content.SearchRecentSuggestionsProvider'
p4216
sg15
(lp4217
sg17
(lp4218
sg19
(lp4219
sg21
I0
sba(iArchitecture
Entity
p4220
(dp4221
g11
(lp4222
sg13
S'android.content.SearchRecentSuggestionsProvider$DatabaseHelper'
p4223
sg15
(lp4224
sg17
(lp4225
sg19
(lp4226
sg21
I0
sba(iArchitecture
Entity
p4227
(dp4228
g11
(lp4229
sg13
S'android.content.SyncAdapterType'
p4230
sg15
(lp4231
sg17
(lp4232
sg19
(lp4233
sg21
I0
sba(iArchitecture
Entity
p4234
(dp4235
g11
(lp4236
sg13
S'android.content.SyncAdapterType$1'
p4237
sg15
(lp4238
sg17
(lp4239
sg19
(lp4240
sg21
I0
sba(iArchitecture
Entity
p4241
(dp4242
g11
(lp4243
sg13
S'android.content.SyncAdaptersCache'
p4244
sg15
(lp4245
sg17
(lp4246
sg19
(lp4247
sg21
I0
sba(iArchitecture
Entity
p4248
(dp4249
g11
(lp4250
sg13
S'android.content.SyncAdaptersCache$MySerializer'
p4251
sg15
(lp4252
sg17
(lp4253
sg19
(lp4254
sg21
I0
sba(iArchitecture
Entity
p4255
(dp4256
g11
(lp4257
sg13
S'android.content.SyncContext'
p4258
sg15
(lp4259
sg17
(lp4260
sg19
(lp4261
sg21
I0
sba(iArchitecture
Entity
p4262
(dp4263
g11
(lp4264
sg13
S'android.content.SyncInfo'
p4265
sg15
(lp4266
sg17
(lp4267
sg19
(lp4268
sg21
I0
sba(iArchitecture
Entity
p4269
(dp4270
g11
(lp4271
sg13
S'android.content.SyncInfo$1'
p4272
sg15
(lp4273
sg17
(lp4274
sg19
(lp4275
sg21
I0
sba(iArchitecture
Entity
p4276
(dp4277
g11
(lp4278
sg13
S'android.content.SyncRequest'
p4279
sg15
(lp4280
sg17
(lp4281
sg19
(lp4282
sg21
I0
sba(iArchitecture
Entity
p4283
(dp4284
g11
(lp4285
sg13
S'android.content.SyncRequest$1'
p4286
sg15
(lp4287
sg17
(lp4288
sg19
(lp4289
sg21
I0
sba(iArchitecture
Entity
p4290
(dp4291
g11
(lp4292
sg13
S'android.content.SyncRequest$Builder'
p4293
sg15
(lp4294
sg17
(lp4295
sg19
(lp4296
sg21
I0
sba(iArchitecture
Entity
p4297
(dp4298
g11
(lp4299
sg13
S'android.content.SyncResult'
p4300
sg15
(lp4301
sg17
(lp4302
sg19
(lp4303
sg21
I0
sba(iArchitecture
Entity
p4304
(dp4305
g11
(lp4306
sg13
S'android.content.SyncResult$1'
p4307
sg15
(lp4308
sg17
(lp4309
sg19
(lp4310
sg21
I0
sba(iArchitecture
Entity
p4311
(dp4312
g11
(lp4313
sg13
S'android.content.SyncStats'
p4314
sg15
(lp4315
sg17
(lp4316
sg19
(lp4317
sg21
I0
sba(iArchitecture
Entity
p4318
(dp4319
g11
(lp4320
sg13
S'android.content.SyncStats$1'
p4321
sg15
(lp4322
sg17
(lp4323
sg19
(lp4324
sg21
I0
sba(iArchitecture
Entity
p4325
(dp4326
g11
(lp4327
sg13
S'android.content.SyncStatusInfo'
p4328
sg15
(lp4329
sg17
(lp4330
sg19
(lp4331
sg21
I0
sba(iArchitecture
Entity
p4332
(dp4333
g11
(lp4334
sg13
S'android.content.SyncStatusInfo$1'
p4335
sg15
(lp4336
sg17
(lp4337
sg19
(lp4338
sg21
I0
sba(iArchitecture
Entity
p4339
(dp4340
g11
(lp4341
sg13
S'android.content.SyncStatusObserver'
p4342
sg15
(lp4343
sg17
(lp4344
sg19
(lp4345
sg21
I0
sba(iArchitecture
Entity
p4346
(dp4347
g11
(lp4348
sg13
S'android.content.UndoManager'
p4349
sg15
(lp4350
sg17
(lp4351
sg19
(lp4352
sg21
I0
sba(iArchitecture
Entity
p4353
(dp4354
g11
(lp4355
sg13
S'android.content.UndoManager$UndoState'
p4356
sg15
(lp4357
sg17
(lp4358
sg19
(lp4359
sg21
I0
sba(iArchitecture
Entity
p4360
(dp4361
g11
(lp4362
sg13
S'android.content.UndoOperation'
p4363
sg15
(lp4364
sg17
(lp4365
sg19
(lp4366
sg21
I0
sba(iArchitecture
Entity
p4367
(dp4368
g11
(lp4369
sg13
S'android.content.UndoOwner'
p4370
sg15
(lp4371
sg17
(lp4372
sg19
(lp4373
sg21
I0
sba(iArchitecture
Entity
p4374
(dp4375
g11
(lp4376
sg13
S'android.content.UriMatcher'
p4377
sg15
(lp4378
sg17
(lp4379
sg19
(lp4380
sg21
I0
sba(iArchitecture
Entity
p4381
(dp4382
g11
(lp4383
sg13
S'android.content.UriPermission'
p4384
sg15
(lp4385
sg17
(lp4386
sg19
(lp4387
sg21
I0
sba(iArchitecture
Entity
p4388
(dp4389
g11
(lp4390
sg13
S'android.content.UriPermission$1'
p4391
sg15
(lp4392
sg17
(lp4393
sg19
(lp4394
sg21
I0
sbasg218
(lp4395
g3691
ag3698
ag3705
ag3712
ag3719
ag3726
ag3733
ag3740
ag3747
ag3754
ag3761
ag3768
ag3775
ag3782
ag3789
ag3796
ag3803
ag3810
ag3817
ag3824
ag3831
ag3838
ag3845
ag3852
ag3859
ag3866
ag3873
ag3880
ag3887
ag3894
ag3901
ag3908
ag3915
ag3922
ag3929
ag3936
ag3943
ag3950
ag3957
ag3964
ag3971
ag3978
ag3985
ag3992
ag3999
ag4006
ag4013
ag4020
ag4027
ag4034
ag4041
ag4048
ag4055
ag4062
ag4069
ag4076
ag4083
ag4090
ag4097
ag4104
ag4111
ag4118
ag4125
ag4132
ag4139
ag4146
ag4153
ag4160
ag4167
ag4174
ag4181
ag4188
ag4195
ag4202
ag4209
ag4216
ag4223
ag4230
ag4237
ag4244
ag4251
ag4258
ag4265
ag4272
ag4279
ag4286
ag4293
ag4300
ag4307
ag4314
ag4321
ag4328
ag4335
ag4342
ag4349
ag4356
ag4363
ag4370
ag4377
ag4384
ag4391
asg21
I0
sg220
S'android.content.ss'
p4396
sba(iArchitecture
Cluster
p4397
(dp4398
g7
(lp4399
(iArchitecture
Entity
p4400
(dp4401
g11
(lp4402
sg13
S'android.content.DialogInterface$OnMultiChoiceClickListener'
p4403
sg15
(lp4404
sg17
(lp4405
sg19
(lp4406
sg21
I0
sbasg218
(lp4407
g4403
asg21
I0
sg220
S'android.preference.ss'
p4408
sba(iArchitecture
Cluster
p4409
(dp4410
g7
(lp4411
(iArchitecture
Entity
p4412
(dp4413
g11
(lp4414
sg13
S'android.content.ContentUris'
p4415
sg15
(lp4416
sg17
(lp4417
sg19
(lp4418
sg21
I0
sba(iArchitecture
Entity
p4419
(dp4420
g11
(lp4421
sg13
S'android.content.CursorEntityIterator'
p4422
sg15
(lp4423
sg17
(lp4424
sg19
(lp4425
sg21
I0
sba(iArchitecture
Entity
p4426
(dp4427
g11
(lp4428
sg13
S'android.content.EntityIterator'
p4429
sg15
(lp4430
sg17
(lp4431
sg19
(lp4432
sg21
I0
sbasg218
(lp4433
g4415
ag4422
ag4429
asg21
I0
sg220
S'android.provider.ss'
p4434
sba(iArchitecture
Cluster
p4435
(dp4436
g7
(lp4437
(iArchitecture
Entity
p4438
(dp4439
g11
(lp4440
sg13
S'android.content.res.Resources$Theme'
p4441
sg15
(lp4442
sg17
(lp4443
sg19
(lp4444
sg21
I0
sba(iArchitecture
Entity
p4445
(dp4446
g11
(lp4447
sg13
S'android.content.res.TypedArray'
p4448
sg15
(lp4449
sg17
(lp4450
sg19
(lp4451
sg21
I0
sbasg218
(lp4452
g4441
ag4448
asg21
I0
sg220
S'android.view.animation.ss'
p4453
sba(iArchitecture
Cluster
p4454
(dp4455
g7
(lp4456
(iArchitecture
Entity
p4457
(dp4458
g11
(lp4459
sg13
S'android.content.res.CompatibilityInfo$Translator'
p4460
sg15
(lp4461
sg17
(lp4462
sg19
(lp4463
sg21
I0
sbasg218
(lp4464
g4460
asg21
I0
sg220
S'android.view.ss'
p4465
sba(iArchitecture
Cluster
p4466
(dp4467
g7
(lp4468
(iArchitecture
Entity
p4469
(dp4470
g11
(lp4471
sg13
S'android.content.ClipData$Item'
p4472
sg15
(lp4473
sg17
(lp4474
sg19
(lp4475
sg21
I0
sba(iArchitecture
Entity
p4476
(dp4477
g11
(lp4478
sg13
S'android.content.Intent$FilterComparison'
p4479
sg15
(lp4480
sg17
(lp4481
sg19
(lp4482
sg21
I0
sbasg218
(lp4483
g4472
ag4479
asg21
I0
sg220
S'android.widget.ss'
p4484
sba(iArchitecture
Cluster
p4485
(dp4486
g7
(lp4487
(iArchitecture
Entity
p4488
(dp4489
g11
(lp4490
sg13
S'android.content.SharedPreferences'
p4491
sg15
(lp4492
sg17
(lp4493
sg19
(lp4494
sg21
I0
sba(iArchitecture
Entity
p4495
(dp4496
g11
(lp4497
sg13
S'android.content.SharedPreferences$Editor'
p4498
sg15
(lp4499
sg17
(lp4500
sg19
(lp4501
sg21
I0
sbasg218
(lp4502
g4491
ag4498
asg21
I0
sg220
S'com.android.internal.app.ss'
p4503
sba(iArchitecture
Cluster
p4504
(dp4505
g7
(lp4506
(iArchitecture
Entity
p4507
(dp4508
g11
(lp4509
sg13
S'android.content.AsyncQueryHandler'
p4510
sg15
(lp4511
sg17
(lp4512
sg19
(lp4513
sg21
I0
sba(iArchitecture
Entity
p4514
(dp4515
g11
(lp4516
sg13
S'android.content.AsyncQueryHandler$WorkerArgs'
p4517
sg15
(lp4518
sg17
(lp4519
sg19
(lp4520
sg21
I0
sba(iArchitecture
Entity
p4521
(dp4522
g11
(lp4523
sg13
S'android.content.AsyncQueryHandler$WorkerHandler'
p4524
sg15
(lp4525
sg17
(lp4526
sg19
(lp4527
sg21
I0
sbasg218
(lp4528
g4510
ag4517
ag4524
asg21
I0
sg220
S'com.android.internal.telephony.ss'
p4529
sba(iArchitecture
Cluster
p4530
(dp4531
g7
(lp4532
(iArchitecture
Entity
p4533
(dp4534
g11
(lp4535
sg13
S'android.content.res.XmlResourceParser'
p4536
sg15
(lp4537
sg17
(lp4538
sg19
(lp4539
sg21
I0
sbasg218
(lp4540
g4536
asg21
I0
sg220
S'com.android.internal.widget.ss'
p4541
sba(iArchitecture
Cluster
p4542
(dp4543
g7
(lp4544
(iArchitecture
Entity
p4545
(dp4546
g11
(lp4547
sg13
S'android.content.DialogInterface'
p4548
sg15
(lp4549
sg17
(lp4550
sg19
(lp4551
sg21
I0
sba(iArchitecture
Entity
p4552
(dp4553
g11
(lp4554
sg13
S'android.content.DialogInterface$OnClickListener'
p4555
sg15
(lp4556
sg17
(lp4557
sg19
(lp4558
sg21
I0
sbasg218
(lp4559
g4548
ag4555
asg21
I0
sg220
S'com.android.server.accessibility.ss'
p4560
sba(iArchitecture
Cluster
p4561
(dp4562
g7
(lp4563
(iArchitecture
Entity
p4564
(dp4565
g11
(lp4566
sg13
S'android.content.pm.XmlSerializerAndParser'
p4567
sg15
(lp4568
sg17
(lp4569
sg19
(lp4570
sg21
I0
sbasg218
(lp4571
g4567
asg21
I0
sg220
S'com.android.server.accounts.ss'
p4572
sba(iArchitecture
Cluster
p4573
(dp4574
g7
(lp4575
(iArchitecture
Entity
p4576
(dp4577
g11
(lp4578
sg13
S'android.content.IIntentReceiver'
p4579
sg15
(lp4580
sg17
(lp4581
sg19
(lp4582
sg21
I0
sba(iArchitecture
Entity
p4583
(dp4584
g11
(lp4585
sg13
S'android.content.IIntentReceiver$Stub'
p4586
sg15
(lp4587
sg17
(lp4588
sg19
(lp4589
sg21
I0
sba(iArchitecture
Entity
p4590
(dp4591
g11
(lp4592
sg13
S'android.content.IIntentReceiver$Stub$Proxy'
p4593
sg15
(lp4594
sg17
(lp4595
sg19
(lp4596
sg21
I0
sba(iArchitecture
Entity
p4597
(dp4598
g11
(lp4599
sg13
S'android.content.IIntentSender'
p4600
sg15
(lp4601
sg17
(lp4602
sg19
(lp4603
sg21
I0
sba(iArchitecture
Entity
p4604
(dp4605
g11
(lp4606
sg13
S'android.content.pm.ActivityInfo$WindowLayout'
p4607
sg15
(lp4608
sg17
(lp4609
sg19
(lp4610
sg21
I0
sbasg218
(lp4611
g4579
ag4586
ag4593
ag4600
ag4607
asg21
I0
sg220
S'com.android.server.am.ss'
p4612
sba(iArchitecture
Cluster
p4613
(dp4614
g7
(lp4615
(iArchitecture
Entity
p4616
(dp4617
g11
(lp4618
sg13
S'android.content.pm.MacAuthenticatedInputStream'
p4619
sg15
(lp4620
sg17
(lp4621
sg19
(lp4622
sg21
I0
sba(iArchitecture
Entity
p4623
(dp4624
g11
(lp4625
sg13
S'android.content.pm.PackageManager'
p4626
sg15
(lp4627
sg17
(lp4628
sg19
(lp4629
sg21
I0
sba(iArchitecture
Entity
p4630
(dp4631
g11
(lp4632
sg13
S'android.content.pm.PackageManager$LegacyPackageInstallObserver'
p4633
sg15
(lp4634
sg17
(lp4635
sg19
(lp4636
sg21
I0
sba(iArchitecture
Entity
p4637
(dp4638
g11
(lp4639
sg13
S'android.content.pm.PackageManager$NameNotFoundException'
p4640
sg15
(lp4641
sg17
(lp4642
sg19
(lp4643
sg21
I0
sbasg218
(lp4644
g4619
ag4626
ag4633
ag4640
asg21
I0
sg220
S'com.android.server.backup.ss'
p4645
sba(iArchitecture
Cluster
p4646
(dp4647
g7
(lp4648
(iArchitecture
Entity
p4649
(dp4650
g11
(lp4651
sg13
S'android.content.ISyncAdapter'
p4652
sg15
(lp4653
sg17
(lp4654
sg19
(lp4655
sg21
I0
sba(iArchitecture
Entity
p4656
(dp4657
g11
(lp4658
sg13
S'android.content.ISyncAdapter$Stub'
p4659
sg15
(lp4660
sg17
(lp4661
sg19
(lp4662
sg21
I0
sba(iArchitecture
Entity
p4663
(dp4664
g11
(lp4665
sg13
S'android.content.ISyncAdapter$Stub$Proxy'
p4666
sg15
(lp4667
sg17
(lp4668
sg19
(lp4669
sg21
I0
sba(iArchitecture
Entity
p4670
(dp4671
g11
(lp4672
sg13
S'android.content.SyncActivityTooManyDeletes'
p4673
sg15
(lp4674
sg17
(lp4675
sg19
(lp4676
sg21
I0
sba(iArchitecture
Entity
p4677
(dp4678
g11
(lp4679
sg13
S'android.content.pm.RegisteredServicesCache$ServiceInfo'
p4680
sg15
(lp4681
sg17
(lp4682
sg19
(lp4683
sg21
I0
sba(iArchitecture
Entity
p4684
(dp4685
g11
(lp4686
sg13
S'android.content.pm.RegisteredServicesCacheListener'
p4687
sg15
(lp4688
sg17
(lp4689
sg19
(lp4690
sg21
I0
sbasg218
(lp4691
g4652
ag4659
ag4666
ag4673
ag4680
ag4687
asg21
I0
sg220
S'com.android.server.content.ss'
p4692
sba(iArchitecture
Cluster
p4693
(dp4694
g7
(lp4695
(iArchitecture
Entity
p4696
(dp4697
g11
(lp4698
sg13
S'android.content.BroadcastReceiver'
p4699
sg15
(lp4700
sg17
(lp4701
sg19
(lp4702
sg21
I0
sba(iArchitecture
Entity
p4703
(dp4704
g11
(lp4705
sg13
S'android.content.BroadcastReceiver$PendingResult'
p4706
sg15
(lp4707
sg17
(lp4708
sg19
(lp4709
sg21
I0
sba(iArchitecture
Entity
p4710
(dp4711
g11
(lp4712
sg13
S'android.content.BroadcastReceiver$PendingResult$1'
p4713
sg15
(lp4714
sg17
(lp4715
sg19
(lp4716
sg21
I0
sbasg218
(lp4717
g4699
ag4706
ag4713
asg21
I0
sg220
S'com.android.server.net.ss'
p4718
sba(iArchitecture
Cluster
p4719
(dp4720
g7
(lp4721
(iArchitecture
Entity
p4722
(dp4723
g11
(lp4724
sg13
S'android.content.pm.IPackageManager'
p4725
sg15
(lp4726
sg17
(lp4727
sg19
(lp4728
sg21
I0
sbasg218
(lp4729
g4725
asg21
I0
sg220
S'com.android.server.notification.ss'
p4730
sba(iArchitecture
Cluster
p4731
(dp4732
g7
(lp4733
(iArchitecture
Entity
p4734
(dp4735
g11
(lp4736
sg13
S'android.content.EventLogTags'
p4737
sg15
(lp4738
sg17
(lp4739
sg19
(lp4740
sg21
I0
sba(iArchitecture
Entity
p4741
(dp4742
g11
(lp4743
sg13
S'android.content.IIntentSender$Stub'
p4744
sg15
(lp4745
sg17
(lp4746
sg19
(lp4747
sg21
I0
sba(iArchitecture
Entity
p4748
(dp4749
g11
(lp4750
sg13
S'android.content.IIntentSender$Stub$Proxy'
p4751
sg15
(lp4752
sg17
(lp4753
sg19
(lp4754
sg21
I0
sba(iArchitecture
Entity
p4755
(dp4756
g11
(lp4757
sg13
S'android.content.Intent$CommandOptionHandler'
p4758
sg15
(lp4759
sg17
(lp4760
sg19
(lp4761
sg21
I0
sba(iArchitecture
Entity
p4762
(dp4763
g11
(lp4764
sg13
S'android.content.IntentFilter$AuthorityEntry'
p4765
sg15
(lp4766
sg17
(lp4767
sg19
(lp4768
sg21
I0
sba(iArchitecture
Entity
p4769
(dp4770
g11
(lp4771
sg13
S'android.content.IntentFilter$MalformedMimeTypeException'
p4772
sg15
(lp4773
sg17
(lp4774
sg19
(lp4775
sg21
I0
sba(iArchitecture
Entity
p4776
(dp4777
g11
(lp4778
sg13
S'android.content.pm.AppsQueryHelper'
p4779
sg15
(lp4780
sg17
(lp4781
sg19
(lp4782
sg21
I0
sba(iArchitecture
Entity
p4783
(dp4784
g11
(lp4785
sg13
S'android.content.pm.ComponentInfo'
p4786
sg15
(lp4787
sg17
(lp4788
sg19
(lp4789
sg21
I0
sba(iArchitecture
Entity
p4790
(dp4791
g11
(lp4792
sg13
S'android.content.pm.EphemeralResolveInfo$EphemeralResolveIntentInfo'
p4793
sg15
(lp4794
sg17
(lp4795
sg19
(lp4796
sg21
I0
sba(iArchitecture
Entity
p4797
(dp4798
g11
(lp4799
sg13
S'android.content.pm.IOnPermissionsChangeListener'
p4800
sg15
(lp4801
sg17
(lp4802
sg19
(lp4803
sg21
I0
sba(iArchitecture
Entity
p4804
(dp4805
g11
(lp4806
sg13
S'android.content.pm.IOnPermissionsChangeListener$Stub'
p4807
sg15
(lp4808
sg17
(lp4809
sg19
(lp4810
sg21
I0
sba(iArchitecture
Entity
p4811
(dp4812
g11
(lp4813
sg13
S'android.content.pm.IOnPermissionsChangeListener$Stub$Proxy'
p4814
sg15
(lp4815
sg17
(lp4816
sg19
(lp4817
sg21
I0
sba(iArchitecture
Entity
p4818
(dp4819
g11
(lp4820
sg13
S'android.content.pm.IOtaDexopt'
p4821
sg15
(lp4822
sg17
(lp4823
sg19
(lp4824
sg21
I0
sba(iArchitecture
Entity
p4825
(dp4826
g11
(lp4827
sg13
S'android.content.pm.IOtaDexopt$Stub'
p4828
sg15
(lp4829
sg17
(lp4830
sg19
(lp4831
sg21
I0
sba(iArchitecture
Entity
p4832
(dp4833
g11
(lp4834
sg13
S'android.content.pm.IOtaDexopt$Stub$Proxy'
p4835
sg15
(lp4836
sg17
(lp4837
sg19
(lp4838
sg21
I0
sba(iArchitecture
Entity
p4839
(dp4840
g11
(lp4841
sg13
S'android.content.pm.IPackageDataObserver'
p4842
sg15
(lp4843
sg17
(lp4844
sg19
(lp4845
sg21
I0
sba(iArchitecture
Entity
p4846
(dp4847
g11
(lp4848
sg13
S'android.content.pm.IPackageDataObserver$Stub'
p4849
sg15
(lp4850
sg17
(lp4851
sg19
(lp4852
sg21
I0
sba(iArchitecture
Entity
p4853
(dp4854
g11
(lp4855
sg13
S'android.content.pm.IPackageDataObserver$Stub$Proxy'
p4856
sg15
(lp4857
sg17
(lp4858
sg19
(lp4859
sg21
I0
sba(iArchitecture
Entity
p4860
(dp4861
g11
(lp4862
sg13
S'android.content.pm.IPackageDeleteObserver'
p4863
sg15
(lp4864
sg17
(lp4865
sg19
(lp4866
sg21
I0
sba(iArchitecture
Entity
p4867
(dp4868
g11
(lp4869
sg13
S'android.content.pm.IPackageDeleteObserver$Stub'
p4870
sg15
(lp4871
sg17
(lp4872
sg19
(lp4873
sg21
I0
sba(iArchitecture
Entity
p4874
(dp4875
g11
(lp4876
sg13
S'android.content.pm.IPackageDeleteObserver$Stub$Proxy'
p4877
sg15
(lp4878
sg17
(lp4879
sg19
(lp4880
sg21
I0
sba(iArchitecture
Entity
p4881
(dp4882
g11
(lp4883
sg13
S'android.content.pm.IPackageDeleteObserver2'
p4884
sg15
(lp4885
sg17
(lp4886
sg19
(lp4887
sg21
I0
sba(iArchitecture
Entity
p4888
(dp4889
g11
(lp4890
sg13
S'android.content.pm.IPackageDeleteObserver2$Stub$Proxy'
p4891
sg15
(lp4892
sg17
(lp4893
sg19
(lp4894
sg21
I0
sba(iArchitecture
Entity
p4895
(dp4896
g11
(lp4897
sg13
S'android.content.pm.IPackageInstallObserver2'
p4898
sg15
(lp4899
sg17
(lp4900
sg19
(lp4901
sg21
I0
sba(iArchitecture
Entity
p4902
(dp4903
g11
(lp4904
sg13
S'android.content.pm.IPackageInstallObserver2$Stub'
p4905
sg15
(lp4906
sg17
(lp4907
sg19
(lp4908
sg21
I0
sba(iArchitecture
Entity
p4909
(dp4910
g11
(lp4911
sg13
S'android.content.pm.IPackageInstallObserver2$Stub$Proxy'
p4912
sg15
(lp4913
sg17
(lp4914
sg19
(lp4915
sg21
I0
sba(iArchitecture
Entity
p4916
(dp4917
g11
(lp4918
sg13
S'android.content.pm.IPackageInstaller'
p4919
sg15
(lp4920
sg17
(lp4921
sg19
(lp4922
sg21
I0
sba(iArchitecture
Entity
p4923
(dp4924
g11
(lp4925
sg13
S'android.content.pm.IPackageInstaller$Stub'
p4926
sg15
(lp4927
sg17
(lp4928
sg19
(lp4929
sg21
I0
sba(iArchitecture
Entity
p4930
(dp4931
g11
(lp4932
sg13
S'android.content.pm.IPackageInstaller$Stub$Proxy'
p4933
sg15
(lp4934
sg17
(lp4935
sg19
(lp4936
sg21
I0
sba(iArchitecture
Entity
p4937
(dp4938
g11
(lp4939
sg13
S'android.content.pm.IPackageInstallerCallback'
p4940
sg15
(lp4941
sg17
(lp4942
sg19
(lp4943
sg21
I0
sba(iArchitecture
Entity
p4944
(dp4945
g11
(lp4946
sg13
S'android.content.pm.IPackageInstallerCallback$Stub'
p4947
sg15
(lp4948
sg17
(lp4949
sg19
(lp4950
sg21
I0
sba(iArchitecture
Entity
p4951
(dp4952
g11
(lp4953
sg13
S'android.content.pm.IPackageInstallerCallback$Stub$Proxy'
p4954
sg15
(lp4955
sg17
(lp4956
sg19
(lp4957
sg21
I0
sba(iArchitecture
Entity
p4958
(dp4959
g11
(lp4960
sg13
S'android.content.pm.IPackageInstallerSession'
p4961
sg15
(lp4962
sg17
(lp4963
sg19
(lp4964
sg21
I0
sba(iArchitecture
Entity
p4965
(dp4966
g11
(lp4967
sg13
S'android.content.pm.IPackageInstallerSession$Stub'
p4968
sg15
(lp4969
sg17
(lp4970
sg19
(lp4971
sg21
I0
sba(iArchitecture
Entity
p4972
(dp4973
g11
(lp4974
sg13
S'android.content.pm.IPackageInstallerSession$Stub$Proxy'
p4975
sg15
(lp4976
sg17
(lp4977
sg19
(lp4978
sg21
I0
sba(iArchitecture
Entity
p4979
(dp4980
g11
(lp4981
sg13
S'android.content.pm.IPackageManager$Stub'
p4982
sg15
(lp4983
sg17
(lp4984
sg19
(lp4985
sg21
I0
sba(iArchitecture
Entity
p4986
(dp4987
g11
(lp4988
sg13
S'android.content.pm.IPackageManager$Stub$Proxy'
p4989
sg15
(lp4990
sg17
(lp4991
sg19
(lp4992
sg21
I0
sba(iArchitecture
Entity
p4993
(dp4994
g11
(lp4995
sg13
S'android.content.pm.IPackageMoveObserver'
p4996
sg15
(lp4997
sg17
(lp4998
sg19
(lp4999
sg21
I0
sba(iArchitecture
Entity
p5000
(dp5001
g11
(lp5002
sg13
S'android.content.pm.IPackageMoveObserver$Stub'
p5003
sg15
(lp5004
sg17
(lp5005
sg19
(lp5006
sg21
I0
sba(iArchitecture
Entity
p5007
(dp5008
g11
(lp5009
sg13
S'android.content.pm.IPackageMoveObserver$Stub$Proxy'
p5010
sg15
(lp5011
sg17
(lp5012
sg19
(lp5013
sg21
I0
sba(iArchitecture
Entity
p5014
(dp5015
g11
(lp5016
sg13
S'android.content.pm.IPackageStatsObserver'
p5017
sg15
(lp5018
sg17
(lp5019
sg19
(lp5020
sg21
I0
sba(iArchitecture
Entity
p5021
(dp5022
g11
(lp5023
sg13
S'android.content.pm.IPackageStatsObserver$Stub'
p5024
sg15
(lp5025
sg17
(lp5026
sg19
(lp5027
sg21
I0
sba(iArchitecture
Entity
p5028
(dp5029
g11
(lp5030
sg13
S'android.content.pm.IPackageStatsObserver$Stub$Proxy'
p5031
sg15
(lp5032
sg17
(lp5033
sg19
(lp5034
sg21
I0
sba(iArchitecture
Entity
p5035
(dp5036
g11
(lp5037
sg13
S'android.content.pm.LimitedLengthInputStream'
p5038
sg15
(lp5039
sg17
(lp5040
sg19
(lp5041
sg21
I0
sba(iArchitecture
Entity
p5042
(dp5043
g11
(lp5044
sg13
S'android.content.pm.PackageInstaller$Session'
p5045
sg15
(lp5046
sg17
(lp5047
sg19
(lp5048
sg21
I0
sba(iArchitecture
Entity
p5049
(dp5050
g11
(lp5051
sg13
S'android.content.pm.PackageInstaller$SessionInfo'
p5052
sg15
(lp5053
sg17
(lp5054
sg19
(lp5055
sg21
I0
sba(iArchitecture
Entity
p5056
(dp5057
g11
(lp5058
sg13
S'android.content.pm.PackageInstaller$SessionInfo$1'
p5059
sg15
(lp5060
sg17
(lp5061
sg19
(lp5062
sg21
I0
sba(iArchitecture
Entity
p5063
(dp5064
g11
(lp5065
sg13
S'android.content.pm.PackageInstaller$SessionParams'
p5066
sg15
(lp5067
sg17
(lp5068
sg19
(lp5069
sg21
I0
sba(iArchitecture
Entity
p5070
(dp5071
g11
(lp5072
sg13
S'android.content.pm.PackageInstaller$SessionParams$1'
p5073
sg15
(lp5074
sg17
(lp5075
sg19
(lp5076
sg21
I0
sba(iArchitecture
Entity
p5077
(dp5078
g11
(lp5079
sg13
S'android.content.pm.PackageManager$LegacyPackageDeleteObserver'
p5080
sg15
(lp5081
sg17
(lp5082
sg19
(lp5083
sg21
I0
sba(iArchitecture
Entity
p5084
(dp5085
g11
(lp5086
sg13
S'android.content.pm.PackageManagerInternal$SyncAdapterPackagesProvider'
p5087
sg15
(lp5088
sg17
(lp5089
sg19
(lp5090
sg21
I0
sba(iArchitecture
Entity
p5091
(dp5092
g11
(lp5093
sg13
S'android.content.pm.PackageParser$Activity'
p5094
sg15
(lp5095
sg17
(lp5096
sg19
(lp5097
sg21
I0
sba(iArchitecture
Entity
p5098
(dp5099
g11
(lp5100
sg13
S'android.content.pm.PackageParser$ActivityIntentInfo'
p5101
sg15
(lp5102
sg17
(lp5103
sg19
(lp5104
sg21
I0
sba(iArchitecture
Entity
p5105
(dp5106
g11
(lp5107
sg13
S'android.content.pm.PackageParser$ApkLite'
p5108
sg15
(lp5109
sg17
(lp5110
sg19
(lp5111
sg21
I0
sba(iArchitecture
Entity
p5112
(dp5113
g11
(lp5114
sg13
S'android.content.pm.PackageParser$Component'
p5115
sg15
(lp5116
sg17
(lp5117
sg19
(lp5118
sg21
I0
sba(iArchitecture
Entity
p5119
(dp5120
g11
(lp5121
sg13
S'android.content.pm.PackageParser$Instrumentation'
p5122
sg15
(lp5123
sg17
(lp5124
sg19
(lp5125
sg21
I0
sba(iArchitecture
Entity
p5126
(dp5127
g11
(lp5128
sg13
S'android.content.pm.PackageParser$IntentInfo'
p5129
sg15
(lp5130
sg17
(lp5131
sg19
(lp5132
sg21
I0
sba(iArchitecture
Entity
p5133
(dp5134
g11
(lp5135
sg13
S'android.content.pm.PackageParser$NewPermissionInfo'
p5136
sg15
(lp5137
sg17
(lp5138
sg19
(lp5139
sg21
I0
sba(iArchitecture
Entity
p5140
(dp5141
g11
(lp5142
sg13
S'android.content.pm.PackageParser$Package'
p5143
sg15
(lp5144
sg17
(lp5145
sg19
(lp5146
sg21
I0
sba(iArchitecture
Entity
p5147
(dp5148
g11
(lp5149
sg13
S'android.content.pm.PackageParser$PackageLite'
p5150
sg15
(lp5151
sg17
(lp5152
sg19
(lp5153
sg21
I0
sba(iArchitecture
Entity
p5154
(dp5155
g11
(lp5156
sg13
S'android.content.pm.PackageParser$PackageParserException'
p5157
sg15
(lp5158
sg17
(lp5159
sg19
(lp5160
sg21
I0
sba(iArchitecture
Entity
p5161
(dp5162
g11
(lp5163
sg13
S'android.content.pm.PackageParser$ParseComponentArgs'
p5164
sg15
(lp5165
sg17
(lp5166
sg19
(lp5167
sg21
I0
sba(iArchitecture
Entity
p5168
(dp5169
g11
(lp5170
sg13
S'android.content.pm.PackageParser$ParsePackageItemArgs'
p5171
sg15
(lp5172
sg17
(lp5173
sg19
(lp5174
sg21
I0
sba(iArchitecture
Entity
p5175
(dp5176
g11
(lp5177
sg13
S'android.content.pm.PackageParser$Permission'
p5178
sg15
(lp5179
sg17
(lp5180
sg19
(lp5181
sg21
I0
sba(iArchitecture
Entity
p5182
(dp5183
g11
(lp5184
sg13
S'android.content.pm.PackageParser$PermissionGroup'
p5185
sg15
(lp5186
sg17
(lp5187
sg19
(lp5188
sg21
I0
sba(iArchitecture
Entity
p5189
(dp5190
g11
(lp5191
sg13
S'android.content.pm.PackageParser$Provider'
p5192
sg15
(lp5193
sg17
(lp5194
sg19
(lp5195
sg21
I0
sba(iArchitecture
Entity
p5196
(dp5197
g11
(lp5198
sg13
S'android.content.pm.PackageParser$ProviderIntentInfo'
p5199
sg15
(lp5200
sg17
(lp5201
sg19
(lp5202
sg21
I0
sba(iArchitecture
Entity
p5203
(dp5204
g11
(lp5205
sg13
S'android.content.pm.PackageParser$Service'
p5206
sg15
(lp5207
sg17
(lp5208
sg19
(lp5209
sg21
I0
sba(iArchitecture
Entity
p5210
(dp5211
g11
(lp5212
sg13
S'android.content.pm.PackageParser$ServiceIntentInfo'
p5213
sg15
(lp5214
sg17
(lp5215
sg19
(lp5216
sg21
I0
sba(iArchitecture
Entity
p5217
(dp5218
g11
(lp5219
sg13
S'android.content.pm.PackageUserState'
p5220
sg15
(lp5221
sg17
(lp5222
sg19
(lp5223
sg21
I0
sba(iArchitecture
Entity
p5224
(dp5225
g11
(lp5226
sg13
S'android.content.pm.ShortcutServiceInternal'
p5227
sg15
(lp5228
sg17
(lp5229
sg19
(lp5230
sg21
I0
sba(iArchitecture
Entity
p5231
(dp5232
g11
(lp5233
sg13
S'android.content.pm.ShortcutServiceInternal$ShortcutChangeListener'
p5234
sg15
(lp5235
sg17
(lp5236
sg19
(lp5237
sg21
I0
sba(iArchitecture
Entity
p5238
(dp5239
g11
(lp5240
sg13
S'android.content.res.ObbScanner'
p5241
sg15
(lp5242
sg17
(lp5243
sg19
(lp5244
sg21
I0
sbasg218
(lp5245
g4737
ag4744
ag4751
ag4758
ag4765
ag4772
ag4779
ag4786
ag4793
ag4800
ag4807
ag4814
ag4821
ag4828
ag4835
ag4842
ag4849
ag4856
ag4863
ag4870
ag4877
ag4884
ag4891
ag4898
ag4905
ag4912
ag4919
ag4926
ag4933
ag4940
ag4947
ag4954
ag4961
ag4968
ag4975
ag4982
ag4989
ag4996
ag5003
ag5010
ag5017
ag5024
ag5031
ag5038
ag5045
ag5052
ag5059
ag5066
ag5073
ag5080
ag5087
ag5094
ag5101
ag5108
ag5115
ag5122
ag5129
ag5136
ag5143
ag5150
ag5157
ag5164
ag5171
ag5178
ag5185
ag5192
ag5199
ag5206
ag5213
ag5220
ag5227
ag5234
ag5241
asg21
I0
sg220
S'com.android.server.pm.ss'
p5246
sba(iArchitecture
Cluster
p5247
(dp5248
g7
(lp5249
(iArchitecture
Entity
p5250
(dp5251
g11
(lp5252
sg13
S'android.content.DialogInterface$OnKeyListener'
p5253
sg15
(lp5254
sg17
(lp5255
sg19
(lp5256
sg21
I0
sba(iArchitecture
Entity
p5257
(dp5258
g11
(lp5259
sg13
S'android.content.ServiceConnection'
p5260
sg15
(lp5261
sg17
(lp5262
sg19
(lp5263
sg21
I0
sba(iArchitecture
Entity
p5264
(dp5265
g11
(lp5266
sg13
S'android.content.res.Resources$NotFoundException'
p5267
sg15
(lp5268
sg17
(lp5269
sg19
(lp5270
sg21
I0
sbasg218
(lp5271
g5253
ag5260
ag5267
asg21
I0
sg220
S'com.android.server.policy.ss'
p5272
sba(iArchitecture
Cluster
p5273
(dp5274
g7
(lp5275
(iArchitecture
Entity
p5276
(dp5277
g11
(lp5278
sg13
S'android.content.DialogInterface$OnDismissListener'
p5279
sg15
(lp5280
sg17
(lp5281
sg19
(lp5282
sg21
I0
sbasg218
(lp5283
g5279
asg21
I0
sg220
S'com.android.server.power.ss'
p5284
sba(iArchitecture
Cluster
p5285
(dp5286
g7
(lp5287
(iArchitecture
Entity
p5288
(dp5289
g11
(lp5290
sg13
S'android.content.DialogInterface$OnCancelListener'
p5291
sg15
(lp5292
sg17
(lp5293
sg19
(lp5294
sg21
I0
sba(iArchitecture
Entity
p5295
(dp5296
g11
(lp5297
sg13
S'android.content.pm.PackageManager$OnPermissionsChangedListener'
p5298
sg15
(lp5299
sg17
(lp5300
sg19
(lp5301
sg21
I0
sbasg218
(lp5302
g5291
ag5298
asg21
I0
sg220
S'com.android.server.ss'
p5303
sba(iArchitecture
Cluster
p5304
(dp5305
g7
(lp5306
(iArchitecture
Entity
p5307
(dp5308
g11
(lp5309
sg13
S'android.content.pm.PackageManagerInternal'
p5310
sg15
(lp5311
sg17
(lp5312
sg19
(lp5313
sg21
I0
sba(iArchitecture
Entity
p5314
(dp5315
g11
(lp5316
sg13
S'android.content.pm.PackageManagerInternal$PackagesProvider'
p5317
sg15
(lp5318
sg17
(lp5319
sg19
(lp5320
sg21
I0
sbasg218
(lp5321
g5310
ag5317
asg21
I0
sg220
S'com.android.server.telecom.ss'
p5322
sba(iArchitecture
Cluster
p5323
(dp5324
g7
(lp5325
(iArchitecture
Entity
p5326
(dp5327
g11
(lp5328
sg13
S'android.content.ContentProviderOperation$Builder'
p5329
sg15
(lp5330
sg17
(lp5331
sg19
(lp5332
sg21
I0
sbasg218
(lp5333
g5329
asg21
I0
sg220
S'com.android.server.tv.ss'
p5334
sba(iArchitecture
Cluster
p5335
(dp5336
g7
(lp5337
(iArchitecture
Entity
p5338
(dp5339
g11
(lp5340
sg13
S'android.content.ActivityNotFoundException'
p5341
sg15
(lp5342
sg17
(lp5343
sg19
(lp5344
sg21
I0
sbasg218
(lp5345
g5341
asg21
I0
sg220
S'com.android.server.usb.ss'
p5346
sbasg2544
g2545
sg218
(lp5347
sg2547
I00
sg220
S'7.0.0_r1'
p5348
sba.