(lp0
(iArchitecture
Architecture
p1
(dp2
S'clusters'
p3
(lp4
(iArchitecture
Cluster
p5
(dp6
S'entities'
p7
(lp8
(iArchitecture
Entity
p9
(dp10
S'issue_ids'
p11
(lp12
sS'name'
p13
S'com.android.server.am.ActiveServices'
p14
sS'descs'
p15
(lp16
sS'labels'
p17
(lp18
sS'titles'
p19
(lp20
sS'change'
p21
I0
sba(iArchitecture
Entity
p22
(dp23
g11
(lp24
sg13
S'com.android.server.am.ActiveServices$1'
p25
sg15
(lp26
sg17
(lp27
sg19
(lp28
sg21
I0
sba(iArchitecture
Entity
p29
(dp30
g11
(lp31
sg13
S'com.android.server.am.ActiveServices$ServiceLookupResult'
p32
sg15
(lp33
sg17
(lp34
sg19
(lp35
sg21
I0
sba(iArchitecture
Entity
p36
(dp37
g11
(lp38
sg13
S'com.android.server.am.ActiveServices$ServiceMap'
p39
sg15
(lp40
sg17
(lp41
sg19
(lp42
sg21
I0
sba(iArchitecture
Entity
p43
(dp44
g11
(lp45
sg13
S'com.android.server.am.ActiveServices$ServiceRestarter'
p46
sg15
(lp47
sg17
(lp48
sg19
(lp49
sg21
I0
sba(iArchitecture
Entity
p50
(dp51
g11
(lp52
sg13
S'com.android.server.am.ActivityManagerService'
p53
sg15
(lp54
sg17
(lp55
sg19
(lp56
sg21
I0
sba(iArchitecture
Entity
p57
(dp58
g11
(lp59
sg13
S'com.android.server.am.ActivityManagerService$1'
p60
sg15
(lp61
sg17
(lp62
sg19
(lp63
sg21
I0
sba(iArchitecture
Entity
p64
(dp65
g11
(lp66
sg13
S'com.android.server.am.ActivityManagerService$10'
p67
sg15
(lp68
sg17
(lp69
sg19
(lp70
sg21
I0
sba(iArchitecture
Entity
p71
(dp72
g11
(lp73
sg13
S'com.android.server.am.ActivityManagerService$11'
p74
sg15
(lp75
sg17
(lp76
sg19
(lp77
sg21
I0
sba(iArchitecture
Entity
p78
(dp79
g11
(lp80
sg13
S'com.android.server.am.ActivityManagerService$12'
p81
sg15
(lp82
sg17
(lp83
sg19
(lp84
sg21
I0
sba(iArchitecture
Entity
p85
(dp86
g11
(lp87
sg13
S'com.android.server.am.ActivityManagerService$13'
p88
sg15
(lp89
sg17
(lp90
sg19
(lp91
sg21
I0
sba(iArchitecture
Entity
p92
(dp93
g11
(lp94
sg13
S'com.android.server.am.ActivityManagerService$14'
p95
sg15
(lp96
sg17
(lp97
sg19
(lp98
sg21
I0
sba(iArchitecture
Entity
p99
(dp100
g11
(lp101
sg13
S'com.android.server.am.ActivityManagerService$15'
p102
sg15
(lp103
sg17
(lp104
sg19
(lp105
sg21
I0
sba(iArchitecture
Entity
p106
(dp107
g11
(lp108
sg13
S'com.android.server.am.ActivityManagerService$16'
p109
sg15
(lp110
sg17
(lp111
sg19
(lp112
sg21
I0
sba(iArchitecture
Entity
p113
(dp114
g11
(lp115
sg13
S'com.android.server.am.ActivityManagerService$17'
p116
sg15
(lp117
sg17
(lp118
sg19
(lp119
sg21
I0
sba(iArchitecture
Entity
p120
(dp121
g11
(lp122
sg13
S'com.android.server.am.ActivityManagerService$18'
p123
sg15
(lp124
sg17
(lp125
sg19
(lp126
sg21
I0
sba(iArchitecture
Entity
p127
(dp128
g11
(lp129
sg13
S'com.android.server.am.ActivityManagerService$19'
p130
sg15
(lp131
sg17
(lp132
sg19
(lp133
sg21
I0
sba(iArchitecture
Entity
p134
(dp135
g11
(lp136
sg13
S'com.android.server.am.ActivityManagerService$2'
p137
sg15
(lp138
sg17
(lp139
sg19
(lp140
sg21
I0
sba(iArchitecture
Entity
p141
(dp142
g11
(lp143
sg13
S'com.android.server.am.ActivityManagerService$20'
p144
sg15
(lp145
sg17
(lp146
sg19
(lp147
sg21
I0
sba(iArchitecture
Entity
p148
(dp149
g11
(lp150
sg13
S'com.android.server.am.ActivityManagerService$21'
p151
sg15
(lp152
sg17
(lp153
sg19
(lp154
sg21
I0
sba(iArchitecture
Entity
p155
(dp156
g11
(lp157
sg13
S'com.android.server.am.ActivityManagerService$22'
p158
sg15
(lp159
sg17
(lp160
sg19
(lp161
sg21
I0
sba(iArchitecture
Entity
p162
(dp163
g11
(lp164
sg13
S'com.android.server.am.ActivityManagerService$23'
p165
sg15
(lp166
sg17
(lp167
sg19
(lp168
sg21
I0
sba(iArchitecture
Entity
p169
(dp170
g11
(lp171
sg13
S'com.android.server.am.ActivityManagerService$24'
p172
sg15
(lp173
sg17
(lp174
sg19
(lp175
sg21
I0
sba(iArchitecture
Entity
p176
(dp177
g11
(lp178
sg13
S'com.android.server.am.ActivityManagerService$25'
p179
sg15
(lp180
sg17
(lp181
sg19
(lp182
sg21
I0
sba(iArchitecture
Entity
p183
(dp184
g11
(lp185
sg13
S'com.android.server.am.ActivityManagerService$26'
p186
sg15
(lp187
sg17
(lp188
sg19
(lp189
sg21
I0
sba(iArchitecture
Entity
p190
(dp191
g11
(lp192
sg13
S'com.android.server.am.ActivityManagerService$27'
p193
sg15
(lp194
sg17
(lp195
sg19
(lp196
sg21
I0
sba(iArchitecture
Entity
p197
(dp198
g11
(lp199
sg13
S'com.android.server.am.ActivityManagerService$28'
p200
sg15
(lp201
sg17
(lp202
sg19
(lp203
sg21
I0
sba(iArchitecture
Entity
p204
(dp205
g11
(lp206
sg13
S'com.android.server.am.ActivityManagerService$29'
p207
sg15
(lp208
sg17
(lp209
sg19
(lp210
sg21
I0
sba(iArchitecture
Entity
p211
(dp212
g11
(lp213
sg13
S'com.android.server.am.ActivityManagerService$3'
p214
sg15
(lp215
sg17
(lp216
sg19
(lp217
sg21
I0
sba(iArchitecture
Entity
p218
(dp219
g11
(lp220
sg13
S'com.android.server.am.ActivityManagerService$4'
p221
sg15
(lp222
sg17
(lp223
sg19
(lp224
sg21
I0
sba(iArchitecture
Entity
p225
(dp226
g11
(lp227
sg13
S'com.android.server.am.ActivityManagerService$5'
p228
sg15
(lp229
sg17
(lp230
sg19
(lp231
sg21
I0
sba(iArchitecture
Entity
p232
(dp233
g11
(lp234
sg13
S'com.android.server.am.ActivityManagerService$5$1'
p235
sg15
(lp236
sg17
(lp237
sg19
(lp238
sg21
I0
sba(iArchitecture
Entity
p239
(dp240
g11
(lp241
sg13
S'com.android.server.am.ActivityManagerService$6'
p242
sg15
(lp243
sg17
(lp244
sg19
(lp245
sg21
I0
sba(iArchitecture
Entity
p246
(dp247
g11
(lp248
sg13
S'com.android.server.am.ActivityManagerService$7'
p249
sg15
(lp250
sg17
(lp251
sg19
(lp252
sg21
I0
sba(iArchitecture
Entity
p253
(dp254
g11
(lp255
sg13
S'com.android.server.am.ActivityManagerService$8'
p256
sg15
(lp257
sg17
(lp258
sg19
(lp259
sg21
I0
sba(iArchitecture
Entity
p260
(dp261
g11
(lp262
sg13
S'com.android.server.am.ActivityManagerService$9'
p263
sg15
(lp264
sg17
(lp265
sg19
(lp266
sg21
I0
sba(iArchitecture
Entity
p267
(dp268
g11
(lp269
sg13
S'com.android.server.am.ActivityManagerService$AppDeathRecipient'
p270
sg15
(lp271
sg17
(lp272
sg19
(lp273
sg21
I0
sba(iArchitecture
Entity
p274
(dp275
g11
(lp276
sg13
S'com.android.server.am.ActivityManagerService$AppTaskImpl'
p277
sg15
(lp278
sg17
(lp279
sg19
(lp280
sg21
I0
sba(iArchitecture
Entity
p281
(dp282
g11
(lp283
sg13
S'com.android.server.am.ActivityManagerService$Association'
p284
sg15
(lp285
sg17
(lp286
sg19
(lp287
sg21
I0
sba(iArchitecture
Entity
p288
(dp289
g11
(lp290
sg13
S'com.android.server.am.ActivityManagerService$BadProcessInfo'
p291
sg15
(lp292
sg17
(lp293
sg19
(lp294
sg21
I0
sba(iArchitecture
Entity
p295
(dp296
g11
(lp297
sg13
S'com.android.server.am.ActivityManagerService$CpuBinder'
p298
sg15
(lp299
sg17
(lp300
sg19
(lp301
sg21
I0
sba(iArchitecture
Entity
p302
(dp303
g11
(lp304
sg13
S'com.android.server.am.ActivityManagerService$DbBinder'
p305
sg15
(lp306
sg17
(lp307
sg19
(lp308
sg21
I0
sba(iArchitecture
Entity
p309
(dp310
g11
(lp311
sg13
S'com.android.server.am.ActivityManagerService$ForegroundToken'
p312
sg15
(lp313
sg17
(lp314
sg19
(lp315
sg21
I0
sba(iArchitecture
Entity
p316
(dp317
g11
(lp318
sg13
S'com.android.server.am.ActivityManagerService$GrantUri'
p319
sg15
(lp320
sg17
(lp321
sg19
(lp322
sg21
I0
sba(iArchitecture
Entity
p323
(dp324
g11
(lp325
sg13
S'com.android.server.am.ActivityManagerService$GraphicsBinder'
p326
sg15
(lp327
sg17
(lp328
sg19
(lp329
sg21
I0
sba(iArchitecture
Entity
p330
(dp331
g11
(lp332
sg13
S'com.android.server.am.ActivityManagerService$Identity'
p333
sg15
(lp334
sg17
(lp335
sg19
(lp336
sg21
I0
sba(iArchitecture
Entity
p337
(dp338
g11
(lp339
sg13
S'com.android.server.am.ActivityManagerService$IntentFirewallInterface'
p340
sg15
(lp341
sg17
(lp342
sg19
(lp343
sg21
I0
sba(iArchitecture
Entity
p344
(dp345
g11
(lp346
sg13
S'com.android.server.am.ActivityManagerService$ItemMatcher'
p347
sg15
(lp348
sg17
(lp349
sg19
(lp350
sg21
I0
sba(iArchitecture
Entity
p351
(dp352
g11
(lp353
sg13
S'com.android.server.am.ActivityManagerService$Lifecycle'
p354
sg15
(lp355
sg17
(lp356
sg19
(lp357
sg21
I0
sba(iArchitecture
Entity
p358
(dp359
g11
(lp360
sg13
S'com.android.server.am.ActivityManagerService$LocalService'
p361
sg15
(lp362
sg17
(lp363
sg19
(lp364
sg21
I0
sba(iArchitecture
Entity
p365
(dp366
g11
(lp367
sg13
S'com.android.server.am.ActivityManagerService$MainHandler'
p368
sg15
(lp369
sg17
(lp370
sg19
(lp371
sg21
I0
sba(iArchitecture
Entity
p372
(dp373
g11
(lp374
sg13
S'com.android.server.am.ActivityManagerService$MainHandler$1'
p375
sg15
(lp376
sg17
(lp377
sg19
(lp378
sg21
I0
sba(iArchitecture
Entity
p379
(dp380
g11
(lp381
sg13
S'com.android.server.am.ActivityManagerService$MemBinder'
p382
sg15
(lp383
sg17
(lp384
sg19
(lp385
sg21
I0
sba(iArchitecture
Entity
p386
(dp387
g11
(lp388
sg13
S'com.android.server.am.ActivityManagerService$MemItem'
p389
sg15
(lp390
sg17
(lp391
sg19
(lp392
sg21
I0
sba(iArchitecture
Entity
p393
(dp394
g11
(lp395
sg13
S'com.android.server.am.ActivityManagerService$NeededUriGrants'
p396
sg15
(lp397
sg17
(lp398
sg19
(lp399
sg21
I0
sba(iArchitecture
Entity
p400
(dp401
g11
(lp402
sg13
S'com.android.server.am.ActivityManagerService$PendingAssistExtras'
p403
sg15
(lp404
sg17
(lp405
sg19
(lp406
sg21
I0
sba(iArchitecture
Entity
p407
(dp408
g11
(lp409
sg13
S'com.android.server.am.ActivityManagerService$PermissionController'
p410
sg15
(lp411
sg17
(lp412
sg19
(lp413
sg21
I0
sba(iArchitecture
Entity
p414
(dp415
g11
(lp416
sg13
S'com.android.server.am.ActivityManagerService$PreBootContinuation'
p417
sg15
(lp418
sg17
(lp419
sg19
(lp420
sg21
I0
sba(iArchitecture
Entity
p421
(dp422
g11
(lp423
sg13
S'com.android.server.am.ActivityManagerService$ProcessChangeItem'
p424
sg15
(lp425
sg17
(lp426
sg19
(lp427
sg21
I0
sba(iArchitecture
Entity
p428
(dp429
g11
(lp430
sg13
S'com.android.server.am.ActivityManagerService$ProcessInfoService'
p431
sg15
(lp432
sg17
(lp433
sg19
(lp434
sg21
I0
sba(iArchitecture
Entity
p435
(dp436
g11
(lp437
sg13
S'com.android.server.am.ActivityManagerService$SleepTokenImpl'
p438
sg15
(lp439
sg17
(lp440
sg19
(lp441
sg21
I0
sba(iArchitecture
Entity
p442
(dp443
g11
(lp444
sg13
S'com.android.server.am.ActivityManagerService$UiHandler'
p445
sg15
(lp446
sg17
(lp447
sg19
(lp448
sg21
I0
sba(iArchitecture
Entity
p449
(dp450
g11
(lp451
sg13
S'com.android.server.am.ActivityRecord'
p452
sg15
(lp453
sg17
(lp454
sg19
(lp455
sg21
I0
sba(iArchitecture
Entity
p456
(dp457
g11
(lp458
sg13
S'com.android.server.am.ActivityRecord$Token'
p459
sg15
(lp460
sg17
(lp461
sg19
(lp462
sg21
I0
sba(iArchitecture
Entity
p463
(dp464
g11
(lp465
sg13
S'com.android.server.am.ActivityResult'
p466
sg15
(lp467
sg17
(lp468
sg19
(lp469
sg21
I0
sba(iArchitecture
Entity
p470
(dp471
g11
(lp472
sg13
S'com.android.server.am.ActivityStack'
p473
sg15
(lp474
sg17
(lp475
sg19
(lp476
sg21
I0
sba(iArchitecture
Entity
p477
(dp478
g11
(lp479
sg13
S'com.android.server.am.ActivityStack$ActivityStackHandler'
p480
sg15
(lp481
sg17
(lp482
sg19
(lp483
sg21
I0
sba(iArchitecture
Entity
p484
(dp485
g11
(lp486
sg13
S'com.android.server.am.ActivityStack$ActivityState'
p487
sg15
(lp488
sg17
(lp489
sg19
(lp490
sg21
I0
sba(iArchitecture
Entity
p491
(dp492
g11
(lp493
sg13
S'com.android.server.am.ActivityStack$ScheduleDestroyArgs'
p494
sg15
(lp495
sg17
(lp496
sg19
(lp497
sg21
I0
sba(iArchitecture
Entity
p498
(dp499
g11
(lp500
sg13
S'com.android.server.am.ActivityStackSupervisor'
p501
sg15
(lp502
sg17
(lp503
sg19
(lp504
sg21
I0
sba(iArchitecture
Entity
p505
(dp506
g11
(lp507
sg13
S'com.android.server.am.ActivityStackSupervisor$ActivityContainer'
p508
sg15
(lp509
sg17
(lp510
sg19
(lp511
sg21
I0
sba(iArchitecture
Entity
p512
(dp513
g11
(lp514
sg13
S'com.android.server.am.ActivityStackSupervisor$ActivityDisplay'
p515
sg15
(lp516
sg17
(lp517
sg19
(lp518
sg21
I0
sba(iArchitecture
Entity
p519
(dp520
g11
(lp521
sg13
S'com.android.server.am.ActivityStackSupervisor$ActivityStackSupervisorHandler'
p522
sg15
(lp523
sg17
(lp524
sg19
(lp525
sg21
I0
sba(iArchitecture
Entity
p526
(dp527
g11
(lp528
sg13
S'com.android.server.am.ActivityStackSupervisor$PendingActivityLaunch'
p529
sg15
(lp530
sg17
(lp531
sg19
(lp532
sg21
I0
sba(iArchitecture
Entity
p533
(dp534
g11
(lp535
sg13
S'com.android.server.am.ActivityStackSupervisor$VirtualActivityContainer'
p536
sg15
(lp537
sg17
(lp538
sg19
(lp539
sg21
I0
sba(iArchitecture
Entity
p540
(dp541
g11
(lp542
sg13
S'com.android.server.am.ActivityStackSupervisor$VirtualActivityDisplay'
p543
sg15
(lp544
sg17
(lp545
sg19
(lp546
sg21
I0
sba(iArchitecture
Entity
p547
(dp548
g11
(lp549
sg13
S'com.android.server.am.AppBindRecord'
p550
sg15
(lp551
sg17
(lp552
sg19
(lp553
sg21
I0
sba(iArchitecture
Entity
p554
(dp555
g11
(lp556
sg13
S'com.android.server.am.AppErrorDialog'
p557
sg15
(lp558
sg17
(lp559
sg19
(lp560
sg21
I0
sba(iArchitecture
Entity
p561
(dp562
g11
(lp563
sg13
S'com.android.server.am.AppErrorDialog$1'
p564
sg15
(lp565
sg17
(lp566
sg19
(lp567
sg21
I0
sba(iArchitecture
Entity
p568
(dp569
g11
(lp570
sg13
S'com.android.server.am.AppErrorResult'
p571
sg15
(lp572
sg17
(lp573
sg19
(lp574
sg21
I0
sba(iArchitecture
Entity
p575
(dp576
g11
(lp577
sg13
S'com.android.server.am.AppNotRespondingDialog'
p578
sg15
(lp579
sg17
(lp580
sg19
(lp581
sg21
I0
sba(iArchitecture
Entity
p582
(dp583
g11
(lp584
sg13
S'com.android.server.am.AppNotRespondingDialog$1'
p585
sg15
(lp586
sg17
(lp587
sg19
(lp588
sg21
I0
sba(iArchitecture
Entity
p589
(dp590
g11
(lp591
sg13
S'com.android.server.am.AppTimeTracker'
p592
sg15
(lp593
sg17
(lp594
sg19
(lp595
sg21
I0
sba(iArchitecture
Entity
p596
(dp597
g11
(lp598
sg13
S'com.android.server.am.AppWaitingForDebuggerDialog'
p599
sg15
(lp600
sg17
(lp601
sg19
(lp602
sg21
I0
sba(iArchitecture
Entity
p603
(dp604
g11
(lp605
sg13
S'com.android.server.am.AppWaitingForDebuggerDialog$1'
p606
sg15
(lp607
sg17
(lp608
sg19
(lp609
sg21
I0
sba(iArchitecture
Entity
p610
(dp611
g11
(lp612
sg13
S'com.android.server.am.BackupRecord'
p613
sg15
(lp614
sg17
(lp615
sg19
(lp616
sg21
I0
sba(iArchitecture
Entity
p617
(dp618
g11
(lp619
sg13
S'com.android.server.am.BaseErrorDialog'
p620
sg15
(lp621
sg17
(lp622
sg19
(lp623
sg21
I0
sba(iArchitecture
Entity
p624
(dp625
g11
(lp626
sg13
S'com.android.server.am.BaseErrorDialog$1'
p627
sg15
(lp628
sg17
(lp629
sg19
(lp630
sg21
I0
sba(iArchitecture
Entity
p631
(dp632
g11
(lp633
sg13
S'com.android.server.am.BatteryStatsService'
p634
sg15
(lp635
sg17
(lp636
sg19
(lp637
sg21
I0
sba(iArchitecture
Entity
p638
(dp639
g11
(lp640
sg13
S'com.android.server.am.BatteryStatsService$1'
p641
sg15
(lp642
sg17
(lp643
sg19
(lp644
sg21
I0
sba(iArchitecture
Entity
p645
(dp646
g11
(lp647
sg13
S'com.android.server.am.BatteryStatsService$BatteryStatsHandler'
p648
sg15
(lp649
sg17
(lp650
sg19
(lp651
sg21
I0
sba(iArchitecture
Entity
p652
(dp653
g11
(lp654
sg13
S'com.android.server.am.BatteryStatsService$WakeupReasonThread'
p655
sg15
(lp656
sg17
(lp657
sg19
(lp658
sg21
I0
sba(iArchitecture
Entity
p659
(dp660
g11
(lp661
sg13
S'com.android.server.am.BroadcastFilter'
p662
sg15
(lp663
sg17
(lp664
sg19
(lp665
sg21
I0
sba(iArchitecture
Entity
p666
(dp667
g11
(lp668
sg13
S'com.android.server.am.BroadcastQueue'
p669
sg15
(lp670
sg17
(lp671
sg19
(lp672
sg21
I0
sba(iArchitecture
Entity
p673
(dp674
g11
(lp675
sg13
S'com.android.server.am.BroadcastQueue$AppNotResponding'
p676
sg15
(lp677
sg17
(lp678
sg19
(lp679
sg21
I0
sba(iArchitecture
Entity
p680
(dp681
g11
(lp682
sg13
S'com.android.server.am.BroadcastQueue$BroadcastHandler'
p683
sg15
(lp684
sg17
(lp685
sg19
(lp686
sg21
I0
sba(iArchitecture
Entity
p687
(dp688
g11
(lp689
sg13
S'com.android.server.am.BroadcastRecord'
p690
sg15
(lp691
sg17
(lp692
sg19
(lp693
sg21
I0
sba(iArchitecture
Entity
p694
(dp695
g11
(lp696
sg13
S'com.android.server.am.CompatModeDialog'
p697
sg15
(lp698
sg17
(lp699
sg19
(lp700
sg21
I0
sba(iArchitecture
Entity
p701
(dp702
g11
(lp703
sg13
S'com.android.server.am.CompatModeDialog$1'
p704
sg15
(lp705
sg17
(lp706
sg19
(lp707
sg21
I0
sba(iArchitecture
Entity
p708
(dp709
g11
(lp710
sg13
S'com.android.server.am.CompatModeDialog$2'
p711
sg15
(lp712
sg17
(lp713
sg19
(lp714
sg21
I0
sba(iArchitecture
Entity
p715
(dp716
g11
(lp717
sg13
S'com.android.server.am.CompatModePackages'
p718
sg15
(lp719
sg17
(lp720
sg19
(lp721
sg21
I0
sba(iArchitecture
Entity
p722
(dp723
g11
(lp724
sg13
S'com.android.server.am.CompatModePackages$CompatHandler'
p725
sg15
(lp726
sg17
(lp727
sg19
(lp728
sg21
I0
sba(iArchitecture
Entity
p729
(dp730
g11
(lp731
sg13
S'com.android.server.am.ConnectionRecord'
p732
sg15
(lp733
sg17
(lp734
sg19
(lp735
sg21
I0
sba(iArchitecture
Entity
p736
(dp737
g11
(lp738
sg13
S'com.android.server.am.ContentProviderConnection'
p739
sg15
(lp740
sg17
(lp741
sg19
(lp742
sg21
I0
sba(iArchitecture
Entity
p743
(dp744
g11
(lp745
sg13
S'com.android.server.am.ContentProviderRecord'
p746
sg15
(lp747
sg17
(lp748
sg19
(lp749
sg21
I0
sba(iArchitecture
Entity
p750
(dp751
g11
(lp752
sg13
S'com.android.server.am.ContentProviderRecord$ExternalProcessHandle'
p753
sg15
(lp754
sg17
(lp755
sg19
(lp756
sg21
I0
sba(iArchitecture
Entity
p757
(dp758
g11
(lp759
sg13
S'com.android.server.am.CoreSettingsObserver'
p760
sg15
(lp761
sg17
(lp762
sg19
(lp763
sg21
I0
sba(iArchitecture
Entity
p764
(dp765
g11
(lp766
sg13
S'com.android.server.am.DumpHeapProvider'
p767
sg15
(lp768
sg17
(lp769
sg19
(lp770
sg21
I0
sba(iArchitecture
Entity
p771
(dp772
g11
(lp773
sg13
S'com.android.server.am.EventLogTags'
p774
sg15
(lp775
sg17
(lp776
sg19
(lp777
sg21
I0
sba(iArchitecture
Entity
p778
(dp779
g11
(lp780
sg13
S'com.android.server.am.FactoryErrorDialog'
p781
sg15
(lp782
sg17
(lp783
sg19
(lp784
sg21
I0
sba(iArchitecture
Entity
p785
(dp786
g11
(lp787
sg13
S'com.android.server.am.FactoryErrorDialog$1'
p788
sg15
(lp789
sg17
(lp790
sg19
(lp791
sg21
I0
sba(iArchitecture
Entity
p792
(dp793
g11
(lp794
sg13
S'com.android.server.am.IntentBindRecord'
p795
sg15
(lp796
sg17
(lp797
sg19
(lp798
sg21
I0
sba(iArchitecture
Entity
p799
(dp800
g11
(lp801
sg13
S'com.android.server.am.LaunchWarningWindow'
p802
sg15
(lp803
sg17
(lp804
sg19
(lp805
sg21
I0
sba(iArchitecture
Entity
p806
(dp807
g11
(lp808
sg13
S'com.android.server.am.LockTaskNotify'
p809
sg15
(lp810
sg17
(lp811
sg19
(lp812
sg21
I0
sba(iArchitecture
Entity
p813
(dp814
g11
(lp815
sg13
S'com.android.server.am.LockTaskNotify$H'
p816
sg15
(lp817
sg17
(lp818
sg19
(lp819
sg21
I0
sba(iArchitecture
Entity
p820
(dp821
g11
(lp822
sg13
S'com.android.server.am.NativeCrashListener'
p823
sg15
(lp824
sg17
(lp825
sg19
(lp826
sg21
I0
sba(iArchitecture
Entity
p827
(dp828
g11
(lp829
sg13
S'com.android.server.am.NativeCrashListener$NativeCrashReporter'
p830
sg15
(lp831
sg17
(lp832
sg19
(lp833
sg21
I0
sba(iArchitecture
Entity
p834
(dp835
g11
(lp836
sg13
S'com.android.server.am.PendingIntentRecord'
p837
sg15
(lp838
sg17
(lp839
sg19
(lp840
sg21
I0
sba(iArchitecture
Entity
p841
(dp842
g11
(lp843
sg13
S'com.android.server.am.PendingIntentRecord$Key'
p844
sg15
(lp845
sg17
(lp846
sg19
(lp847
sg21
I0
sba(iArchitecture
Entity
p848
(dp849
g11
(lp850
sg13
S'com.android.server.am.ProcessList'
p851
sg15
(lp852
sg17
(lp853
sg19
(lp854
sg21
I0
sba(iArchitecture
Entity
p855
(dp856
g11
(lp857
sg13
S'com.android.server.am.ProcessMemInfo'
p858
sg15
(lp859
sg17
(lp860
sg19
(lp861
sg21
I0
sba(iArchitecture
Entity
p862
(dp863
g11
(lp864
sg13
S'com.android.server.am.ProcessRecord'
p865
sg15
(lp866
sg17
(lp867
sg19
(lp868
sg21
I0
sba(iArchitecture
Entity
p869
(dp870
g11
(lp871
sg13
S'com.android.server.am.ProcessStatsService'
p872
sg15
(lp873
sg17
(lp874
sg19
(lp875
sg21
I0
sba(iArchitecture
Entity
p876
(dp877
g11
(lp878
sg13
S'com.android.server.am.ProcessStatsService$1'
p879
sg15
(lp880
sg17
(lp881
sg19
(lp882
sg21
I0
sba(iArchitecture
Entity
p883
(dp884
g11
(lp885
sg13
S'com.android.server.am.ProcessStatsService$2'
p886
sg15
(lp887
sg17
(lp888
sg19
(lp889
sg21
I0
sba(iArchitecture
Entity
p890
(dp891
g11
(lp892
sg13
S'com.android.server.am.ProcessStatsService$3'
p893
sg15
(lp894
sg17
(lp895
sg19
(lp896
sg21
I0
sba(iArchitecture
Entity
p897
(dp898
g11
(lp899
sg13
S'com.android.server.am.ProviderMap'
p900
sg15
(lp901
sg17
(lp902
sg19
(lp903
sg21
I0
sba(iArchitecture
Entity
p904
(dp905
g11
(lp906
sg13
S'com.android.server.am.ReceiverList'
p907
sg15
(lp908
sg17
(lp909
sg19
(lp910
sg21
I0
sba(iArchitecture
Entity
p911
(dp912
g11
(lp913
sg13
S'com.android.server.am.RecentTasks'
p914
sg15
(lp915
sg17
(lp916
sg19
(lp917
sg21
I0
sba(iArchitecture
Entity
p918
(dp919
g11
(lp920
sg13
S'com.android.server.am.RecentTasks$1'
p921
sg15
(lp922
sg17
(lp923
sg19
(lp924
sg21
I0
sba(iArchitecture
Entity
p925
(dp926
g11
(lp927
sg13
S'com.android.server.am.ServiceRecord'
p928
sg15
(lp929
sg17
(lp930
sg19
(lp931
sg21
I0
sba(iArchitecture
Entity
p932
(dp933
g11
(lp934
sg13
S'com.android.server.am.ServiceRecord$1'
p935
sg15
(lp936
sg17
(lp937
sg19
(lp938
sg21
I0
sba(iArchitecture
Entity
p939
(dp940
g11
(lp941
sg13
S'com.android.server.am.ServiceRecord$2'
p942
sg15
(lp943
sg17
(lp944
sg19
(lp945
sg21
I0
sba(iArchitecture
Entity
p946
(dp947
g11
(lp948
sg13
S'com.android.server.am.ServiceRecord$3'
p949
sg15
(lp950
sg17
(lp951
sg19
(lp952
sg21
I0
sba(iArchitecture
Entity
p953
(dp954
g11
(lp955
sg13
S'com.android.server.am.ServiceRecord$StartItem'
p956
sg15
(lp957
sg17
(lp958
sg19
(lp959
sg21
I0
sba(iArchitecture
Entity
p960
(dp961
g11
(lp962
sg13
S'com.android.server.am.StrictModeViolationDialog'
p963
sg15
(lp964
sg17
(lp965
sg19
(lp966
sg21
I0
sba(iArchitecture
Entity
p967
(dp968
g11
(lp969
sg13
S'com.android.server.am.StrictModeViolationDialog$1'
p970
sg15
(lp971
sg17
(lp972
sg19
(lp973
sg21
I0
sba(iArchitecture
Entity
p974
(dp975
g11
(lp976
sg13
S'com.android.server.am.TaskPersister'
p977
sg15
(lp978
sg17
(lp979
sg19
(lp980
sg21
I0
sba(iArchitecture
Entity
p981
(dp982
g11
(lp983
sg13
S'com.android.server.am.TaskPersister$1'
p984
sg15
(lp985
sg17
(lp986
sg19
(lp987
sg21
I0
sba(iArchitecture
Entity
p988
(dp989
g11
(lp990
sg13
S'com.android.server.am.TaskPersister$ImageWriteQueueItem'
p991
sg15
(lp992
sg17
(lp993
sg19
(lp994
sg21
I0
sba(iArchitecture
Entity
p995
(dp996
g11
(lp997
sg13
S'com.android.server.am.TaskPersister$LazyTaskWriterThread'
p998
sg15
(lp999
sg17
(lp1000
sg19
(lp1001
sg21
I0
sba(iArchitecture
Entity
p1002
(dp1003
g11
(lp1004
sg13
S'com.android.server.am.TaskPersister$TaskWriteQueueItem'
p1005
sg15
(lp1006
sg17
(lp1007
sg19
(lp1008
sg21
I0
sba(iArchitecture
Entity
p1009
(dp1010
g11
(lp1011
sg13
S'com.android.server.am.TaskPersister$WriteQueueItem'
p1012
sg15
(lp1013
sg17
(lp1014
sg19
(lp1015
sg21
I0
sba(iArchitecture
Entity
p1016
(dp1017
g11
(lp1018
sg13
S'com.android.server.am.TaskRecord'
p1019
sg15
(lp1020
sg17
(lp1021
sg19
(lp1022
sg21
I0
sba(iArchitecture
Entity
p1023
(dp1024
g11
(lp1025
sg13
S'com.android.server.am.UidRecord'
p1026
sg15
(lp1027
sg17
(lp1028
sg19
(lp1029
sg21
I0
sba(iArchitecture
Entity
p1030
(dp1031
g11
(lp1032
sg13
S'com.android.server.am.UidRecord$ChangeItem'
p1033
sg15
(lp1034
sg17
(lp1035
sg19
(lp1036
sg21
I0
sba(iArchitecture
Entity
p1037
(dp1038
g11
(lp1039
sg13
S'com.android.server.am.UriPermission'
p1040
sg15
(lp1041
sg17
(lp1042
sg19
(lp1043
sg21
I0
sba(iArchitecture
Entity
p1044
(dp1045
g11
(lp1046
sg13
S'com.android.server.am.UriPermission$PersistedTimeComparator'
p1047
sg15
(lp1048
sg17
(lp1049
sg19
(lp1050
sg21
I0
sba(iArchitecture
Entity
p1051
(dp1052
g11
(lp1053
sg13
S'com.android.server.am.UriPermission$Snapshot'
p1054
sg15
(lp1055
sg17
(lp1056
sg19
(lp1057
sg21
I0
sba(iArchitecture
Entity
p1058
(dp1059
g11
(lp1060
sg13
S'com.android.server.am.UriPermissionOwner'
p1061
sg15
(lp1062
sg17
(lp1063
sg19
(lp1064
sg21
I0
sba(iArchitecture
Entity
p1065
(dp1066
g11
(lp1067
sg13
S'com.android.server.am.UriPermissionOwner$ExternalToken'
p1068
sg15
(lp1069
sg17
(lp1070
sg19
(lp1071
sg21
I0
sba(iArchitecture
Entity
p1072
(dp1073
g11
(lp1074
sg13
S'com.android.server.am.UserState'
p1075
sg15
(lp1076
sg17
(lp1077
sg19
(lp1078
sg21
I0
sba(iArchitecture
Entity
p1079
(dp1080
g11
(lp1081
sg13
S'com.android.server.am.UserSwitchingDialog'
p1082
sg15
(lp1083
sg17
(lp1084
sg19
(lp1085
sg21
I0
sba(iArchitecture
Entity
p1086
(dp1087
g11
(lp1088
sg13
S'com.android.server.am.UserSwitchingDialog$1'
p1089
sg15
(lp1090
sg17
(lp1091
sg19
(lp1092
sg21
I0
sbasS'classes'
p1093
(lp1094
g14
ag25
ag32
ag39
ag46
ag53
ag60
ag67
ag74
ag81
ag88
ag95
ag102
ag109
ag116
ag123
ag130
ag137
ag144
ag151
ag158
ag165
ag172
ag179
ag186
ag193
ag200
ag207
ag214
ag221
ag228
ag235
ag242
ag249
ag256
ag263
ag270
ag277
ag284
ag291
ag298
ag305
ag312
ag319
ag326
ag333
ag340
ag347
ag354
ag361
ag368
ag375
ag382
ag389
ag396
ag403
ag410
ag417
ag424
ag431
ag438
ag445
ag452
ag459
ag466
ag473
ag480
ag487
ag494
ag501
ag508
ag515
ag522
ag529
ag536
ag543
ag550
ag557
ag564
ag571
ag578
ag585
ag592
ag599
ag606
ag613
ag620
ag627
ag634
ag641
ag648
ag655
ag662
ag669
ag676
ag683
ag690
ag697
ag704
ag711
ag718
ag725
ag732
ag739
ag746
ag753
ag760
ag767
ag774
ag781
ag788
ag795
ag802
ag809
ag816
ag823
ag830
ag837
ag844
ag851
ag858
ag865
ag872
ag879
ag886
ag893
ag900
ag907
ag914
ag921
ag928
ag935
ag942
ag949
ag956
ag963
ag970
ag977
ag984
ag991
ag998
ag1005
ag1012
ag1019
ag1026
ag1033
ag1040
ag1047
ag1054
ag1061
ag1068
ag1075
ag1082
ag1089
asg21
I0
sS'label'
p1095
S'com.android.server.am.ss'
p1096
sba(iArchitecture
Cluster
p1097
(dp1098
g7
(lp1099
(iArchitecture
Entity
p1100
(dp1101
g11
(lp1102
sg13
S'com.android.server.am.ActivityManagerDebugConfig'
p1103
sg15
(lp1104
sg17
(lp1105
sg19
(lp1106
sg21
I0
sbasg1093
(lp1107
g1103
asg21
I0
sg1095
S'com.android.server.pm.ss'
p1108
sbasS'target_sub'
p1109
S'com.android.server.am'
p1110
sg1093
(lp1111
sS'is_component_arch'
p1112
I00
sg1095
S'6.0.0_r1'
p1113
sba(iArchitecture
Architecture
p1114
(dp1115
g3
(lp1116
(iArchitecture
Cluster
p1117
(dp1118
g7
(lp1119
(iArchitecture
Entity
p1120
(dp1121
g11
(lp1122
sg13
S'com.android.server.am.ActiveServices'
p1123
sg15
(lp1124
sg17
(lp1125
sg19
(lp1126
sg21
I0
sba(iArchitecture
Entity
p1127
(dp1128
g11
(lp1129
sg13
S'com.android.server.am.ActiveServices$1'
p1130
sg15
(lp1131
sg17
(lp1132
sg19
(lp1133
sg21
I0
sba(iArchitecture
Entity
p1134
(dp1135
g11
(lp1136
sg13
S'com.android.server.am.ActiveServices$2'
p1137
sg15
(lp1138
sg17
(lp1139
sg19
(lp1140
sg21
I0
sba(iArchitecture
Entity
p1141
(dp1142
g11
(lp1143
sg13
S'com.android.server.am.ActiveServices$3'
p1144
sg15
(lp1145
sg17
(lp1146
sg19
(lp1147
sg21
I0
sba(iArchitecture
Entity
p1148
(dp1149
g11
(lp1150
sg13
S'com.android.server.am.ActiveServices$4'
p1151
sg15
(lp1152
sg17
(lp1153
sg19
(lp1154
sg21
I0
sba(iArchitecture
Entity
p1155
(dp1156
g11
(lp1157
sg13
S'com.android.server.am.ActiveServices$ServiceDumper'
p1158
sg15
(lp1159
sg17
(lp1160
sg19
(lp1161
sg21
I0
sba(iArchitecture
Entity
p1162
(dp1163
g11
(lp1164
sg13
S'com.android.server.am.ActiveServices$ServiceLookupResult'
p1165
sg15
(lp1166
sg17
(lp1167
sg19
(lp1168
sg21
I0
sba(iArchitecture
Entity
p1169
(dp1170
g11
(lp1171
sg13
S'com.android.server.am.ActiveServices$ServiceMap'
p1172
sg15
(lp1173
sg17
(lp1174
sg19
(lp1175
sg21
I0
sba(iArchitecture
Entity
p1176
(dp1177
g11
(lp1178
sg13
S'com.android.server.am.ActiveServices$ServiceRestarter'
p1179
sg15
(lp1180
sg17
(lp1181
sg19
(lp1182
sg21
I0
sba(iArchitecture
Entity
p1183
(dp1184
g11
(lp1185
sg13
S'com.android.server.am.ActivityManagerDebugConfig'
p1186
sg15
(lp1187
sg17
(lp1188
sg19
(lp1189
sg21
I0
sba(iArchitecture
Entity
p1190
(dp1191
g11
(lp1192
sg13
S'com.android.server.am.ActivityManagerService'
p1193
sg15
(lp1194
sg17
(lp1195
sg19
(lp1196
sg21
I0
sba(iArchitecture
Entity
p1197
(dp1198
g11
(lp1199
sg13
S'com.android.server.am.ActivityManagerService$1'
p1200
sg15
(lp1201
sg17
(lp1202
sg19
(lp1203
sg21
I0
sba(iArchitecture
Entity
p1204
(dp1205
g11
(lp1206
sg13
S'com.android.server.am.ActivityManagerService$10'
p1207
sg15
(lp1208
sg17
(lp1209
sg19
(lp1210
sg21
I0
sba(iArchitecture
Entity
p1211
(dp1212
g11
(lp1213
sg13
S'com.android.server.am.ActivityManagerService$11'
p1214
sg15
(lp1215
sg17
(lp1216
sg19
(lp1217
sg21
I0
sba(iArchitecture
Entity
p1218
(dp1219
g11
(lp1220
sg13
S'com.android.server.am.ActivityManagerService$12'
p1221
sg15
(lp1222
sg17
(lp1223
sg19
(lp1224
sg21
I0
sba(iArchitecture
Entity
p1225
(dp1226
g11
(lp1227
sg13
S'com.android.server.am.ActivityManagerService$13'
p1228
sg15
(lp1229
sg17
(lp1230
sg19
(lp1231
sg21
I0
sba(iArchitecture
Entity
p1232
(dp1233
g11
(lp1234
sg13
S'com.android.server.am.ActivityManagerService$14'
p1235
sg15
(lp1236
sg17
(lp1237
sg19
(lp1238
sg21
I0
sba(iArchitecture
Entity
p1239
(dp1240
g11
(lp1241
sg13
S'com.android.server.am.ActivityManagerService$15'
p1242
sg15
(lp1243
sg17
(lp1244
sg19
(lp1245
sg21
I0
sba(iArchitecture
Entity
p1246
(dp1247
g11
(lp1248
sg13
S'com.android.server.am.ActivityManagerService$16'
p1249
sg15
(lp1250
sg17
(lp1251
sg19
(lp1252
sg21
I0
sba(iArchitecture
Entity
p1253
(dp1254
g11
(lp1255
sg13
S'com.android.server.am.ActivityManagerService$17'
p1256
sg15
(lp1257
sg17
(lp1258
sg19
(lp1259
sg21
I0
sba(iArchitecture
Entity
p1260
(dp1261
g11
(lp1262
sg13
S'com.android.server.am.ActivityManagerService$18'
p1263
sg15
(lp1264
sg17
(lp1265
sg19
(lp1266
sg21
I0
sba(iArchitecture
Entity
p1267
(dp1268
g11
(lp1269
sg13
S'com.android.server.am.ActivityManagerService$19'
p1270
sg15
(lp1271
sg17
(lp1272
sg19
(lp1273
sg21
I0
sba(iArchitecture
Entity
p1274
(dp1275
g11
(lp1276
sg13
S'com.android.server.am.ActivityManagerService$2'
p1277
sg15
(lp1278
sg17
(lp1279
sg19
(lp1280
sg21
I0
sba(iArchitecture
Entity
p1281
(dp1282
g11
(lp1283
sg13
S'com.android.server.am.ActivityManagerService$20'
p1284
sg15
(lp1285
sg17
(lp1286
sg19
(lp1287
sg21
I0
sba(iArchitecture
Entity
p1288
(dp1289
g11
(lp1290
sg13
S'com.android.server.am.ActivityManagerService$21'
p1291
sg15
(lp1292
sg17
(lp1293
sg19
(lp1294
sg21
I0
sba(iArchitecture
Entity
p1295
(dp1296
g11
(lp1297
sg13
S'com.android.server.am.ActivityManagerService$22'
p1298
sg15
(lp1299
sg17
(lp1300
sg19
(lp1301
sg21
I0
sba(iArchitecture
Entity
p1302
(dp1303
g11
(lp1304
sg13
S'com.android.server.am.ActivityManagerService$23'
p1305
sg15
(lp1306
sg17
(lp1307
sg19
(lp1308
sg21
I0
sba(iArchitecture
Entity
p1309
(dp1310
g11
(lp1311
sg13
S'com.android.server.am.ActivityManagerService$24'
p1312
sg15
(lp1313
sg17
(lp1314
sg19
(lp1315
sg21
I0
sba(iArchitecture
Entity
p1316
(dp1317
g11
(lp1318
sg13
S'com.android.server.am.ActivityManagerService$25'
p1319
sg15
(lp1320
sg17
(lp1321
sg19
(lp1322
sg21
I0
sba(iArchitecture
Entity
p1323
(dp1324
g11
(lp1325
sg13
S'com.android.server.am.ActivityManagerService$26'
p1326
sg15
(lp1327
sg17
(lp1328
sg19
(lp1329
sg21
I0
sba(iArchitecture
Entity
p1330
(dp1331
g11
(lp1332
sg13
S'com.android.server.am.ActivityManagerService$27'
p1333
sg15
(lp1334
sg17
(lp1335
sg19
(lp1336
sg21
I0
sba(iArchitecture
Entity
p1337
(dp1338
g11
(lp1339
sg13
S'com.android.server.am.ActivityManagerService$3'
p1340
sg15
(lp1341
sg17
(lp1342
sg19
(lp1343
sg21
I0
sba(iArchitecture
Entity
p1344
(dp1345
g11
(lp1346
sg13
S'com.android.server.am.ActivityManagerService$4'
p1347
sg15
(lp1348
sg17
(lp1349
sg19
(lp1350
sg21
I0
sba(iArchitecture
Entity
p1351
(dp1352
g11
(lp1353
sg13
S'com.android.server.am.ActivityManagerService$5'
p1354
sg15
(lp1355
sg17
(lp1356
sg19
(lp1357
sg21
I0
sba(iArchitecture
Entity
p1358
(dp1359
g11
(lp1360
sg13
S'com.android.server.am.ActivityManagerService$6'
p1361
sg15
(lp1362
sg17
(lp1363
sg19
(lp1364
sg21
I0
sba(iArchitecture
Entity
p1365
(dp1366
g11
(lp1367
sg13
S'com.android.server.am.ActivityManagerService$7'
p1368
sg15
(lp1369
sg17
(lp1370
sg19
(lp1371
sg21
I0
sba(iArchitecture
Entity
p1372
(dp1373
g11
(lp1374
sg13
S'com.android.server.am.ActivityManagerService$7$1'
p1375
sg15
(lp1376
sg17
(lp1377
sg19
(lp1378
sg21
I0
sba(iArchitecture
Entity
p1379
(dp1380
g11
(lp1381
sg13
S'com.android.server.am.ActivityManagerService$8'
p1382
sg15
(lp1383
sg17
(lp1384
sg19
(lp1385
sg21
I0
sba(iArchitecture
Entity
p1386
(dp1387
g11
(lp1388
sg13
S'com.android.server.am.ActivityManagerService$9'
p1389
sg15
(lp1390
sg17
(lp1391
sg19
(lp1392
sg21
I0
sba(iArchitecture
Entity
p1393
(dp1394
g11
(lp1395
sg13
S'com.android.server.am.ActivityManagerService$AppDeathRecipient'
p1396
sg15
(lp1397
sg17
(lp1398
sg19
(lp1399
sg21
I0
sba(iArchitecture
Entity
p1400
(dp1401
g11
(lp1402
sg13
S'com.android.server.am.ActivityManagerService$AppTaskImpl'
p1403
sg15
(lp1404
sg17
(lp1405
sg19
(lp1406
sg21
I0
sba(iArchitecture
Entity
p1407
(dp1408
g11
(lp1409
sg13
S'com.android.server.am.ActivityManagerService$Association'
p1410
sg15
(lp1411
sg17
(lp1412
sg19
(lp1413
sg21
I0
sba(iArchitecture
Entity
p1414
(dp1415
g11
(lp1416
sg13
S'com.android.server.am.ActivityManagerService$CpuBinder'
p1417
sg15
(lp1418
sg17
(lp1419
sg19
(lp1420
sg21
I0
sba(iArchitecture
Entity
p1421
(dp1422
g11
(lp1423
sg13
S'com.android.server.am.ActivityManagerService$DbBinder'
p1424
sg15
(lp1425
sg17
(lp1426
sg19
(lp1427
sg21
I0
sba(iArchitecture
Entity
p1428
(dp1429
g11
(lp1430
sg13
S'com.android.server.am.ActivityManagerService$FontScaleSettingObserver'
p1431
sg15
(lp1432
sg17
(lp1433
sg19
(lp1434
sg21
I0
sba(iArchitecture
Entity
p1435
(dp1436
g11
(lp1437
sg13
S'com.android.server.am.ActivityManagerService$ForegroundToken'
p1438
sg15
(lp1439
sg17
(lp1440
sg19
(lp1441
sg21
I0
sba(iArchitecture
Entity
p1442
(dp1443
g11
(lp1444
sg13
S'com.android.server.am.ActivityManagerService$GrantUri'
p1445
sg15
(lp1446
sg17
(lp1447
sg19
(lp1448
sg21
I0
sba(iArchitecture
Entity
p1449
(dp1450
g11
(lp1451
sg13
S'com.android.server.am.ActivityManagerService$GraphicsBinder'
p1452
sg15
(lp1453
sg17
(lp1454
sg19
(lp1455
sg21
I0
sba(iArchitecture
Entity
p1456
(dp1457
g11
(lp1458
sg13
S'com.android.server.am.ActivityManagerService$Identity'
p1459
sg15
(lp1460
sg17
(lp1461
sg19
(lp1462
sg21
I0
sba(iArchitecture
Entity
p1463
(dp1464
g11
(lp1465
sg13
S'com.android.server.am.ActivityManagerService$IntentFirewallInterface'
p1466
sg15
(lp1467
sg17
(lp1468
sg19
(lp1469
sg21
I0
sba(iArchitecture
Entity
p1470
(dp1471
g11
(lp1472
sg13
S'com.android.server.am.ActivityManagerService$ItemMatcher'
p1473
sg15
(lp1474
sg17
(lp1475
sg19
(lp1476
sg21
I0
sba(iArchitecture
Entity
p1477
(dp1478
g11
(lp1479
sg13
S'com.android.server.am.ActivityManagerService$KillHandler'
p1480
sg15
(lp1481
sg17
(lp1482
sg19
(lp1483
sg21
I0
sba(iArchitecture
Entity
p1484
(dp1485
g11
(lp1486
sg13
S'com.android.server.am.ActivityManagerService$Lifecycle'
p1487
sg15
(lp1488
sg17
(lp1489
sg19
(lp1490
sg21
I0
sba(iArchitecture
Entity
p1491
(dp1492
g11
(lp1493
sg13
S'com.android.server.am.ActivityManagerService$LocalService'
p1494
sg15
(lp1495
sg17
(lp1496
sg19
(lp1497
sg21
I0
sba(iArchitecture
Entity
p1498
(dp1499
g11
(lp1500
sg13
S'com.android.server.am.ActivityManagerService$MainHandler'
p1501
sg15
(lp1502
sg17
(lp1503
sg19
(lp1504
sg21
I0
sba(iArchitecture
Entity
p1505
(dp1506
g11
(lp1507
sg13
S'com.android.server.am.ActivityManagerService$MainHandler$1'
p1508
sg15
(lp1509
sg17
(lp1510
sg19
(lp1511
sg21
I0
sba(iArchitecture
Entity
p1512
(dp1513
g11
(lp1514
sg13
S'com.android.server.am.ActivityManagerService$MemBinder'
p1515
sg15
(lp1516
sg17
(lp1517
sg19
(lp1518
sg21
I0
sba(iArchitecture
Entity
p1519
(dp1520
g11
(lp1521
sg13
S'com.android.server.am.ActivityManagerService$MemItem'
p1522
sg15
(lp1523
sg17
(lp1524
sg19
(lp1525
sg21
I0
sba(iArchitecture
Entity
p1526
(dp1527
g11
(lp1528
sg13
S'com.android.server.am.ActivityManagerService$NeededUriGrants'
p1529
sg15
(lp1530
sg17
(lp1531
sg19
(lp1532
sg21
I0
sba(iArchitecture
Entity
p1533
(dp1534
g11
(lp1535
sg13
S'com.android.server.am.ActivityManagerService$PendingAssistExtras'
p1536
sg15
(lp1537
sg17
(lp1538
sg19
(lp1539
sg21
I0
sba(iArchitecture
Entity
p1540
(dp1541
g11
(lp1542
sg13
S'com.android.server.am.ActivityManagerService$PermissionController'
p1543
sg15
(lp1544
sg17
(lp1545
sg19
(lp1546
sg21
I0
sba(iArchitecture
Entity
p1547
(dp1548
g11
(lp1549
sg13
S'com.android.server.am.ActivityManagerService$ProcessChangeItem'
p1550
sg15
(lp1551
sg17
(lp1552
sg19
(lp1553
sg21
I0
sba(iArchitecture
Entity
p1554
(dp1555
g11
(lp1556
sg13
S'com.android.server.am.ActivityManagerService$ProcessInfoService'
p1557
sg15
(lp1558
sg17
(lp1559
sg19
(lp1560
sg21
I0
sba(iArchitecture
Entity
p1561
(dp1562
g11
(lp1563
sg13
S'com.android.server.am.ActivityManagerService$SleepTokenImpl'
p1564
sg15
(lp1565
sg17
(lp1566
sg19
(lp1567
sg21
I0
sba(iArchitecture
Entity
p1568
(dp1569
g11
(lp1570
sg13
S'com.android.server.am.ActivityManagerService$UiHandler'
p1571
sg15
(lp1572
sg17
(lp1573
sg19
(lp1574
sg21
I0
sba(iArchitecture
Entity
p1575
(dp1576
g11
(lp1577
sg13
S'com.android.server.am.ActivityManagerShellCommand'
p1578
sg15
(lp1579
sg17
(lp1580
sg19
(lp1581
sg21
I0
sba(iArchitecture
Entity
p1582
(dp1583
g11
(lp1584
sg13
S'com.android.server.am.ActivityMetricsLogger'
p1585
sg15
(lp1586
sg17
(lp1587
sg19
(lp1588
sg21
I0
sba(iArchitecture
Entity
p1589
(dp1590
g11
(lp1591
sg13
S'com.android.server.am.ActivityRecord'
p1592
sg15
(lp1593
sg17
(lp1594
sg19
(lp1595
sg21
I0
sba(iArchitecture
Entity
p1596
(dp1597
g11
(lp1598
sg13
S'com.android.server.am.ActivityRecord$Token'
p1599
sg15
(lp1600
sg17
(lp1601
sg19
(lp1602
sg21
I0
sba(iArchitecture
Entity
p1603
(dp1604
g11
(lp1605
sg13
S'com.android.server.am.ActivityResult'
p1606
sg15
(lp1607
sg17
(lp1608
sg19
(lp1609
sg21
I0
sba(iArchitecture
Entity
p1610
(dp1611
g11
(lp1612
sg13
S'com.android.server.am.ActivityStack'
p1613
sg15
(lp1614
sg17
(lp1615
sg19
(lp1616
sg21
I0
sba(iArchitecture
Entity
p1617
(dp1618
g11
(lp1619
sg13
S'com.android.server.am.ActivityStack$ActivityStackHandler'
p1620
sg15
(lp1621
sg17
(lp1622
sg19
(lp1623
sg21
I0
sba(iArchitecture
Entity
p1624
(dp1625
g11
(lp1626
sg13
S'com.android.server.am.ActivityStack$ActivityState'
p1627
sg15
(lp1628
sg17
(lp1629
sg19
(lp1630
sg21
I0
sba(iArchitecture
Entity
p1631
(dp1632
g11
(lp1633
sg13
S'com.android.server.am.ActivityStack$ScheduleDestroyArgs'
p1634
sg15
(lp1635
sg17
(lp1636
sg19
(lp1637
sg21
I0
sba(iArchitecture
Entity
p1638
(dp1639
g11
(lp1640
sg13
S'com.android.server.am.ActivityStackSupervisor'
p1641
sg15
(lp1642
sg17
(lp1643
sg19
(lp1644
sg21
I0
sba(iArchitecture
Entity
p1645
(dp1646
g11
(lp1647
sg13
S'com.android.server.am.ActivityStackSupervisor$ActivityContainer'
p1648
sg15
(lp1649
sg17
(lp1650
sg19
(lp1651
sg21
I0
sba(iArchitecture
Entity
p1652
(dp1653
g11
(lp1654
sg13
S'com.android.server.am.ActivityStackSupervisor$ActivityDisplay'
p1655
sg15
(lp1656
sg17
(lp1657
sg19
(lp1658
sg21
I0
sba(iArchitecture
Entity
p1659
(dp1660
g11
(lp1661
sg13
S'com.android.server.am.ActivityStackSupervisor$ActivityStackSupervisorHandler'
p1662
sg15
(lp1663
sg17
(lp1664
sg19
(lp1665
sg21
I0
sba(iArchitecture
Entity
p1666
(dp1667
g11
(lp1668
sg13
S'com.android.server.am.ActivityStackSupervisor$FindTaskResult'
p1669
sg15
(lp1670
sg17
(lp1671
sg19
(lp1672
sg21
I0
sba(iArchitecture
Entity
p1673
(dp1674
g11
(lp1675
sg13
S'com.android.server.am.ActivityStackSupervisor$PendingActivityLaunch'
p1676
sg15
(lp1677
sg17
(lp1678
sg19
(lp1679
sg21
I0
sba(iArchitecture
Entity
p1680
(dp1681
g11
(lp1682
sg13
S'com.android.server.am.ActivityStackSupervisor$VirtualActivityContainer'
p1683
sg15
(lp1684
sg17
(lp1685
sg19
(lp1686
sg21
I0
sba(iArchitecture
Entity
p1687
(dp1688
g11
(lp1689
sg13
S'com.android.server.am.ActivityStackSupervisor$VirtualActivityDisplay'
p1690
sg15
(lp1691
sg17
(lp1692
sg19
(lp1693
sg21
I0
sba(iArchitecture
Entity
p1694
(dp1695
g11
(lp1696
sg13
S'com.android.server.am.ActivityStartInterceptor'
p1697
sg15
(lp1698
sg17
(lp1699
sg19
(lp1700
sg21
I0
sba(iArchitecture
Entity
p1701
(dp1702
g11
(lp1703
sg13
S'com.android.server.am.ActivityStarter'
p1704
sg15
(lp1705
sg17
(lp1706
sg19
(lp1707
sg21
I0
sba(iArchitecture
Entity
p1708
(dp1709
g11
(lp1710
sg13
S'com.android.server.am.AppBindRecord'
p1711
sg15
(lp1712
sg17
(lp1713
sg19
(lp1714
sg21
I0
sba(iArchitecture
Entity
p1715
(dp1716
g11
(lp1717
sg13
S'com.android.server.am.AppErrorDialog'
p1718
sg15
(lp1719
sg17
(lp1720
sg19
(lp1721
sg21
I0
sba(iArchitecture
Entity
p1722
(dp1723
g11
(lp1724
sg13
S'com.android.server.am.AppErrorDialog$1'
p1725
sg15
(lp1726
sg17
(lp1727
sg19
(lp1728
sg21
I0
sba(iArchitecture
Entity
p1729
(dp1730
g11
(lp1731
sg13
S'com.android.server.am.AppErrorDialog$2'
p1732
sg15
(lp1733
sg17
(lp1734
sg19
(lp1735
sg21
I0
sba(iArchitecture
Entity
p1736
(dp1737
g11
(lp1738
sg13
S'com.android.server.am.AppErrorDialog$Data'
p1739
sg15
(lp1740
sg17
(lp1741
sg19
(lp1742
sg21
I0
sba(iArchitecture
Entity
p1743
(dp1744
g11
(lp1745
sg13
S'com.android.server.am.AppErrorResult'
p1746
sg15
(lp1747
sg17
(lp1748
sg19
(lp1749
sg21
I0
sba(iArchitecture
Entity
p1750
(dp1751
g11
(lp1752
sg13
S'com.android.server.am.AppErrors'
p1753
sg15
(lp1754
sg17
(lp1755
sg19
(lp1756
sg21
I0
sba(iArchitecture
Entity
p1757
(dp1758
g11
(lp1759
sg13
S'com.android.server.am.AppErrors$BadProcessInfo'
p1760
sg15
(lp1761
sg17
(lp1762
sg19
(lp1763
sg21
I0
sba(iArchitecture
Entity
p1764
(dp1765
g11
(lp1766
sg13
S'com.android.server.am.AppNotRespondingDialog'
p1767
sg15
(lp1768
sg17
(lp1769
sg19
(lp1770
sg21
I0
sba(iArchitecture
Entity
p1771
(dp1772
g11
(lp1773
sg13
S'com.android.server.am.AppNotRespondingDialog$1'
p1774
sg15
(lp1775
sg17
(lp1776
sg19
(lp1777
sg21
I0
sba(iArchitecture
Entity
p1778
(dp1779
g11
(lp1780
sg13
S'com.android.server.am.AppTimeTracker'
p1781
sg15
(lp1782
sg17
(lp1783
sg19
(lp1784
sg21
I0
sba(iArchitecture
Entity
p1785
(dp1786
g11
(lp1787
sg13
S'com.android.server.am.AppWaitingForDebuggerDialog'
p1788
sg15
(lp1789
sg17
(lp1790
sg19
(lp1791
sg21
I0
sba(iArchitecture
Entity
p1792
(dp1793
g11
(lp1794
sg13
S'com.android.server.am.AppWaitingForDebuggerDialog$1'
p1795
sg15
(lp1796
sg17
(lp1797
sg19
(lp1798
sg21
I0
sba(iArchitecture
Entity
p1799
(dp1800
g11
(lp1801
sg13
S'com.android.server.am.BackupRecord'
p1802
sg15
(lp1803
sg17
(lp1804
sg19
(lp1805
sg21
I0
sba(iArchitecture
Entity
p1806
(dp1807
g11
(lp1808
sg13
S'com.android.server.am.BaseErrorDialog'
p1809
sg15
(lp1810
sg17
(lp1811
sg19
(lp1812
sg21
I0
sba(iArchitecture
Entity
p1813
(dp1814
g11
(lp1815
sg13
S'com.android.server.am.BaseErrorDialog$1'
p1816
sg15
(lp1817
sg17
(lp1818
sg19
(lp1819
sg21
I0
sba(iArchitecture
Entity
p1820
(dp1821
g11
(lp1822
sg13
S'com.android.server.am.BatteryStatsService'
p1823
sg15
(lp1824
sg17
(lp1825
sg19
(lp1826
sg21
I0
sba(iArchitecture
Entity
p1827
(dp1828
g11
(lp1829
sg13
S'com.android.server.am.BatteryStatsService$1'
p1830
sg15
(lp1831
sg17
(lp1832
sg19
(lp1833
sg21
I0
sba(iArchitecture
Entity
p1834
(dp1835
g11
(lp1836
sg13
S'com.android.server.am.BatteryStatsService$BatteryStatsHandler'
p1837
sg15
(lp1838
sg17
(lp1839
sg19
(lp1840
sg21
I0
sba(iArchitecture
Entity
p1841
(dp1842
g11
(lp1843
sg13
S'com.android.server.am.BatteryStatsService$WakeupReasonThread'
p1844
sg15
(lp1845
sg17
(lp1846
sg19
(lp1847
sg21
I0
sba(iArchitecture
Entity
p1848
(dp1849
g11
(lp1850
sg13
S'com.android.server.am.BroadcastFilter'
p1851
sg15
(lp1852
sg17
(lp1853
sg19
(lp1854
sg21
I0
sba(iArchitecture
Entity
p1855
(dp1856
g11
(lp1857
sg13
S'com.android.server.am.BroadcastQueue'
p1858
sg15
(lp1859
sg17
(lp1860
sg19
(lp1861
sg21
I0
sba(iArchitecture
Entity
p1862
(dp1863
g11
(lp1864
sg13
S'com.android.server.am.BroadcastQueue$1'
p1865
sg15
(lp1866
sg17
(lp1867
sg19
(lp1868
sg21
I0
sba(iArchitecture
Entity
p1869
(dp1870
g11
(lp1871
sg13
S'com.android.server.am.BroadcastQueue$AppNotResponding'
p1872
sg15
(lp1873
sg17
(lp1874
sg19
(lp1875
sg21
I0
sba(iArchitecture
Entity
p1876
(dp1877
g11
(lp1878
sg13
S'com.android.server.am.BroadcastQueue$BroadcastHandler'
p1879
sg15
(lp1880
sg17
(lp1881
sg19
(lp1882
sg21
I0
sba(iArchitecture
Entity
p1883
(dp1884
g11
(lp1885
sg13
S'com.android.server.am.BroadcastRecord'
p1886
sg15
(lp1887
sg17
(lp1888
sg19
(lp1889
sg21
I0
sba(iArchitecture
Entity
p1890
(dp1891
g11
(lp1892
sg13
S'com.android.server.am.BroadcastStats'
p1893
sg15
(lp1894
sg17
(lp1895
sg19
(lp1896
sg21
I0
sba(iArchitecture
Entity
p1897
(dp1898
g11
(lp1899
sg13
S'com.android.server.am.BroadcastStats$1'
p1900
sg15
(lp1901
sg17
(lp1902
sg19
(lp1903
sg21
I0
sba(iArchitecture
Entity
p1904
(dp1905
g11
(lp1906
sg13
S'com.android.server.am.BroadcastStats$ActionEntry'
p1907
sg15
(lp1908
sg17
(lp1909
sg19
(lp1910
sg21
I0
sba(iArchitecture
Entity
p1911
(dp1912
g11
(lp1913
sg13
S'com.android.server.am.BroadcastStats$PackageEntry'
p1914
sg15
(lp1915
sg17
(lp1916
sg19
(lp1917
sg21
I0
sba(iArchitecture
Entity
p1918
(dp1919
g11
(lp1920
sg13
S'com.android.server.am.CompatModeDialog'
p1921
sg15
(lp1922
sg17
(lp1923
sg19
(lp1924
sg21
I0
sba(iArchitecture
Entity
p1925
(dp1926
g11
(lp1927
sg13
S'com.android.server.am.CompatModeDialog$1'
p1928
sg15
(lp1929
sg17
(lp1930
sg19
(lp1931
sg21
I0
sba(iArchitecture
Entity
p1932
(dp1933
g11
(lp1934
sg13
S'com.android.server.am.CompatModeDialog$2'
p1935
sg15
(lp1936
sg17
(lp1937
sg19
(lp1938
sg21
I0
sba(iArchitecture
Entity
p1939
(dp1940
g11
(lp1941
sg13
S'com.android.server.am.CompatModePackages'
p1942
sg15
(lp1943
sg17
(lp1944
sg19
(lp1945
sg21
I0
sba(iArchitecture
Entity
p1946
(dp1947
g11
(lp1948
sg13
S'com.android.server.am.CompatModePackages$CompatHandler'
p1949
sg15
(lp1950
sg17
(lp1951
sg19
(lp1952
sg21
I0
sba(iArchitecture
Entity
p1953
(dp1954
g11
(lp1955
sg13
S'com.android.server.am.ConnectionRecord'
p1956
sg15
(lp1957
sg17
(lp1958
sg19
(lp1959
sg21
I0
sba(iArchitecture
Entity
p1960
(dp1961
g11
(lp1962
sg13
S'com.android.server.am.ContentProviderConnection'
p1963
sg15
(lp1964
sg17
(lp1965
sg19
(lp1966
sg21
I0
sba(iArchitecture
Entity
p1967
(dp1968
g11
(lp1969
sg13
S'com.android.server.am.ContentProviderRecord'
p1970
sg15
(lp1971
sg17
(lp1972
sg19
(lp1973
sg21
I0
sba(iArchitecture
Entity
p1974
(dp1975
g11
(lp1976
sg13
S'com.android.server.am.ContentProviderRecord$ExternalProcessHandle'
p1977
sg15
(lp1978
sg17
(lp1979
sg19
(lp1980
sg21
I0
sba(iArchitecture
Entity
p1981
(dp1982
g11
(lp1983
sg13
S'com.android.server.am.CoreSettingsObserver'
p1984
sg15
(lp1985
sg17
(lp1986
sg19
(lp1987
sg21
I0
sba(iArchitecture
Entity
p1988
(dp1989
g11
(lp1990
sg13
S'com.android.server.am.DumpHeapProvider'
p1991
sg15
(lp1992
sg17
(lp1993
sg19
(lp1994
sg21
I0
sba(iArchitecture
Entity
p1995
(dp1996
g11
(lp1997
sg13
S'com.android.server.am.EventLogTags'
p1998
sg15
(lp1999
sg17
(lp2000
sg19
(lp2001
sg21
I0
sba(iArchitecture
Entity
p2002
(dp2003
g11
(lp2004
sg13
S'com.android.server.am.FactoryErrorDialog'
p2005
sg15
(lp2006
sg17
(lp2007
sg19
(lp2008
sg21
I0
sba(iArchitecture
Entity
p2009
(dp2010
g11
(lp2011
sg13
S'com.android.server.am.FactoryErrorDialog$1'
p2012
sg15
(lp2013
sg17
(lp2014
sg19
(lp2015
sg21
I0
sba(iArchitecture
Entity
p2016
(dp2017
g11
(lp2018
sg13
S'com.android.server.am.HealthStatsBatteryStatsWriter'
p2019
sg15
(lp2020
sg17
(lp2021
sg19
(lp2022
sg21
I0
sba(iArchitecture
Entity
p2023
(dp2024
g11
(lp2025
sg13
S'com.android.server.am.InstrumentationReporter'
p2026
sg15
(lp2027
sg17
(lp2028
sg19
(lp2029
sg21
I0
sba(iArchitecture
Entity
p2030
(dp2031
g11
(lp2032
sg13
S'com.android.server.am.InstrumentationReporter$MyThread'
p2033
sg15
(lp2034
sg17
(lp2035
sg19
(lp2036
sg21
I0
sba(iArchitecture
Entity
p2037
(dp2038
g11
(lp2039
sg13
S'com.android.server.am.InstrumentationReporter$Report'
p2040
sg15
(lp2041
sg17
(lp2042
sg19
(lp2043
sg21
I0
sba(iArchitecture
Entity
p2044
(dp2045
g11
(lp2046
sg13
S'com.android.server.am.IntentBindRecord'
p2047
sg15
(lp2048
sg17
(lp2049
sg19
(lp2050
sg21
I0
sba(iArchitecture
Entity
p2051
(dp2052
g11
(lp2053
sg13
S'com.android.server.am.LaunchWarningWindow'
p2054
sg15
(lp2055
sg17
(lp2056
sg19
(lp2057
sg21
I0
sba(iArchitecture
Entity
p2058
(dp2059
g11
(lp2060
sg13
S'com.android.server.am.LaunchingTaskPositioner'
p2061
sg15
(lp2062
sg17
(lp2063
sg19
(lp2064
sg21
I0
sba(iArchitecture
Entity
p2065
(dp2066
g11
(lp2067
sg13
S'com.android.server.am.LockTaskNotify'
p2068
sg15
(lp2069
sg17
(lp2070
sg19
(lp2071
sg21
I0
sba(iArchitecture
Entity
p2072
(dp2073
g11
(lp2074
sg13
S'com.android.server.am.LockTaskNotify$H'
p2075
sg15
(lp2076
sg17
(lp2077
sg19
(lp2078
sg21
I0
sba(iArchitecture
Entity
p2079
(dp2080
g11
(lp2081
sg13
S'com.android.server.am.NativeCrashListener'
p2082
sg15
(lp2083
sg17
(lp2084
sg19
(lp2085
sg21
I0
sba(iArchitecture
Entity
p2086
(dp2087
g11
(lp2088
sg13
S'com.android.server.am.NativeCrashListener$NativeCrashReporter'
p2089
sg15
(lp2090
sg17
(lp2091
sg19
(lp2092
sg21
I0
sba(iArchitecture
Entity
p2093
(dp2094
g11
(lp2095
sg13
S'com.android.server.am.PendingIntentRecord'
p2096
sg15
(lp2097
sg17
(lp2098
sg19
(lp2099
sg21
I0
sba(iArchitecture
Entity
p2100
(dp2101
g11
(lp2102
sg13
S'com.android.server.am.PendingIntentRecord$Key'
p2103
sg15
(lp2104
sg17
(lp2105
sg19
(lp2106
sg21
I0
sba(iArchitecture
Entity
p2107
(dp2108
g11
(lp2109
sg13
S'com.android.server.am.PreBootBroadcaster'
p2110
sg15
(lp2111
sg17
(lp2112
sg19
(lp2113
sg21
I0
sba(iArchitecture
Entity
p2114
(dp2115
g11
(lp2116
sg13
S'com.android.server.am.ProcessList'
p2117
sg15
(lp2118
sg17
(lp2119
sg19
(lp2120
sg21
I0
sba(iArchitecture
Entity
p2121
(dp2122
g11
(lp2123
sg13
S'com.android.server.am.ProcessMemInfo'
p2124
sg15
(lp2125
sg17
(lp2126
sg19
(lp2127
sg21
I0
sba(iArchitecture
Entity
p2128
(dp2129
g11
(lp2130
sg13
S'com.android.server.am.ProcessRecord'
p2131
sg15
(lp2132
sg17
(lp2133
sg19
(lp2134
sg21
I0
sba(iArchitecture
Entity
p2135
(dp2136
g11
(lp2137
sg13
S'com.android.server.am.ProcessStatsService'
p2138
sg15
(lp2139
sg17
(lp2140
sg19
(lp2141
sg21
I0
sba(iArchitecture
Entity
p2142
(dp2143
g11
(lp2144
sg13
S'com.android.server.am.ProcessStatsService$1'
p2145
sg15
(lp2146
sg17
(lp2147
sg19
(lp2148
sg21
I0
sba(iArchitecture
Entity
p2149
(dp2150
g11
(lp2151
sg13
S'com.android.server.am.ProcessStatsService$2'
p2152
sg15
(lp2153
sg17
(lp2154
sg19
(lp2155
sg21
I0
sba(iArchitecture
Entity
p2156
(dp2157
g11
(lp2158
sg13
S'com.android.server.am.ProcessStatsService$3'
p2159
sg15
(lp2160
sg17
(lp2161
sg19
(lp2162
sg21
I0
sba(iArchitecture
Entity
p2163
(dp2164
g11
(lp2165
sg13
S'com.android.server.am.ProviderMap'
p2166
sg15
(lp2167
sg17
(lp2168
sg19
(lp2169
sg21
I0
sba(iArchitecture
Entity
p2170
(dp2171
g11
(lp2172
sg13
S'com.android.server.am.ReceiverList'
p2173
sg15
(lp2174
sg17
(lp2175
sg19
(lp2176
sg21
I0
sba(iArchitecture
Entity
p2177
(dp2178
g11
(lp2179
sg13
S'com.android.server.am.RecentTasks'
p2180
sg15
(lp2181
sg17
(lp2182
sg19
(lp2183
sg21
I0
sba(iArchitecture
Entity
p2184
(dp2185
g11
(lp2186
sg13
S'com.android.server.am.RecentTasks$1'
p2187
sg15
(lp2188
sg17
(lp2189
sg19
(lp2190
sg21
I0
sba(iArchitecture
Entity
p2191
(dp2192
g11
(lp2193
sg13
S'com.android.server.am.ResizeDockedStackTimeout'
p2194
sg15
(lp2195
sg17
(lp2196
sg19
(lp2197
sg21
I0
sba(iArchitecture
Entity
p2198
(dp2199
g11
(lp2200
sg13
S'com.android.server.am.ResizeDockedStackTimeout$1'
p2201
sg15
(lp2202
sg17
(lp2203
sg19
(lp2204
sg21
I0
sba(iArchitecture
Entity
p2205
(dp2206
g11
(lp2207
sg13
S'com.android.server.am.ServiceRecord'
p2208
sg15
(lp2209
sg17
(lp2210
sg19
(lp2211
sg21
I0
sba(iArchitecture
Entity
p2212
(dp2213
g11
(lp2214
sg13
S'com.android.server.am.ServiceRecord$1'
p2215
sg15
(lp2216
sg17
(lp2217
sg19
(lp2218
sg21
I0
sba(iArchitecture
Entity
p2219
(dp2220
g11
(lp2221
sg13
S'com.android.server.am.ServiceRecord$2'
p2222
sg15
(lp2223
sg17
(lp2224
sg19
(lp2225
sg21
I0
sba(iArchitecture
Entity
p2226
(dp2227
g11
(lp2228
sg13
S'com.android.server.am.ServiceRecord$3'
p2229
sg15
(lp2230
sg17
(lp2231
sg19
(lp2232
sg21
I0
sba(iArchitecture
Entity
p2233
(dp2234
g11
(lp2235
sg13
S'com.android.server.am.ServiceRecord$StartItem'
p2236
sg15
(lp2237
sg17
(lp2238
sg19
(lp2239
sg21
I0
sba(iArchitecture
Entity
p2240
(dp2241
g11
(lp2242
sg13
S'com.android.server.am.StrictModeViolationDialog'
p2243
sg15
(lp2244
sg17
(lp2245
sg19
(lp2246
sg21
I0
sba(iArchitecture
Entity
p2247
(dp2248
g11
(lp2249
sg13
S'com.android.server.am.StrictModeViolationDialog$1'
p2250
sg15
(lp2251
sg17
(lp2252
sg19
(lp2253
sg21
I0
sba(iArchitecture
Entity
p2254
(dp2255
g11
(lp2256
sg13
S'com.android.server.am.TaskPersister'
p2257
sg15
(lp2258
sg17
(lp2259
sg19
(lp2260
sg21
I0
sba(iArchitecture
Entity
p2261
(dp2262
g11
(lp2263
sg13
S'com.android.server.am.TaskPersister$1'
p2264
sg15
(lp2265
sg17
(lp2266
sg19
(lp2267
sg21
I0
sba(iArchitecture
Entity
p2268
(dp2269
g11
(lp2270
sg13
S'com.android.server.am.TaskPersister$ImageWriteQueueItem'
p2271
sg15
(lp2272
sg17
(lp2273
sg19
(lp2274
sg21
I0
sba(iArchitecture
Entity
p2275
(dp2276
g11
(lp2277
sg13
S'com.android.server.am.TaskPersister$LazyTaskWriterThread'
p2278
sg15
(lp2279
sg17
(lp2280
sg19
(lp2281
sg21
I0
sba(iArchitecture
Entity
p2282
(dp2283
g11
(lp2284
sg13
S'com.android.server.am.TaskPersister$TaskWriteQueueItem'
p2285
sg15
(lp2286
sg17
(lp2287
sg19
(lp2288
sg21
I0
sba(iArchitecture
Entity
p2289
(dp2290
g11
(lp2291
sg13
S'com.android.server.am.TaskPersister$WriteQueueItem'
p2292
sg15
(lp2293
sg17
(lp2294
sg19
(lp2295
sg21
I0
sba(iArchitecture
Entity
p2296
(dp2297
g11
(lp2298
sg13
S'com.android.server.am.TaskRecord'
p2299
sg15
(lp2300
sg17
(lp2301
sg19
(lp2302
sg21
I0
sba(iArchitecture
Entity
p2303
(dp2304
g11
(lp2305
sg13
S'com.android.server.am.UidRecord'
p2306
sg15
(lp2307
sg17
(lp2308
sg19
(lp2309
sg21
I0
sba(iArchitecture
Entity
p2310
(dp2311
g11
(lp2312
sg13
S'com.android.server.am.UidRecord$ChangeItem'
p2313
sg15
(lp2314
sg17
(lp2315
sg19
(lp2316
sg21
I0
sba(iArchitecture
Entity
p2317
(dp2318
g11
(lp2319
sg13
S'com.android.server.am.UnsupportedDisplaySizeDialog'
p2320
sg15
(lp2321
sg17
(lp2322
sg19
(lp2323
sg21
I0
sba(iArchitecture
Entity
p2324
(dp2325
g11
(lp2326
sg13
S'com.android.server.am.UnsupportedDisplaySizeDialog$_void__init__com_android_server_am_ActivityManagerService_service_android_content_Context_context_android_content_pm_ApplicationInfo_appInfo_LambdaImpl0'
p2327
sg15
(lp2328
sg17
(lp2329
sg19
(lp2330
sg21
I0
sba(iArchitecture
Entity
p2331
(dp2332
g11
(lp2333
sg13
S'com.android.server.am.UriPermission'
p2334
sg15
(lp2335
sg17
(lp2336
sg19
(lp2337
sg21
I0
sba(iArchitecture
Entity
p2338
(dp2339
g11
(lp2340
sg13
S'com.android.server.am.UriPermission$PersistedTimeComparator'
p2341
sg15
(lp2342
sg17
(lp2343
sg19
(lp2344
sg21
I0
sba(iArchitecture
Entity
p2345
(dp2346
g11
(lp2347
sg13
S'com.android.server.am.UriPermission$Snapshot'
p2348
sg15
(lp2349
sg17
(lp2350
sg19
(lp2351
sg21
I0
sba(iArchitecture
Entity
p2352
(dp2353
g11
(lp2354
sg13
S'com.android.server.am.UriPermissionOwner'
p2355
sg15
(lp2356
sg17
(lp2357
sg19
(lp2358
sg21
I0
sba(iArchitecture
Entity
p2359
(dp2360
g11
(lp2361
sg13
S'com.android.server.am.UriPermissionOwner$ExternalToken'
p2362
sg15
(lp2363
sg17
(lp2364
sg19
(lp2365
sg21
I0
sba(iArchitecture
Entity
p2366
(dp2367
g11
(lp2368
sg13
S'com.android.server.am.UserController'
p2369
sg15
(lp2370
sg17
(lp2371
sg19
(lp2372
sg21
I0
sba(iArchitecture
Entity
p2373
(dp2374
g11
(lp2375
sg13
S'com.android.server.am.UserController$1'
p2376
sg15
(lp2377
sg17
(lp2378
sg19
(lp2379
sg21
I0
sba(iArchitecture
Entity
p2380
(dp2381
g11
(lp2382
sg13
S'com.android.server.am.UserController$2'
p2383
sg15
(lp2384
sg17
(lp2385
sg19
(lp2386
sg21
I0
sba(iArchitecture
Entity
p2387
(dp2388
g11
(lp2389
sg13
S'com.android.server.am.UserController$3'
p2390
sg15
(lp2391
sg17
(lp2392
sg19
(lp2393
sg21
I0
sba(iArchitecture
Entity
p2394
(dp2395
g11
(lp2396
sg13
S'com.android.server.am.UserController$4'
p2397
sg15
(lp2398
sg17
(lp2399
sg19
(lp2400
sg21
I0
sba(iArchitecture
Entity
p2401
(dp2402
g11
(lp2403
sg13
S'com.android.server.am.UserController$4$1'
p2404
sg15
(lp2405
sg17
(lp2406
sg19
(lp2407
sg21
I0
sba(iArchitecture
Entity
p2408
(dp2409
g11
(lp2410
sg13
S'com.android.server.am.UserController$5'
p2411
sg15
(lp2412
sg17
(lp2413
sg19
(lp2414
sg21
I0
sba(iArchitecture
Entity
p2415
(dp2416
g11
(lp2417
sg13
S'com.android.server.am.UserController$5$1'
p2418
sg15
(lp2419
sg17
(lp2420
sg19
(lp2421
sg21
I0
sba(iArchitecture
Entity
p2422
(dp2423
g11
(lp2424
sg13
S'com.android.server.am.UserController$6'
p2425
sg15
(lp2426
sg17
(lp2427
sg19
(lp2428
sg21
I0
sba(iArchitecture
Entity
p2429
(dp2430
g11
(lp2431
sg13
S'com.android.server.am.UserController$7'
p2432
sg15
(lp2433
sg17
(lp2434
sg19
(lp2435
sg21
I0
sba(iArchitecture
Entity
p2436
(dp2437
g11
(lp2438
sg13
S'com.android.server.am.UserState'
p2439
sg15
(lp2440
sg17
(lp2441
sg19
(lp2442
sg21
I0
sba(iArchitecture
Entity
p2443
(dp2444
g11
(lp2445
sg13
S'com.android.server.am.UserSwitchingDialog'
p2446
sg15
(lp2447
sg17
(lp2448
sg19
(lp2449
sg21
I0
sba(iArchitecture
Entity
p2450
(dp2451
g11
(lp2452
sg13
S'com.android.server.am.UserSwitchingDialog$1'
p2453
sg15
(lp2454
sg17
(lp2455
sg19
(lp2456
sg21
I0
sbasg1093
(lp2457
g1123
ag1130
ag1137
ag1144
ag1151
ag1158
ag1165
ag1172
ag1179
ag1186
ag1193
ag1200
ag1207
ag1214
ag1221
ag1228
ag1235
ag1242
ag1249
ag1256
ag1263
ag1270
ag1277
ag1284
ag1291
ag1298
ag1305
ag1312
ag1319
ag1326
ag1333
ag1340
ag1347
ag1354
ag1361
ag1368
ag1375
ag1382
ag1389
ag1396
ag1403
ag1410
ag1417
ag1424
ag1431
ag1438
ag1445
ag1452
ag1459
ag1466
ag1473
ag1480
ag1487
ag1494
ag1501
ag1508
ag1515
ag1522
ag1529
ag1536
ag1543
ag1550
ag1557
ag1564
ag1571
ag1578
ag1585
ag1592
ag1599
ag1606
ag1613
ag1620
ag1627
ag1634
ag1641
ag1648
ag1655
ag1662
ag1669
ag1676
ag1683
ag1690
ag1697
ag1704
ag1711
ag1718
ag1725
ag1732
ag1739
ag1746
ag1753
ag1760
ag1767
ag1774
ag1781
ag1788
ag1795
ag1802
ag1809
ag1816
ag1823
ag1830
ag1837
ag1844
ag1851
ag1858
ag1865
ag1872
ag1879
ag1886
ag1893
ag1900
ag1907
ag1914
ag1921
ag1928
ag1935
ag1942
ag1949
ag1956
ag1963
ag1970
ag1977
ag1984
ag1991
ag1998
ag2005
ag2012
ag2019
ag2026
ag2033
ag2040
ag2047
ag2054
ag2061
ag2068
ag2075
ag2082
ag2089
ag2096
ag2103
ag2110
ag2117
ag2124
ag2131
ag2138
ag2145
ag2152
ag2159
ag2166
ag2173
ag2180
ag2187
ag2194
ag2201
ag2208
ag2215
ag2222
ag2229
ag2236
ag2243
ag2250
ag2257
ag2264
ag2271
ag2278
ag2285
ag2292
ag2299
ag2306
ag2313
ag2320
ag2327
ag2334
ag2341
ag2348
ag2355
ag2362
ag2369
ag2376
ag2383
ag2390
ag2397
ag2404
ag2411
ag2418
ag2425
ag2432
ag2439
ag2446
ag2453
asg21
I0
sg1095
S'com.android.server.am.ss'
p2458
sbasg1109
g1110
sg1093
(lp2459
sg1112
I00
sg1095
S'7.0.0_r1'
p2460
sba.