(lp0
(iArchitecture
Architecture
p1
(dp2
S'clusters'
p3
(lp4
(iArchitecture
Cluster
p5
(dp6
S'entities'
p7
(lp8
(iArchitecture
Entity
p9
(dp10
S'issue_ids'
p11
(lp12
sS'name'
p13
S'android.graphics.BitmapFactory'
p14
sS'descs'
p15
(lp16
sS'labels'
p17
(lp18
sS'titles'
p19
(lp20
sS'change'
p21
I0
sba(iArchitecture
Entity
p22
(dp23
g11
(lp24
sg13
S'android.graphics.BitmapFactory$Options'
p25
sg15
(lp26
sg17
(lp27
sg19
(lp28
sg21
I0
sba(iArchitecture
Entity
p29
(dp30
g11
(lp31
sg13
S'android.graphics.BitmapRegionDecoder'
p32
sg15
(lp33
sg17
(lp34
sg19
(lp35
sg21
I0
sba(iArchitecture
Entity
p36
(dp37
g11
(lp38
sg13
S'android.graphics.DrawFilter'
p39
sg15
(lp40
sg17
(lp41
sg19
(lp42
sg21
I0
sba(iArchitecture
Entity
p43
(dp44
g11
(lp45
sg13
S'android.graphics.PaintFlagsDrawFilter'
p46
sg15
(lp47
sg17
(lp48
sg19
(lp49
sg21
I0
sba(iArchitecture
Entity
p50
(dp51
g11
(lp52
sg13
S'android.graphics.drawable.PaintDrawable'
p53
sg15
(lp54
sg17
(lp55
sg19
(lp56
sg21
I0
sbasS'classes'
p57
(lp58
g14
ag25
ag32
ag39
ag46
ag53
asg21
I0
sS'label'
p59
S'android.app.ss'
p60
sba(iArchitecture
Cluster
p61
(dp62
g7
(lp63
(iArchitecture
Entity
p64
(dp65
g11
(lp66
sg13
S'android.graphics.Movie'
p67
sg15
(lp68
sg17
(lp69
sg19
(lp70
sg21
I0
sbasg57
(lp71
g67
asg21
I0
sg59
S'android.content.res.ss'
p72
sba(iArchitecture
Cluster
p73
(dp74
g7
(lp75
(iArchitecture
Entity
p76
(dp77
g11
(lp78
sg13
S'android.graphics.BitmapShader'
p79
sg15
(lp80
sg17
(lp81
sg19
(lp82
sg21
I0
sba(iArchitecture
Entity
p83
(dp84
g11
(lp85
sg13
S'android.graphics.ColorFilter'
p86
sg15
(lp87
sg17
(lp88
sg19
(lp89
sg21
I0
sba(iArchitecture
Entity
p90
(dp91
g11
(lp92
sg13
S'android.graphics.ComposePathEffect'
p93
sg15
(lp94
sg17
(lp95
sg19
(lp96
sg21
I0
sba(iArchitecture
Entity
p97
(dp98
g11
(lp99
sg13
S'android.graphics.CornerPathEffect'
p100
sg15
(lp101
sg17
(lp102
sg19
(lp103
sg21
I0
sba(iArchitecture
Entity
p104
(dp105
g11
(lp106
sg13
S'android.graphics.DashPathEffect'
p107
sg15
(lp108
sg17
(lp109
sg19
(lp110
sg21
I0
sba(iArchitecture
Entity
p111
(dp112
g11
(lp113
sg13
S'android.graphics.DiscretePathEffect'
p114
sg15
(lp115
sg17
(lp116
sg19
(lp117
sg21
I0
sba(iArchitecture
Entity
p118
(dp119
g11
(lp120
sg13
S'android.graphics.Insets'
p121
sg15
(lp122
sg17
(lp123
sg19
(lp124
sg21
I0
sba(iArchitecture
Entity
p125
(dp126
g11
(lp127
sg13
S'android.graphics.LightingColorFilter'
p128
sg15
(lp129
sg17
(lp130
sg19
(lp131
sg21
I0
sba(iArchitecture
Entity
p132
(dp133
g11
(lp134
sg13
S'android.graphics.LinearGradient'
p135
sg15
(lp136
sg17
(lp137
sg19
(lp138
sg21
I0
sba(iArchitecture
Entity
p139
(dp140
g11
(lp141
sg13
S'android.graphics.NinePatch'
p142
sg15
(lp143
sg17
(lp144
sg19
(lp145
sg21
I0
sba(iArchitecture
Entity
p146
(dp147
g11
(lp148
sg13
S'android.graphics.NinePatch$InsetStruct'
p149
sg15
(lp150
sg17
(lp151
sg19
(lp152
sg21
I0
sba(iArchitecture
Entity
p153
(dp154
g11
(lp155
sg13
S'android.graphics.Paint$Cap'
p156
sg15
(lp157
sg17
(lp158
sg19
(lp159
sg21
I0
sba(iArchitecture
Entity
p160
(dp161
g11
(lp162
sg13
S'android.graphics.Paint$Join'
p163
sg15
(lp164
sg17
(lp165
sg19
(lp166
sg21
I0
sba(iArchitecture
Entity
p167
(dp168
g11
(lp169
sg13
S'android.graphics.Path$FillType'
p170
sg15
(lp171
sg17
(lp172
sg19
(lp173
sg21
I0
sba(iArchitecture
Entity
p174
(dp175
g11
(lp176
sg13
S'android.graphics.PathEffect'
p177
sg15
(lp178
sg17
(lp179
sg19
(lp180
sg21
I0
sba(iArchitecture
Entity
p181
(dp182
g11
(lp183
sg13
S'android.graphics.PorterDuff'
p184
sg15
(lp185
sg17
(lp186
sg19
(lp187
sg21
I0
sba(iArchitecture
Entity
p188
(dp189
g11
(lp190
sg13
S'android.graphics.RadialGradient'
p191
sg15
(lp192
sg17
(lp193
sg19
(lp194
sg21
I0
sba(iArchitecture
Entity
p195
(dp196
g11
(lp197
sg13
S'android.graphics.Shader'
p198
sg15
(lp199
sg17
(lp200
sg19
(lp201
sg21
I0
sba(iArchitecture
Entity
p202
(dp203
g11
(lp204
sg13
S'android.graphics.Shader$TileMode'
p205
sg15
(lp206
sg17
(lp207
sg19
(lp208
sg21
I0
sba(iArchitecture
Entity
p209
(dp210
g11
(lp211
sg13
S'android.graphics.SumPathEffect'
p212
sg15
(lp213
sg17
(lp214
sg19
(lp215
sg21
I0
sba(iArchitecture
Entity
p216
(dp217
g11
(lp218
sg13
S'android.graphics.SweepGradient'
p219
sg15
(lp220
sg17
(lp221
sg19
(lp222
sg21
I0
sba(iArchitecture
Entity
p223
(dp224
g11
(lp225
sg13
S'android.graphics.drawable.Animatable'
p226
sg15
(lp227
sg17
(lp228
sg19
(lp229
sg21
I0
sba(iArchitecture
Entity
p230
(dp231
g11
(lp232
sg13
S'android.graphics.drawable.Animatable2'
p233
sg15
(lp234
sg17
(lp235
sg19
(lp236
sg21
I0
sba(iArchitecture
Entity
p237
(dp238
g11
(lp239
sg13
S'android.graphics.drawable.Animatable2$AnimationCallback'
p240
sg15
(lp241
sg17
(lp242
sg19
(lp243
sg21
I0
sba(iArchitecture
Entity
p244
(dp245
g11
(lp246
sg13
S'android.graphics.drawable.AnimatedRotateDrawable'
p247
sg15
(lp248
sg17
(lp249
sg19
(lp250
sg21
I0
sba(iArchitecture
Entity
p251
(dp252
g11
(lp253
sg13
S'android.graphics.drawable.AnimatedRotateDrawable$1'
p254
sg15
(lp255
sg17
(lp256
sg19
(lp257
sg21
I0
sba(iArchitecture
Entity
p258
(dp259
g11
(lp260
sg13
S'android.graphics.drawable.AnimatedRotateDrawable$AnimatedRotateState'
p261
sg15
(lp262
sg17
(lp263
sg19
(lp264
sg21
I0
sba(iArchitecture
Entity
p265
(dp266
g11
(lp267
sg13
S'android.graphics.drawable.AnimatedStateListDrawable'
p268
sg15
(lp269
sg17
(lp270
sg19
(lp271
sg21
I0
sba(iArchitecture
Entity
p272
(dp273
g11
(lp274
sg13
S'android.graphics.drawable.AnimatedStateListDrawable$AnimatableTransition'
p275
sg15
(lp276
sg17
(lp277
sg19
(lp278
sg21
I0
sba(iArchitecture
Entity
p279
(dp280
g11
(lp281
sg13
S'android.graphics.drawable.AnimatedStateListDrawable$AnimatedStateListState'
p282
sg15
(lp283
sg17
(lp284
sg19
(lp285
sg21
I0
sba(iArchitecture
Entity
p286
(dp287
g11
(lp288
sg13
S'android.graphics.drawable.AnimatedStateListDrawable$AnimatedVectorDrawableTransition'
p289
sg15
(lp290
sg17
(lp291
sg19
(lp292
sg21
I0
sba(iArchitecture
Entity
p293
(dp294
g11
(lp295
sg13
S'android.graphics.drawable.AnimatedStateListDrawable$AnimationDrawableTransition'
p296
sg15
(lp297
sg17
(lp298
sg19
(lp299
sg21
I0
sba(iArchitecture
Entity
p300
(dp301
g11
(lp302
sg13
S'android.graphics.drawable.AnimatedStateListDrawable$FrameInterpolator'
p303
sg15
(lp304
sg17
(lp305
sg19
(lp306
sg21
I0
sba(iArchitecture
Entity
p307
(dp308
g11
(lp309
sg13
S'android.graphics.drawable.AnimatedStateListDrawable$Transition'
p310
sg15
(lp311
sg17
(lp312
sg19
(lp313
sg21
I0
sba(iArchitecture
Entity
p314
(dp315
g11
(lp316
sg13
S'android.graphics.drawable.AnimatedVectorDrawable'
p317
sg15
(lp318
sg17
(lp319
sg19
(lp320
sg21
I0
sba(iArchitecture
Entity
p321
(dp322
g11
(lp323
sg13
S'android.graphics.drawable.AnimatedVectorDrawable$1'
p324
sg15
(lp325
sg17
(lp326
sg19
(lp327
sg21
I0
sba(iArchitecture
Entity
p328
(dp329
g11
(lp330
sg13
S'android.graphics.drawable.AnimatedVectorDrawable$2'
p331
sg15
(lp332
sg17
(lp333
sg19
(lp334
sg21
I0
sba(iArchitecture
Entity
p335
(dp336
g11
(lp337
sg13
S'android.graphics.drawable.AnimatedVectorDrawable$AnimatedVectorDrawableState'
p338
sg15
(lp339
sg17
(lp340
sg19
(lp341
sg21
I0
sba(iArchitecture
Entity
p342
(dp343
g11
(lp344
sg13
S'android.graphics.drawable.AnimatedVectorDrawable$AnimatedVectorDrawableState$PendingAnimator'
p345
sg15
(lp346
sg17
(lp347
sg19
(lp348
sg21
I0
sba(iArchitecture
Entity
p349
(dp350
g11
(lp351
sg13
S'android.graphics.drawable.AnimationDrawable'
p352
sg15
(lp353
sg17
(lp354
sg19
(lp355
sg21
I0
sba(iArchitecture
Entity
p356
(dp357
g11
(lp358
sg13
S'android.graphics.drawable.AnimationDrawable$AnimationState'
p359
sg15
(lp360
sg17
(lp361
sg19
(lp362
sg21
I0
sba(iArchitecture
Entity
p363
(dp364
g11
(lp365
sg13
S'android.graphics.drawable.BitmapDrawable'
p366
sg15
(lp367
sg17
(lp368
sg19
(lp369
sg21
I0
sba(iArchitecture
Entity
p370
(dp371
g11
(lp372
sg13
S'android.graphics.drawable.BitmapDrawable$BitmapState'
p373
sg15
(lp374
sg17
(lp375
sg19
(lp376
sg21
I0
sba(iArchitecture
Entity
p377
(dp378
g11
(lp379
sg13
S'android.graphics.drawable.ClipDrawable'
p380
sg15
(lp381
sg17
(lp382
sg19
(lp383
sg21
I0
sba(iArchitecture
Entity
p384
(dp385
g11
(lp386
sg13
S'android.graphics.drawable.ClipDrawable$ClipState'
p387
sg15
(lp388
sg17
(lp389
sg19
(lp390
sg21
I0
sba(iArchitecture
Entity
p391
(dp392
g11
(lp393
sg13
S'android.graphics.drawable.ColorDrawable'
p394
sg15
(lp395
sg17
(lp396
sg19
(lp397
sg21
I0
sba(iArchitecture
Entity
p398
(dp399
g11
(lp400
sg13
S'android.graphics.drawable.ColorDrawable$ColorState'
p401
sg15
(lp402
sg17
(lp403
sg19
(lp404
sg21
I0
sba(iArchitecture
Entity
p405
(dp406
g11
(lp407
sg13
S'android.graphics.drawable.Drawable'
p408
sg15
(lp409
sg17
(lp410
sg19
(lp411
sg21
I0
sba(iArchitecture
Entity
p412
(dp413
g11
(lp414
sg13
S'android.graphics.drawable.Drawable$Callback'
p415
sg15
(lp416
sg17
(lp417
sg19
(lp418
sg21
I0
sba(iArchitecture
Entity
p419
(dp420
g11
(lp421
sg13
S'android.graphics.drawable.Drawable$ConstantState'
p422
sg15
(lp423
sg17
(lp424
sg19
(lp425
sg21
I0
sba(iArchitecture
Entity
p426
(dp427
g11
(lp428
sg13
S'android.graphics.drawable.DrawableContainer'
p429
sg15
(lp430
sg17
(lp431
sg19
(lp432
sg21
I0
sba(iArchitecture
Entity
p433
(dp434
g11
(lp435
sg13
S'android.graphics.drawable.DrawableContainer$1'
p436
sg15
(lp437
sg17
(lp438
sg19
(lp439
sg21
I0
sba(iArchitecture
Entity
p440
(dp441
g11
(lp442
sg13
S'android.graphics.drawable.DrawableContainer$DrawableContainerState'
p443
sg15
(lp444
sg17
(lp445
sg19
(lp446
sg21
I0
sba(iArchitecture
Entity
p447
(dp448
g11
(lp449
sg13
S'android.graphics.drawable.DrawableContainer$DrawableContainerState$ConstantStateFuture'
p450
sg15
(lp451
sg17
(lp452
sg19
(lp453
sg21
I0
sba(iArchitecture
Entity
p454
(dp455
g11
(lp456
sg13
S'android.graphics.drawable.DrawableWrapper'
p457
sg15
(lp458
sg17
(lp459
sg19
(lp460
sg21
I0
sba(iArchitecture
Entity
p461
(dp462
g11
(lp463
sg13
S'android.graphics.drawable.DrawableWrapper$DrawableWrapperState'
p464
sg15
(lp465
sg17
(lp466
sg19
(lp467
sg21
I0
sba(iArchitecture
Entity
p468
(dp469
g11
(lp470
sg13
S'android.graphics.drawable.GradientDrawable'
p471
sg15
(lp472
sg17
(lp473
sg19
(lp474
sg21
I0
sba(iArchitecture
Entity
p475
(dp476
g11
(lp477
sg13
S'android.graphics.drawable.GradientDrawable$GradientState'
p478
sg15
(lp479
sg17
(lp480
sg19
(lp481
sg21
I0
sba(iArchitecture
Entity
p482
(dp483
g11
(lp484
sg13
S'android.graphics.drawable.GradientDrawable$Orientation'
p485
sg15
(lp486
sg17
(lp487
sg19
(lp488
sg21
I0
sba(iArchitecture
Entity
p489
(dp490
g11
(lp491
sg13
S'android.graphics.drawable.Icon'
p492
sg15
(lp493
sg17
(lp494
sg19
(lp495
sg21
I0
sba(iArchitecture
Entity
p496
(dp497
g11
(lp498
sg13
S'android.graphics.drawable.Icon$1'
p499
sg15
(lp500
sg17
(lp501
sg19
(lp502
sg21
I0
sba(iArchitecture
Entity
p503
(dp504
g11
(lp505
sg13
S'android.graphics.drawable.Icon$LoadDrawableTask'
p506
sg15
(lp507
sg17
(lp508
sg19
(lp509
sg21
I0
sba(iArchitecture
Entity
p510
(dp511
g11
(lp512
sg13
S'android.graphics.drawable.Icon$LoadDrawableTask$1'
p513
sg15
(lp514
sg17
(lp515
sg19
(lp516
sg21
I0
sba(iArchitecture
Entity
p517
(dp518
g11
(lp519
sg13
S'android.graphics.drawable.Icon$OnDrawableLoadedListener'
p520
sg15
(lp521
sg17
(lp522
sg19
(lp523
sg21
I0
sba(iArchitecture
Entity
p524
(dp525
g11
(lp526
sg13
S'android.graphics.drawable.InsetDrawable'
p527
sg15
(lp528
sg17
(lp529
sg19
(lp530
sg21
I0
sba(iArchitecture
Entity
p531
(dp532
g11
(lp533
sg13
S'android.graphics.drawable.InsetDrawable$InsetState'
p534
sg15
(lp535
sg17
(lp536
sg19
(lp537
sg21
I0
sba(iArchitecture
Entity
p538
(dp539
g11
(lp540
sg13
S'android.graphics.drawable.LayerDrawable'
p541
sg15
(lp542
sg17
(lp543
sg19
(lp544
sg21
I0
sba(iArchitecture
Entity
p545
(dp546
g11
(lp547
sg13
S'android.graphics.drawable.LayerDrawable$ChildDrawable'
p548
sg15
(lp549
sg17
(lp550
sg19
(lp551
sg21
I0
sba(iArchitecture
Entity
p552
(dp553
g11
(lp554
sg13
S'android.graphics.drawable.LayerDrawable$LayerState'
p555
sg15
(lp556
sg17
(lp557
sg19
(lp558
sg21
I0
sba(iArchitecture
Entity
p559
(dp560
g11
(lp561
sg13
S'android.graphics.drawable.LevelListDrawable'
p562
sg15
(lp563
sg17
(lp564
sg19
(lp565
sg21
I0
sba(iArchitecture
Entity
p566
(dp567
g11
(lp568
sg13
S'android.graphics.drawable.LevelListDrawable$LevelListState'
p569
sg15
(lp570
sg17
(lp571
sg19
(lp572
sg21
I0
sba(iArchitecture
Entity
p573
(dp574
g11
(lp575
sg13
S'android.graphics.drawable.NinePatchDrawable'
p576
sg15
(lp577
sg17
(lp578
sg19
(lp579
sg21
I0
sba(iArchitecture
Entity
p580
(dp581
g11
(lp582
sg13
S'android.graphics.drawable.NinePatchDrawable$NinePatchState'
p583
sg15
(lp584
sg17
(lp585
sg19
(lp586
sg21
I0
sba(iArchitecture
Entity
p587
(dp588
g11
(lp589
sg13
S'android.graphics.drawable.PictureDrawable'
p590
sg15
(lp591
sg17
(lp592
sg19
(lp593
sg21
I0
sba(iArchitecture
Entity
p594
(dp595
g11
(lp596
sg13
S'android.graphics.drawable.RippleBackground'
p597
sg15
(lp598
sg17
(lp599
sg19
(lp600
sg21
I0
sba(iArchitecture
Entity
p601
(dp602
g11
(lp603
sg13
S'android.graphics.drawable.RippleBackground$1'
p604
sg15
(lp605
sg17
(lp606
sg19
(lp607
sg21
I0
sba(iArchitecture
Entity
p608
(dp609
g11
(lp610
sg13
S'android.graphics.drawable.RippleBackground$BackgroundProperty'
p611
sg15
(lp612
sg17
(lp613
sg19
(lp614
sg21
I0
sba(iArchitecture
Entity
p615
(dp616
g11
(lp617
sg13
S'android.graphics.drawable.RippleComponent'
p618
sg15
(lp619
sg17
(lp620
sg19
(lp621
sg21
I0
sba(iArchitecture
Entity
p622
(dp623
g11
(lp624
sg13
S'android.graphics.drawable.RippleComponent$RenderNodeAnimatorSet'
p625
sg15
(lp626
sg17
(lp627
sg19
(lp628
sg21
I0
sba(iArchitecture
Entity
p629
(dp630
g11
(lp631
sg13
S'android.graphics.drawable.RippleDrawable'
p632
sg15
(lp633
sg17
(lp634
sg19
(lp635
sg21
I0
sba(iArchitecture
Entity
p636
(dp637
g11
(lp638
sg13
S'android.graphics.drawable.RippleDrawable$RippleState'
p639
sg15
(lp640
sg17
(lp641
sg19
(lp642
sg21
I0
sba(iArchitecture
Entity
p643
(dp644
g11
(lp645
sg13
S'android.graphics.drawable.RippleForeground'
p646
sg15
(lp647
sg17
(lp648
sg19
(lp649
sg21
I0
sba(iArchitecture
Entity
p650
(dp651
g11
(lp652
sg13
S'android.graphics.drawable.RippleForeground$1'
p653
sg15
(lp654
sg17
(lp655
sg19
(lp656
sg21
I0
sba(iArchitecture
Entity
p657
(dp658
g11
(lp659
sg13
S'android.graphics.drawable.RippleForeground$2'
p660
sg15
(lp661
sg17
(lp662
sg19
(lp663
sg21
I0
sba(iArchitecture
Entity
p664
(dp665
g11
(lp666
sg13
S'android.graphics.drawable.RippleForeground$3'
p667
sg15
(lp668
sg17
(lp669
sg19
(lp670
sg21
I0
sba(iArchitecture
Entity
p671
(dp672
g11
(lp673
sg13
S'android.graphics.drawable.RippleForeground$4'
p674
sg15
(lp675
sg17
(lp676
sg19
(lp677
sg21
I0
sba(iArchitecture
Entity
p678
(dp679
g11
(lp680
sg13
S'android.graphics.drawable.RippleForeground$LogDecelerateInterpolator'
p681
sg15
(lp682
sg17
(lp683
sg19
(lp684
sg21
I0
sba(iArchitecture
Entity
p685
(dp686
g11
(lp687
sg13
S'android.graphics.drawable.RotateDrawable'
p688
sg15
(lp689
sg17
(lp690
sg19
(lp691
sg21
I0
sba(iArchitecture
Entity
p692
(dp693
g11
(lp694
sg13
S'android.graphics.drawable.RotateDrawable$RotateState'
p695
sg15
(lp696
sg17
(lp697
sg19
(lp698
sg21
I0
sba(iArchitecture
Entity
p699
(dp700
g11
(lp701
sg13
S'android.graphics.drawable.ScaleDrawable'
p702
sg15
(lp703
sg17
(lp704
sg19
(lp705
sg21
I0
sba(iArchitecture
Entity
p706
(dp707
g11
(lp708
sg13
S'android.graphics.drawable.ScaleDrawable$ScaleState'
p709
sg15
(lp710
sg17
(lp711
sg19
(lp712
sg21
I0
sba(iArchitecture
Entity
p713
(dp714
g11
(lp715
sg13
S'android.graphics.drawable.ShapeDrawable'
p716
sg15
(lp717
sg17
(lp718
sg19
(lp719
sg21
I0
sba(iArchitecture
Entity
p720
(dp721
g11
(lp722
sg13
S'android.graphics.drawable.ShapeDrawable$ShaderFactory'
p723
sg15
(lp724
sg17
(lp725
sg19
(lp726
sg21
I0
sba(iArchitecture
Entity
p727
(dp728
g11
(lp729
sg13
S'android.graphics.drawable.ShapeDrawable$ShapeState'
p730
sg15
(lp731
sg17
(lp732
sg19
(lp733
sg21
I0
sba(iArchitecture
Entity
p734
(dp735
g11
(lp736
sg13
S'android.graphics.drawable.StateListDrawable'
p737
sg15
(lp738
sg17
(lp739
sg19
(lp740
sg21
I0
sba(iArchitecture
Entity
p741
(dp742
g11
(lp743
sg13
S'android.graphics.drawable.StateListDrawable$StateListState'
p744
sg15
(lp745
sg17
(lp746
sg19
(lp747
sg21
I0
sba(iArchitecture
Entity
p748
(dp749
g11
(lp750
sg13
S'android.graphics.drawable.TransitionDrawable'
p751
sg15
(lp752
sg17
(lp753
sg19
(lp754
sg21
I0
sba(iArchitecture
Entity
p755
(dp756
g11
(lp757
sg13
S'android.graphics.drawable.TransitionDrawable$TransitionState'
p758
sg15
(lp759
sg17
(lp760
sg19
(lp761
sg21
I0
sba(iArchitecture
Entity
p762
(dp763
g11
(lp764
sg13
S'android.graphics.drawable.VectorDrawable'
p765
sg15
(lp766
sg17
(lp767
sg19
(lp768
sg21
I0
sba(iArchitecture
Entity
p769
(dp770
g11
(lp771
sg13
S'android.graphics.drawable.VectorDrawable$VClipPath'
p772
sg15
(lp773
sg17
(lp774
sg19
(lp775
sg21
I0
sba(iArchitecture
Entity
p776
(dp777
g11
(lp778
sg13
S'android.graphics.drawable.VectorDrawable$VFullPath'
p779
sg15
(lp780
sg17
(lp781
sg19
(lp782
sg21
I0
sba(iArchitecture
Entity
p783
(dp784
g11
(lp785
sg13
S'android.graphics.drawable.VectorDrawable$VGroup'
p786
sg15
(lp787
sg17
(lp788
sg19
(lp789
sg21
I0
sba(iArchitecture
Entity
p790
(dp791
g11
(lp792
sg13
S'android.graphics.drawable.VectorDrawable$VPath'
p793
sg15
(lp794
sg17
(lp795
sg19
(lp796
sg21
I0
sba(iArchitecture
Entity
p797
(dp798
g11
(lp799
sg13
S'android.graphics.drawable.VectorDrawable$VPathRenderer'
p800
sg15
(lp801
sg17
(lp802
sg19
(lp803
sg21
I0
sba(iArchitecture
Entity
p804
(dp805
g11
(lp806
sg13
S'android.graphics.drawable.VectorDrawable$VectorDrawableState'
p807
sg15
(lp808
sg17
(lp809
sg19
(lp810
sg21
I0
sba(iArchitecture
Entity
p811
(dp812
g11
(lp813
sg13
S'android.graphics.drawable.shapes.Shape'
p814
sg15
(lp815
sg17
(lp816
sg19
(lp817
sg21
I0
sbasg57
(lp818
g79
ag86
ag93
ag100
ag107
ag114
ag121
ag128
ag135
ag142
ag149
ag156
ag163
ag170
ag177
ag184
ag191
ag198
ag205
ag212
ag219
ag226
ag233
ag240
ag247
ag254
ag261
ag268
ag275
ag282
ag289
ag296
ag303
ag310
ag317
ag324
ag331
ag338
ag345
ag352
ag359
ag366
ag373
ag380
ag387
ag394
ag401
ag408
ag415
ag422
ag429
ag436
ag443
ag450
ag457
ag464
ag471
ag478
ag485
ag492
ag499
ag506
ag513
ag520
ag527
ag534
ag541
ag548
ag555
ag562
ag569
ag576
ag583
ag590
ag597
ag604
ag611
ag618
ag625
ag632
ag639
ag646
ag653
ag660
ag667
ag674
ag681
ag688
ag695
ag702
ag709
ag716
ag723
ag730
ag737
ag744
ag751
ag758
ag765
ag772
ag779
ag786
ag793
ag800
ag807
ag814
asg21
I0
sg59
S'android.graphics.drawable.ss'
p819
sba(iArchitecture
Cluster
p820
(dp821
g7
(lp822
(iArchitecture
Entity
p823
(dp824
g11
(lp825
sg13
S'android.graphics.pdf.PdfDocument'
p826
sg15
(lp827
sg17
(lp828
sg19
(lp829
sg21
I0
sba(iArchitecture
Entity
p830
(dp831
g11
(lp832
sg13
S'android.graphics.pdf.PdfDocument$Page'
p833
sg15
(lp834
sg17
(lp835
sg19
(lp836
sg21
I0
sba(iArchitecture
Entity
p837
(dp838
g11
(lp839
sg13
S'android.graphics.pdf.PdfDocument$PageInfo'
p840
sg15
(lp841
sg17
(lp842
sg19
(lp843
sg21
I0
sba(iArchitecture
Entity
p844
(dp845
g11
(lp846
sg13
S'android.graphics.pdf.PdfDocument$PageInfo$Builder'
p847
sg15
(lp848
sg17
(lp849
sg19
(lp850
sg21
I0
sba(iArchitecture
Entity
p851
(dp852
g11
(lp853
sg13
S'android.graphics.pdf.PdfDocument$PdfCanvas'
p854
sg15
(lp855
sg17
(lp856
sg19
(lp857
sg21
I0
sba(iArchitecture
Entity
p858
(dp859
g11
(lp860
sg13
S'android.graphics.pdf.PdfRenderer'
p861
sg15
(lp862
sg17
(lp863
sg19
(lp864
sg21
I0
sba(iArchitecture
Entity
p865
(dp866
g11
(lp867
sg13
S'android.graphics.pdf.PdfRenderer$Page'
p868
sg15
(lp869
sg17
(lp870
sg19
(lp871
sg21
I0
sbasg57
(lp872
g826
ag833
ag840
ag847
ag854
ag861
ag868
asg21
I0
sg59
S'android.graphics.pdf.ss'
p873
sba(iArchitecture
Cluster
p874
(dp875
g7
(lp876
(iArchitecture
Entity
p877
(dp878
g11
(lp879
sg13
S'android.graphics.Atlas'
p880
sg15
(lp881
sg17
(lp882
sg19
(lp883
sg21
I0
sba(iArchitecture
Entity
p884
(dp885
g11
(lp886
sg13
S'android.graphics.Atlas$Entry'
p887
sg15
(lp888
sg17
(lp889
sg19
(lp890
sg21
I0
sba(iArchitecture
Entity
p891
(dp892
g11
(lp893
sg13
S'android.graphics.Atlas$Policy'
p894
sg15
(lp895
sg17
(lp896
sg19
(lp897
sg21
I0
sba(iArchitecture
Entity
p898
(dp899
g11
(lp900
sg13
S'android.graphics.Atlas$SlicePolicy'
p901
sg15
(lp902
sg17
(lp903
sg19
(lp904
sg21
I0
sba(iArchitecture
Entity
p905
(dp906
g11
(lp907
sg13
S'android.graphics.Atlas$SlicePolicy$Cell'
p908
sg15
(lp909
sg17
(lp910
sg19
(lp911
sg21
I0
sba(iArchitecture
Entity
p912
(dp913
g11
(lp914
sg13
S'android.graphics.Atlas$SlicePolicy$LongerFreeAxisSplitDecision'
p915
sg15
(lp916
sg17
(lp917
sg19
(lp918
sg21
I0
sba(iArchitecture
Entity
p919
(dp920
g11
(lp921
sg13
S'android.graphics.Atlas$SlicePolicy$MaxAreaSplitDecision'
p922
sg15
(lp923
sg17
(lp924
sg19
(lp925
sg21
I0
sba(iArchitecture
Entity
p926
(dp927
g11
(lp928
sg13
S'android.graphics.Atlas$SlicePolicy$MinAreaSplitDecision'
p929
sg15
(lp930
sg17
(lp931
sg19
(lp932
sg21
I0
sba(iArchitecture
Entity
p933
(dp934
g11
(lp935
sg13
S'android.graphics.Atlas$SlicePolicy$ShorterFreeAxisSplitDecision'
p936
sg15
(lp937
sg17
(lp938
sg19
(lp939
sg21
I0
sba(iArchitecture
Entity
p940
(dp941
g11
(lp942
sg13
S'android.graphics.Atlas$SlicePolicy$SplitDecision'
p943
sg15
(lp944
sg17
(lp945
sg19
(lp946
sg21
I0
sba(iArchitecture
Entity
p947
(dp948
g11
(lp949
sg13
S'android.graphics.AvoidXfermode'
p950
sg15
(lp951
sg17
(lp952
sg19
(lp953
sg21
I0
sba(iArchitecture
Entity
p954
(dp955
g11
(lp956
sg13
S'android.graphics.AvoidXfermode$Mode'
p957
sg15
(lp958
sg17
(lp959
sg19
(lp960
sg21
I0
sba(iArchitecture
Entity
p961
(dp962
g11
(lp963
sg13
S'android.graphics.Bitmap'
p964
sg15
(lp965
sg17
(lp966
sg19
(lp967
sg21
I0
sba(iArchitecture
Entity
p968
(dp969
g11
(lp970
sg13
S'android.graphics.Bitmap$1'
p971
sg15
(lp972
sg17
(lp973
sg19
(lp974
sg21
I0
sba(iArchitecture
Entity
p975
(dp976
g11
(lp977
sg13
S'android.graphics.Bitmap$BitmapFinalizer'
p978
sg15
(lp979
sg17
(lp980
sg19
(lp981
sg21
I0
sba(iArchitecture
Entity
p982
(dp983
g11
(lp984
sg13
S'android.graphics.Canvas'
p985
sg15
(lp986
sg17
(lp987
sg19
(lp988
sg21
I0
sba(iArchitecture
Entity
p989
(dp990
g11
(lp991
sg13
S'android.graphics.Canvas$CanvasFinalizer'
p992
sg15
(lp993
sg17
(lp994
sg19
(lp995
sg21
I0
sba(iArchitecture
Entity
p996
(dp997
g11
(lp998
sg13
S'android.graphics.Canvas$VertexMode'
p999
sg15
(lp1000
sg17
(lp1001
sg19
(lp1002
sg21
I0
sba(iArchitecture
Entity
p1003
(dp1004
g11
(lp1005
sg13
S'android.graphics.FontFamily'
p1006
sg15
(lp1007
sg17
(lp1008
sg19
(lp1009
sg21
I0
sba(iArchitecture
Entity
p1010
(dp1011
g11
(lp1012
sg13
S'android.graphics.FontListParser'
p1013
sg15
(lp1014
sg17
(lp1015
sg19
(lp1016
sg21
I0
sba(iArchitecture
Entity
p1017
(dp1018
g11
(lp1019
sg13
S'android.graphics.FontListParser$Alias'
p1020
sg15
(lp1021
sg17
(lp1022
sg19
(lp1023
sg21
I0
sba(iArchitecture
Entity
p1024
(dp1025
g11
(lp1026
sg13
S'android.graphics.FontListParser$Config'
p1027
sg15
(lp1028
sg17
(lp1029
sg19
(lp1030
sg21
I0
sba(iArchitecture
Entity
p1031
(dp1032
g11
(lp1033
sg13
S'android.graphics.FontListParser$Family'
p1034
sg15
(lp1035
sg17
(lp1036
sg19
(lp1037
sg21
I0
sba(iArchitecture
Entity
p1038
(dp1039
g11
(lp1040
sg13
S'android.graphics.FontListParser$Font'
p1041
sg15
(lp1042
sg17
(lp1043
sg19
(lp1044
sg21
I0
sba(iArchitecture
Entity
p1045
(dp1046
g11
(lp1047
sg13
S'android.graphics.Interpolator'
p1048
sg15
(lp1049
sg17
(lp1050
sg19
(lp1051
sg21
I0
sba(iArchitecture
Entity
p1052
(dp1053
g11
(lp1054
sg13
S'android.graphics.LayerRasterizer'
p1055
sg15
(lp1056
sg17
(lp1057
sg19
(lp1058
sg21
I0
sba(iArchitecture
Entity
p1059
(dp1060
g11
(lp1061
sg13
S'android.graphics.Matrix'
p1062
sg15
(lp1063
sg17
(lp1064
sg19
(lp1065
sg21
I0
sba(iArchitecture
Entity
p1066
(dp1067
g11
(lp1068
sg13
S'android.graphics.Matrix$1'
p1069
sg15
(lp1070
sg17
(lp1071
sg19
(lp1072
sg21
I0
sba(iArchitecture
Entity
p1073
(dp1074
g11
(lp1075
sg13
S'android.graphics.Matrix$ScaleToFit'
p1076
sg15
(lp1077
sg17
(lp1078
sg19
(lp1079
sg21
I0
sba(iArchitecture
Entity
p1080
(dp1081
g11
(lp1082
sg13
S'android.graphics.Paint'
p1083
sg15
(lp1084
sg17
(lp1085
sg19
(lp1086
sg21
I0
sba(iArchitecture
Entity
p1087
(dp1088
g11
(lp1089
sg13
S'android.graphics.Paint$FontMetrics'
p1090
sg15
(lp1091
sg17
(lp1092
sg19
(lp1093
sg21
I0
sba(iArchitecture
Entity
p1094
(dp1095
g11
(lp1096
sg13
S'android.graphics.Path'
p1097
sg15
(lp1098
sg17
(lp1099
sg19
(lp1100
sg21
I0
sba(iArchitecture
Entity
p1101
(dp1102
g11
(lp1103
sg13
S'android.graphics.Path$Op'
p1104
sg15
(lp1105
sg17
(lp1106
sg19
(lp1107
sg21
I0
sba(iArchitecture
Entity
p1108
(dp1109
g11
(lp1110
sg13
S'android.graphics.PathDashPathEffect'
p1111
sg15
(lp1112
sg17
(lp1113
sg19
(lp1114
sg21
I0
sba(iArchitecture
Entity
p1115
(dp1116
g11
(lp1117
sg13
S'android.graphics.PathDashPathEffect$Style'
p1118
sg15
(lp1119
sg17
(lp1120
sg19
(lp1121
sg21
I0
sba(iArchitecture
Entity
p1122
(dp1123
g11
(lp1124
sg13
S'android.graphics.Picture'
p1125
sg15
(lp1126
sg17
(lp1127
sg19
(lp1128
sg21
I0
sba(iArchitecture
Entity
p1129
(dp1130
g11
(lp1131
sg13
S'android.graphics.Picture$RecordingCanvas'
p1132
sg15
(lp1133
sg17
(lp1134
sg19
(lp1135
sg21
I0
sba(iArchitecture
Entity
p1136
(dp1137
g11
(lp1138
sg13
S'android.graphics.Point'
p1139
sg15
(lp1140
sg17
(lp1141
sg19
(lp1142
sg21
I0
sba(iArchitecture
Entity
p1143
(dp1144
g11
(lp1145
sg13
S'android.graphics.Point$1'
p1146
sg15
(lp1147
sg17
(lp1148
sg19
(lp1149
sg21
I0
sba(iArchitecture
Entity
p1150
(dp1151
g11
(lp1152
sg13
S'android.graphics.PointF'
p1153
sg15
(lp1154
sg17
(lp1155
sg19
(lp1156
sg21
I0
sba(iArchitecture
Entity
p1157
(dp1158
g11
(lp1159
sg13
S'android.graphics.PointF$1'
p1160
sg15
(lp1161
sg17
(lp1162
sg19
(lp1163
sg21
I0
sba(iArchitecture
Entity
p1164
(dp1165
g11
(lp1166
sg13
S'android.graphics.Rasterizer'
p1167
sg15
(lp1168
sg17
(lp1169
sg19
(lp1170
sg21
I0
sba(iArchitecture
Entity
p1171
(dp1172
g11
(lp1173
sg13
S'android.graphics.Rect'
p1174
sg15
(lp1175
sg17
(lp1176
sg19
(lp1177
sg21
I0
sba(iArchitecture
Entity
p1178
(dp1179
g11
(lp1180
sg13
S'android.graphics.Rect$1'
p1181
sg15
(lp1182
sg17
(lp1183
sg19
(lp1184
sg21
I0
sba(iArchitecture
Entity
p1185
(dp1186
g11
(lp1187
sg13
S'android.graphics.Rect$UnflattenHelper'
p1188
sg15
(lp1189
sg17
(lp1190
sg19
(lp1191
sg21
I0
sba(iArchitecture
Entity
p1192
(dp1193
g11
(lp1194
sg13
S'android.graphics.RectF'
p1195
sg15
(lp1196
sg17
(lp1197
sg19
(lp1198
sg21
I0
sba(iArchitecture
Entity
p1199
(dp1200
g11
(lp1201
sg13
S'android.graphics.RectF$1'
p1202
sg15
(lp1203
sg17
(lp1204
sg19
(lp1205
sg21
I0
sba(iArchitecture
Entity
p1206
(dp1207
g11
(lp1208
sg13
S'android.graphics.Region'
p1209
sg15
(lp1210
sg17
(lp1211
sg19
(lp1212
sg21
I0
sba(iArchitecture
Entity
p1213
(dp1214
g11
(lp1215
sg13
S'android.graphics.Region$1'
p1216
sg15
(lp1217
sg17
(lp1218
sg19
(lp1219
sg21
I0
sba(iArchitecture
Entity
p1220
(dp1221
g11
(lp1222
sg13
S'android.graphics.SurfaceTexture'
p1223
sg15
(lp1224
sg17
(lp1225
sg19
(lp1226
sg21
I0
sba(iArchitecture
Entity
p1227
(dp1228
g11
(lp1229
sg13
S'android.graphics.SurfaceTexture$1'
p1230
sg15
(lp1231
sg17
(lp1232
sg19
(lp1233
sg21
I0
sba(iArchitecture
Entity
p1234
(dp1235
g11
(lp1236
sg13
S'android.graphics.SurfaceTexture$OutOfResourcesException'
p1237
sg15
(lp1238
sg17
(lp1239
sg19
(lp1240
sg21
I0
sba(iArchitecture
Entity
p1241
(dp1242
g11
(lp1243
sg13
S'android.graphics.TemporaryBuffer'
p1244
sg15
(lp1245
sg17
(lp1246
sg19
(lp1247
sg21
I0
sba(iArchitecture
Entity
p1248
(dp1249
g11
(lp1250
sg13
S'android.graphics.Typeface'
p1251
sg15
(lp1252
sg17
(lp1253
sg19
(lp1254
sg21
I0
sbasg57
(lp1255
g880
ag887
ag894
ag901
ag908
ag915
ag922
ag929
ag936
ag943
ag950
ag957
ag964
ag971
ag978
ag985
ag992
ag999
ag1006
ag1013
ag1020
ag1027
ag1034
ag1041
ag1048
ag1055
ag1062
ag1069
ag1076
ag1083
ag1090
ag1097
ag1104
ag1111
ag1118
ag1125
ag1132
ag1139
ag1146
ag1153
ag1160
ag1167
ag1174
ag1181
ag1188
ag1195
ag1202
ag1209
ag1216
ag1223
ag1230
ag1237
ag1244
ag1251
asg21
I0
sg59
S'android.graphics.ss'
p1256
sba(iArchitecture
Cluster
p1257
(dp1258
g7
(lp1259
(iArchitecture
Entity
p1260
(dp1261
g11
(lp1262
sg13
S'android.graphics.ImageFormat'
p1263
sg15
(lp1264
sg17
(lp1265
sg19
(lp1266
sg21
I0
sbasg57
(lp1267
g1263
asg21
I0
sg59
S'android.hardware.camera2.legacy.ss'
p1268
sba(iArchitecture
Cluster
p1269
(dp1270
g7
(lp1271
(iArchitecture
Entity
p1272
(dp1273
g11
(lp1274
sg13
S'android.graphics.ColorMatrixColorFilter'
p1275
sg15
(lp1276
sg17
(lp1277
sg19
(lp1278
sg21
I0
sba(iArchitecture
Entity
p1279
(dp1280
g11
(lp1281
sg13
S'android.graphics.EmbossMaskFilter'
p1282
sg15
(lp1283
sg17
(lp1284
sg19
(lp1285
sg21
I0
sbasg57
(lp1286
g1275
ag1282
asg21
I0
sg59
S'android.net.ss'
p1287
sba(iArchitecture
Cluster
p1288
(dp1289
g7
(lp1290
(iArchitecture
Entity
p1291
(dp1292
g11
(lp1293
sg13
S'android.graphics.PixelXorXfermode'
p1294
sg15
(lp1295
sg17
(lp1296
sg19
(lp1297
sg21
I0
sbasg57
(lp1298
g1294
asg21
I0
sg59
S'android.provider.ss'
p1299
sba(iArchitecture
Cluster
p1300
(dp1301
g7
(lp1302
(iArchitecture
Entity
p1303
(dp1304
g11
(lp1305
sg13
S'android.graphics.PathMeasure'
p1306
sg15
(lp1307
sg17
(lp1308
sg19
(lp1309
sg21
I0
sbasg57
(lp1310
g1306
asg21
I0
sg59
S'android.transition.ss'
p1311
sba(iArchitecture
Cluster
p1312
(dp1313
g7
(lp1314
(iArchitecture
Entity
p1315
(dp1316
g11
(lp1317
sg13
S'android.graphics.Bitmap$Config'
p1318
sg15
(lp1319
sg17
(lp1320
sg19
(lp1321
sg21
I0
sba(iArchitecture
Entity
p1322
(dp1323
g11
(lp1324
sg13
S'android.graphics.Canvas$EdgeType'
p1325
sg15
(lp1326
sg17
(lp1327
sg19
(lp1328
sg21
I0
sba(iArchitecture
Entity
p1329
(dp1330
g11
(lp1331
sg13
S'android.graphics.Interpolator$Result'
p1332
sg15
(lp1333
sg17
(lp1334
sg19
(lp1335
sg21
I0
sba(iArchitecture
Entity
p1336
(dp1337
g11
(lp1338
sg13
S'android.graphics.Outline'
p1339
sg15
(lp1340
sg17
(lp1341
sg19
(lp1342
sg21
I0
sba(iArchitecture
Entity
p1343
(dp1344
g11
(lp1345
sg13
S'android.graphics.PixelFormat'
p1346
sg15
(lp1347
sg17
(lp1348
sg19
(lp1349
sg21
I0
sba(iArchitecture
Entity
p1350
(dp1351
g11
(lp1352
sg13
S'android.graphics.SurfaceTexture$OnFrameAvailableListener'
p1353
sg15
(lp1354
sg17
(lp1355
sg19
(lp1356
sg21
I0
sbasg57
(lp1357
g1318
ag1325
ag1332
ag1339
ag1346
ag1353
asg21
I0
sg59
S'android.view.ss'
p1358
sba(iArchitecture
Cluster
p1359
(dp1360
g7
(lp1361
(iArchitecture
Entity
p1362
(dp1363
g11
(lp1364
sg13
S'android.graphics.drawable.shapes.PathShape'
p1365
sg15
(lp1366
sg17
(lp1367
sg19
(lp1368
sg21
I0
sbasg57
(lp1369
g1365
asg21
I0
sg59
S'android.webkit.ss'
p1370
sba(iArchitecture
Cluster
p1371
(dp1372
g7
(lp1373
(iArchitecture
Entity
p1374
(dp1375
g11
(lp1376
sg13
S'android.graphics.BlurMaskFilter'
p1377
sg15
(lp1378
sg17
(lp1379
sg19
(lp1380
sg21
I0
sba(iArchitecture
Entity
p1381
(dp1382
g11
(lp1383
sg13
S'android.graphics.BlurMaskFilter$Blur'
p1384
sg15
(lp1385
sg17
(lp1386
sg19
(lp1387
sg21
I0
sba(iArchitecture
Entity
p1388
(dp1389
g11
(lp1390
sg13
S'android.graphics.Color'
p1391
sg15
(lp1392
sg17
(lp1393
sg19
(lp1394
sg21
I0
sba(iArchitecture
Entity
p1395
(dp1396
g11
(lp1397
sg13
S'android.graphics.MaskFilter'
p1398
sg15
(lp1399
sg17
(lp1400
sg19
(lp1401
sg21
I0
sba(iArchitecture
Entity
p1402
(dp1403
g11
(lp1404
sg13
S'android.graphics.Paint$Align'
p1405
sg15
(lp1406
sg17
(lp1407
sg19
(lp1408
sg21
I0
sba(iArchitecture
Entity
p1409
(dp1410
g11
(lp1411
sg13
S'android.graphics.Paint$FontMetricsInt'
p1412
sg15
(lp1413
sg17
(lp1414
sg19
(lp1415
sg21
I0
sba(iArchitecture
Entity
p1416
(dp1417
g11
(lp1418
sg13
S'android.graphics.Paint$Style'
p1419
sg15
(lp1420
sg17
(lp1421
sg19
(lp1422
sg21
I0
sba(iArchitecture
Entity
p1423
(dp1424
g11
(lp1425
sg13
S'android.graphics.PorterDuff$Mode'
p1426
sg15
(lp1427
sg17
(lp1428
sg19
(lp1429
sg21
I0
sba(iArchitecture
Entity
p1430
(dp1431
g11
(lp1432
sg13
S'android.graphics.PorterDuffColorFilter'
p1433
sg15
(lp1434
sg17
(lp1435
sg19
(lp1436
sg21
I0
sba(iArchitecture
Entity
p1437
(dp1438
g11
(lp1439
sg13
S'android.graphics.TableMaskFilter'
p1440
sg15
(lp1441
sg17
(lp1442
sg19
(lp1443
sg21
I0
sba(iArchitecture
Entity
p1444
(dp1445
g11
(lp1446
sg13
S'android.graphics.drawable.shapes.ArcShape'
p1447
sg15
(lp1448
sg17
(lp1449
sg19
(lp1450
sg21
I0
sba(iArchitecture
Entity
p1451
(dp1452
g11
(lp1453
sg13
S'android.graphics.drawable.shapes.OvalShape'
p1454
sg15
(lp1455
sg17
(lp1456
sg19
(lp1457
sg21
I0
sba(iArchitecture
Entity
p1458
(dp1459
g11
(lp1460
sg13
S'android.graphics.drawable.shapes.RectShape'
p1461
sg15
(lp1462
sg17
(lp1463
sg19
(lp1464
sg21
I0
sba(iArchitecture
Entity
p1465
(dp1466
g11
(lp1467
sg13
S'android.graphics.drawable.shapes.RoundRectShape'
p1468
sg15
(lp1469
sg17
(lp1470
sg19
(lp1471
sg21
I0
sbasg57
(lp1472
g1377
ag1384
ag1391
ag1398
ag1405
ag1412
ag1419
ag1426
ag1433
ag1440
ag1447
ag1454
ag1461
ag1468
asg21
I0
sg59
S'android.widget.ss'
p1473
sba(iArchitecture
Cluster
p1474
(dp1475
g7
(lp1476
(iArchitecture
Entity
p1477
(dp1478
g11
(lp1479
sg13
S'android.graphics.CanvasProperty'
p1480
sg15
(lp1481
sg17
(lp1482
sg19
(lp1483
sg21
I0
sbasg57
(lp1484
g1480
asg21
I0
sg59
S'com.android.internal.widget.ss'
p1485
sba(iArchitecture
Cluster
p1486
(dp1487
g7
(lp1488
(iArchitecture
Entity
p1489
(dp1490
g11
(lp1491
sg13
S'android.graphics.Camera'
p1492
sg15
(lp1493
sg17
(lp1494
sg19
(lp1495
sg21
I0
sba(iArchitecture
Entity
p1496
(dp1497
g11
(lp1498
sg13
S'android.graphics.RegionIterator'
p1499
sg15
(lp1500
sg17
(lp1501
sg19
(lp1502
sg21
I0
sba(iArchitecture
Entity
p1503
(dp1504
g11
(lp1505
sg13
S'android.graphics.pdf.PdfEditor'
p1506
sg15
(lp1507
sg17
(lp1508
sg19
(lp1509
sg21
I0
sbasg57
(lp1510
g1492
ag1499
ag1506
asg21
I0
sg59
S'com.android.server.backup.ss'
p1511
sba(iArchitecture
Cluster
p1512
(dp1513
g7
(lp1514
(iArchitecture
Entity
p1515
(dp1516
g11
(lp1517
sg13
S'android.graphics.Bitmap$CompressFormat'
p1518
sg15
(lp1519
sg17
(lp1520
sg19
(lp1521
sg21
I0
sba(iArchitecture
Entity
p1522
(dp1523
g11
(lp1524
sg13
S'android.graphics.ComposeShader'
p1525
sg15
(lp1526
sg17
(lp1527
sg19
(lp1528
sg21
I0
sba(iArchitecture
Entity
p1529
(dp1530
g11
(lp1531
sg13
S'android.graphics.LargeBitmap'
p1532
sg15
(lp1533
sg17
(lp1534
sg19
(lp1535
sg21
I0
sba(iArchitecture
Entity
p1536
(dp1537
g11
(lp1538
sg13
S'android.graphics.YuvImage'
p1539
sg15
(lp1540
sg17
(lp1541
sg19
(lp1542
sg21
I0
sbasg57
(lp1543
g1518
ag1525
ag1532
ag1539
asg21
I0
sg59
S'com.android.server.pm.ss'
p1544
sba(iArchitecture
Cluster
p1545
(dp1546
g7
(lp1547
(iArchitecture
Entity
p1548
(dp1549
g11
(lp1550
sg13
S'android.graphics.Atlas$Type'
p1551
sg15
(lp1552
sg17
(lp1553
sg19
(lp1554
sg21
I0
sbasg57
(lp1555
g1551
asg21
I0
sg59
S'com.android.server.ss'
p1556
sba(iArchitecture
Cluster
p1557
(dp1558
g7
(lp1559
(iArchitecture
Entity
p1560
(dp1561
g11
(lp1562
sg13
S'android.graphics.ColorMatrix'
p1563
sg15
(lp1564
sg17
(lp1565
sg19
(lp1566
sg21
I0
sbasg57
(lp1567
g1563
asg21
I0
sg59
S'com.android.server.updates.ss'
p1568
sba(iArchitecture
Cluster
p1569
(dp1570
g7
(lp1571
(iArchitecture
Entity
p1572
(dp1573
g11
(lp1574
sg13
S'android.graphics.Path$Direction'
p1575
sg15
(lp1576
sg17
(lp1577
sg19
(lp1578
sg21
I0
sba(iArchitecture
Entity
p1579
(dp1580
g11
(lp1581
sg13
S'android.graphics.PorterDuffXfermode'
p1582
sg15
(lp1583
sg17
(lp1584
sg19
(lp1585
sg21
I0
sba(iArchitecture
Entity
p1586
(dp1587
g11
(lp1588
sg13
S'android.graphics.Region$Op'
p1589
sg15
(lp1590
sg17
(lp1591
sg19
(lp1592
sg21
I0
sba(iArchitecture
Entity
p1593
(dp1594
g11
(lp1595
sg13
S'android.graphics.Xfermode'
p1596
sg15
(lp1597
sg17
(lp1598
sg19
(lp1599
sg21
I0
sbasg57
(lp1600
g1575
ag1582
ag1589
ag1596
asg21
I0
sg59
S'com.android.server.wm.ss'
p1601
sbasS'target_sub'
p1602
S'android.graphics'
p1603
sg57
(lp1604
sS'is_component_arch'
p1605
I00
sg59
S'6.0.0_r1'
p1606
sba(iArchitecture
Architecture
p1607
(dp1608
g3
(lp1609
(iArchitecture
Cluster
p1610
(dp1611
g7
(lp1612
(iArchitecture
Entity
p1613
(dp1614
g11
(lp1615
sg13
S'android.graphics.Movie'
p1616
sg15
(lp1617
sg17
(lp1618
sg19
(lp1619
sg21
I0
sbasg57
(lp1620
g1616
asg21
I0
sg59
S'android.content.res.ss'
p1621
sba(iArchitecture
Cluster
p1622
(dp1623
g7
(lp1624
(iArchitecture
Entity
p1625
(dp1626
g11
(lp1627
sg13
S'android.graphics.BitmapShader'
p1628
sg15
(lp1629
sg17
(lp1630
sg19
(lp1631
sg21
I0
sba(iArchitecture
Entity
p1632
(dp1633
g11
(lp1634
sg13
S'android.graphics.ColorFilter'
p1635
sg15
(lp1636
sg17
(lp1637
sg19
(lp1638
sg21
I0
sba(iArchitecture
Entity
p1639
(dp1640
g11
(lp1641
sg13
S'android.graphics.ComposePathEffect'
p1642
sg15
(lp1643
sg17
(lp1644
sg19
(lp1645
sg21
I0
sba(iArchitecture
Entity
p1646
(dp1647
g11
(lp1648
sg13
S'android.graphics.CornerPathEffect'
p1649
sg15
(lp1650
sg17
(lp1651
sg19
(lp1652
sg21
I0
sba(iArchitecture
Entity
p1653
(dp1654
g11
(lp1655
sg13
S'android.graphics.DashPathEffect'
p1656
sg15
(lp1657
sg17
(lp1658
sg19
(lp1659
sg21
I0
sba(iArchitecture
Entity
p1660
(dp1661
g11
(lp1662
sg13
S'android.graphics.DiscretePathEffect'
p1663
sg15
(lp1664
sg17
(lp1665
sg19
(lp1666
sg21
I0
sba(iArchitecture
Entity
p1667
(dp1668
g11
(lp1669
sg13
S'android.graphics.Insets'
p1670
sg15
(lp1671
sg17
(lp1672
sg19
(lp1673
sg21
I0
sba(iArchitecture
Entity
p1674
(dp1675
g11
(lp1676
sg13
S'android.graphics.LightingColorFilter'
p1677
sg15
(lp1678
sg17
(lp1679
sg19
(lp1680
sg21
I0
sba(iArchitecture
Entity
p1681
(dp1682
g11
(lp1683
sg13
S'android.graphics.NinePatch'
p1684
sg15
(lp1685
sg17
(lp1686
sg19
(lp1687
sg21
I0
sba(iArchitecture
Entity
p1688
(dp1689
g11
(lp1690
sg13
S'android.graphics.NinePatch$InsetStruct'
p1691
sg15
(lp1692
sg17
(lp1693
sg19
(lp1694
sg21
I0
sba(iArchitecture
Entity
p1695
(dp1696
g11
(lp1697
sg13
S'android.graphics.Path$FillType'
p1698
sg15
(lp1699
sg17
(lp1700
sg19
(lp1701
sg21
I0
sba(iArchitecture
Entity
p1702
(dp1703
g11
(lp1704
sg13
S'android.graphics.PathEffect'
p1705
sg15
(lp1706
sg17
(lp1707
sg19
(lp1708
sg21
I0
sba(iArchitecture
Entity
p1709
(dp1710
g11
(lp1711
sg13
S'android.graphics.PorterDuff'
p1712
sg15
(lp1713
sg17
(lp1714
sg19
(lp1715
sg21
I0
sba(iArchitecture
Entity
p1716
(dp1717
g11
(lp1718
sg13
S'android.graphics.RadialGradient'
p1719
sg15
(lp1720
sg17
(lp1721
sg19
(lp1722
sg21
I0
sba(iArchitecture
Entity
p1723
(dp1724
g11
(lp1725
sg13
S'android.graphics.SumPathEffect'
p1726
sg15
(lp1727
sg17
(lp1728
sg19
(lp1729
sg21
I0
sba(iArchitecture
Entity
p1730
(dp1731
g11
(lp1732
sg13
S'android.graphics.SweepGradient'
p1733
sg15
(lp1734
sg17
(lp1735
sg19
(lp1736
sg21
I0
sba(iArchitecture
Entity
p1737
(dp1738
g11
(lp1739
sg13
S'android.graphics.drawable.Animatable'
p1740
sg15
(lp1741
sg17
(lp1742
sg19
(lp1743
sg21
I0
sba(iArchitecture
Entity
p1744
(dp1745
g11
(lp1746
sg13
S'android.graphics.drawable.Animatable2'
p1747
sg15
(lp1748
sg17
(lp1749
sg19
(lp1750
sg21
I0
sba(iArchitecture
Entity
p1751
(dp1752
g11
(lp1753
sg13
S'android.graphics.drawable.Animatable2$AnimationCallback'
p1754
sg15
(lp1755
sg17
(lp1756
sg19
(lp1757
sg21
I0
sba(iArchitecture
Entity
p1758
(dp1759
g11
(lp1760
sg13
S'android.graphics.drawable.AnimatedRotateDrawable'
p1761
sg15
(lp1762
sg17
(lp1763
sg19
(lp1764
sg21
I0
sba(iArchitecture
Entity
p1765
(dp1766
g11
(lp1767
sg13
S'android.graphics.drawable.AnimatedRotateDrawable$1'
p1768
sg15
(lp1769
sg17
(lp1770
sg19
(lp1771
sg21
I0
sba(iArchitecture
Entity
p1772
(dp1773
g11
(lp1774
sg13
S'android.graphics.drawable.AnimatedRotateDrawable$AnimatedRotateState'
p1775
sg15
(lp1776
sg17
(lp1777
sg19
(lp1778
sg21
I0
sba(iArchitecture
Entity
p1779
(dp1780
g11
(lp1781
sg13
S'android.graphics.drawable.AnimatedStateListDrawable'
p1782
sg15
(lp1783
sg17
(lp1784
sg19
(lp1785
sg21
I0
sba(iArchitecture
Entity
p1786
(dp1787
g11
(lp1788
sg13
S'android.graphics.drawable.AnimatedStateListDrawable$AnimatableTransition'
p1789
sg15
(lp1790
sg17
(lp1791
sg19
(lp1792
sg21
I0
sba(iArchitecture
Entity
p1793
(dp1794
g11
(lp1795
sg13
S'android.graphics.drawable.AnimatedStateListDrawable$AnimatedStateListState'
p1796
sg15
(lp1797
sg17
(lp1798
sg19
(lp1799
sg21
I0
sba(iArchitecture
Entity
p1800
(dp1801
g11
(lp1802
sg13
S'android.graphics.drawable.AnimatedStateListDrawable$AnimatedVectorDrawableTransition'
p1803
sg15
(lp1804
sg17
(lp1805
sg19
(lp1806
sg21
I0
sba(iArchitecture
Entity
p1807
(dp1808
g11
(lp1809
sg13
S'android.graphics.drawable.AnimatedStateListDrawable$AnimationDrawableTransition'
p1810
sg15
(lp1811
sg17
(lp1812
sg19
(lp1813
sg21
I0
sba(iArchitecture
Entity
p1814
(dp1815
g11
(lp1816
sg13
S'android.graphics.drawable.AnimatedStateListDrawable$FrameInterpolator'
p1817
sg15
(lp1818
sg17
(lp1819
sg19
(lp1820
sg21
I0
sba(iArchitecture
Entity
p1821
(dp1822
g11
(lp1823
sg13
S'android.graphics.drawable.AnimatedStateListDrawable$Transition'
p1824
sg15
(lp1825
sg17
(lp1826
sg19
(lp1827
sg21
I0
sba(iArchitecture
Entity
p1828
(dp1829
g11
(lp1830
sg13
S'android.graphics.drawable.AnimatedVectorDrawable'
p1831
sg15
(lp1832
sg17
(lp1833
sg19
(lp1834
sg21
I0
sba(iArchitecture
Entity
p1835
(dp1836
g11
(lp1837
sg13
S'android.graphics.drawable.AnimatedVectorDrawable$1'
p1838
sg15
(lp1839
sg17
(lp1840
sg19
(lp1841
sg21
I0
sba(iArchitecture
Entity
p1842
(dp1843
g11
(lp1844
sg13
S'android.graphics.drawable.AnimatedVectorDrawable$2'
p1845
sg15
(lp1846
sg17
(lp1847
sg19
(lp1848
sg21
I0
sba(iArchitecture
Entity
p1849
(dp1850
g11
(lp1851
sg13
S'android.graphics.drawable.AnimatedVectorDrawable$AnimatedVectorDrawableState'
p1852
sg15
(lp1853
sg17
(lp1854
sg19
(lp1855
sg21
I0
sba(iArchitecture
Entity
p1856
(dp1857
g11
(lp1858
sg13
S'android.graphics.drawable.AnimatedVectorDrawable$AnimatedVectorDrawableState$PendingAnimator'
p1859
sg15
(lp1860
sg17
(lp1861
sg19
(lp1862
sg21
I0
sba(iArchitecture
Entity
p1863
(dp1864
g11
(lp1865
sg13
S'android.graphics.drawable.AnimatedVectorDrawable$VectorDrawableAnimator'
p1866
sg15
(lp1867
sg17
(lp1868
sg19
(lp1869
sg21
I0
sba(iArchitecture
Entity
p1870
(dp1871
g11
(lp1872
sg13
S'android.graphics.drawable.AnimatedVectorDrawable$VectorDrawableAnimatorRT'
p1873
sg15
(lp1874
sg17
(lp1875
sg19
(lp1876
sg21
I0
sba(iArchitecture
Entity
p1877
(dp1878
g11
(lp1879
sg13
S'android.graphics.drawable.AnimatedVectorDrawable$VectorDrawableAnimatorUI'
p1880
sg15
(lp1881
sg17
(lp1882
sg19
(lp1883
sg21
I0
sba(iArchitecture
Entity
p1884
(dp1885
g11
(lp1886
sg13
S'android.graphics.drawable.AnimationDrawable'
p1887
sg15
(lp1888
sg17
(lp1889
sg19
(lp1890
sg21
I0
sba(iArchitecture
Entity
p1891
(dp1892
g11
(lp1893
sg13
S'android.graphics.drawable.AnimationDrawable$AnimationState'
p1894
sg15
(lp1895
sg17
(lp1896
sg19
(lp1897
sg21
I0
sba(iArchitecture
Entity
p1898
(dp1899
g11
(lp1900
sg13
S'android.graphics.drawable.BitmapDrawable'
p1901
sg15
(lp1902
sg17
(lp1903
sg19
(lp1904
sg21
I0
sba(iArchitecture
Entity
p1905
(dp1906
g11
(lp1907
sg13
S'android.graphics.drawable.BitmapDrawable$BitmapState'
p1908
sg15
(lp1909
sg17
(lp1910
sg19
(lp1911
sg21
I0
sba(iArchitecture
Entity
p1912
(dp1913
g11
(lp1914
sg13
S'android.graphics.drawable.ClipDrawable'
p1915
sg15
(lp1916
sg17
(lp1917
sg19
(lp1918
sg21
I0
sba(iArchitecture
Entity
p1919
(dp1920
g11
(lp1921
sg13
S'android.graphics.drawable.ClipDrawable$ClipState'
p1922
sg15
(lp1923
sg17
(lp1924
sg19
(lp1925
sg21
I0
sba(iArchitecture
Entity
p1926
(dp1927
g11
(lp1928
sg13
S'android.graphics.drawable.ColorDrawable'
p1929
sg15
(lp1930
sg17
(lp1931
sg19
(lp1932
sg21
I0
sba(iArchitecture
Entity
p1933
(dp1934
g11
(lp1935
sg13
S'android.graphics.drawable.ColorDrawable$ColorState'
p1936
sg15
(lp1937
sg17
(lp1938
sg19
(lp1939
sg21
I0
sba(iArchitecture
Entity
p1940
(dp1941
g11
(lp1942
sg13
S'android.graphics.drawable.Drawable'
p1943
sg15
(lp1944
sg17
(lp1945
sg19
(lp1946
sg21
I0
sba(iArchitecture
Entity
p1947
(dp1948
g11
(lp1949
sg13
S'android.graphics.drawable.Drawable$Callback'
p1950
sg15
(lp1951
sg17
(lp1952
sg19
(lp1953
sg21
I0
sba(iArchitecture
Entity
p1954
(dp1955
g11
(lp1956
sg13
S'android.graphics.drawable.Drawable$ConstantState'
p1957
sg15
(lp1958
sg17
(lp1959
sg19
(lp1960
sg21
I0
sba(iArchitecture
Entity
p1961
(dp1962
g11
(lp1963
sg13
S'android.graphics.drawable.DrawableContainer'
p1964
sg15
(lp1965
sg17
(lp1966
sg19
(lp1967
sg21
I0
sba(iArchitecture
Entity
p1968
(dp1969
g11
(lp1970
sg13
S'android.graphics.drawable.DrawableContainer$1'
p1971
sg15
(lp1972
sg17
(lp1973
sg19
(lp1974
sg21
I0
sba(iArchitecture
Entity
p1975
(dp1976
g11
(lp1977
sg13
S'android.graphics.drawable.DrawableContainer$BlockInvalidateCallback'
p1978
sg15
(lp1979
sg17
(lp1980
sg19
(lp1981
sg21
I0
sba(iArchitecture
Entity
p1982
(dp1983
g11
(lp1984
sg13
S'android.graphics.drawable.DrawableContainer$DrawableContainerState'
p1985
sg15
(lp1986
sg17
(lp1987
sg19
(lp1988
sg21
I0
sba(iArchitecture
Entity
p1989
(dp1990
g11
(lp1991
sg13
S'android.graphics.drawable.DrawableInflater'
p1992
sg15
(lp1993
sg17
(lp1994
sg19
(lp1995
sg21
I0
sba(iArchitecture
Entity
p1996
(dp1997
g11
(lp1998
sg13
S'android.graphics.drawable.DrawableWrapper'
p1999
sg15
(lp2000
sg17
(lp2001
sg19
(lp2002
sg21
I0
sba(iArchitecture
Entity
p2003
(dp2004
g11
(lp2005
sg13
S'android.graphics.drawable.DrawableWrapper$DrawableWrapperState'
p2006
sg15
(lp2007
sg17
(lp2008
sg19
(lp2009
sg21
I0
sba(iArchitecture
Entity
p2010
(dp2011
g11
(lp2012
sg13
S'android.graphics.drawable.GradientDrawable'
p2013
sg15
(lp2014
sg17
(lp2015
sg19
(lp2016
sg21
I0
sba(iArchitecture
Entity
p2017
(dp2018
g11
(lp2019
sg13
S'android.graphics.drawable.GradientDrawable$GradientState'
p2020
sg15
(lp2021
sg17
(lp2022
sg19
(lp2023
sg21
I0
sba(iArchitecture
Entity
p2024
(dp2025
g11
(lp2026
sg13
S'android.graphics.drawable.GradientDrawable$Orientation'
p2027
sg15
(lp2028
sg17
(lp2029
sg19
(lp2030
sg21
I0
sba(iArchitecture
Entity
p2031
(dp2032
g11
(lp2033
sg13
S'android.graphics.drawable.Icon'
p2034
sg15
(lp2035
sg17
(lp2036
sg19
(lp2037
sg21
I0
sba(iArchitecture
Entity
p2038
(dp2039
g11
(lp2040
sg13
S'android.graphics.drawable.Icon$1'
p2041
sg15
(lp2042
sg17
(lp2043
sg19
(lp2044
sg21
I0
sba(iArchitecture
Entity
p2045
(dp2046
g11
(lp2047
sg13
S'android.graphics.drawable.Icon$LoadDrawableTask'
p2048
sg15
(lp2049
sg17
(lp2050
sg19
(lp2051
sg21
I0
sba(iArchitecture
Entity
p2052
(dp2053
g11
(lp2054
sg13
S'android.graphics.drawable.Icon$LoadDrawableTask$1'
p2055
sg15
(lp2056
sg17
(lp2057
sg19
(lp2058
sg21
I0
sba(iArchitecture
Entity
p2059
(dp2060
g11
(lp2061
sg13
S'android.graphics.drawable.Icon$OnDrawableLoadedListener'
p2062
sg15
(lp2063
sg17
(lp2064
sg19
(lp2065
sg21
I0
sba(iArchitecture
Entity
p2066
(dp2067
g11
(lp2068
sg13
S'android.graphics.drawable.InsetDrawable'
p2069
sg15
(lp2070
sg17
(lp2071
sg19
(lp2072
sg21
I0
sba(iArchitecture
Entity
p2073
(dp2074
g11
(lp2075
sg13
S'android.graphics.drawable.InsetDrawable$InsetState'
p2076
sg15
(lp2077
sg17
(lp2078
sg19
(lp2079
sg21
I0
sba(iArchitecture
Entity
p2080
(dp2081
g11
(lp2082
sg13
S'android.graphics.drawable.LayerDrawable'
p2083
sg15
(lp2084
sg17
(lp2085
sg19
(lp2086
sg21
I0
sba(iArchitecture
Entity
p2087
(dp2088
g11
(lp2089
sg13
S'android.graphics.drawable.LayerDrawable$ChildDrawable'
p2090
sg15
(lp2091
sg17
(lp2092
sg19
(lp2093
sg21
I0
sba(iArchitecture
Entity
p2094
(dp2095
g11
(lp2096
sg13
S'android.graphics.drawable.LayerDrawable$LayerState'
p2097
sg15
(lp2098
sg17
(lp2099
sg19
(lp2100
sg21
I0
sba(iArchitecture
Entity
p2101
(dp2102
g11
(lp2103
sg13
S'android.graphics.drawable.LevelListDrawable'
p2104
sg15
(lp2105
sg17
(lp2106
sg19
(lp2107
sg21
I0
sba(iArchitecture
Entity
p2108
(dp2109
g11
(lp2110
sg13
S'android.graphics.drawable.LevelListDrawable$LevelListState'
p2111
sg15
(lp2112
sg17
(lp2113
sg19
(lp2114
sg21
I0
sba(iArchitecture
Entity
p2115
(dp2116
g11
(lp2117
sg13
S'android.graphics.drawable.NinePatchDrawable'
p2118
sg15
(lp2119
sg17
(lp2120
sg19
(lp2121
sg21
I0
sba(iArchitecture
Entity
p2122
(dp2123
g11
(lp2124
sg13
S'android.graphics.drawable.NinePatchDrawable$NinePatchState'
p2125
sg15
(lp2126
sg17
(lp2127
sg19
(lp2128
sg21
I0
sba(iArchitecture
Entity
p2129
(dp2130
g11
(lp2131
sg13
S'android.graphics.drawable.PictureDrawable'
p2132
sg15
(lp2133
sg17
(lp2134
sg19
(lp2135
sg21
I0
sba(iArchitecture
Entity
p2136
(dp2137
g11
(lp2138
sg13
S'android.graphics.drawable.RippleBackground'
p2139
sg15
(lp2140
sg17
(lp2141
sg19
(lp2142
sg21
I0
sba(iArchitecture
Entity
p2143
(dp2144
g11
(lp2145
sg13
S'android.graphics.drawable.RippleBackground$1'
p2146
sg15
(lp2147
sg17
(lp2148
sg19
(lp2149
sg21
I0
sba(iArchitecture
Entity
p2150
(dp2151
g11
(lp2152
sg13
S'android.graphics.drawable.RippleBackground$BackgroundProperty'
p2153
sg15
(lp2154
sg17
(lp2155
sg19
(lp2156
sg21
I0
sba(iArchitecture
Entity
p2157
(dp2158
g11
(lp2159
sg13
S'android.graphics.drawable.RippleComponent'
p2160
sg15
(lp2161
sg17
(lp2162
sg19
(lp2163
sg21
I0
sba(iArchitecture
Entity
p2164
(dp2165
g11
(lp2166
sg13
S'android.graphics.drawable.RippleComponent$RenderNodeAnimatorSet'
p2167
sg15
(lp2168
sg17
(lp2169
sg19
(lp2170
sg21
I0
sba(iArchitecture
Entity
p2171
(dp2172
g11
(lp2173
sg13
S'android.graphics.drawable.RippleDrawable'
p2174
sg15
(lp2175
sg17
(lp2176
sg19
(lp2177
sg21
I0
sba(iArchitecture
Entity
p2178
(dp2179
g11
(lp2180
sg13
S'android.graphics.drawable.RippleDrawable$RippleState'
p2181
sg15
(lp2182
sg17
(lp2183
sg19
(lp2184
sg21
I0
sba(iArchitecture
Entity
p2185
(dp2186
g11
(lp2187
sg13
S'android.graphics.drawable.RippleForeground'
p2188
sg15
(lp2189
sg17
(lp2190
sg19
(lp2191
sg21
I0
sba(iArchitecture
Entity
p2192
(dp2193
g11
(lp2194
sg13
S'android.graphics.drawable.RippleForeground$1'
p2195
sg15
(lp2196
sg17
(lp2197
sg19
(lp2198
sg21
I0
sba(iArchitecture
Entity
p2199
(dp2200
g11
(lp2201
sg13
S'android.graphics.drawable.RippleForeground$2'
p2202
sg15
(lp2203
sg17
(lp2204
sg19
(lp2205
sg21
I0
sba(iArchitecture
Entity
p2206
(dp2207
g11
(lp2208
sg13
S'android.graphics.drawable.RippleForeground$3'
p2209
sg15
(lp2210
sg17
(lp2211
sg19
(lp2212
sg21
I0
sba(iArchitecture
Entity
p2213
(dp2214
g11
(lp2215
sg13
S'android.graphics.drawable.RippleForeground$4'
p2216
sg15
(lp2217
sg17
(lp2218
sg19
(lp2219
sg21
I0
sba(iArchitecture
Entity
p2220
(dp2221
g11
(lp2222
sg13
S'android.graphics.drawable.RippleForeground$LogDecelerateInterpolator'
p2223
sg15
(lp2224
sg17
(lp2225
sg19
(lp2226
sg21
I0
sba(iArchitecture
Entity
p2227
(dp2228
g11
(lp2229
sg13
S'android.graphics.drawable.RotateDrawable'
p2230
sg15
(lp2231
sg17
(lp2232
sg19
(lp2233
sg21
I0
sba(iArchitecture
Entity
p2234
(dp2235
g11
(lp2236
sg13
S'android.graphics.drawable.RotateDrawable$RotateState'
p2237
sg15
(lp2238
sg17
(lp2239
sg19
(lp2240
sg21
I0
sba(iArchitecture
Entity
p2241
(dp2242
g11
(lp2243
sg13
S'android.graphics.drawable.ScaleDrawable'
p2244
sg15
(lp2245
sg17
(lp2246
sg19
(lp2247
sg21
I0
sba(iArchitecture
Entity
p2248
(dp2249
g11
(lp2250
sg13
S'android.graphics.drawable.ScaleDrawable$ScaleState'
p2251
sg15
(lp2252
sg17
(lp2253
sg19
(lp2254
sg21
I0
sba(iArchitecture
Entity
p2255
(dp2256
g11
(lp2257
sg13
S'android.graphics.drawable.ShapeDrawable'
p2258
sg15
(lp2259
sg17
(lp2260
sg19
(lp2261
sg21
I0
sba(iArchitecture
Entity
p2262
(dp2263
g11
(lp2264
sg13
S'android.graphics.drawable.ShapeDrawable$ShaderFactory'
p2265
sg15
(lp2266
sg17
(lp2267
sg19
(lp2268
sg21
I0
sba(iArchitecture
Entity
p2269
(dp2270
g11
(lp2271
sg13
S'android.graphics.drawable.ShapeDrawable$ShapeState'
p2272
sg15
(lp2273
sg17
(lp2274
sg19
(lp2275
sg21
I0
sba(iArchitecture
Entity
p2276
(dp2277
g11
(lp2278
sg13
S'android.graphics.drawable.StateListDrawable'
p2279
sg15
(lp2280
sg17
(lp2281
sg19
(lp2282
sg21
I0
sba(iArchitecture
Entity
p2283
(dp2284
g11
(lp2285
sg13
S'android.graphics.drawable.StateListDrawable$StateListState'
p2286
sg15
(lp2287
sg17
(lp2288
sg19
(lp2289
sg21
I0
sba(iArchitecture
Entity
p2290
(dp2291
g11
(lp2292
sg13
S'android.graphics.drawable.TransitionDrawable'
p2293
sg15
(lp2294
sg17
(lp2295
sg19
(lp2296
sg21
I0
sba(iArchitecture
Entity
p2297
(dp2298
g11
(lp2299
sg13
S'android.graphics.drawable.TransitionDrawable$TransitionState'
p2300
sg15
(lp2301
sg17
(lp2302
sg19
(lp2303
sg21
I0
sba(iArchitecture
Entity
p2304
(dp2305
g11
(lp2306
sg13
S'android.graphics.drawable.VectorDrawable'
p2307
sg15
(lp2308
sg17
(lp2309
sg19
(lp2310
sg21
I0
sba(iArchitecture
Entity
p2311
(dp2312
g11
(lp2313
sg13
S'android.graphics.drawable.VectorDrawable$VClipPath'
p2314
sg15
(lp2315
sg17
(lp2316
sg19
(lp2317
sg21
I0
sba(iArchitecture
Entity
p2318
(dp2319
g11
(lp2320
sg13
S'android.graphics.drawable.VectorDrawable$VFullPath'
p2321
sg15
(lp2322
sg17
(lp2323
sg19
(lp2324
sg21
I0
sba(iArchitecture
Entity
p2325
(dp2326
g11
(lp2327
sg13
S'android.graphics.drawable.VectorDrawable$VFullPath$1'
p2328
sg15
(lp2329
sg17
(lp2330
sg19
(lp2331
sg21
I0
sba(iArchitecture
Entity
p2332
(dp2333
g11
(lp2334
sg13
S'android.graphics.drawable.VectorDrawable$VGroup'
p2335
sg15
(lp2336
sg17
(lp2337
sg19
(lp2338
sg21
I0
sba(iArchitecture
Entity
p2339
(dp2340
g11
(lp2341
sg13
S'android.graphics.drawable.VectorDrawable$VGroup$1'
p2342
sg15
(lp2343
sg17
(lp2344
sg19
(lp2345
sg21
I0
sba(iArchitecture
Entity
p2346
(dp2347
g11
(lp2348
sg13
S'android.graphics.drawable.VectorDrawable$VObject'
p2349
sg15
(lp2350
sg17
(lp2351
sg19
(lp2352
sg21
I0
sba(iArchitecture
Entity
p2353
(dp2354
g11
(lp2355
sg13
S'android.graphics.drawable.VectorDrawable$VPath'
p2356
sg15
(lp2357
sg17
(lp2358
sg19
(lp2359
sg21
I0
sba(iArchitecture
Entity
p2360
(dp2361
g11
(lp2362
sg13
S'android.graphics.drawable.VectorDrawable$VectorDrawableState'
p2363
sg15
(lp2364
sg17
(lp2365
sg19
(lp2366
sg21
I0
sba(iArchitecture
Entity
p2367
(dp2368
g11
(lp2369
sg13
S'android.graphics.drawable.shapes.Shape'
p2370
sg15
(lp2371
sg17
(lp2372
sg19
(lp2373
sg21
I0
sbasg57
(lp2374
g1628
ag1635
ag1642
ag1649
ag1656
ag1663
ag1670
ag1677
ag1684
ag1691
ag1698
ag1705
ag1712
ag1719
ag1726
ag1733
ag1740
ag1747
ag1754
ag1761
ag1768
ag1775
ag1782
ag1789
ag1796
ag1803
ag1810
ag1817
ag1824
ag1831
ag1838
ag1845
ag1852
ag1859
ag1866
ag1873
ag1880
ag1887
ag1894
ag1901
ag1908
ag1915
ag1922
ag1929
ag1936
ag1943
ag1950
ag1957
ag1964
ag1971
ag1978
ag1985
ag1992
ag1999
ag2006
ag2013
ag2020
ag2027
ag2034
ag2041
ag2048
ag2055
ag2062
ag2069
ag2076
ag2083
ag2090
ag2097
ag2104
ag2111
ag2118
ag2125
ag2132
ag2139
ag2146
ag2153
ag2160
ag2167
ag2174
ag2181
ag2188
ag2195
ag2202
ag2209
ag2216
ag2223
ag2230
ag2237
ag2244
ag2251
ag2258
ag2265
ag2272
ag2279
ag2286
ag2293
ag2300
ag2307
ag2314
ag2321
ag2328
ag2335
ag2342
ag2349
ag2356
ag2363
ag2370
asg21
I0
sg59
S'android.graphics.drawable.ss'
p2375
sba(iArchitecture
Cluster
p2376
(dp2377
g7
(lp2378
(iArchitecture
Entity
p2379
(dp2380
g11
(lp2381
sg13
S'android.graphics.pdf.PdfDocument'
p2382
sg15
(lp2383
sg17
(lp2384
sg19
(lp2385
sg21
I0
sba(iArchitecture
Entity
p2386
(dp2387
g11
(lp2388
sg13
S'android.graphics.pdf.PdfDocument$Page'
p2389
sg15
(lp2390
sg17
(lp2391
sg19
(lp2392
sg21
I0
sba(iArchitecture
Entity
p2393
(dp2394
g11
(lp2395
sg13
S'android.graphics.pdf.PdfDocument$PageInfo'
p2396
sg15
(lp2397
sg17
(lp2398
sg19
(lp2399
sg21
I0
sba(iArchitecture
Entity
p2400
(dp2401
g11
(lp2402
sg13
S'android.graphics.pdf.PdfDocument$PageInfo$Builder'
p2403
sg15
(lp2404
sg17
(lp2405
sg19
(lp2406
sg21
I0
sba(iArchitecture
Entity
p2407
(dp2408
g11
(lp2409
sg13
S'android.graphics.pdf.PdfDocument$PdfCanvas'
p2410
sg15
(lp2411
sg17
(lp2412
sg19
(lp2413
sg21
I0
sba(iArchitecture
Entity
p2414
(dp2415
g11
(lp2416
sg13
S'android.graphics.pdf.PdfRenderer'
p2417
sg15
(lp2418
sg17
(lp2419
sg19
(lp2420
sg21
I0
sba(iArchitecture
Entity
p2421
(dp2422
g11
(lp2423
sg13
S'android.graphics.pdf.PdfRenderer$Page'
p2424
sg15
(lp2425
sg17
(lp2426
sg19
(lp2427
sg21
I0
sbasg57
(lp2428
g2382
ag2389
ag2396
ag2403
ag2410
ag2417
ag2424
asg21
I0
sg59
S'android.graphics.pdf.ss'
p2429
sba(iArchitecture
Cluster
p2430
(dp2431
g7
(lp2432
(iArchitecture
Entity
p2433
(dp2434
g11
(lp2435
sg13
S'android.graphics.Atlas'
p2436
sg15
(lp2437
sg17
(lp2438
sg19
(lp2439
sg21
I0
sba(iArchitecture
Entity
p2440
(dp2441
g11
(lp2442
sg13
S'android.graphics.Atlas$Entry'
p2443
sg15
(lp2444
sg17
(lp2445
sg19
(lp2446
sg21
I0
sba(iArchitecture
Entity
p2447
(dp2448
g11
(lp2449
sg13
S'android.graphics.Atlas$Policy'
p2450
sg15
(lp2451
sg17
(lp2452
sg19
(lp2453
sg21
I0
sba(iArchitecture
Entity
p2454
(dp2455
g11
(lp2456
sg13
S'android.graphics.Atlas$SlicePolicy'
p2457
sg15
(lp2458
sg17
(lp2459
sg19
(lp2460
sg21
I0
sba(iArchitecture
Entity
p2461
(dp2462
g11
(lp2463
sg13
S'android.graphics.Atlas$SlicePolicy$Cell'
p2464
sg15
(lp2465
sg17
(lp2466
sg19
(lp2467
sg21
I0
sba(iArchitecture
Entity
p2468
(dp2469
g11
(lp2470
sg13
S'android.graphics.Atlas$SlicePolicy$LongerFreeAxisSplitDecision'
p2471
sg15
(lp2472
sg17
(lp2473
sg19
(lp2474
sg21
I0
sba(iArchitecture
Entity
p2475
(dp2476
g11
(lp2477
sg13
S'android.graphics.Atlas$SlicePolicy$MaxAreaSplitDecision'
p2478
sg15
(lp2479
sg17
(lp2480
sg19
(lp2481
sg21
I0
sba(iArchitecture
Entity
p2482
(dp2483
g11
(lp2484
sg13
S'android.graphics.Atlas$SlicePolicy$MinAreaSplitDecision'
p2485
sg15
(lp2486
sg17
(lp2487
sg19
(lp2488
sg21
I0
sba(iArchitecture
Entity
p2489
(dp2490
g11
(lp2491
sg13
S'android.graphics.Atlas$SlicePolicy$ShorterFreeAxisSplitDecision'
p2492
sg15
(lp2493
sg17
(lp2494
sg19
(lp2495
sg21
I0
sba(iArchitecture
Entity
p2496
(dp2497
g11
(lp2498
sg13
S'android.graphics.Atlas$SlicePolicy$SplitDecision'
p2499
sg15
(lp2500
sg17
(lp2501
sg19
(lp2502
sg21
I0
sba(iArchitecture
Entity
p2503
(dp2504
g11
(lp2505
sg13
S'android.graphics.AvoidXfermode'
p2506
sg15
(lp2507
sg17
(lp2508
sg19
(lp2509
sg21
I0
sba(iArchitecture
Entity
p2510
(dp2511
g11
(lp2512
sg13
S'android.graphics.AvoidXfermode$Mode'
p2513
sg15
(lp2514
sg17
(lp2515
sg19
(lp2516
sg21
I0
sba(iArchitecture
Entity
p2517
(dp2518
g11
(lp2519
sg13
S'android.graphics.Bitmap'
p2520
sg15
(lp2521
sg17
(lp2522
sg19
(lp2523
sg21
I0
sba(iArchitecture
Entity
p2524
(dp2525
g11
(lp2526
sg13
S'android.graphics.Bitmap$1'
p2527
sg15
(lp2528
sg17
(lp2529
sg19
(lp2530
sg21
I0
sba(iArchitecture
Entity
p2531
(dp2532
g11
(lp2533
sg13
S'android.graphics.Canvas'
p2534
sg15
(lp2535
sg17
(lp2536
sg19
(lp2537
sg21
I0
sba(iArchitecture
Entity
p2538
(dp2539
g11
(lp2540
sg13
S'android.graphics.Canvas$NoImagePreloadHolder'
p2541
sg15
(lp2542
sg17
(lp2543
sg19
(lp2544
sg21
I0
sba(iArchitecture
Entity
p2545
(dp2546
g11
(lp2547
sg13
S'android.graphics.Canvas$VertexMode'
p2548
sg15
(lp2549
sg17
(lp2550
sg19
(lp2551
sg21
I0
sba(iArchitecture
Entity
p2552
(dp2553
g11
(lp2554
sg13
S'android.graphics.FontFamily'
p2555
sg15
(lp2556
sg17
(lp2557
sg19
(lp2558
sg21
I0
sba(iArchitecture
Entity
p2559
(dp2560
g11
(lp2561
sg13
S'android.graphics.FontListParser'
p2562
sg15
(lp2563
sg17
(lp2564
sg19
(lp2565
sg21
I0
sba(iArchitecture
Entity
p2566
(dp2567
g11
(lp2568
sg13
S'android.graphics.FontListParser$Alias'
p2569
sg15
(lp2570
sg17
(lp2571
sg19
(lp2572
sg21
I0
sba(iArchitecture
Entity
p2573
(dp2574
g11
(lp2575
sg13
S'android.graphics.FontListParser$Axis'
p2576
sg15
(lp2577
sg17
(lp2578
sg19
(lp2579
sg21
I0
sba(iArchitecture
Entity
p2580
(dp2581
g11
(lp2582
sg13
S'android.graphics.FontListParser$Config'
p2583
sg15
(lp2584
sg17
(lp2585
sg19
(lp2586
sg21
I0
sba(iArchitecture
Entity
p2587
(dp2588
g11
(lp2589
sg13
S'android.graphics.FontListParser$Family'
p2590
sg15
(lp2591
sg17
(lp2592
sg19
(lp2593
sg21
I0
sba(iArchitecture
Entity
p2594
(dp2595
g11
(lp2596
sg13
S'android.graphics.FontListParser$Font'
p2597
sg15
(lp2598
sg17
(lp2599
sg19
(lp2600
sg21
I0
sba(iArchitecture
Entity
p2601
(dp2602
g11
(lp2603
sg13
S'android.graphics.Interpolator'
p2604
sg15
(lp2605
sg17
(lp2606
sg19
(lp2607
sg21
I0
sba(iArchitecture
Entity
p2608
(dp2609
g11
(lp2610
sg13
S'android.graphics.LayerRasterizer'
p2611
sg15
(lp2612
sg17
(lp2613
sg19
(lp2614
sg21
I0
sba(iArchitecture
Entity
p2615
(dp2616
g11
(lp2617
sg13
S'android.graphics.Matrix'
p2618
sg15
(lp2619
sg17
(lp2620
sg19
(lp2621
sg21
I0
sba(iArchitecture
Entity
p2622
(dp2623
g11
(lp2624
sg13
S'android.graphics.Matrix$1'
p2625
sg15
(lp2626
sg17
(lp2627
sg19
(lp2628
sg21
I0
sba(iArchitecture
Entity
p2629
(dp2630
g11
(lp2631
sg13
S'android.graphics.Matrix$ScaleToFit'
p2632
sg15
(lp2633
sg17
(lp2634
sg19
(lp2635
sg21
I0
sba(iArchitecture
Entity
p2636
(dp2637
g11
(lp2638
sg13
S'android.graphics.Paint'
p2639
sg15
(lp2640
sg17
(lp2641
sg19
(lp2642
sg21
I0
sba(iArchitecture
Entity
p2643
(dp2644
g11
(lp2645
sg13
S'android.graphics.Paint$FontMetrics'
p2646
sg15
(lp2647
sg17
(lp2648
sg19
(lp2649
sg21
I0
sba(iArchitecture
Entity
p2650
(dp2651
g11
(lp2652
sg13
S'android.graphics.Paint$NoImagePreloadHolder'
p2653
sg15
(lp2654
sg17
(lp2655
sg19
(lp2656
sg21
I0
sba(iArchitecture
Entity
p2657
(dp2658
g11
(lp2659
sg13
S'android.graphics.Path'
p2660
sg15
(lp2661
sg17
(lp2662
sg19
(lp2663
sg21
I0
sba(iArchitecture
Entity
p2664
(dp2665
g11
(lp2666
sg13
S'android.graphics.Path$Op'
p2667
sg15
(lp2668
sg17
(lp2669
sg19
(lp2670
sg21
I0
sba(iArchitecture
Entity
p2671
(dp2672
g11
(lp2673
sg13
S'android.graphics.PathDashPathEffect'
p2674
sg15
(lp2675
sg17
(lp2676
sg19
(lp2677
sg21
I0
sba(iArchitecture
Entity
p2678
(dp2679
g11
(lp2680
sg13
S'android.graphics.PathDashPathEffect$Style'
p2681
sg15
(lp2682
sg17
(lp2683
sg19
(lp2684
sg21
I0
sba(iArchitecture
Entity
p2685
(dp2686
g11
(lp2687
sg13
S'android.graphics.Picture'
p2688
sg15
(lp2689
sg17
(lp2690
sg19
(lp2691
sg21
I0
sba(iArchitecture
Entity
p2692
(dp2693
g11
(lp2694
sg13
S'android.graphics.Picture$RecordingCanvas'
p2695
sg15
(lp2696
sg17
(lp2697
sg19
(lp2698
sg21
I0
sba(iArchitecture
Entity
p2699
(dp2700
g11
(lp2701
sg13
S'android.graphics.Point'
p2702
sg15
(lp2703
sg17
(lp2704
sg19
(lp2705
sg21
I0
sba(iArchitecture
Entity
p2706
(dp2707
g11
(lp2708
sg13
S'android.graphics.Point$1'
p2709
sg15
(lp2710
sg17
(lp2711
sg19
(lp2712
sg21
I0
sba(iArchitecture
Entity
p2713
(dp2714
g11
(lp2715
sg13
S'android.graphics.PointF'
p2716
sg15
(lp2717
sg17
(lp2718
sg19
(lp2719
sg21
I0
sba(iArchitecture
Entity
p2720
(dp2721
g11
(lp2722
sg13
S'android.graphics.PointF$1'
p2723
sg15
(lp2724
sg17
(lp2725
sg19
(lp2726
sg21
I0
sba(iArchitecture
Entity
p2727
(dp2728
g11
(lp2729
sg13
S'android.graphics.Rasterizer'
p2730
sg15
(lp2731
sg17
(lp2732
sg19
(lp2733
sg21
I0
sba(iArchitecture
Entity
p2734
(dp2735
g11
(lp2736
sg13
S'android.graphics.Rect'
p2737
sg15
(lp2738
sg17
(lp2739
sg19
(lp2740
sg21
I0
sba(iArchitecture
Entity
p2741
(dp2742
g11
(lp2743
sg13
S'android.graphics.Rect$1'
p2744
sg15
(lp2745
sg17
(lp2746
sg19
(lp2747
sg21
I0
sba(iArchitecture
Entity
p2748
(dp2749
g11
(lp2750
sg13
S'android.graphics.Rect$UnflattenHelper'
p2751
sg15
(lp2752
sg17
(lp2753
sg19
(lp2754
sg21
I0
sba(iArchitecture
Entity
p2755
(dp2756
g11
(lp2757
sg13
S'android.graphics.RectF'
p2758
sg15
(lp2759
sg17
(lp2760
sg19
(lp2761
sg21
I0
sba(iArchitecture
Entity
p2762
(dp2763
g11
(lp2764
sg13
S'android.graphics.RectF$1'
p2765
sg15
(lp2766
sg17
(lp2767
sg19
(lp2768
sg21
I0
sba(iArchitecture
Entity
p2769
(dp2770
g11
(lp2771
sg13
S'android.graphics.Region'
p2772
sg15
(lp2773
sg17
(lp2774
sg19
(lp2775
sg21
I0
sba(iArchitecture
Entity
p2776
(dp2777
g11
(lp2778
sg13
S'android.graphics.Region$1'
p2779
sg15
(lp2780
sg17
(lp2781
sg19
(lp2782
sg21
I0
sba(iArchitecture
Entity
p2783
(dp2784
g11
(lp2785
sg13
S'android.graphics.SurfaceTexture'
p2786
sg15
(lp2787
sg17
(lp2788
sg19
(lp2789
sg21
I0
sba(iArchitecture
Entity
p2790
(dp2791
g11
(lp2792
sg13
S'android.graphics.SurfaceTexture$1'
p2793
sg15
(lp2794
sg17
(lp2795
sg19
(lp2796
sg21
I0
sba(iArchitecture
Entity
p2797
(dp2798
g11
(lp2799
sg13
S'android.graphics.SurfaceTexture$OutOfResourcesException'
p2800
sg15
(lp2801
sg17
(lp2802
sg19
(lp2803
sg21
I0
sba(iArchitecture
Entity
p2804
(dp2805
g11
(lp2806
sg13
S'android.graphics.TemporaryBuffer'
p2807
sg15
(lp2808
sg17
(lp2809
sg19
(lp2810
sg21
I0
sba(iArchitecture
Entity
p2811
(dp2812
g11
(lp2813
sg13
S'android.graphics.Typeface'
p2814
sg15
(lp2815
sg17
(lp2816
sg19
(lp2817
sg21
I0
sbasg57
(lp2818
g2436
ag2443
ag2450
ag2457
ag2464
ag2471
ag2478
ag2485
ag2492
ag2499
ag2506
ag2513
ag2520
ag2527
ag2534
ag2541
ag2548
ag2555
ag2562
ag2569
ag2576
ag2583
ag2590
ag2597
ag2604
ag2611
ag2618
ag2625
ag2632
ag2639
ag2646
ag2653
ag2660
ag2667
ag2674
ag2681
ag2688
ag2695
ag2702
ag2709
ag2716
ag2723
ag2730
ag2737
ag2744
ag2751
ag2758
ag2765
ag2772
ag2779
ag2786
ag2793
ag2800
ag2807
ag2814
asg21
I0
sg59
S'android.graphics.ss'
p2819
sba(iArchitecture
Cluster
p2820
(dp2821
g7
(lp2822
(iArchitecture
Entity
p2823
(dp2824
g11
(lp2825
sg13
S'android.graphics.ImageFormat'
p2826
sg15
(lp2827
sg17
(lp2828
sg19
(lp2829
sg21
I0
sbasg57
(lp2830
g2826
asg21
I0
sg59
S'android.hardware.camera2.legacy.ss'
p2831
sba(iArchitecture
Cluster
p2832
(dp2833
g7
(lp2834
(iArchitecture
Entity
p2835
(dp2836
g11
(lp2837
sg13
S'android.graphics.ColorMatrixColorFilter'
p2838
sg15
(lp2839
sg17
(lp2840
sg19
(lp2841
sg21
I0
sba(iArchitecture
Entity
p2842
(dp2843
g11
(lp2844
sg13
S'android.graphics.EmbossMaskFilter'
p2845
sg15
(lp2846
sg17
(lp2847
sg19
(lp2848
sg21
I0
sbasg57
(lp2849
g2838
ag2845
asg21
I0
sg59
S'android.net.ss'
p2850
sba(iArchitecture
Cluster
p2851
(dp2852
g7
(lp2853
(iArchitecture
Entity
p2854
(dp2855
g11
(lp2856
sg13
S'android.graphics.BitmapFactory'
p2857
sg15
(lp2858
sg17
(lp2859
sg19
(lp2860
sg21
I0
sba(iArchitecture
Entity
p2861
(dp2862
g11
(lp2863
sg13
S'android.graphics.BitmapFactory$Options'
p2864
sg15
(lp2865
sg17
(lp2866
sg19
(lp2867
sg21
I0
sba(iArchitecture
Entity
p2868
(dp2869
g11
(lp2870
sg13
S'android.graphics.PixelXorXfermode'
p2871
sg15
(lp2872
sg17
(lp2873
sg19
(lp2874
sg21
I0
sbasg57
(lp2875
g2857
ag2864
ag2871
asg21
I0
sg59
S'android.provider.ss'
p2876
sba(iArchitecture
Cluster
p2877
(dp2878
g7
(lp2879
(iArchitecture
Entity
p2880
(dp2881
g11
(lp2882
sg13
S'android.graphics.Paint$FontMetricsInt'
p2883
sg15
(lp2884
sg17
(lp2885
sg19
(lp2886
sg21
I0
sbasg57
(lp2887
g2883
asg21
I0
sg59
S'android.text.ss'
p2888
sba(iArchitecture
Cluster
p2889
(dp2890
g7
(lp2891
(iArchitecture
Entity
p2892
(dp2893
g11
(lp2894
sg13
S'android.graphics.PathMeasure'
p2895
sg15
(lp2896
sg17
(lp2897
sg19
(lp2898
sg21
I0
sbasg57
(lp2899
g2895
asg21
I0
sg59
S'android.transition.ss'
p2900
sba(iArchitecture
Cluster
p2901
(dp2902
g7
(lp2903
(iArchitecture
Entity
p2904
(dp2905
g11
(lp2906
sg13
S'android.graphics.Bitmap$Config'
p2907
sg15
(lp2908
sg17
(lp2909
sg19
(lp2910
sg21
I0
sba(iArchitecture
Entity
p2911
(dp2912
g11
(lp2913
sg13
S'android.graphics.Canvas$EdgeType'
p2914
sg15
(lp2915
sg17
(lp2916
sg19
(lp2917
sg21
I0
sba(iArchitecture
Entity
p2918
(dp2919
g11
(lp2920
sg13
S'android.graphics.Interpolator$Result'
p2921
sg15
(lp2922
sg17
(lp2923
sg19
(lp2924
sg21
I0
sba(iArchitecture
Entity
p2925
(dp2926
g11
(lp2927
sg13
S'android.graphics.LinearGradient'
p2928
sg15
(lp2929
sg17
(lp2930
sg19
(lp2931
sg21
I0
sba(iArchitecture
Entity
p2932
(dp2933
g11
(lp2934
sg13
S'android.graphics.Outline'
p2935
sg15
(lp2936
sg17
(lp2937
sg19
(lp2938
sg21
I0
sba(iArchitecture
Entity
p2939
(dp2940
g11
(lp2941
sg13
S'android.graphics.PixelFormat'
p2942
sg15
(lp2943
sg17
(lp2944
sg19
(lp2945
sg21
I0
sba(iArchitecture
Entity
p2946
(dp2947
g11
(lp2948
sg13
S'android.graphics.Shader'
p2949
sg15
(lp2950
sg17
(lp2951
sg19
(lp2952
sg21
I0
sba(iArchitecture
Entity
p2953
(dp2954
g11
(lp2955
sg13
S'android.graphics.Shader$TileMode'
p2956
sg15
(lp2957
sg17
(lp2958
sg19
(lp2959
sg21
I0
sba(iArchitecture
Entity
p2960
(dp2961
g11
(lp2962
sg13
S'android.graphics.SurfaceTexture$OnFrameAvailableListener'
p2963
sg15
(lp2964
sg17
(lp2965
sg19
(lp2966
sg21
I0
sbasg57
(lp2967
g2907
ag2914
ag2921
ag2928
ag2935
ag2942
ag2949
ag2956
ag2963
asg21
I0
sg59
S'android.view.ss'
p2968
sba(iArchitecture
Cluster
p2969
(dp2970
g7
(lp2971
(iArchitecture
Entity
p2972
(dp2973
g11
(lp2974
sg13
S'android.graphics.Color'
p2975
sg15
(lp2976
sg17
(lp2977
sg19
(lp2978
sg21
I0
sba(iArchitecture
Entity
p2979
(dp2980
g11
(lp2981
sg13
S'android.graphics.Paint$Align'
p2982
sg15
(lp2983
sg17
(lp2984
sg19
(lp2985
sg21
I0
sba(iArchitecture
Entity
p2986
(dp2987
g11
(lp2988
sg13
S'android.graphics.Paint$Style'
p2989
sg15
(lp2990
sg17
(lp2991
sg19
(lp2992
sg21
I0
sba(iArchitecture
Entity
p2993
(dp2994
g11
(lp2995
sg13
S'android.graphics.PorterDuff$Mode'
p2996
sg15
(lp2997
sg17
(lp2998
sg19
(lp2999
sg21
I0
sba(iArchitecture
Entity
p3000
(dp3001
g11
(lp3002
sg13
S'android.graphics.PorterDuffColorFilter'
p3003
sg15
(lp3004
sg17
(lp3005
sg19
(lp3006
sg21
I0
sba(iArchitecture
Entity
p3007
(dp3008
g11
(lp3009
sg13
S'android.graphics.drawable.shapes.ArcShape'
p3010
sg15
(lp3011
sg17
(lp3012
sg19
(lp3013
sg21
I0
sba(iArchitecture
Entity
p3014
(dp3015
g11
(lp3016
sg13
S'android.graphics.drawable.shapes.OvalShape'
p3017
sg15
(lp3018
sg17
(lp3019
sg19
(lp3020
sg21
I0
sba(iArchitecture
Entity
p3021
(dp3022
g11
(lp3023
sg13
S'android.graphics.drawable.shapes.PathShape'
p3024
sg15
(lp3025
sg17
(lp3026
sg19
(lp3027
sg21
I0
sba(iArchitecture
Entity
p3028
(dp3029
g11
(lp3030
sg13
S'android.graphics.drawable.shapes.RectShape'
p3031
sg15
(lp3032
sg17
(lp3033
sg19
(lp3034
sg21
I0
sba(iArchitecture
Entity
p3035
(dp3036
g11
(lp3037
sg13
S'android.graphics.drawable.shapes.RoundRectShape'
p3038
sg15
(lp3039
sg17
(lp3040
sg19
(lp3041
sg21
I0
sbasg57
(lp3042
g2975
ag2982
ag2989
ag2996
ag3003
ag3010
ag3017
ag3024
ag3031
ag3038
asg21
I0
sg59
S'android.widget.ss'
p3043
sba(iArchitecture
Cluster
p3044
(dp3045
g7
(lp3046
(iArchitecture
Entity
p3047
(dp3048
g11
(lp3049
sg13
S'android.graphics.CanvasProperty'
p3050
sg15
(lp3051
sg17
(lp3052
sg19
(lp3053
sg21
I0
sba(iArchitecture
Entity
p3054
(dp3055
g11
(lp3056
sg13
S'android.graphics.Paint$Cap'
p3057
sg15
(lp3058
sg17
(lp3059
sg19
(lp3060
sg21
I0
sba(iArchitecture
Entity
p3061
(dp3062
g11
(lp3063
sg13
S'android.graphics.Paint$Join'
p3064
sg15
(lp3065
sg17
(lp3066
sg19
(lp3067
sg21
I0
sbasg57
(lp3068
g3050
ag3057
ag3064
asg21
I0
sg59
S'com.android.internal.widget.ss'
p3069
sba(iArchitecture
Cluster
p3070
(dp3071
g7
(lp3072
(iArchitecture
Entity
p3073
(dp3074
g11
(lp3075
sg13
S'android.graphics.BlurMaskFilter'
p3076
sg15
(lp3077
sg17
(lp3078
sg19
(lp3079
sg21
I0
sba(iArchitecture
Entity
p3080
(dp3081
g11
(lp3082
sg13
S'android.graphics.BlurMaskFilter$Blur'
p3083
sg15
(lp3084
sg17
(lp3085
sg19
(lp3086
sg21
I0
sba(iArchitecture
Entity
p3087
(dp3088
g11
(lp3089
sg13
S'android.graphics.ColorMatrix'
p3090
sg15
(lp3091
sg17
(lp3092
sg19
(lp3093
sg21
I0
sba(iArchitecture
Entity
p3094
(dp3095
g11
(lp3096
sg13
S'android.graphics.DrawFilter'
p3097
sg15
(lp3098
sg17
(lp3099
sg19
(lp3100
sg21
I0
sba(iArchitecture
Entity
p3101
(dp3102
g11
(lp3103
sg13
S'android.graphics.MaskFilter'
p3104
sg15
(lp3105
sg17
(lp3106
sg19
(lp3107
sg21
I0
sba(iArchitecture
Entity
p3108
(dp3109
g11
(lp3110
sg13
S'android.graphics.PaintFlagsDrawFilter'
p3111
sg15
(lp3112
sg17
(lp3113
sg19
(lp3114
sg21
I0
sba(iArchitecture
Entity
p3115
(dp3116
g11
(lp3117
sg13
S'android.graphics.TableMaskFilter'
p3118
sg15
(lp3119
sg17
(lp3120
sg19
(lp3121
sg21
I0
sba(iArchitecture
Entity
p3122
(dp3123
g11
(lp3124
sg13
S'android.graphics.drawable.PaintDrawable'
p3125
sg15
(lp3126
sg17
(lp3127
sg19
(lp3128
sg21
I0
sbasg57
(lp3129
g3076
ag3083
ag3090
ag3097
ag3104
ag3111
ag3118
ag3125
asg21
I0
sg59
S'com.android.server.appwidget.ss'
p3130
sba(iArchitecture
Cluster
p3131
(dp3132
g7
(lp3133
(iArchitecture
Entity
p3134
(dp3135
g11
(lp3136
sg13
S'android.graphics.Camera'
p3137
sg15
(lp3138
sg17
(lp3139
sg19
(lp3140
sg21
I0
sba(iArchitecture
Entity
p3141
(dp3142
g11
(lp3143
sg13
S'android.graphics.ComposeShader'
p3144
sg15
(lp3145
sg17
(lp3146
sg19
(lp3147
sg21
I0
sba(iArchitecture
Entity
p3148
(dp3149
g11
(lp3150
sg13
S'android.graphics.LargeBitmap'
p3151
sg15
(lp3152
sg17
(lp3153
sg19
(lp3154
sg21
I0
sba(iArchitecture
Entity
p3155
(dp3156
g11
(lp3157
sg13
S'android.graphics.RegionIterator'
p3158
sg15
(lp3159
sg17
(lp3160
sg19
(lp3161
sg21
I0
sba(iArchitecture
Entity
p3162
(dp3163
g11
(lp3164
sg13
S'android.graphics.YuvImage'
p3165
sg15
(lp3166
sg17
(lp3167
sg19
(lp3168
sg21
I0
sba(iArchitecture
Entity
p3169
(dp3170
g11
(lp3171
sg13
S'android.graphics.pdf.PdfEditor'
p3172
sg15
(lp3173
sg17
(lp3174
sg19
(lp3175
sg21
I0
sbasg57
(lp3176
g3137
ag3144
ag3151
ag3158
ag3165
ag3172
asg21
I0
sg59
S'com.android.server.pm.ss'
p3177
sba(iArchitecture
Cluster
p3178
(dp3179
g7
(lp3180
(iArchitecture
Entity
p3181
(dp3182
g11
(lp3183
sg13
S'android.graphics.Atlas$Type'
p3184
sg15
(lp3185
sg17
(lp3186
sg19
(lp3187
sg21
I0
sba(iArchitecture
Entity
p3188
(dp3189
g11
(lp3190
sg13
S'android.graphics.PorterDuffXfermode'
p3191
sg15
(lp3192
sg17
(lp3193
sg19
(lp3194
sg21
I0
sba(iArchitecture
Entity
p3195
(dp3196
g11
(lp3197
sg13
S'android.graphics.Xfermode'
p3198
sg15
(lp3199
sg17
(lp3200
sg19
(lp3201
sg21
I0
sbasg57
(lp3202
g3184
ag3191
ag3198
asg21
I0
sg59
S'com.android.server.ss'
p3203
sba(iArchitecture
Cluster
p3204
(dp3205
g7
(lp3206
(iArchitecture
Entity
p3207
(dp3208
g11
(lp3209
sg13
S'android.graphics.Bitmap$CompressFormat'
p3210
sg15
(lp3211
sg17
(lp3212
sg19
(lp3213
sg21
I0
sba(iArchitecture
Entity
p3214
(dp3215
g11
(lp3216
sg13
S'android.graphics.BitmapRegionDecoder'
p3217
sg15
(lp3218
sg17
(lp3219
sg19
(lp3220
sg21
I0
sbasg57
(lp3221
g3210
ag3217
asg21
I0
sg59
S'com.android.server.wallpaper.ss'
p3222
sba(iArchitecture
Cluster
p3223
(dp3224
g7
(lp3225
(iArchitecture
Entity
p3226
(dp3227
g11
(lp3228
sg13
S'android.graphics.Path$Direction'
p3229
sg15
(lp3230
sg17
(lp3231
sg19
(lp3232
sg21
I0
sba(iArchitecture
Entity
p3233
(dp3234
g11
(lp3235
sg13
S'android.graphics.Region$Op'
p3236
sg15
(lp3237
sg17
(lp3238
sg19
(lp3239
sg21
I0
sbasg57
(lp3240
g3229
ag3236
asg21
I0
sg59
S'com.android.server.wm.ss'
p3241
sbasg1602
g1603
sg57
(lp3242
sg1605
I00
sg59
S'7.0.0_r1'
p3243
sba.