(lp0
(iArchitecture
Architecture
p1
(dp2
S'clusters'
p3
(lp4
(iArchitecture
Cluster
p5
(dp6
S'entities'
p7
(lp8
(iArchitecture
Entity
p9
(dp10
S'issue_ids'
p11
(lp12
sS'name'
p13
S'com.android.server.display.AutomaticBrightnessController'
p14
sS'descs'
p15
(lp16
sS'labels'
p17
(lp18
sS'titles'
p19
(lp20
sS'change'
p21
I0
sba(iArchitecture
Entity
p22
(dp23
g11
(lp24
sg13
S'com.android.server.display.AutomaticBrightnessController$1'
p25
sg15
(lp26
sg17
(lp27
sg19
(lp28
sg21
I0
sba(iArchitecture
Entity
p29
(dp30
g11
(lp31
sg13
S'com.android.server.display.AutomaticBrightnessController$2'
p32
sg15
(lp33
sg17
(lp34
sg19
(lp35
sg21
I0
sba(iArchitecture
Entity
p36
(dp37
g11
(lp38
sg13
S'com.android.server.display.AutomaticBrightnessController$AmbientLightRingBuffer'
p39
sg15
(lp40
sg17
(lp41
sg19
(lp42
sg21
I0
sba(iArchitecture
Entity
p43
(dp44
g11
(lp45
sg13
S'com.android.server.display.AutomaticBrightnessController$AutomaticBrightnessHandler'
p46
sg15
(lp47
sg17
(lp48
sg19
(lp49
sg21
I0
sba(iArchitecture
Entity
p50
(dp51
g11
(lp52
sg13
S'com.android.server.display.AutomaticBrightnessController$Callbacks'
p53
sg15
(lp54
sg17
(lp55
sg19
(lp56
sg21
I0
sba(iArchitecture
Entity
p57
(dp58
g11
(lp59
sg13
S'com.android.server.display.ColorFade'
p60
sg15
(lp61
sg17
(lp62
sg19
(lp63
sg21
I0
sba(iArchitecture
Entity
p64
(dp65
g11
(lp66
sg13
S'com.android.server.display.ColorFade$NaturalSurfaceLayout'
p67
sg15
(lp68
sg17
(lp69
sg19
(lp70
sg21
I0
sba(iArchitecture
Entity
p71
(dp72
g11
(lp73
sg13
S'com.android.server.display.DisplayAdapter'
p74
sg15
(lp75
sg17
(lp76
sg19
(lp77
sg21
I0
sba(iArchitecture
Entity
p78
(dp79
g11
(lp80
sg13
S'com.android.server.display.DisplayAdapter$1'
p81
sg15
(lp82
sg17
(lp83
sg19
(lp84
sg21
I0
sba(iArchitecture
Entity
p85
(dp86
g11
(lp87
sg13
S'com.android.server.display.DisplayAdapter$2'
p88
sg15
(lp89
sg17
(lp90
sg19
(lp91
sg21
I0
sba(iArchitecture
Entity
p92
(dp93
g11
(lp94
sg13
S'com.android.server.display.DisplayAdapter$Listener'
p95
sg15
(lp96
sg17
(lp97
sg19
(lp98
sg21
I0
sba(iArchitecture
Entity
p99
(dp100
g11
(lp101
sg13
S'com.android.server.display.DisplayBlanker'
p102
sg15
(lp103
sg17
(lp104
sg19
(lp105
sg21
I0
sba(iArchitecture
Entity
p106
(dp107
g11
(lp108
sg13
S'com.android.server.display.DisplayDevice'
p109
sg15
(lp110
sg17
(lp111
sg19
(lp112
sg21
I0
sba(iArchitecture
Entity
p113
(dp114
g11
(lp115
sg13
S'com.android.server.display.DisplayDeviceInfo'
p116
sg15
(lp117
sg17
(lp118
sg19
(lp119
sg21
I0
sba(iArchitecture
Entity
p120
(dp121
g11
(lp122
sg13
S'com.android.server.display.DisplayManagerService'
p123
sg15
(lp124
sg17
(lp125
sg19
(lp126
sg21
I0
sba(iArchitecture
Entity
p127
(dp128
g11
(lp129
sg13
S'com.android.server.display.DisplayManagerService$BinderService'
p130
sg15
(lp131
sg17
(lp132
sg19
(lp133
sg21
I0
sba(iArchitecture
Entity
p134
(dp135
g11
(lp136
sg13
S'com.android.server.display.DisplayManagerService$CallbackRecord'
p137
sg15
(lp138
sg17
(lp139
sg19
(lp140
sg21
I0
sba(iArchitecture
Entity
p141
(dp142
g11
(lp143
sg13
S'com.android.server.display.DisplayManagerService$DisplayAdapterListener'
p144
sg15
(lp145
sg17
(lp146
sg19
(lp147
sg21
I0
sba(iArchitecture
Entity
p148
(dp149
g11
(lp150
sg13
S'com.android.server.display.DisplayManagerService$DisplayManagerHandler'
p151
sg15
(lp152
sg17
(lp153
sg19
(lp154
sg21
I0
sba(iArchitecture
Entity
p155
(dp156
g11
(lp157
sg13
S'com.android.server.display.DisplayManagerService$LocalService'
p158
sg15
(lp159
sg17
(lp160
sg19
(lp161
sg21
I0
sba(iArchitecture
Entity
p162
(dp163
g11
(lp164
sg13
S'com.android.server.display.DisplayManagerService$LocalService$1'
p165
sg15
(lp166
sg17
(lp167
sg19
(lp168
sg21
I0
sba(iArchitecture
Entity
p169
(dp170
g11
(lp171
sg13
S'com.android.server.display.DisplayManagerService$SyncRoot'
p172
sg15
(lp173
sg17
(lp174
sg19
(lp175
sg21
I0
sba(iArchitecture
Entity
p176
(dp177
g11
(lp178
sg13
S'com.android.server.display.DisplayPowerController'
p179
sg15
(lp180
sg17
(lp181
sg19
(lp182
sg21
I0
sba(iArchitecture
Entity
p183
(dp184
g11
(lp185
sg13
S'com.android.server.display.DisplayPowerController$1'
p186
sg15
(lp187
sg17
(lp188
sg19
(lp189
sg21
I0
sba(iArchitecture
Entity
p190
(dp191
g11
(lp192
sg13
S'com.android.server.display.DisplayPowerController$2'
p193
sg15
(lp194
sg17
(lp195
sg19
(lp196
sg21
I0
sba(iArchitecture
Entity
p197
(dp198
g11
(lp199
sg13
S'com.android.server.display.DisplayPowerController$3'
p200
sg15
(lp201
sg17
(lp202
sg19
(lp203
sg21
I0
sba(iArchitecture
Entity
p204
(dp205
g11
(lp206
sg13
S'com.android.server.display.DisplayPowerController$4'
p207
sg15
(lp208
sg17
(lp209
sg19
(lp210
sg21
I0
sba(iArchitecture
Entity
p211
(dp212
g11
(lp213
sg13
S'com.android.server.display.DisplayPowerController$5'
p214
sg15
(lp215
sg17
(lp216
sg19
(lp217
sg21
I0
sba(iArchitecture
Entity
p218
(dp219
g11
(lp220
sg13
S'com.android.server.display.DisplayPowerController$6'
p221
sg15
(lp222
sg17
(lp223
sg19
(lp224
sg21
I0
sba(iArchitecture
Entity
p225
(dp226
g11
(lp227
sg13
S'com.android.server.display.DisplayPowerController$7'
p228
sg15
(lp229
sg17
(lp230
sg19
(lp231
sg21
I0
sba(iArchitecture
Entity
p232
(dp233
g11
(lp234
sg13
S'com.android.server.display.DisplayPowerController$8'
p235
sg15
(lp236
sg17
(lp237
sg19
(lp238
sg21
I0
sba(iArchitecture
Entity
p239
(dp240
g11
(lp241
sg13
S'com.android.server.display.DisplayPowerController$DisplayControllerHandler'
p242
sg15
(lp243
sg17
(lp244
sg19
(lp245
sg21
I0
sba(iArchitecture
Entity
p246
(dp247
g11
(lp248
sg13
S'com.android.server.display.DisplayPowerController$ScreenOnUnblocker'
p249
sg15
(lp250
sg17
(lp251
sg19
(lp252
sg21
I0
sba(iArchitecture
Entity
p253
(dp254
g11
(lp255
sg13
S'com.android.server.display.DisplayPowerState'
p256
sg15
(lp257
sg17
(lp258
sg19
(lp259
sg21
I0
sba(iArchitecture
Entity
p260
(dp261
g11
(lp262
sg13
S'com.android.server.display.DisplayPowerState$1'
p263
sg15
(lp264
sg17
(lp265
sg19
(lp266
sg21
I0
sba(iArchitecture
Entity
p267
(dp268
g11
(lp269
sg13
S'com.android.server.display.DisplayPowerState$2'
p270
sg15
(lp271
sg17
(lp272
sg19
(lp273
sg21
I0
sba(iArchitecture
Entity
p274
(dp275
g11
(lp276
sg13
S'com.android.server.display.DisplayPowerState$3'
p277
sg15
(lp278
sg17
(lp279
sg19
(lp280
sg21
I0
sba(iArchitecture
Entity
p281
(dp282
g11
(lp283
sg13
S'com.android.server.display.DisplayPowerState$4'
p284
sg15
(lp285
sg17
(lp286
sg19
(lp287
sg21
I0
sba(iArchitecture
Entity
p288
(dp289
g11
(lp290
sg13
S'com.android.server.display.DisplayPowerState$PhotonicModulator'
p291
sg15
(lp292
sg17
(lp293
sg19
(lp294
sg21
I0
sba(iArchitecture
Entity
p295
(dp296
g11
(lp297
sg13
S'com.android.server.display.LocalDisplayAdapter'
p298
sg15
(lp299
sg17
(lp300
sg19
(lp301
sg21
I0
sba(iArchitecture
Entity
p302
(dp303
g11
(lp304
sg13
S'com.android.server.display.LocalDisplayAdapter$DisplayModeRecord'
p305
sg15
(lp306
sg17
(lp307
sg19
(lp308
sg21
I0
sba(iArchitecture
Entity
p309
(dp310
g11
(lp311
sg13
S'com.android.server.display.LocalDisplayAdapter$HotplugDisplayEventReceiver'
p312
sg15
(lp313
sg17
(lp314
sg19
(lp315
sg21
I0
sba(iArchitecture
Entity
p316
(dp317
g11
(lp318
sg13
S'com.android.server.display.LocalDisplayAdapter$LocalDisplayDevice'
p319
sg15
(lp320
sg17
(lp321
sg19
(lp322
sg21
I0
sba(iArchitecture
Entity
p323
(dp324
g11
(lp325
sg13
S'com.android.server.display.LocalDisplayAdapter$LocalDisplayDevice$1'
p326
sg15
(lp327
sg17
(lp328
sg19
(lp329
sg21
I0
sba(iArchitecture
Entity
p330
(dp331
g11
(lp332
sg13
S'com.android.server.display.LogicalDisplay'
p333
sg15
(lp334
sg17
(lp335
sg19
(lp336
sg21
I0
sba(iArchitecture
Entity
p337
(dp338
g11
(lp339
sg13
S'com.android.server.display.OverlayDisplayAdapter'
p340
sg15
(lp341
sg17
(lp342
sg19
(lp343
sg21
I0
sba(iArchitecture
Entity
p344
(dp345
g11
(lp346
sg13
S'com.android.server.display.OverlayDisplayAdapter$1'
p347
sg15
(lp348
sg17
(lp349
sg19
(lp350
sg21
I0
sba(iArchitecture
Entity
p351
(dp352
g11
(lp353
sg13
S'com.android.server.display.OverlayDisplayAdapter$1$1'
p354
sg15
(lp355
sg17
(lp356
sg19
(lp357
sg21
I0
sba(iArchitecture
Entity
p358
(dp359
g11
(lp360
sg13
S'com.android.server.display.OverlayDisplayAdapter$OverlayDisplayDevice'
p361
sg15
(lp362
sg17
(lp363
sg19
(lp364
sg21
I0
sba(iArchitecture
Entity
p365
(dp366
g11
(lp367
sg13
S'com.android.server.display.OverlayDisplayAdapter$OverlayDisplayHandle'
p368
sg15
(lp369
sg17
(lp370
sg19
(lp371
sg21
I0
sba(iArchitecture
Entity
p372
(dp373
g11
(lp374
sg13
S'com.android.server.display.OverlayDisplayAdapter$OverlayDisplayHandle$1'
p375
sg15
(lp376
sg17
(lp377
sg19
(lp378
sg21
I0
sba(iArchitecture
Entity
p379
(dp380
g11
(lp381
sg13
S'com.android.server.display.OverlayDisplayAdapter$OverlayDisplayHandle$2'
p382
sg15
(lp383
sg17
(lp384
sg19
(lp385
sg21
I0
sba(iArchitecture
Entity
p386
(dp387
g11
(lp388
sg13
S'com.android.server.display.OverlayDisplayAdapter$OverlayDisplayHandle$3'
p389
sg15
(lp390
sg17
(lp391
sg19
(lp392
sg21
I0
sba(iArchitecture
Entity
p393
(dp394
g11
(lp395
sg13
S'com.android.server.display.OverlayDisplayAdapter$OverlayDisplayHandle$4'
p396
sg15
(lp397
sg17
(lp398
sg19
(lp399
sg21
I0
sba(iArchitecture
Entity
p400
(dp401
g11
(lp402
sg13
S'com.android.server.display.OverlayDisplayAdapter$OverlayMode'
p403
sg15
(lp404
sg17
(lp405
sg19
(lp406
sg21
I0
sba(iArchitecture
Entity
p407
(dp408
g11
(lp409
sg13
S'com.android.server.display.OverlayDisplayWindow'
p410
sg15
(lp411
sg17
(lp412
sg19
(lp413
sg21
I0
sba(iArchitecture
Entity
p414
(dp415
g11
(lp416
sg13
S'com.android.server.display.OverlayDisplayWindow$1'
p417
sg15
(lp418
sg17
(lp419
sg19
(lp420
sg21
I0
sba(iArchitecture
Entity
p421
(dp422
g11
(lp423
sg13
S'com.android.server.display.OverlayDisplayWindow$2'
p424
sg15
(lp425
sg17
(lp426
sg19
(lp427
sg21
I0
sba(iArchitecture
Entity
p428
(dp429
g11
(lp430
sg13
S'com.android.server.display.OverlayDisplayWindow$3'
p431
sg15
(lp432
sg17
(lp433
sg19
(lp434
sg21
I0
sba(iArchitecture
Entity
p435
(dp436
g11
(lp437
sg13
S'com.android.server.display.OverlayDisplayWindow$4'
p438
sg15
(lp439
sg17
(lp440
sg19
(lp441
sg21
I0
sba(iArchitecture
Entity
p442
(dp443
g11
(lp444
sg13
S'com.android.server.display.OverlayDisplayWindow$5'
p445
sg15
(lp446
sg17
(lp447
sg19
(lp448
sg21
I0
sba(iArchitecture
Entity
p449
(dp450
g11
(lp451
sg13
S'com.android.server.display.OverlayDisplayWindow$Listener'
p452
sg15
(lp453
sg17
(lp454
sg19
(lp455
sg21
I0
sba(iArchitecture
Entity
p456
(dp457
g11
(lp458
sg13
S'com.android.server.display.PersistentDataStore'
p459
sg15
(lp460
sg17
(lp461
sg19
(lp462
sg21
I0
sba(iArchitecture
Entity
p463
(dp464
g11
(lp465
sg13
S'com.android.server.display.RampAnimator'
p466
sg15
(lp467
sg17
(lp468
sg19
(lp469
sg21
I0
sba(iArchitecture
Entity
p470
(dp471
g11
(lp472
sg13
S'com.android.server.display.RampAnimator$1'
p473
sg15
(lp474
sg17
(lp475
sg19
(lp476
sg21
I0
sba(iArchitecture
Entity
p477
(dp478
g11
(lp479
sg13
S'com.android.server.display.RampAnimator$Listener'
p480
sg15
(lp481
sg17
(lp482
sg19
(lp483
sg21
I0
sba(iArchitecture
Entity
p484
(dp485
g11
(lp486
sg13
S'com.android.server.display.VirtualDisplayAdapter'
p487
sg15
(lp488
sg17
(lp489
sg19
(lp490
sg21
I0
sba(iArchitecture
Entity
p491
(dp492
g11
(lp493
sg13
S'com.android.server.display.VirtualDisplayAdapter$Callback'
p494
sg15
(lp495
sg17
(lp496
sg19
(lp497
sg21
I0
sba(iArchitecture
Entity
p498
(dp499
g11
(lp500
sg13
S'com.android.server.display.VirtualDisplayAdapter$MediaProjectionCallback'
p501
sg15
(lp502
sg17
(lp503
sg19
(lp504
sg21
I0
sba(iArchitecture
Entity
p505
(dp506
g11
(lp507
sg13
S'com.android.server.display.VirtualDisplayAdapter$VirtualDisplayDevice'
p508
sg15
(lp509
sg17
(lp510
sg19
(lp511
sg21
I0
sba(iArchitecture
Entity
p512
(dp513
g11
(lp514
sg13
S'com.android.server.display.WifiDisplayAdapter'
p515
sg15
(lp516
sg17
(lp517
sg19
(lp518
sg21
I0
sba(iArchitecture
Entity
p519
(dp520
g11
(lp521
sg13
S'com.android.server.display.WifiDisplayAdapter$1'
p522
sg15
(lp523
sg17
(lp524
sg19
(lp525
sg21
I0
sba(iArchitecture
Entity
p526
(dp527
g11
(lp528
sg13
S'com.android.server.display.WifiDisplayAdapter$2'
p529
sg15
(lp530
sg17
(lp531
sg19
(lp532
sg21
I0
sba(iArchitecture
Entity
p533
(dp534
g11
(lp535
sg13
S'com.android.server.display.WifiDisplayAdapter$3'
p536
sg15
(lp537
sg17
(lp538
sg19
(lp539
sg21
I0
sba(iArchitecture
Entity
p540
(dp541
g11
(lp542
sg13
S'com.android.server.display.WifiDisplayAdapter$4'
p543
sg15
(lp544
sg17
(lp545
sg19
(lp546
sg21
I0
sba(iArchitecture
Entity
p547
(dp548
g11
(lp549
sg13
S'com.android.server.display.WifiDisplayAdapter$5'
p550
sg15
(lp551
sg17
(lp552
sg19
(lp553
sg21
I0
sba(iArchitecture
Entity
p554
(dp555
g11
(lp556
sg13
S'com.android.server.display.WifiDisplayAdapter$6'
p557
sg15
(lp558
sg17
(lp559
sg19
(lp560
sg21
I0
sba(iArchitecture
Entity
p561
(dp562
g11
(lp563
sg13
S'com.android.server.display.WifiDisplayAdapter$7'
p564
sg15
(lp565
sg17
(lp566
sg19
(lp567
sg21
I0
sba(iArchitecture
Entity
p568
(dp569
g11
(lp570
sg13
S'com.android.server.display.WifiDisplayAdapter$8'
p571
sg15
(lp572
sg17
(lp573
sg19
(lp574
sg21
I0
sba(iArchitecture
Entity
p575
(dp576
g11
(lp577
sg13
S'com.android.server.display.WifiDisplayAdapter$9'
p578
sg15
(lp579
sg17
(lp580
sg19
(lp581
sg21
I0
sba(iArchitecture
Entity
p582
(dp583
g11
(lp584
sg13
S'com.android.server.display.WifiDisplayAdapter$WifiDisplayDevice'
p585
sg15
(lp586
sg17
(lp587
sg19
(lp588
sg21
I0
sba(iArchitecture
Entity
p589
(dp590
g11
(lp591
sg13
S'com.android.server.display.WifiDisplayAdapter$WifiDisplayHandler'
p592
sg15
(lp593
sg17
(lp594
sg19
(lp595
sg21
I0
sba(iArchitecture
Entity
p596
(dp597
g11
(lp598
sg13
S'com.android.server.display.WifiDisplayController'
p599
sg15
(lp600
sg17
(lp601
sg19
(lp602
sg21
I0
sba(iArchitecture
Entity
p603
(dp604
g11
(lp605
sg13
S'com.android.server.display.WifiDisplayController$1'
p606
sg15
(lp607
sg17
(lp608
sg19
(lp609
sg21
I0
sba(iArchitecture
Entity
p610
(dp611
g11
(lp612
sg13
S'com.android.server.display.WifiDisplayController$10'
p613
sg15
(lp614
sg17
(lp615
sg19
(lp616
sg21
I0
sba(iArchitecture
Entity
p617
(dp618
g11
(lp619
sg13
S'com.android.server.display.WifiDisplayController$11'
p620
sg15
(lp621
sg17
(lp622
sg19
(lp623
sg21
I0
sba(iArchitecture
Entity
p624
(dp625
g11
(lp626
sg13
S'com.android.server.display.WifiDisplayController$12'
p627
sg15
(lp628
sg17
(lp629
sg19
(lp630
sg21
I0
sba(iArchitecture
Entity
p631
(dp632
g11
(lp633
sg13
S'com.android.server.display.WifiDisplayController$13'
p634
sg15
(lp635
sg17
(lp636
sg19
(lp637
sg21
I0
sba(iArchitecture
Entity
p638
(dp639
g11
(lp640
sg13
S'com.android.server.display.WifiDisplayController$14'
p641
sg15
(lp642
sg17
(lp643
sg19
(lp644
sg21
I0
sba(iArchitecture
Entity
p645
(dp646
g11
(lp647
sg13
S'com.android.server.display.WifiDisplayController$15'
p648
sg15
(lp649
sg17
(lp650
sg19
(lp651
sg21
I0
sba(iArchitecture
Entity
p652
(dp653
g11
(lp654
sg13
S'com.android.server.display.WifiDisplayController$16'
p655
sg15
(lp656
sg17
(lp657
sg19
(lp658
sg21
I0
sba(iArchitecture
Entity
p659
(dp660
g11
(lp661
sg13
S'com.android.server.display.WifiDisplayController$17'
p662
sg15
(lp663
sg17
(lp664
sg19
(lp665
sg21
I0
sba(iArchitecture
Entity
p666
(dp667
g11
(lp668
sg13
S'com.android.server.display.WifiDisplayController$18'
p669
sg15
(lp670
sg17
(lp671
sg19
(lp672
sg21
I0
sba(iArchitecture
Entity
p673
(dp674
g11
(lp675
sg13
S'com.android.server.display.WifiDisplayController$19'
p676
sg15
(lp677
sg17
(lp678
sg19
(lp679
sg21
I0
sba(iArchitecture
Entity
p680
(dp681
g11
(lp682
sg13
S'com.android.server.display.WifiDisplayController$2'
p683
sg15
(lp684
sg17
(lp685
sg19
(lp686
sg21
I0
sba(iArchitecture
Entity
p687
(dp688
g11
(lp689
sg13
S'com.android.server.display.WifiDisplayController$20'
p690
sg15
(lp691
sg17
(lp692
sg19
(lp693
sg21
I0
sba(iArchitecture
Entity
p694
(dp695
g11
(lp696
sg13
S'com.android.server.display.WifiDisplayController$21'
p697
sg15
(lp698
sg17
(lp699
sg19
(lp700
sg21
I0
sba(iArchitecture
Entity
p701
(dp702
g11
(lp703
sg13
S'com.android.server.display.WifiDisplayController$3'
p704
sg15
(lp705
sg17
(lp706
sg19
(lp707
sg21
I0
sba(iArchitecture
Entity
p708
(dp709
g11
(lp710
sg13
S'com.android.server.display.WifiDisplayController$4'
p711
sg15
(lp712
sg17
(lp713
sg19
(lp714
sg21
I0
sba(iArchitecture
Entity
p715
(dp716
g11
(lp717
sg13
S'com.android.server.display.WifiDisplayController$5'
p718
sg15
(lp719
sg17
(lp720
sg19
(lp721
sg21
I0
sba(iArchitecture
Entity
p722
(dp723
g11
(lp724
sg13
S'com.android.server.display.WifiDisplayController$6'
p725
sg15
(lp726
sg17
(lp727
sg19
(lp728
sg21
I0
sba(iArchitecture
Entity
p729
(dp730
g11
(lp731
sg13
S'com.android.server.display.WifiDisplayController$7'
p732
sg15
(lp733
sg17
(lp734
sg19
(lp735
sg21
I0
sba(iArchitecture
Entity
p736
(dp737
g11
(lp738
sg13
S'com.android.server.display.WifiDisplayController$8'
p739
sg15
(lp740
sg17
(lp741
sg19
(lp742
sg21
I0
sba(iArchitecture
Entity
p743
(dp744
g11
(lp745
sg13
S'com.android.server.display.WifiDisplayController$9'
p746
sg15
(lp747
sg17
(lp748
sg19
(lp749
sg21
I0
sba(iArchitecture
Entity
p750
(dp751
g11
(lp752
sg13
S'com.android.server.display.WifiDisplayController$Listener'
p753
sg15
(lp754
sg17
(lp755
sg19
(lp756
sg21
I0
sbasS'classes'
p757
(lp758
g14
ag25
ag32
ag39
ag46
ag53
ag60
ag67
ag74
ag81
ag88
ag95
ag102
ag109
ag116
ag123
ag130
ag137
ag144
ag151
ag158
ag165
ag172
ag179
ag186
ag193
ag200
ag207
ag214
ag221
ag228
ag235
ag242
ag249
ag256
ag263
ag270
ag277
ag284
ag291
ag298
ag305
ag312
ag319
ag326
ag333
ag340
ag347
ag354
ag361
ag368
ag375
ag382
ag389
ag396
ag403
ag410
ag417
ag424
ag431
ag438
ag445
ag452
ag459
ag466
ag473
ag480
ag487
ag494
ag501
ag508
ag515
ag522
ag529
ag536
ag543
ag550
ag557
ag564
ag571
ag578
ag585
ag592
ag599
ag606
ag613
ag620
ag627
ag634
ag641
ag648
ag655
ag662
ag669
ag676
ag683
ag690
ag697
ag704
ag711
ag718
ag725
ag732
ag739
ag746
ag753
asg21
I0
sS'label'
p759
S'com.android.server.display.ss'
p760
sbasS'target_sub'
p761
S'com.android.server.display'
p762
sg757
(lp763
sS'is_component_arch'
p764
I00
sg759
S'6.0.0_r1'
p765
sba(iArchitecture
Architecture
p766
(dp767
g3
(lp768
(iArchitecture
Cluster
p769
(dp770
g7
(lp771
(iArchitecture
Entity
p772
(dp773
g11
(lp774
sg13
S'com.android.server.display.AutomaticBrightnessController'
p775
sg15
(lp776
sg17
(lp777
sg19
(lp778
sg21
I0
sba(iArchitecture
Entity
p779
(dp780
g11
(lp781
sg13
S'com.android.server.display.AutomaticBrightnessController$1'
p782
sg15
(lp783
sg17
(lp784
sg19
(lp785
sg21
I0
sba(iArchitecture
Entity
p786
(dp787
g11
(lp788
sg13
S'com.android.server.display.AutomaticBrightnessController$2'
p789
sg15
(lp790
sg17
(lp791
sg19
(lp792
sg21
I0
sba(iArchitecture
Entity
p793
(dp794
g11
(lp795
sg13
S'com.android.server.display.AutomaticBrightnessController$AmbientLightRingBuffer'
p796
sg15
(lp797
sg17
(lp798
sg19
(lp799
sg21
I0
sba(iArchitecture
Entity
p800
(dp801
g11
(lp802
sg13
S'com.android.server.display.AutomaticBrightnessController$AutomaticBrightnessHandler'
p803
sg15
(lp804
sg17
(lp805
sg19
(lp806
sg21
I0
sba(iArchitecture
Entity
p807
(dp808
g11
(lp809
sg13
S'com.android.server.display.AutomaticBrightnessController$Callbacks'
p810
sg15
(lp811
sg17
(lp812
sg19
(lp813
sg21
I0
sba(iArchitecture
Entity
p814
(dp815
g11
(lp816
sg13
S'com.android.server.display.ColorFade'
p817
sg15
(lp818
sg17
(lp819
sg19
(lp820
sg21
I0
sba(iArchitecture
Entity
p821
(dp822
g11
(lp823
sg13
S'com.android.server.display.ColorFade$NaturalSurfaceLayout'
p824
sg15
(lp825
sg17
(lp826
sg19
(lp827
sg21
I0
sba(iArchitecture
Entity
p828
(dp829
g11
(lp830
sg13
S'com.android.server.display.DisplayAdapter'
p831
sg15
(lp832
sg17
(lp833
sg19
(lp834
sg21
I0
sba(iArchitecture
Entity
p835
(dp836
g11
(lp837
sg13
S'com.android.server.display.DisplayAdapter$1'
p838
sg15
(lp839
sg17
(lp840
sg19
(lp841
sg21
I0
sba(iArchitecture
Entity
p842
(dp843
g11
(lp844
sg13
S'com.android.server.display.DisplayAdapter$2'
p845
sg15
(lp846
sg17
(lp847
sg19
(lp848
sg21
I0
sba(iArchitecture
Entity
p849
(dp850
g11
(lp851
sg13
S'com.android.server.display.DisplayAdapter$Listener'
p852
sg15
(lp853
sg17
(lp854
sg19
(lp855
sg21
I0
sba(iArchitecture
Entity
p856
(dp857
g11
(lp858
sg13
S'com.android.server.display.DisplayBlanker'
p859
sg15
(lp860
sg17
(lp861
sg19
(lp862
sg21
I0
sba(iArchitecture
Entity
p863
(dp864
g11
(lp865
sg13
S'com.android.server.display.DisplayDevice'
p866
sg15
(lp867
sg17
(lp868
sg19
(lp869
sg21
I0
sba(iArchitecture
Entity
p870
(dp871
g11
(lp872
sg13
S'com.android.server.display.DisplayDeviceInfo'
p873
sg15
(lp874
sg17
(lp875
sg19
(lp876
sg21
I0
sba(iArchitecture
Entity
p877
(dp878
g11
(lp879
sg13
S'com.android.server.display.DisplayManagerService'
p880
sg15
(lp881
sg17
(lp882
sg19
(lp883
sg21
I0
sba(iArchitecture
Entity
p884
(dp885
g11
(lp886
sg13
S'com.android.server.display.DisplayManagerService$BinderService'
p887
sg15
(lp888
sg17
(lp889
sg19
(lp890
sg21
I0
sba(iArchitecture
Entity
p891
(dp892
g11
(lp893
sg13
S'com.android.server.display.DisplayManagerService$CallbackRecord'
p894
sg15
(lp895
sg17
(lp896
sg19
(lp897
sg21
I0
sba(iArchitecture
Entity
p898
(dp899
g11
(lp900
sg13
S'com.android.server.display.DisplayManagerService$DisplayAdapterListener'
p901
sg15
(lp902
sg17
(lp903
sg19
(lp904
sg21
I0
sba(iArchitecture
Entity
p905
(dp906
g11
(lp907
sg13
S'com.android.server.display.DisplayManagerService$DisplayManagerHandler'
p908
sg15
(lp909
sg17
(lp910
sg19
(lp911
sg21
I0
sba(iArchitecture
Entity
p912
(dp913
g11
(lp914
sg13
S'com.android.server.display.DisplayManagerService$LocalService'
p915
sg15
(lp916
sg17
(lp917
sg19
(lp918
sg21
I0
sba(iArchitecture
Entity
p919
(dp920
g11
(lp921
sg13
S'com.android.server.display.DisplayManagerService$LocalService$1'
p922
sg15
(lp923
sg17
(lp924
sg19
(lp925
sg21
I0
sba(iArchitecture
Entity
p926
(dp927
g11
(lp928
sg13
S'com.android.server.display.DisplayManagerService$SyncRoot'
p929
sg15
(lp930
sg17
(lp931
sg19
(lp932
sg21
I0
sba(iArchitecture
Entity
p933
(dp934
g11
(lp935
sg13
S'com.android.server.display.DisplayPowerController'
p936
sg15
(lp937
sg17
(lp938
sg19
(lp939
sg21
I0
sba(iArchitecture
Entity
p940
(dp941
g11
(lp942
sg13
S'com.android.server.display.DisplayPowerController$1'
p943
sg15
(lp944
sg17
(lp945
sg19
(lp946
sg21
I0
sba(iArchitecture
Entity
p947
(dp948
g11
(lp949
sg13
S'com.android.server.display.DisplayPowerController$2'
p950
sg15
(lp951
sg17
(lp952
sg19
(lp953
sg21
I0
sba(iArchitecture
Entity
p954
(dp955
g11
(lp956
sg13
S'com.android.server.display.DisplayPowerController$3'
p957
sg15
(lp958
sg17
(lp959
sg19
(lp960
sg21
I0
sba(iArchitecture
Entity
p961
(dp962
g11
(lp963
sg13
S'com.android.server.display.DisplayPowerController$4'
p964
sg15
(lp965
sg17
(lp966
sg19
(lp967
sg21
I0
sba(iArchitecture
Entity
p968
(dp969
g11
(lp970
sg13
S'com.android.server.display.DisplayPowerController$5'
p971
sg15
(lp972
sg17
(lp973
sg19
(lp974
sg21
I0
sba(iArchitecture
Entity
p975
(dp976
g11
(lp977
sg13
S'com.android.server.display.DisplayPowerController$6'
p978
sg15
(lp979
sg17
(lp980
sg19
(lp981
sg21
I0
sba(iArchitecture
Entity
p982
(dp983
g11
(lp984
sg13
S'com.android.server.display.DisplayPowerController$7'
p985
sg15
(lp986
sg17
(lp987
sg19
(lp988
sg21
I0
sba(iArchitecture
Entity
p989
(dp990
g11
(lp991
sg13
S'com.android.server.display.DisplayPowerController$8'
p992
sg15
(lp993
sg17
(lp994
sg19
(lp995
sg21
I0
sba(iArchitecture
Entity
p996
(dp997
g11
(lp998
sg13
S'com.android.server.display.DisplayPowerController$DisplayControllerHandler'
p999
sg15
(lp1000
sg17
(lp1001
sg19
(lp1002
sg21
I0
sba(iArchitecture
Entity
p1003
(dp1004
g11
(lp1005
sg13
S'com.android.server.display.DisplayPowerController$ScreenOnUnblocker'
p1006
sg15
(lp1007
sg17
(lp1008
sg19
(lp1009
sg21
I0
sba(iArchitecture
Entity
p1010
(dp1011
g11
(lp1012
sg13
S'com.android.server.display.DisplayPowerState'
p1013
sg15
(lp1014
sg17
(lp1015
sg19
(lp1016
sg21
I0
sba(iArchitecture
Entity
p1017
(dp1018
g11
(lp1019
sg13
S'com.android.server.display.DisplayPowerState$1'
p1020
sg15
(lp1021
sg17
(lp1022
sg19
(lp1023
sg21
I0
sba(iArchitecture
Entity
p1024
(dp1025
g11
(lp1026
sg13
S'com.android.server.display.DisplayPowerState$2'
p1027
sg15
(lp1028
sg17
(lp1029
sg19
(lp1030
sg21
I0
sba(iArchitecture
Entity
p1031
(dp1032
g11
(lp1033
sg13
S'com.android.server.display.DisplayPowerState$3'
p1034
sg15
(lp1035
sg17
(lp1036
sg19
(lp1037
sg21
I0
sba(iArchitecture
Entity
p1038
(dp1039
g11
(lp1040
sg13
S'com.android.server.display.DisplayPowerState$4'
p1041
sg15
(lp1042
sg17
(lp1043
sg19
(lp1044
sg21
I0
sba(iArchitecture
Entity
p1045
(dp1046
g11
(lp1047
sg13
S'com.android.server.display.DisplayPowerState$PhotonicModulator'
p1048
sg15
(lp1049
sg17
(lp1050
sg19
(lp1051
sg21
I0
sba(iArchitecture
Entity
p1052
(dp1053
g11
(lp1054
sg13
S'com.android.server.display.LocalDisplayAdapter'
p1055
sg15
(lp1056
sg17
(lp1057
sg19
(lp1058
sg21
I0
sba(iArchitecture
Entity
p1059
(dp1060
g11
(lp1061
sg13
S'com.android.server.display.LocalDisplayAdapter$DisplayModeRecord'
p1062
sg15
(lp1063
sg17
(lp1064
sg19
(lp1065
sg21
I0
sba(iArchitecture
Entity
p1066
(dp1067
g11
(lp1068
sg13
S'com.android.server.display.LocalDisplayAdapter$HotplugDisplayEventReceiver'
p1069
sg15
(lp1070
sg17
(lp1071
sg19
(lp1072
sg21
I0
sba(iArchitecture
Entity
p1073
(dp1074
g11
(lp1075
sg13
S'com.android.server.display.LocalDisplayAdapter$LocalDisplayDevice'
p1076
sg15
(lp1077
sg17
(lp1078
sg19
(lp1079
sg21
I0
sba(iArchitecture
Entity
p1080
(dp1081
g11
(lp1082
sg13
S'com.android.server.display.LocalDisplayAdapter$LocalDisplayDevice$1'
p1083
sg15
(lp1084
sg17
(lp1085
sg19
(lp1086
sg21
I0
sba(iArchitecture
Entity
p1087
(dp1088
g11
(lp1089
sg13
S'com.android.server.display.LogicalDisplay'
p1090
sg15
(lp1091
sg17
(lp1092
sg19
(lp1093
sg21
I0
sba(iArchitecture
Entity
p1094
(dp1095
g11
(lp1096
sg13
S'com.android.server.display.OverlayDisplayAdapter'
p1097
sg15
(lp1098
sg17
(lp1099
sg19
(lp1100
sg21
I0
sba(iArchitecture
Entity
p1101
(dp1102
g11
(lp1103
sg13
S'com.android.server.display.OverlayDisplayAdapter$1'
p1104
sg15
(lp1105
sg17
(lp1106
sg19
(lp1107
sg21
I0
sba(iArchitecture
Entity
p1108
(dp1109
g11
(lp1110
sg13
S'com.android.server.display.OverlayDisplayAdapter$1$1'
p1111
sg15
(lp1112
sg17
(lp1113
sg19
(lp1114
sg21
I0
sba(iArchitecture
Entity
p1115
(dp1116
g11
(lp1117
sg13
S'com.android.server.display.OverlayDisplayAdapter$OverlayDisplayDevice'
p1118
sg15
(lp1119
sg17
(lp1120
sg19
(lp1121
sg21
I0
sba(iArchitecture
Entity
p1122
(dp1123
g11
(lp1124
sg13
S'com.android.server.display.OverlayDisplayAdapter$OverlayDisplayHandle'
p1125
sg15
(lp1126
sg17
(lp1127
sg19
(lp1128
sg21
I0
sba(iArchitecture
Entity
p1129
(dp1130
g11
(lp1131
sg13
S'com.android.server.display.OverlayDisplayAdapter$OverlayDisplayHandle$1'
p1132
sg15
(lp1133
sg17
(lp1134
sg19
(lp1135
sg21
I0
sba(iArchitecture
Entity
p1136
(dp1137
g11
(lp1138
sg13
S'com.android.server.display.OverlayDisplayAdapter$OverlayDisplayHandle$2'
p1139
sg15
(lp1140
sg17
(lp1141
sg19
(lp1142
sg21
I0
sba(iArchitecture
Entity
p1143
(dp1144
g11
(lp1145
sg13
S'com.android.server.display.OverlayDisplayAdapter$OverlayDisplayHandle$3'
p1146
sg15
(lp1147
sg17
(lp1148
sg19
(lp1149
sg21
I0
sba(iArchitecture
Entity
p1150
(dp1151
g11
(lp1152
sg13
S'com.android.server.display.OverlayDisplayAdapter$OverlayDisplayHandle$4'
p1153
sg15
(lp1154
sg17
(lp1155
sg19
(lp1156
sg21
I0
sba(iArchitecture
Entity
p1157
(dp1158
g11
(lp1159
sg13
S'com.android.server.display.OverlayDisplayAdapter$OverlayMode'
p1160
sg15
(lp1161
sg17
(lp1162
sg19
(lp1163
sg21
I0
sba(iArchitecture
Entity
p1164
(dp1165
g11
(lp1166
sg13
S'com.android.server.display.OverlayDisplayWindow'
p1167
sg15
(lp1168
sg17
(lp1169
sg19
(lp1170
sg21
I0
sba(iArchitecture
Entity
p1171
(dp1172
g11
(lp1173
sg13
S'com.android.server.display.OverlayDisplayWindow$1'
p1174
sg15
(lp1175
sg17
(lp1176
sg19
(lp1177
sg21
I0
sba(iArchitecture
Entity
p1178
(dp1179
g11
(lp1180
sg13
S'com.android.server.display.OverlayDisplayWindow$2'
p1181
sg15
(lp1182
sg17
(lp1183
sg19
(lp1184
sg21
I0
sba(iArchitecture
Entity
p1185
(dp1186
g11
(lp1187
sg13
S'com.android.server.display.OverlayDisplayWindow$3'
p1188
sg15
(lp1189
sg17
(lp1190
sg19
(lp1191
sg21
I0
sba(iArchitecture
Entity
p1192
(dp1193
g11
(lp1194
sg13
S'com.android.server.display.OverlayDisplayWindow$4'
p1195
sg15
(lp1196
sg17
(lp1197
sg19
(lp1198
sg21
I0
sba(iArchitecture
Entity
p1199
(dp1200
g11
(lp1201
sg13
S'com.android.server.display.OverlayDisplayWindow$5'
p1202
sg15
(lp1203
sg17
(lp1204
sg19
(lp1205
sg21
I0
sba(iArchitecture
Entity
p1206
(dp1207
g11
(lp1208
sg13
S'com.android.server.display.OverlayDisplayWindow$Listener'
p1209
sg15
(lp1210
sg17
(lp1211
sg19
(lp1212
sg21
I0
sba(iArchitecture
Entity
p1213
(dp1214
g11
(lp1215
sg13
S'com.android.server.display.PersistentDataStore'
p1216
sg15
(lp1217
sg17
(lp1218
sg19
(lp1219
sg21
I0
sba(iArchitecture
Entity
p1220
(dp1221
g11
(lp1222
sg13
S'com.android.server.display.RampAnimator'
p1223
sg15
(lp1224
sg17
(lp1225
sg19
(lp1226
sg21
I0
sba(iArchitecture
Entity
p1227
(dp1228
g11
(lp1229
sg13
S'com.android.server.display.RampAnimator$1'
p1230
sg15
(lp1231
sg17
(lp1232
sg19
(lp1233
sg21
I0
sba(iArchitecture
Entity
p1234
(dp1235
g11
(lp1236
sg13
S'com.android.server.display.RampAnimator$Listener'
p1237
sg15
(lp1238
sg17
(lp1239
sg19
(lp1240
sg21
I0
sba(iArchitecture
Entity
p1241
(dp1242
g11
(lp1243
sg13
S'com.android.server.display.VirtualDisplayAdapter'
p1244
sg15
(lp1245
sg17
(lp1246
sg19
(lp1247
sg21
I0
sba(iArchitecture
Entity
p1248
(dp1249
g11
(lp1250
sg13
S'com.android.server.display.VirtualDisplayAdapter$Callback'
p1251
sg15
(lp1252
sg17
(lp1253
sg19
(lp1254
sg21
I0
sba(iArchitecture
Entity
p1255
(dp1256
g11
(lp1257
sg13
S'com.android.server.display.VirtualDisplayAdapter$MediaProjectionCallback'
p1258
sg15
(lp1259
sg17
(lp1260
sg19
(lp1261
sg21
I0
sba(iArchitecture
Entity
p1262
(dp1263
g11
(lp1264
sg13
S'com.android.server.display.VirtualDisplayAdapter$VirtualDisplayDevice'
p1265
sg15
(lp1266
sg17
(lp1267
sg19
(lp1268
sg21
I0
sba(iArchitecture
Entity
p1269
(dp1270
g11
(lp1271
sg13
S'com.android.server.display.WifiDisplayAdapter'
p1272
sg15
(lp1273
sg17
(lp1274
sg19
(lp1275
sg21
I0
sba(iArchitecture
Entity
p1276
(dp1277
g11
(lp1278
sg13
S'com.android.server.display.WifiDisplayAdapter$1'
p1279
sg15
(lp1280
sg17
(lp1281
sg19
(lp1282
sg21
I0
sba(iArchitecture
Entity
p1283
(dp1284
g11
(lp1285
sg13
S'com.android.server.display.WifiDisplayAdapter$2'
p1286
sg15
(lp1287
sg17
(lp1288
sg19
(lp1289
sg21
I0
sba(iArchitecture
Entity
p1290
(dp1291
g11
(lp1292
sg13
S'com.android.server.display.WifiDisplayAdapter$3'
p1293
sg15
(lp1294
sg17
(lp1295
sg19
(lp1296
sg21
I0
sba(iArchitecture
Entity
p1297
(dp1298
g11
(lp1299
sg13
S'com.android.server.display.WifiDisplayAdapter$4'
p1300
sg15
(lp1301
sg17
(lp1302
sg19
(lp1303
sg21
I0
sba(iArchitecture
Entity
p1304
(dp1305
g11
(lp1306
sg13
S'com.android.server.display.WifiDisplayAdapter$5'
p1307
sg15
(lp1308
sg17
(lp1309
sg19
(lp1310
sg21
I0
sba(iArchitecture
Entity
p1311
(dp1312
g11
(lp1313
sg13
S'com.android.server.display.WifiDisplayAdapter$6'
p1314
sg15
(lp1315
sg17
(lp1316
sg19
(lp1317
sg21
I0
sba(iArchitecture
Entity
p1318
(dp1319
g11
(lp1320
sg13
S'com.android.server.display.WifiDisplayAdapter$7'
p1321
sg15
(lp1322
sg17
(lp1323
sg19
(lp1324
sg21
I0
sba(iArchitecture
Entity
p1325
(dp1326
g11
(lp1327
sg13
S'com.android.server.display.WifiDisplayAdapter$8'
p1328
sg15
(lp1329
sg17
(lp1330
sg19
(lp1331
sg21
I0
sba(iArchitecture
Entity
p1332
(dp1333
g11
(lp1334
sg13
S'com.android.server.display.WifiDisplayAdapter$9'
p1335
sg15
(lp1336
sg17
(lp1337
sg19
(lp1338
sg21
I0
sba(iArchitecture
Entity
p1339
(dp1340
g11
(lp1341
sg13
S'com.android.server.display.WifiDisplayAdapter$WifiDisplayDevice'
p1342
sg15
(lp1343
sg17
(lp1344
sg19
(lp1345
sg21
I0
sba(iArchitecture
Entity
p1346
(dp1347
g11
(lp1348
sg13
S'com.android.server.display.WifiDisplayAdapter$WifiDisplayHandler'
p1349
sg15
(lp1350
sg17
(lp1351
sg19
(lp1352
sg21
I0
sba(iArchitecture
Entity
p1353
(dp1354
g11
(lp1355
sg13
S'com.android.server.display.WifiDisplayController'
p1356
sg15
(lp1357
sg17
(lp1358
sg19
(lp1359
sg21
I0
sba(iArchitecture
Entity
p1360
(dp1361
g11
(lp1362
sg13
S'com.android.server.display.WifiDisplayController$1'
p1363
sg15
(lp1364
sg17
(lp1365
sg19
(lp1366
sg21
I0
sba(iArchitecture
Entity
p1367
(dp1368
g11
(lp1369
sg13
S'com.android.server.display.WifiDisplayController$10'
p1370
sg15
(lp1371
sg17
(lp1372
sg19
(lp1373
sg21
I0
sba(iArchitecture
Entity
p1374
(dp1375
g11
(lp1376
sg13
S'com.android.server.display.WifiDisplayController$11'
p1377
sg15
(lp1378
sg17
(lp1379
sg19
(lp1380
sg21
I0
sba(iArchitecture
Entity
p1381
(dp1382
g11
(lp1383
sg13
S'com.android.server.display.WifiDisplayController$12'
p1384
sg15
(lp1385
sg17
(lp1386
sg19
(lp1387
sg21
I0
sba(iArchitecture
Entity
p1388
(dp1389
g11
(lp1390
sg13
S'com.android.server.display.WifiDisplayController$13'
p1391
sg15
(lp1392
sg17
(lp1393
sg19
(lp1394
sg21
I0
sba(iArchitecture
Entity
p1395
(dp1396
g11
(lp1397
sg13
S'com.android.server.display.WifiDisplayController$14'
p1398
sg15
(lp1399
sg17
(lp1400
sg19
(lp1401
sg21
I0
sba(iArchitecture
Entity
p1402
(dp1403
g11
(lp1404
sg13
S'com.android.server.display.WifiDisplayController$15'
p1405
sg15
(lp1406
sg17
(lp1407
sg19
(lp1408
sg21
I0
sba(iArchitecture
Entity
p1409
(dp1410
g11
(lp1411
sg13
S'com.android.server.display.WifiDisplayController$16'
p1412
sg15
(lp1413
sg17
(lp1414
sg19
(lp1415
sg21
I0
sba(iArchitecture
Entity
p1416
(dp1417
g11
(lp1418
sg13
S'com.android.server.display.WifiDisplayController$17'
p1419
sg15
(lp1420
sg17
(lp1421
sg19
(lp1422
sg21
I0
sba(iArchitecture
Entity
p1423
(dp1424
g11
(lp1425
sg13
S'com.android.server.display.WifiDisplayController$18'
p1426
sg15
(lp1427
sg17
(lp1428
sg19
(lp1429
sg21
I0
sba(iArchitecture
Entity
p1430
(dp1431
g11
(lp1432
sg13
S'com.android.server.display.WifiDisplayController$19'
p1433
sg15
(lp1434
sg17
(lp1435
sg19
(lp1436
sg21
I0
sba(iArchitecture
Entity
p1437
(dp1438
g11
(lp1439
sg13
S'com.android.server.display.WifiDisplayController$2'
p1440
sg15
(lp1441
sg17
(lp1442
sg19
(lp1443
sg21
I0
sba(iArchitecture
Entity
p1444
(dp1445
g11
(lp1446
sg13
S'com.android.server.display.WifiDisplayController$20'
p1447
sg15
(lp1448
sg17
(lp1449
sg19
(lp1450
sg21
I0
sba(iArchitecture
Entity
p1451
(dp1452
g11
(lp1453
sg13
S'com.android.server.display.WifiDisplayController$21'
p1454
sg15
(lp1455
sg17
(lp1456
sg19
(lp1457
sg21
I0
sba(iArchitecture
Entity
p1458
(dp1459
g11
(lp1460
sg13
S'com.android.server.display.WifiDisplayController$3'
p1461
sg15
(lp1462
sg17
(lp1463
sg19
(lp1464
sg21
I0
sba(iArchitecture
Entity
p1465
(dp1466
g11
(lp1467
sg13
S'com.android.server.display.WifiDisplayController$4'
p1468
sg15
(lp1469
sg17
(lp1470
sg19
(lp1471
sg21
I0
sba(iArchitecture
Entity
p1472
(dp1473
g11
(lp1474
sg13
S'com.android.server.display.WifiDisplayController$5'
p1475
sg15
(lp1476
sg17
(lp1477
sg19
(lp1478
sg21
I0
sba(iArchitecture
Entity
p1479
(dp1480
g11
(lp1481
sg13
S'com.android.server.display.WifiDisplayController$6'
p1482
sg15
(lp1483
sg17
(lp1484
sg19
(lp1485
sg21
I0
sba(iArchitecture
Entity
p1486
(dp1487
g11
(lp1488
sg13
S'com.android.server.display.WifiDisplayController$7'
p1489
sg15
(lp1490
sg17
(lp1491
sg19
(lp1492
sg21
I0
sba(iArchitecture
Entity
p1493
(dp1494
g11
(lp1495
sg13
S'com.android.server.display.WifiDisplayController$8'
p1496
sg15
(lp1497
sg17
(lp1498
sg19
(lp1499
sg21
I0
sba(iArchitecture
Entity
p1500
(dp1501
g11
(lp1502
sg13
S'com.android.server.display.WifiDisplayController$9'
p1503
sg15
(lp1504
sg17
(lp1505
sg19
(lp1506
sg21
I0
sba(iArchitecture
Entity
p1507
(dp1508
g11
(lp1509
sg13
S'com.android.server.display.WifiDisplayController$Listener'
p1510
sg15
(lp1511
sg17
(lp1512
sg19
(lp1513
sg21
I0
sbasg757
(lp1514
g775
ag782
ag789
ag796
ag803
ag810
ag817
ag824
ag831
ag838
ag845
ag852
ag859
ag866
ag873
ag880
ag887
ag894
ag901
ag908
ag915
ag922
ag929
ag936
ag943
ag950
ag957
ag964
ag971
ag978
ag985
ag992
ag999
ag1006
ag1013
ag1020
ag1027
ag1034
ag1041
ag1048
ag1055
ag1062
ag1069
ag1076
ag1083
ag1090
ag1097
ag1104
ag1111
ag1118
ag1125
ag1132
ag1139
ag1146
ag1153
ag1160
ag1167
ag1174
ag1181
ag1188
ag1195
ag1202
ag1209
ag1216
ag1223
ag1230
ag1237
ag1244
ag1251
ag1258
ag1265
ag1272
ag1279
ag1286
ag1293
ag1300
ag1307
ag1314
ag1321
ag1328
ag1335
ag1342
ag1349
ag1356
ag1363
ag1370
ag1377
ag1384
ag1391
ag1398
ag1405
ag1412
ag1419
ag1426
ag1433
ag1440
ag1447
ag1454
ag1461
ag1468
ag1475
ag1482
ag1489
ag1496
ag1503
ag1510
asg21
I0
sg759
S'com.android.server.display.ss'
p1515
sbasg761
g762
sg757
(lp1516
sg764
I00
sg759
S'7.0.0_r1'
p1517
sba.