(lp0
(iArchitecture
Architecture
p1
(dp2
S'clusters'
p3
(lp4
(iArchitecture
Cluster
p5
(dp6
S'entities'
p7
(lp8
(iArchitecture
Entity
p9
(dp10
S'issue_ids'
p11
(lp12
sS'name'
p13
S'android.transition.ArcMotion'
p14
sS'descs'
p15
(lp16
sS'labels'
p17
(lp18
sS'titles'
p19
(lp20
sS'change'
p21
I0
sba(iArchitecture
Entity
p22
(dp23
g11
(lp24
sg13
S'android.transition.AutoTransition'
p25
sg15
(lp26
sg17
(lp27
sg19
(lp28
sg21
I0
sba(iArchitecture
Entity
p29
(dp30
g11
(lp31
sg13
S'android.transition.ChangeBounds'
p32
sg15
(lp33
sg17
(lp34
sg19
(lp35
sg21
I0
sba(iArchitecture
Entity
p36
(dp37
g11
(lp38
sg13
S'android.transition.ChangeBounds$1'
p39
sg15
(lp40
sg17
(lp41
sg19
(lp42
sg21
I0
sba(iArchitecture
Entity
p43
(dp44
g11
(lp45
sg13
S'android.transition.ChangeBounds$10'
p46
sg15
(lp47
sg17
(lp48
sg19
(lp49
sg21
I0
sba(iArchitecture
Entity
p50
(dp51
g11
(lp52
sg13
S'android.transition.ChangeBounds$2'
p53
sg15
(lp54
sg17
(lp55
sg19
(lp56
sg21
I0
sba(iArchitecture
Entity
p57
(dp58
g11
(lp59
sg13
S'android.transition.ChangeBounds$3'
p60
sg15
(lp61
sg17
(lp62
sg19
(lp63
sg21
I0
sba(iArchitecture
Entity
p64
(dp65
g11
(lp66
sg13
S'android.transition.ChangeBounds$4'
p67
sg15
(lp68
sg17
(lp69
sg19
(lp70
sg21
I0
sba(iArchitecture
Entity
p71
(dp72
g11
(lp73
sg13
S'android.transition.ChangeBounds$5'
p74
sg15
(lp75
sg17
(lp76
sg19
(lp77
sg21
I0
sba(iArchitecture
Entity
p78
(dp79
g11
(lp80
sg13
S'android.transition.ChangeBounds$6'
p81
sg15
(lp82
sg17
(lp83
sg19
(lp84
sg21
I0
sba(iArchitecture
Entity
p85
(dp86
g11
(lp87
sg13
S'android.transition.ChangeBounds$7'
p88
sg15
(lp89
sg17
(lp90
sg19
(lp91
sg21
I0
sba(iArchitecture
Entity
p92
(dp93
g11
(lp94
sg13
S'android.transition.ChangeBounds$8'
p95
sg15
(lp96
sg17
(lp97
sg19
(lp98
sg21
I0
sba(iArchitecture
Entity
p99
(dp100
g11
(lp101
sg13
S'android.transition.ChangeBounds$9'
p102
sg15
(lp103
sg17
(lp104
sg19
(lp105
sg21
I0
sba(iArchitecture
Entity
p106
(dp107
g11
(lp108
sg13
S'android.transition.ChangeBounds$ViewBounds'
p109
sg15
(lp110
sg17
(lp111
sg19
(lp112
sg21
I0
sba(iArchitecture
Entity
p113
(dp114
g11
(lp115
sg13
S'android.transition.ChangeClipBounds'
p116
sg15
(lp117
sg17
(lp118
sg19
(lp119
sg21
I0
sba(iArchitecture
Entity
p120
(dp121
g11
(lp122
sg13
S'android.transition.ChangeImageTransform'
p123
sg15
(lp124
sg17
(lp125
sg19
(lp126
sg21
I0
sba(iArchitecture
Entity
p127
(dp128
g11
(lp129
sg13
S'android.transition.ChangeImageTransform$1'
p130
sg15
(lp131
sg17
(lp132
sg19
(lp133
sg21
I0
sba(iArchitecture
Entity
p134
(dp135
g11
(lp136
sg13
S'android.transition.ChangeImageTransform$2'
p137
sg15
(lp138
sg17
(lp139
sg19
(lp140
sg21
I0
sba(iArchitecture
Entity
p141
(dp142
g11
(lp143
sg13
S'android.transition.ChangeScroll'
p144
sg15
(lp145
sg17
(lp146
sg19
(lp147
sg21
I0
sba(iArchitecture
Entity
p148
(dp149
g11
(lp150
sg13
S'android.transition.ChangeText'
p151
sg15
(lp152
sg17
(lp153
sg19
(lp154
sg21
I0
sba(iArchitecture
Entity
p155
(dp156
g11
(lp157
sg13
S'android.transition.ChangeText$1'
p158
sg15
(lp159
sg17
(lp160
sg19
(lp161
sg21
I0
sba(iArchitecture
Entity
p162
(dp163
g11
(lp164
sg13
S'android.transition.ChangeText$2'
p165
sg15
(lp166
sg17
(lp167
sg19
(lp168
sg21
I0
sba(iArchitecture
Entity
p169
(dp170
g11
(lp171
sg13
S'android.transition.ChangeText$3'
p172
sg15
(lp173
sg17
(lp174
sg19
(lp175
sg21
I0
sba(iArchitecture
Entity
p176
(dp177
g11
(lp178
sg13
S'android.transition.ChangeText$4'
p179
sg15
(lp180
sg17
(lp181
sg19
(lp182
sg21
I0
sba(iArchitecture
Entity
p183
(dp184
g11
(lp185
sg13
S'android.transition.ChangeText$5'
p186
sg15
(lp187
sg17
(lp188
sg19
(lp189
sg21
I0
sba(iArchitecture
Entity
p190
(dp191
g11
(lp192
sg13
S'android.transition.ChangeText$6'
p193
sg15
(lp194
sg17
(lp195
sg19
(lp196
sg21
I0
sba(iArchitecture
Entity
p197
(dp198
g11
(lp199
sg13
S'android.transition.ChangeTransform'
p200
sg15
(lp201
sg17
(lp202
sg19
(lp203
sg21
I0
sba(iArchitecture
Entity
p204
(dp205
g11
(lp206
sg13
S'android.transition.ChangeTransform$1'
p207
sg15
(lp208
sg17
(lp209
sg19
(lp210
sg21
I0
sba(iArchitecture
Entity
p211
(dp212
g11
(lp213
sg13
S'android.transition.ChangeTransform$2'
p214
sg15
(lp215
sg17
(lp216
sg19
(lp217
sg21
I0
sba(iArchitecture
Entity
p218
(dp219
g11
(lp220
sg13
S'android.transition.ChangeTransform$3'
p221
sg15
(lp222
sg17
(lp223
sg19
(lp224
sg21
I0
sba(iArchitecture
Entity
p225
(dp226
g11
(lp227
sg13
S'android.transition.ChangeTransform$GhostListener'
p228
sg15
(lp229
sg17
(lp230
sg19
(lp231
sg21
I0
sba(iArchitecture
Entity
p232
(dp233
g11
(lp234
sg13
S'android.transition.ChangeTransform$PathAnimatorMatrix'
p235
sg15
(lp236
sg17
(lp237
sg19
(lp238
sg21
I0
sba(iArchitecture
Entity
p239
(dp240
g11
(lp241
sg13
S'android.transition.ChangeTransform$Transforms'
p242
sg15
(lp243
sg17
(lp244
sg19
(lp245
sg21
I0
sba(iArchitecture
Entity
p246
(dp247
g11
(lp248
sg13
S'android.transition.CircularPropagation'
p249
sg15
(lp250
sg17
(lp251
sg19
(lp252
sg21
I0
sba(iArchitecture
Entity
p253
(dp254
g11
(lp255
sg13
S'android.transition.Crossfade'
p256
sg15
(lp257
sg17
(lp258
sg19
(lp259
sg21
I0
sba(iArchitecture
Entity
p260
(dp261
g11
(lp262
sg13
S'android.transition.Crossfade$1'
p263
sg15
(lp264
sg17
(lp265
sg19
(lp266
sg21
I0
sba(iArchitecture
Entity
p267
(dp268
g11
(lp269
sg13
S'android.transition.Crossfade$2'
p270
sg15
(lp271
sg17
(lp272
sg19
(lp273
sg21
I0
sba(iArchitecture
Entity
p274
(dp275
g11
(lp276
sg13
S'android.transition.Explode'
p277
sg15
(lp278
sg17
(lp279
sg19
(lp280
sg21
I0
sba(iArchitecture
Entity
p281
(dp282
g11
(lp283
sg13
S'android.transition.Fade'
p284
sg15
(lp285
sg17
(lp286
sg19
(lp287
sg21
I0
sba(iArchitecture
Entity
p288
(dp289
g11
(lp290
sg13
S'android.transition.Fade$1'
p291
sg15
(lp292
sg17
(lp293
sg19
(lp294
sg21
I0
sba(iArchitecture
Entity
p295
(dp296
g11
(lp297
sg13
S'android.transition.Fade$FadeAnimatorListener'
p298
sg15
(lp299
sg17
(lp300
sg19
(lp301
sg21
I0
sba(iArchitecture
Entity
p302
(dp303
g11
(lp304
sg13
S'android.transition.PathMotion'
p305
sg15
(lp306
sg17
(lp307
sg19
(lp308
sg21
I0
sba(iArchitecture
Entity
p309
(dp310
g11
(lp311
sg13
S'android.transition.PatternPathMotion'
p312
sg15
(lp313
sg17
(lp314
sg19
(lp315
sg21
I0
sba(iArchitecture
Entity
p316
(dp317
g11
(lp318
sg13
S'android.transition.Recolor'
p319
sg15
(lp320
sg17
(lp321
sg19
(lp322
sg21
I0
sba(iArchitecture
Entity
p323
(dp324
g11
(lp325
sg13
S'android.transition.SidePropagation'
p326
sg15
(lp327
sg17
(lp328
sg19
(lp329
sg21
I0
sba(iArchitecture
Entity
p330
(dp331
g11
(lp332
sg13
S'android.transition.Slide'
p333
sg15
(lp334
sg17
(lp335
sg19
(lp336
sg21
I0
sba(iArchitecture
Entity
p337
(dp338
g11
(lp339
sg13
S'android.transition.Slide$1'
p340
sg15
(lp341
sg17
(lp342
sg19
(lp343
sg21
I0
sba(iArchitecture
Entity
p344
(dp345
g11
(lp346
sg13
S'android.transition.Slide$2'
p347
sg15
(lp348
sg17
(lp349
sg19
(lp350
sg21
I0
sba(iArchitecture
Entity
p351
(dp352
g11
(lp353
sg13
S'android.transition.Slide$3'
p354
sg15
(lp355
sg17
(lp356
sg19
(lp357
sg21
I0
sba(iArchitecture
Entity
p358
(dp359
g11
(lp360
sg13
S'android.transition.Slide$4'
p361
sg15
(lp362
sg17
(lp363
sg19
(lp364
sg21
I0
sba(iArchitecture
Entity
p365
(dp366
g11
(lp367
sg13
S'android.transition.Slide$5'
p368
sg15
(lp369
sg17
(lp370
sg19
(lp371
sg21
I0
sba(iArchitecture
Entity
p372
(dp373
g11
(lp374
sg13
S'android.transition.Slide$6'
p375
sg15
(lp376
sg17
(lp377
sg19
(lp378
sg21
I0
sba(iArchitecture
Entity
p379
(dp380
g11
(lp381
sg13
S'android.transition.Slide$CalculateSlide'
p382
sg15
(lp383
sg17
(lp384
sg19
(lp385
sg21
I0
sba(iArchitecture
Entity
p386
(dp387
g11
(lp388
sg13
S'android.transition.Slide$CalculateSlideHorizontal'
p389
sg15
(lp390
sg17
(lp391
sg19
(lp392
sg21
I0
sba(iArchitecture
Entity
p393
(dp394
g11
(lp395
sg13
S'android.transition.Slide$CalculateSlideVertical'
p396
sg15
(lp397
sg17
(lp398
sg19
(lp399
sg21
I0
sba(iArchitecture
Entity
p400
(dp401
g11
(lp402
sg13
S'android.transition.Transition'
p403
sg15
(lp404
sg17
(lp405
sg19
(lp406
sg21
I0
sba(iArchitecture
Entity
p407
(dp408
g11
(lp409
sg13
S'android.transition.Transition$1'
p410
sg15
(lp411
sg17
(lp412
sg19
(lp413
sg21
I0
sba(iArchitecture
Entity
p414
(dp415
g11
(lp416
sg13
S'android.transition.Transition$2'
p417
sg15
(lp418
sg17
(lp419
sg19
(lp420
sg21
I0
sba(iArchitecture
Entity
p421
(dp422
g11
(lp423
sg13
S'android.transition.Transition$3'
p424
sg15
(lp425
sg17
(lp426
sg19
(lp427
sg21
I0
sba(iArchitecture
Entity
p428
(dp429
g11
(lp430
sg13
S'android.transition.Transition$AnimationInfo'
p431
sg15
(lp432
sg17
(lp433
sg19
(lp434
sg21
I0
sba(iArchitecture
Entity
p435
(dp436
g11
(lp437
sg13
S'android.transition.Transition$ArrayListManager'
p438
sg15
(lp439
sg17
(lp440
sg19
(lp441
sg21
I0
sba(iArchitecture
Entity
p442
(dp443
g11
(lp444
sg13
S'android.transition.TransitionInflater'
p445
sg15
(lp446
sg17
(lp447
sg19
(lp448
sg21
I0
sba(iArchitecture
Entity
p449
(dp450
g11
(lp451
sg13
S'android.transition.TransitionManager'
p452
sg15
(lp453
sg17
(lp454
sg19
(lp455
sg21
I0
sba(iArchitecture
Entity
p456
(dp457
g11
(lp458
sg13
S'android.transition.TransitionManager$MultiListener'
p459
sg15
(lp460
sg17
(lp461
sg19
(lp462
sg21
I0
sba(iArchitecture
Entity
p463
(dp464
g11
(lp465
sg13
S'android.transition.TransitionManager$MultiListener$1'
p466
sg15
(lp467
sg17
(lp468
sg19
(lp469
sg21
I0
sba(iArchitecture
Entity
p470
(dp471
g11
(lp472
sg13
S'android.transition.TransitionPropagation'
p473
sg15
(lp474
sg17
(lp475
sg19
(lp476
sg21
I0
sba(iArchitecture
Entity
p477
(dp478
g11
(lp479
sg13
S'android.transition.TransitionSet'
p480
sg15
(lp481
sg17
(lp482
sg19
(lp483
sg21
I0
sba(iArchitecture
Entity
p484
(dp485
g11
(lp486
sg13
S'android.transition.TransitionSet$1'
p487
sg15
(lp488
sg17
(lp489
sg19
(lp490
sg21
I0
sba(iArchitecture
Entity
p491
(dp492
g11
(lp493
sg13
S'android.transition.TransitionSet$TransitionSetListener'
p494
sg15
(lp495
sg17
(lp496
sg19
(lp497
sg21
I0
sba(iArchitecture
Entity
p498
(dp499
g11
(lp500
sg13
S'android.transition.TransitionUtils'
p501
sg15
(lp502
sg17
(lp503
sg19
(lp504
sg21
I0
sba(iArchitecture
Entity
p505
(dp506
g11
(lp507
sg13
S'android.transition.TransitionUtils$MatrixEvaluator'
p508
sg15
(lp509
sg17
(lp510
sg19
(lp511
sg21
I0
sba(iArchitecture
Entity
p512
(dp513
g11
(lp514
sg13
S'android.transition.TransitionValues'
p515
sg15
(lp516
sg17
(lp517
sg19
(lp518
sg21
I0
sba(iArchitecture
Entity
p519
(dp520
g11
(lp521
sg13
S'android.transition.TransitionValuesMaps'
p522
sg15
(lp523
sg17
(lp524
sg19
(lp525
sg21
I0
sba(iArchitecture
Entity
p526
(dp527
g11
(lp528
sg13
S'android.transition.TranslationAnimationCreator'
p529
sg15
(lp530
sg17
(lp531
sg19
(lp532
sg21
I0
sba(iArchitecture
Entity
p533
(dp534
g11
(lp535
sg13
S'android.transition.TranslationAnimationCreator$TransitionPositionListener'
p536
sg15
(lp537
sg17
(lp538
sg19
(lp539
sg21
I0
sba(iArchitecture
Entity
p540
(dp541
g11
(lp542
sg13
S'android.transition.Visibility'
p543
sg15
(lp544
sg17
(lp545
sg19
(lp546
sg21
I0
sba(iArchitecture
Entity
p547
(dp548
g11
(lp549
sg13
S'android.transition.Visibility$1'
p550
sg15
(lp551
sg17
(lp552
sg19
(lp553
sg21
I0
sba(iArchitecture
Entity
p554
(dp555
g11
(lp556
sg13
S'android.transition.Visibility$DisappearListener'
p557
sg15
(lp558
sg17
(lp559
sg19
(lp560
sg21
I0
sba(iArchitecture
Entity
p561
(dp562
g11
(lp563
sg13
S'android.transition.Visibility$VisibilityInfo'
p564
sg15
(lp565
sg17
(lp566
sg19
(lp567
sg21
I0
sba(iArchitecture
Entity
p568
(dp569
g11
(lp570
sg13
S'android.transition.VisibilityPropagation'
p571
sg15
(lp572
sg17
(lp573
sg19
(lp574
sg21
I0
sbasS'classes'
p575
(lp576
g14
ag25
ag32
ag39
ag46
ag53
ag60
ag67
ag74
ag81
ag88
ag95
ag102
ag109
ag116
ag123
ag130
ag137
ag144
ag151
ag158
ag165
ag172
ag179
ag186
ag193
ag200
ag207
ag214
ag221
ag228
ag235
ag242
ag249
ag256
ag263
ag270
ag277
ag284
ag291
ag298
ag305
ag312
ag319
ag326
ag333
ag340
ag347
ag354
ag361
ag368
ag375
ag382
ag389
ag396
ag403
ag410
ag417
ag424
ag431
ag438
ag445
ag452
ag459
ag466
ag473
ag480
ag487
ag494
ag501
ag508
ag515
ag522
ag529
ag536
ag543
ag550
ag557
ag564
ag571
asg21
I0
sS'label'
p577
S'android.transition.ss'
p578
sba(iArchitecture
Cluster
p579
(dp580
g7
(lp581
(iArchitecture
Entity
p582
(dp583
g11
(lp584
sg13
S'android.transition.Rotate'
p585
sg15
(lp586
sg17
(lp587
sg19
(lp588
sg21
I0
sbasg575
(lp589
g585
asg21
I0
sg577
S'android.view.ss'
p590
sba(iArchitecture
Cluster
p591
(dp592
g7
(lp593
(iArchitecture
Entity
p594
(dp595
g11
(lp596
sg13
S'android.transition.Transition$EpicenterCallback'
p597
sg15
(lp598
sg17
(lp599
sg19
(lp600
sg21
I0
sba(iArchitecture
Entity
p601
(dp602
g11
(lp603
sg13
S'android.transition.Transition$TransitionListener'
p604
sg15
(lp605
sg17
(lp606
sg19
(lp607
sg21
I0
sba(iArchitecture
Entity
p608
(dp609
g11
(lp610
sg13
S'android.transition.Transition$TransitionListenerAdapter'
p611
sg15
(lp612
sg17
(lp613
sg19
(lp614
sg21
I0
sbasg575
(lp615
g597
ag604
ag611
asg21
I0
sg577
S'android.widget.ss'
p616
sba(iArchitecture
Cluster
p617
(dp618
g7
(lp619
(iArchitecture
Entity
p620
(dp621
g11
(lp622
sg13
S'android.transition.Scene'
p623
sg15
(lp624
sg17
(lp625
sg19
(lp626
sg21
I0
sbasg575
(lp627
g623
asg21
I0
sg577
S'com.android.internal.policy.ss'
p628
sbasS'target_sub'
p629
S'android.transition'
p630
sg575
(lp631
sS'is_component_arch'
p632
I00
sg577
S'6.0.0_r1'
p633
sba(iArchitecture
Architecture
p634
(dp635
g3
(lp636
(iArchitecture
Cluster
p637
(dp638
g7
(lp639
(iArchitecture
Entity
p640
(dp641
g11
(lp642
sg13
S'android.transition.ArcMotion'
p643
sg15
(lp644
sg17
(lp645
sg19
(lp646
sg21
I0
sba(iArchitecture
Entity
p647
(dp648
g11
(lp649
sg13
S'android.transition.AutoTransition'
p650
sg15
(lp651
sg17
(lp652
sg19
(lp653
sg21
I0
sba(iArchitecture
Entity
p654
(dp655
g11
(lp656
sg13
S'android.transition.ChangeBounds'
p657
sg15
(lp658
sg17
(lp659
sg19
(lp660
sg21
I0
sba(iArchitecture
Entity
p661
(dp662
g11
(lp663
sg13
S'android.transition.ChangeBounds$1'
p664
sg15
(lp665
sg17
(lp666
sg19
(lp667
sg21
I0
sba(iArchitecture
Entity
p668
(dp669
g11
(lp670
sg13
S'android.transition.ChangeBounds$10'
p671
sg15
(lp672
sg17
(lp673
sg19
(lp674
sg21
I0
sba(iArchitecture
Entity
p675
(dp676
g11
(lp677
sg13
S'android.transition.ChangeBounds$2'
p678
sg15
(lp679
sg17
(lp680
sg19
(lp681
sg21
I0
sba(iArchitecture
Entity
p682
(dp683
g11
(lp684
sg13
S'android.transition.ChangeBounds$3'
p685
sg15
(lp686
sg17
(lp687
sg19
(lp688
sg21
I0
sba(iArchitecture
Entity
p689
(dp690
g11
(lp691
sg13
S'android.transition.ChangeBounds$4'
p692
sg15
(lp693
sg17
(lp694
sg19
(lp695
sg21
I0
sba(iArchitecture
Entity
p696
(dp697
g11
(lp698
sg13
S'android.transition.ChangeBounds$5'
p699
sg15
(lp700
sg17
(lp701
sg19
(lp702
sg21
I0
sba(iArchitecture
Entity
p703
(dp704
g11
(lp705
sg13
S'android.transition.ChangeBounds$6'
p706
sg15
(lp707
sg17
(lp708
sg19
(lp709
sg21
I0
sba(iArchitecture
Entity
p710
(dp711
g11
(lp712
sg13
S'android.transition.ChangeBounds$7'
p713
sg15
(lp714
sg17
(lp715
sg19
(lp716
sg21
I0
sba(iArchitecture
Entity
p717
(dp718
g11
(lp719
sg13
S'android.transition.ChangeBounds$8'
p720
sg15
(lp721
sg17
(lp722
sg19
(lp723
sg21
I0
sba(iArchitecture
Entity
p724
(dp725
g11
(lp726
sg13
S'android.transition.ChangeBounds$9'
p727
sg15
(lp728
sg17
(lp729
sg19
(lp730
sg21
I0
sba(iArchitecture
Entity
p731
(dp732
g11
(lp733
sg13
S'android.transition.ChangeBounds$ViewBounds'
p734
sg15
(lp735
sg17
(lp736
sg19
(lp737
sg21
I0
sba(iArchitecture
Entity
p738
(dp739
g11
(lp740
sg13
S'android.transition.ChangeClipBounds'
p741
sg15
(lp742
sg17
(lp743
sg19
(lp744
sg21
I0
sba(iArchitecture
Entity
p745
(dp746
g11
(lp747
sg13
S'android.transition.ChangeImageTransform'
p748
sg15
(lp749
sg17
(lp750
sg19
(lp751
sg21
I0
sba(iArchitecture
Entity
p752
(dp753
g11
(lp754
sg13
S'android.transition.ChangeImageTransform$1'
p755
sg15
(lp756
sg17
(lp757
sg19
(lp758
sg21
I0
sba(iArchitecture
Entity
p759
(dp760
g11
(lp761
sg13
S'android.transition.ChangeImageTransform$2'
p762
sg15
(lp763
sg17
(lp764
sg19
(lp765
sg21
I0
sba(iArchitecture
Entity
p766
(dp767
g11
(lp768
sg13
S'android.transition.ChangeScroll'
p769
sg15
(lp770
sg17
(lp771
sg19
(lp772
sg21
I0
sba(iArchitecture
Entity
p773
(dp774
g11
(lp775
sg13
S'android.transition.ChangeText'
p776
sg15
(lp777
sg17
(lp778
sg19
(lp779
sg21
I0
sba(iArchitecture
Entity
p780
(dp781
g11
(lp782
sg13
S'android.transition.ChangeText$1'
p783
sg15
(lp784
sg17
(lp785
sg19
(lp786
sg21
I0
sba(iArchitecture
Entity
p787
(dp788
g11
(lp789
sg13
S'android.transition.ChangeText$2'
p790
sg15
(lp791
sg17
(lp792
sg19
(lp793
sg21
I0
sba(iArchitecture
Entity
p794
(dp795
g11
(lp796
sg13
S'android.transition.ChangeText$3'
p797
sg15
(lp798
sg17
(lp799
sg19
(lp800
sg21
I0
sba(iArchitecture
Entity
p801
(dp802
g11
(lp803
sg13
S'android.transition.ChangeText$4'
p804
sg15
(lp805
sg17
(lp806
sg19
(lp807
sg21
I0
sba(iArchitecture
Entity
p808
(dp809
g11
(lp810
sg13
S'android.transition.ChangeText$5'
p811
sg15
(lp812
sg17
(lp813
sg19
(lp814
sg21
I0
sba(iArchitecture
Entity
p815
(dp816
g11
(lp817
sg13
S'android.transition.ChangeText$6'
p818
sg15
(lp819
sg17
(lp820
sg19
(lp821
sg21
I0
sba(iArchitecture
Entity
p822
(dp823
g11
(lp824
sg13
S'android.transition.ChangeTransform'
p825
sg15
(lp826
sg17
(lp827
sg19
(lp828
sg21
I0
sba(iArchitecture
Entity
p829
(dp830
g11
(lp831
sg13
S'android.transition.ChangeTransform$1'
p832
sg15
(lp833
sg17
(lp834
sg19
(lp835
sg21
I0
sba(iArchitecture
Entity
p836
(dp837
g11
(lp838
sg13
S'android.transition.ChangeTransform$2'
p839
sg15
(lp840
sg17
(lp841
sg19
(lp842
sg21
I0
sba(iArchitecture
Entity
p843
(dp844
g11
(lp845
sg13
S'android.transition.ChangeTransform$3'
p846
sg15
(lp847
sg17
(lp848
sg19
(lp849
sg21
I0
sba(iArchitecture
Entity
p850
(dp851
g11
(lp852
sg13
S'android.transition.ChangeTransform$GhostListener'
p853
sg15
(lp854
sg17
(lp855
sg19
(lp856
sg21
I0
sba(iArchitecture
Entity
p857
(dp858
g11
(lp859
sg13
S'android.transition.ChangeTransform$PathAnimatorMatrix'
p860
sg15
(lp861
sg17
(lp862
sg19
(lp863
sg21
I0
sba(iArchitecture
Entity
p864
(dp865
g11
(lp866
sg13
S'android.transition.ChangeTransform$Transforms'
p867
sg15
(lp868
sg17
(lp869
sg19
(lp870
sg21
I0
sba(iArchitecture
Entity
p871
(dp872
g11
(lp873
sg13
S'android.transition.CircularPropagation'
p874
sg15
(lp875
sg17
(lp876
sg19
(lp877
sg21
I0
sba(iArchitecture
Entity
p878
(dp879
g11
(lp880
sg13
S'android.transition.Crossfade'
p881
sg15
(lp882
sg17
(lp883
sg19
(lp884
sg21
I0
sba(iArchitecture
Entity
p885
(dp886
g11
(lp887
sg13
S'android.transition.Crossfade$1'
p888
sg15
(lp889
sg17
(lp890
sg19
(lp891
sg21
I0
sba(iArchitecture
Entity
p892
(dp893
g11
(lp894
sg13
S'android.transition.Crossfade$2'
p895
sg15
(lp896
sg17
(lp897
sg19
(lp898
sg21
I0
sba(iArchitecture
Entity
p899
(dp900
g11
(lp901
sg13
S'android.transition.Explode'
p902
sg15
(lp903
sg17
(lp904
sg19
(lp905
sg21
I0
sba(iArchitecture
Entity
p906
(dp907
g11
(lp908
sg13
S'android.transition.Fade'
p909
sg15
(lp910
sg17
(lp911
sg19
(lp912
sg21
I0
sba(iArchitecture
Entity
p913
(dp914
g11
(lp915
sg13
S'android.transition.Fade$1'
p916
sg15
(lp917
sg17
(lp918
sg19
(lp919
sg21
I0
sba(iArchitecture
Entity
p920
(dp921
g11
(lp922
sg13
S'android.transition.Fade$FadeAnimatorListener'
p923
sg15
(lp924
sg17
(lp925
sg19
(lp926
sg21
I0
sba(iArchitecture
Entity
p927
(dp928
g11
(lp929
sg13
S'android.transition.PathMotion'
p930
sg15
(lp931
sg17
(lp932
sg19
(lp933
sg21
I0
sba(iArchitecture
Entity
p934
(dp935
g11
(lp936
sg13
S'android.transition.PatternPathMotion'
p937
sg15
(lp938
sg17
(lp939
sg19
(lp940
sg21
I0
sba(iArchitecture
Entity
p941
(dp942
g11
(lp943
sg13
S'android.transition.Recolor'
p944
sg15
(lp945
sg17
(lp946
sg19
(lp947
sg21
I0
sba(iArchitecture
Entity
p948
(dp949
g11
(lp950
sg13
S'android.transition.SidePropagation'
p951
sg15
(lp952
sg17
(lp953
sg19
(lp954
sg21
I0
sba(iArchitecture
Entity
p955
(dp956
g11
(lp957
sg13
S'android.transition.Slide'
p958
sg15
(lp959
sg17
(lp960
sg19
(lp961
sg21
I0
sba(iArchitecture
Entity
p962
(dp963
g11
(lp964
sg13
S'android.transition.Slide$1'
p965
sg15
(lp966
sg17
(lp967
sg19
(lp968
sg21
I0
sba(iArchitecture
Entity
p969
(dp970
g11
(lp971
sg13
S'android.transition.Slide$2'
p972
sg15
(lp973
sg17
(lp974
sg19
(lp975
sg21
I0
sba(iArchitecture
Entity
p976
(dp977
g11
(lp978
sg13
S'android.transition.Slide$3'
p979
sg15
(lp980
sg17
(lp981
sg19
(lp982
sg21
I0
sba(iArchitecture
Entity
p983
(dp984
g11
(lp985
sg13
S'android.transition.Slide$4'
p986
sg15
(lp987
sg17
(lp988
sg19
(lp989
sg21
I0
sba(iArchitecture
Entity
p990
(dp991
g11
(lp992
sg13
S'android.transition.Slide$5'
p993
sg15
(lp994
sg17
(lp995
sg19
(lp996
sg21
I0
sba(iArchitecture
Entity
p997
(dp998
g11
(lp999
sg13
S'android.transition.Slide$6'
p1000
sg15
(lp1001
sg17
(lp1002
sg19
(lp1003
sg21
I0
sba(iArchitecture
Entity
p1004
(dp1005
g11
(lp1006
sg13
S'android.transition.Slide$CalculateSlide'
p1007
sg15
(lp1008
sg17
(lp1009
sg19
(lp1010
sg21
I0
sba(iArchitecture
Entity
p1011
(dp1012
g11
(lp1013
sg13
S'android.transition.Slide$CalculateSlideHorizontal'
p1014
sg15
(lp1015
sg17
(lp1016
sg19
(lp1017
sg21
I0
sba(iArchitecture
Entity
p1018
(dp1019
g11
(lp1020
sg13
S'android.transition.Slide$CalculateSlideVertical'
p1021
sg15
(lp1022
sg17
(lp1023
sg19
(lp1024
sg21
I0
sba(iArchitecture
Entity
p1025
(dp1026
g11
(lp1027
sg13
S'android.transition.Transition'
p1028
sg15
(lp1029
sg17
(lp1030
sg19
(lp1031
sg21
I0
sba(iArchitecture
Entity
p1032
(dp1033
g11
(lp1034
sg13
S'android.transition.Transition$1'
p1035
sg15
(lp1036
sg17
(lp1037
sg19
(lp1038
sg21
I0
sba(iArchitecture
Entity
p1039
(dp1040
g11
(lp1041
sg13
S'android.transition.Transition$2'
p1042
sg15
(lp1043
sg17
(lp1044
sg19
(lp1045
sg21
I0
sba(iArchitecture
Entity
p1046
(dp1047
g11
(lp1048
sg13
S'android.transition.Transition$3'
p1049
sg15
(lp1050
sg17
(lp1051
sg19
(lp1052
sg21
I0
sba(iArchitecture
Entity
p1053
(dp1054
g11
(lp1055
sg13
S'android.transition.Transition$AnimationInfo'
p1056
sg15
(lp1057
sg17
(lp1058
sg19
(lp1059
sg21
I0
sba(iArchitecture
Entity
p1060
(dp1061
g11
(lp1062
sg13
S'android.transition.Transition$ArrayListManager'
p1063
sg15
(lp1064
sg17
(lp1065
sg19
(lp1066
sg21
I0
sba(iArchitecture
Entity
p1067
(dp1068
g11
(lp1069
sg13
S'android.transition.TransitionInflater'
p1070
sg15
(lp1071
sg17
(lp1072
sg19
(lp1073
sg21
I0
sba(iArchitecture
Entity
p1074
(dp1075
g11
(lp1076
sg13
S'android.transition.TransitionManager'
p1077
sg15
(lp1078
sg17
(lp1079
sg19
(lp1080
sg21
I0
sba(iArchitecture
Entity
p1081
(dp1082
g11
(lp1083
sg13
S'android.transition.TransitionManager$MultiListener'
p1084
sg15
(lp1085
sg17
(lp1086
sg19
(lp1087
sg21
I0
sba(iArchitecture
Entity
p1088
(dp1089
g11
(lp1090
sg13
S'android.transition.TransitionManager$MultiListener$1'
p1091
sg15
(lp1092
sg17
(lp1093
sg19
(lp1094
sg21
I0
sba(iArchitecture
Entity
p1095
(dp1096
g11
(lp1097
sg13
S'android.transition.TransitionPropagation'
p1098
sg15
(lp1099
sg17
(lp1100
sg19
(lp1101
sg21
I0
sba(iArchitecture
Entity
p1102
(dp1103
g11
(lp1104
sg13
S'android.transition.TransitionSet'
p1105
sg15
(lp1106
sg17
(lp1107
sg19
(lp1108
sg21
I0
sba(iArchitecture
Entity
p1109
(dp1110
g11
(lp1111
sg13
S'android.transition.TransitionSet$1'
p1112
sg15
(lp1113
sg17
(lp1114
sg19
(lp1115
sg21
I0
sba(iArchitecture
Entity
p1116
(dp1117
g11
(lp1118
sg13
S'android.transition.TransitionSet$TransitionSetListener'
p1119
sg15
(lp1120
sg17
(lp1121
sg19
(lp1122
sg21
I0
sba(iArchitecture
Entity
p1123
(dp1124
g11
(lp1125
sg13
S'android.transition.TransitionUtils'
p1126
sg15
(lp1127
sg17
(lp1128
sg19
(lp1129
sg21
I0
sba(iArchitecture
Entity
p1130
(dp1131
g11
(lp1132
sg13
S'android.transition.TransitionUtils$MatrixEvaluator'
p1133
sg15
(lp1134
sg17
(lp1135
sg19
(lp1136
sg21
I0
sba(iArchitecture
Entity
p1137
(dp1138
g11
(lp1139
sg13
S'android.transition.TransitionValues'
p1140
sg15
(lp1141
sg17
(lp1142
sg19
(lp1143
sg21
I0
sba(iArchitecture
Entity
p1144
(dp1145
g11
(lp1146
sg13
S'android.transition.TransitionValuesMaps'
p1147
sg15
(lp1148
sg17
(lp1149
sg19
(lp1150
sg21
I0
sba(iArchitecture
Entity
p1151
(dp1152
g11
(lp1153
sg13
S'android.transition.TranslationAnimationCreator'
p1154
sg15
(lp1155
sg17
(lp1156
sg19
(lp1157
sg21
I0
sba(iArchitecture
Entity
p1158
(dp1159
g11
(lp1160
sg13
S'android.transition.TranslationAnimationCreator$TransitionPositionListener'
p1161
sg15
(lp1162
sg17
(lp1163
sg19
(lp1164
sg21
I0
sba(iArchitecture
Entity
p1165
(dp1166
g11
(lp1167
sg13
S'android.transition.Visibility'
p1168
sg15
(lp1169
sg17
(lp1170
sg19
(lp1171
sg21
I0
sba(iArchitecture
Entity
p1172
(dp1173
g11
(lp1174
sg13
S'android.transition.Visibility$1'
p1175
sg15
(lp1176
sg17
(lp1177
sg19
(lp1178
sg21
I0
sba(iArchitecture
Entity
p1179
(dp1180
g11
(lp1181
sg13
S'android.transition.Visibility$DisappearListener'
p1182
sg15
(lp1183
sg17
(lp1184
sg19
(lp1185
sg21
I0
sba(iArchitecture
Entity
p1186
(dp1187
g11
(lp1188
sg13
S'android.transition.Visibility$VisibilityInfo'
p1189
sg15
(lp1190
sg17
(lp1191
sg19
(lp1192
sg21
I0
sba(iArchitecture
Entity
p1193
(dp1194
g11
(lp1195
sg13
S'android.transition.VisibilityPropagation'
p1196
sg15
(lp1197
sg17
(lp1198
sg19
(lp1199
sg21
I0
sbasg575
(lp1200
g643
ag650
ag657
ag664
ag671
ag678
ag685
ag692
ag699
ag706
ag713
ag720
ag727
ag734
ag741
ag748
ag755
ag762
ag769
ag776
ag783
ag790
ag797
ag804
ag811
ag818
ag825
ag832
ag839
ag846
ag853
ag860
ag867
ag874
ag881
ag888
ag895
ag902
ag909
ag916
ag923
ag930
ag937
ag944
ag951
ag958
ag965
ag972
ag979
ag986
ag993
ag1000
ag1007
ag1014
ag1021
ag1028
ag1035
ag1042
ag1049
ag1056
ag1063
ag1070
ag1077
ag1084
ag1091
ag1098
ag1105
ag1112
ag1119
ag1126
ag1133
ag1140
ag1147
ag1154
ag1161
ag1168
ag1175
ag1182
ag1189
ag1196
asg21
I0
sg577
S'android.transition.ss'
p1201
sba(iArchitecture
Cluster
p1202
(dp1203
g7
(lp1204
(iArchitecture
Entity
p1205
(dp1206
g11
(lp1207
sg13
S'android.transition.Rotate'
p1208
sg15
(lp1209
sg17
(lp1210
sg19
(lp1211
sg21
I0
sbasg575
(lp1212
g1208
asg21
I0
sg577
S'android.view.ss'
p1213
sba(iArchitecture
Cluster
p1214
(dp1215
g7
(lp1216
(iArchitecture
Entity
p1217
(dp1218
g11
(lp1219
sg13
S'android.transition.Transition$EpicenterCallback'
p1220
sg15
(lp1221
sg17
(lp1222
sg19
(lp1223
sg21
I0
sba(iArchitecture
Entity
p1224
(dp1225
g11
(lp1226
sg13
S'android.transition.Transition$TransitionListener'
p1227
sg15
(lp1228
sg17
(lp1229
sg19
(lp1230
sg21
I0
sba(iArchitecture
Entity
p1231
(dp1232
g11
(lp1233
sg13
S'android.transition.Transition$TransitionListenerAdapter'
p1234
sg15
(lp1235
sg17
(lp1236
sg19
(lp1237
sg21
I0
sbasg575
(lp1238
g1220
ag1227
ag1234
asg21
I0
sg577
S'android.widget.ss'
p1239
sba(iArchitecture
Cluster
p1240
(dp1241
g7
(lp1242
(iArchitecture
Entity
p1243
(dp1244
g11
(lp1245
sg13
S'android.transition.Scene'
p1246
sg15
(lp1247
sg17
(lp1248
sg19
(lp1249
sg21
I0
sbasg575
(lp1250
g1246
asg21
I0
sg577
S'com.android.internal.policy.ss'
p1251
sbasg629
g630
sg575
(lp1252
sg632
I00
sg577
S'7.0.0_r1'
p1253
sba.