(lp0
(iArchitecture
Architecture
p1
(dp2
S'clusters'
p3
(lp4
(iArchitecture
Cluster
p5
(dp6
S'entities'
p7
(lp8
(iArchitecture
Entity
p9
(dp10
S'issue_ids'
p11
(lp12
sS'name'
p13
S'com.android.server.midi.MidiService'
p14
sS'descs'
p15
(lp16
sS'labels'
p17
(lp18
sS'titles'
p19
(lp20
sS'change'
p21
I0
sba(iArchitecture
Entity
p22
(dp23
g11
(lp24
sg13
S'com.android.server.midi.MidiService$1'
p25
sg15
(lp26
sg17
(lp27
sg19
(lp28
sg21
I0
sba(iArchitecture
Entity
p29
(dp30
g11
(lp31
sg13
S'com.android.server.midi.MidiService$Client'
p32
sg15
(lp33
sg17
(lp34
sg19
(lp35
sg21
I0
sba(iArchitecture
Entity
p36
(dp37
g11
(lp38
sg13
S'com.android.server.midi.MidiService$Device'
p39
sg15
(lp40
sg17
(lp41
sg19
(lp42
sg21
I0
sba(iArchitecture
Entity
p43
(dp44
g11
(lp45
sg13
S'com.android.server.midi.MidiService$Device$1'
p46
sg15
(lp47
sg17
(lp48
sg19
(lp49
sg21
I0
sba(iArchitecture
Entity
p50
(dp51
g11
(lp52
sg13
S'com.android.server.midi.MidiService$DeviceConnection'
p53
sg15
(lp54
sg17
(lp55
sg19
(lp56
sg21
I0
sba(iArchitecture
Entity
p57
(dp58
g11
(lp59
sg13
S'com.android.server.midi.MidiService$Lifecycle'
p60
sg15
(lp61
sg17
(lp62
sg19
(lp63
sg21
I0
sbasS'classes'
p64
(lp65
g14
ag25
ag32
ag39
ag46
ag53
ag60
asg21
I0
sS'label'
p66
S'com.android.server.midi.ss'
p67
sbasS'target_sub'
p68
S'com.android.server.midi'
p69
sg64
(lp70
sS'is_component_arch'
p71
I00
sg66
S'6.0.0_r1'
p72
sba(iArchitecture
Architecture
p73
(dp74
g3
(lp75
(iArchitecture
Cluster
p76
(dp77
g7
(lp78
(iArchitecture
Entity
p79
(dp80
g11
(lp81
sg13
S'com.android.server.midi.MidiService'
p82
sg15
(lp83
sg17
(lp84
sg19
(lp85
sg21
I0
sba(iArchitecture
Entity
p86
(dp87
g11
(lp88
sg13
S'com.android.server.midi.MidiService$1'
p89
sg15
(lp90
sg17
(lp91
sg19
(lp92
sg21
I0
sba(iArchitecture
Entity
p93
(dp94
g11
(lp95
sg13
S'com.android.server.midi.MidiService$Client'
p96
sg15
(lp97
sg17
(lp98
sg19
(lp99
sg21
I0
sba(iArchitecture
Entity
p100
(dp101
g11
(lp102
sg13
S'com.android.server.midi.MidiService$Device'
p103
sg15
(lp104
sg17
(lp105
sg19
(lp106
sg21
I0
sba(iArchitecture
Entity
p107
(dp108
g11
(lp109
sg13
S'com.android.server.midi.MidiService$Device$1'
p110
sg15
(lp111
sg17
(lp112
sg19
(lp113
sg21
I0
sba(iArchitecture
Entity
p114
(dp115
g11
(lp116
sg13
S'com.android.server.midi.MidiService$DeviceConnection'
p117
sg15
(lp118
sg17
(lp119
sg19
(lp120
sg21
I0
sba(iArchitecture
Entity
p121
(dp122
g11
(lp123
sg13
S'com.android.server.midi.MidiService$Lifecycle'
p124
sg15
(lp125
sg17
(lp126
sg19
(lp127
sg21
I0
sbasg64
(lp128
g82
ag89
ag96
ag103
ag110
ag117
ag124
asg21
I0
sg66
S'com.android.server.midi.ss'
p129
sbasg68
g69
sg64
(lp130
sg71
I00
sg66
S'7.0.0_r1'
p131
sba.