(lp0
(iArchitecture
Architecture
p1
(dp2
S'clusters'
p3
(lp4
(iArchitecture
Cluster
p5
(dp6
S'entities'
p7
(lp8
(iArchitecture
Entity
p9
(dp10
S'issue_ids'
p11
(lp12
sS'name'
p13
S'com.android.server.location.ActivityRecognitionProxy'
p14
sS'descs'
p15
(lp16
sS'labels'
p17
(lp18
sS'titles'
p19
(lp20
sS'change'
p21
I0
sba(iArchitecture
Entity
p22
(dp23
g11
(lp24
sg13
S'com.android.server.location.ActivityRecognitionProxy$1'
p25
sg15
(lp26
sg17
(lp27
sg19
(lp28
sg21
I0
sba(iArchitecture
Entity
p29
(dp30
g11
(lp31
sg13
S'com.android.server.location.ComprehensiveCountryDetector'
p32
sg15
(lp33
sg17
(lp34
sg19
(lp35
sg21
I0
sba(iArchitecture
Entity
p36
(dp37
g11
(lp38
sg13
S'com.android.server.location.ComprehensiveCountryDetector$1'
p39
sg15
(lp40
sg17
(lp41
sg19
(lp42
sg21
I0
sba(iArchitecture
Entity
p43
(dp44
g11
(lp45
sg13
S'com.android.server.location.ComprehensiveCountryDetector$2'
p46
sg15
(lp47
sg17
(lp48
sg19
(lp49
sg21
I0
sba(iArchitecture
Entity
p50
(dp51
g11
(lp52
sg13
S'com.android.server.location.ComprehensiveCountryDetector$3'
p53
sg15
(lp54
sg17
(lp55
sg19
(lp56
sg21
I0
sba(iArchitecture
Entity
p57
(dp58
g11
(lp59
sg13
S'com.android.server.location.ComprehensiveCountryDetector$4'
p60
sg15
(lp61
sg17
(lp62
sg19
(lp63
sg21
I0
sba(iArchitecture
Entity
p64
(dp65
g11
(lp66
sg13
S'com.android.server.location.CountryDetectorBase'
p67
sg15
(lp68
sg17
(lp69
sg19
(lp70
sg21
I0
sba(iArchitecture
Entity
p71
(dp72
g11
(lp73
sg13
S'com.android.server.location.FlpHardwareProvider'
p74
sg15
(lp75
sg17
(lp76
sg19
(lp77
sg21
I0
sba(iArchitecture
Entity
p78
(dp79
g11
(lp80
sg13
S'com.android.server.location.FlpHardwareProvider$1'
p81
sg15
(lp82
sg17
(lp83
sg19
(lp84
sg21
I0
sba(iArchitecture
Entity
p85
(dp86
g11
(lp87
sg13
S'com.android.server.location.FlpHardwareProvider$2'
p88
sg15
(lp89
sg17
(lp90
sg19
(lp91
sg21
I0
sba(iArchitecture
Entity
p92
(dp93
g11
(lp94
sg13
S'com.android.server.location.FlpHardwareProvider$NetworkLocationListener'
p95
sg15
(lp96
sg17
(lp97
sg19
(lp98
sg21
I0
sba(iArchitecture
Entity
p99
(dp100
g11
(lp101
sg13
S'com.android.server.location.FusedLocationHardwareSecure'
p102
sg15
(lp103
sg17
(lp104
sg19
(lp105
sg21
I0
sba(iArchitecture
Entity
p106
(dp107
g11
(lp108
sg13
S'com.android.server.location.FusedProxy'
p109
sg15
(lp110
sg17
(lp111
sg19
(lp112
sg21
I0
sba(iArchitecture
Entity
p113
(dp114
g11
(lp115
sg13
S'com.android.server.location.FusedProxy$1'
p116
sg15
(lp117
sg17
(lp118
sg19
(lp119
sg21
I0
sba(iArchitecture
Entity
p120
(dp121
g11
(lp122
sg13
S'com.android.server.location.GeofenceManager'
p123
sg15
(lp124
sg17
(lp125
sg19
(lp126
sg21
I0
sba(iArchitecture
Entity
p127
(dp128
g11
(lp129
sg13
S'com.android.server.location.GeofenceManager$GeofenceHandler'
p130
sg15
(lp131
sg17
(lp132
sg19
(lp133
sg21
I0
sba(iArchitecture
Entity
p134
(dp135
g11
(lp136
sg13
S'com.android.server.location.GeofenceProxy'
p137
sg15
(lp138
sg17
(lp139
sg19
(lp140
sg21
I0
sba(iArchitecture
Entity
p141
(dp142
g11
(lp143
sg13
S'com.android.server.location.GeofenceProxy$1'
p144
sg15
(lp145
sg17
(lp146
sg19
(lp147
sg21
I0
sba(iArchitecture
Entity
p148
(dp149
g11
(lp150
sg13
S'com.android.server.location.GeofenceProxy$2'
p151
sg15
(lp152
sg17
(lp153
sg19
(lp154
sg21
I0
sba(iArchitecture
Entity
p155
(dp156
g11
(lp157
sg13
S'com.android.server.location.GeofenceProxy$3'
p158
sg15
(lp159
sg17
(lp160
sg19
(lp161
sg21
I0
sba(iArchitecture
Entity
p162
(dp163
g11
(lp164
sg13
S'com.android.server.location.GeofenceState'
p165
sg15
(lp166
sg17
(lp167
sg19
(lp168
sg21
I0
sba(iArchitecture
Entity
p169
(dp170
g11
(lp171
sg13
S'com.android.server.location.GpsLocationProvider'
p172
sg15
(lp173
sg17
(lp174
sg19
(lp175
sg21
I0
sba(iArchitecture
Entity
p176
(dp177
g11
(lp178
sg13
S'com.android.server.location.GpsLocationProvider$1'
p179
sg15
(lp180
sg17
(lp181
sg19
(lp182
sg21
I0
sba(iArchitecture
Entity
p183
(dp184
g11
(lp185
sg13
S'com.android.server.location.GpsLocationProvider$10'
p186
sg15
(lp187
sg17
(lp188
sg19
(lp189
sg21
I0
sba(iArchitecture
Entity
p190
(dp191
g11
(lp192
sg13
S'com.android.server.location.GpsLocationProvider$2'
p193
sg15
(lp194
sg17
(lp195
sg19
(lp196
sg21
I0
sba(iArchitecture
Entity
p197
(dp198
g11
(lp199
sg13
S'com.android.server.location.GpsLocationProvider$3'
p200
sg15
(lp201
sg17
(lp202
sg19
(lp203
sg21
I0
sba(iArchitecture
Entity
p204
(dp205
g11
(lp206
sg13
S'com.android.server.location.GpsLocationProvider$4'
p207
sg15
(lp208
sg17
(lp209
sg19
(lp210
sg21
I0
sba(iArchitecture
Entity
p211
(dp212
g11
(lp213
sg13
S'com.android.server.location.GpsLocationProvider$5'
p214
sg15
(lp215
sg17
(lp216
sg19
(lp217
sg21
I0
sba(iArchitecture
Entity
p218
(dp219
g11
(lp220
sg13
S'com.android.server.location.GpsLocationProvider$6'
p221
sg15
(lp222
sg17
(lp223
sg19
(lp224
sg21
I0
sba(iArchitecture
Entity
p225
(dp226
g11
(lp227
sg13
S'com.android.server.location.GpsLocationProvider$7'
p228
sg15
(lp229
sg17
(lp230
sg19
(lp231
sg21
I0
sba(iArchitecture
Entity
p232
(dp233
g11
(lp234
sg13
S'com.android.server.location.GpsLocationProvider$8'
p235
sg15
(lp236
sg17
(lp237
sg19
(lp238
sg21
I0
sba(iArchitecture
Entity
p239
(dp240
g11
(lp241
sg13
S'com.android.server.location.GpsLocationProvider$9'
p242
sg15
(lp243
sg17
(lp244
sg19
(lp245
sg21
I0
sba(iArchitecture
Entity
p246
(dp247
g11
(lp248
sg13
S'com.android.server.location.GpsLocationProvider$BackOff'
p249
sg15
(lp250
sg17
(lp251
sg19
(lp252
sg21
I0
sba(iArchitecture
Entity
p253
(dp254
g11
(lp255
sg13
S'com.android.server.location.GpsLocationProvider$GpsRequest'
p256
sg15
(lp257
sg17
(lp258
sg19
(lp259
sg21
I0
sba(iArchitecture
Entity
p260
(dp261
g11
(lp262
sg13
S'com.android.server.location.GpsLocationProvider$NetworkLocationListener'
p263
sg15
(lp264
sg17
(lp265
sg19
(lp266
sg21
I0
sba(iArchitecture
Entity
p267
(dp268
g11
(lp269
sg13
S'com.android.server.location.GpsLocationProvider$ProviderHandler'
p270
sg15
(lp271
sg17
(lp272
sg19
(lp273
sg21
I0
sba(iArchitecture
Entity
p274
(dp275
g11
(lp276
sg13
S'com.android.server.location.GpsMeasurementsProvider'
p277
sg15
(lp278
sg17
(lp279
sg19
(lp280
sg21
I0
sba(iArchitecture
Entity
p281
(dp282
g11
(lp283
sg13
S'com.android.server.location.GpsMeasurementsProvider$1'
p284
sg15
(lp285
sg17
(lp286
sg19
(lp287
sg21
I0
sba(iArchitecture
Entity
p288
(dp289
g11
(lp290
sg13
S'com.android.server.location.GpsMeasurementsProvider$StatusChangedOperation'
p291
sg15
(lp292
sg17
(lp293
sg19
(lp294
sg21
I0
sba(iArchitecture
Entity
p295
(dp296
g11
(lp297
sg13
S'com.android.server.location.GpsNavigationMessageProvider'
p298
sg15
(lp299
sg17
(lp300
sg19
(lp301
sg21
I0
sba(iArchitecture
Entity
p302
(dp303
g11
(lp304
sg13
S'com.android.server.location.GpsNavigationMessageProvider$1'
p305
sg15
(lp306
sg17
(lp307
sg19
(lp308
sg21
I0
sba(iArchitecture
Entity
p309
(dp310
g11
(lp311
sg13
S'com.android.server.location.GpsNavigationMessageProvider$StatusChangedOperation'
p312
sg15
(lp313
sg17
(lp314
sg19
(lp315
sg21
I0
sba(iArchitecture
Entity
p316
(dp317
g11
(lp318
sg13
S'com.android.server.location.GpsStatusListenerHelper'
p319
sg15
(lp320
sg17
(lp321
sg19
(lp322
sg21
I0
sba(iArchitecture
Entity
p323
(dp324
g11
(lp325
sg13
S'com.android.server.location.GpsStatusListenerHelper$1'
p326
sg15
(lp327
sg17
(lp328
sg19
(lp329
sg21
I0
sba(iArchitecture
Entity
p330
(dp331
g11
(lp332
sg13
S'com.android.server.location.GpsStatusListenerHelper$2'
p333
sg15
(lp334
sg17
(lp335
sg19
(lp336
sg21
I0
sba(iArchitecture
Entity
p337
(dp338
g11
(lp339
sg13
S'com.android.server.location.GpsStatusListenerHelper$3'
p340
sg15
(lp341
sg17
(lp342
sg19
(lp343
sg21
I0
sba(iArchitecture
Entity
p344
(dp345
g11
(lp346
sg13
S'com.android.server.location.GpsStatusListenerHelper$4'
p347
sg15
(lp348
sg17
(lp349
sg19
(lp350
sg21
I0
sba(iArchitecture
Entity
p351
(dp352
g11
(lp353
sg13
S'com.android.server.location.GpsStatusListenerHelper$5'
p354
sg15
(lp355
sg17
(lp356
sg19
(lp357
sg21
I0
sba(iArchitecture
Entity
p358
(dp359
g11
(lp360
sg13
S'com.android.server.location.GpsStatusListenerHelper$Operation'
p361
sg15
(lp362
sg17
(lp363
sg19
(lp364
sg21
I0
sba(iArchitecture
Entity
p365
(dp366
g11
(lp367
sg13
S'com.android.server.location.GpsXtraDownloader'
p368
sg15
(lp369
sg17
(lp370
sg19
(lp371
sg21
I0
sba(iArchitecture
Entity
p372
(dp373
g11
(lp374
sg13
S'com.android.server.location.LocationBasedCountryDetector'
p375
sg15
(lp376
sg17
(lp377
sg19
(lp378
sg21
I0
sba(iArchitecture
Entity
p379
(dp380
g11
(lp381
sg13
S'com.android.server.location.LocationBasedCountryDetector$1'
p382
sg15
(lp383
sg17
(lp384
sg19
(lp385
sg21
I0
sba(iArchitecture
Entity
p386
(dp387
g11
(lp388
sg13
S'com.android.server.location.LocationBasedCountryDetector$2'
p389
sg15
(lp390
sg17
(lp391
sg19
(lp392
sg21
I0
sba(iArchitecture
Entity
p393
(dp394
g11
(lp395
sg13
S'com.android.server.location.LocationBasedCountryDetector$3'
p396
sg15
(lp397
sg17
(lp398
sg19
(lp399
sg21
I0
sba(iArchitecture
Entity
p400
(dp401
g11
(lp402
sg13
S'com.android.server.location.LocationFudger'
p403
sg15
(lp404
sg17
(lp405
sg19
(lp406
sg21
I0
sba(iArchitecture
Entity
p407
(dp408
g11
(lp409
sg13
S'com.android.server.location.LocationFudger$1'
p410
sg15
(lp411
sg17
(lp412
sg19
(lp413
sg21
I0
sba(iArchitecture
Entity
p414
(dp415
g11
(lp416
sg13
S'com.android.server.location.LocationProviderProxy'
p417
sg15
(lp418
sg17
(lp419
sg19
(lp420
sg21
I0
sba(iArchitecture
Entity
p421
(dp422
g11
(lp423
sg13
S'com.android.server.location.LocationProviderProxy$1'
p424
sg15
(lp425
sg17
(lp426
sg19
(lp427
sg21
I0
sba(iArchitecture
Entity
p428
(dp429
g11
(lp430
sg13
S'com.android.server.location.RemoteListenerHelper'
p431
sg15
(lp432
sg17
(lp433
sg19
(lp434
sg21
I0
sba(iArchitecture
Entity
p435
(dp436
g11
(lp437
sg13
S'com.android.server.location.RemoteListenerHelper$HandlerRunnable'
p438
sg15
(lp439
sg17
(lp440
sg19
(lp441
sg21
I0
sba(iArchitecture
Entity
p442
(dp443
g11
(lp444
sg13
S'com.android.server.location.RemoteListenerHelper$LinkedListener'
p445
sg15
(lp446
sg17
(lp447
sg19
(lp448
sg21
I0
sba(iArchitecture
Entity
p449
(dp450
g11
(lp451
sg13
S'com.android.server.location.RemoteListenerHelper$ListenerOperation'
p452
sg15
(lp453
sg17
(lp454
sg19
(lp455
sg21
I0
sbasS'classes'
p456
(lp457
g14
ag25
ag32
ag39
ag46
ag53
ag60
ag67
ag74
ag81
ag88
ag95
ag102
ag109
ag116
ag123
ag130
ag137
ag144
ag151
ag158
ag165
ag172
ag179
ag186
ag193
ag200
ag207
ag214
ag221
ag228
ag235
ag242
ag249
ag256
ag263
ag270
ag277
ag284
ag291
ag298
ag305
ag312
ag319
ag326
ag333
ag340
ag347
ag354
ag361
ag368
ag375
ag382
ag389
ag396
ag403
ag410
ag417
ag424
ag431
ag438
ag445
ag452
asg21
I0
sS'label'
p458
S'com.android.server.location.ss'
p459
sba(iArchitecture
Cluster
p460
(dp461
g7
(lp462
(iArchitecture
Entity
p463
(dp464
g11
(lp465
sg13
S'com.android.server.location.GeocoderProxy'
p466
sg15
(lp467
sg17
(lp468
sg19
(lp469
sg21
I0
sba(iArchitecture
Entity
p470
(dp471
g11
(lp472
sg13
S'com.android.server.location.LocationBlacklist'
p473
sg15
(lp474
sg17
(lp475
sg19
(lp476
sg21
I0
sba(iArchitecture
Entity
p477
(dp478
g11
(lp479
sg13
S'com.android.server.location.LocationProviderInterface'
p480
sg15
(lp481
sg17
(lp482
sg19
(lp483
sg21
I0
sba(iArchitecture
Entity
p484
(dp485
g11
(lp486
sg13
S'com.android.server.location.LocationRequestStatistics'
p487
sg15
(lp488
sg17
(lp489
sg19
(lp490
sg21
I0
sba(iArchitecture
Entity
p491
(dp492
g11
(lp493
sg13
S'com.android.server.location.LocationRequestStatistics$PackageProviderKey'
p494
sg15
(lp495
sg17
(lp496
sg19
(lp497
sg21
I0
sba(iArchitecture
Entity
p498
(dp499
g11
(lp500
sg13
S'com.android.server.location.LocationRequestStatistics$PackageStatistics'
p501
sg15
(lp502
sg17
(lp503
sg19
(lp504
sg21
I0
sba(iArchitecture
Entity
p505
(dp506
g11
(lp507
sg13
S'com.android.server.location.MockProvider'
p508
sg15
(lp509
sg17
(lp510
sg19
(lp511
sg21
I0
sba(iArchitecture
Entity
p512
(dp513
g11
(lp514
sg13
S'com.android.server.location.PassiveProvider'
p515
sg15
(lp516
sg17
(lp517
sg19
(lp518
sg21
I0
sbasg456
(lp519
g466
ag473
ag480
ag487
ag494
ag501
ag508
ag515
asg21
I0
sg458
S'com.android.server.ss'
p520
sbasS'target_sub'
p521
S'com.android.server.location'
p522
sg456
(lp523
sS'is_component_arch'
p524
I00
sg458
S'6.0.0_r1'
p525
sba(iArchitecture
Architecture
p526
(dp527
g3
(lp528
(iArchitecture
Cluster
p529
(dp530
g7
(lp531
(iArchitecture
Entity
p532
(dp533
g11
(lp534
sg13
S'com.android.server.location.ActivityRecognitionProxy'
p535
sg15
(lp536
sg17
(lp537
sg19
(lp538
sg21
I0
sba(iArchitecture
Entity
p539
(dp540
g11
(lp541
sg13
S'com.android.server.location.ActivityRecognitionProxy$1'
p542
sg15
(lp543
sg17
(lp544
sg19
(lp545
sg21
I0
sba(iArchitecture
Entity
p546
(dp547
g11
(lp548
sg13
S'com.android.server.location.ComprehensiveCountryDetector'
p549
sg15
(lp550
sg17
(lp551
sg19
(lp552
sg21
I0
sba(iArchitecture
Entity
p553
(dp554
g11
(lp555
sg13
S'com.android.server.location.ComprehensiveCountryDetector$1'
p556
sg15
(lp557
sg17
(lp558
sg19
(lp559
sg21
I0
sba(iArchitecture
Entity
p560
(dp561
g11
(lp562
sg13
S'com.android.server.location.ComprehensiveCountryDetector$2'
p563
sg15
(lp564
sg17
(lp565
sg19
(lp566
sg21
I0
sba(iArchitecture
Entity
p567
(dp568
g11
(lp569
sg13
S'com.android.server.location.ComprehensiveCountryDetector$3'
p570
sg15
(lp571
sg17
(lp572
sg19
(lp573
sg21
I0
sba(iArchitecture
Entity
p574
(dp575
g11
(lp576
sg13
S'com.android.server.location.ComprehensiveCountryDetector$4'
p577
sg15
(lp578
sg17
(lp579
sg19
(lp580
sg21
I0
sba(iArchitecture
Entity
p581
(dp582
g11
(lp583
sg13
S'com.android.server.location.CountryDetectorBase'
p584
sg15
(lp585
sg17
(lp586
sg19
(lp587
sg21
I0
sba(iArchitecture
Entity
p588
(dp589
g11
(lp590
sg13
S'com.android.server.location.FlpHardwareProvider'
p591
sg15
(lp592
sg17
(lp593
sg19
(lp594
sg21
I0
sba(iArchitecture
Entity
p595
(dp596
g11
(lp597
sg13
S'com.android.server.location.FlpHardwareProvider$1'
p598
sg15
(lp599
sg17
(lp600
sg19
(lp601
sg21
I0
sba(iArchitecture
Entity
p602
(dp603
g11
(lp604
sg13
S'com.android.server.location.FlpHardwareProvider$2'
p605
sg15
(lp606
sg17
(lp607
sg19
(lp608
sg21
I0
sba(iArchitecture
Entity
p609
(dp610
g11
(lp611
sg13
S'com.android.server.location.FlpHardwareProvider$NetworkLocationListener'
p612
sg15
(lp613
sg17
(lp614
sg19
(lp615
sg21
I0
sba(iArchitecture
Entity
p616
(dp617
g11
(lp618
sg13
S'com.android.server.location.FusedLocationHardwareSecure'
p619
sg15
(lp620
sg17
(lp621
sg19
(lp622
sg21
I0
sba(iArchitecture
Entity
p623
(dp624
g11
(lp625
sg13
S'com.android.server.location.FusedProxy'
p626
sg15
(lp627
sg17
(lp628
sg19
(lp629
sg21
I0
sba(iArchitecture
Entity
p630
(dp631
g11
(lp632
sg13
S'com.android.server.location.FusedProxy$1'
p633
sg15
(lp634
sg17
(lp635
sg19
(lp636
sg21
I0
sba(iArchitecture
Entity
p637
(dp638
g11
(lp639
sg13
S'com.android.server.location.GeofenceManager'
p640
sg15
(lp641
sg17
(lp642
sg19
(lp643
sg21
I0
sba(iArchitecture
Entity
p644
(dp645
g11
(lp646
sg13
S'com.android.server.location.GeofenceManager$GeofenceHandler'
p647
sg15
(lp648
sg17
(lp649
sg19
(lp650
sg21
I0
sba(iArchitecture
Entity
p651
(dp652
g11
(lp653
sg13
S'com.android.server.location.GeofenceProxy'
p654
sg15
(lp655
sg17
(lp656
sg19
(lp657
sg21
I0
sba(iArchitecture
Entity
p658
(dp659
g11
(lp660
sg13
S'com.android.server.location.GeofenceProxy$1'
p661
sg15
(lp662
sg17
(lp663
sg19
(lp664
sg21
I0
sba(iArchitecture
Entity
p665
(dp666
g11
(lp667
sg13
S'com.android.server.location.GeofenceProxy$2'
p668
sg15
(lp669
sg17
(lp670
sg19
(lp671
sg21
I0
sba(iArchitecture
Entity
p672
(dp673
g11
(lp674
sg13
S'com.android.server.location.GeofenceProxy$3'
p675
sg15
(lp676
sg17
(lp677
sg19
(lp678
sg21
I0
sba(iArchitecture
Entity
p679
(dp680
g11
(lp681
sg13
S'com.android.server.location.GeofenceState'
p682
sg15
(lp683
sg17
(lp684
sg19
(lp685
sg21
I0
sba(iArchitecture
Entity
p686
(dp687
g11
(lp688
sg13
S'com.android.server.location.GnssLocationProvider'
p689
sg15
(lp690
sg17
(lp691
sg19
(lp692
sg21
I0
sba(iArchitecture
Entity
p693
(dp694
g11
(lp695
sg13
S'com.android.server.location.GnssLocationProvider$1'
p696
sg15
(lp697
sg17
(lp698
sg19
(lp699
sg21
I0
sba(iArchitecture
Entity
p700
(dp701
g11
(lp702
sg13
S'com.android.server.location.GnssLocationProvider$10'
p703
sg15
(lp704
sg17
(lp705
sg19
(lp706
sg21
I0
sba(iArchitecture
Entity
p707
(dp708
g11
(lp709
sg13
S'com.android.server.location.GnssLocationProvider$11'
p710
sg15
(lp711
sg17
(lp712
sg19
(lp713
sg21
I0
sba(iArchitecture
Entity
p714
(dp715
g11
(lp716
sg13
S'com.android.server.location.GnssLocationProvider$12'
p717
sg15
(lp718
sg17
(lp719
sg19
(lp720
sg21
I0
sba(iArchitecture
Entity
p721
(dp722
g11
(lp723
sg13
S'com.android.server.location.GnssLocationProvider$13'
p724
sg15
(lp725
sg17
(lp726
sg19
(lp727
sg21
I0
sba(iArchitecture
Entity
p728
(dp729
g11
(lp730
sg13
S'com.android.server.location.GnssLocationProvider$2'
p731
sg15
(lp732
sg17
(lp733
sg19
(lp734
sg21
I0
sba(iArchitecture
Entity
p735
(dp736
g11
(lp737
sg13
S'com.android.server.location.GnssLocationProvider$3'
p738
sg15
(lp739
sg17
(lp740
sg19
(lp741
sg21
I0
sba(iArchitecture
Entity
p742
(dp743
g11
(lp744
sg13
S'com.android.server.location.GnssLocationProvider$4'
p745
sg15
(lp746
sg17
(lp747
sg19
(lp748
sg21
I0
sba(iArchitecture
Entity
p749
(dp750
g11
(lp751
sg13
S'com.android.server.location.GnssLocationProvider$5'
p752
sg15
(lp753
sg17
(lp754
sg19
(lp755
sg21
I0
sba(iArchitecture
Entity
p756
(dp757
g11
(lp758
sg13
S'com.android.server.location.GnssLocationProvider$6'
p759
sg15
(lp760
sg17
(lp761
sg19
(lp762
sg21
I0
sba(iArchitecture
Entity
p763
(dp764
g11
(lp765
sg13
S'com.android.server.location.GnssLocationProvider$7'
p766
sg15
(lp767
sg17
(lp768
sg19
(lp769
sg21
I0
sba(iArchitecture
Entity
p770
(dp771
g11
(lp772
sg13
S'com.android.server.location.GnssLocationProvider$8'
p773
sg15
(lp774
sg17
(lp775
sg19
(lp776
sg21
I0
sba(iArchitecture
Entity
p777
(dp778
g11
(lp779
sg13
S'com.android.server.location.GnssLocationProvider$9'
p780
sg15
(lp781
sg17
(lp782
sg19
(lp783
sg21
I0
sba(iArchitecture
Entity
p784
(dp785
g11
(lp786
sg13
S'com.android.server.location.GnssLocationProvider$BackOff'
p787
sg15
(lp788
sg17
(lp789
sg19
(lp790
sg21
I0
sba(iArchitecture
Entity
p791
(dp792
g11
(lp793
sg13
S'com.android.server.location.GnssLocationProvider$GnssSystemInfoProvider'
p794
sg15
(lp795
sg17
(lp796
sg19
(lp797
sg21
I0
sba(iArchitecture
Entity
p798
(dp799
g11
(lp800
sg13
S'com.android.server.location.GnssLocationProvider$GpsRequest'
p801
sg15
(lp802
sg17
(lp803
sg19
(lp804
sg21
I0
sba(iArchitecture
Entity
p805
(dp806
g11
(lp807
sg13
S'com.android.server.location.GnssLocationProvider$NetworkLocationListener'
p808
sg15
(lp809
sg17
(lp810
sg19
(lp811
sg21
I0
sba(iArchitecture
Entity
p812
(dp813
g11
(lp814
sg13
S'com.android.server.location.GnssLocationProvider$ProviderHandler'
p815
sg15
(lp816
sg17
(lp817
sg19
(lp818
sg21
I0
sba(iArchitecture
Entity
p819
(dp820
g11
(lp821
sg13
S'com.android.server.location.GnssMeasurementsProvider'
p822
sg15
(lp823
sg17
(lp824
sg19
(lp825
sg21
I0
sba(iArchitecture
Entity
p826
(dp827
g11
(lp828
sg13
S'com.android.server.location.GnssMeasurementsProvider$1'
p829
sg15
(lp830
sg17
(lp831
sg19
(lp832
sg21
I0
sba(iArchitecture
Entity
p833
(dp834
g11
(lp835
sg13
S'com.android.server.location.GnssMeasurementsProvider$StatusChangedOperation'
p836
sg15
(lp837
sg17
(lp838
sg19
(lp839
sg21
I0
sba(iArchitecture
Entity
p840
(dp841
g11
(lp842
sg13
S'com.android.server.location.GnssNavigationMessageProvider'
p843
sg15
(lp844
sg17
(lp845
sg19
(lp846
sg21
I0
sba(iArchitecture
Entity
p847
(dp848
g11
(lp849
sg13
S'com.android.server.location.GnssNavigationMessageProvider$1'
p850
sg15
(lp851
sg17
(lp852
sg19
(lp853
sg21
I0
sba(iArchitecture
Entity
p854
(dp855
g11
(lp856
sg13
S'com.android.server.location.GnssNavigationMessageProvider$StatusChangedOperation'
p857
sg15
(lp858
sg17
(lp859
sg19
(lp860
sg21
I0
sba(iArchitecture
Entity
p861
(dp862
g11
(lp863
sg13
S'com.android.server.location.GnssStatusListenerHelper'
p864
sg15
(lp865
sg17
(lp866
sg19
(lp867
sg21
I0
sba(iArchitecture
Entity
p868
(dp869
g11
(lp870
sg13
S'com.android.server.location.GnssStatusListenerHelper$1'
p871
sg15
(lp872
sg17
(lp873
sg19
(lp874
sg21
I0
sba(iArchitecture
Entity
p875
(dp876
g11
(lp877
sg13
S'com.android.server.location.GnssStatusListenerHelper$2'
p878
sg15
(lp879
sg17
(lp880
sg19
(lp881
sg21
I0
sba(iArchitecture
Entity
p882
(dp883
g11
(lp884
sg13
S'com.android.server.location.GnssStatusListenerHelper$3'
p885
sg15
(lp886
sg17
(lp887
sg19
(lp888
sg21
I0
sba(iArchitecture
Entity
p889
(dp890
g11
(lp891
sg13
S'com.android.server.location.GnssStatusListenerHelper$4'
p892
sg15
(lp893
sg17
(lp894
sg19
(lp895
sg21
I0
sba(iArchitecture
Entity
p896
(dp897
g11
(lp898
sg13
S'com.android.server.location.GnssStatusListenerHelper$5'
p899
sg15
(lp900
sg17
(lp901
sg19
(lp902
sg21
I0
sba(iArchitecture
Entity
p903
(dp904
g11
(lp905
sg13
S'com.android.server.location.GnssStatusListenerHelper$Operation'
p906
sg15
(lp907
sg17
(lp908
sg19
(lp909
sg21
I0
sba(iArchitecture
Entity
p910
(dp911
g11
(lp912
sg13
S'com.android.server.location.GpsXtraDownloader'
p913
sg15
(lp914
sg17
(lp915
sg19
(lp916
sg21
I0
sba(iArchitecture
Entity
p917
(dp918
g11
(lp919
sg13
S'com.android.server.location.LocationBasedCountryDetector'
p920
sg15
(lp921
sg17
(lp922
sg19
(lp923
sg21
I0
sba(iArchitecture
Entity
p924
(dp925
g11
(lp926
sg13
S'com.android.server.location.LocationBasedCountryDetector$1'
p927
sg15
(lp928
sg17
(lp929
sg19
(lp930
sg21
I0
sba(iArchitecture
Entity
p931
(dp932
g11
(lp933
sg13
S'com.android.server.location.LocationBasedCountryDetector$2'
p934
sg15
(lp935
sg17
(lp936
sg19
(lp937
sg21
I0
sba(iArchitecture
Entity
p938
(dp939
g11
(lp940
sg13
S'com.android.server.location.LocationBasedCountryDetector$3'
p941
sg15
(lp942
sg17
(lp943
sg19
(lp944
sg21
I0
sba(iArchitecture
Entity
p945
(dp946
g11
(lp947
sg13
S'com.android.server.location.LocationFudger'
p948
sg15
(lp949
sg17
(lp950
sg19
(lp951
sg21
I0
sba(iArchitecture
Entity
p952
(dp953
g11
(lp954
sg13
S'com.android.server.location.LocationFudger$1'
p955
sg15
(lp956
sg17
(lp957
sg19
(lp958
sg21
I0
sba(iArchitecture
Entity
p959
(dp960
g11
(lp961
sg13
S'com.android.server.location.LocationProviderProxy'
p962
sg15
(lp963
sg17
(lp964
sg19
(lp965
sg21
I0
sba(iArchitecture
Entity
p966
(dp967
g11
(lp968
sg13
S'com.android.server.location.LocationProviderProxy$1'
p969
sg15
(lp970
sg17
(lp971
sg19
(lp972
sg21
I0
sba(iArchitecture
Entity
p973
(dp974
g11
(lp975
sg13
S'com.android.server.location.RemoteListenerHelper'
p976
sg15
(lp977
sg17
(lp978
sg19
(lp979
sg21
I0
sba(iArchitecture
Entity
p980
(dp981
g11
(lp982
sg13
S'com.android.server.location.RemoteListenerHelper$HandlerRunnable'
p983
sg15
(lp984
sg17
(lp985
sg19
(lp986
sg21
I0
sba(iArchitecture
Entity
p987
(dp988
g11
(lp989
sg13
S'com.android.server.location.RemoteListenerHelper$LinkedListener'
p990
sg15
(lp991
sg17
(lp992
sg19
(lp993
sg21
I0
sba(iArchitecture
Entity
p994
(dp995
g11
(lp996
sg13
S'com.android.server.location.RemoteListenerHelper$ListenerOperation'
p997
sg15
(lp998
sg17
(lp999
sg19
(lp1000
sg21
I0
sbasg456
(lp1001
g535
ag542
ag549
ag556
ag563
ag570
ag577
ag584
ag591
ag598
ag605
ag612
ag619
ag626
ag633
ag640
ag647
ag654
ag661
ag668
ag675
ag682
ag689
ag696
ag703
ag710
ag717
ag724
ag731
ag738
ag745
ag752
ag759
ag766
ag773
ag780
ag787
ag794
ag801
ag808
ag815
ag822
ag829
ag836
ag843
ag850
ag857
ag864
ag871
ag878
ag885
ag892
ag899
ag906
ag913
ag920
ag927
ag934
ag941
ag948
ag955
ag962
ag969
ag976
ag983
ag990
ag997
asg21
I0
sg458
S'com.android.server.location.ss'
p1002
sba(iArchitecture
Cluster
p1003
(dp1004
g7
(lp1005
(iArchitecture
Entity
p1006
(dp1007
g11
(lp1008
sg13
S'com.android.server.location.GeocoderProxy'
p1009
sg15
(lp1010
sg17
(lp1011
sg19
(lp1012
sg21
I0
sba(iArchitecture
Entity
p1013
(dp1014
g11
(lp1015
sg13
S'com.android.server.location.LocationBlacklist'
p1016
sg15
(lp1017
sg17
(lp1018
sg19
(lp1019
sg21
I0
sba(iArchitecture
Entity
p1020
(dp1021
g11
(lp1022
sg13
S'com.android.server.location.LocationProviderInterface'
p1023
sg15
(lp1024
sg17
(lp1025
sg19
(lp1026
sg21
I0
sba(iArchitecture
Entity
p1027
(dp1028
g11
(lp1029
sg13
S'com.android.server.location.LocationRequestStatistics'
p1030
sg15
(lp1031
sg17
(lp1032
sg19
(lp1033
sg21
I0
sba(iArchitecture
Entity
p1034
(dp1035
g11
(lp1036
sg13
S'com.android.server.location.LocationRequestStatistics$PackageProviderKey'
p1037
sg15
(lp1038
sg17
(lp1039
sg19
(lp1040
sg21
I0
sba(iArchitecture
Entity
p1041
(dp1042
g11
(lp1043
sg13
S'com.android.server.location.LocationRequestStatistics$PackageStatistics'
p1044
sg15
(lp1045
sg17
(lp1046
sg19
(lp1047
sg21
I0
sba(iArchitecture
Entity
p1048
(dp1049
g11
(lp1050
sg13
S'com.android.server.location.MockProvider'
p1051
sg15
(lp1052
sg17
(lp1053
sg19
(lp1054
sg21
I0
sba(iArchitecture
Entity
p1055
(dp1056
g11
(lp1057
sg13
S'com.android.server.location.PassiveProvider'
p1058
sg15
(lp1059
sg17
(lp1060
sg19
(lp1061
sg21
I0
sbasg456
(lp1062
g1009
ag1016
ag1023
ag1030
ag1037
ag1044
ag1051
ag1058
asg21
I0
sg458
S'com.android.server.ss'
p1063
sbasg521
g522
sg456
(lp1064
sg524
I00
sg458
S'7.0.0_r1'
p1065
sba.