(lp0
(iArchitecture
Architecture
p1
(dp2
S'clusters'
p3
(lp4
(iArchitecture
Cluster
p5
(dp6
S'entities'
p7
(lp8
(iArchitecture
Entity
p9
(dp10
S'issue_ids'
p11
(lp12
sS'name'
p13
S'android.net.IConnectivityManager'
p14
sS'descs'
p15
(lp16
sS'labels'
p17
(lp18
sS'titles'
p19
(lp20
sS'change'
p21
I0
sba(iArchitecture
Entity
p22
(dp23
g11
(lp24
sg13
S'android.net.IConnectivityManager$Stub'
p25
sg15
(lp26
sg17
(lp27
sg19
(lp28
sg21
I0
sba(iArchitecture
Entity
p29
(dp30
g11
(lp31
sg13
S'android.net.IConnectivityManager$Stub$Proxy'
p32
sg15
(lp33
sg17
(lp34
sg19
(lp35
sg21
I0
sba(iArchitecture
Entity
p36
(dp37
g11
(lp38
sg13
S'android.net.IEthernetManager'
p39
sg15
(lp40
sg17
(lp41
sg19
(lp42
sg21
I0
sba(iArchitecture
Entity
p43
(dp44
g11
(lp45
sg13
S'android.net.IEthernetManager$Stub'
p46
sg15
(lp47
sg17
(lp48
sg19
(lp49
sg21
I0
sba(iArchitecture
Entity
p50
(dp51
g11
(lp52
sg13
S'android.net.IEthernetManager$Stub$Proxy'
p53
sg15
(lp54
sg17
(lp55
sg19
(lp56
sg21
I0
sba(iArchitecture
Entity
p57
(dp58
g11
(lp59
sg13
S'android.net.INetworkPolicyListener'
p60
sg15
(lp61
sg17
(lp62
sg19
(lp63
sg21
I0
sba(iArchitecture
Entity
p64
(dp65
g11
(lp66
sg13
S'android.net.INetworkPolicyListener$Stub'
p67
sg15
(lp68
sg17
(lp69
sg19
(lp70
sg21
I0
sba(iArchitecture
Entity
p71
(dp72
g11
(lp73
sg13
S'android.net.INetworkPolicyListener$Stub$Proxy'
p74
sg15
(lp75
sg17
(lp76
sg19
(lp77
sg21
I0
sba(iArchitecture
Entity
p78
(dp79
g11
(lp80
sg13
S'android.net.INetworkPolicyManager'
p81
sg15
(lp82
sg17
(lp83
sg19
(lp84
sg21
I0
sba(iArchitecture
Entity
p85
(dp86
g11
(lp87
sg13
S'android.net.INetworkPolicyManager$Stub'
p88
sg15
(lp89
sg17
(lp90
sg19
(lp91
sg21
I0
sba(iArchitecture
Entity
p92
(dp93
g11
(lp94
sg13
S'android.net.INetworkPolicyManager$Stub$Proxy'
p95
sg15
(lp96
sg17
(lp97
sg19
(lp98
sg21
I0
sba(iArchitecture
Entity
p99
(dp100
g11
(lp101
sg13
S'android.net.INetworkScoreCache'
p102
sg15
(lp103
sg17
(lp104
sg19
(lp105
sg21
I0
sba(iArchitecture
Entity
p106
(dp107
g11
(lp108
sg13
S'android.net.INetworkScoreCache$Stub'
p109
sg15
(lp110
sg17
(lp111
sg19
(lp112
sg21
I0
sba(iArchitecture
Entity
p113
(dp114
g11
(lp115
sg13
S'android.net.INetworkScoreCache$Stub$Proxy'
p116
sg15
(lp117
sg17
(lp118
sg19
(lp119
sg21
I0
sba(iArchitecture
Entity
p120
(dp121
g11
(lp122
sg13
S'android.net.INetworkScoreService'
p123
sg15
(lp124
sg17
(lp125
sg19
(lp126
sg21
I0
sba(iArchitecture
Entity
p127
(dp128
g11
(lp129
sg13
S'android.net.INetworkScoreService$Stub'
p130
sg15
(lp131
sg17
(lp132
sg19
(lp133
sg21
I0
sba(iArchitecture
Entity
p134
(dp135
g11
(lp136
sg13
S'android.net.INetworkScoreService$Stub$Proxy'
p137
sg15
(lp138
sg17
(lp139
sg19
(lp140
sg21
I0
sba(iArchitecture
Entity
p141
(dp142
g11
(lp143
sg13
S'android.net.NetworkPolicyManager'
p144
sg15
(lp145
sg17
(lp146
sg19
(lp147
sg21
I0
sba(iArchitecture
Entity
p148
(dp149
g11
(lp150
sg13
S'android.net.NetworkScoreManager'
p151
sg15
(lp152
sg17
(lp153
sg19
(lp154
sg21
I0
sba(iArchitecture
Entity
p155
(dp156
g11
(lp157
sg13
S'android.net.nsd.INsdManager'
p158
sg15
(lp159
sg17
(lp160
sg19
(lp161
sg21
I0
sba(iArchitecture
Entity
p162
(dp163
g11
(lp164
sg13
S'android.net.nsd.INsdManager$Stub'
p165
sg15
(lp166
sg17
(lp167
sg19
(lp168
sg21
I0
sba(iArchitecture
Entity
p169
(dp170
g11
(lp171
sg13
S'android.net.nsd.INsdManager$Stub$Proxy'
p172
sg15
(lp173
sg17
(lp174
sg19
(lp175
sg21
I0
sba(iArchitecture
Entity
p176
(dp177
g11
(lp178
sg13
S'android.net.wifi.IRttManager'
p179
sg15
(lp180
sg17
(lp181
sg19
(lp182
sg21
I0
sba(iArchitecture
Entity
p183
(dp184
g11
(lp185
sg13
S'android.net.wifi.IRttManager$Stub'
p186
sg15
(lp187
sg17
(lp188
sg19
(lp189
sg21
I0
sba(iArchitecture
Entity
p190
(dp191
g11
(lp192
sg13
S'android.net.wifi.IRttManager$Stub$Proxy'
p193
sg15
(lp194
sg17
(lp195
sg19
(lp196
sg21
I0
sba(iArchitecture
Entity
p197
(dp198
g11
(lp199
sg13
S'android.net.wifi.IWifiManager$Stub'
p200
sg15
(lp201
sg17
(lp202
sg19
(lp203
sg21
I0
sba(iArchitecture
Entity
p204
(dp205
g11
(lp206
sg13
S'android.net.wifi.IWifiManager$Stub$Proxy'
p207
sg15
(lp208
sg17
(lp209
sg19
(lp210
sg21
I0
sba(iArchitecture
Entity
p211
(dp212
g11
(lp213
sg13
S'android.net.wifi.IWifiScanner'
p214
sg15
(lp215
sg17
(lp216
sg19
(lp217
sg21
I0
sba(iArchitecture
Entity
p218
(dp219
g11
(lp220
sg13
S'android.net.wifi.IWifiScanner$Stub'
p221
sg15
(lp222
sg17
(lp223
sg19
(lp224
sg21
I0
sba(iArchitecture
Entity
p225
(dp226
g11
(lp227
sg13
S'android.net.wifi.IWifiScanner$Stub$Proxy'
p228
sg15
(lp229
sg17
(lp230
sg19
(lp231
sg21
I0
sba(iArchitecture
Entity
p232
(dp233
g11
(lp234
sg13
S'android.net.wifi.RttManager$RttCapabilities'
p235
sg15
(lp236
sg17
(lp237
sg19
(lp238
sg21
I0
sba(iArchitecture
Entity
p239
(dp240
g11
(lp241
sg13
S'android.net.wifi.RttManager$RttCapabilities$1'
p242
sg15
(lp243
sg17
(lp244
sg19
(lp245
sg21
I0
sba(iArchitecture
Entity
p246
(dp247
g11
(lp248
sg13
S'android.net.wifi.p2p.IWifiP2pManager'
p249
sg15
(lp250
sg17
(lp251
sg19
(lp252
sg21
I0
sba(iArchitecture
Entity
p253
(dp254
g11
(lp255
sg13
S'android.net.wifi.p2p.IWifiP2pManager$Stub'
p256
sg15
(lp257
sg17
(lp258
sg19
(lp259
sg21
I0
sba(iArchitecture
Entity
p260
(dp261
g11
(lp262
sg13
S'android.net.wifi.p2p.IWifiP2pManager$Stub$Proxy'
p263
sg15
(lp264
sg17
(lp265
sg19
(lp266
sg21
I0
sba(iArchitecture
Entity
p267
(dp268
g11
(lp269
sg13
S'android.net.wifi.p2p.WifiP2pManager'
p270
sg15
(lp271
sg17
(lp272
sg19
(lp273
sg21
I0
sba(iArchitecture
Entity
p274
(dp275
g11
(lp276
sg13
S'android.net.wifi.p2p.WifiP2pManager$Channel'
p277
sg15
(lp278
sg17
(lp279
sg19
(lp280
sg21
I0
sba(iArchitecture
Entity
p281
(dp282
g11
(lp283
sg13
S'android.net.wifi.p2p.WifiP2pManager$Channel$P2pHandler'
p284
sg15
(lp285
sg17
(lp286
sg19
(lp287
sg21
I0
sba(iArchitecture
Entity
p288
(dp289
g11
(lp290
sg13
S'android.net.wifi.p2p.WifiP2pManager$ChannelListener'
p291
sg15
(lp292
sg17
(lp293
sg19
(lp294
sg21
I0
sba(iArchitecture
Entity
p295
(dp296
g11
(lp297
sg13
S'android.net.wifi.p2p.WifiP2pManager$ConnectionInfoListener'
p298
sg15
(lp299
sg17
(lp300
sg19
(lp301
sg21
I0
sba(iArchitecture
Entity
p302
(dp303
g11
(lp304
sg13
S'android.net.wifi.p2p.WifiP2pManager$DnsSdServiceResponseListener'
p305
sg15
(lp306
sg17
(lp307
sg19
(lp308
sg21
I0
sba(iArchitecture
Entity
p309
(dp310
g11
(lp311
sg13
S'android.net.wifi.p2p.WifiP2pManager$DnsSdTxtRecordListener'
p312
sg15
(lp313
sg17
(lp314
sg19
(lp315
sg21
I0
sba(iArchitecture
Entity
p316
(dp317
g11
(lp318
sg13
S'android.net.wifi.p2p.WifiP2pManager$GroupInfoListener'
p319
sg15
(lp320
sg17
(lp321
sg19
(lp322
sg21
I0
sba(iArchitecture
Entity
p323
(dp324
g11
(lp325
sg13
S'android.net.wifi.p2p.WifiP2pManager$HandoverMessageListener'
p326
sg15
(lp327
sg17
(lp328
sg19
(lp329
sg21
I0
sba(iArchitecture
Entity
p330
(dp331
g11
(lp332
sg13
S'android.net.wifi.p2p.WifiP2pManager$PeerListListener'
p333
sg15
(lp334
sg17
(lp335
sg19
(lp336
sg21
I0
sba(iArchitecture
Entity
p337
(dp338
g11
(lp339
sg13
S'android.net.wifi.p2p.WifiP2pManager$PersistentGroupInfoListener'
p340
sg15
(lp341
sg17
(lp342
sg19
(lp343
sg21
I0
sba(iArchitecture
Entity
p344
(dp345
g11
(lp346
sg13
S'android.net.wifi.p2p.WifiP2pManager$ServiceResponseListener'
p347
sg15
(lp348
sg17
(lp349
sg19
(lp350
sg21
I0
sba(iArchitecture
Entity
p351
(dp352
g11
(lp353
sg13
S'android.net.wifi.p2p.WifiP2pManager$UpnpServiceResponseListener'
p354
sg15
(lp355
sg17
(lp356
sg19
(lp357
sg21
I0
sba(iArchitecture
Entity
p358
(dp359
g11
(lp360
sg13
S'android.net.wifi.passpoint.IWifiPasspointManager'
p361
sg15
(lp362
sg17
(lp363
sg19
(lp364
sg21
I0
sba(iArchitecture
Entity
p365
(dp366
g11
(lp367
sg13
S'android.net.wifi.passpoint.IWifiPasspointManager$Stub'
p368
sg15
(lp369
sg17
(lp370
sg19
(lp371
sg21
I0
sba(iArchitecture
Entity
p372
(dp373
g11
(lp374
sg13
S'android.net.wifi.passpoint.IWifiPasspointManager$Stub$Proxy'
p375
sg15
(lp376
sg17
(lp377
sg19
(lp378
sg21
I0
sbasS'classes'
p379
(lp380
g14
ag25
ag32
ag39
ag46
ag53
ag60
ag67
ag74
ag81
ag88
ag95
ag102
ag109
ag116
ag123
ag130
ag137
ag144
ag151
ag158
ag165
ag172
ag179
ag186
ag193
ag200
ag207
ag214
ag221
ag228
ag235
ag242
ag249
ag256
ag263
ag270
ag277
ag284
ag291
ag298
ag305
ag312
ag319
ag326
ag333
ag340
ag347
ag354
ag361
ag368
ag375
asg21
I0
sS'label'
p381
S'android.app.ss'
p382
sba(iArchitecture
Cluster
p383
(dp384
g7
(lp385
(iArchitecture
Entity
p386
(dp387
g11
(lp388
sg13
S'android.net.BaseDhcpStateMachine'
p389
sg15
(lp390
sg17
(lp391
sg19
(lp392
sg21
I0
sba(iArchitecture
Entity
p393
(dp394
g11
(lp395
sg13
S'android.net.dhcp.DhcpAckPacket'
p396
sg15
(lp397
sg17
(lp398
sg19
(lp399
sg21
I0
sba(iArchitecture
Entity
p400
(dp401
g11
(lp402
sg13
S'android.net.dhcp.DhcpClient'
p403
sg15
(lp404
sg17
(lp405
sg19
(lp406
sg21
I0
sba(iArchitecture
Entity
p407
(dp408
g11
(lp409
sg13
S'android.net.dhcp.DhcpClient$1'
p410
sg15
(lp411
sg17
(lp412
sg19
(lp413
sg21
I0
sba(iArchitecture
Entity
p414
(dp415
g11
(lp416
sg13
S'android.net.dhcp.DhcpClient$DhcpBoundState'
p417
sg15
(lp418
sg17
(lp419
sg19
(lp420
sg21
I0
sba(iArchitecture
Entity
p421
(dp422
g11
(lp423
sg13
S'android.net.dhcp.DhcpClient$DhcpHaveAddressState'
p424
sg15
(lp425
sg17
(lp426
sg19
(lp427
sg21
I0
sba(iArchitecture
Entity
p428
(dp429
g11
(lp430
sg13
S'android.net.dhcp.DhcpClient$DhcpInitRebootState'
p431
sg15
(lp432
sg17
(lp433
sg19
(lp434
sg21
I0
sba(iArchitecture
Entity
p435
(dp436
g11
(lp437
sg13
S'android.net.dhcp.DhcpClient$DhcpInitState'
p438
sg15
(lp439
sg17
(lp440
sg19
(lp441
sg21
I0
sba(iArchitecture
Entity
p442
(dp443
g11
(lp444
sg13
S'android.net.dhcp.DhcpClient$DhcpRebindingState'
p445
sg15
(lp446
sg17
(lp447
sg19
(lp448
sg21
I0
sba(iArchitecture
Entity
p449
(dp450
g11
(lp451
sg13
S'android.net.dhcp.DhcpClient$DhcpRebootingState'
p452
sg15
(lp453
sg17
(lp454
sg19
(lp455
sg21
I0
sba(iArchitecture
Entity
p456
(dp457
g11
(lp458
sg13
S'android.net.dhcp.DhcpClient$DhcpRenewingState'
p459
sg15
(lp460
sg17
(lp461
sg19
(lp462
sg21
I0
sba(iArchitecture
Entity
p463
(dp464
g11
(lp465
sg13
S'android.net.dhcp.DhcpClient$DhcpRequestingState'
p466
sg15
(lp467
sg17
(lp468
sg19
(lp469
sg21
I0
sba(iArchitecture
Entity
p470
(dp471
g11
(lp472
sg13
S'android.net.dhcp.DhcpClient$DhcpSelectingState'
p473
sg15
(lp474
sg17
(lp475
sg19
(lp476
sg21
I0
sba(iArchitecture
Entity
p477
(dp478
g11
(lp479
sg13
S'android.net.dhcp.DhcpClient$DhcpState'
p480
sg15
(lp481
sg17
(lp482
sg19
(lp483
sg21
I0
sba(iArchitecture
Entity
p484
(dp485
g11
(lp486
sg13
S'android.net.dhcp.DhcpClient$LoggingState'
p487
sg15
(lp488
sg17
(lp489
sg19
(lp490
sg21
I0
sba(iArchitecture
Entity
p491
(dp492
g11
(lp493
sg13
S'android.net.dhcp.DhcpClient$PacketRetransmittingState'
p494
sg15
(lp495
sg17
(lp496
sg19
(lp497
sg21
I0
sba(iArchitecture
Entity
p498
(dp499
g11
(lp500
sg13
S'android.net.dhcp.DhcpClient$ReceiveThread'
p501
sg15
(lp502
sg17
(lp503
sg19
(lp504
sg21
I0
sba(iArchitecture
Entity
p505
(dp506
g11
(lp507
sg13
S'android.net.dhcp.DhcpClient$StoppedState'
p508
sg15
(lp509
sg17
(lp510
sg19
(lp511
sg21
I0
sba(iArchitecture
Entity
p512
(dp513
g11
(lp514
sg13
S'android.net.dhcp.DhcpClient$WaitBeforeOtherState'
p515
sg15
(lp516
sg17
(lp517
sg19
(lp518
sg21
I0
sba(iArchitecture
Entity
p519
(dp520
g11
(lp521
sg13
S'android.net.dhcp.DhcpClient$WaitBeforeRenewalState'
p522
sg15
(lp523
sg17
(lp524
sg19
(lp525
sg21
I0
sba(iArchitecture
Entity
p526
(dp527
g11
(lp528
sg13
S'android.net.dhcp.DhcpClient$WaitBeforeStartState'
p529
sg15
(lp530
sg17
(lp531
sg19
(lp532
sg21
I0
sba(iArchitecture
Entity
p533
(dp534
g11
(lp535
sg13
S'android.net.dhcp.DhcpDeclinePacket'
p536
sg15
(lp537
sg17
(lp538
sg19
(lp539
sg21
I0
sba(iArchitecture
Entity
p540
(dp541
g11
(lp542
sg13
S'android.net.dhcp.DhcpDiscoverPacket'
p543
sg15
(lp544
sg17
(lp545
sg19
(lp546
sg21
I0
sba(iArchitecture
Entity
p547
(dp548
g11
(lp549
sg13
S'android.net.dhcp.DhcpInformPacket'
p550
sg15
(lp551
sg17
(lp552
sg19
(lp553
sg21
I0
sba(iArchitecture
Entity
p554
(dp555
g11
(lp556
sg13
S'android.net.dhcp.DhcpNakPacket'
p557
sg15
(lp558
sg17
(lp559
sg19
(lp560
sg21
I0
sba(iArchitecture
Entity
p561
(dp562
g11
(lp563
sg13
S'android.net.dhcp.DhcpOfferPacket'
p564
sg15
(lp565
sg17
(lp566
sg19
(lp567
sg21
I0
sba(iArchitecture
Entity
p568
(dp569
g11
(lp570
sg13
S'android.net.dhcp.DhcpPacket'
p571
sg15
(lp572
sg17
(lp573
sg19
(lp574
sg21
I0
sba(iArchitecture
Entity
p575
(dp576
g11
(lp577
sg13
S'android.net.dhcp.DhcpRequestPacket'
p578
sg15
(lp579
sg17
(lp580
sg19
(lp581
sg21
I0
sbasg379
(lp582
g389
ag396
ag403
ag410
ag417
ag424
ag431
ag438
ag445
ag452
ag459
ag466
ag473
ag480
ag487
ag494
ag501
ag508
ag515
ag522
ag529
ag536
ag543
ag550
ag557
ag564
ag571
ag578
asg21
I0
sg381
S'android.net.dhcp.ss'
p583
sba(iArchitecture
Cluster
p584
(dp585
g7
(lp586
(iArchitecture
Entity
p587
(dp588
g11
(lp589
sg13
S'android.net.http.HttpResponseCache'
p590
sg15
(lp591
sg17
(lp592
sg19
(lp593
sg21
I0
sba(iArchitecture
Entity
p594
(dp595
g11
(lp596
sg13
S'android.net.http.SslCertificate'
p597
sg15
(lp598
sg17
(lp599
sg19
(lp600
sg21
I0
sba(iArchitecture
Entity
p601
(dp602
g11
(lp603
sg13
S'android.net.http.SslCertificate$DName'
p604
sg15
(lp605
sg17
(lp606
sg19
(lp607
sg21
I0
sba(iArchitecture
Entity
p608
(dp609
g11
(lp610
sg13
S'android.net.http.X509TrustManagerExtensions'
p611
sg15
(lp612
sg17
(lp613
sg19
(lp614
sg21
I0
sbasg379
(lp615
g590
ag597
ag604
ag611
asg21
I0
sg381
S'android.net.http.ss'
p616
sba(iArchitecture
Cluster
p617
(dp618
g7
(lp619
(iArchitecture
Entity
p620
(dp621
g11
(lp622
sg13
S'android.net.netlink.RtNetlinkNeighborMessage'
p623
sg15
(lp624
sg17
(lp625
sg19
(lp626
sg21
I0
sba(iArchitecture
Entity
p627
(dp628
g11
(lp629
sg13
S'android.net.netlink.StructNdaCacheInfo'
p630
sg15
(lp631
sg17
(lp632
sg19
(lp633
sg21
I0
sba(iArchitecture
Entity
p634
(dp635
g11
(lp636
sg13
S'android.net.netlink.StructNlAttr'
p637
sg15
(lp638
sg17
(lp639
sg19
(lp640
sg21
I0
sbasg379
(lp641
g623
ag630
ag637
asg21
I0
sg381
S'android.net.netlink.ss'
p642
sba(iArchitecture
Cluster
p643
(dp644
g7
(lp645
(iArchitecture
Entity
p646
(dp647
g11
(lp648
sg13
S'android.net.nsd.DnsSdTxtRecord'
p649
sg15
(lp650
sg17
(lp651
sg19
(lp652
sg21
I0
sba(iArchitecture
Entity
p653
(dp654
g11
(lp655
sg13
S'android.net.nsd.DnsSdTxtRecord$1'
p656
sg15
(lp657
sg17
(lp658
sg19
(lp659
sg21
I0
sba(iArchitecture
Entity
p660
(dp661
g11
(lp662
sg13
S'android.net.nsd.NsdManager'
p663
sg15
(lp664
sg17
(lp665
sg19
(lp666
sg21
I0
sba(iArchitecture
Entity
p667
(dp668
g11
(lp669
sg13
S'android.net.nsd.NsdManager$DiscoveryListener'
p670
sg15
(lp671
sg17
(lp672
sg19
(lp673
sg21
I0
sba(iArchitecture
Entity
p674
(dp675
g11
(lp676
sg13
S'android.net.nsd.NsdManager$RegistrationListener'
p677
sg15
(lp678
sg17
(lp679
sg19
(lp680
sg21
I0
sba(iArchitecture
Entity
p681
(dp682
g11
(lp683
sg13
S'android.net.nsd.NsdManager$ResolveListener'
p684
sg15
(lp685
sg17
(lp686
sg19
(lp687
sg21
I0
sba(iArchitecture
Entity
p688
(dp689
g11
(lp690
sg13
S'android.net.nsd.NsdManager$ServiceHandler'
p691
sg15
(lp692
sg17
(lp693
sg19
(lp694
sg21
I0
sba(iArchitecture
Entity
p695
(dp696
g11
(lp697
sg13
S'android.net.nsd.NsdServiceInfo'
p698
sg15
(lp699
sg17
(lp700
sg19
(lp701
sg21
I0
sba(iArchitecture
Entity
p702
(dp703
g11
(lp704
sg13
S'android.net.nsd.NsdServiceInfo$1'
p705
sg15
(lp706
sg17
(lp707
sg19
(lp708
sg21
I0
sbasg379
(lp709
g649
ag656
ag663
ag670
ag677
ag684
ag691
ag698
ag705
asg21
I0
sg381
S'android.net.nsd.ss'
p710
sba(iArchitecture
Cluster
p711
(dp712
g7
(lp713
(iArchitecture
Entity
p714
(dp715
g11
(lp716
sg13
S'android.net.CaptivePortal'
p717
sg15
(lp718
sg17
(lp719
sg19
(lp720
sg21
I0
sba(iArchitecture
Entity
p721
(dp722
g11
(lp723
sg13
S'android.net.CaptivePortal$1'
p724
sg15
(lp725
sg17
(lp726
sg19
(lp727
sg21
I0
sba(iArchitecture
Entity
p728
(dp729
g11
(lp730
sg13
S'android.net.ConnectivityManager'
p731
sg15
(lp732
sg17
(lp733
sg19
(lp734
sg21
I0
sba(iArchitecture
Entity
p735
(dp736
g11
(lp737
sg13
S'android.net.ConnectivityManager$1'
p738
sg15
(lp739
sg17
(lp740
sg19
(lp741
sg21
I0
sba(iArchitecture
Entity
p742
(dp743
g11
(lp744
sg13
S'android.net.ConnectivityManager$CallbackHandler'
p745
sg15
(lp746
sg17
(lp747
sg19
(lp748
sg21
I0
sba(iArchitecture
Entity
p749
(dp750
g11
(lp751
sg13
S'android.net.ConnectivityManager$LegacyRequest'
p752
sg15
(lp753
sg17
(lp754
sg19
(lp755
sg21
I0
sba(iArchitecture
Entity
p756
(dp757
g11
(lp758
sg13
S'android.net.ConnectivityManager$LegacyRequest$1'
p759
sg15
(lp760
sg17
(lp761
sg19
(lp762
sg21
I0
sba(iArchitecture
Entity
p763
(dp764
g11
(lp765
sg13
S'android.net.ConnectivityManager$NetworkCallback'
p766
sg15
(lp767
sg17
(lp768
sg19
(lp769
sg21
I0
sba(iArchitecture
Entity
p770
(dp771
g11
(lp772
sg13
S'android.net.ConnectivityManager$OnNetworkActiveListener'
p773
sg15
(lp774
sg17
(lp775
sg19
(lp776
sg21
I0
sba(iArchitecture
Entity
p777
(dp778
g11
(lp779
sg13
S'android.net.DhcpInfo'
p780
sg15
(lp781
sg17
(lp782
sg19
(lp783
sg21
I0
sba(iArchitecture
Entity
p784
(dp785
g11
(lp786
sg13
S'android.net.DhcpInfo$1'
p787
sg15
(lp788
sg17
(lp789
sg19
(lp790
sg21
I0
sba(iArchitecture
Entity
p791
(dp792
g11
(lp793
sg13
S'android.net.DhcpResults'
p794
sg15
(lp795
sg17
(lp796
sg19
(lp797
sg21
I0
sba(iArchitecture
Entity
p798
(dp799
g11
(lp800
sg13
S'android.net.DhcpResults$1'
p801
sg15
(lp802
sg17
(lp803
sg19
(lp804
sg21
I0
sba(iArchitecture
Entity
p805
(dp806
g11
(lp807
sg13
S'android.net.DhcpStateMachine'
p808
sg15
(lp809
sg17
(lp810
sg19
(lp811
sg21
I0
sba(iArchitecture
Entity
p812
(dp813
g11
(lp814
sg13
S'android.net.DhcpStateMachine$1'
p815
sg15
(lp816
sg17
(lp817
sg19
(lp818
sg21
I0
sba(iArchitecture
Entity
p819
(dp820
g11
(lp821
sg13
S'android.net.DhcpStateMachine$DefaultState'
p822
sg15
(lp823
sg17
(lp824
sg19
(lp825
sg21
I0
sba(iArchitecture
Entity
p826
(dp827
g11
(lp828
sg13
S'android.net.DhcpStateMachine$PollingState'
p829
sg15
(lp830
sg17
(lp831
sg19
(lp832
sg21
I0
sba(iArchitecture
Entity
p833
(dp834
g11
(lp835
sg13
S'android.net.DhcpStateMachine$RunningState'
p836
sg15
(lp837
sg17
(lp838
sg19
(lp839
sg21
I0
sba(iArchitecture
Entity
p840
(dp841
g11
(lp842
sg13
S'android.net.DhcpStateMachine$StoppedState'
p843
sg15
(lp844
sg17
(lp845
sg19
(lp846
sg21
I0
sba(iArchitecture
Entity
p847
(dp848
g11
(lp849
sg13
S'android.net.DhcpStateMachine$WaitBeforeRenewalState'
p850
sg15
(lp851
sg17
(lp852
sg19
(lp853
sg21
I0
sba(iArchitecture
Entity
p854
(dp855
g11
(lp856
sg13
S'android.net.DhcpStateMachine$WaitBeforeStartState'
p857
sg15
(lp858
sg17
(lp859
sg19
(lp860
sg21
I0
sba(iArchitecture
Entity
p861
(dp862
g11
(lp863
sg13
S'android.net.DnsPinger'
p864
sg15
(lp865
sg17
(lp866
sg19
(lp867
sg21
I0
sba(iArchitecture
Entity
p868
(dp869
g11
(lp870
sg13
S'android.net.DnsPinger$ActivePing'
p871
sg15
(lp872
sg17
(lp873
sg19
(lp874
sg21
I0
sba(iArchitecture
Entity
p875
(dp876
g11
(lp877
sg13
S'android.net.DnsPinger$DnsArg'
p878
sg15
(lp879
sg17
(lp880
sg19
(lp881
sg21
I0
sba(iArchitecture
Entity
p882
(dp883
g11
(lp884
sg13
S'android.net.EthernetManager'
p885
sg15
(lp886
sg17
(lp887
sg19
(lp888
sg21
I0
sba(iArchitecture
Entity
p889
(dp890
g11
(lp891
sg13
S'android.net.EthernetManager$1'
p892
sg15
(lp893
sg17
(lp894
sg19
(lp895
sg21
I0
sba(iArchitecture
Entity
p896
(dp897
g11
(lp898
sg13
S'android.net.EthernetManager$2'
p899
sg15
(lp900
sg17
(lp901
sg19
(lp902
sg21
I0
sba(iArchitecture
Entity
p903
(dp904
g11
(lp905
sg13
S'android.net.EthernetManager$Listener'
p906
sg15
(lp907
sg17
(lp908
sg19
(lp909
sg21
I0
sba(iArchitecture
Entity
p910
(dp911
g11
(lp912
sg13
S'android.net.IEthernetServiceListener'
p913
sg15
(lp914
sg17
(lp915
sg19
(lp916
sg21
I0
sba(iArchitecture
Entity
p917
(dp918
g11
(lp919
sg13
S'android.net.IEthernetServiceListener$Stub'
p920
sg15
(lp921
sg17
(lp922
sg19
(lp923
sg21
I0
sba(iArchitecture
Entity
p924
(dp925
g11
(lp926
sg13
S'android.net.IEthernetServiceListener$Stub$Proxy'
p927
sg15
(lp928
sg17
(lp929
sg19
(lp930
sg21
I0
sba(iArchitecture
Entity
p931
(dp932
g11
(lp933
sg13
S'android.net.InterfaceConfiguration'
p934
sg15
(lp935
sg17
(lp936
sg19
(lp937
sg21
I0
sba(iArchitecture
Entity
p938
(dp939
g11
(lp940
sg13
S'android.net.InterfaceConfiguration$1'
p941
sg15
(lp942
sg17
(lp943
sg19
(lp944
sg21
I0
sba(iArchitecture
Entity
p945
(dp946
g11
(lp947
sg13
S'android.net.IpConfiguration'
p948
sg15
(lp949
sg17
(lp950
sg19
(lp951
sg21
I0
sba(iArchitecture
Entity
p952
(dp953
g11
(lp954
sg13
S'android.net.IpConfiguration$1'
p955
sg15
(lp956
sg17
(lp957
sg19
(lp958
sg21
I0
sba(iArchitecture
Entity
p959
(dp960
g11
(lp961
sg13
S'android.net.IpConfiguration$IpAssignment'
p962
sg15
(lp963
sg17
(lp964
sg19
(lp965
sg21
I0
sba(iArchitecture
Entity
p966
(dp967
g11
(lp968
sg13
S'android.net.IpConfiguration$ProxySettings'
p969
sg15
(lp970
sg17
(lp971
sg19
(lp972
sg21
I0
sba(iArchitecture
Entity
p973
(dp974
g11
(lp975
sg13
S'android.net.IpPrefix'
p976
sg15
(lp977
sg17
(lp978
sg19
(lp979
sg21
I0
sba(iArchitecture
Entity
p980
(dp981
g11
(lp982
sg13
S'android.net.IpPrefix$1'
p983
sg15
(lp984
sg17
(lp985
sg19
(lp986
sg21
I0
sba(iArchitecture
Entity
p987
(dp988
g11
(lp989
sg13
S'android.net.IpReachabilityMonitor'
p990
sg15
(lp991
sg17
(lp992
sg19
(lp993
sg21
I0
sba(iArchitecture
Entity
p994
(dp995
g11
(lp996
sg13
S'android.net.IpReachabilityMonitor$Callback'
p997
sg15
(lp998
sg17
(lp999
sg19
(lp1000
sg21
I0
sba(iArchitecture
Entity
p1001
(dp1002
g11
(lp1003
sg13
S'android.net.IpReachabilityMonitor$NetlinkSocketObserver'
p1004
sg15
(lp1005
sg17
(lp1006
sg19
(lp1007
sg21
I0
sba(iArchitecture
Entity
p1008
(dp1009
g11
(lp1010
sg13
S'android.net.LinkAddress'
p1011
sg15
(lp1012
sg17
(lp1013
sg19
(lp1014
sg21
I0
sba(iArchitecture
Entity
p1015
(dp1016
g11
(lp1017
sg13
S'android.net.LinkAddress$1'
p1018
sg15
(lp1019
sg17
(lp1020
sg19
(lp1021
sg21
I0
sba(iArchitecture
Entity
p1022
(dp1023
g11
(lp1024
sg13
S'android.net.LinkProperties'
p1025
sg15
(lp1026
sg17
(lp1027
sg19
(lp1028
sg21
I0
sba(iArchitecture
Entity
p1029
(dp1030
g11
(lp1031
sg13
S'android.net.LinkProperties$1'
p1032
sg15
(lp1033
sg17
(lp1034
sg19
(lp1035
sg21
I0
sba(iArchitecture
Entity
p1036
(dp1037
g11
(lp1038
sg13
S'android.net.LinkProperties$ProvisioningChange'
p1039
sg15
(lp1040
sg17
(lp1041
sg19
(lp1042
sg21
I0
sba(iArchitecture
Entity
p1043
(dp1044
g11
(lp1045
sg13
S'android.net.LinkQualityInfo'
p1046
sg15
(lp1047
sg17
(lp1048
sg19
(lp1049
sg21
I0
sba(iArchitecture
Entity
p1050
(dp1051
g11
(lp1052
sg13
S'android.net.LinkQualityInfo$1'
p1053
sg15
(lp1054
sg17
(lp1055
sg19
(lp1056
sg21
I0
sba(iArchitecture
Entity
p1057
(dp1058
g11
(lp1059
sg13
S'android.net.LocalSocketImpl'
p1060
sg15
(lp1061
sg17
(lp1062
sg19
(lp1063
sg21
I0
sba(iArchitecture
Entity
p1064
(dp1065
g11
(lp1066
sg13
S'android.net.LocalSocketImpl$SocketInputStream'
p1067
sg15
(lp1068
sg17
(lp1069
sg19
(lp1070
sg21
I0
sba(iArchitecture
Entity
p1071
(dp1072
g11
(lp1073
sg13
S'android.net.LocalSocketImpl$SocketOutputStream'
p1074
sg15
(lp1075
sg17
(lp1076
sg19
(lp1077
sg21
I0
sba(iArchitecture
Entity
p1078
(dp1079
g11
(lp1080
sg13
S'android.net.MobileLinkQualityInfo'
p1081
sg15
(lp1082
sg17
(lp1083
sg19
(lp1084
sg21
I0
sba(iArchitecture
Entity
p1085
(dp1086
g11
(lp1087
sg13
S'android.net.Network'
p1088
sg15
(lp1089
sg17
(lp1090
sg19
(lp1091
sg21
I0
sba(iArchitecture
Entity
p1092
(dp1093
g11
(lp1094
sg13
S'android.net.Network$1'
p1095
sg15
(lp1096
sg17
(lp1097
sg19
(lp1098
sg21
I0
sba(iArchitecture
Entity
p1099
(dp1100
g11
(lp1101
sg13
S'android.net.Network$2'
p1102
sg15
(lp1103
sg17
(lp1104
sg19
(lp1105
sg21
I0
sba(iArchitecture
Entity
p1106
(dp1107
g11
(lp1108
sg13
S'android.net.Network$NetworkBoundSocketFactory'
p1109
sg15
(lp1110
sg17
(lp1111
sg19
(lp1112
sg21
I0
sba(iArchitecture
Entity
p1113
(dp1114
g11
(lp1115
sg13
S'android.net.NetworkCapabilities'
p1116
sg15
(lp1117
sg17
(lp1118
sg19
(lp1119
sg21
I0
sba(iArchitecture
Entity
p1120
(dp1121
g11
(lp1122
sg13
S'android.net.NetworkCapabilities$1'
p1123
sg15
(lp1124
sg17
(lp1125
sg19
(lp1126
sg21
I0
sba(iArchitecture
Entity
p1127
(dp1128
g11
(lp1129
sg13
S'android.net.NetworkFactory'
p1130
sg15
(lp1131
sg17
(lp1132
sg19
(lp1133
sg21
I0
sba(iArchitecture
Entity
p1134
(dp1135
g11
(lp1136
sg13
S'android.net.NetworkFactory$NetworkRequestInfo'
p1137
sg15
(lp1138
sg17
(lp1139
sg19
(lp1140
sg21
I0
sba(iArchitecture
Entity
p1141
(dp1142
g11
(lp1143
sg13
S'android.net.NetworkInfo'
p1144
sg15
(lp1145
sg17
(lp1146
sg19
(lp1147
sg21
I0
sba(iArchitecture
Entity
p1148
(dp1149
g11
(lp1150
sg13
S'android.net.NetworkInfo$1'
p1151
sg15
(lp1152
sg17
(lp1153
sg19
(lp1154
sg21
I0
sba(iArchitecture
Entity
p1155
(dp1156
g11
(lp1157
sg13
S'android.net.NetworkKey'
p1158
sg15
(lp1159
sg17
(lp1160
sg19
(lp1161
sg21
I0
sba(iArchitecture
Entity
p1162
(dp1163
g11
(lp1164
sg13
S'android.net.NetworkKey$1'
p1165
sg15
(lp1166
sg17
(lp1167
sg19
(lp1168
sg21
I0
sba(iArchitecture
Entity
p1169
(dp1170
g11
(lp1171
sg13
S'android.net.NetworkMisc'
p1172
sg15
(lp1173
sg17
(lp1174
sg19
(lp1175
sg21
I0
sba(iArchitecture
Entity
p1176
(dp1177
g11
(lp1178
sg13
S'android.net.NetworkMisc$1'
p1179
sg15
(lp1180
sg17
(lp1181
sg19
(lp1182
sg21
I0
sba(iArchitecture
Entity
p1183
(dp1184
g11
(lp1185
sg13
S'android.net.NetworkPolicy'
p1186
sg15
(lp1187
sg17
(lp1188
sg19
(lp1189
sg21
I0
sba(iArchitecture
Entity
p1190
(dp1191
g11
(lp1192
sg13
S'android.net.NetworkPolicy$1'
p1193
sg15
(lp1194
sg17
(lp1195
sg19
(lp1196
sg21
I0
sba(iArchitecture
Entity
p1197
(dp1198
g11
(lp1199
sg13
S'android.net.NetworkQuotaInfo'
p1200
sg15
(lp1201
sg17
(lp1202
sg19
(lp1203
sg21
I0
sba(iArchitecture
Entity
p1204
(dp1205
g11
(lp1206
sg13
S'android.net.NetworkQuotaInfo$1'
p1207
sg15
(lp1208
sg17
(lp1209
sg19
(lp1210
sg21
I0
sba(iArchitecture
Entity
p1211
(dp1212
g11
(lp1213
sg13
S'android.net.NetworkRequest'
p1214
sg15
(lp1215
sg17
(lp1216
sg19
(lp1217
sg21
I0
sba(iArchitecture
Entity
p1218
(dp1219
g11
(lp1220
sg13
S'android.net.NetworkRequest$1'
p1221
sg15
(lp1222
sg17
(lp1223
sg19
(lp1224
sg21
I0
sba(iArchitecture
Entity
p1225
(dp1226
g11
(lp1227
sg13
S'android.net.NetworkState'
p1228
sg15
(lp1229
sg17
(lp1230
sg19
(lp1231
sg21
I0
sba(iArchitecture
Entity
p1232
(dp1233
g11
(lp1234
sg13
S'android.net.NetworkState$1'
p1235
sg15
(lp1236
sg17
(lp1237
sg19
(lp1238
sg21
I0
sba(iArchitecture
Entity
p1239
(dp1240
g11
(lp1241
sg13
S'android.net.NetworkStats'
p1242
sg15
(lp1243
sg17
(lp1244
sg19
(lp1245
sg21
I0
sba(iArchitecture
Entity
p1246
(dp1247
g11
(lp1248
sg13
S'android.net.NetworkStats$1'
p1249
sg15
(lp1250
sg17
(lp1251
sg19
(lp1252
sg21
I0
sba(iArchitecture
Entity
p1253
(dp1254
g11
(lp1255
sg13
S'android.net.NetworkStatsHistory'
p1256
sg15
(lp1257
sg17
(lp1258
sg19
(lp1259
sg21
I0
sba(iArchitecture
Entity
p1260
(dp1261
g11
(lp1262
sg13
S'android.net.NetworkStatsHistory$1'
p1263
sg15
(lp1264
sg17
(lp1265
sg19
(lp1266
sg21
I0
sba(iArchitecture
Entity
p1267
(dp1268
g11
(lp1269
sg13
S'android.net.NetworkStatsHistory$DataStreamUtils'
p1270
sg15
(lp1271
sg17
(lp1272
sg19
(lp1273
sg21
I0
sba(iArchitecture
Entity
p1274
(dp1275
g11
(lp1276
sg13
S'android.net.NetworkStatsHistory$ParcelUtils'
p1277
sg15
(lp1278
sg17
(lp1279
sg19
(lp1280
sg21
I0
sba(iArchitecture
Entity
p1281
(dp1282
g11
(lp1283
sg13
S'android.net.NetworkTemplate'
p1284
sg15
(lp1285
sg17
(lp1286
sg19
(lp1287
sg21
I0
sba(iArchitecture
Entity
p1288
(dp1289
g11
(lp1290
sg13
S'android.net.NetworkTemplate$1'
p1291
sg15
(lp1292
sg17
(lp1293
sg19
(lp1294
sg21
I0
sba(iArchitecture
Entity
p1295
(dp1296
g11
(lp1297
sg13
S'android.net.PacProxySelector'
p1298
sg15
(lp1299
sg17
(lp1300
sg19
(lp1301
sg21
I0
sba(iArchitecture
Entity
p1302
(dp1303
g11
(lp1304
sg13
S'android.net.Proxy'
p1305
sg15
(lp1306
sg17
(lp1307
sg19
(lp1308
sg21
I0
sba(iArchitecture
Entity
p1309
(dp1310
g11
(lp1311
sg13
S'android.net.ProxyInfo'
p1312
sg15
(lp1313
sg17
(lp1314
sg19
(lp1315
sg21
I0
sba(iArchitecture
Entity
p1316
(dp1317
g11
(lp1318
sg13
S'android.net.ProxyInfo$1'
p1319
sg15
(lp1320
sg17
(lp1321
sg19
(lp1322
sg21
I0
sba(iArchitecture
Entity
p1323
(dp1324
g11
(lp1325
sg13
S'android.net.PskKeyManager'
p1326
sg15
(lp1327
sg17
(lp1328
sg19
(lp1329
sg21
I0
sba(iArchitecture
Entity
p1330
(dp1331
g11
(lp1332
sg13
S'android.net.RouteInfo'
p1333
sg15
(lp1334
sg17
(lp1335
sg19
(lp1336
sg21
I0
sba(iArchitecture
Entity
p1337
(dp1338
g11
(lp1339
sg13
S'android.net.RouteInfo$1'
p1340
sg15
(lp1341
sg17
(lp1342
sg19
(lp1343
sg21
I0
sba(iArchitecture
Entity
p1344
(dp1345
g11
(lp1346
sg13
S'android.net.RssiCurve'
p1347
sg15
(lp1348
sg17
(lp1349
sg19
(lp1350
sg21
I0
sba(iArchitecture
Entity
p1351
(dp1352
g11
(lp1353
sg13
S'android.net.RssiCurve$1'
p1354
sg15
(lp1355
sg17
(lp1356
sg19
(lp1357
sg21
I0
sba(iArchitecture
Entity
p1358
(dp1359
g11
(lp1360
sg13
S'android.net.SSLCertificateSocketFactory'
p1361
sg15
(lp1362
sg17
(lp1363
sg19
(lp1364
sg21
I0
sba(iArchitecture
Entity
p1365
(dp1366
g11
(lp1367
sg13
S'android.net.SSLCertificateSocketFactory$1'
p1368
sg15
(lp1369
sg17
(lp1370
sg19
(lp1371
sg21
I0
sba(iArchitecture
Entity
p1372
(dp1373
g11
(lp1374
sg13
S'android.net.SSLSessionCache'
p1375
sg15
(lp1376
sg17
(lp1377
sg19
(lp1378
sg21
I0
sba(iArchitecture
Entity
p1379
(dp1380
g11
(lp1381
sg13
S'android.net.ScoredNetwork'
p1382
sg15
(lp1383
sg17
(lp1384
sg19
(lp1385
sg21
I0
sba(iArchitecture
Entity
p1386
(dp1387
g11
(lp1388
sg13
S'android.net.ScoredNetwork$1'
p1389
sg15
(lp1390
sg17
(lp1391
sg19
(lp1392
sg21
I0
sba(iArchitecture
Entity
p1393
(dp1394
g11
(lp1395
sg13
S'android.net.StaticIpConfiguration'
p1396
sg15
(lp1397
sg17
(lp1398
sg19
(lp1399
sg21
I0
sba(iArchitecture
Entity
p1400
(dp1401
g11
(lp1402
sg13
S'android.net.StaticIpConfiguration$1'
p1403
sg15
(lp1404
sg17
(lp1405
sg19
(lp1406
sg21
I0
sba(iArchitecture
Entity
p1407
(dp1408
g11
(lp1409
sg13
S'android.net.UidRange'
p1410
sg15
(lp1411
sg17
(lp1412
sg19
(lp1413
sg21
I0
sba(iArchitecture
Entity
p1414
(dp1415
g11
(lp1416
sg13
S'android.net.UidRange$1'
p1417
sg15
(lp1418
sg17
(lp1419
sg19
(lp1420
sg21
I0
sba(iArchitecture
Entity
p1421
(dp1422
g11
(lp1423
sg13
S'android.net.Uri'
p1424
sg15
(lp1425
sg17
(lp1426
sg19
(lp1427
sg21
I0
sba(iArchitecture
Entity
p1428
(dp1429
g11
(lp1430
sg13
S'android.net.Uri$1'
p1431
sg15
(lp1432
sg17
(lp1433
sg19
(lp1434
sg21
I0
sba(iArchitecture
Entity
p1435
(dp1436
g11
(lp1437
sg13
S'android.net.Uri$AbstractHierarchicalUri'
p1438
sg15
(lp1439
sg17
(lp1440
sg19
(lp1441
sg21
I0
sba(iArchitecture
Entity
p1442
(dp1443
g11
(lp1444
sg13
S'android.net.Uri$AbstractPart'
p1445
sg15
(lp1446
sg17
(lp1447
sg19
(lp1448
sg21
I0
sba(iArchitecture
Entity
p1449
(dp1450
g11
(lp1451
sg13
S'android.net.Uri$AbstractPart$Representation'
p1452
sg15
(lp1453
sg17
(lp1454
sg19
(lp1455
sg21
I0
sba(iArchitecture
Entity
p1456
(dp1457
g11
(lp1458
sg13
S'android.net.Uri$HierarchicalUri'
p1459
sg15
(lp1460
sg17
(lp1461
sg19
(lp1462
sg21
I0
sba(iArchitecture
Entity
p1463
(dp1464
g11
(lp1465
sg13
S'android.net.Uri$OpaqueUri'
p1466
sg15
(lp1467
sg17
(lp1468
sg19
(lp1469
sg21
I0
sba(iArchitecture
Entity
p1470
(dp1471
g11
(lp1472
sg13
S'android.net.Uri$Part'
p1473
sg15
(lp1474
sg17
(lp1475
sg19
(lp1476
sg21
I0
sba(iArchitecture
Entity
p1477
(dp1478
g11
(lp1479
sg13
S'android.net.Uri$Part$EmptyPart'
p1480
sg15
(lp1481
sg17
(lp1482
sg19
(lp1483
sg21
I0
sba(iArchitecture
Entity
p1484
(dp1485
g11
(lp1486
sg13
S'android.net.Uri$PathPart'
p1487
sg15
(lp1488
sg17
(lp1489
sg19
(lp1490
sg21
I0
sba(iArchitecture
Entity
p1491
(dp1492
g11
(lp1493
sg13
S'android.net.Uri$PathSegments'
p1494
sg15
(lp1495
sg17
(lp1496
sg19
(lp1497
sg21
I0
sba(iArchitecture
Entity
p1498
(dp1499
g11
(lp1500
sg13
S'android.net.Uri$PathSegmentsBuilder'
p1501
sg15
(lp1502
sg17
(lp1503
sg19
(lp1504
sg21
I0
sba(iArchitecture
Entity
p1505
(dp1506
g11
(lp1507
sg13
S'android.net.Uri$StringUri'
p1508
sg15
(lp1509
sg17
(lp1510
sg19
(lp1511
sg21
I0
sba(iArchitecture
Entity
p1512
(dp1513
g11
(lp1514
sg13
S'android.net.UrlQuerySanitizer'
p1515
sg15
(lp1516
sg17
(lp1517
sg19
(lp1518
sg21
I0
sba(iArchitecture
Entity
p1519
(dp1520
g11
(lp1521
sg13
S'android.net.UrlQuerySanitizer$IllegalCharacterValueSanitizer'
p1522
sg15
(lp1523
sg17
(lp1524
sg19
(lp1525
sg21
I0
sba(iArchitecture
Entity
p1526
(dp1527
g11
(lp1528
sg13
S'android.net.UrlQuerySanitizer$ParameterValuePair'
p1529
sg15
(lp1530
sg17
(lp1531
sg19
(lp1532
sg21
I0
sba(iArchitecture
Entity
p1533
(dp1534
g11
(lp1535
sg13
S'android.net.UrlQuerySanitizer$ValueSanitizer'
p1536
sg15
(lp1537
sg17
(lp1538
sg19
(lp1539
sg21
I0
sba(iArchitecture
Entity
p1540
(dp1541
g11
(lp1542
sg13
S'android.net.VpnService'
p1543
sg15
(lp1544
sg17
(lp1545
sg19
(lp1546
sg21
I0
sba(iArchitecture
Entity
p1547
(dp1548
g11
(lp1549
sg13
S'android.net.VpnService$Builder'
p1550
sg15
(lp1551
sg17
(lp1552
sg19
(lp1553
sg21
I0
sba(iArchitecture
Entity
p1554
(dp1555
g11
(lp1556
sg13
S'android.net.VpnService$Callback'
p1557
sg15
(lp1558
sg17
(lp1559
sg19
(lp1560
sg21
I0
sba(iArchitecture
Entity
p1561
(dp1562
g11
(lp1563
sg13
S'android.net.WifiKey'
p1564
sg15
(lp1565
sg17
(lp1566
sg19
(lp1567
sg21
I0
sba(iArchitecture
Entity
p1568
(dp1569
g11
(lp1570
sg13
S'android.net.WifiKey$1'
p1571
sg15
(lp1572
sg17
(lp1573
sg19
(lp1574
sg21
I0
sba(iArchitecture
Entity
p1575
(dp1576
g11
(lp1577
sg13
S'android.net.WifiLinkQualityInfo'
p1578
sg15
(lp1579
sg17
(lp1580
sg19
(lp1581
sg21
I0
sba(iArchitecture
Entity
p1582
(dp1583
g11
(lp1584
sg13
S'android.net.netlink.NetlinkConstants'
p1585
sg15
(lp1586
sg17
(lp1587
sg19
(lp1588
sg21
I0
sba(iArchitecture
Entity
p1589
(dp1590
g11
(lp1591
sg13
S'android.net.netlink.NetlinkErrorMessage'
p1592
sg15
(lp1593
sg17
(lp1594
sg19
(lp1595
sg21
I0
sba(iArchitecture
Entity
p1596
(dp1597
g11
(lp1598
sg13
S'android.net.netlink.NetlinkMessage'
p1599
sg15
(lp1600
sg17
(lp1601
sg19
(lp1602
sg21
I0
sba(iArchitecture
Entity
p1603
(dp1604
g11
(lp1605
sg13
S'android.net.netlink.NetlinkSocket'
p1606
sg15
(lp1607
sg17
(lp1608
sg19
(lp1609
sg21
I0
sba(iArchitecture
Entity
p1610
(dp1611
g11
(lp1612
sg13
S'android.net.netlink.StructNdMsg'
p1613
sg15
(lp1614
sg17
(lp1615
sg19
(lp1616
sg21
I0
sba(iArchitecture
Entity
p1617
(dp1618
g11
(lp1619
sg13
S'android.net.netlink.StructNlMsgErr'
p1620
sg15
(lp1621
sg17
(lp1622
sg19
(lp1623
sg21
I0
sba(iArchitecture
Entity
p1624
(dp1625
g11
(lp1626
sg13
S'android.net.netlink.StructNlMsgHdr'
p1627
sg15
(lp1628
sg17
(lp1629
sg19
(lp1630
sg21
I0
sbasg379
(lp1631
g717
ag724
ag731
ag738
ag745
ag752
ag759
ag766
ag773
ag780
ag787
ag794
ag801
ag808
ag815
ag822
ag829
ag836
ag843
ag850
ag857
ag864
ag871
ag878
ag885
ag892
ag899
ag906
ag913
ag920
ag927
ag934
ag941
ag948
ag955
ag962
ag969
ag976
ag983
ag990
ag997
ag1004
ag1011
ag1018
ag1025
ag1032
ag1039
ag1046
ag1053
ag1060
ag1067
ag1074
ag1081
ag1088
ag1095
ag1102
ag1109
ag1116
ag1123
ag1130
ag1137
ag1144
ag1151
ag1158
ag1165
ag1172
ag1179
ag1186
ag1193
ag1200
ag1207
ag1214
ag1221
ag1228
ag1235
ag1242
ag1249
ag1256
ag1263
ag1270
ag1277
ag1284
ag1291
ag1298
ag1305
ag1312
ag1319
ag1326
ag1333
ag1340
ag1347
ag1354
ag1361
ag1368
ag1375
ag1382
ag1389
ag1396
ag1403
ag1410
ag1417
ag1424
ag1431
ag1438
ag1445
ag1452
ag1459
ag1466
ag1473
ag1480
ag1487
ag1494
ag1501
ag1508
ag1515
ag1522
ag1529
ag1536
ag1543
ag1550
ag1557
ag1564
ag1571
ag1578
ag1585
ag1592
ag1599
ag1606
ag1613
ag1620
ag1627
asg21
I0
sg381
S'android.net.ss'
p1632
sba(iArchitecture
Cluster
p1633
(dp1634
g7
(lp1635
(iArchitecture
Entity
p1636
(dp1637
g11
(lp1638
sg13
S'android.net.wifi.p2p.nsd.WifiP2pDnsSdServiceInfo'
p1639
sg15
(lp1640
sg17
(lp1641
sg19
(lp1642
sg21
I0
sba(iArchitecture
Entity
p1643
(dp1644
g11
(lp1645
sg13
S'android.net.wifi.p2p.nsd.WifiP2pDnsSdServiceRequest'
p1646
sg15
(lp1647
sg17
(lp1648
sg19
(lp1649
sg21
I0
sba(iArchitecture
Entity
p1650
(dp1651
g11
(lp1652
sg13
S'android.net.wifi.p2p.nsd.WifiP2pDnsSdServiceResponse'
p1653
sg15
(lp1654
sg17
(lp1655
sg19
(lp1656
sg21
I0
sba(iArchitecture
Entity
p1657
(dp1658
g11
(lp1659
sg13
S'android.net.wifi.p2p.nsd.WifiP2pServiceInfo'
p1660
sg15
(lp1661
sg17
(lp1662
sg19
(lp1663
sg21
I0
sba(iArchitecture
Entity
p1664
(dp1665
g11
(lp1666
sg13
S'android.net.wifi.p2p.nsd.WifiP2pServiceInfo$1'
p1667
sg15
(lp1668
sg17
(lp1669
sg19
(lp1670
sg21
I0
sba(iArchitecture
Entity
p1671
(dp1672
g11
(lp1673
sg13
S'android.net.wifi.p2p.nsd.WifiP2pServiceRequest'
p1674
sg15
(lp1675
sg17
(lp1676
sg19
(lp1677
sg21
I0
sba(iArchitecture
Entity
p1678
(dp1679
g11
(lp1680
sg13
S'android.net.wifi.p2p.nsd.WifiP2pServiceRequest$1'
p1681
sg15
(lp1682
sg17
(lp1683
sg19
(lp1684
sg21
I0
sba(iArchitecture
Entity
p1685
(dp1686
g11
(lp1687
sg13
S'android.net.wifi.p2p.nsd.WifiP2pServiceResponse'
p1688
sg15
(lp1689
sg17
(lp1690
sg19
(lp1691
sg21
I0
sba(iArchitecture
Entity
p1692
(dp1693
g11
(lp1694
sg13
S'android.net.wifi.p2p.nsd.WifiP2pServiceResponse$1'
p1695
sg15
(lp1696
sg17
(lp1697
sg19
(lp1698
sg21
I0
sba(iArchitecture
Entity
p1699
(dp1700
g11
(lp1701
sg13
S'android.net.wifi.p2p.nsd.WifiP2pServiceResponse$Status'
p1702
sg15
(lp1703
sg17
(lp1704
sg19
(lp1705
sg21
I0
sba(iArchitecture
Entity
p1706
(dp1707
g11
(lp1708
sg13
S'android.net.wifi.p2p.nsd.WifiP2pUpnpServiceResponse'
p1709
sg15
(lp1710
sg17
(lp1711
sg19
(lp1712
sg21
I0
sbasg379
(lp1713
g1639
ag1646
ag1653
ag1660
ag1667
ag1674
ag1681
ag1688
ag1695
ag1702
ag1709
asg21
I0
sg381
S'android.net.wifi.p2p.nsd.ss'
p1714
sba(iArchitecture
Cluster
p1715
(dp1716
g7
(lp1717
(iArchitecture
Entity
p1718
(dp1719
g11
(lp1720
sg13
S'android.net.wifi.p2p.WifiP2pConfig'
p1721
sg15
(lp1722
sg17
(lp1723
sg19
(lp1724
sg21
I0
sba(iArchitecture
Entity
p1725
(dp1726
g11
(lp1727
sg13
S'android.net.wifi.p2p.WifiP2pConfig$1'
p1728
sg15
(lp1729
sg17
(lp1730
sg19
(lp1731
sg21
I0
sba(iArchitecture
Entity
p1732
(dp1733
g11
(lp1734
sg13
S'android.net.wifi.p2p.WifiP2pDevice'
p1735
sg15
(lp1736
sg17
(lp1737
sg19
(lp1738
sg21
I0
sba(iArchitecture
Entity
p1739
(dp1740
g11
(lp1741
sg13
S'android.net.wifi.p2p.WifiP2pDevice$1'
p1742
sg15
(lp1743
sg17
(lp1744
sg19
(lp1745
sg21
I0
sba(iArchitecture
Entity
p1746
(dp1747
g11
(lp1748
sg13
S'android.net.wifi.p2p.WifiP2pDeviceList'
p1749
sg15
(lp1750
sg17
(lp1751
sg19
(lp1752
sg21
I0
sba(iArchitecture
Entity
p1753
(dp1754
g11
(lp1755
sg13
S'android.net.wifi.p2p.WifiP2pDeviceList$1'
p1756
sg15
(lp1757
sg17
(lp1758
sg19
(lp1759
sg21
I0
sba(iArchitecture
Entity
p1760
(dp1761
g11
(lp1762
sg13
S'android.net.wifi.p2p.WifiP2pGroup'
p1763
sg15
(lp1764
sg17
(lp1765
sg19
(lp1766
sg21
I0
sba(iArchitecture
Entity
p1767
(dp1768
g11
(lp1769
sg13
S'android.net.wifi.p2p.WifiP2pGroup$1'
p1770
sg15
(lp1771
sg17
(lp1772
sg19
(lp1773
sg21
I0
sba(iArchitecture
Entity
p1774
(dp1775
g11
(lp1776
sg13
S'android.net.wifi.p2p.WifiP2pGroupList'
p1777
sg15
(lp1778
sg17
(lp1779
sg19
(lp1780
sg21
I0
sba(iArchitecture
Entity
p1781
(dp1782
g11
(lp1783
sg13
S'android.net.wifi.p2p.WifiP2pGroupList$1'
p1784
sg15
(lp1785
sg17
(lp1786
sg19
(lp1787
sg21
I0
sba(iArchitecture
Entity
p1788
(dp1789
g11
(lp1790
sg13
S'android.net.wifi.p2p.WifiP2pGroupList$2'
p1791
sg15
(lp1792
sg17
(lp1793
sg19
(lp1794
sg21
I0
sba(iArchitecture
Entity
p1795
(dp1796
g11
(lp1797
sg13
S'android.net.wifi.p2p.WifiP2pGroupList$GroupDeleteListener'
p1798
sg15
(lp1799
sg17
(lp1800
sg19
(lp1801
sg21
I0
sba(iArchitecture
Entity
p1802
(dp1803
g11
(lp1804
sg13
S'android.net.wifi.p2p.WifiP2pInfo'
p1805
sg15
(lp1806
sg17
(lp1807
sg19
(lp1808
sg21
I0
sba(iArchitecture
Entity
p1809
(dp1810
g11
(lp1811
sg13
S'android.net.wifi.p2p.WifiP2pInfo$1'
p1812
sg15
(lp1813
sg17
(lp1814
sg19
(lp1815
sg21
I0
sba(iArchitecture
Entity
p1816
(dp1817
g11
(lp1818
sg13
S'android.net.wifi.p2p.WifiP2pWfdInfo'
p1819
sg15
(lp1820
sg17
(lp1821
sg19
(lp1822
sg21
I0
sba(iArchitecture
Entity
p1823
(dp1824
g11
(lp1825
sg13
S'android.net.wifi.p2p.WifiP2pWfdInfo$1'
p1826
sg15
(lp1827
sg17
(lp1828
sg19
(lp1829
sg21
I0
sbasg379
(lp1830
g1721
ag1728
ag1735
ag1742
ag1749
ag1756
ag1763
ag1770
ag1777
ag1784
ag1791
ag1798
ag1805
ag1812
ag1819
ag1826
asg21
I0
sg381
S'android.net.wifi.p2p.ss'
p1831
sba(iArchitecture
Cluster
p1832
(dp1833
g7
(lp1834
(iArchitecture
Entity
p1835
(dp1836
g11
(lp1837
sg13
S'android.net.wifi.passpoint.WifiPasspointCredential'
p1838
sg15
(lp1839
sg17
(lp1840
sg19
(lp1841
sg21
I0
sba(iArchitecture
Entity
p1842
(dp1843
g11
(lp1844
sg13
S'android.net.wifi.passpoint.WifiPasspointCredential$1'
p1845
sg15
(lp1846
sg17
(lp1847
sg19
(lp1848
sg21
I0
sba(iArchitecture
Entity
p1849
(dp1850
g11
(lp1851
sg13
S'android.net.wifi.passpoint.WifiPasspointDmTree'
p1852
sg15
(lp1853
sg17
(lp1854
sg19
(lp1855
sg21
I0
sba(iArchitecture
Entity
p1856
(dp1857
g11
(lp1858
sg13
S'android.net.wifi.passpoint.WifiPasspointDmTree$1'
p1859
sg15
(lp1860
sg17
(lp1861
sg19
(lp1862
sg21
I0
sba(iArchitecture
Entity
p1863
(dp1864
g11
(lp1865
sg13
S'android.net.wifi.passpoint.WifiPasspointDmTree$AAAServerTrustRoot'
p1866
sg15
(lp1867
sg17
(lp1868
sg19
(lp1869
sg21
I0
sba(iArchitecture
Entity
p1870
(dp1871
g11
(lp1872
sg13
S'android.net.wifi.passpoint.WifiPasspointDmTree$AAAServerTrustRoot$1'
p1873
sg15
(lp1874
sg17
(lp1875
sg19
(lp1876
sg21
I0
sba(iArchitecture
Entity
p1877
(dp1878
g11
(lp1879
sg13
S'android.net.wifi.passpoint.WifiPasspointDmTree$Credential'
p1880
sg15
(lp1881
sg17
(lp1882
sg19
(lp1883
sg21
I0
sba(iArchitecture
Entity
p1884
(dp1885
g11
(lp1886
sg13
S'android.net.wifi.passpoint.WifiPasspointDmTree$Credential$1'
p1887
sg15
(lp1888
sg17
(lp1889
sg19
(lp1890
sg21
I0
sba(iArchitecture
Entity
p1891
(dp1892
g11
(lp1893
sg13
S'android.net.wifi.passpoint.WifiPasspointDmTree$CredentialInfo'
p1894
sg15
(lp1895
sg17
(lp1896
sg19
(lp1897
sg21
I0
sba(iArchitecture
Entity
p1898
(dp1899
g11
(lp1900
sg13
S'android.net.wifi.passpoint.WifiPasspointDmTree$CredentialInfo$1'
p1901
sg15
(lp1902
sg17
(lp1903
sg19
(lp1904
sg21
I0
sba(iArchitecture
Entity
p1905
(dp1906
g11
(lp1907
sg13
S'android.net.wifi.passpoint.WifiPasspointDmTree$DigitalCertificate'
p1908
sg15
(lp1909
sg17
(lp1910
sg19
(lp1911
sg21
I0
sba(iArchitecture
Entity
p1912
(dp1913
g11
(lp1914
sg13
S'android.net.wifi.passpoint.WifiPasspointDmTree$DigitalCertificate$1'
p1915
sg15
(lp1916
sg17
(lp1917
sg19
(lp1918
sg21
I0
sba(iArchitecture
Entity
p1919
(dp1920
g11
(lp1921
sg13
S'android.net.wifi.passpoint.WifiPasspointDmTree$EAPMethod'
p1922
sg15
(lp1923
sg17
(lp1924
sg19
(lp1925
sg21
I0
sba(iArchitecture
Entity
p1926
(dp1927
g11
(lp1928
sg13
S'android.net.wifi.passpoint.WifiPasspointDmTree$EAPMethod$1'
p1929
sg15
(lp1930
sg17
(lp1931
sg19
(lp1932
sg21
I0
sba(iArchitecture
Entity
p1933
(dp1934
g11
(lp1935
sg13
S'android.net.wifi.passpoint.WifiPasspointDmTree$Extension'
p1936
sg15
(lp1937
sg17
(lp1938
sg19
(lp1939
sg21
I0
sba(iArchitecture
Entity
p1940
(dp1941
g11
(lp1942
sg13
S'android.net.wifi.passpoint.WifiPasspointDmTree$HomeOIList'
p1943
sg15
(lp1944
sg17
(lp1945
sg19
(lp1946
sg21
I0
sba(iArchitecture
Entity
p1947
(dp1948
g11
(lp1949
sg13
S'android.net.wifi.passpoint.WifiPasspointDmTree$HomeOIList$1'
p1950
sg15
(lp1951
sg17
(lp1952
sg19
(lp1953
sg21
I0
sba(iArchitecture
Entity
p1954
(dp1955
g11
(lp1956
sg13
S'android.net.wifi.passpoint.WifiPasspointDmTree$HomeSP'
p1957
sg15
(lp1958
sg17
(lp1959
sg19
(lp1960
sg21
I0
sba(iArchitecture
Entity
p1961
(dp1962
g11
(lp1963
sg13
S'android.net.wifi.passpoint.WifiPasspointDmTree$HomeSP$1'
p1964
sg15
(lp1965
sg17
(lp1966
sg19
(lp1967
sg21
I0
sba(iArchitecture
Entity
p1968
(dp1969
g11
(lp1970
sg13
S'android.net.wifi.passpoint.WifiPasspointDmTree$MinBackhaulThresholdNetwork'
p1971
sg15
(lp1972
sg17
(lp1973
sg19
(lp1974
sg21
I0
sba(iArchitecture
Entity
p1975
(dp1976
g11
(lp1977
sg13
S'android.net.wifi.passpoint.WifiPasspointDmTree$MinBackhaulThresholdNetwork$1'
p1978
sg15
(lp1979
sg17
(lp1980
sg19
(lp1981
sg21
I0
sba(iArchitecture
Entity
p1982
(dp1983
g11
(lp1984
sg13
S'android.net.wifi.passpoint.WifiPasspointDmTree$NetworkID'
p1985
sg15
(lp1986
sg17
(lp1987
sg19
(lp1988
sg21
I0
sba(iArchitecture
Entity
p1989
(dp1990
g11
(lp1991
sg13
S'android.net.wifi.passpoint.WifiPasspointDmTree$NetworkID$1'
p1992
sg15
(lp1993
sg17
(lp1994
sg19
(lp1995
sg21
I0
sba(iArchitecture
Entity
p1996
(dp1997
g11
(lp1998
sg13
S'android.net.wifi.passpoint.WifiPasspointDmTree$OtherHomePartners'
p1999
sg15
(lp2000
sg17
(lp2001
sg19
(lp2002
sg21
I0
sba(iArchitecture
Entity
p2003
(dp2004
g11
(lp2005
sg13
S'android.net.wifi.passpoint.WifiPasspointDmTree$OtherHomePartners$1'
p2006
sg15
(lp2007
sg17
(lp2008
sg19
(lp2009
sg21
I0
sba(iArchitecture
Entity
p2010
(dp2011
g11
(lp2012
sg13
S'android.net.wifi.passpoint.WifiPasspointDmTree$PerProviderSubscription'
p2013
sg15
(lp2014
sg17
(lp2015
sg19
(lp2016
sg21
I0
sba(iArchitecture
Entity
p2017
(dp2018
g11
(lp2019
sg13
S'android.net.wifi.passpoint.WifiPasspointDmTree$PerProviderSubscription$1'
p2020
sg15
(lp2021
sg17
(lp2022
sg19
(lp2023
sg21
I0
sba(iArchitecture
Entity
p2024
(dp2025
g11
(lp2026
sg13
S'android.net.wifi.passpoint.WifiPasspointDmTree$Policy'
p2027
sg15
(lp2028
sg17
(lp2029
sg19
(lp2030
sg21
I0
sba(iArchitecture
Entity
p2031
(dp2032
g11
(lp2033
sg13
S'android.net.wifi.passpoint.WifiPasspointDmTree$Policy$1'
p2034
sg15
(lp2035
sg17
(lp2036
sg19
(lp2037
sg21
I0
sba(iArchitecture
Entity
p2038
(dp2039
g11
(lp2040
sg13
S'android.net.wifi.passpoint.WifiPasspointDmTree$PolicyUpdate'
p2041
sg15
(lp2042
sg17
(lp2043
sg19
(lp2044
sg21
I0
sba(iArchitecture
Entity
p2045
(dp2046
g11
(lp2047
sg13
S'android.net.wifi.passpoint.WifiPasspointDmTree$PolicyUpdate$1'
p2048
sg15
(lp2049
sg17
(lp2050
sg19
(lp2051
sg21
I0
sba(iArchitecture
Entity
p2052
(dp2053
g11
(lp2054
sg13
S'android.net.wifi.passpoint.WifiPasspointDmTree$PreferredRoamingPartnerList'
p2055
sg15
(lp2056
sg17
(lp2057
sg19
(lp2058
sg21
I0
sba(iArchitecture
Entity
p2059
(dp2060
g11
(lp2061
sg13
S'android.net.wifi.passpoint.WifiPasspointDmTree$PreferredRoamingPartnerList$1'
p2062
sg15
(lp2063
sg17
(lp2064
sg19
(lp2065
sg21
I0
sba(iArchitecture
Entity
p2066
(dp2067
g11
(lp2068
sg13
S'android.net.wifi.passpoint.WifiPasspointDmTree$RequiredProtoPortTuple'
p2069
sg15
(lp2070
sg17
(lp2071
sg19
(lp2072
sg21
I0
sba(iArchitecture
Entity
p2073
(dp2074
g11
(lp2075
sg13
S'android.net.wifi.passpoint.WifiPasspointDmTree$RequiredProtoPortTuple$1'
p2076
sg15
(lp2077
sg17
(lp2078
sg19
(lp2079
sg21
I0
sba(iArchitecture
Entity
p2080
(dp2081
g11
(lp2082
sg13
S'android.net.wifi.passpoint.WifiPasspointDmTree$SIM'
p2083
sg15
(lp2084
sg17
(lp2085
sg19
(lp2086
sg21
I0
sba(iArchitecture
Entity
p2087
(dp2088
g11
(lp2089
sg13
S'android.net.wifi.passpoint.WifiPasspointDmTree$SIM$1'
p2090
sg15
(lp2091
sg17
(lp2092
sg19
(lp2093
sg21
I0
sba(iArchitecture
Entity
p2094
(dp2095
g11
(lp2096
sg13
S'android.net.wifi.passpoint.WifiPasspointDmTree$SPExclusionList'
p2097
sg15
(lp2098
sg17
(lp2099
sg19
(lp2100
sg21
I0
sba(iArchitecture
Entity
p2101
(dp2102
g11
(lp2103
sg13
S'android.net.wifi.passpoint.WifiPasspointDmTree$SPExclusionList$1'
p2104
sg15
(lp2105
sg17
(lp2106
sg19
(lp2107
sg21
I0
sba(iArchitecture
Entity
p2108
(dp2109
g11
(lp2110
sg13
S'android.net.wifi.passpoint.WifiPasspointDmTree$SpFqdn'
p2111
sg15
(lp2112
sg17
(lp2113
sg19
(lp2114
sg21
I0
sba(iArchitecture
Entity
p2115
(dp2116
g11
(lp2117
sg13
S'android.net.wifi.passpoint.WifiPasspointDmTree$SpFqdn$1'
p2118
sg15
(lp2119
sg17
(lp2120
sg19
(lp2121
sg21
I0
sba(iArchitecture
Entity
p2122
(dp2123
g11
(lp2124
sg13
S'android.net.wifi.passpoint.WifiPasspointDmTree$SubscriptionParameters'
p2125
sg15
(lp2126
sg17
(lp2127
sg19
(lp2128
sg21
I0
sba(iArchitecture
Entity
p2129
(dp2130
g11
(lp2131
sg13
S'android.net.wifi.passpoint.WifiPasspointDmTree$SubscriptionParameters$1'
p2132
sg15
(lp2133
sg17
(lp2134
sg19
(lp2135
sg21
I0
sba(iArchitecture
Entity
p2136
(dp2137
g11
(lp2138
sg13
S'android.net.wifi.passpoint.WifiPasspointDmTree$SubscriptionUpdate'
p2139
sg15
(lp2140
sg17
(lp2141
sg19
(lp2142
sg21
I0
sba(iArchitecture
Entity
p2143
(dp2144
g11
(lp2145
sg13
S'android.net.wifi.passpoint.WifiPasspointDmTree$SubscriptionUpdate$1'
p2146
sg15
(lp2147
sg17
(lp2148
sg19
(lp2149
sg21
I0
sba(iArchitecture
Entity
p2150
(dp2151
g11
(lp2152
sg13
S'android.net.wifi.passpoint.WifiPasspointDmTree$TrustRoot'
p2153
sg15
(lp2154
sg17
(lp2155
sg19
(lp2156
sg21
I0
sba(iArchitecture
Entity
p2157
(dp2158
g11
(lp2159
sg13
S'android.net.wifi.passpoint.WifiPasspointDmTree$TrustRoot$1'
p2160
sg15
(lp2161
sg17
(lp2162
sg19
(lp2163
sg21
I0
sba(iArchitecture
Entity
p2164
(dp2165
g11
(lp2166
sg13
S'android.net.wifi.passpoint.WifiPasspointDmTree$UsageLimits'
p2167
sg15
(lp2168
sg17
(lp2169
sg19
(lp2170
sg21
I0
sba(iArchitecture
Entity
p2171
(dp2172
g11
(lp2173
sg13
S'android.net.wifi.passpoint.WifiPasspointDmTree$UsageLimits$1'
p2174
sg15
(lp2175
sg17
(lp2176
sg19
(lp2177
sg21
I0
sba(iArchitecture
Entity
p2178
(dp2179
g11
(lp2180
sg13
S'android.net.wifi.passpoint.WifiPasspointDmTree$UsernamePassword'
p2181
sg15
(lp2182
sg17
(lp2183
sg19
(lp2184
sg21
I0
sba(iArchitecture
Entity
p2185
(dp2186
g11
(lp2187
sg13
S'android.net.wifi.passpoint.WifiPasspointDmTree$UsernamePassword$1'
p2188
sg15
(lp2189
sg17
(lp2190
sg19
(lp2191
sg21
I0
sba(iArchitecture
Entity
p2192
(dp2193
g11
(lp2194
sg13
S'android.net.wifi.passpoint.WifiPasspointInfo'
p2195
sg15
(lp2196
sg17
(lp2197
sg19
(lp2198
sg21
I0
sba(iArchitecture
Entity
p2199
(dp2200
g11
(lp2201
sg13
S'android.net.wifi.passpoint.WifiPasspointInfo$1'
p2202
sg15
(lp2203
sg17
(lp2204
sg19
(lp2205
sg21
I0
sba(iArchitecture
Entity
p2206
(dp2207
g11
(lp2208
sg13
S'android.net.wifi.passpoint.WifiPasspointInfo$CellularNetwork'
p2209
sg15
(lp2210
sg17
(lp2211
sg19
(lp2212
sg21
I0
sba(iArchitecture
Entity
p2213
(dp2214
g11
(lp2215
sg13
S'android.net.wifi.passpoint.WifiPasspointInfo$IpAddressType'
p2216
sg15
(lp2217
sg17
(lp2218
sg19
(lp2219
sg21
I0
sba(iArchitecture
Entity
p2220
(dp2221
g11
(lp2222
sg13
S'android.net.wifi.passpoint.WifiPasspointInfo$IpProtoPort'
p2223
sg15
(lp2224
sg17
(lp2225
sg19
(lp2226
sg21
I0
sba(iArchitecture
Entity
p2227
(dp2228
g11
(lp2229
sg13
S'android.net.wifi.passpoint.WifiPasspointInfo$NaiRealm'
p2230
sg15
(lp2231
sg17
(lp2232
sg19
(lp2233
sg21
I0
sba(iArchitecture
Entity
p2234
(dp2235
g11
(lp2236
sg13
S'android.net.wifi.passpoint.WifiPasspointInfo$NetworkAuthType'
p2237
sg15
(lp2238
sg17
(lp2239
sg19
(lp2240
sg21
I0
sba(iArchitecture
Entity
p2241
(dp2242
g11
(lp2243
sg13
S'android.net.wifi.passpoint.WifiPasspointInfo$WanMetrics'
p2244
sg15
(lp2245
sg17
(lp2246
sg19
(lp2247
sg21
I0
sba(iArchitecture
Entity
p2248
(dp2249
g11
(lp2250
sg13
S'android.net.wifi.passpoint.WifiPasspointManager'
p2251
sg15
(lp2252
sg17
(lp2253
sg19
(lp2254
sg21
I0
sba(iArchitecture
Entity
p2255
(dp2256
g11
(lp2257
sg13
S'android.net.wifi.passpoint.WifiPasspointManager$ActionListener'
p2258
sg15
(lp2259
sg17
(lp2260
sg19
(lp2261
sg21
I0
sba(iArchitecture
Entity
p2262
(dp2263
g11
(lp2264
sg13
S'android.net.wifi.passpoint.WifiPasspointManager$Channel'
p2265
sg15
(lp2266
sg17
(lp2267
sg19
(lp2268
sg21
I0
sba(iArchitecture
Entity
p2269
(dp2270
g11
(lp2271
sg13
S'android.net.wifi.passpoint.WifiPasspointManager$Channel$PasspointHandler'
p2272
sg15
(lp2273
sg17
(lp2274
sg19
(lp2275
sg21
I0
sba(iArchitecture
Entity
p2276
(dp2277
g11
(lp2278
sg13
S'android.net.wifi.passpoint.WifiPasspointManager$ChannelListener'
p2279
sg15
(lp2280
sg17
(lp2281
sg19
(lp2282
sg21
I0
sba(iArchitecture
Entity
p2283
(dp2284
g11
(lp2285
sg13
S'android.net.wifi.passpoint.WifiPasspointManager$OsuRemListener'
p2286
sg15
(lp2287
sg17
(lp2288
sg19
(lp2289
sg21
I0
sba(iArchitecture
Entity
p2290
(dp2291
g11
(lp2292
sg13
S'android.net.wifi.passpoint.WifiPasspointManager$ParcelableString'
p2293
sg15
(lp2294
sg17
(lp2295
sg19
(lp2296
sg21
I0
sba(iArchitecture
Entity
p2297
(dp2298
g11
(lp2299
sg13
S'android.net.wifi.passpoint.WifiPasspointManager$ParcelableString$1'
p2300
sg15
(lp2301
sg17
(lp2302
sg19
(lp2303
sg21
I0
sba(iArchitecture
Entity
p2304
(dp2305
g11
(lp2306
sg13
S'android.net.wifi.passpoint.WifiPasspointOsuProvider'
p2307
sg15
(lp2308
sg17
(lp2309
sg19
(lp2310
sg21
I0
sba(iArchitecture
Entity
p2311
(dp2312
g11
(lp2313
sg13
S'android.net.wifi.passpoint.WifiPasspointOsuProvider$1'
p2314
sg15
(lp2315
sg17
(lp2316
sg19
(lp2317
sg21
I0
sba(iArchitecture
Entity
p2318
(dp2319
g11
(lp2320
sg13
S'android.net.wifi.passpoint.WifiPasspointPolicy'
p2321
sg15
(lp2322
sg17
(lp2323
sg19
(lp2324
sg21
I0
sba(iArchitecture
Entity
p2325
(dp2326
g11
(lp2327
sg13
S'android.net.wifi.passpoint.WifiPasspointPolicy$1'
p2328
sg15
(lp2329
sg17
(lp2330
sg19
(lp2331
sg21
I0
sbasg379
(lp2332
g1838
ag1845
ag1852
ag1859
ag1866
ag1873
ag1880
ag1887
ag1894
ag1901
ag1908
ag1915
ag1922
ag1929
ag1936
ag1943
ag1950
ag1957
ag1964
ag1971
ag1978
ag1985
ag1992
ag1999
ag2006
ag2013
ag2020
ag2027
ag2034
ag2041
ag2048
ag2055
ag2062
ag2069
ag2076
ag2083
ag2090
ag2097
ag2104
ag2111
ag2118
ag2125
ag2132
ag2139
ag2146
ag2153
ag2160
ag2167
ag2174
ag2181
ag2188
ag2195
ag2202
ag2209
ag2216
ag2223
ag2230
ag2237
ag2244
ag2251
ag2258
ag2265
ag2272
ag2279
ag2286
ag2293
ag2300
ag2307
ag2314
ag2321
ag2328
asg21
I0
sg381
S'android.net.wifi.passpoint.ss'
p2333
sba(iArchitecture
Cluster
p2334
(dp2335
g7
(lp2336
(iArchitecture
Entity
p2337
(dp2338
g11
(lp2339
sg13
S'android.net.NetworkRequest$Builder'
p2340
sg15
(lp2341
sg17
(lp2342
sg19
(lp2343
sg21
I0
sba(iArchitecture
Entity
p2344
(dp2345
g11
(lp2346
sg13
S'android.net.wifi.BatchedScanResult'
p2347
sg15
(lp2348
sg17
(lp2349
sg19
(lp2350
sg21
I0
sba(iArchitecture
Entity
p2351
(dp2352
g11
(lp2353
sg13
S'android.net.wifi.BatchedScanResult$1'
p2354
sg15
(lp2355
sg17
(lp2356
sg19
(lp2357
sg21
I0
sba(iArchitecture
Entity
p2358
(dp2359
g11
(lp2360
sg13
S'android.net.wifi.BatchedScanSettings'
p2361
sg15
(lp2362
sg17
(lp2363
sg19
(lp2364
sg21
I0
sba(iArchitecture
Entity
p2365
(dp2366
g11
(lp2367
sg13
S'android.net.wifi.BatchedScanSettings$1'
p2368
sg15
(lp2369
sg17
(lp2370
sg19
(lp2371
sg21
I0
sba(iArchitecture
Entity
p2372
(dp2373
g11
(lp2374
sg13
S'android.net.wifi.IWifiManager'
p2375
sg15
(lp2376
sg17
(lp2377
sg19
(lp2378
sg21
I0
sba(iArchitecture
Entity
p2379
(dp2380
g11
(lp2381
sg13
S'android.net.wifi.RssiPacketCountInfo'
p2382
sg15
(lp2383
sg17
(lp2384
sg19
(lp2385
sg21
I0
sba(iArchitecture
Entity
p2386
(dp2387
g11
(lp2388
sg13
S'android.net.wifi.RssiPacketCountInfo$1'
p2389
sg15
(lp2390
sg17
(lp2391
sg19
(lp2392
sg21
I0
sba(iArchitecture
Entity
p2393
(dp2394
g11
(lp2395
sg13
S'android.net.wifi.RttManager'
p2396
sg15
(lp2397
sg17
(lp2398
sg19
(lp2399
sg21
I0
sba(iArchitecture
Entity
p2400
(dp2401
g11
(lp2402
sg13
S'android.net.wifi.RttManager$Capabilities'
p2403
sg15
(lp2404
sg17
(lp2405
sg19
(lp2406
sg21
I0
sba(iArchitecture
Entity
p2407
(dp2408
g11
(lp2409
sg13
S'android.net.wifi.RttManager$ParcelableRttParams'
p2410
sg15
(lp2411
sg17
(lp2412
sg19
(lp2413
sg21
I0
sba(iArchitecture
Entity
p2414
(dp2415
g11
(lp2416
sg13
S'android.net.wifi.RttManager$ParcelableRttParams$1'
p2417
sg15
(lp2418
sg17
(lp2419
sg19
(lp2420
sg21
I0
sba(iArchitecture
Entity
p2421
(dp2422
g11
(lp2423
sg13
S'android.net.wifi.RttManager$ParcelableRttResults'
p2424
sg15
(lp2425
sg17
(lp2426
sg19
(lp2427
sg21
I0
sba(iArchitecture
Entity
p2428
(dp2429
g11
(lp2430
sg13
S'android.net.wifi.RttManager$ParcelableRttResults$1'
p2431
sg15
(lp2432
sg17
(lp2433
sg19
(lp2434
sg21
I0
sba(iArchitecture
Entity
p2435
(dp2436
g11
(lp2437
sg13
S'android.net.wifi.RttManager$RttListener'
p2438
sg15
(lp2439
sg17
(lp2440
sg19
(lp2441
sg21
I0
sba(iArchitecture
Entity
p2442
(dp2443
g11
(lp2444
sg13
S'android.net.wifi.RttManager$RttParams'
p2445
sg15
(lp2446
sg17
(lp2447
sg19
(lp2448
sg21
I0
sba(iArchitecture
Entity
p2449
(dp2450
g11
(lp2451
sg13
S'android.net.wifi.RttManager$RttResult'
p2452
sg15
(lp2453
sg17
(lp2454
sg19
(lp2455
sg21
I0
sba(iArchitecture
Entity
p2456
(dp2457
g11
(lp2458
sg13
S'android.net.wifi.RttManager$ServiceHandler'
p2459
sg15
(lp2460
sg17
(lp2461
sg19
(lp2462
sg21
I0
sba(iArchitecture
Entity
p2463
(dp2464
g11
(lp2465
sg13
S'android.net.wifi.RttManager$WifiInformationElement'
p2466
sg15
(lp2467
sg17
(lp2468
sg19
(lp2469
sg21
I0
sba(iArchitecture
Entity
p2470
(dp2471
g11
(lp2472
sg13
S'android.net.wifi.ScanResult'
p2473
sg15
(lp2474
sg17
(lp2475
sg19
(lp2476
sg21
I0
sba(iArchitecture
Entity
p2477
(dp2478
g11
(lp2479
sg13
S'android.net.wifi.ScanResult$1'
p2480
sg15
(lp2481
sg17
(lp2482
sg19
(lp2483
sg21
I0
sba(iArchitecture
Entity
p2484
(dp2485
g11
(lp2486
sg13
S'android.net.wifi.ScanResult$InformationElement'
p2487
sg15
(lp2488
sg17
(lp2489
sg19
(lp2490
sg21
I0
sba(iArchitecture
Entity
p2491
(dp2492
g11
(lp2493
sg13
S'android.net.wifi.ScanSettings'
p2494
sg15
(lp2495
sg17
(lp2496
sg19
(lp2497
sg21
I0
sba(iArchitecture
Entity
p2498
(dp2499
g11
(lp2500
sg13
S'android.net.wifi.ScanSettings$1'
p2501
sg15
(lp2502
sg17
(lp2503
sg19
(lp2504
sg21
I0
sba(iArchitecture
Entity
p2505
(dp2506
g11
(lp2507
sg13
S'android.net.wifi.SupplicantState'
p2508
sg15
(lp2509
sg17
(lp2510
sg19
(lp2511
sg21
I0
sba(iArchitecture
Entity
p2512
(dp2513
g11
(lp2514
sg13
S'android.net.wifi.SupplicantState$1'
p2515
sg15
(lp2516
sg17
(lp2517
sg19
(lp2518
sg21
I0
sba(iArchitecture
Entity
p2519
(dp2520
g11
(lp2521
sg13
S'android.net.wifi.WifiActivityEnergyInfo'
p2522
sg15
(lp2523
sg17
(lp2524
sg19
(lp2525
sg21
I0
sba(iArchitecture
Entity
p2526
(dp2527
g11
(lp2528
sg13
S'android.net.wifi.WifiActivityEnergyInfo$1'
p2529
sg15
(lp2530
sg17
(lp2531
sg19
(lp2532
sg21
I0
sba(iArchitecture
Entity
p2533
(dp2534
g11
(lp2535
sg13
S'android.net.wifi.WifiChannel'
p2536
sg15
(lp2537
sg17
(lp2538
sg19
(lp2539
sg21
I0
sba(iArchitecture
Entity
p2540
(dp2541
g11
(lp2542
sg13
S'android.net.wifi.WifiChannel$1'
p2543
sg15
(lp2544
sg17
(lp2545
sg19
(lp2546
sg21
I0
sba(iArchitecture
Entity
p2547
(dp2548
g11
(lp2549
sg13
S'android.net.wifi.WifiConfiguration'
p2550
sg15
(lp2551
sg17
(lp2552
sg19
(lp2553
sg21
I0
sba(iArchitecture
Entity
p2554
(dp2555
g11
(lp2556
sg13
S'android.net.wifi.WifiConfiguration$1'
p2557
sg15
(lp2558
sg17
(lp2559
sg19
(lp2560
sg21
I0
sba(iArchitecture
Entity
p2561
(dp2562
g11
(lp2563
sg13
S'android.net.wifi.WifiConfiguration$AuthAlgorithm'
p2564
sg15
(lp2565
sg17
(lp2566
sg19
(lp2567
sg21
I0
sba(iArchitecture
Entity
p2568
(dp2569
g11
(lp2570
sg13
S'android.net.wifi.WifiConfiguration$GroupCipher'
p2571
sg15
(lp2572
sg17
(lp2573
sg19
(lp2574
sg21
I0
sba(iArchitecture
Entity
p2575
(dp2576
g11
(lp2577
sg13
S'android.net.wifi.WifiConfiguration$KeyMgmt'
p2578
sg15
(lp2579
sg17
(lp2580
sg19
(lp2581
sg21
I0
sba(iArchitecture
Entity
p2582
(dp2583
g11
(lp2584
sg13
S'android.net.wifi.WifiConfiguration$PairwiseCipher'
p2585
sg15
(lp2586
sg17
(lp2587
sg19
(lp2588
sg21
I0
sba(iArchitecture
Entity
p2589
(dp2590
g11
(lp2591
sg13
S'android.net.wifi.WifiConfiguration$Protocol'
p2592
sg15
(lp2593
sg17
(lp2594
sg19
(lp2595
sg21
I0
sba(iArchitecture
Entity
p2596
(dp2597
g11
(lp2598
sg13
S'android.net.wifi.WifiConfiguration$Status'
p2599
sg15
(lp2600
sg17
(lp2601
sg19
(lp2602
sg21
I0
sba(iArchitecture
Entity
p2603
(dp2604
g11
(lp2605
sg13
S'android.net.wifi.WifiConfiguration$Visibility'
p2606
sg15
(lp2607
sg17
(lp2608
sg19
(lp2609
sg21
I0
sba(iArchitecture
Entity
p2610
(dp2611
g11
(lp2612
sg13
S'android.net.wifi.WifiConnectionStatistics'
p2613
sg15
(lp2614
sg17
(lp2615
sg19
(lp2616
sg21
I0
sba(iArchitecture
Entity
p2617
(dp2618
g11
(lp2619
sg13
S'android.net.wifi.WifiConnectionStatistics$1'
p2620
sg15
(lp2621
sg17
(lp2622
sg19
(lp2623
sg21
I0
sba(iArchitecture
Entity
p2624
(dp2625
g11
(lp2626
sg13
S'android.net.wifi.WifiEnterpriseConfig'
p2627
sg15
(lp2628
sg17
(lp2629
sg19
(lp2630
sg21
I0
sba(iArchitecture
Entity
p2631
(dp2632
g11
(lp2633
sg13
S'android.net.wifi.WifiEnterpriseConfig$1'
p2634
sg15
(lp2635
sg17
(lp2636
sg19
(lp2637
sg21
I0
sba(iArchitecture
Entity
p2638
(dp2639
g11
(lp2640
sg13
S'android.net.wifi.WifiEnterpriseConfig$Eap'
p2641
sg15
(lp2642
sg17
(lp2643
sg19
(lp2644
sg21
I0
sba(iArchitecture
Entity
p2645
(dp2646
g11
(lp2647
sg13
S'android.net.wifi.WifiEnterpriseConfig$Phase2'
p2648
sg15
(lp2649
sg17
(lp2650
sg19
(lp2651
sg21
I0
sba(iArchitecture
Entity
p2652
(dp2653
g11
(lp2654
sg13
S'android.net.wifi.WifiInfo'
p2655
sg15
(lp2656
sg17
(lp2657
sg19
(lp2658
sg21
I0
sba(iArchitecture
Entity
p2659
(dp2660
g11
(lp2661
sg13
S'android.net.wifi.WifiInfo$1'
p2662
sg15
(lp2663
sg17
(lp2664
sg19
(lp2665
sg21
I0
sba(iArchitecture
Entity
p2666
(dp2667
g11
(lp2668
sg13
S'android.net.wifi.WifiLinkLayerStats'
p2669
sg15
(lp2670
sg17
(lp2671
sg19
(lp2672
sg21
I0
sba(iArchitecture
Entity
p2673
(dp2674
g11
(lp2675
sg13
S'android.net.wifi.WifiLinkLayerStats$1'
p2676
sg15
(lp2677
sg17
(lp2678
sg19
(lp2679
sg21
I0
sba(iArchitecture
Entity
p2680
(dp2681
g11
(lp2682
sg13
S'android.net.wifi.WifiManager'
p2683
sg15
(lp2684
sg17
(lp2685
sg19
(lp2686
sg21
I0
sba(iArchitecture
Entity
p2687
(dp2688
g11
(lp2689
sg13
S'android.net.wifi.WifiManager$ActionListener'
p2690
sg15
(lp2691
sg17
(lp2692
sg19
(lp2693
sg21
I0
sba(iArchitecture
Entity
p2694
(dp2695
g11
(lp2696
sg13
S'android.net.wifi.WifiManager$MulticastLock'
p2697
sg15
(lp2698
sg17
(lp2699
sg19
(lp2700
sg21
I0
sba(iArchitecture
Entity
p2701
(dp2702
g11
(lp2703
sg13
S'android.net.wifi.WifiManager$PinningNetworkCallback'
p2704
sg15
(lp2705
sg17
(lp2706
sg19
(lp2707
sg21
I0
sba(iArchitecture
Entity
p2708
(dp2709
g11
(lp2710
sg13
S'android.net.wifi.WifiManager$ServiceHandler'
p2711
sg15
(lp2712
sg17
(lp2713
sg19
(lp2714
sg21
I0
sba(iArchitecture
Entity
p2715
(dp2716
g11
(lp2717
sg13
S'android.net.wifi.WifiManager$TxPacketCountListener'
p2718
sg15
(lp2719
sg17
(lp2720
sg19
(lp2721
sg21
I0
sba(iArchitecture
Entity
p2722
(dp2723
g11
(lp2724
sg13
S'android.net.wifi.WifiManager$WifiLock'
p2725
sg15
(lp2726
sg17
(lp2727
sg19
(lp2728
sg21
I0
sba(iArchitecture
Entity
p2729
(dp2730
g11
(lp2731
sg13
S'android.net.wifi.WifiManager$WpsCallback'
p2732
sg15
(lp2733
sg17
(lp2734
sg19
(lp2735
sg21
I0
sba(iArchitecture
Entity
p2736
(dp2737
g11
(lp2738
sg13
S'android.net.wifi.WifiNetworkConnectionStatistics'
p2739
sg15
(lp2740
sg17
(lp2741
sg19
(lp2742
sg21
I0
sba(iArchitecture
Entity
p2743
(dp2744
g11
(lp2745
sg13
S'android.net.wifi.WifiNetworkConnectionStatistics$1'
p2746
sg15
(lp2747
sg17
(lp2748
sg19
(lp2749
sg21
I0
sba(iArchitecture
Entity
p2750
(dp2751
g11
(lp2752
sg13
S'android.net.wifi.WifiScanner'
p2753
sg15
(lp2754
sg17
(lp2755
sg19
(lp2756
sg21
I0
sba(iArchitecture
Entity
p2757
(dp2758
g11
(lp2759
sg13
S'android.net.wifi.WifiScanner$ActionListener'
p2760
sg15
(lp2761
sg17
(lp2762
sg19
(lp2763
sg21
I0
sba(iArchitecture
Entity
p2764
(dp2765
g11
(lp2766
sg13
S'android.net.wifi.WifiScanner$BssidInfo'
p2767
sg15
(lp2768
sg17
(lp2769
sg19
(lp2770
sg21
I0
sba(iArchitecture
Entity
p2771
(dp2772
g11
(lp2773
sg13
S'android.net.wifi.WifiScanner$BssidListener'
p2774
sg15
(lp2775
sg17
(lp2776
sg19
(lp2777
sg21
I0
sba(iArchitecture
Entity
p2778
(dp2779
g11
(lp2780
sg13
S'android.net.wifi.WifiScanner$ChannelSpec'
p2781
sg15
(lp2782
sg17
(lp2783
sg19
(lp2784
sg21
I0
sba(iArchitecture
Entity
p2785
(dp2786
g11
(lp2787
sg13
S'android.net.wifi.WifiScanner$HotlistSettings'
p2788
sg15
(lp2789
sg17
(lp2790
sg19
(lp2791
sg21
I0
sba(iArchitecture
Entity
p2792
(dp2793
g11
(lp2794
sg13
S'android.net.wifi.WifiScanner$HotlistSettings$1'
p2795
sg15
(lp2796
sg17
(lp2797
sg19
(lp2798
sg21
I0
sba(iArchitecture
Entity
p2799
(dp2800
g11
(lp2801
sg13
S'android.net.wifi.WifiScanner$OperationResult'
p2802
sg15
(lp2803
sg17
(lp2804
sg19
(lp2805
sg21
I0
sba(iArchitecture
Entity
p2806
(dp2807
g11
(lp2808
sg13
S'android.net.wifi.WifiScanner$OperationResult$1'
p2809
sg15
(lp2810
sg17
(lp2811
sg19
(lp2812
sg21
I0
sba(iArchitecture
Entity
p2813
(dp2814
g11
(lp2815
sg13
S'android.net.wifi.WifiScanner$ParcelableScanData'
p2816
sg15
(lp2817
sg17
(lp2818
sg19
(lp2819
sg21
I0
sba(iArchitecture
Entity
p2820
(dp2821
g11
(lp2822
sg13
S'android.net.wifi.WifiScanner$ParcelableScanData$1'
p2823
sg15
(lp2824
sg17
(lp2825
sg19
(lp2826
sg21
I0
sba(iArchitecture
Entity
p2827
(dp2828
g11
(lp2829
sg13
S'android.net.wifi.WifiScanner$ParcelableScanResults'
p2830
sg15
(lp2831
sg17
(lp2832
sg19
(lp2833
sg21
I0
sba(iArchitecture
Entity
p2834
(dp2835
g11
(lp2836
sg13
S'android.net.wifi.WifiScanner$ParcelableScanResults$1'
p2837
sg15
(lp2838
sg17
(lp2839
sg19
(lp2840
sg21
I0
sba(iArchitecture
Entity
p2841
(dp2842
g11
(lp2843
sg13
S'android.net.wifi.WifiScanner$ScanData'
p2844
sg15
(lp2845
sg17
(lp2846
sg19
(lp2847
sg21
I0
sba(iArchitecture
Entity
p2848
(dp2849
g11
(lp2850
sg13
S'android.net.wifi.WifiScanner$ScanData$1'
p2851
sg15
(lp2852
sg17
(lp2853
sg19
(lp2854
sg21
I0
sba(iArchitecture
Entity
p2855
(dp2856
g11
(lp2857
sg13
S'android.net.wifi.WifiScanner$ScanListener'
p2858
sg15
(lp2859
sg17
(lp2860
sg19
(lp2861
sg21
I0
sba(iArchitecture
Entity
p2862
(dp2863
g11
(lp2864
sg13
S'android.net.wifi.WifiScanner$ScanSettings'
p2865
sg15
(lp2866
sg17
(lp2867
sg19
(lp2868
sg21
I0
sba(iArchitecture
Entity
p2869
(dp2870
g11
(lp2871
sg13
S'android.net.wifi.WifiScanner$ScanSettings$1'
p2872
sg15
(lp2873
sg17
(lp2874
sg19
(lp2875
sg21
I0
sba(iArchitecture
Entity
p2876
(dp2877
g11
(lp2878
sg13
S'android.net.wifi.WifiScanner$ServiceHandler'
p2879
sg15
(lp2880
sg17
(lp2881
sg19
(lp2882
sg21
I0
sba(iArchitecture
Entity
p2883
(dp2884
g11
(lp2885
sg13
S'android.net.wifi.WifiScanner$WifiChangeListener'
p2886
sg15
(lp2887
sg17
(lp2888
sg19
(lp2889
sg21
I0
sba(iArchitecture
Entity
p2890
(dp2891
g11
(lp2892
sg13
S'android.net.wifi.WifiScanner$WifiChangeSettings'
p2893
sg15
(lp2894
sg17
(lp2895
sg19
(lp2896
sg21
I0
sba(iArchitecture
Entity
p2897
(dp2898
g11
(lp2899
sg13
S'android.net.wifi.WifiScanner$WifiChangeSettings$1'
p2900
sg15
(lp2901
sg17
(lp2902
sg19
(lp2903
sg21
I0
sba(iArchitecture
Entity
p2904
(dp2905
g11
(lp2906
sg13
S'android.net.wifi.WifiSsid'
p2907
sg15
(lp2908
sg17
(lp2909
sg19
(lp2910
sg21
I0
sba(iArchitecture
Entity
p2911
(dp2912
g11
(lp2913
sg13
S'android.net.wifi.WifiSsid$1'
p2914
sg15
(lp2915
sg17
(lp2916
sg19
(lp2917
sg21
I0
sba(iArchitecture
Entity
p2918
(dp2919
g11
(lp2920
sg13
S'android.net.wifi.WpsInfo'
p2921
sg15
(lp2922
sg17
(lp2923
sg19
(lp2924
sg21
I0
sba(iArchitecture
Entity
p2925
(dp2926
g11
(lp2927
sg13
S'android.net.wifi.WpsInfo$1'
p2928
sg15
(lp2929
sg17
(lp2930
sg19
(lp2931
sg21
I0
sba(iArchitecture
Entity
p2932
(dp2933
g11
(lp2934
sg13
S'android.net.wifi.WpsResult'
p2935
sg15
(lp2936
sg17
(lp2937
sg19
(lp2938
sg21
I0
sba(iArchitecture
Entity
p2939
(dp2940
g11
(lp2941
sg13
S'android.net.wifi.WpsResult$1'
p2942
sg15
(lp2943
sg17
(lp2944
sg19
(lp2945
sg21
I0
sba(iArchitecture
Entity
p2946
(dp2947
g11
(lp2948
sg13
S'android.net.wifi.WpsResult$Status'
p2949
sg15
(lp2950
sg17
(lp2951
sg19
(lp2952
sg21
I0
sbasg379
(lp2953
g2340
ag2347
ag2354
ag2361
ag2368
ag2375
ag2382
ag2389
ag2396
ag2403
ag2410
ag2417
ag2424
ag2431
ag2438
ag2445
ag2452
ag2459
ag2466
ag2473
ag2480
ag2487
ag2494
ag2501
ag2508
ag2515
ag2522
ag2529
ag2536
ag2543
ag2550
ag2557
ag2564
ag2571
ag2578
ag2585
ag2592
ag2599
ag2606
ag2613
ag2620
ag2627
ag2634
ag2641
ag2648
ag2655
ag2662
ag2669
ag2676
ag2683
ag2690
ag2697
ag2704
ag2711
ag2718
ag2725
ag2732
ag2739
ag2746
ag2753
ag2760
ag2767
ag2774
ag2781
ag2788
ag2795
ag2802
ag2809
ag2816
ag2823
ag2830
ag2837
ag2844
ag2851
ag2858
ag2865
ag2872
ag2879
ag2886
ag2893
ag2900
ag2907
ag2914
ag2921
ag2928
ag2935
ag2942
ag2949
asg21
I0
sg381
S'android.net.wifi.ss'
p2954
sba(iArchitecture
Cluster
p2955
(dp2956
g7
(lp2957
(iArchitecture
Entity
p2958
(dp2959
g11
(lp2960
sg13
S'android.net.Uri$Builder'
p2961
sg15
(lp2962
sg17
(lp2963
sg19
(lp2964
sg21
I0
sbasg379
(lp2965
g2961
asg21
I0
sg381
S'android.provider.ss'
p2966
sba(iArchitecture
Cluster
p2967
(dp2968
g7
(lp2969
(iArchitecture
Entity
p2970
(dp2971
g11
(lp2972
sg13
S'android.net.wifi.p2p.nsd.WifiP2pUpnpServiceRequest'
p2973
sg15
(lp2974
sg17
(lp2975
sg19
(lp2976
sg21
I0
sbasg379
(lp2977
g2973
asg21
I0
sg381
S'android.speech.tts.ss'
p2978
sba(iArchitecture
Cluster
p2979
(dp2980
g7
(lp2981
(iArchitecture
Entity
p2982
(dp2983
g11
(lp2984
sg13
S'android.net.SntpClient'
p2985
sg15
(lp2986
sg17
(lp2987
sg19
(lp2988
sg21
I0
sbasg379
(lp2989
g2985
asg21
I0
sg381
S'android.util.ss'
p2990
sba(iArchitecture
Cluster
p2991
(dp2992
g7
(lp2993
(iArchitecture
Entity
p2994
(dp2995
g11
(lp2996
sg13
S'android.net.ParseException'
p2997
sg15
(lp2998
sg17
(lp2999
sg19
(lp3000
sg21
I0
sba(iArchitecture
Entity
p3001
(dp3002
g11
(lp3003
sg13
S'android.net.WebAddress'
p3004
sg15
(lp3005
sg17
(lp3006
sg19
(lp3007
sg21
I0
sba(iArchitecture
Entity
p3008
(dp3009
g11
(lp3010
sg13
S'android.net.http.SslError'
p3011
sg15
(lp3012
sg17
(lp3013
sg19
(lp3014
sg21
I0
sbasg379
(lp3015
g2997
ag3004
ag3011
asg21
I0
sg381
S'android.webkit.ss'
p3016
sba(iArchitecture
Cluster
p3017
(dp3018
g7
(lp3019
(iArchitecture
Entity
p3020
(dp3021
g11
(lp3022
sg13
S'android.net.Credentials'
p3023
sg15
(lp3024
sg17
(lp3025
sg19
(lp3026
sg21
I0
sba(iArchitecture
Entity
p3027
(dp3028
g11
(lp3029
sg13
S'android.net.LocalServerSocket'
p3030
sg15
(lp3031
sg17
(lp3032
sg19
(lp3033
sg21
I0
sba(iArchitecture
Entity
p3034
(dp3035
g11
(lp3036
sg13
S'android.net.LocalSocket'
p3037
sg15
(lp3038
sg17
(lp3039
sg19
(lp3040
sg21
I0
sba(iArchitecture
Entity
p3041
(dp3042
g11
(lp3043
sg13
S'android.net.LocalSocketAddress'
p3044
sg15
(lp3045
sg17
(lp3046
sg19
(lp3047
sg21
I0
sba(iArchitecture
Entity
p3048
(dp3049
g11
(lp3050
sg13
S'android.net.LocalSocketAddress$Namespace'
p3051
sg15
(lp3052
sg17
(lp3053
sg19
(lp3054
sg21
I0
sbasg379
(lp3055
g3023
ag3030
ag3037
ag3044
ag3051
asg21
I0
sg381
S'com.android.internal.os.ss'
p3056
sba(iArchitecture
Cluster
p3057
(dp3058
g7
(lp3059
(iArchitecture
Entity
p3060
(dp3061
g11
(lp3062
sg13
S'com.android.net.IProxyPortListener'
p3063
sg15
(lp3064
sg17
(lp3065
sg19
(lp3066
sg21
I0
sba(iArchitecture
Entity
p3067
(dp3068
g11
(lp3069
sg13
S'com.android.net.IProxyPortListener$Stub'
p3070
sg15
(lp3071
sg17
(lp3072
sg19
(lp3073
sg21
I0
sba(iArchitecture
Entity
p3074
(dp3075
g11
(lp3076
sg13
S'com.android.net.IProxyPortListener$Stub$Proxy'
p3077
sg15
(lp3078
sg17
(lp3079
sg19
(lp3080
sg21
I0
sbasg379
(lp3081
g3063
ag3070
ag3077
asg21
I0
sg381
S'com.android.net.ss'
p3082
sba(iArchitecture
Cluster
p3083
(dp3084
g7
(lp3085
(iArchitecture
Entity
p3086
(dp3087
g11
(lp3088
sg13
S'android.net.ICaptivePortal'
p3089
sg15
(lp3090
sg17
(lp3091
sg19
(lp3092
sg21
I0
sba(iArchitecture
Entity
p3093
(dp3094
g11
(lp3095
sg13
S'android.net.ICaptivePortal$Stub'
p3096
sg15
(lp3097
sg17
(lp3098
sg19
(lp3099
sg21
I0
sba(iArchitecture
Entity
p3100
(dp3101
g11
(lp3102
sg13
S'android.net.ICaptivePortal$Stub$Proxy'
p3103
sg15
(lp3104
sg17
(lp3105
sg19
(lp3106
sg21
I0
sba(iArchitecture
Entity
p3107
(dp3108
g11
(lp3109
sg13
S'android.net.INetworkManagementEventObserver'
p3110
sg15
(lp3111
sg17
(lp3112
sg19
(lp3113
sg21
I0
sba(iArchitecture
Entity
p3114
(dp3115
g11
(lp3116
sg13
S'android.net.INetworkManagementEventObserver$Stub'
p3117
sg15
(lp3118
sg17
(lp3119
sg19
(lp3120
sg21
I0
sba(iArchitecture
Entity
p3121
(dp3122
g11
(lp3123
sg13
S'android.net.INetworkManagementEventObserver$Stub$Proxy'
p3124
sg15
(lp3125
sg17
(lp3126
sg19
(lp3127
sg21
I0
sba(iArchitecture
Entity
p3128
(dp3129
g11
(lp3130
sg13
S'android.net.NetworkAgent'
p3131
sg15
(lp3132
sg17
(lp3133
sg19
(lp3134
sg21
I0
sba(iArchitecture
Entity
p3135
(dp3136
g11
(lp3137
sg13
S'android.net.NetworkInfo$DetailedState'
p3138
sg15
(lp3139
sg17
(lp3140
sg19
(lp3141
sg21
I0
sba(iArchitecture
Entity
p3142
(dp3143
g11
(lp3144
sg13
S'android.net.NetworkUtils'
p3145
sg15
(lp3146
sg17
(lp3147
sg19
(lp3148
sg21
I0
sba(iArchitecture
Entity
p3149
(dp3150
g11
(lp3151
sg13
S'com.android.net.IProxyCallback'
p3152
sg15
(lp3153
sg17
(lp3154
sg19
(lp3155
sg21
I0
sba(iArchitecture
Entity
p3156
(dp3157
g11
(lp3158
sg13
S'com.android.net.IProxyCallback$Stub'
p3159
sg15
(lp3160
sg17
(lp3161
sg19
(lp3162
sg21
I0
sba(iArchitecture
Entity
p3163
(dp3164
g11
(lp3165
sg13
S'com.android.net.IProxyCallback$Stub$Proxy'
p3166
sg15
(lp3167
sg17
(lp3168
sg19
(lp3169
sg21
I0
sba(iArchitecture
Entity
p3170
(dp3171
g11
(lp3172
sg13
S'com.android.net.IProxyService'
p3173
sg15
(lp3174
sg17
(lp3175
sg19
(lp3176
sg21
I0
sba(iArchitecture
Entity
p3177
(dp3178
g11
(lp3179
sg13
S'com.android.net.IProxyService$Stub'
p3180
sg15
(lp3181
sg17
(lp3182
sg19
(lp3183
sg21
I0
sba(iArchitecture
Entity
p3184
(dp3185
g11
(lp3186
sg13
S'com.android.net.IProxyService$Stub$Proxy'
p3187
sg15
(lp3188
sg17
(lp3189
sg19
(lp3190
sg21
I0
sbasg379
(lp3191
g3089
ag3096
ag3103
ag3110
ag3117
ag3124
ag3131
ag3138
ag3145
ag3152
ag3159
ag3166
ag3173
ag3180
ag3187
asg21
I0
sg381
S'com.android.server.connectivity.ss'
p3192
sba(iArchitecture
Cluster
p3193
(dp3194
g7
(lp3195
(iArchitecture
Entity
p3196
(dp3197
g11
(lp3198
sg13
S'android.net.TrafficStats'
p3199
sg15
(lp3200
sg17
(lp3201
sg19
(lp3202
sg21
I0
sbasg379
(lp3203
g3199
asg21
I0
sg381
S'com.android.server.content.ss'
p3204
sba(iArchitecture
Cluster
p3205
(dp3206
g7
(lp3207
(iArchitecture
Entity
p3208
(dp3209
g11
(lp3210
sg13
S'android.net.wifi.p2p.WifiP2pManager$ActionListener'
p3211
sg15
(lp3212
sg17
(lp3213
sg19
(lp3214
sg21
I0
sbasg379
(lp3215
g3211
asg21
I0
sg381
S'com.android.server.display.ss'
p3216
sba(iArchitecture
Cluster
p3217
(dp3218
g7
(lp3219
(iArchitecture
Entity
p3220
(dp3221
g11
(lp3222
sg13
S'android.net.INetworkStatsService'
p3223
sg15
(lp3224
sg17
(lp3225
sg19
(lp3226
sg21
I0
sba(iArchitecture
Entity
p3227
(dp3228
g11
(lp3229
sg13
S'android.net.INetworkStatsService$Stub'
p3230
sg15
(lp3231
sg17
(lp3232
sg19
(lp3233
sg21
I0
sba(iArchitecture
Entity
p3234
(dp3235
g11
(lp3236
sg13
S'android.net.INetworkStatsService$Stub$Proxy'
p3237
sg15
(lp3238
sg17
(lp3239
sg19
(lp3240
sg21
I0
sba(iArchitecture
Entity
p3241
(dp3242
g11
(lp3243
sg13
S'android.net.INetworkStatsSession'
p3244
sg15
(lp3245
sg17
(lp3246
sg19
(lp3247
sg21
I0
sba(iArchitecture
Entity
p3248
(dp3249
g11
(lp3250
sg13
S'android.net.INetworkStatsSession$Stub'
p3251
sg15
(lp3252
sg17
(lp3253
sg19
(lp3254
sg21
I0
sba(iArchitecture
Entity
p3255
(dp3256
g11
(lp3257
sg13
S'android.net.INetworkStatsSession$Stub$Proxy'
p3258
sg15
(lp3259
sg17
(lp3260
sg19
(lp3261
sg21
I0
sba(iArchitecture
Entity
p3262
(dp3263
g11
(lp3264
sg13
S'android.net.NetworkIdentity'
p3265
sg15
(lp3266
sg17
(lp3267
sg19
(lp3268
sg21
I0
sba(iArchitecture
Entity
p3269
(dp3270
g11
(lp3271
sg13
S'android.net.NetworkStats$Entry'
p3272
sg15
(lp3273
sg17
(lp3274
sg19
(lp3275
sg21
I0
sba(iArchitecture
Entity
p3276
(dp3277
g11
(lp3278
sg13
S'android.net.NetworkStats$NonMonotonicObserver'
p3279
sg15
(lp3280
sg17
(lp3281
sg19
(lp3282
sg21
I0
sba(iArchitecture
Entity
p3283
(dp3284
g11
(lp3285
sg13
S'android.net.NetworkStatsHistory$Entry'
p3286
sg15
(lp3287
sg17
(lp3288
sg19
(lp3289
sg21
I0
sbasg379
(lp3290
g3223
ag3230
ag3237
ag3244
ag3251
ag3258
ag3265
ag3272
ag3279
ag3286
asg21
I0
sg381
S'com.android.server.net.ss'
p3291
sba(iArchitecture
Cluster
p3292
(dp3293
g7
(lp3294
(iArchitecture
Entity
p3295
(dp3296
g11
(lp3297
sg13
S'android.net.wifi.p2p.WifiP2pProvDiscEvent'
p3298
sg15
(lp3299
sg17
(lp3300
sg19
(lp3301
sg21
I0
sba(iArchitecture
Entity
p3302
(dp3303
g11
(lp3304
sg13
S'android.net.wifi.p2p.nsd.WifiP2pUpnpServiceInfo'
p3305
sg15
(lp3306
sg17
(lp3307
sg19
(lp3308
sg21
I0
sba(iArchitecture
Entity
p3309
(dp3310
g11
(lp3311
sg13
S'android.net.wimax.WimaxManagerConstants'
p3312
sg15
(lp3313
sg17
(lp3314
sg19
(lp3315
sg21
I0
sbasg379
(lp3316
g3298
ag3305
ag3312
asg21
I0
sg381
S'com.android.server.pm.ss'
p3317
sba(iArchitecture
Cluster
p3318
(dp3319
g7
(lp3320
(iArchitecture
Entity
p3321
(dp3322
g11
(lp3323
sg13
S'android.net.LinkProperties$CompareResult'
p3324
sg15
(lp3325
sg17
(lp3326
sg19
(lp3327
sg21
I0
sba(iArchitecture
Entity
p3328
(dp3329
g11
(lp3330
sg13
S'android.net.NetworkConfig'
p3331
sg15
(lp3332
sg17
(lp3333
sg19
(lp3334
sg21
I0
sba(iArchitecture
Entity
p3335
(dp3336
g11
(lp3337
sg13
S'android.net.NetworkInfo$State'
p3338
sg15
(lp3339
sg17
(lp3340
sg19
(lp3341
sg21
I0
sba(iArchitecture
Entity
p3342
(dp3343
g11
(lp3344
sg13
S'android.net.NetworkScorerAppManager'
p3345
sg15
(lp3346
sg17
(lp3347
sg19
(lp3348
sg21
I0
sba(iArchitecture
Entity
p3349
(dp3350
g11
(lp3351
sg13
S'android.net.NetworkScorerAppManager$NetworkScorerAppData'
p3352
sg15
(lp3353
sg17
(lp3354
sg19
(lp3355
sg21
I0
sbasg379
(lp3356
g3324
ag3331
ag3338
ag3345
ag3352
asg21
I0
sg381
S'com.android.server.ss'
p3357
sba(iArchitecture
Cluster
p3358
(dp3359
g7
(lp3360
(iArchitecture
Entity
p3361
(dp3362
g11
(lp3363
sg13
S'android.net.MailTo'
p3364
sg15
(lp3365
sg17
(lp3366
sg19
(lp3367
sg21
I0
sbasg379
(lp3368
g3364
asg21
I0
sg381
S'com.android.server.tv.ss'
p3369
sbasS'target_sub'
p3370
S'android.net'
p3371
sg379
(lp3372
sS'is_component_arch'
p3373
I00
sg381
S'6.0.0_r1'
p3374
sba(iArchitecture
Architecture
p3375
(dp3376
g3
(lp3377
(iArchitecture
Cluster
p3378
(dp3379
g7
(lp3380
(iArchitecture
Entity
p3381
(dp3382
g11
(lp3383
sg13
S'android.net.ConnectivityThread'
p3384
sg15
(lp3385
sg17
(lp3386
sg19
(lp3387
sg21
I0
sba(iArchitecture
Entity
p3388
(dp3389
g11
(lp3390
sg13
S'android.net.IConnectivityManager'
p3391
sg15
(lp3392
sg17
(lp3393
sg19
(lp3394
sg21
I0
sba(iArchitecture
Entity
p3395
(dp3396
g11
(lp3397
sg13
S'android.net.IConnectivityManager$Stub'
p3398
sg15
(lp3399
sg17
(lp3400
sg19
(lp3401
sg21
I0
sba(iArchitecture
Entity
p3402
(dp3403
g11
(lp3404
sg13
S'android.net.IConnectivityManager$Stub$Proxy'
p3405
sg15
(lp3406
sg17
(lp3407
sg19
(lp3408
sg21
I0
sba(iArchitecture
Entity
p3409
(dp3410
g11
(lp3411
sg13
S'android.net.IEthernetManager'
p3412
sg15
(lp3413
sg17
(lp3414
sg19
(lp3415
sg21
I0
sba(iArchitecture
Entity
p3416
(dp3417
g11
(lp3418
sg13
S'android.net.IEthernetManager$Stub'
p3419
sg15
(lp3420
sg17
(lp3421
sg19
(lp3422
sg21
I0
sba(iArchitecture
Entity
p3423
(dp3424
g11
(lp3425
sg13
S'android.net.IEthernetManager$Stub$Proxy'
p3426
sg15
(lp3427
sg17
(lp3428
sg19
(lp3429
sg21
I0
sba(iArchitecture
Entity
p3430
(dp3431
g11
(lp3432
sg13
S'android.net.INetworkPolicyListener'
p3433
sg15
(lp3434
sg17
(lp3435
sg19
(lp3436
sg21
I0
sba(iArchitecture
Entity
p3437
(dp3438
g11
(lp3439
sg13
S'android.net.INetworkPolicyListener$Stub'
p3440
sg15
(lp3441
sg17
(lp3442
sg19
(lp3443
sg21
I0
sba(iArchitecture
Entity
p3444
(dp3445
g11
(lp3446
sg13
S'android.net.INetworkPolicyListener$Stub$Proxy'
p3447
sg15
(lp3448
sg17
(lp3449
sg19
(lp3450
sg21
I0
sba(iArchitecture
Entity
p3451
(dp3452
g11
(lp3453
sg13
S'android.net.INetworkPolicyManager'
p3454
sg15
(lp3455
sg17
(lp3456
sg19
(lp3457
sg21
I0
sba(iArchitecture
Entity
p3458
(dp3459
g11
(lp3460
sg13
S'android.net.INetworkPolicyManager$Stub'
p3461
sg15
(lp3462
sg17
(lp3463
sg19
(lp3464
sg21
I0
sba(iArchitecture
Entity
p3465
(dp3466
g11
(lp3467
sg13
S'android.net.INetworkPolicyManager$Stub$Proxy'
p3468
sg15
(lp3469
sg17
(lp3470
sg19
(lp3471
sg21
I0
sba(iArchitecture
Entity
p3472
(dp3473
g11
(lp3474
sg13
S'android.net.INetworkScoreCache'
p3475
sg15
(lp3476
sg17
(lp3477
sg19
(lp3478
sg21
I0
sba(iArchitecture
Entity
p3479
(dp3480
g11
(lp3481
sg13
S'android.net.INetworkScoreCache$Stub'
p3482
sg15
(lp3483
sg17
(lp3484
sg19
(lp3485
sg21
I0
sba(iArchitecture
Entity
p3486
(dp3487
g11
(lp3488
sg13
S'android.net.INetworkScoreCache$Stub$Proxy'
p3489
sg15
(lp3490
sg17
(lp3491
sg19
(lp3492
sg21
I0
sba(iArchitecture
Entity
p3493
(dp3494
g11
(lp3495
sg13
S'android.net.INetworkScoreService'
p3496
sg15
(lp3497
sg17
(lp3498
sg19
(lp3499
sg21
I0
sba(iArchitecture
Entity
p3500
(dp3501
g11
(lp3502
sg13
S'android.net.INetworkScoreService$Stub'
p3503
sg15
(lp3504
sg17
(lp3505
sg19
(lp3506
sg21
I0
sba(iArchitecture
Entity
p3507
(dp3508
g11
(lp3509
sg13
S'android.net.INetworkScoreService$Stub$Proxy'
p3510
sg15
(lp3511
sg17
(lp3512
sg19
(lp3513
sg21
I0
sba(iArchitecture
Entity
p3514
(dp3515
g11
(lp3516
sg13
S'android.net.NetworkPolicyManager'
p3517
sg15
(lp3518
sg17
(lp3519
sg19
(lp3520
sg21
I0
sba(iArchitecture
Entity
p3521
(dp3522
g11
(lp3523
sg13
S'android.net.NetworkScoreManager'
p3524
sg15
(lp3525
sg17
(lp3526
sg19
(lp3527
sg21
I0
sba(iArchitecture
Entity
p3528
(dp3529
g11
(lp3530
sg13
S'android.net.nsd.INsdManager'
p3531
sg15
(lp3532
sg17
(lp3533
sg19
(lp3534
sg21
I0
sba(iArchitecture
Entity
p3535
(dp3536
g11
(lp3537
sg13
S'android.net.nsd.INsdManager$Stub'
p3538
sg15
(lp3539
sg17
(lp3540
sg19
(lp3541
sg21
I0
sba(iArchitecture
Entity
p3542
(dp3543
g11
(lp3544
sg13
S'android.net.nsd.INsdManager$Stub$Proxy'
p3545
sg15
(lp3546
sg17
(lp3547
sg19
(lp3548
sg21
I0
sba(iArchitecture
Entity
p3549
(dp3550
g11
(lp3551
sg13
S'android.net.wifi.IRttManager'
p3552
sg15
(lp3553
sg17
(lp3554
sg19
(lp3555
sg21
I0
sba(iArchitecture
Entity
p3556
(dp3557
g11
(lp3558
sg13
S'android.net.wifi.IRttManager$Stub'
p3559
sg15
(lp3560
sg17
(lp3561
sg19
(lp3562
sg21
I0
sba(iArchitecture
Entity
p3563
(dp3564
g11
(lp3565
sg13
S'android.net.wifi.IRttManager$Stub$Proxy'
p3566
sg15
(lp3567
sg17
(lp3568
sg19
(lp3569
sg21
I0
sba(iArchitecture
Entity
p3570
(dp3571
g11
(lp3572
sg13
S'android.net.wifi.IWifiManager$Stub'
p3573
sg15
(lp3574
sg17
(lp3575
sg19
(lp3576
sg21
I0
sba(iArchitecture
Entity
p3577
(dp3578
g11
(lp3579
sg13
S'android.net.wifi.IWifiManager$Stub$Proxy'
p3580
sg15
(lp3581
sg17
(lp3582
sg19
(lp3583
sg21
I0
sba(iArchitecture
Entity
p3584
(dp3585
g11
(lp3586
sg13
S'android.net.wifi.IWifiScanner'
p3587
sg15
(lp3588
sg17
(lp3589
sg19
(lp3590
sg21
I0
sba(iArchitecture
Entity
p3591
(dp3592
g11
(lp3593
sg13
S'android.net.wifi.IWifiScanner$Stub'
p3594
sg15
(lp3595
sg17
(lp3596
sg19
(lp3597
sg21
I0
sba(iArchitecture
Entity
p3598
(dp3599
g11
(lp3600
sg13
S'android.net.wifi.IWifiScanner$Stub$Proxy'
p3601
sg15
(lp3602
sg17
(lp3603
sg19
(lp3604
sg21
I0
sba(iArchitecture
Entity
p3605
(dp3606
g11
(lp3607
sg13
S'android.net.wifi.RttManager$RttCapabilities'
p3608
sg15
(lp3609
sg17
(lp3610
sg19
(lp3611
sg21
I0
sba(iArchitecture
Entity
p3612
(dp3613
g11
(lp3614
sg13
S'android.net.wifi.RttManager$RttCapabilities$1'
p3615
sg15
(lp3616
sg17
(lp3617
sg19
(lp3618
sg21
I0
sba(iArchitecture
Entity
p3619
(dp3620
g11
(lp3621
sg13
S'android.net.wifi.nan.IWifiNanEventListener'
p3622
sg15
(lp3623
sg17
(lp3624
sg19
(lp3625
sg21
I0
sba(iArchitecture
Entity
p3626
(dp3627
g11
(lp3628
sg13
S'android.net.wifi.nan.IWifiNanEventListener$Stub'
p3629
sg15
(lp3630
sg17
(lp3631
sg19
(lp3632
sg21
I0
sba(iArchitecture
Entity
p3633
(dp3634
g11
(lp3635
sg13
S'android.net.wifi.nan.IWifiNanEventListener$Stub$Proxy'
p3636
sg15
(lp3637
sg17
(lp3638
sg19
(lp3639
sg21
I0
sba(iArchitecture
Entity
p3640
(dp3641
g11
(lp3642
sg13
S'android.net.wifi.nan.IWifiNanManager'
p3643
sg15
(lp3644
sg17
(lp3645
sg19
(lp3646
sg21
I0
sba(iArchitecture
Entity
p3647
(dp3648
g11
(lp3649
sg13
S'android.net.wifi.nan.IWifiNanManager$Stub'
p3650
sg15
(lp3651
sg17
(lp3652
sg19
(lp3653
sg21
I0
sba(iArchitecture
Entity
p3654
(dp3655
g11
(lp3656
sg13
S'android.net.wifi.nan.IWifiNanManager$Stub$Proxy'
p3657
sg15
(lp3658
sg17
(lp3659
sg19
(lp3660
sg21
I0
sba(iArchitecture
Entity
p3661
(dp3662
g11
(lp3663
sg13
S'android.net.wifi.nan.IWifiNanSessionListener'
p3664
sg15
(lp3665
sg17
(lp3666
sg19
(lp3667
sg21
I0
sba(iArchitecture
Entity
p3668
(dp3669
g11
(lp3670
sg13
S'android.net.wifi.nan.IWifiNanSessionListener$Stub'
p3671
sg15
(lp3672
sg17
(lp3673
sg19
(lp3674
sg21
I0
sba(iArchitecture
Entity
p3675
(dp3676
g11
(lp3677
sg13
S'android.net.wifi.nan.IWifiNanSessionListener$Stub$Proxy'
p3678
sg15
(lp3679
sg17
(lp3680
sg19
(lp3681
sg21
I0
sba(iArchitecture
Entity
p3682
(dp3683
g11
(lp3684
sg13
S'android.net.wifi.p2p.IWifiP2pManager'
p3685
sg15
(lp3686
sg17
(lp3687
sg19
(lp3688
sg21
I0
sba(iArchitecture
Entity
p3689
(dp3690
g11
(lp3691
sg13
S'android.net.wifi.p2p.IWifiP2pManager$Stub'
p3692
sg15
(lp3693
sg17
(lp3694
sg19
(lp3695
sg21
I0
sba(iArchitecture
Entity
p3696
(dp3697
g11
(lp3698
sg13
S'android.net.wifi.p2p.IWifiP2pManager$Stub$Proxy'
p3699
sg15
(lp3700
sg17
(lp3701
sg19
(lp3702
sg21
I0
sba(iArchitecture
Entity
p3703
(dp3704
g11
(lp3705
sg13
S'android.net.wifi.p2p.WifiP2pManager'
p3706
sg15
(lp3707
sg17
(lp3708
sg19
(lp3709
sg21
I0
sba(iArchitecture
Entity
p3710
(dp3711
g11
(lp3712
sg13
S'android.net.wifi.p2p.WifiP2pManager$Channel'
p3713
sg15
(lp3714
sg17
(lp3715
sg19
(lp3716
sg21
I0
sba(iArchitecture
Entity
p3717
(dp3718
g11
(lp3719
sg13
S'android.net.wifi.p2p.WifiP2pManager$Channel$P2pHandler'
p3720
sg15
(lp3721
sg17
(lp3722
sg19
(lp3723
sg21
I0
sba(iArchitecture
Entity
p3724
(dp3725
g11
(lp3726
sg13
S'android.net.wifi.p2p.WifiP2pManager$ChannelListener'
p3727
sg15
(lp3728
sg17
(lp3729
sg19
(lp3730
sg21
I0
sba(iArchitecture
Entity
p3731
(dp3732
g11
(lp3733
sg13
S'android.net.wifi.p2p.WifiP2pManager$ConnectionInfoListener'
p3734
sg15
(lp3735
sg17
(lp3736
sg19
(lp3737
sg21
I0
sba(iArchitecture
Entity
p3738
(dp3739
g11
(lp3740
sg13
S'android.net.wifi.p2p.WifiP2pManager$DnsSdServiceResponseListener'
p3741
sg15
(lp3742
sg17
(lp3743
sg19
(lp3744
sg21
I0
sba(iArchitecture
Entity
p3745
(dp3746
g11
(lp3747
sg13
S'android.net.wifi.p2p.WifiP2pManager$DnsSdTxtRecordListener'
p3748
sg15
(lp3749
sg17
(lp3750
sg19
(lp3751
sg21
I0
sba(iArchitecture
Entity
p3752
(dp3753
g11
(lp3754
sg13
S'android.net.wifi.p2p.WifiP2pManager$GroupInfoListener'
p3755
sg15
(lp3756
sg17
(lp3757
sg19
(lp3758
sg21
I0
sba(iArchitecture
Entity
p3759
(dp3760
g11
(lp3761
sg13
S'android.net.wifi.p2p.WifiP2pManager$HandoverMessageListener'
p3762
sg15
(lp3763
sg17
(lp3764
sg19
(lp3765
sg21
I0
sba(iArchitecture
Entity
p3766
(dp3767
g11
(lp3768
sg13
S'android.net.wifi.p2p.WifiP2pManager$PeerListListener'
p3769
sg15
(lp3770
sg17
(lp3771
sg19
(lp3772
sg21
I0
sba(iArchitecture
Entity
p3773
(dp3774
g11
(lp3775
sg13
S'android.net.wifi.p2p.WifiP2pManager$PersistentGroupInfoListener'
p3776
sg15
(lp3777
sg17
(lp3778
sg19
(lp3779
sg21
I0
sba(iArchitecture
Entity
p3780
(dp3781
g11
(lp3782
sg13
S'android.net.wifi.p2p.WifiP2pManager$ServiceResponseListener'
p3783
sg15
(lp3784
sg17
(lp3785
sg19
(lp3786
sg21
I0
sba(iArchitecture
Entity
p3787
(dp3788
g11
(lp3789
sg13
S'android.net.wifi.p2p.WifiP2pManager$UpnpServiceResponseListener'
p3790
sg15
(lp3791
sg17
(lp3792
sg19
(lp3793
sg21
I0
sbasg379
(lp3794
g3384
ag3391
ag3398
ag3405
ag3412
ag3419
ag3426
ag3433
ag3440
ag3447
ag3454
ag3461
ag3468
ag3475
ag3482
ag3489
ag3496
ag3503
ag3510
ag3517
ag3524
ag3531
ag3538
ag3545
ag3552
ag3559
ag3566
ag3573
ag3580
ag3587
ag3594
ag3601
ag3608
ag3615
ag3622
ag3629
ag3636
ag3643
ag3650
ag3657
ag3664
ag3671
ag3678
ag3685
ag3692
ag3699
ag3706
ag3713
ag3720
ag3727
ag3734
ag3741
ag3748
ag3755
ag3762
ag3769
ag3776
ag3783
ag3790
asg21
I0
sg381
S'android.app.ss'
p3795
sba(iArchitecture
Cluster
p3796
(dp3797
g7
(lp3798
(iArchitecture
Entity
p3799
(dp3800
g11
(lp3801
sg13
S'android.net.INetworkStatsService'
p3802
sg15
(lp3803
sg17
(lp3804
sg19
(lp3805
sg21
I0
sba(iArchitecture
Entity
p3806
(dp3807
g11
(lp3808
sg13
S'android.net.INetworkStatsService$Stub'
p3809
sg15
(lp3810
sg17
(lp3811
sg19
(lp3812
sg21
I0
sba(iArchitecture
Entity
p3813
(dp3814
g11
(lp3815
sg13
S'android.net.INetworkStatsService$Stub$Proxy'
p3816
sg15
(lp3817
sg17
(lp3818
sg19
(lp3819
sg21
I0
sbasg379
(lp3820
g3802
ag3809
ag3816
asg21
I0
sg381
S'android.app.usage.ss'
p3821
sba(iArchitecture
Cluster
p3822
(dp3823
g7
(lp3824
(iArchitecture
Entity
p3825
(dp3826
g11
(lp3827
sg13
S'android.net.apf.ApfFilter'
p3828
sg15
(lp3829
sg17
(lp3830
sg19
(lp3831
sg21
I0
sba(iArchitecture
Entity
p3832
(dp3833
g11
(lp3834
sg13
S'android.net.apf.ApfFilter$Ra'
p3835
sg15
(lp3836
sg17
(lp3837
sg19
(lp3838
sg21
I0
sba(iArchitecture
Entity
p3839
(dp3840
g11
(lp3841
sg13
S'android.net.apf.ApfFilter$ReceiveThread'
p3842
sg15
(lp3843
sg17
(lp3844
sg19
(lp3845
sg21
I0
sba(iArchitecture
Entity
p3846
(dp3847
g11
(lp3848
sg13
S'android.net.apf.ApfGenerator'
p3849
sg15
(lp3850
sg17
(lp3851
sg19
(lp3852
sg21
I0
sba(iArchitecture
Entity
p3853
(dp3854
g11
(lp3855
sg13
S'android.net.apf.ApfGenerator$ExtendedOpcodes'
p3856
sg15
(lp3857
sg17
(lp3858
sg19
(lp3859
sg21
I0
sba(iArchitecture
Entity
p3860
(dp3861
g11
(lp3862
sg13
S'android.net.apf.ApfGenerator$IllegalInstructionException'
p3863
sg15
(lp3864
sg17
(lp3865
sg19
(lp3866
sg21
I0
sba(iArchitecture
Entity
p3867
(dp3868
g11
(lp3869
sg13
S'android.net.apf.ApfGenerator$Instruction'
p3870
sg15
(lp3871
sg17
(lp3872
sg19
(lp3873
sg21
I0
sba(iArchitecture
Entity
p3874
(dp3875
g11
(lp3876
sg13
S'android.net.apf.ApfGenerator$Opcodes'
p3877
sg15
(lp3878
sg17
(lp3879
sg19
(lp3880
sg21
I0
sba(iArchitecture
Entity
p3881
(dp3882
g11
(lp3883
sg13
S'android.net.apf.ApfGenerator$Register'
p3884
sg15
(lp3885
sg17
(lp3886
sg19
(lp3887
sg21
I0
sbasg379
(lp3888
g3828
ag3835
ag3842
ag3849
ag3856
ag3863
ag3870
ag3877
ag3884
asg21
I0
sg381
S'android.net.apf.ss'
p3889
sba(iArchitecture
Cluster
p3890
(dp3891
g7
(lp3892
(iArchitecture
Entity
p3893
(dp3894
g11
(lp3895
sg13
S'android.net.dhcp.DhcpAckPacket'
p3896
sg15
(lp3897
sg17
(lp3898
sg19
(lp3899
sg21
I0
sba(iArchitecture
Entity
p3900
(dp3901
g11
(lp3902
sg13
S'android.net.dhcp.DhcpClient'
p3903
sg15
(lp3904
sg17
(lp3905
sg19
(lp3906
sg21
I0
sba(iArchitecture
Entity
p3907
(dp3908
g11
(lp3909
sg13
S'android.net.dhcp.DhcpClient$ConfiguringInterfaceState'
p3910
sg15
(lp3911
sg17
(lp3912
sg19
(lp3913
sg21
I0
sba(iArchitecture
Entity
p3914
(dp3915
g11
(lp3916
sg13
S'android.net.dhcp.DhcpClient$DhcpBoundState'
p3917
sg15
(lp3918
sg17
(lp3919
sg19
(lp3920
sg21
I0
sba(iArchitecture
Entity
p3921
(dp3922
g11
(lp3923
sg13
S'android.net.dhcp.DhcpClient$DhcpHaveLeaseState'
p3924
sg15
(lp3925
sg17
(lp3926
sg19
(lp3927
sg21
I0
sba(iArchitecture
Entity
p3928
(dp3929
g11
(lp3930
sg13
S'android.net.dhcp.DhcpClient$DhcpInitRebootState'
p3931
sg15
(lp3932
sg17
(lp3933
sg19
(lp3934
sg21
I0
sba(iArchitecture
Entity
p3935
(dp3936
g11
(lp3937
sg13
S'android.net.dhcp.DhcpClient$DhcpInitState'
p3938
sg15
(lp3939
sg17
(lp3940
sg19
(lp3941
sg21
I0
sba(iArchitecture
Entity
p3942
(dp3943
g11
(lp3944
sg13
S'android.net.dhcp.DhcpClient$DhcpReacquiringState'
p3945
sg15
(lp3946
sg17
(lp3947
sg19
(lp3948
sg21
I0
sba(iArchitecture
Entity
p3949
(dp3950
g11
(lp3951
sg13
S'android.net.dhcp.DhcpClient$DhcpRebindingState'
p3952
sg15
(lp3953
sg17
(lp3954
sg19
(lp3955
sg21
I0
sba(iArchitecture
Entity
p3956
(dp3957
g11
(lp3958
sg13
S'android.net.dhcp.DhcpClient$DhcpRebootingState'
p3959
sg15
(lp3960
sg17
(lp3961
sg19
(lp3962
sg21
I0
sba(iArchitecture
Entity
p3963
(dp3964
g11
(lp3965
sg13
S'android.net.dhcp.DhcpClient$DhcpRenewingState'
p3966
sg15
(lp3967
sg17
(lp3968
sg19
(lp3969
sg21
I0
sba(iArchitecture
Entity
p3970
(dp3971
g11
(lp3972
sg13
S'android.net.dhcp.DhcpClient$DhcpRequestingState'
p3973
sg15
(lp3974
sg17
(lp3975
sg19
(lp3976
sg21
I0
sba(iArchitecture
Entity
p3977
(dp3978
g11
(lp3979
sg13
S'android.net.dhcp.DhcpClient$DhcpSelectingState'
p3980
sg15
(lp3981
sg17
(lp3982
sg19
(lp3983
sg21
I0
sba(iArchitecture
Entity
p3984
(dp3985
g11
(lp3986
sg13
S'android.net.dhcp.DhcpClient$DhcpState'
p3987
sg15
(lp3988
sg17
(lp3989
sg19
(lp3990
sg21
I0
sba(iArchitecture
Entity
p3991
(dp3992
g11
(lp3993
sg13
S'android.net.dhcp.DhcpClient$LoggingState'
p3994
sg15
(lp3995
sg17
(lp3996
sg19
(lp3997
sg21
I0
sba(iArchitecture
Entity
p3998
(dp3999
g11
(lp4000
sg13
S'android.net.dhcp.DhcpClient$PacketRetransmittingState'
p4001
sg15
(lp4002
sg17
(lp4003
sg19
(lp4004
sg21
I0
sba(iArchitecture
Entity
p4005
(dp4006
g11
(lp4007
sg13
S'android.net.dhcp.DhcpClient$ReceiveThread'
p4008
sg15
(lp4009
sg17
(lp4010
sg19
(lp4011
sg21
I0
sba(iArchitecture
Entity
p4012
(dp4013
g11
(lp4014
sg13
S'android.net.dhcp.DhcpClient$StoppedState'
p4015
sg15
(lp4016
sg17
(lp4017
sg19
(lp4018
sg21
I0
sba(iArchitecture
Entity
p4019
(dp4020
g11
(lp4021
sg13
S'android.net.dhcp.DhcpClient$WaitBeforeOtherState'
p4022
sg15
(lp4023
sg17
(lp4024
sg19
(lp4025
sg21
I0
sba(iArchitecture
Entity
p4026
(dp4027
g11
(lp4028
sg13
S'android.net.dhcp.DhcpClient$WaitBeforeRenewalState'
p4029
sg15
(lp4030
sg17
(lp4031
sg19
(lp4032
sg21
I0
sba(iArchitecture
Entity
p4033
(dp4034
g11
(lp4035
sg13
S'android.net.dhcp.DhcpClient$WaitBeforeStartState'
p4036
sg15
(lp4037
sg17
(lp4038
sg19
(lp4039
sg21
I0
sba(iArchitecture
Entity
p4040
(dp4041
g11
(lp4042
sg13
S'android.net.dhcp.DhcpDeclinePacket'
p4043
sg15
(lp4044
sg17
(lp4045
sg19
(lp4046
sg21
I0
sba(iArchitecture
Entity
p4047
(dp4048
g11
(lp4049
sg13
S'android.net.dhcp.DhcpDiscoverPacket'
p4050
sg15
(lp4051
sg17
(lp4052
sg19
(lp4053
sg21
I0
sba(iArchitecture
Entity
p4054
(dp4055
g11
(lp4056
sg13
S'android.net.dhcp.DhcpInformPacket'
p4057
sg15
(lp4058
sg17
(lp4059
sg19
(lp4060
sg21
I0
sba(iArchitecture
Entity
p4061
(dp4062
g11
(lp4063
sg13
S'android.net.dhcp.DhcpNakPacket'
p4064
sg15
(lp4065
sg17
(lp4066
sg19
(lp4067
sg21
I0
sba(iArchitecture
Entity
p4068
(dp4069
g11
(lp4070
sg13
S'android.net.dhcp.DhcpOfferPacket'
p4071
sg15
(lp4072
sg17
(lp4073
sg19
(lp4074
sg21
I0
sba(iArchitecture
Entity
p4075
(dp4076
g11
(lp4077
sg13
S'android.net.dhcp.DhcpPacket'
p4078
sg15
(lp4079
sg17
(lp4080
sg19
(lp4081
sg21
I0
sba(iArchitecture
Entity
p4082
(dp4083
g11
(lp4084
sg13
S'android.net.dhcp.DhcpPacket$ParseException'
p4085
sg15
(lp4086
sg17
(lp4087
sg19
(lp4088
sg21
I0
sba(iArchitecture
Entity
p4089
(dp4090
g11
(lp4091
sg13
S'android.net.dhcp.DhcpRequestPacket'
p4092
sg15
(lp4093
sg17
(lp4094
sg19
(lp4095
sg21
I0
sbasg379
(lp4096
g3896
ag3903
ag3910
ag3917
ag3924
ag3931
ag3938
ag3945
ag3952
ag3959
ag3966
ag3973
ag3980
ag3987
ag3994
ag4001
ag4008
ag4015
ag4022
ag4029
ag4036
ag4043
ag4050
ag4057
ag4064
ag4071
ag4078
ag4085
ag4092
asg21
I0
sg381
S'android.net.dhcp.ss'
p4097
sba(iArchitecture
Cluster
p4098
(dp4099
g7
(lp4100
(iArchitecture
Entity
p4101
(dp4102
g11
(lp4103
sg13
S'android.net.http.HttpResponseCache'
p4104
sg15
(lp4105
sg17
(lp4106
sg19
(lp4107
sg21
I0
sba(iArchitecture
Entity
p4108
(dp4109
g11
(lp4110
sg13
S'android.net.http.SslCertificate'
p4111
sg15
(lp4112
sg17
(lp4113
sg19
(lp4114
sg21
I0
sba(iArchitecture
Entity
p4115
(dp4116
g11
(lp4117
sg13
S'android.net.http.SslCertificate$DName'
p4118
sg15
(lp4119
sg17
(lp4120
sg19
(lp4121
sg21
I0
sba(iArchitecture
Entity
p4122
(dp4123
g11
(lp4124
sg13
S'android.net.http.X509TrustManagerExtensions'
p4125
sg15
(lp4126
sg17
(lp4127
sg19
(lp4128
sg21
I0
sbasg379
(lp4129
g4104
ag4111
ag4118
ag4125
asg21
I0
sg381
S'android.net.http.ss'
p4130
sba(iArchitecture
Cluster
p4131
(dp4132
g7
(lp4133
(iArchitecture
Entity
p4134
(dp4135
g11
(lp4136
sg13
S'android.net.LinkProperties$ProvisioningChange'
p4137
sg15
(lp4138
sg17
(lp4139
sg19
(lp4140
sg21
I0
sba(iArchitecture
Entity
p4141
(dp4142
g11
(lp4143
sg13
S'android.net.apf.ApfCapabilities'
p4144
sg15
(lp4145
sg17
(lp4146
sg19
(lp4147
sg21
I0
sba(iArchitecture
Entity
p4148
(dp4149
g11
(lp4150
sg13
S'android.net.ip.IpManager'
p4151
sg15
(lp4152
sg17
(lp4153
sg19
(lp4154
sg21
I0
sba(iArchitecture
Entity
p4155
(dp4156
g11
(lp4157
sg13
S'android.net.ip.IpManager$1'
p4158
sg15
(lp4159
sg17
(lp4160
sg19
(lp4161
sg21
I0
sba(iArchitecture
Entity
p4162
(dp4163
g11
(lp4164
sg13
S'android.net.ip.IpManager$2'
p4165
sg15
(lp4166
sg17
(lp4167
sg19
(lp4168
sg21
I0
sba(iArchitecture
Entity
p4169
(dp4170
g11
(lp4171
sg13
S'android.net.ip.IpManager$Callback'
p4172
sg15
(lp4173
sg17
(lp4174
sg19
(lp4175
sg21
I0
sba(iArchitecture
Entity
p4176
(dp4177
g11
(lp4178
sg13
S'android.net.ip.IpManager$LoggingCallbackWrapper'
p4179
sg15
(lp4180
sg17
(lp4181
sg19
(lp4182
sg21
I0
sba(iArchitecture
Entity
p4183
(dp4184
g11
(lp4185
sg13
S'android.net.ip.IpManager$ProvisioningConfiguration'
p4186
sg15
(lp4187
sg17
(lp4188
sg19
(lp4189
sg21
I0
sba(iArchitecture
Entity
p4190
(dp4191
g11
(lp4192
sg13
S'android.net.ip.IpManager$ProvisioningConfiguration$Builder'
p4193
sg15
(lp4194
sg17
(lp4195
sg19
(lp4196
sg21
I0
sba(iArchitecture
Entity
p4197
(dp4198
g11
(lp4199
sg13
S'android.net.ip.IpManager$StartedState'
p4200
sg15
(lp4201
sg17
(lp4202
sg19
(lp4203
sg21
I0
sba(iArchitecture
Entity
p4204
(dp4205
g11
(lp4206
sg13
S'android.net.ip.IpManager$StartedState$1'
p4207
sg15
(lp4208
sg17
(lp4209
sg19
(lp4210
sg21
I0
sba(iArchitecture
Entity
p4211
(dp4212
g11
(lp4213
sg13
S'android.net.ip.IpManager$StoppedState'
p4214
sg15
(lp4215
sg17
(lp4216
sg19
(lp4217
sg21
I0
sba(iArchitecture
Entity
p4218
(dp4219
g11
(lp4220
sg13
S'android.net.ip.IpManager$StoppingState'
p4221
sg15
(lp4222
sg17
(lp4223
sg19
(lp4224
sg21
I0
sba(iArchitecture
Entity
p4225
(dp4226
g11
(lp4227
sg13
S'android.net.ip.IpManager$WaitForProvisioningCallback'
p4228
sg15
(lp4229
sg17
(lp4230
sg19
(lp4231
sg21
I0
sba(iArchitecture
Entity
p4232
(dp4233
g11
(lp4234
sg13
S'android.net.ip.IpReachabilityMonitor'
p4235
sg15
(lp4236
sg17
(lp4237
sg19
(lp4238
sg21
I0
sba(iArchitecture
Entity
p4239
(dp4240
g11
(lp4241
sg13
S'android.net.ip.IpReachabilityMonitor$Callback'
p4242
sg15
(lp4243
sg17
(lp4244
sg19
(lp4245
sg21
I0
sba(iArchitecture
Entity
p4246
(dp4247
g11
(lp4248
sg13
S'android.net.ip.IpReachabilityMonitor$NetlinkSocketObserver'
p4249
sg15
(lp4250
sg17
(lp4251
sg19
(lp4252
sg21
I0
sba(iArchitecture
Entity
p4253
(dp4254
g11
(lp4255
sg13
S'android.net.netlink.NetlinkConstants'
p4256
sg15
(lp4257
sg17
(lp4258
sg19
(lp4259
sg21
I0
sba(iArchitecture
Entity
p4260
(dp4261
g11
(lp4262
sg13
S'android.net.netlink.NetlinkErrorMessage'
p4263
sg15
(lp4264
sg17
(lp4265
sg19
(lp4266
sg21
I0
sba(iArchitecture
Entity
p4267
(dp4268
g11
(lp4269
sg13
S'android.net.netlink.NetlinkMessage'
p4270
sg15
(lp4271
sg17
(lp4272
sg19
(lp4273
sg21
I0
sba(iArchitecture
Entity
p4274
(dp4275
g11
(lp4276
sg13
S'android.net.netlink.NetlinkSocket'
p4277
sg15
(lp4278
sg17
(lp4279
sg19
(lp4280
sg21
I0
sba(iArchitecture
Entity
p4281
(dp4282
g11
(lp4283
sg13
S'android.net.netlink.StructNdMsg'
p4284
sg15
(lp4285
sg17
(lp4286
sg19
(lp4287
sg21
I0
sba(iArchitecture
Entity
p4288
(dp4289
g11
(lp4290
sg13
S'android.net.netlink.StructNlMsgErr'
p4291
sg15
(lp4292
sg17
(lp4293
sg19
(lp4294
sg21
I0
sba(iArchitecture
Entity
p4295
(dp4296
g11
(lp4297
sg13
S'android.net.netlink.StructNlMsgHdr'
p4298
sg15
(lp4299
sg17
(lp4300
sg19
(lp4301
sg21
I0
sbasg379
(lp4302
g4137
ag4144
ag4151
ag4158
ag4165
ag4172
ag4179
ag4186
ag4193
ag4200
ag4207
ag4214
ag4221
ag4228
ag4235
ag4242
ag4249
ag4256
ag4263
ag4270
ag4277
ag4284
ag4291
ag4298
asg21
I0
sg381
S'android.net.ip.ss'
p4303
sba(iArchitecture
Cluster
p4304
(dp4305
g7
(lp4306
(iArchitecture
Entity
p4307
(dp4308
g11
(lp4309
sg13
S'android.net.ConnectivityMetricsLogger'
p4310
sg15
(lp4311
sg17
(lp4312
sg19
(lp4313
sg21
I0
sba(iArchitecture
Entity
p4314
(dp4315
g11
(lp4316
sg13
S'android.net.IConnectivityMetricsLogger'
p4317
sg15
(lp4318
sg17
(lp4319
sg19
(lp4320
sg21
I0
sba(iArchitecture
Entity
p4321
(dp4322
g11
(lp4323
sg13
S'android.net.IConnectivityMetricsLogger$Stub'
p4324
sg15
(lp4325
sg17
(lp4326
sg19
(lp4327
sg21
I0
sba(iArchitecture
Entity
p4328
(dp4329
g11
(lp4330
sg13
S'android.net.IConnectivityMetricsLogger$Stub$Proxy'
p4331
sg15
(lp4332
sg17
(lp4333
sg19
(lp4334
sg21
I0
sba(iArchitecture
Entity
p4335
(dp4336
g11
(lp4337
sg13
S'android.net.metrics.DefaultNetworkEvent'
p4338
sg15
(lp4339
sg17
(lp4340
sg19
(lp4341
sg21
I0
sba(iArchitecture
Entity
p4342
(dp4343
g11
(lp4344
sg13
S'android.net.metrics.DefaultNetworkEvent$1'
p4345
sg15
(lp4346
sg17
(lp4347
sg19
(lp4348
sg21
I0
sba(iArchitecture
Entity
p4349
(dp4350
g11
(lp4351
sg13
S'android.net.metrics.DhcpClientEvent'
p4352
sg15
(lp4353
sg17
(lp4354
sg19
(lp4355
sg21
I0
sba(iArchitecture
Entity
p4356
(dp4357
g11
(lp4358
sg13
S'android.net.metrics.DhcpClientEvent$1'
p4359
sg15
(lp4360
sg17
(lp4361
sg19
(lp4362
sg21
I0
sba(iArchitecture
Entity
p4363
(dp4364
g11
(lp4365
sg13
S'android.net.metrics.DhcpErrorEvent'
p4366
sg15
(lp4367
sg17
(lp4368
sg19
(lp4369
sg21
I0
sba(iArchitecture
Entity
p4370
(dp4371
g11
(lp4372
sg13
S'android.net.metrics.DhcpErrorEvent$1'
p4373
sg15
(lp4374
sg17
(lp4375
sg19
(lp4376
sg21
I0
sba(iArchitecture
Entity
p4377
(dp4378
g11
(lp4379
sg13
S'android.net.metrics.DhcpErrorEvent$Decoder'
p4380
sg15
(lp4381
sg17
(lp4382
sg19
(lp4383
sg21
I0
sba(iArchitecture
Entity
p4384
(dp4385
g11
(lp4386
sg13
S'android.net.metrics.DnsEvent'
p4387
sg15
(lp4388
sg17
(lp4389
sg19
(lp4390
sg21
I0
sba(iArchitecture
Entity
p4391
(dp4392
g11
(lp4393
sg13
S'android.net.metrics.DnsEvent$1'
p4394
sg15
(lp4395
sg17
(lp4396
sg19
(lp4397
sg21
I0
sba(iArchitecture
Entity
p4398
(dp4399
g11
(lp4400
sg13
S'android.net.metrics.IDnsEventListener'
p4401
sg15
(lp4402
sg17
(lp4403
sg19
(lp4404
sg21
I0
sba(iArchitecture
Entity
p4405
(dp4406
g11
(lp4407
sg13
S'android.net.metrics.IDnsEventListener$Stub'
p4408
sg15
(lp4409
sg17
(lp4410
sg19
(lp4411
sg21
I0
sba(iArchitecture
Entity
p4412
(dp4413
g11
(lp4414
sg13
S'android.net.metrics.IDnsEventListener$Stub$Proxy'
p4415
sg15
(lp4416
sg17
(lp4417
sg19
(lp4418
sg21
I0
sba(iArchitecture
Entity
p4419
(dp4420
g11
(lp4421
sg13
S'android.net.metrics.IpConnectivityEvent'
p4422
sg15
(lp4423
sg17
(lp4424
sg19
(lp4425
sg21
I0
sba(iArchitecture
Entity
p4426
(dp4427
g11
(lp4428
sg13
S'android.net.metrics.IpManagerEvent'
p4429
sg15
(lp4430
sg17
(lp4431
sg19
(lp4432
sg21
I0
sba(iArchitecture
Entity
p4433
(dp4434
g11
(lp4435
sg13
S'android.net.metrics.IpManagerEvent$1'
p4436
sg15
(lp4437
sg17
(lp4438
sg19
(lp4439
sg21
I0
sba(iArchitecture
Entity
p4440
(dp4441
g11
(lp4442
sg13
S'android.net.metrics.IpManagerEvent$Decoder'
p4443
sg15
(lp4444
sg17
(lp4445
sg19
(lp4446
sg21
I0
sba(iArchitecture
Entity
p4447
(dp4448
g11
(lp4449
sg13
S'android.net.metrics.IpReachabilityEvent'
p4450
sg15
(lp4451
sg17
(lp4452
sg19
(lp4453
sg21
I0
sba(iArchitecture
Entity
p4454
(dp4455
g11
(lp4456
sg13
S'android.net.metrics.IpReachabilityEvent$1'
p4457
sg15
(lp4458
sg17
(lp4459
sg19
(lp4460
sg21
I0
sba(iArchitecture
Entity
p4461
(dp4462
g11
(lp4463
sg13
S'android.net.metrics.IpReachabilityEvent$Decoder'
p4464
sg15
(lp4465
sg17
(lp4466
sg19
(lp4467
sg21
I0
sba(iArchitecture
Entity
p4468
(dp4469
g11
(lp4470
sg13
S'android.net.metrics.NetworkEvent'
p4471
sg15
(lp4472
sg17
(lp4473
sg19
(lp4474
sg21
I0
sba(iArchitecture
Entity
p4475
(dp4476
g11
(lp4477
sg13
S'android.net.metrics.NetworkEvent$1'
p4478
sg15
(lp4479
sg17
(lp4480
sg19
(lp4481
sg21
I0
sba(iArchitecture
Entity
p4482
(dp4483
g11
(lp4484
sg13
S'android.net.metrics.NetworkEvent$Decoder'
p4485
sg15
(lp4486
sg17
(lp4487
sg19
(lp4488
sg21
I0
sba(iArchitecture
Entity
p4489
(dp4490
g11
(lp4491
sg13
S'android.net.metrics.ValidationProbeEvent'
p4492
sg15
(lp4493
sg17
(lp4494
sg19
(lp4495
sg21
I0
sba(iArchitecture
Entity
p4496
(dp4497
g11
(lp4498
sg13
S'android.net.metrics.ValidationProbeEvent$1'
p4499
sg15
(lp4500
sg17
(lp4501
sg19
(lp4502
sg21
I0
sba(iArchitecture
Entity
p4503
(dp4504
g11
(lp4505
sg13
S'android.net.metrics.ValidationProbeEvent$Decoder'
p4506
sg15
(lp4507
sg17
(lp4508
sg19
(lp4509
sg21
I0
sbasg379
(lp4510
g4310
ag4317
ag4324
ag4331
ag4338
ag4345
ag4352
ag4359
ag4366
ag4373
ag4380
ag4387
ag4394
ag4401
ag4408
ag4415
ag4422
ag4429
ag4436
ag4443
ag4450
ag4457
ag4464
ag4471
ag4478
ag4485
ag4492
ag4499
ag4506
asg21
I0
sg381
S'android.net.metrics.ss'
p4511
sba(iArchitecture
Cluster
p4512
(dp4513
g7
(lp4514
(iArchitecture
Entity
p4515
(dp4516
g11
(lp4517
sg13
S'android.net.netlink.RtNetlinkNeighborMessage'
p4518
sg15
(lp4519
sg17
(lp4520
sg19
(lp4521
sg21
I0
sba(iArchitecture
Entity
p4522
(dp4523
g11
(lp4524
sg13
S'android.net.netlink.StructNdaCacheInfo'
p4525
sg15
(lp4526
sg17
(lp4527
sg19
(lp4528
sg21
I0
sba(iArchitecture
Entity
p4529
(dp4530
g11
(lp4531
sg13
S'android.net.netlink.StructNlAttr'
p4532
sg15
(lp4533
sg17
(lp4534
sg19
(lp4535
sg21
I0
sbasg379
(lp4536
g4518
ag4525
ag4532
asg21
I0
sg381
S'android.net.netlink.ss'
p4537
sba(iArchitecture
Cluster
p4538
(dp4539
g7
(lp4540
(iArchitecture
Entity
p4541
(dp4542
g11
(lp4543
sg13
S'android.net.nsd.DnsSdTxtRecord'
p4544
sg15
(lp4545
sg17
(lp4546
sg19
(lp4547
sg21
I0
sba(iArchitecture
Entity
p4548
(dp4549
g11
(lp4550
sg13
S'android.net.nsd.DnsSdTxtRecord$1'
p4551
sg15
(lp4552
sg17
(lp4553
sg19
(lp4554
sg21
I0
sba(iArchitecture
Entity
p4555
(dp4556
g11
(lp4557
sg13
S'android.net.nsd.NsdManager'
p4558
sg15
(lp4559
sg17
(lp4560
sg19
(lp4561
sg21
I0
sba(iArchitecture
Entity
p4562
(dp4563
g11
(lp4564
sg13
S'android.net.nsd.NsdManager$DiscoveryListener'
p4565
sg15
(lp4566
sg17
(lp4567
sg19
(lp4568
sg21
I0
sba(iArchitecture
Entity
p4569
(dp4570
g11
(lp4571
sg13
S'android.net.nsd.NsdManager$RegistrationListener'
p4572
sg15
(lp4573
sg17
(lp4574
sg19
(lp4575
sg21
I0
sba(iArchitecture
Entity
p4576
(dp4577
g11
(lp4578
sg13
S'android.net.nsd.NsdManager$ResolveListener'
p4579
sg15
(lp4580
sg17
(lp4581
sg19
(lp4582
sg21
I0
sba(iArchitecture
Entity
p4583
(dp4584
g11
(lp4585
sg13
S'android.net.nsd.NsdManager$ServiceHandler'
p4586
sg15
(lp4587
sg17
(lp4588
sg19
(lp4589
sg21
I0
sba(iArchitecture
Entity
p4590
(dp4591
g11
(lp4592
sg13
S'android.net.nsd.NsdServiceInfo'
p4593
sg15
(lp4594
sg17
(lp4595
sg19
(lp4596
sg21
I0
sba(iArchitecture
Entity
p4597
(dp4598
g11
(lp4599
sg13
S'android.net.nsd.NsdServiceInfo$1'
p4600
sg15
(lp4601
sg17
(lp4602
sg19
(lp4603
sg21
I0
sbasg379
(lp4604
g4544
ag4551
ag4558
ag4565
ag4572
ag4579
ag4586
ag4593
ag4600
asg21
I0
sg381
S'android.net.nsd.ss'
p4605
sba(iArchitecture
Cluster
p4606
(dp4607
g7
(lp4608
(iArchitecture
Entity
p4609
(dp4610
g11
(lp4611
sg13
S'android.net.CaptivePortal'
p4612
sg15
(lp4613
sg17
(lp4614
sg19
(lp4615
sg21
I0
sba(iArchitecture
Entity
p4616
(dp4617
g11
(lp4618
sg13
S'android.net.CaptivePortal$1'
p4619
sg15
(lp4620
sg17
(lp4621
sg19
(lp4622
sg21
I0
sba(iArchitecture
Entity
p4623
(dp4624
g11
(lp4625
sg13
S'android.net.ConnectivityManager'
p4626
sg15
(lp4627
sg17
(lp4628
sg19
(lp4629
sg21
I0
sba(iArchitecture
Entity
p4630
(dp4631
g11
(lp4632
sg13
S'android.net.ConnectivityManager$1'
p4633
sg15
(lp4634
sg17
(lp4635
sg19
(lp4636
sg21
I0
sba(iArchitecture
Entity
p4637
(dp4638
g11
(lp4639
sg13
S'android.net.ConnectivityManager$2'
p4640
sg15
(lp4641
sg17
(lp4642
sg19
(lp4643
sg21
I0
sba(iArchitecture
Entity
p4644
(dp4645
g11
(lp4646
sg13
S'android.net.ConnectivityManager$CallbackHandler'
p4647
sg15
(lp4648
sg17
(lp4649
sg19
(lp4650
sg21
I0
sba(iArchitecture
Entity
p4651
(dp4652
g11
(lp4653
sg13
S'android.net.ConnectivityManager$LegacyRequest'
p4654
sg15
(lp4655
sg17
(lp4656
sg19
(lp4657
sg21
I0
sba(iArchitecture
Entity
p4658
(dp4659
g11
(lp4660
sg13
S'android.net.ConnectivityManager$LegacyRequest$1'
p4661
sg15
(lp4662
sg17
(lp4663
sg19
(lp4664
sg21
I0
sba(iArchitecture
Entity
p4665
(dp4666
g11
(lp4667
sg13
S'android.net.ConnectivityManager$NoPreloadHolder'
p4668
sg15
(lp4669
sg17
(lp4670
sg19
(lp4671
sg21
I0
sba(iArchitecture
Entity
p4672
(dp4673
g11
(lp4674
sg13
S'android.net.ConnectivityManager$OnNetworkActiveListener'
p4675
sg15
(lp4676
sg17
(lp4677
sg19
(lp4678
sg21
I0
sba(iArchitecture
Entity
p4679
(dp4680
g11
(lp4681
sg13
S'android.net.ConnectivityManager$OnStartTetheringCallback'
p4682
sg15
(lp4683
sg17
(lp4684
sg19
(lp4685
sg21
I0
sba(iArchitecture
Entity
p4686
(dp4687
g11
(lp4688
sg13
S'android.net.ConnectivityManager$PacketKeepalive'
p4689
sg15
(lp4690
sg17
(lp4691
sg19
(lp4692
sg21
I0
sba(iArchitecture
Entity
p4693
(dp4694
g11
(lp4695
sg13
S'android.net.ConnectivityManager$PacketKeepalive$1'
p4696
sg15
(lp4697
sg17
(lp4698
sg19
(lp4699
sg21
I0
sba(iArchitecture
Entity
p4700
(dp4701
g11
(lp4702
sg13
S'android.net.ConnectivityManager$PacketKeepaliveCallback'
p4703
sg15
(lp4704
sg17
(lp4705
sg19
(lp4706
sg21
I0
sba(iArchitecture
Entity
p4707
(dp4708
g11
(lp4709
sg13
S'android.net.ConnectivityMetricsEvent'
p4710
sg15
(lp4711
sg17
(lp4712
sg19
(lp4713
sg21
I0
sba(iArchitecture
Entity
p4714
(dp4715
g11
(lp4716
sg13
S'android.net.ConnectivityMetricsEvent$1'
p4717
sg15
(lp4718
sg17
(lp4719
sg19
(lp4720
sg21
I0
sba(iArchitecture
Entity
p4721
(dp4722
g11
(lp4723
sg13
S'android.net.DataUsageRequest'
p4724
sg15
(lp4725
sg17
(lp4726
sg19
(lp4727
sg21
I0
sba(iArchitecture
Entity
p4728
(dp4729
g11
(lp4730
sg13
S'android.net.DataUsageRequest$1'
p4731
sg15
(lp4732
sg17
(lp4733
sg19
(lp4734
sg21
I0
sba(iArchitecture
Entity
p4735
(dp4736
g11
(lp4737
sg13
S'android.net.DhcpInfo'
p4738
sg15
(lp4739
sg17
(lp4740
sg19
(lp4741
sg21
I0
sba(iArchitecture
Entity
p4742
(dp4743
g11
(lp4744
sg13
S'android.net.DhcpInfo$1'
p4745
sg15
(lp4746
sg17
(lp4747
sg19
(lp4748
sg21
I0
sba(iArchitecture
Entity
p4749
(dp4750
g11
(lp4751
sg13
S'android.net.DhcpResults'
p4752
sg15
(lp4753
sg17
(lp4754
sg19
(lp4755
sg21
I0
sba(iArchitecture
Entity
p4756
(dp4757
g11
(lp4758
sg13
S'android.net.DhcpResults$1'
p4759
sg15
(lp4760
sg17
(lp4761
sg19
(lp4762
sg21
I0
sba(iArchitecture
Entity
p4763
(dp4764
g11
(lp4765
sg13
S'android.net.EthernetManager'
p4766
sg15
(lp4767
sg17
(lp4768
sg19
(lp4769
sg21
I0
sba(iArchitecture
Entity
p4770
(dp4771
g11
(lp4772
sg13
S'android.net.EthernetManager$1'
p4773
sg15
(lp4774
sg17
(lp4775
sg19
(lp4776
sg21
I0
sba(iArchitecture
Entity
p4777
(dp4778
g11
(lp4779
sg13
S'android.net.EthernetManager$2'
p4780
sg15
(lp4781
sg17
(lp4782
sg19
(lp4783
sg21
I0
sba(iArchitecture
Entity
p4784
(dp4785
g11
(lp4786
sg13
S'android.net.EthernetManager$Listener'
p4787
sg15
(lp4788
sg17
(lp4789
sg19
(lp4790
sg21
I0
sba(iArchitecture
Entity
p4791
(dp4792
g11
(lp4793
sg13
S'android.net.IEthernetServiceListener'
p4794
sg15
(lp4795
sg17
(lp4796
sg19
(lp4797
sg21
I0
sba(iArchitecture
Entity
p4798
(dp4799
g11
(lp4800
sg13
S'android.net.IEthernetServiceListener$Stub'
p4801
sg15
(lp4802
sg17
(lp4803
sg19
(lp4804
sg21
I0
sba(iArchitecture
Entity
p4805
(dp4806
g11
(lp4807
sg13
S'android.net.IEthernetServiceListener$Stub$Proxy'
p4808
sg15
(lp4809
sg17
(lp4810
sg19
(lp4811
sg21
I0
sba(iArchitecture
Entity
p4812
(dp4813
g11
(lp4814
sg13
S'android.net.InterfaceConfiguration'
p4815
sg15
(lp4816
sg17
(lp4817
sg19
(lp4818
sg21
I0
sba(iArchitecture
Entity
p4819
(dp4820
g11
(lp4821
sg13
S'android.net.InterfaceConfiguration$1'
p4822
sg15
(lp4823
sg17
(lp4824
sg19
(lp4825
sg21
I0
sba(iArchitecture
Entity
p4826
(dp4827
g11
(lp4828
sg13
S'android.net.IpConfiguration'
p4829
sg15
(lp4830
sg17
(lp4831
sg19
(lp4832
sg21
I0
sba(iArchitecture
Entity
p4833
(dp4834
g11
(lp4835
sg13
S'android.net.IpConfiguration$1'
p4836
sg15
(lp4837
sg17
(lp4838
sg19
(lp4839
sg21
I0
sba(iArchitecture
Entity
p4840
(dp4841
g11
(lp4842
sg13
S'android.net.IpConfiguration$IpAssignment'
p4843
sg15
(lp4844
sg17
(lp4845
sg19
(lp4846
sg21
I0
sba(iArchitecture
Entity
p4847
(dp4848
g11
(lp4849
sg13
S'android.net.IpConfiguration$ProxySettings'
p4850
sg15
(lp4851
sg17
(lp4852
sg19
(lp4853
sg21
I0
sba(iArchitecture
Entity
p4854
(dp4855
g11
(lp4856
sg13
S'android.net.IpPrefix'
p4857
sg15
(lp4858
sg17
(lp4859
sg19
(lp4860
sg21
I0
sba(iArchitecture
Entity
p4861
(dp4862
g11
(lp4863
sg13
S'android.net.IpPrefix$1'
p4864
sg15
(lp4865
sg17
(lp4866
sg19
(lp4867
sg21
I0
sba(iArchitecture
Entity
p4868
(dp4869
g11
(lp4870
sg13
S'android.net.LinkAddress'
p4871
sg15
(lp4872
sg17
(lp4873
sg19
(lp4874
sg21
I0
sba(iArchitecture
Entity
p4875
(dp4876
g11
(lp4877
sg13
S'android.net.LinkAddress$1'
p4878
sg15
(lp4879
sg17
(lp4880
sg19
(lp4881
sg21
I0
sba(iArchitecture
Entity
p4882
(dp4883
g11
(lp4884
sg13
S'android.net.LinkProperties'
p4885
sg15
(lp4886
sg17
(lp4887
sg19
(lp4888
sg21
I0
sba(iArchitecture
Entity
p4889
(dp4890
g11
(lp4891
sg13
S'android.net.LinkProperties$1'
p4892
sg15
(lp4893
sg17
(lp4894
sg19
(lp4895
sg21
I0
sba(iArchitecture
Entity
p4896
(dp4897
g11
(lp4898
sg13
S'android.net.LinkQualityInfo'
p4899
sg15
(lp4900
sg17
(lp4901
sg19
(lp4902
sg21
I0
sba(iArchitecture
Entity
p4903
(dp4904
g11
(lp4905
sg13
S'android.net.LinkQualityInfo$1'
p4906
sg15
(lp4907
sg17
(lp4908
sg19
(lp4909
sg21
I0
sba(iArchitecture
Entity
p4910
(dp4911
g11
(lp4912
sg13
S'android.net.LocalSocketImpl'
p4913
sg15
(lp4914
sg17
(lp4915
sg19
(lp4916
sg21
I0
sba(iArchitecture
Entity
p4917
(dp4918
g11
(lp4919
sg13
S'android.net.LocalSocketImpl$SocketInputStream'
p4920
sg15
(lp4921
sg17
(lp4922
sg19
(lp4923
sg21
I0
sba(iArchitecture
Entity
p4924
(dp4925
g11
(lp4926
sg13
S'android.net.LocalSocketImpl$SocketOutputStream'
p4927
sg15
(lp4928
sg17
(lp4929
sg19
(lp4930
sg21
I0
sba(iArchitecture
Entity
p4931
(dp4932
g11
(lp4933
sg13
S'android.net.MobileLinkQualityInfo'
p4934
sg15
(lp4935
sg17
(lp4936
sg19
(lp4937
sg21
I0
sba(iArchitecture
Entity
p4938
(dp4939
g11
(lp4940
sg13
S'android.net.Network'
p4941
sg15
(lp4942
sg17
(lp4943
sg19
(lp4944
sg21
I0
sba(iArchitecture
Entity
p4945
(dp4946
g11
(lp4947
sg13
S'android.net.Network$1'
p4948
sg15
(lp4949
sg17
(lp4950
sg19
(lp4951
sg21
I0
sba(iArchitecture
Entity
p4952
(dp4953
g11
(lp4954
sg13
S'android.net.Network$2'
p4955
sg15
(lp4956
sg17
(lp4957
sg19
(lp4958
sg21
I0
sba(iArchitecture
Entity
p4959
(dp4960
g11
(lp4961
sg13
S'android.net.Network$NetworkBoundSocketFactory'
p4962
sg15
(lp4963
sg17
(lp4964
sg19
(lp4965
sg21
I0
sba(iArchitecture
Entity
p4966
(dp4967
g11
(lp4968
sg13
S'android.net.NetworkCapabilities'
p4969
sg15
(lp4970
sg17
(lp4971
sg19
(lp4972
sg21
I0
sba(iArchitecture
Entity
p4973
(dp4974
g11
(lp4975
sg13
S'android.net.NetworkCapabilities$1'
p4976
sg15
(lp4977
sg17
(lp4978
sg19
(lp4979
sg21
I0
sba(iArchitecture
Entity
p4980
(dp4981
g11
(lp4982
sg13
S'android.net.NetworkFactory'
p4983
sg15
(lp4984
sg17
(lp4985
sg19
(lp4986
sg21
I0
sba(iArchitecture
Entity
p4987
(dp4988
g11
(lp4989
sg13
S'android.net.NetworkFactory$NetworkRequestInfo'
p4990
sg15
(lp4991
sg17
(lp4992
sg19
(lp4993
sg21
I0
sba(iArchitecture
Entity
p4994
(dp4995
g11
(lp4996
sg13
S'android.net.NetworkInfo'
p4997
sg15
(lp4998
sg17
(lp4999
sg19
(lp5000
sg21
I0
sba(iArchitecture
Entity
p5001
(dp5002
g11
(lp5003
sg13
S'android.net.NetworkInfo$1'
p5004
sg15
(lp5005
sg17
(lp5006
sg19
(lp5007
sg21
I0
sba(iArchitecture
Entity
p5008
(dp5009
g11
(lp5010
sg13
S'android.net.NetworkKey'
p5011
sg15
(lp5012
sg17
(lp5013
sg19
(lp5014
sg21
I0
sba(iArchitecture
Entity
p5015
(dp5016
g11
(lp5017
sg13
S'android.net.NetworkKey$1'
p5018
sg15
(lp5019
sg17
(lp5020
sg19
(lp5021
sg21
I0
sba(iArchitecture
Entity
p5022
(dp5023
g11
(lp5024
sg13
S'android.net.NetworkMisc'
p5025
sg15
(lp5026
sg17
(lp5027
sg19
(lp5028
sg21
I0
sba(iArchitecture
Entity
p5029
(dp5030
g11
(lp5031
sg13
S'android.net.NetworkMisc$1'
p5032
sg15
(lp5033
sg17
(lp5034
sg19
(lp5035
sg21
I0
sba(iArchitecture
Entity
p5036
(dp5037
g11
(lp5038
sg13
S'android.net.NetworkPolicy'
p5039
sg15
(lp5040
sg17
(lp5041
sg19
(lp5042
sg21
I0
sba(iArchitecture
Entity
p5043
(dp5044
g11
(lp5045
sg13
S'android.net.NetworkPolicy$1'
p5046
sg15
(lp5047
sg17
(lp5048
sg19
(lp5049
sg21
I0
sba(iArchitecture
Entity
p5050
(dp5051
g11
(lp5052
sg13
S'android.net.NetworkQuotaInfo'
p5053
sg15
(lp5054
sg17
(lp5055
sg19
(lp5056
sg21
I0
sba(iArchitecture
Entity
p5057
(dp5058
g11
(lp5059
sg13
S'android.net.NetworkQuotaInfo$1'
p5060
sg15
(lp5061
sg17
(lp5062
sg19
(lp5063
sg21
I0
sba(iArchitecture
Entity
p5064
(dp5065
g11
(lp5066
sg13
S'android.net.NetworkRequest'
p5067
sg15
(lp5068
sg17
(lp5069
sg19
(lp5070
sg21
I0
sba(iArchitecture
Entity
p5071
(dp5072
g11
(lp5073
sg13
S'android.net.NetworkRequest$1'
p5074
sg15
(lp5075
sg17
(lp5076
sg19
(lp5077
sg21
I0
sba(iArchitecture
Entity
p5078
(dp5079
g11
(lp5080
sg13
S'android.net.NetworkState'
p5081
sg15
(lp5082
sg17
(lp5083
sg19
(lp5084
sg21
I0
sba(iArchitecture
Entity
p5085
(dp5086
g11
(lp5087
sg13
S'android.net.NetworkState$1'
p5088
sg15
(lp5089
sg17
(lp5090
sg19
(lp5091
sg21
I0
sba(iArchitecture
Entity
p5092
(dp5093
g11
(lp5094
sg13
S'android.net.NetworkStats'
p5095
sg15
(lp5096
sg17
(lp5097
sg19
(lp5098
sg21
I0
sba(iArchitecture
Entity
p5099
(dp5100
g11
(lp5101
sg13
S'android.net.NetworkStats$1'
p5102
sg15
(lp5103
sg17
(lp5104
sg19
(lp5105
sg21
I0
sba(iArchitecture
Entity
p5106
(dp5107
g11
(lp5108
sg13
S'android.net.NetworkStatsHistory'
p5109
sg15
(lp5110
sg17
(lp5111
sg19
(lp5112
sg21
I0
sba(iArchitecture
Entity
p5113
(dp5114
g11
(lp5115
sg13
S'android.net.NetworkStatsHistory$1'
p5116
sg15
(lp5117
sg17
(lp5118
sg19
(lp5119
sg21
I0
sba(iArchitecture
Entity
p5120
(dp5121
g11
(lp5122
sg13
S'android.net.NetworkStatsHistory$DataStreamUtils'
p5123
sg15
(lp5124
sg17
(lp5125
sg19
(lp5126
sg21
I0
sba(iArchitecture
Entity
p5127
(dp5128
g11
(lp5129
sg13
S'android.net.NetworkStatsHistory$ParcelUtils'
p5130
sg15
(lp5131
sg17
(lp5132
sg19
(lp5133
sg21
I0
sba(iArchitecture
Entity
p5134
(dp5135
g11
(lp5136
sg13
S'android.net.NetworkTemplate'
p5137
sg15
(lp5138
sg17
(lp5139
sg19
(lp5140
sg21
I0
sba(iArchitecture
Entity
p5141
(dp5142
g11
(lp5143
sg13
S'android.net.NetworkTemplate$1'
p5144
sg15
(lp5145
sg17
(lp5146
sg19
(lp5147
sg21
I0
sba(iArchitecture
Entity
p5148
(dp5149
g11
(lp5150
sg13
S'android.net.PacProxySelector'
p5151
sg15
(lp5152
sg17
(lp5153
sg19
(lp5154
sg21
I0
sba(iArchitecture
Entity
p5155
(dp5156
g11
(lp5157
sg13
S'android.net.Proxy'
p5158
sg15
(lp5159
sg17
(lp5160
sg19
(lp5161
sg21
I0
sba(iArchitecture
Entity
p5162
(dp5163
g11
(lp5164
sg13
S'android.net.ProxyInfo'
p5165
sg15
(lp5166
sg17
(lp5167
sg19
(lp5168
sg21
I0
sba(iArchitecture
Entity
p5169
(dp5170
g11
(lp5171
sg13
S'android.net.ProxyInfo$1'
p5172
sg15
(lp5173
sg17
(lp5174
sg19
(lp5175
sg21
I0
sba(iArchitecture
Entity
p5176
(dp5177
g11
(lp5178
sg13
S'android.net.PskKeyManager'
p5179
sg15
(lp5180
sg17
(lp5181
sg19
(lp5182
sg21
I0
sba(iArchitecture
Entity
p5183
(dp5184
g11
(lp5185
sg13
S'android.net.RouteInfo'
p5186
sg15
(lp5187
sg17
(lp5188
sg19
(lp5189
sg21
I0
sba(iArchitecture
Entity
p5190
(dp5191
g11
(lp5192
sg13
S'android.net.RouteInfo$1'
p5193
sg15
(lp5194
sg17
(lp5195
sg19
(lp5196
sg21
I0
sba(iArchitecture
Entity
p5197
(dp5198
g11
(lp5199
sg13
S'android.net.RssiCurve'
p5200
sg15
(lp5201
sg17
(lp5202
sg19
(lp5203
sg21
I0
sba(iArchitecture
Entity
p5204
(dp5205
g11
(lp5206
sg13
S'android.net.RssiCurve$1'
p5207
sg15
(lp5208
sg17
(lp5209
sg19
(lp5210
sg21
I0
sba(iArchitecture
Entity
p5211
(dp5212
g11
(lp5213
sg13
S'android.net.SSLCertificateSocketFactory'
p5214
sg15
(lp5215
sg17
(lp5216
sg19
(lp5217
sg21
I0
sba(iArchitecture
Entity
p5218
(dp5219
g11
(lp5220
sg13
S'android.net.SSLCertificateSocketFactory$1'
p5221
sg15
(lp5222
sg17
(lp5223
sg19
(lp5224
sg21
I0
sba(iArchitecture
Entity
p5225
(dp5226
g11
(lp5227
sg13
S'android.net.SSLSessionCache'
p5228
sg15
(lp5229
sg17
(lp5230
sg19
(lp5231
sg21
I0
sba(iArchitecture
Entity
p5232
(dp5233
g11
(lp5234
sg13
S'android.net.ScoredNetwork'
p5235
sg15
(lp5236
sg17
(lp5237
sg19
(lp5238
sg21
I0
sba(iArchitecture
Entity
p5239
(dp5240
g11
(lp5241
sg13
S'android.net.ScoredNetwork$1'
p5242
sg15
(lp5243
sg17
(lp5244
sg19
(lp5245
sg21
I0
sba(iArchitecture
Entity
p5246
(dp5247
g11
(lp5248
sg13
S'android.net.SntpClient'
p5249
sg15
(lp5250
sg17
(lp5251
sg19
(lp5252
sg21
I0
sba(iArchitecture
Entity
p5253
(dp5254
g11
(lp5255
sg13
S'android.net.SntpClient$InvalidServerReplyException'
p5256
sg15
(lp5257
sg17
(lp5258
sg19
(lp5259
sg21
I0
sba(iArchitecture
Entity
p5260
(dp5261
g11
(lp5262
sg13
S'android.net.StaticIpConfiguration'
p5263
sg15
(lp5264
sg17
(lp5265
sg19
(lp5266
sg21
I0
sba(iArchitecture
Entity
p5267
(dp5268
g11
(lp5269
sg13
S'android.net.StaticIpConfiguration$1'
p5270
sg15
(lp5271
sg17
(lp5272
sg19
(lp5273
sg21
I0
sba(iArchitecture
Entity
p5274
(dp5275
g11
(lp5276
sg13
S'android.net.UidRange'
p5277
sg15
(lp5278
sg17
(lp5279
sg19
(lp5280
sg21
I0
sba(iArchitecture
Entity
p5281
(dp5282
g11
(lp5283
sg13
S'android.net.UidRange$1'
p5284
sg15
(lp5285
sg17
(lp5286
sg19
(lp5287
sg21
I0
sba(iArchitecture
Entity
p5288
(dp5289
g11
(lp5290
sg13
S'android.net.Uri'
p5291
sg15
(lp5292
sg17
(lp5293
sg19
(lp5294
sg21
I0
sba(iArchitecture
Entity
p5295
(dp5296
g11
(lp5297
sg13
S'android.net.Uri$1'
p5298
sg15
(lp5299
sg17
(lp5300
sg19
(lp5301
sg21
I0
sba(iArchitecture
Entity
p5302
(dp5303
g11
(lp5304
sg13
S'android.net.Uri$AbstractHierarchicalUri'
p5305
sg15
(lp5306
sg17
(lp5307
sg19
(lp5308
sg21
I0
sba(iArchitecture
Entity
p5309
(dp5310
g11
(lp5311
sg13
S'android.net.Uri$AbstractPart'
p5312
sg15
(lp5313
sg17
(lp5314
sg19
(lp5315
sg21
I0
sba(iArchitecture
Entity
p5316
(dp5317
g11
(lp5318
sg13
S'android.net.Uri$AbstractPart$Representation'
p5319
sg15
(lp5320
sg17
(lp5321
sg19
(lp5322
sg21
I0
sba(iArchitecture
Entity
p5323
(dp5324
g11
(lp5325
sg13
S'android.net.Uri$HierarchicalUri'
p5326
sg15
(lp5327
sg17
(lp5328
sg19
(lp5329
sg21
I0
sba(iArchitecture
Entity
p5330
(dp5331
g11
(lp5332
sg13
S'android.net.Uri$OpaqueUri'
p5333
sg15
(lp5334
sg17
(lp5335
sg19
(lp5336
sg21
I0
sba(iArchitecture
Entity
p5337
(dp5338
g11
(lp5339
sg13
S'android.net.Uri$Part'
p5340
sg15
(lp5341
sg17
(lp5342
sg19
(lp5343
sg21
I0
sba(iArchitecture
Entity
p5344
(dp5345
g11
(lp5346
sg13
S'android.net.Uri$Part$EmptyPart'
p5347
sg15
(lp5348
sg17
(lp5349
sg19
(lp5350
sg21
I0
sba(iArchitecture
Entity
p5351
(dp5352
g11
(lp5353
sg13
S'android.net.Uri$PathPart'
p5354
sg15
(lp5355
sg17
(lp5356
sg19
(lp5357
sg21
I0
sba(iArchitecture
Entity
p5358
(dp5359
g11
(lp5360
sg13
S'android.net.Uri$PathSegments'
p5361
sg15
(lp5362
sg17
(lp5363
sg19
(lp5364
sg21
I0
sba(iArchitecture
Entity
p5365
(dp5366
g11
(lp5367
sg13
S'android.net.Uri$PathSegmentsBuilder'
p5368
sg15
(lp5369
sg17
(lp5370
sg19
(lp5371
sg21
I0
sba(iArchitecture
Entity
p5372
(dp5373
g11
(lp5374
sg13
S'android.net.Uri$StringUri'
p5375
sg15
(lp5376
sg17
(lp5377
sg19
(lp5378
sg21
I0
sba(iArchitecture
Entity
p5379
(dp5380
g11
(lp5381
sg13
S'android.net.UrlQuerySanitizer'
p5382
sg15
(lp5383
sg17
(lp5384
sg19
(lp5385
sg21
I0
sba(iArchitecture
Entity
p5386
(dp5387
g11
(lp5388
sg13
S'android.net.UrlQuerySanitizer$IllegalCharacterValueSanitizer'
p5389
sg15
(lp5390
sg17
(lp5391
sg19
(lp5392
sg21
I0
sba(iArchitecture
Entity
p5393
(dp5394
g11
(lp5395
sg13
S'android.net.UrlQuerySanitizer$ParameterValuePair'
p5396
sg15
(lp5397
sg17
(lp5398
sg19
(lp5399
sg21
I0
sba(iArchitecture
Entity
p5400
(dp5401
g11
(lp5402
sg13
S'android.net.UrlQuerySanitizer$ValueSanitizer'
p5403
sg15
(lp5404
sg17
(lp5405
sg19
(lp5406
sg21
I0
sba(iArchitecture
Entity
p5407
(dp5408
g11
(lp5409
sg13
S'android.net.VpnService'
p5410
sg15
(lp5411
sg17
(lp5412
sg19
(lp5413
sg21
I0
sba(iArchitecture
Entity
p5414
(dp5415
g11
(lp5416
sg13
S'android.net.VpnService$Builder'
p5417
sg15
(lp5418
sg17
(lp5419
sg19
(lp5420
sg21
I0
sba(iArchitecture
Entity
p5421
(dp5422
g11
(lp5423
sg13
S'android.net.VpnService$Callback'
p5424
sg15
(lp5425
sg17
(lp5426
sg19
(lp5427
sg21
I0
sba(iArchitecture
Entity
p5428
(dp5429
g11
(lp5430
sg13
S'android.net.WifiKey'
p5431
sg15
(lp5432
sg17
(lp5433
sg19
(lp5434
sg21
I0
sba(iArchitecture
Entity
p5435
(dp5436
g11
(lp5437
sg13
S'android.net.WifiKey$1'
p5438
sg15
(lp5439
sg17
(lp5440
sg19
(lp5441
sg21
I0
sba(iArchitecture
Entity
p5442
(dp5443
g11
(lp5444
sg13
S'android.net.WifiLinkQualityInfo'
p5445
sg15
(lp5446
sg17
(lp5447
sg19
(lp5448
sg21
I0
sbasg379
(lp5449
g4612
ag4619
ag4626
ag4633
ag4640
ag4647
ag4654
ag4661
ag4668
ag4675
ag4682
ag4689
ag4696
ag4703
ag4710
ag4717
ag4724
ag4731
ag4738
ag4745
ag4752
ag4759
ag4766
ag4773
ag4780
ag4787
ag4794
ag4801
ag4808
ag4815
ag4822
ag4829
ag4836
ag4843
ag4850
ag4857
ag4864
ag4871
ag4878
ag4885
ag4892
ag4899
ag4906
ag4913
ag4920
ag4927
ag4934
ag4941
ag4948
ag4955
ag4962
ag4969
ag4976
ag4983
ag4990
ag4997
ag5004
ag5011
ag5018
ag5025
ag5032
ag5039
ag5046
ag5053
ag5060
ag5067
ag5074
ag5081
ag5088
ag5095
ag5102
ag5109
ag5116
ag5123
ag5130
ag5137
ag5144
ag5151
ag5158
ag5165
ag5172
ag5179
ag5186
ag5193
ag5200
ag5207
ag5214
ag5221
ag5228
ag5235
ag5242
ag5249
ag5256
ag5263
ag5270
ag5277
ag5284
ag5291
ag5298
ag5305
ag5312
ag5319
ag5326
ag5333
ag5340
ag5347
ag5354
ag5361
ag5368
ag5375
ag5382
ag5389
ag5396
ag5403
ag5410
ag5417
ag5424
ag5431
ag5438
ag5445
asg21
I0
sg381
S'android.net.ss'
p5450
sba(iArchitecture
Cluster
p5451
(dp5452
g7
(lp5453
(iArchitecture
Entity
p5454
(dp5455
g11
(lp5456
sg13
S'android.net.wifi.nan.ConfigRequest'
p5457
sg15
(lp5458
sg17
(lp5459
sg19
(lp5460
sg21
I0
sba(iArchitecture
Entity
p5461
(dp5462
g11
(lp5463
sg13
S'android.net.wifi.nan.ConfigRequest$1'
p5464
sg15
(lp5465
sg17
(lp5466
sg19
(lp5467
sg21
I0
sba(iArchitecture
Entity
p5468
(dp5469
g11
(lp5470
sg13
S'android.net.wifi.nan.ConfigRequest$Builder'
p5471
sg15
(lp5472
sg17
(lp5473
sg19
(lp5474
sg21
I0
sba(iArchitecture
Entity
p5475
(dp5476
g11
(lp5477
sg13
S'android.net.wifi.nan.PublishData'
p5478
sg15
(lp5479
sg17
(lp5480
sg19
(lp5481
sg21
I0
sba(iArchitecture
Entity
p5482
(dp5483
g11
(lp5484
sg13
S'android.net.wifi.nan.PublishData$1'
p5485
sg15
(lp5486
sg17
(lp5487
sg19
(lp5488
sg21
I0
sba(iArchitecture
Entity
p5489
(dp5490
g11
(lp5491
sg13
S'android.net.wifi.nan.PublishData$Builder'
p5492
sg15
(lp5493
sg17
(lp5494
sg19
(lp5495
sg21
I0
sba(iArchitecture
Entity
p5496
(dp5497
g11
(lp5498
sg13
S'android.net.wifi.nan.PublishSettings'
p5499
sg15
(lp5500
sg17
(lp5501
sg19
(lp5502
sg21
I0
sba(iArchitecture
Entity
p5503
(dp5504
g11
(lp5505
sg13
S'android.net.wifi.nan.PublishSettings$1'
p5506
sg15
(lp5507
sg17
(lp5508
sg19
(lp5509
sg21
I0
sba(iArchitecture
Entity
p5510
(dp5511
g11
(lp5512
sg13
S'android.net.wifi.nan.PublishSettings$Builder'
p5513
sg15
(lp5514
sg17
(lp5515
sg19
(lp5516
sg21
I0
sba(iArchitecture
Entity
p5517
(dp5518
g11
(lp5519
sg13
S'android.net.wifi.nan.SubscribeData'
p5520
sg15
(lp5521
sg17
(lp5522
sg19
(lp5523
sg21
I0
sba(iArchitecture
Entity
p5524
(dp5525
g11
(lp5526
sg13
S'android.net.wifi.nan.SubscribeData$1'
p5527
sg15
(lp5528
sg17
(lp5529
sg19
(lp5530
sg21
I0
sba(iArchitecture
Entity
p5531
(dp5532
g11
(lp5533
sg13
S'android.net.wifi.nan.SubscribeData$Builder'
p5534
sg15
(lp5535
sg17
(lp5536
sg19
(lp5537
sg21
I0
sba(iArchitecture
Entity
p5538
(dp5539
g11
(lp5540
sg13
S'android.net.wifi.nan.SubscribeSettings'
p5541
sg15
(lp5542
sg17
(lp5543
sg19
(lp5544
sg21
I0
sba(iArchitecture
Entity
p5545
(dp5546
g11
(lp5547
sg13
S'android.net.wifi.nan.SubscribeSettings$1'
p5548
sg15
(lp5549
sg17
(lp5550
sg19
(lp5551
sg21
I0
sba(iArchitecture
Entity
p5552
(dp5553
g11
(lp5554
sg13
S'android.net.wifi.nan.SubscribeSettings$Builder'
p5555
sg15
(lp5556
sg17
(lp5557
sg19
(lp5558
sg21
I0
sba(iArchitecture
Entity
p5559
(dp5560
g11
(lp5561
sg13
S'android.net.wifi.nan.TlvBufferUtils'
p5562
sg15
(lp5563
sg17
(lp5564
sg19
(lp5565
sg21
I0
sba(iArchitecture
Entity
p5566
(dp5567
g11
(lp5568
sg13
S'android.net.wifi.nan.TlvBufferUtils$TlvConstructor'
p5569
sg15
(lp5570
sg17
(lp5571
sg19
(lp5572
sg21
I0
sba(iArchitecture
Entity
p5573
(dp5574
g11
(lp5575
sg13
S'android.net.wifi.nan.TlvBufferUtils$TlvElement'
p5576
sg15
(lp5577
sg17
(lp5578
sg19
(lp5579
sg21
I0
sba(iArchitecture
Entity
p5580
(dp5581
g11
(lp5582
sg13
S'android.net.wifi.nan.TlvBufferUtils$TlvIterable'
p5583
sg15
(lp5584
sg17
(lp5585
sg19
(lp5586
sg21
I0
sba(iArchitecture
Entity
p5587
(dp5588
g11
(lp5589
sg13
S'android.net.wifi.nan.TlvBufferUtils$TlvIterable$1'
p5590
sg15
(lp5591
sg17
(lp5592
sg19
(lp5593
sg21
I0
sba(iArchitecture
Entity
p5594
(dp5595
g11
(lp5596
sg13
S'android.net.wifi.nan.WifiNanEventListener'
p5597
sg15
(lp5598
sg17
(lp5599
sg19
(lp5600
sg21
I0
sba(iArchitecture
Entity
p5601
(dp5602
g11
(lp5603
sg13
S'android.net.wifi.nan.WifiNanEventListener$1'
p5604
sg15
(lp5605
sg17
(lp5606
sg19
(lp5607
sg21
I0
sba(iArchitecture
Entity
p5608
(dp5609
g11
(lp5610
sg13
S'android.net.wifi.nan.WifiNanEventListener$2'
p5611
sg15
(lp5612
sg17
(lp5613
sg19
(lp5614
sg21
I0
sba(iArchitecture
Entity
p5615
(dp5616
g11
(lp5617
sg13
S'android.net.wifi.nan.WifiNanManager'
p5618
sg15
(lp5619
sg17
(lp5620
sg19
(lp5621
sg21
I0
sba(iArchitecture
Entity
p5622
(dp5623
g11
(lp5624
sg13
S'android.net.wifi.nan.WifiNanPublishSession'
p5625
sg15
(lp5626
sg17
(lp5627
sg19
(lp5628
sg21
I0
sba(iArchitecture
Entity
p5629
(dp5630
g11
(lp5631
sg13
S'android.net.wifi.nan.WifiNanSession'
p5632
sg15
(lp5633
sg17
(lp5634
sg19
(lp5635
sg21
I0
sba(iArchitecture
Entity
p5636
(dp5637
g11
(lp5638
sg13
S'android.net.wifi.nan.WifiNanSessionListener'
p5639
sg15
(lp5640
sg17
(lp5641
sg19
(lp5642
sg21
I0
sba(iArchitecture
Entity
p5643
(dp5644
g11
(lp5645
sg13
S'android.net.wifi.nan.WifiNanSessionListener$1'
p5646
sg15
(lp5647
sg17
(lp5648
sg19
(lp5649
sg21
I0
sba(iArchitecture
Entity
p5650
(dp5651
g11
(lp5652
sg13
S'android.net.wifi.nan.WifiNanSessionListener$2'
p5653
sg15
(lp5654
sg17
(lp5655
sg19
(lp5656
sg21
I0
sba(iArchitecture
Entity
p5657
(dp5658
g11
(lp5659
sg13
S'android.net.wifi.nan.WifiNanSubscribeSession'
p5660
sg15
(lp5661
sg17
(lp5662
sg19
(lp5663
sg21
I0
sbasg379
(lp5664
g5457
ag5464
ag5471
ag5478
ag5485
ag5492
ag5499
ag5506
ag5513
ag5520
ag5527
ag5534
ag5541
ag5548
ag5555
ag5562
ag5569
ag5576
ag5583
ag5590
ag5597
ag5604
ag5611
ag5618
ag5625
ag5632
ag5639
ag5646
ag5653
ag5660
asg21
I0
sg381
S'android.net.wifi.nan.ss'
p5665
sba(iArchitecture
Cluster
p5666
(dp5667
g7
(lp5668
(iArchitecture
Entity
p5669
(dp5670
g11
(lp5671
sg13
S'android.net.wifi.p2p.nsd.WifiP2pDnsSdServiceInfo'
p5672
sg15
(lp5673
sg17
(lp5674
sg19
(lp5675
sg21
I0
sba(iArchitecture
Entity
p5676
(dp5677
g11
(lp5678
sg13
S'android.net.wifi.p2p.nsd.WifiP2pDnsSdServiceRequest'
p5679
sg15
(lp5680
sg17
(lp5681
sg19
(lp5682
sg21
I0
sba(iArchitecture
Entity
p5683
(dp5684
g11
(lp5685
sg13
S'android.net.wifi.p2p.nsd.WifiP2pDnsSdServiceResponse'
p5686
sg15
(lp5687
sg17
(lp5688
sg19
(lp5689
sg21
I0
sba(iArchitecture
Entity
p5690
(dp5691
g11
(lp5692
sg13
S'android.net.wifi.p2p.nsd.WifiP2pServiceInfo'
p5693
sg15
(lp5694
sg17
(lp5695
sg19
(lp5696
sg21
I0
sba(iArchitecture
Entity
p5697
(dp5698
g11
(lp5699
sg13
S'android.net.wifi.p2p.nsd.WifiP2pServiceInfo$1'
p5700
sg15
(lp5701
sg17
(lp5702
sg19
(lp5703
sg21
I0
sba(iArchitecture
Entity
p5704
(dp5705
g11
(lp5706
sg13
S'android.net.wifi.p2p.nsd.WifiP2pServiceRequest'
p5707
sg15
(lp5708
sg17
(lp5709
sg19
(lp5710
sg21
I0
sba(iArchitecture
Entity
p5711
(dp5712
g11
(lp5713
sg13
S'android.net.wifi.p2p.nsd.WifiP2pServiceRequest$1'
p5714
sg15
(lp5715
sg17
(lp5716
sg19
(lp5717
sg21
I0
sba(iArchitecture
Entity
p5718
(dp5719
g11
(lp5720
sg13
S'android.net.wifi.p2p.nsd.WifiP2pServiceResponse'
p5721
sg15
(lp5722
sg17
(lp5723
sg19
(lp5724
sg21
I0
sba(iArchitecture
Entity
p5725
(dp5726
g11
(lp5727
sg13
S'android.net.wifi.p2p.nsd.WifiP2pServiceResponse$1'
p5728
sg15
(lp5729
sg17
(lp5730
sg19
(lp5731
sg21
I0
sba(iArchitecture
Entity
p5732
(dp5733
g11
(lp5734
sg13
S'android.net.wifi.p2p.nsd.WifiP2pServiceResponse$Status'
p5735
sg15
(lp5736
sg17
(lp5737
sg19
(lp5738
sg21
I0
sba(iArchitecture
Entity
p5739
(dp5740
g11
(lp5741
sg13
S'android.net.wifi.p2p.nsd.WifiP2pUpnpServiceResponse'
p5742
sg15
(lp5743
sg17
(lp5744
sg19
(lp5745
sg21
I0
sbasg379
(lp5746
g5672
ag5679
ag5686
ag5693
ag5700
ag5707
ag5714
ag5721
ag5728
ag5735
ag5742
asg21
I0
sg381
S'android.net.wifi.p2p.nsd.ss'
p5747
sba(iArchitecture
Cluster
p5748
(dp5749
g7
(lp5750
(iArchitecture
Entity
p5751
(dp5752
g11
(lp5753
sg13
S'android.net.wifi.p2p.WifiP2pConfig'
p5754
sg15
(lp5755
sg17
(lp5756
sg19
(lp5757
sg21
I0
sba(iArchitecture
Entity
p5758
(dp5759
g11
(lp5760
sg13
S'android.net.wifi.p2p.WifiP2pConfig$1'
p5761
sg15
(lp5762
sg17
(lp5763
sg19
(lp5764
sg21
I0
sba(iArchitecture
Entity
p5765
(dp5766
g11
(lp5767
sg13
S'android.net.wifi.p2p.WifiP2pDevice'
p5768
sg15
(lp5769
sg17
(lp5770
sg19
(lp5771
sg21
I0
sba(iArchitecture
Entity
p5772
(dp5773
g11
(lp5774
sg13
S'android.net.wifi.p2p.WifiP2pDevice$1'
p5775
sg15
(lp5776
sg17
(lp5777
sg19
(lp5778
sg21
I0
sba(iArchitecture
Entity
p5779
(dp5780
g11
(lp5781
sg13
S'android.net.wifi.p2p.WifiP2pDeviceList'
p5782
sg15
(lp5783
sg17
(lp5784
sg19
(lp5785
sg21
I0
sba(iArchitecture
Entity
p5786
(dp5787
g11
(lp5788
sg13
S'android.net.wifi.p2p.WifiP2pDeviceList$1'
p5789
sg15
(lp5790
sg17
(lp5791
sg19
(lp5792
sg21
I0
sba(iArchitecture
Entity
p5793
(dp5794
g11
(lp5795
sg13
S'android.net.wifi.p2p.WifiP2pGroup'
p5796
sg15
(lp5797
sg17
(lp5798
sg19
(lp5799
sg21
I0
sba(iArchitecture
Entity
p5800
(dp5801
g11
(lp5802
sg13
S'android.net.wifi.p2p.WifiP2pGroup$1'
p5803
sg15
(lp5804
sg17
(lp5805
sg19
(lp5806
sg21
I0
sba(iArchitecture
Entity
p5807
(dp5808
g11
(lp5809
sg13
S'android.net.wifi.p2p.WifiP2pGroupList'
p5810
sg15
(lp5811
sg17
(lp5812
sg19
(lp5813
sg21
I0
sba(iArchitecture
Entity
p5814
(dp5815
g11
(lp5816
sg13
S'android.net.wifi.p2p.WifiP2pGroupList$1'
p5817
sg15
(lp5818
sg17
(lp5819
sg19
(lp5820
sg21
I0
sba(iArchitecture
Entity
p5821
(dp5822
g11
(lp5823
sg13
S'android.net.wifi.p2p.WifiP2pGroupList$2'
p5824
sg15
(lp5825
sg17
(lp5826
sg19
(lp5827
sg21
I0
sba(iArchitecture
Entity
p5828
(dp5829
g11
(lp5830
sg13
S'android.net.wifi.p2p.WifiP2pGroupList$GroupDeleteListener'
p5831
sg15
(lp5832
sg17
(lp5833
sg19
(lp5834
sg21
I0
sba(iArchitecture
Entity
p5835
(dp5836
g11
(lp5837
sg13
S'android.net.wifi.p2p.WifiP2pInfo'
p5838
sg15
(lp5839
sg17
(lp5840
sg19
(lp5841
sg21
I0
sba(iArchitecture
Entity
p5842
(dp5843
g11
(lp5844
sg13
S'android.net.wifi.p2p.WifiP2pInfo$1'
p5845
sg15
(lp5846
sg17
(lp5847
sg19
(lp5848
sg21
I0
sba(iArchitecture
Entity
p5849
(dp5850
g11
(lp5851
sg13
S'android.net.wifi.p2p.WifiP2pWfdInfo'
p5852
sg15
(lp5853
sg17
(lp5854
sg19
(lp5855
sg21
I0
sba(iArchitecture
Entity
p5856
(dp5857
g11
(lp5858
sg13
S'android.net.wifi.p2p.WifiP2pWfdInfo$1'
p5859
sg15
(lp5860
sg17
(lp5861
sg19
(lp5862
sg21
I0
sbasg379
(lp5863
g5754
ag5761
ag5768
ag5775
ag5782
ag5789
ag5796
ag5803
ag5810
ag5817
ag5824
ag5831
ag5838
ag5845
ag5852
ag5859
asg21
I0
sg381
S'android.net.wifi.p2p.ss'
p5864
sba(iArchitecture
Cluster
p5865
(dp5866
g7
(lp5867
(iArchitecture
Entity
p5868
(dp5869
g11
(lp5870
sg13
S'android.net.wifi.AnqpInformationElement'
p5871
sg15
(lp5872
sg17
(lp5873
sg19
(lp5874
sg21
I0
sba(iArchitecture
Entity
p5875
(dp5876
g11
(lp5877
sg13
S'android.net.wifi.BatchedScanResult'
p5878
sg15
(lp5879
sg17
(lp5880
sg19
(lp5881
sg21
I0
sba(iArchitecture
Entity
p5882
(dp5883
g11
(lp5884
sg13
S'android.net.wifi.BatchedScanResult$1'
p5885
sg15
(lp5886
sg17
(lp5887
sg19
(lp5888
sg21
I0
sba(iArchitecture
Entity
p5889
(dp5890
g11
(lp5891
sg13
S'android.net.wifi.IWifiManager'
p5892
sg15
(lp5893
sg17
(lp5894
sg19
(lp5895
sg21
I0
sba(iArchitecture
Entity
p5896
(dp5897
g11
(lp5898
sg13
S'android.net.wifi.PasspointManagementObjectDefinition'
p5899
sg15
(lp5900
sg17
(lp5901
sg19
(lp5902
sg21
I0
sba(iArchitecture
Entity
p5903
(dp5904
g11
(lp5905
sg13
S'android.net.wifi.PasspointManagementObjectDefinition$1'
p5906
sg15
(lp5907
sg17
(lp5908
sg19
(lp5909
sg21
I0
sba(iArchitecture
Entity
p5910
(dp5911
g11
(lp5912
sg13
S'android.net.wifi.RssiPacketCountInfo'
p5913
sg15
(lp5914
sg17
(lp5915
sg19
(lp5916
sg21
I0
sba(iArchitecture
Entity
p5917
(dp5918
g11
(lp5919
sg13
S'android.net.wifi.RssiPacketCountInfo$1'
p5920
sg15
(lp5921
sg17
(lp5922
sg19
(lp5923
sg21
I0
sba(iArchitecture
Entity
p5924
(dp5925
g11
(lp5926
sg13
S'android.net.wifi.RttManager'
p5927
sg15
(lp5928
sg17
(lp5929
sg19
(lp5930
sg21
I0
sba(iArchitecture
Entity
p5931
(dp5932
g11
(lp5933
sg13
S'android.net.wifi.RttManager$Capabilities'
p5934
sg15
(lp5935
sg17
(lp5936
sg19
(lp5937
sg21
I0
sba(iArchitecture
Entity
p5938
(dp5939
g11
(lp5940
sg13
S'android.net.wifi.RttManager$ParcelableRttParams'
p5941
sg15
(lp5942
sg17
(lp5943
sg19
(lp5944
sg21
I0
sba(iArchitecture
Entity
p5945
(dp5946
g11
(lp5947
sg13
S'android.net.wifi.RttManager$ParcelableRttParams$1'
p5948
sg15
(lp5949
sg17
(lp5950
sg19
(lp5951
sg21
I0
sba(iArchitecture
Entity
p5952
(dp5953
g11
(lp5954
sg13
S'android.net.wifi.RttManager$ParcelableRttResults'
p5955
sg15
(lp5956
sg17
(lp5957
sg19
(lp5958
sg21
I0
sba(iArchitecture
Entity
p5959
(dp5960
g11
(lp5961
sg13
S'android.net.wifi.RttManager$ParcelableRttResults$1'
p5962
sg15
(lp5963
sg17
(lp5964
sg19
(lp5965
sg21
I0
sba(iArchitecture
Entity
p5966
(dp5967
g11
(lp5968
sg13
S'android.net.wifi.RttManager$ResponderCallback'
p5969
sg15
(lp5970
sg17
(lp5971
sg19
(lp5972
sg21
I0
sba(iArchitecture
Entity
p5973
(dp5974
g11
(lp5975
sg13
S'android.net.wifi.RttManager$ResponderConfig'
p5976
sg15
(lp5977
sg17
(lp5978
sg19
(lp5979
sg21
I0
sba(iArchitecture
Entity
p5980
(dp5981
g11
(lp5982
sg13
S'android.net.wifi.RttManager$ResponderConfig$1'
p5983
sg15
(lp5984
sg17
(lp5985
sg19
(lp5986
sg21
I0
sba(iArchitecture
Entity
p5987
(dp5988
g11
(lp5989
sg13
S'android.net.wifi.RttManager$RttListener'
p5990
sg15
(lp5991
sg17
(lp5992
sg19
(lp5993
sg21
I0
sba(iArchitecture
Entity
p5994
(dp5995
g11
(lp5996
sg13
S'android.net.wifi.RttManager$RttParams'
p5997
sg15
(lp5998
sg17
(lp5999
sg19
(lp6000
sg21
I0
sba(iArchitecture
Entity
p6001
(dp6002
g11
(lp6003
sg13
S'android.net.wifi.RttManager$RttResult'
p6004
sg15
(lp6005
sg17
(lp6006
sg19
(lp6007
sg21
I0
sba(iArchitecture
Entity
p6008
(dp6009
g11
(lp6010
sg13
S'android.net.wifi.RttManager$ServiceHandler'
p6011
sg15
(lp6012
sg17
(lp6013
sg19
(lp6014
sg21
I0
sba(iArchitecture
Entity
p6015
(dp6016
g11
(lp6017
sg13
S'android.net.wifi.RttManager$WifiInformationElement'
p6018
sg15
(lp6019
sg17
(lp6020
sg19
(lp6021
sg21
I0
sba(iArchitecture
Entity
p6022
(dp6023
g11
(lp6024
sg13
S'android.net.wifi.ScanResult'
p6025
sg15
(lp6026
sg17
(lp6027
sg19
(lp6028
sg21
I0
sba(iArchitecture
Entity
p6029
(dp6030
g11
(lp6031
sg13
S'android.net.wifi.ScanResult$1'
p6032
sg15
(lp6033
sg17
(lp6034
sg19
(lp6035
sg21
I0
sba(iArchitecture
Entity
p6036
(dp6037
g11
(lp6038
sg13
S'android.net.wifi.ScanResult$InformationElement'
p6039
sg15
(lp6040
sg17
(lp6041
sg19
(lp6042
sg21
I0
sba(iArchitecture
Entity
p6043
(dp6044
g11
(lp6045
sg13
S'android.net.wifi.ScanSettings'
p6046
sg15
(lp6047
sg17
(lp6048
sg19
(lp6049
sg21
I0
sba(iArchitecture
Entity
p6050
(dp6051
g11
(lp6052
sg13
S'android.net.wifi.ScanSettings$1'
p6053
sg15
(lp6054
sg17
(lp6055
sg19
(lp6056
sg21
I0
sba(iArchitecture
Entity
p6057
(dp6058
g11
(lp6059
sg13
S'android.net.wifi.SupplicantState'
p6060
sg15
(lp6061
sg17
(lp6062
sg19
(lp6063
sg21
I0
sba(iArchitecture
Entity
p6064
(dp6065
g11
(lp6066
sg13
S'android.net.wifi.SupplicantState$1'
p6067
sg15
(lp6068
sg17
(lp6069
sg19
(lp6070
sg21
I0
sba(iArchitecture
Entity
p6071
(dp6072
g11
(lp6073
sg13
S'android.net.wifi.WifiActivityEnergyInfo'
p6074
sg15
(lp6075
sg17
(lp6076
sg19
(lp6077
sg21
I0
sba(iArchitecture
Entity
p6078
(dp6079
g11
(lp6080
sg13
S'android.net.wifi.WifiActivityEnergyInfo$1'
p6081
sg15
(lp6082
sg17
(lp6083
sg19
(lp6084
sg21
I0
sba(iArchitecture
Entity
p6085
(dp6086
g11
(lp6087
sg13
S'android.net.wifi.WifiChannel'
p6088
sg15
(lp6089
sg17
(lp6090
sg19
(lp6091
sg21
I0
sba(iArchitecture
Entity
p6092
(dp6093
g11
(lp6094
sg13
S'android.net.wifi.WifiChannel$1'
p6095
sg15
(lp6096
sg17
(lp6097
sg19
(lp6098
sg21
I0
sba(iArchitecture
Entity
p6099
(dp6100
g11
(lp6101
sg13
S'android.net.wifi.WifiConfiguration'
p6102
sg15
(lp6103
sg17
(lp6104
sg19
(lp6105
sg21
I0
sba(iArchitecture
Entity
p6106
(dp6107
g11
(lp6108
sg13
S'android.net.wifi.WifiConfiguration$1'
p6109
sg15
(lp6110
sg17
(lp6111
sg19
(lp6112
sg21
I0
sba(iArchitecture
Entity
p6113
(dp6114
g11
(lp6115
sg13
S'android.net.wifi.WifiConfiguration$AuthAlgorithm'
p6116
sg15
(lp6117
sg17
(lp6118
sg19
(lp6119
sg21
I0
sba(iArchitecture
Entity
p6120
(dp6121
g11
(lp6122
sg13
S'android.net.wifi.WifiConfiguration$GroupCipher'
p6123
sg15
(lp6124
sg17
(lp6125
sg19
(lp6126
sg21
I0
sba(iArchitecture
Entity
p6127
(dp6128
g11
(lp6129
sg13
S'android.net.wifi.WifiConfiguration$KeyMgmt'
p6130
sg15
(lp6131
sg17
(lp6132
sg19
(lp6133
sg21
I0
sba(iArchitecture
Entity
p6134
(dp6135
g11
(lp6136
sg13
S'android.net.wifi.WifiConfiguration$NetworkSelectionStatus'
p6137
sg15
(lp6138
sg17
(lp6139
sg19
(lp6140
sg21
I0
sba(iArchitecture
Entity
p6141
(dp6142
g11
(lp6143
sg13
S'android.net.wifi.WifiConfiguration$PairwiseCipher'
p6144
sg15
(lp6145
sg17
(lp6146
sg19
(lp6147
sg21
I0
sba(iArchitecture
Entity
p6148
(dp6149
g11
(lp6150
sg13
S'android.net.wifi.WifiConfiguration$Protocol'
p6151
sg15
(lp6152
sg17
(lp6153
sg19
(lp6154
sg21
I0
sba(iArchitecture
Entity
p6155
(dp6156
g11
(lp6157
sg13
S'android.net.wifi.WifiConfiguration$Status'
p6158
sg15
(lp6159
sg17
(lp6160
sg19
(lp6161
sg21
I0
sba(iArchitecture
Entity
p6162
(dp6163
g11
(lp6164
sg13
S'android.net.wifi.WifiConfiguration$Visibility'
p6165
sg15
(lp6166
sg17
(lp6167
sg19
(lp6168
sg21
I0
sba(iArchitecture
Entity
p6169
(dp6170
g11
(lp6171
sg13
S'android.net.wifi.WifiConnectionStatistics'
p6172
sg15
(lp6173
sg17
(lp6174
sg19
(lp6175
sg21
I0
sba(iArchitecture
Entity
p6176
(dp6177
g11
(lp6178
sg13
S'android.net.wifi.WifiConnectionStatistics$1'
p6179
sg15
(lp6180
sg17
(lp6181
sg19
(lp6182
sg21
I0
sba(iArchitecture
Entity
p6183
(dp6184
g11
(lp6185
sg13
S'android.net.wifi.WifiEnterpriseConfig'
p6186
sg15
(lp6187
sg17
(lp6188
sg19
(lp6189
sg21
I0
sba(iArchitecture
Entity
p6190
(dp6191
g11
(lp6192
sg13
S'android.net.wifi.WifiEnterpriseConfig$1'
p6193
sg15
(lp6194
sg17
(lp6195
sg19
(lp6196
sg21
I0
sba(iArchitecture
Entity
p6197
(dp6198
g11
(lp6199
sg13
S'android.net.wifi.WifiEnterpriseConfig$Eap'
p6200
sg15
(lp6201
sg17
(lp6202
sg19
(lp6203
sg21
I0
sba(iArchitecture
Entity
p6204
(dp6205
g11
(lp6206
sg13
S'android.net.wifi.WifiEnterpriseConfig$Phase2'
p6207
sg15
(lp6208
sg17
(lp6209
sg19
(lp6210
sg21
I0
sba(iArchitecture
Entity
p6211
(dp6212
g11
(lp6213
sg13
S'android.net.wifi.WifiEnterpriseConfig$SupplicantLoader'
p6214
sg15
(lp6215
sg17
(lp6216
sg19
(lp6217
sg21
I0
sba(iArchitecture
Entity
p6218
(dp6219
g11
(lp6220
sg13
S'android.net.wifi.WifiEnterpriseConfig$SupplicantSaver'
p6221
sg15
(lp6222
sg17
(lp6223
sg19
(lp6224
sg21
I0
sba(iArchitecture
Entity
p6225
(dp6226
g11
(lp6227
sg13
S'android.net.wifi.WifiInfo'
p6228
sg15
(lp6229
sg17
(lp6230
sg19
(lp6231
sg21
I0
sba(iArchitecture
Entity
p6232
(dp6233
g11
(lp6234
sg13
S'android.net.wifi.WifiInfo$1'
p6235
sg15
(lp6236
sg17
(lp6237
sg19
(lp6238
sg21
I0
sba(iArchitecture
Entity
p6239
(dp6240
g11
(lp6241
sg13
S'android.net.wifi.WifiLinkLayerStats'
p6242
sg15
(lp6243
sg17
(lp6244
sg19
(lp6245
sg21
I0
sba(iArchitecture
Entity
p6246
(dp6247
g11
(lp6248
sg13
S'android.net.wifi.WifiLinkLayerStats$1'
p6249
sg15
(lp6250
sg17
(lp6251
sg19
(lp6252
sg21
I0
sba(iArchitecture
Entity
p6253
(dp6254
g11
(lp6255
sg13
S'android.net.wifi.WifiManager'
p6256
sg15
(lp6257
sg17
(lp6258
sg19
(lp6259
sg21
I0
sba(iArchitecture
Entity
p6260
(dp6261
g11
(lp6262
sg13
S'android.net.wifi.WifiManager$ActionListener'
p6263
sg15
(lp6264
sg17
(lp6265
sg19
(lp6266
sg21
I0
sba(iArchitecture
Entity
p6267
(dp6268
g11
(lp6269
sg13
S'android.net.wifi.WifiManager$MulticastLock'
p6270
sg15
(lp6271
sg17
(lp6272
sg19
(lp6273
sg21
I0
sba(iArchitecture
Entity
p6274
(dp6275
g11
(lp6276
sg13
S'android.net.wifi.WifiManager$ServiceHandler'
p6277
sg15
(lp6278
sg17
(lp6279
sg19
(lp6280
sg21
I0
sba(iArchitecture
Entity
p6281
(dp6282
g11
(lp6283
sg13
S'android.net.wifi.WifiManager$TxPacketCountListener'
p6284
sg15
(lp6285
sg17
(lp6286
sg19
(lp6287
sg21
I0
sba(iArchitecture
Entity
p6288
(dp6289
g11
(lp6290
sg13
S'android.net.wifi.WifiManager$WifiLock'
p6291
sg15
(lp6292
sg17
(lp6293
sg19
(lp6294
sg21
I0
sba(iArchitecture
Entity
p6295
(dp6296
g11
(lp6297
sg13
S'android.net.wifi.WifiManager$WpsCallback'
p6298
sg15
(lp6299
sg17
(lp6300
sg19
(lp6301
sg21
I0
sba(iArchitecture
Entity
p6302
(dp6303
g11
(lp6304
sg13
S'android.net.wifi.WifiNetworkConnectionStatistics'
p6305
sg15
(lp6306
sg17
(lp6307
sg19
(lp6308
sg21
I0
sba(iArchitecture
Entity
p6309
(dp6310
g11
(lp6311
sg13
S'android.net.wifi.WifiNetworkConnectionStatistics$1'
p6312
sg15
(lp6313
sg17
(lp6314
sg19
(lp6315
sg21
I0
sba(iArchitecture
Entity
p6316
(dp6317
g11
(lp6318
sg13
S'android.net.wifi.WifiScanner'
p6319
sg15
(lp6320
sg17
(lp6321
sg19
(lp6322
sg21
I0
sba(iArchitecture
Entity
p6323
(dp6324
g11
(lp6325
sg13
S'android.net.wifi.WifiScanner$ActionListener'
p6326
sg15
(lp6327
sg17
(lp6328
sg19
(lp6329
sg21
I0
sba(iArchitecture
Entity
p6330
(dp6331
g11
(lp6332
sg13
S'android.net.wifi.WifiScanner$BssidInfo'
p6333
sg15
(lp6334
sg17
(lp6335
sg19
(lp6336
sg21
I0
sba(iArchitecture
Entity
p6337
(dp6338
g11
(lp6339
sg13
S'android.net.wifi.WifiScanner$BssidListener'
p6340
sg15
(lp6341
sg17
(lp6342
sg19
(lp6343
sg21
I0
sba(iArchitecture
Entity
p6344
(dp6345
g11
(lp6346
sg13
S'android.net.wifi.WifiScanner$ChannelSpec'
p6347
sg15
(lp6348
sg17
(lp6349
sg19
(lp6350
sg21
I0
sba(iArchitecture
Entity
p6351
(dp6352
g11
(lp6353
sg13
S'android.net.wifi.WifiScanner$HotlistSettings'
p6354
sg15
(lp6355
sg17
(lp6356
sg19
(lp6357
sg21
I0
sba(iArchitecture
Entity
p6358
(dp6359
g11
(lp6360
sg13
S'android.net.wifi.WifiScanner$HotlistSettings$1'
p6361
sg15
(lp6362
sg17
(lp6363
sg19
(lp6364
sg21
I0
sba(iArchitecture
Entity
p6365
(dp6366
g11
(lp6367
sg13
S'android.net.wifi.WifiScanner$OperationResult'
p6368
sg15
(lp6369
sg17
(lp6370
sg19
(lp6371
sg21
I0
sba(iArchitecture
Entity
p6372
(dp6373
g11
(lp6374
sg13
S'android.net.wifi.WifiScanner$OperationResult$1'
p6375
sg15
(lp6376
sg17
(lp6377
sg19
(lp6378
sg21
I0
sba(iArchitecture
Entity
p6379
(dp6380
g11
(lp6381
sg13
S'android.net.wifi.WifiScanner$ParcelableScanData'
p6382
sg15
(lp6383
sg17
(lp6384
sg19
(lp6385
sg21
I0
sba(iArchitecture
Entity
p6386
(dp6387
g11
(lp6388
sg13
S'android.net.wifi.WifiScanner$ParcelableScanData$1'
p6389
sg15
(lp6390
sg17
(lp6391
sg19
(lp6392
sg21
I0
sba(iArchitecture
Entity
p6393
(dp6394
g11
(lp6395
sg13
S'android.net.wifi.WifiScanner$ParcelableScanResults'
p6396
sg15
(lp6397
sg17
(lp6398
sg19
(lp6399
sg21
I0
sba(iArchitecture
Entity
p6400
(dp6401
g11
(lp6402
sg13
S'android.net.wifi.WifiScanner$ParcelableScanResults$1'
p6403
sg15
(lp6404
sg17
(lp6405
sg19
(lp6406
sg21
I0
sba(iArchitecture
Entity
p6407
(dp6408
g11
(lp6409
sg13
S'android.net.wifi.WifiScanner$PnoScanListener'
p6410
sg15
(lp6411
sg17
(lp6412
sg19
(lp6413
sg21
I0
sba(iArchitecture
Entity
p6414
(dp6415
g11
(lp6416
sg13
S'android.net.wifi.WifiScanner$PnoSettings'
p6417
sg15
(lp6418
sg17
(lp6419
sg19
(lp6420
sg21
I0
sba(iArchitecture
Entity
p6421
(dp6422
g11
(lp6423
sg13
S'android.net.wifi.WifiScanner$PnoSettings$1'
p6424
sg15
(lp6425
sg17
(lp6426
sg19
(lp6427
sg21
I0
sba(iArchitecture
Entity
p6428
(dp6429
g11
(lp6430
sg13
S'android.net.wifi.WifiScanner$PnoSettings$PnoNetwork'
p6431
sg15
(lp6432
sg17
(lp6433
sg19
(lp6434
sg21
I0
sba(iArchitecture
Entity
p6435
(dp6436
g11
(lp6437
sg13
S'android.net.wifi.WifiScanner$ScanData'
p6438
sg15
(lp6439
sg17
(lp6440
sg19
(lp6441
sg21
I0
sba(iArchitecture
Entity
p6442
(dp6443
g11
(lp6444
sg13
S'android.net.wifi.WifiScanner$ScanData$1'
p6445
sg15
(lp6446
sg17
(lp6447
sg19
(lp6448
sg21
I0
sba(iArchitecture
Entity
p6449
(dp6450
g11
(lp6451
sg13
S'android.net.wifi.WifiScanner$ScanListener'
p6452
sg15
(lp6453
sg17
(lp6454
sg19
(lp6455
sg21
I0
sba(iArchitecture
Entity
p6456
(dp6457
g11
(lp6458
sg13
S'android.net.wifi.WifiScanner$ScanSettings'
p6459
sg15
(lp6460
sg17
(lp6461
sg19
(lp6462
sg21
I0
sba(iArchitecture
Entity
p6463
(dp6464
g11
(lp6465
sg13
S'android.net.wifi.WifiScanner$ScanSettings$1'
p6466
sg15
(lp6467
sg17
(lp6468
sg19
(lp6469
sg21
I0
sba(iArchitecture
Entity
p6470
(dp6471
g11
(lp6472
sg13
S'android.net.wifi.WifiScanner$ServiceHandler'
p6473
sg15
(lp6474
sg17
(lp6475
sg19
(lp6476
sg21
I0
sba(iArchitecture
Entity
p6477
(dp6478
g11
(lp6479
sg13
S'android.net.wifi.WifiScanner$WifiChangeListener'
p6480
sg15
(lp6481
sg17
(lp6482
sg19
(lp6483
sg21
I0
sba(iArchitecture
Entity
p6484
(dp6485
g11
(lp6486
sg13
S'android.net.wifi.WifiScanner$WifiChangeSettings'
p6487
sg15
(lp6488
sg17
(lp6489
sg19
(lp6490
sg21
I0
sba(iArchitecture
Entity
p6491
(dp6492
g11
(lp6493
sg13
S'android.net.wifi.WifiScanner$WifiChangeSettings$1'
p6494
sg15
(lp6495
sg17
(lp6496
sg19
(lp6497
sg21
I0
sba(iArchitecture
Entity
p6498
(dp6499
g11
(lp6500
sg13
S'android.net.wifi.WifiSsid'
p6501
sg15
(lp6502
sg17
(lp6503
sg19
(lp6504
sg21
I0
sba(iArchitecture
Entity
p6505
(dp6506
g11
(lp6507
sg13
S'android.net.wifi.WifiSsid$1'
p6508
sg15
(lp6509
sg17
(lp6510
sg19
(lp6511
sg21
I0
sba(iArchitecture
Entity
p6512
(dp6513
g11
(lp6514
sg13
S'android.net.wifi.WifiWakeReasonAndCounts'
p6515
sg15
(lp6516
sg17
(lp6517
sg19
(lp6518
sg21
I0
sba(iArchitecture
Entity
p6519
(dp6520
g11
(lp6521
sg13
S'android.net.wifi.WifiWakeReasonAndCounts$1'
p6522
sg15
(lp6523
sg17
(lp6524
sg19
(lp6525
sg21
I0
sba(iArchitecture
Entity
p6526
(dp6527
g11
(lp6528
sg13
S'android.net.wifi.WpsInfo'
p6529
sg15
(lp6530
sg17
(lp6531
sg19
(lp6532
sg21
I0
sba(iArchitecture
Entity
p6533
(dp6534
g11
(lp6535
sg13
S'android.net.wifi.WpsInfo$1'
p6536
sg15
(lp6537
sg17
(lp6538
sg19
(lp6539
sg21
I0
sba(iArchitecture
Entity
p6540
(dp6541
g11
(lp6542
sg13
S'android.net.wifi.WpsResult'
p6543
sg15
(lp6544
sg17
(lp6545
sg19
(lp6546
sg21
I0
sba(iArchitecture
Entity
p6547
(dp6548
g11
(lp6549
sg13
S'android.net.wifi.WpsResult$1'
p6550
sg15
(lp6551
sg17
(lp6552
sg19
(lp6553
sg21
I0
sba(iArchitecture
Entity
p6554
(dp6555
g11
(lp6556
sg13
S'android.net.wifi.WpsResult$Status'
p6557
sg15
(lp6558
sg17
(lp6559
sg19
(lp6560
sg21
I0
sbasg379
(lp6561
g5871
ag5878
ag5885
ag5892
ag5899
ag5906
ag5913
ag5920
ag5927
ag5934
ag5941
ag5948
ag5955
ag5962
ag5969
ag5976
ag5983
ag5990
ag5997
ag6004
ag6011
ag6018
ag6025
ag6032
ag6039
ag6046
ag6053
ag6060
ag6067
ag6074
ag6081
ag6088
ag6095
ag6102
ag6109
ag6116
ag6123
ag6130
ag6137
ag6144
ag6151
ag6158
ag6165
ag6172
ag6179
ag6186
ag6193
ag6200
ag6207
ag6214
ag6221
ag6228
ag6235
ag6242
ag6249
ag6256
ag6263
ag6270
ag6277
ag6284
ag6291
ag6298
ag6305
ag6312
ag6319
ag6326
ag6333
ag6340
ag6347
ag6354
ag6361
ag6368
ag6375
ag6382
ag6389
ag6396
ag6403
ag6410
ag6417
ag6424
ag6431
ag6438
ag6445
ag6452
ag6459
ag6466
ag6473
ag6480
ag6487
ag6494
ag6501
ag6508
ag6515
ag6522
ag6529
ag6536
ag6543
ag6550
ag6557
asg21
I0
sg381
S'android.net.wifi.ss'
p6562
sba(iArchitecture
Cluster
p6563
(dp6564
g7
(lp6565
(iArchitecture
Entity
p6566
(dp6567
g11
(lp6568
sg13
S'android.net.Uri$Builder'
p6569
sg15
(lp6570
sg17
(lp6571
sg19
(lp6572
sg21
I0
sbasg379
(lp6573
g6569
asg21
I0
sg381
S'android.provider.ss'
p6574
sba(iArchitecture
Cluster
p6575
(dp6576
g7
(lp6577
(iArchitecture
Entity
p6578
(dp6579
g11
(lp6580
sg13
S'android.net.wifi.p2p.nsd.WifiP2pUpnpServiceRequest'
p6581
sg15
(lp6582
sg17
(lp6583
sg19
(lp6584
sg21
I0
sbasg379
(lp6585
g6581
asg21
I0
sg381
S'android.speech.tts.ss'
p6586
sba(iArchitecture
Cluster
p6587
(dp6588
g7
(lp6589
(iArchitecture
Entity
p6590
(dp6591
g11
(lp6592
sg13
S'android.net.ParseException'
p6593
sg15
(lp6594
sg17
(lp6595
sg19
(lp6596
sg21
I0
sba(iArchitecture
Entity
p6597
(dp6598
g11
(lp6599
sg13
S'android.net.WebAddress'
p6600
sg15
(lp6601
sg17
(lp6602
sg19
(lp6603
sg21
I0
sba(iArchitecture
Entity
p6604
(dp6605
g11
(lp6606
sg13
S'android.net.http.SslError'
p6607
sg15
(lp6608
sg17
(lp6609
sg19
(lp6610
sg21
I0
sbasg379
(lp6611
g6593
ag6600
ag6607
asg21
I0
sg381
S'android.webkit.ss'
p6612
sba(iArchitecture
Cluster
p6613
(dp6614
g7
(lp6615
(iArchitecture
Entity
p6616
(dp6617
g11
(lp6618
sg13
S'android.net.Credentials'
p6619
sg15
(lp6620
sg17
(lp6621
sg19
(lp6622
sg21
I0
sba(iArchitecture
Entity
p6623
(dp6624
g11
(lp6625
sg13
S'android.net.LocalServerSocket'
p6626
sg15
(lp6627
sg17
(lp6628
sg19
(lp6629
sg21
I0
sba(iArchitecture
Entity
p6630
(dp6631
g11
(lp6632
sg13
S'android.net.LocalSocket'
p6633
sg15
(lp6634
sg17
(lp6635
sg19
(lp6636
sg21
I0
sba(iArchitecture
Entity
p6637
(dp6638
g11
(lp6639
sg13
S'android.net.LocalSocketAddress'
p6640
sg15
(lp6641
sg17
(lp6642
sg19
(lp6643
sg21
I0
sba(iArchitecture
Entity
p6644
(dp6645
g11
(lp6646
sg13
S'android.net.LocalSocketAddress$Namespace'
p6647
sg15
(lp6648
sg17
(lp6649
sg19
(lp6650
sg21
I0
sbasg379
(lp6651
g6619
ag6626
ag6633
ag6640
ag6647
asg21
I0
sg381
S'com.android.internal.os.ss'
p6652
sba(iArchitecture
Cluster
p6653
(dp6654
g7
(lp6655
(iArchitecture
Entity
p6656
(dp6657
g11
(lp6658
sg13
S'com.android.net.IProxyPortListener'
p6659
sg15
(lp6660
sg17
(lp6661
sg19
(lp6662
sg21
I0
sba(iArchitecture
Entity
p6663
(dp6664
g11
(lp6665
sg13
S'com.android.net.IProxyPortListener$Stub'
p6666
sg15
(lp6667
sg17
(lp6668
sg19
(lp6669
sg21
I0
sba(iArchitecture
Entity
p6670
(dp6671
g11
(lp6672
sg13
S'com.android.net.IProxyPortListener$Stub$Proxy'
p6673
sg15
(lp6674
sg17
(lp6675
sg19
(lp6676
sg21
I0
sbasg379
(lp6677
g6659
ag6666
ag6673
asg21
I0
sg381
S'com.android.net.ss'
p6678
sba(iArchitecture
Cluster
p6679
(dp6680
g7
(lp6681
(iArchitecture
Entity
p6682
(dp6683
g11
(lp6684
sg13
S'android.net.ConnectivityMetricsEvent$Reference'
p6685
sg15
(lp6686
sg17
(lp6687
sg19
(lp6688
sg21
I0
sba(iArchitecture
Entity
p6689
(dp6690
g11
(lp6691
sg13
S'android.net.ConnectivityMetricsEvent$Reference$1'
p6692
sg15
(lp6693
sg17
(lp6694
sg19
(lp6695
sg21
I0
sba(iArchitecture
Entity
p6696
(dp6697
g11
(lp6698
sg13
S'android.net.ICaptivePortal'
p6699
sg15
(lp6700
sg17
(lp6701
sg19
(lp6702
sg21
I0
sba(iArchitecture
Entity
p6703
(dp6704
g11
(lp6705
sg13
S'android.net.ICaptivePortal$Stub'
p6706
sg15
(lp6707
sg17
(lp6708
sg19
(lp6709
sg21
I0
sba(iArchitecture
Entity
p6710
(dp6711
g11
(lp6712
sg13
S'android.net.ICaptivePortal$Stub$Proxy'
p6713
sg15
(lp6714
sg17
(lp6715
sg19
(lp6716
sg21
I0
sba(iArchitecture
Entity
p6717
(dp6718
g11
(lp6719
sg13
S'android.net.INetworkManagementEventObserver'
p6720
sg15
(lp6721
sg17
(lp6722
sg19
(lp6723
sg21
I0
sba(iArchitecture
Entity
p6724
(dp6725
g11
(lp6726
sg13
S'android.net.INetworkManagementEventObserver$Stub'
p6727
sg15
(lp6728
sg17
(lp6729
sg19
(lp6730
sg21
I0
sba(iArchitecture
Entity
p6731
(dp6732
g11
(lp6733
sg13
S'android.net.INetworkManagementEventObserver$Stub$Proxy'
p6734
sg15
(lp6735
sg17
(lp6736
sg19
(lp6737
sg21
I0
sba(iArchitecture
Entity
p6738
(dp6739
g11
(lp6740
sg13
S'android.net.NetworkAgent'
p6741
sg15
(lp6742
sg17
(lp6743
sg19
(lp6744
sg21
I0
sba(iArchitecture
Entity
p6745
(dp6746
g11
(lp6747
sg13
S'android.net.NetworkInfo$DetailedState'
p6748
sg15
(lp6749
sg17
(lp6750
sg19
(lp6751
sg21
I0
sba(iArchitecture
Entity
p6752
(dp6753
g11
(lp6754
sg13
S'android.net.NetworkUtils'
p6755
sg15
(lp6756
sg17
(lp6757
sg19
(lp6758
sg21
I0
sba(iArchitecture
Entity
p6759
(dp6760
g11
(lp6761
sg13
S'android.net.util.IpUtils'
p6762
sg15
(lp6763
sg17
(lp6764
sg19
(lp6765
sg21
I0
sba(iArchitecture
Entity
p6766
(dp6767
g11
(lp6768
sg13
S'android.net.util.Stopwatch'
p6769
sg15
(lp6770
sg17
(lp6771
sg19
(lp6772
sg21
I0
sba(iArchitecture
Entity
p6773
(dp6774
g11
(lp6775
sg13
S'com.android.net.IProxyCallback'
p6776
sg15
(lp6777
sg17
(lp6778
sg19
(lp6779
sg21
I0
sba(iArchitecture
Entity
p6780
(dp6781
g11
(lp6782
sg13
S'com.android.net.IProxyCallback$Stub'
p6783
sg15
(lp6784
sg17
(lp6785
sg19
(lp6786
sg21
I0
sba(iArchitecture
Entity
p6787
(dp6788
g11
(lp6789
sg13
S'com.android.net.IProxyCallback$Stub$Proxy'
p6790
sg15
(lp6791
sg17
(lp6792
sg19
(lp6793
sg21
I0
sba(iArchitecture
Entity
p6794
(dp6795
g11
(lp6796
sg13
S'com.android.net.IProxyService'
p6797
sg15
(lp6798
sg17
(lp6799
sg19
(lp6800
sg21
I0
sba(iArchitecture
Entity
p6801
(dp6802
g11
(lp6803
sg13
S'com.android.net.IProxyService$Stub'
p6804
sg15
(lp6805
sg17
(lp6806
sg19
(lp6807
sg21
I0
sba(iArchitecture
Entity
p6808
(dp6809
g11
(lp6810
sg13
S'com.android.net.IProxyService$Stub$Proxy'
p6811
sg15
(lp6812
sg17
(lp6813
sg19
(lp6814
sg21
I0
sbasg379
(lp6815
g6685
ag6692
ag6699
ag6706
ag6713
ag6720
ag6727
ag6734
ag6741
ag6748
ag6755
ag6762
ag6769
ag6776
ag6783
ag6790
ag6797
ag6804
ag6811
asg21
I0
sg381
S'com.android.server.connectivity.ss'
p6816
sba(iArchitecture
Cluster
p6817
(dp6818
g7
(lp6819
(iArchitecture
Entity
p6820
(dp6821
g11
(lp6822
sg13
S'android.net.TrafficStats'
p6823
sg15
(lp6824
sg17
(lp6825
sg19
(lp6826
sg21
I0
sbasg379
(lp6827
g6823
asg21
I0
sg381
S'com.android.server.content.ss'
p6828
sba(iArchitecture
Cluster
p6829
(dp6830
g7
(lp6831
(iArchitecture
Entity
p6832
(dp6833
g11
(lp6834
sg13
S'android.net.wifi.p2p.WifiP2pManager$ActionListener'
p6835
sg15
(lp6836
sg17
(lp6837
sg19
(lp6838
sg21
I0
sbasg379
(lp6839
g6835
asg21
I0
sg381
S'com.android.server.display.ss'
p6840
sba(iArchitecture
Cluster
p6841
(dp6842
g7
(lp6843
(iArchitecture
Entity
p6844
(dp6845
g11
(lp6846
sg13
S'android.net.ConnectivityManager$NetworkCallback'
p6847
sg15
(lp6848
sg17
(lp6849
sg19
(lp6850
sg21
I0
sba(iArchitecture
Entity
p6851
(dp6852
g11
(lp6853
sg13
S'android.net.NetworkRequest$Builder'
p6854
sg15
(lp6855
sg17
(lp6856
sg19
(lp6857
sg21
I0
sbasg379
(lp6858
g6847
ag6854
asg21
I0
sg381
S'com.android.server.location.ss'
p6859
sba(iArchitecture
Cluster
p6860
(dp6861
g7
(lp6862
(iArchitecture
Entity
p6863
(dp6864
g11
(lp6865
sg13
S'android.net.INetworkStatsSession'
p6866
sg15
(lp6867
sg17
(lp6868
sg19
(lp6869
sg21
I0
sba(iArchitecture
Entity
p6870
(dp6871
g11
(lp6872
sg13
S'android.net.INetworkStatsSession$Stub'
p6873
sg15
(lp6874
sg17
(lp6875
sg19
(lp6876
sg21
I0
sba(iArchitecture
Entity
p6877
(dp6878
g11
(lp6879
sg13
S'android.net.INetworkStatsSession$Stub$Proxy'
p6880
sg15
(lp6881
sg17
(lp6882
sg19
(lp6883
sg21
I0
sba(iArchitecture
Entity
p6884
(dp6885
g11
(lp6886
sg13
S'android.net.NetworkIdentity'
p6887
sg15
(lp6888
sg17
(lp6889
sg19
(lp6890
sg21
I0
sba(iArchitecture
Entity
p6891
(dp6892
g11
(lp6893
sg13
S'android.net.NetworkStats$Entry'
p6894
sg15
(lp6895
sg17
(lp6896
sg19
(lp6897
sg21
I0
sba(iArchitecture
Entity
p6898
(dp6899
g11
(lp6900
sg13
S'android.net.NetworkStats$NonMonotonicObserver'
p6901
sg15
(lp6902
sg17
(lp6903
sg19
(lp6904
sg21
I0
sba(iArchitecture
Entity
p6905
(dp6906
g11
(lp6907
sg13
S'android.net.NetworkStatsHistory$Entry'
p6908
sg15
(lp6909
sg17
(lp6910
sg19
(lp6911
sg21
I0
sbasg379
(lp6912
g6866
ag6873
ag6880
ag6887
ag6894
ag6901
ag6908
asg21
I0
sg381
S'com.android.server.net.ss'
p6913
sba(iArchitecture
Cluster
p6914
(dp6915
g7
(lp6916
(iArchitecture
Entity
p6917
(dp6918
g11
(lp6919
sg13
S'android.net.MailTo'
p6920
sg15
(lp6921
sg17
(lp6922
sg19
(lp6923
sg21
I0
sba(iArchitecture
Entity
p6924
(dp6925
g11
(lp6926
sg13
S'android.net.wifi.p2p.WifiP2pProvDiscEvent'
p6927
sg15
(lp6928
sg17
(lp6929
sg19
(lp6930
sg21
I0
sba(iArchitecture
Entity
p6931
(dp6932
g11
(lp6933
sg13
S'android.net.wifi.p2p.nsd.WifiP2pUpnpServiceInfo'
p6934
sg15
(lp6935
sg17
(lp6936
sg19
(lp6937
sg21
I0
sba(iArchitecture
Entity
p6938
(dp6939
g11
(lp6940
sg13
S'android.net.wimax.WimaxManagerConstants'
p6941
sg15
(lp6942
sg17
(lp6943
sg19
(lp6944
sg21
I0
sbasg379
(lp6945
g6920
ag6927
ag6934
ag6941
asg21
I0
sg381
S'com.android.server.pm.ss'
p6946
sba(iArchitecture
Cluster
p6947
(dp6948
g7
(lp6949
(iArchitecture
Entity
p6950
(dp6951
g11
(lp6952
sg13
S'android.net.INetd'
p6953
sg15
(lp6954
sg17
(lp6955
sg19
(lp6956
sg21
I0
sba(iArchitecture
Entity
p6957
(dp6958
g11
(lp6959
sg13
S'android.net.INetd$Stub'
p6960
sg15
(lp6961
sg17
(lp6962
sg19
(lp6963
sg21
I0
sba(iArchitecture
Entity
p6964
(dp6965
g11
(lp6966
sg13
S'android.net.INetd$Stub$Proxy'
p6967
sg15
(lp6968
sg17
(lp6969
sg19
(lp6970
sg21
I0
sba(iArchitecture
Entity
p6971
(dp6972
g11
(lp6973
sg13
S'android.net.LinkProperties$CompareResult'
p6974
sg15
(lp6975
sg17
(lp6976
sg19
(lp6977
sg21
I0
sba(iArchitecture
Entity
p6978
(dp6979
g11
(lp6980
sg13
S'android.net.NetworkConfig'
p6981
sg15
(lp6982
sg17
(lp6983
sg19
(lp6984
sg21
I0
sba(iArchitecture
Entity
p6985
(dp6986
g11
(lp6987
sg13
S'android.net.NetworkInfo$State'
p6988
sg15
(lp6989
sg17
(lp6990
sg19
(lp6991
sg21
I0
sba(iArchitecture
Entity
p6992
(dp6993
g11
(lp6994
sg13
S'android.net.NetworkScorerAppManager'
p6995
sg15
(lp6996
sg17
(lp6997
sg19
(lp6998
sg21
I0
sba(iArchitecture
Entity
p6999
(dp7000
g11
(lp7001
sg13
S'android.net.NetworkScorerAppManager$NetworkScorerAppData'
p7002
sg15
(lp7003
sg17
(lp7004
sg19
(lp7005
sg21
I0
sbasg379
(lp7006
g6953
ag6960
ag6967
ag6974
ag6981
ag6988
ag6995
ag7002
asg21
I0
sg381
S'com.android.server.ss'
p7007
sbasg3370
g3371
sg379
(lp7008
sg3373
I00
sg381
S'7.0.0_r1'
p7009
sba.