(lp0
(iArchitecture
Architecture
p1
(dp2
S'clusters'
p3
(lp4
(iArchitecture
Cluster
p5
(dp6
S'entities'
p7
(lp8
(iArchitecture
Entity
p9
(dp10
S'issue_ids'
p11
(lp12
sS'name'
p13
S'android.animation.Animator'
p14
sS'descs'
p15
(lp16
sS'labels'
p17
(lp18
sS'titles'
p19
(lp20
sS'change'
p21
I0
sba(iArchitecture
Entity
p22
(dp23
g11
(lp24
sg13
S'android.animation.Animator$AnimatorConstantState'
p25
sg15
(lp26
sg17
(lp27
sg19
(lp28
sg21
I0
sba(iArchitecture
Entity
p29
(dp30
g11
(lp31
sg13
S'android.animation.AnimatorInflater'
p32
sg15
(lp33
sg17
(lp34
sg19
(lp35
sg21
I0
sba(iArchitecture
Entity
p36
(dp37
g11
(lp38
sg13
S'android.animation.AnimatorInflater$PathDataEvaluator'
p39
sg15
(lp40
sg17
(lp41
sg19
(lp42
sg21
I0
sba(iArchitecture
Entity
p43
(dp44
g11
(lp45
sg13
S'android.animation.AnimatorSet'
p46
sg15
(lp47
sg17
(lp48
sg19
(lp49
sg21
I0
sba(iArchitecture
Entity
p50
(dp51
g11
(lp52
sg13
S'android.animation.AnimatorSet$1'
p53
sg15
(lp54
sg17
(lp55
sg19
(lp56
sg21
I0
sba(iArchitecture
Entity
p57
(dp58
g11
(lp59
sg13
S'android.animation.AnimatorSet$AnimatorSetListener'
p60
sg15
(lp61
sg17
(lp62
sg19
(lp63
sg21
I0
sba(iArchitecture
Entity
p64
(dp65
g11
(lp66
sg13
S'android.animation.AnimatorSet$Dependency'
p67
sg15
(lp68
sg17
(lp69
sg19
(lp70
sg21
I0
sba(iArchitecture
Entity
p71
(dp72
g11
(lp73
sg13
S'android.animation.AnimatorSet$DependencyListener'
p74
sg15
(lp75
sg17
(lp76
sg19
(lp77
sg21
I0
sba(iArchitecture
Entity
p78
(dp79
g11
(lp80
sg13
S'android.animation.AnimatorSet$Node'
p81
sg15
(lp82
sg17
(lp83
sg19
(lp84
sg21
I0
sba(iArchitecture
Entity
p85
(dp86
g11
(lp87
sg13
S'android.animation.BidirectionalTypeConverter'
p88
sg15
(lp89
sg17
(lp90
sg19
(lp91
sg21
I0
sba(iArchitecture
Entity
p92
(dp93
g11
(lp94
sg13
S'android.animation.BidirectionalTypeConverter$InvertedConverter'
p95
sg15
(lp96
sg17
(lp97
sg19
(lp98
sg21
I0
sba(iArchitecture
Entity
p99
(dp100
g11
(lp101
sg13
S'android.animation.FloatArrayEvaluator'
p102
sg15
(lp103
sg17
(lp104
sg19
(lp105
sg21
I0
sba(iArchitecture
Entity
p106
(dp107
g11
(lp108
sg13
S'android.animation.FloatEvaluator'
p109
sg15
(lp110
sg17
(lp111
sg19
(lp112
sg21
I0
sba(iArchitecture
Entity
p113
(dp114
g11
(lp115
sg13
S'android.animation.FloatKeyframeSet'
p116
sg15
(lp117
sg17
(lp118
sg19
(lp119
sg21
I0
sba(iArchitecture
Entity
p120
(dp121
g11
(lp122
sg13
S'android.animation.IntArrayEvaluator'
p123
sg15
(lp124
sg17
(lp125
sg19
(lp126
sg21
I0
sba(iArchitecture
Entity
p127
(dp128
g11
(lp129
sg13
S'android.animation.IntEvaluator'
p130
sg15
(lp131
sg17
(lp132
sg19
(lp133
sg21
I0
sba(iArchitecture
Entity
p134
(dp135
g11
(lp136
sg13
S'android.animation.IntKeyframeSet'
p137
sg15
(lp138
sg17
(lp139
sg19
(lp140
sg21
I0
sba(iArchitecture
Entity
p141
(dp142
g11
(lp143
sg13
S'android.animation.Keyframe'
p144
sg15
(lp145
sg17
(lp146
sg19
(lp147
sg21
I0
sba(iArchitecture
Entity
p148
(dp149
g11
(lp150
sg13
S'android.animation.Keyframe$FloatKeyframe'
p151
sg15
(lp152
sg17
(lp153
sg19
(lp154
sg21
I0
sba(iArchitecture
Entity
p155
(dp156
g11
(lp157
sg13
S'android.animation.Keyframe$IntKeyframe'
p158
sg15
(lp159
sg17
(lp160
sg19
(lp161
sg21
I0
sba(iArchitecture
Entity
p162
(dp163
g11
(lp164
sg13
S'android.animation.Keyframe$ObjectKeyframe'
p165
sg15
(lp166
sg17
(lp167
sg19
(lp168
sg21
I0
sba(iArchitecture
Entity
p169
(dp170
g11
(lp171
sg13
S'android.animation.KeyframeSet'
p172
sg15
(lp173
sg17
(lp174
sg19
(lp175
sg21
I0
sba(iArchitecture
Entity
p176
(dp177
g11
(lp178
sg13
S'android.animation.Keyframes'
p179
sg15
(lp180
sg17
(lp181
sg19
(lp182
sg21
I0
sba(iArchitecture
Entity
p183
(dp184
g11
(lp185
sg13
S'android.animation.Keyframes$FloatKeyframes'
p186
sg15
(lp187
sg17
(lp188
sg19
(lp189
sg21
I0
sba(iArchitecture
Entity
p190
(dp191
g11
(lp192
sg13
S'android.animation.Keyframes$IntKeyframes'
p193
sg15
(lp194
sg17
(lp195
sg19
(lp196
sg21
I0
sba(iArchitecture
Entity
p197
(dp198
g11
(lp199
sg13
S'android.animation.LayoutTransition'
p200
sg15
(lp201
sg17
(lp202
sg19
(lp203
sg21
I0
sba(iArchitecture
Entity
p204
(dp205
g11
(lp206
sg13
S'android.animation.LayoutTransition$1'
p207
sg15
(lp208
sg17
(lp209
sg19
(lp210
sg21
I0
sba(iArchitecture
Entity
p211
(dp212
g11
(lp213
sg13
S'android.animation.LayoutTransition$2'
p214
sg15
(lp215
sg17
(lp216
sg19
(lp217
sg21
I0
sba(iArchitecture
Entity
p218
(dp219
g11
(lp220
sg13
S'android.animation.LayoutTransition$3'
p221
sg15
(lp222
sg17
(lp223
sg19
(lp224
sg21
I0
sba(iArchitecture
Entity
p225
(dp226
g11
(lp227
sg13
S'android.animation.LayoutTransition$4'
p228
sg15
(lp229
sg17
(lp230
sg19
(lp231
sg21
I0
sba(iArchitecture
Entity
p232
(dp233
g11
(lp234
sg13
S'android.animation.LayoutTransition$5'
p235
sg15
(lp236
sg17
(lp237
sg19
(lp238
sg21
I0
sba(iArchitecture
Entity
p239
(dp240
g11
(lp241
sg13
S'android.animation.LayoutTransition$CleanupCallback'
p242
sg15
(lp243
sg17
(lp244
sg19
(lp245
sg21
I0
sba(iArchitecture
Entity
p246
(dp247
g11
(lp248
sg13
S'android.animation.LayoutTransition$TransitionListener'
p249
sg15
(lp250
sg17
(lp251
sg19
(lp252
sg21
I0
sba(iArchitecture
Entity
p253
(dp254
g11
(lp255
sg13
S'android.animation.PathKeyframes'
p256
sg15
(lp257
sg17
(lp258
sg19
(lp259
sg21
I0
sba(iArchitecture
Entity
p260
(dp261
g11
(lp262
sg13
S'android.animation.PathKeyframes$1'
p263
sg15
(lp264
sg17
(lp265
sg19
(lp266
sg21
I0
sba(iArchitecture
Entity
p267
(dp268
g11
(lp269
sg13
S'android.animation.PathKeyframes$2'
p270
sg15
(lp271
sg17
(lp272
sg19
(lp273
sg21
I0
sba(iArchitecture
Entity
p274
(dp275
g11
(lp276
sg13
S'android.animation.PathKeyframes$3'
p277
sg15
(lp278
sg17
(lp279
sg19
(lp280
sg21
I0
sba(iArchitecture
Entity
p281
(dp282
g11
(lp283
sg13
S'android.animation.PathKeyframes$4'
p284
sg15
(lp285
sg17
(lp286
sg19
(lp287
sg21
I0
sba(iArchitecture
Entity
p288
(dp289
g11
(lp290
sg13
S'android.animation.PathKeyframes$FloatKeyframesBase'
p291
sg15
(lp292
sg17
(lp293
sg19
(lp294
sg21
I0
sba(iArchitecture
Entity
p295
(dp296
g11
(lp297
sg13
S'android.animation.PathKeyframes$IntKeyframesBase'
p298
sg15
(lp299
sg17
(lp300
sg19
(lp301
sg21
I0
sba(iArchitecture
Entity
p302
(dp303
g11
(lp304
sg13
S'android.animation.PathKeyframes$SimpleKeyframes'
p305
sg15
(lp306
sg17
(lp307
sg19
(lp308
sg21
I0
sba(iArchitecture
Entity
p309
(dp310
g11
(lp311
sg13
S'android.animation.PropertyValuesHolder'
p312
sg15
(lp313
sg17
(lp314
sg19
(lp315
sg21
I0
sba(iArchitecture
Entity
p316
(dp317
g11
(lp318
sg13
S'android.animation.PropertyValuesHolder$FloatPropertyValuesHolder'
p319
sg15
(lp320
sg17
(lp321
sg19
(lp322
sg21
I0
sba(iArchitecture
Entity
p323
(dp324
g11
(lp325
sg13
S'android.animation.PropertyValuesHolder$IntPropertyValuesHolder'
p326
sg15
(lp327
sg17
(lp328
sg19
(lp329
sg21
I0
sba(iArchitecture
Entity
p330
(dp331
g11
(lp332
sg13
S'android.animation.PropertyValuesHolder$MultiFloatValuesHolder'
p333
sg15
(lp334
sg17
(lp335
sg19
(lp336
sg21
I0
sba(iArchitecture
Entity
p337
(dp338
g11
(lp339
sg13
S'android.animation.PropertyValuesHolder$MultiIntValuesHolder'
p340
sg15
(lp341
sg17
(lp342
sg19
(lp343
sg21
I0
sba(iArchitecture
Entity
p344
(dp345
g11
(lp346
sg13
S'android.animation.PropertyValuesHolder$PointFToFloatArray'
p347
sg15
(lp348
sg17
(lp349
sg19
(lp350
sg21
I0
sba(iArchitecture
Entity
p351
(dp352
g11
(lp353
sg13
S'android.animation.PropertyValuesHolder$PointFToIntArray'
p354
sg15
(lp355
sg17
(lp356
sg19
(lp357
sg21
I0
sba(iArchitecture
Entity
p358
(dp359
g11
(lp360
sg13
S'android.animation.StateListAnimator'
p361
sg15
(lp362
sg17
(lp363
sg19
(lp364
sg21
I0
sba(iArchitecture
Entity
p365
(dp366
g11
(lp367
sg13
S'android.animation.StateListAnimator$1'
p368
sg15
(lp369
sg17
(lp370
sg19
(lp371
sg21
I0
sba(iArchitecture
Entity
p372
(dp373
g11
(lp374
sg13
S'android.animation.StateListAnimator$StateListAnimatorConstantState'
p375
sg15
(lp376
sg17
(lp377
sg19
(lp378
sg21
I0
sba(iArchitecture
Entity
p379
(dp380
g11
(lp381
sg13
S'android.animation.StateListAnimator$Tuple'
p382
sg15
(lp383
sg17
(lp384
sg19
(lp385
sg21
I0
sba(iArchitecture
Entity
p386
(dp387
g11
(lp388
sg13
S'android.animation.TimeAnimator'
p389
sg15
(lp390
sg17
(lp391
sg19
(lp392
sg21
I0
sba(iArchitecture
Entity
p393
(dp394
g11
(lp395
sg13
S'android.animation.TimeAnimator$TimeListener'
p396
sg15
(lp397
sg17
(lp398
sg19
(lp399
sg21
I0
sba(iArchitecture
Entity
p400
(dp401
g11
(lp402
sg13
S'android.animation.TypeConverter'
p403
sg15
(lp404
sg17
(lp405
sg19
(lp406
sg21
I0
sba(iArchitecture
Entity
p407
(dp408
g11
(lp409
sg13
S'android.animation.TypeEvaluator'
p410
sg15
(lp411
sg17
(lp412
sg19
(lp413
sg21
I0
sbasS'classes'
p414
(lp415
g14
ag25
ag32
ag39
ag46
ag53
ag60
ag67
ag74
ag81
ag88
ag95
ag102
ag109
ag116
ag123
ag130
ag137
ag144
ag151
ag158
ag165
ag172
ag179
ag186
ag193
ag200
ag207
ag214
ag221
ag228
ag235
ag242
ag249
ag256
ag263
ag270
ag277
ag284
ag291
ag298
ag305
ag312
ag319
ag326
ag333
ag340
ag347
ag354
ag361
ag368
ag375
ag382
ag389
ag396
ag403
ag410
asg21
I0
sS'label'
p416
S'android.animation.ss'
p417
sba(iArchitecture
Cluster
p418
(dp419
g7
(lp420
(iArchitecture
Entity
p421
(dp422
g11
(lp423
sg13
S'android.animation.PointFEvaluator'
p424
sg15
(lp425
sg17
(lp426
sg19
(lp427
sg21
I0
sbasg414
(lp428
g424
asg21
I0
sg416
S'android.app.ss'
p429
sba(iArchitecture
Cluster
p430
(dp431
g7
(lp432
(iArchitecture
Entity
p433
(dp434
g11
(lp435
sg13
S'android.animation.Animator$AnimatorPauseListener'
p436
sg15
(lp437
sg17
(lp438
sg19
(lp439
sg21
I0
sba(iArchitecture
Entity
p440
(dp441
g11
(lp442
sg13
S'android.animation.RectEvaluator'
p443
sg15
(lp444
sg17
(lp445
sg19
(lp446
sg21
I0
sbasg414
(lp447
g436
ag443
asg21
I0
sg416
S'android.transition.ss'
p448
sba(iArchitecture
Cluster
p449
(dp450
g7
(lp451
(iArchitecture
Entity
p452
(dp453
g11
(lp454
sg13
S'android.animation.RevealAnimator'
p455
sg15
(lp456
sg17
(lp457
sg19
(lp458
sg21
I0
sbasg414
(lp459
g455
asg21
I0
sg416
S'android.view.ss'
p460
sba(iArchitecture
Cluster
p461
(dp462
g7
(lp463
(iArchitecture
Entity
p464
(dp465
g11
(lp466
sg13
S'android.animation.Animator$AnimatorListener'
p467
sg15
(lp468
sg17
(lp469
sg19
(lp470
sg21
I0
sba(iArchitecture
Entity
p471
(dp472
g11
(lp473
sg13
S'android.animation.ObjectAnimator'
p474
sg15
(lp475
sg17
(lp476
sg19
(lp477
sg21
I0
sbasg414
(lp478
g467
ag474
asg21
I0
sg416
S'com.android.internal.policy.ss'
p479
sba(iArchitecture
Cluster
p480
(dp481
g7
(lp482
(iArchitecture
Entity
p483
(dp484
g11
(lp485
sg13
S'android.animation.TimeInterpolator'
p486
sg15
(lp487
sg17
(lp488
sg19
(lp489
sg21
I0
sbasg414
(lp490
g486
asg21
I0
sg416
S'com.android.internal.transition.ss'
p491
sba(iArchitecture
Cluster
p492
(dp493
g7
(lp494
(iArchitecture
Entity
p495
(dp496
g11
(lp497
sg13
S'android.animation.AnimatorListenerAdapter'
p498
sg15
(lp499
sg17
(lp500
sg19
(lp501
sg21
I0
sba(iArchitecture
Entity
p502
(dp503
g11
(lp504
sg13
S'android.animation.AnimatorSet$Builder'
p505
sg15
(lp506
sg17
(lp507
sg19
(lp508
sg21
I0
sba(iArchitecture
Entity
p509
(dp510
g11
(lp511
sg13
S'android.animation.ValueAnimator'
p512
sg15
(lp513
sg17
(lp514
sg19
(lp515
sg21
I0
sba(iArchitecture
Entity
p516
(dp517
g11
(lp518
sg13
S'android.animation.ValueAnimator$AnimationHandler'
p519
sg15
(lp520
sg17
(lp521
sg19
(lp522
sg21
I0
sba(iArchitecture
Entity
p523
(dp524
g11
(lp525
sg13
S'android.animation.ValueAnimator$AnimationHandler$1'
p526
sg15
(lp527
sg17
(lp528
sg19
(lp529
sg21
I0
sba(iArchitecture
Entity
p530
(dp531
g11
(lp532
sg13
S'android.animation.ValueAnimator$AnimationHandler$2'
p533
sg15
(lp534
sg17
(lp535
sg19
(lp536
sg21
I0
sba(iArchitecture
Entity
p537
(dp538
g11
(lp539
sg13
S'android.animation.ValueAnimator$AnimatorUpdateListener'
p540
sg15
(lp541
sg17
(lp542
sg19
(lp543
sg21
I0
sbasg414
(lp544
g498
ag505
ag512
ag519
ag526
ag533
ag540
asg21
I0
sg416
S'com.android.internal.widget.ss'
p545
sba(iArchitecture
Cluster
p546
(dp547
g7
(lp548
(iArchitecture
Entity
p549
(dp550
g11
(lp551
sg13
S'android.animation.ArgbEvaluator'
p552
sg15
(lp553
sg17
(lp554
sg19
(lp555
sg21
I0
sbasg414
(lp556
g552
asg21
I0
sg416
S'com.android.server.policy.ss'
p557
sbasS'target_sub'
p558
S'android.animation'
p559
sg414
(lp560
sS'is_component_arch'
p561
I00
sg416
S'6.0.0_r1'
p562
sba(iArchitecture
Architecture
p563
(dp564
g3
(lp565
(iArchitecture
Cluster
p566
(dp567
g7
(lp568
(iArchitecture
Entity
p569
(dp570
g11
(lp571
sg13
S'android.animation.AnimationHandler'
p572
sg15
(lp573
sg17
(lp574
sg19
(lp575
sg21
I0
sba(iArchitecture
Entity
p576
(dp577
g11
(lp578
sg13
S'android.animation.AnimationHandler$1'
p579
sg15
(lp580
sg17
(lp581
sg19
(lp582
sg21
I0
sba(iArchitecture
Entity
p583
(dp584
g11
(lp585
sg13
S'android.animation.AnimationHandler$2'
p586
sg15
(lp587
sg17
(lp588
sg19
(lp589
sg21
I0
sba(iArchitecture
Entity
p590
(dp591
g11
(lp592
sg13
S'android.animation.AnimationHandler$AnimationFrameCallback'
p593
sg15
(lp594
sg17
(lp595
sg19
(lp596
sg21
I0
sba(iArchitecture
Entity
p597
(dp598
g11
(lp599
sg13
S'android.animation.AnimationHandler$AnimationFrameCallbackProvider'
p600
sg15
(lp601
sg17
(lp602
sg19
(lp603
sg21
I0
sba(iArchitecture
Entity
p604
(dp605
g11
(lp606
sg13
S'android.animation.AnimationHandler$MyFrameCallbackProvider'
p607
sg15
(lp608
sg17
(lp609
sg19
(lp610
sg21
I0
sba(iArchitecture
Entity
p611
(dp612
g11
(lp613
sg13
S'android.animation.Animator'
p614
sg15
(lp615
sg17
(lp616
sg19
(lp617
sg21
I0
sba(iArchitecture
Entity
p618
(dp619
g11
(lp620
sg13
S'android.animation.Animator$AnimatorConstantState'
p621
sg15
(lp622
sg17
(lp623
sg19
(lp624
sg21
I0
sba(iArchitecture
Entity
p625
(dp626
g11
(lp627
sg13
S'android.animation.AnimatorInflater'
p628
sg15
(lp629
sg17
(lp630
sg19
(lp631
sg21
I0
sba(iArchitecture
Entity
p632
(dp633
g11
(lp634
sg13
S'android.animation.AnimatorInflater$PathDataEvaluator'
p635
sg15
(lp636
sg17
(lp637
sg19
(lp638
sg21
I0
sba(iArchitecture
Entity
p639
(dp640
g11
(lp641
sg13
S'android.animation.AnimatorSet'
p642
sg15
(lp643
sg17
(lp644
sg19
(lp645
sg21
I0
sba(iArchitecture
Entity
p646
(dp647
g11
(lp648
sg13
S'android.animation.AnimatorSet$AnimatorSetListener'
p649
sg15
(lp650
sg17
(lp651
sg19
(lp652
sg21
I0
sba(iArchitecture
Entity
p653
(dp654
g11
(lp655
sg13
S'android.animation.BidirectionalTypeConverter'
p656
sg15
(lp657
sg17
(lp658
sg19
(lp659
sg21
I0
sba(iArchitecture
Entity
p660
(dp661
g11
(lp662
sg13
S'android.animation.BidirectionalTypeConverter$InvertedConverter'
p663
sg15
(lp664
sg17
(lp665
sg19
(lp666
sg21
I0
sba(iArchitecture
Entity
p667
(dp668
g11
(lp669
sg13
S'android.animation.FloatArrayEvaluator'
p670
sg15
(lp671
sg17
(lp672
sg19
(lp673
sg21
I0
sba(iArchitecture
Entity
p674
(dp675
g11
(lp676
sg13
S'android.animation.FloatEvaluator'
p677
sg15
(lp678
sg17
(lp679
sg19
(lp680
sg21
I0
sba(iArchitecture
Entity
p681
(dp682
g11
(lp683
sg13
S'android.animation.FloatKeyframeSet'
p684
sg15
(lp685
sg17
(lp686
sg19
(lp687
sg21
I0
sba(iArchitecture
Entity
p688
(dp689
g11
(lp690
sg13
S'android.animation.IntArrayEvaluator'
p691
sg15
(lp692
sg17
(lp693
sg19
(lp694
sg21
I0
sba(iArchitecture
Entity
p695
(dp696
g11
(lp697
sg13
S'android.animation.IntEvaluator'
p698
sg15
(lp699
sg17
(lp700
sg19
(lp701
sg21
I0
sba(iArchitecture
Entity
p702
(dp703
g11
(lp704
sg13
S'android.animation.IntKeyframeSet'
p705
sg15
(lp706
sg17
(lp707
sg19
(lp708
sg21
I0
sba(iArchitecture
Entity
p709
(dp710
g11
(lp711
sg13
S'android.animation.Keyframe'
p712
sg15
(lp713
sg17
(lp714
sg19
(lp715
sg21
I0
sba(iArchitecture
Entity
p716
(dp717
g11
(lp718
sg13
S'android.animation.Keyframe$FloatKeyframe'
p719
sg15
(lp720
sg17
(lp721
sg19
(lp722
sg21
I0
sba(iArchitecture
Entity
p723
(dp724
g11
(lp725
sg13
S'android.animation.Keyframe$IntKeyframe'
p726
sg15
(lp727
sg17
(lp728
sg19
(lp729
sg21
I0
sba(iArchitecture
Entity
p730
(dp731
g11
(lp732
sg13
S'android.animation.Keyframe$ObjectKeyframe'
p733
sg15
(lp734
sg17
(lp735
sg19
(lp736
sg21
I0
sba(iArchitecture
Entity
p737
(dp738
g11
(lp739
sg13
S'android.animation.KeyframeSet'
p740
sg15
(lp741
sg17
(lp742
sg19
(lp743
sg21
I0
sba(iArchitecture
Entity
p744
(dp745
g11
(lp746
sg13
S'android.animation.Keyframes'
p747
sg15
(lp748
sg17
(lp749
sg19
(lp750
sg21
I0
sba(iArchitecture
Entity
p751
(dp752
g11
(lp753
sg13
S'android.animation.Keyframes$FloatKeyframes'
p754
sg15
(lp755
sg17
(lp756
sg19
(lp757
sg21
I0
sba(iArchitecture
Entity
p758
(dp759
g11
(lp760
sg13
S'android.animation.Keyframes$IntKeyframes'
p761
sg15
(lp762
sg17
(lp763
sg19
(lp764
sg21
I0
sba(iArchitecture
Entity
p765
(dp766
g11
(lp767
sg13
S'android.animation.LayoutTransition'
p768
sg15
(lp769
sg17
(lp770
sg19
(lp771
sg21
I0
sba(iArchitecture
Entity
p772
(dp773
g11
(lp774
sg13
S'android.animation.LayoutTransition$1'
p775
sg15
(lp776
sg17
(lp777
sg19
(lp778
sg21
I0
sba(iArchitecture
Entity
p779
(dp780
g11
(lp781
sg13
S'android.animation.LayoutTransition$2'
p782
sg15
(lp783
sg17
(lp784
sg19
(lp785
sg21
I0
sba(iArchitecture
Entity
p786
(dp787
g11
(lp788
sg13
S'android.animation.LayoutTransition$3'
p789
sg15
(lp790
sg17
(lp791
sg19
(lp792
sg21
I0
sba(iArchitecture
Entity
p793
(dp794
g11
(lp795
sg13
S'android.animation.LayoutTransition$4'
p796
sg15
(lp797
sg17
(lp798
sg19
(lp799
sg21
I0
sba(iArchitecture
Entity
p800
(dp801
g11
(lp802
sg13
S'android.animation.LayoutTransition$5'
p803
sg15
(lp804
sg17
(lp805
sg19
(lp806
sg21
I0
sba(iArchitecture
Entity
p807
(dp808
g11
(lp809
sg13
S'android.animation.LayoutTransition$CleanupCallback'
p810
sg15
(lp811
sg17
(lp812
sg19
(lp813
sg21
I0
sba(iArchitecture
Entity
p814
(dp815
g11
(lp816
sg13
S'android.animation.LayoutTransition$TransitionListener'
p817
sg15
(lp818
sg17
(lp819
sg19
(lp820
sg21
I0
sba(iArchitecture
Entity
p821
(dp822
g11
(lp823
sg13
S'android.animation.PathKeyframes'
p824
sg15
(lp825
sg17
(lp826
sg19
(lp827
sg21
I0
sba(iArchitecture
Entity
p828
(dp829
g11
(lp830
sg13
S'android.animation.PathKeyframes$1'
p831
sg15
(lp832
sg17
(lp833
sg19
(lp834
sg21
I0
sba(iArchitecture
Entity
p835
(dp836
g11
(lp837
sg13
S'android.animation.PathKeyframes$2'
p838
sg15
(lp839
sg17
(lp840
sg19
(lp841
sg21
I0
sba(iArchitecture
Entity
p842
(dp843
g11
(lp844
sg13
S'android.animation.PathKeyframes$3'
p845
sg15
(lp846
sg17
(lp847
sg19
(lp848
sg21
I0
sba(iArchitecture
Entity
p849
(dp850
g11
(lp851
sg13
S'android.animation.PathKeyframes$4'
p852
sg15
(lp853
sg17
(lp854
sg19
(lp855
sg21
I0
sba(iArchitecture
Entity
p856
(dp857
g11
(lp858
sg13
S'android.animation.PathKeyframes$FloatKeyframesBase'
p859
sg15
(lp860
sg17
(lp861
sg19
(lp862
sg21
I0
sba(iArchitecture
Entity
p863
(dp864
g11
(lp865
sg13
S'android.animation.PathKeyframes$IntKeyframesBase'
p866
sg15
(lp867
sg17
(lp868
sg19
(lp869
sg21
I0
sba(iArchitecture
Entity
p870
(dp871
g11
(lp872
sg13
S'android.animation.PathKeyframes$SimpleKeyframes'
p873
sg15
(lp874
sg17
(lp875
sg19
(lp876
sg21
I0
sba(iArchitecture
Entity
p877
(dp878
g11
(lp879
sg13
S'android.animation.PropertyValuesHolder'
p880
sg15
(lp881
sg17
(lp882
sg19
(lp883
sg21
I0
sba(iArchitecture
Entity
p884
(dp885
g11
(lp886
sg13
S'android.animation.PropertyValuesHolder$1'
p887
sg15
(lp888
sg17
(lp889
sg19
(lp890
sg21
I0
sba(iArchitecture
Entity
p891
(dp892
g11
(lp893
sg13
S'android.animation.PropertyValuesHolder$FloatPropertyValuesHolder'
p894
sg15
(lp895
sg17
(lp896
sg19
(lp897
sg21
I0
sba(iArchitecture
Entity
p898
(dp899
g11
(lp900
sg13
S'android.animation.PropertyValuesHolder$IntPropertyValuesHolder'
p901
sg15
(lp902
sg17
(lp903
sg19
(lp904
sg21
I0
sba(iArchitecture
Entity
p905
(dp906
g11
(lp907
sg13
S'android.animation.PropertyValuesHolder$MultiFloatValuesHolder'
p908
sg15
(lp909
sg17
(lp910
sg19
(lp911
sg21
I0
sba(iArchitecture
Entity
p912
(dp913
g11
(lp914
sg13
S'android.animation.PropertyValuesHolder$MultiIntValuesHolder'
p915
sg15
(lp916
sg17
(lp917
sg19
(lp918
sg21
I0
sba(iArchitecture
Entity
p919
(dp920
g11
(lp921
sg13
S'android.animation.PropertyValuesHolder$PointFToFloatArray'
p922
sg15
(lp923
sg17
(lp924
sg19
(lp925
sg21
I0
sba(iArchitecture
Entity
p926
(dp927
g11
(lp928
sg13
S'android.animation.PropertyValuesHolder$PointFToIntArray'
p929
sg15
(lp930
sg17
(lp931
sg19
(lp932
sg21
I0
sba(iArchitecture
Entity
p933
(dp934
g11
(lp935
sg13
S'android.animation.PropertyValuesHolder$PropertyValues'
p936
sg15
(lp937
sg17
(lp938
sg19
(lp939
sg21
I0
sba(iArchitecture
Entity
p940
(dp941
g11
(lp942
sg13
S'android.animation.PropertyValuesHolder$PropertyValues$DataSource'
p943
sg15
(lp944
sg17
(lp945
sg19
(lp946
sg21
I0
sba(iArchitecture
Entity
p947
(dp948
g11
(lp949
sg13
S'android.animation.StateListAnimator'
p950
sg15
(lp951
sg17
(lp952
sg19
(lp953
sg21
I0
sba(iArchitecture
Entity
p954
(dp955
g11
(lp956
sg13
S'android.animation.StateListAnimator$1'
p957
sg15
(lp958
sg17
(lp959
sg19
(lp960
sg21
I0
sba(iArchitecture
Entity
p961
(dp962
g11
(lp963
sg13
S'android.animation.StateListAnimator$StateListAnimatorConstantState'
p964
sg15
(lp965
sg17
(lp966
sg19
(lp967
sg21
I0
sba(iArchitecture
Entity
p968
(dp969
g11
(lp970
sg13
S'android.animation.StateListAnimator$Tuple'
p971
sg15
(lp972
sg17
(lp973
sg19
(lp974
sg21
I0
sba(iArchitecture
Entity
p975
(dp976
g11
(lp977
sg13
S'android.animation.TimeAnimator'
p978
sg15
(lp979
sg17
(lp980
sg19
(lp981
sg21
I0
sba(iArchitecture
Entity
p982
(dp983
g11
(lp984
sg13
S'android.animation.TimeAnimator$TimeListener'
p985
sg15
(lp986
sg17
(lp987
sg19
(lp988
sg21
I0
sba(iArchitecture
Entity
p989
(dp990
g11
(lp991
sg13
S'android.animation.TypeConverter'
p992
sg15
(lp993
sg17
(lp994
sg19
(lp995
sg21
I0
sba(iArchitecture
Entity
p996
(dp997
g11
(lp998
sg13
S'android.animation.TypeEvaluator'
p999
sg15
(lp1000
sg17
(lp1001
sg19
(lp1002
sg21
I0
sbasg414
(lp1003
g572
ag579
ag586
ag593
ag600
ag607
ag614
ag621
ag628
ag635
ag642
ag649
ag656
ag663
ag670
ag677
ag684
ag691
ag698
ag705
ag712
ag719
ag726
ag733
ag740
ag747
ag754
ag761
ag768
ag775
ag782
ag789
ag796
ag803
ag810
ag817
ag824
ag831
ag838
ag845
ag852
ag859
ag866
ag873
ag880
ag887
ag894
ag901
ag908
ag915
ag922
ag929
ag936
ag943
ag950
ag957
ag964
ag971
ag978
ag985
ag992
ag999
asg21
I0
sg416
S'android.animation.ss'
p1004
sba(iArchitecture
Cluster
p1005
(dp1006
g7
(lp1007
(iArchitecture
Entity
p1008
(dp1009
g11
(lp1010
sg13
S'android.animation.PointFEvaluator'
p1011
sg15
(lp1012
sg17
(lp1013
sg19
(lp1014
sg21
I0
sbasg414
(lp1015
g1011
asg21
I0
sg416
S'android.app.ss'
p1016
sba(iArchitecture
Cluster
p1017
(dp1018
g7
(lp1019
(iArchitecture
Entity
p1020
(dp1021
g11
(lp1022
sg13
S'android.animation.Animator$AnimatorPauseListener'
p1023
sg15
(lp1024
sg17
(lp1025
sg19
(lp1026
sg21
I0
sba(iArchitecture
Entity
p1027
(dp1028
g11
(lp1029
sg13
S'android.animation.RectEvaluator'
p1030
sg15
(lp1031
sg17
(lp1032
sg19
(lp1033
sg21
I0
sbasg414
(lp1034
g1023
ag1030
asg21
I0
sg416
S'android.transition.ss'
p1035
sba(iArchitecture
Cluster
p1036
(dp1037
g7
(lp1038
(iArchitecture
Entity
p1039
(dp1040
g11
(lp1041
sg13
S'android.animation.RevealAnimator'
p1042
sg15
(lp1043
sg17
(lp1044
sg19
(lp1045
sg21
I0
sbasg414
(lp1046
g1042
asg21
I0
sg416
S'android.view.ss'
p1047
sba(iArchitecture
Cluster
p1048
(dp1049
g7
(lp1050
(iArchitecture
Entity
p1051
(dp1052
g11
(lp1053
sg13
S'android.animation.Animator$AnimatorListener'
p1054
sg15
(lp1055
sg17
(lp1056
sg19
(lp1057
sg21
I0
sba(iArchitecture
Entity
p1058
(dp1059
g11
(lp1060
sg13
S'android.animation.ObjectAnimator'
p1061
sg15
(lp1062
sg17
(lp1063
sg19
(lp1064
sg21
I0
sbasg414
(lp1065
g1054
ag1061
asg21
I0
sg416
S'com.android.internal.policy.ss'
p1066
sba(iArchitecture
Cluster
p1067
(dp1068
g7
(lp1069
(iArchitecture
Entity
p1070
(dp1071
g11
(lp1072
sg13
S'android.animation.TimeInterpolator'
p1073
sg15
(lp1074
sg17
(lp1075
sg19
(lp1076
sg21
I0
sbasg414
(lp1077
g1073
asg21
I0
sg416
S'com.android.internal.transition.ss'
p1078
sba(iArchitecture
Cluster
p1079
(dp1080
g7
(lp1081
(iArchitecture
Entity
p1082
(dp1083
g11
(lp1084
sg13
S'android.animation.AnimatorListenerAdapter'
p1085
sg15
(lp1086
sg17
(lp1087
sg19
(lp1088
sg21
I0
sba(iArchitecture
Entity
p1089
(dp1090
g11
(lp1091
sg13
S'android.animation.AnimatorSet$Builder'
p1092
sg15
(lp1093
sg17
(lp1094
sg19
(lp1095
sg21
I0
sba(iArchitecture
Entity
p1096
(dp1097
g11
(lp1098
sg13
S'android.animation.AnimatorSet$Node'
p1099
sg15
(lp1100
sg17
(lp1101
sg19
(lp1102
sg21
I0
sba(iArchitecture
Entity
p1103
(dp1104
g11
(lp1105
sg13
S'android.animation.ValueAnimator'
p1106
sg15
(lp1107
sg17
(lp1108
sg19
(lp1109
sg21
I0
sba(iArchitecture
Entity
p1110
(dp1111
g11
(lp1112
sg13
S'android.animation.ValueAnimator$AnimatorUpdateListener'
p1113
sg15
(lp1114
sg17
(lp1115
sg19
(lp1116
sg21
I0
sbasg414
(lp1117
g1085
ag1092
ag1099
ag1106
ag1113
asg21
I0
sg416
S'com.android.internal.widget.ss'
p1118
sba(iArchitecture
Cluster
p1119
(dp1120
g7
(lp1121
(iArchitecture
Entity
p1122
(dp1123
g11
(lp1124
sg13
S'android.animation.ArgbEvaluator'
p1125
sg15
(lp1126
sg17
(lp1127
sg19
(lp1128
sg21
I0
sbasg414
(lp1129
g1125
asg21
I0
sg416
S'com.android.server.policy.ss'
p1130
sbasg558
g559
sg414
(lp1131
sg561
I00
sg416
S'7.0.0_r1'
p1132
sba.