(lp0
(iArchitecture
Architecture
p1
(dp2
S'clusters'
p3
(lp4
(iArchitecture
Cluster
p5
(dp6
S'entities'
p7
(lp8
(iArchitecture
Entity
p9
(dp10
S'issue_ids'
p11
(lp12
sS'name'
p13
S'com.android.server.voiceinteraction.DatabaseHelper'
p14
sS'descs'
p15
(lp16
sS'labels'
p17
(lp18
sS'titles'
p19
(lp20
sS'change'
p21
I0
sba(iArchitecture
Entity
p22
(dp23
g11
(lp24
sg13
S'com.android.server.voiceinteraction.DatabaseHelper$SoundModelContract'
p25
sg15
(lp26
sg17
(lp27
sg19
(lp28
sg21
I0
sba(iArchitecture
Entity
p29
(dp30
g11
(lp31
sg13
S'com.android.server.voiceinteraction.SoundTriggerHelper'
p32
sg15
(lp33
sg17
(lp34
sg19
(lp35
sg21
I0
sba(iArchitecture
Entity
p36
(dp37
g11
(lp38
sg13
S'com.android.server.voiceinteraction.SoundTriggerHelper$MyCallStateListener'
p39
sg15
(lp40
sg17
(lp41
sg19
(lp42
sg21
I0
sba(iArchitecture
Entity
p43
(dp44
g11
(lp45
sg13
S'com.android.server.voiceinteraction.SoundTriggerHelper$PowerSaveModeListener'
p46
sg15
(lp47
sg17
(lp48
sg19
(lp49
sg21
I0
sba(iArchitecture
Entity
p50
(dp51
g11
(lp52
sg13
S'com.android.server.voiceinteraction.VoiceInteractionManagerService'
p53
sg15
(lp54
sg17
(lp55
sg19
(lp56
sg21
I0
sba(iArchitecture
Entity
p57
(dp58
g11
(lp59
sg13
S'com.android.server.voiceinteraction.VoiceInteractionManagerService$1'
p60
sg15
(lp61
sg17
(lp62
sg19
(lp63
sg21
I0
sba(iArchitecture
Entity
p64
(dp65
g11
(lp66
sg13
S'com.android.server.voiceinteraction.VoiceInteractionManagerService$VoiceInteractionManagerServiceStub'
p67
sg15
(lp68
sg17
(lp69
sg19
(lp70
sg21
I0
sba(iArchitecture
Entity
p71
(dp72
g11
(lp73
sg13
S'com.android.server.voiceinteraction.VoiceInteractionManagerService$VoiceInteractionManagerServiceStub$1'
p74
sg15
(lp75
sg17
(lp76
sg19
(lp77
sg21
I0
sba(iArchitecture
Entity
p78
(dp79
g11
(lp80
sg13
S'com.android.server.voiceinteraction.VoiceInteractionManagerService$VoiceInteractionManagerServiceStub$SettingsObserver'
p81
sg15
(lp82
sg17
(lp83
sg19
(lp84
sg21
I0
sba(iArchitecture
Entity
p85
(dp86
g11
(lp87
sg13
S'com.android.server.voiceinteraction.VoiceInteractionManagerServiceImpl'
p88
sg15
(lp89
sg17
(lp90
sg19
(lp91
sg21
I0
sba(iArchitecture
Entity
p92
(dp93
g11
(lp94
sg13
S'com.android.server.voiceinteraction.VoiceInteractionManagerServiceImpl$1'
p95
sg15
(lp96
sg17
(lp97
sg19
(lp98
sg21
I0
sba(iArchitecture
Entity
p99
(dp100
g11
(lp101
sg13
S'com.android.server.voiceinteraction.VoiceInteractionManagerServiceImpl$2'
p102
sg15
(lp103
sg17
(lp104
sg19
(lp105
sg21
I0
sba(iArchitecture
Entity
p106
(dp107
g11
(lp108
sg13
S'com.android.server.voiceinteraction.VoiceInteractionSessionConnection'
p109
sg15
(lp110
sg17
(lp111
sg19
(lp112
sg21
I0
sba(iArchitecture
Entity
p113
(dp114
g11
(lp115
sg13
S'com.android.server.voiceinteraction.VoiceInteractionSessionConnection$1'
p116
sg15
(lp117
sg17
(lp118
sg19
(lp119
sg21
I0
sba(iArchitecture
Entity
p120
(dp121
g11
(lp122
sg13
S'com.android.server.voiceinteraction.VoiceInteractionSessionConnection$2'
p123
sg15
(lp124
sg17
(lp125
sg19
(lp126
sg21
I0
sba(iArchitecture
Entity
p127
(dp128
g11
(lp129
sg13
S'com.android.server.voiceinteraction.VoiceInteractionSessionConnection$3'
p130
sg15
(lp131
sg17
(lp132
sg19
(lp133
sg21
I0
sba(iArchitecture
Entity
p134
(dp135
g11
(lp136
sg13
S'com.android.server.voiceinteraction.VoiceInteractionSessionConnection$4'
p137
sg15
(lp138
sg17
(lp139
sg19
(lp140
sg21
I0
sba(iArchitecture
Entity
p141
(dp142
g11
(lp143
sg13
S'com.android.server.voiceinteraction.VoiceInteractionSessionConnection$5'
p144
sg15
(lp145
sg17
(lp146
sg19
(lp147
sg21
I0
sba(iArchitecture
Entity
p148
(dp149
g11
(lp150
sg13
S'com.android.server.voiceinteraction.VoiceInteractionSessionConnection$Callback'
p151
sg15
(lp152
sg17
(lp153
sg19
(lp154
sg21
I0
sbasS'classes'
p155
(lp156
g14
ag25
ag32
ag39
ag46
ag53
ag60
ag67
ag74
ag81
ag88
ag95
ag102
ag109
ag116
ag123
ag130
ag137
ag144
ag151
asg21
I0
sS'label'
p157
S'com.android.server.voiceinteraction.ss'
p158
sbasS'target_sub'
p159
S'com.android.server.voiceinteraction'
p160
sg155
(lp161
sS'is_component_arch'
p162
I00
sg157
S'6.0.0_r1'
p163
sba(iArchitecture
Architecture
p164
(dp165
g3
(lp166
(iArchitecture
Cluster
p167
(dp168
g7
(lp169
(iArchitecture
Entity
p170
(dp171
g11
(lp172
sg13
S'com.android.server.voiceinteraction.DatabaseHelper'
p173
sg15
(lp174
sg17
(lp175
sg19
(lp176
sg21
I0
sba(iArchitecture
Entity
p177
(dp178
g11
(lp179
sg13
S'com.android.server.voiceinteraction.DatabaseHelper$SoundModelContract'
p180
sg15
(lp181
sg17
(lp182
sg19
(lp183
sg21
I0
sba(iArchitecture
Entity
p184
(dp185
g11
(lp186
sg13
S'com.android.server.voiceinteraction.VoiceInteractionManagerService'
p187
sg15
(lp188
sg17
(lp189
sg19
(lp190
sg21
I0
sba(iArchitecture
Entity
p191
(dp192
g11
(lp193
sg13
S'com.android.server.voiceinteraction.VoiceInteractionManagerService$1'
p194
sg15
(lp195
sg17
(lp196
sg19
(lp197
sg21
I0
sba(iArchitecture
Entity
p198
(dp199
g11
(lp200
sg13
S'com.android.server.voiceinteraction.VoiceInteractionManagerService$LocalService'
p201
sg15
(lp202
sg17
(lp203
sg19
(lp204
sg21
I0
sba(iArchitecture
Entity
p205
(dp206
g11
(lp207
sg13
S'com.android.server.voiceinteraction.VoiceInteractionManagerService$VoiceInteractionManagerServiceStub'
p208
sg15
(lp209
sg17
(lp210
sg19
(lp211
sg21
I0
sba(iArchitecture
Entity
p212
(dp213
g11
(lp214
sg13
S'com.android.server.voiceinteraction.VoiceInteractionManagerService$VoiceInteractionManagerServiceStub$1'
p215
sg15
(lp216
sg17
(lp217
sg19
(lp218
sg21
I0
sba(iArchitecture
Entity
p219
(dp220
g11
(lp221
sg13
S'com.android.server.voiceinteraction.VoiceInteractionManagerService$VoiceInteractionManagerServiceStub$2'
p222
sg15
(lp223
sg17
(lp224
sg19
(lp225
sg21
I0
sba(iArchitecture
Entity
p226
(dp227
g11
(lp228
sg13
S'com.android.server.voiceinteraction.VoiceInteractionManagerService$VoiceInteractionManagerServiceStub$SettingsObserver'
p229
sg15
(lp230
sg17
(lp231
sg19
(lp232
sg21
I0
sba(iArchitecture
Entity
p233
(dp234
g11
(lp235
sg13
S'com.android.server.voiceinteraction.VoiceInteractionManagerServiceImpl'
p236
sg15
(lp237
sg17
(lp238
sg19
(lp239
sg21
I0
sba(iArchitecture
Entity
p240
(dp241
g11
(lp242
sg13
S'com.android.server.voiceinteraction.VoiceInteractionManagerServiceImpl$1'
p243
sg15
(lp244
sg17
(lp245
sg19
(lp246
sg21
I0
sba(iArchitecture
Entity
p247
(dp248
g11
(lp249
sg13
S'com.android.server.voiceinteraction.VoiceInteractionManagerServiceImpl$2'
p250
sg15
(lp251
sg17
(lp252
sg19
(lp253
sg21
I0
sba(iArchitecture
Entity
p254
(dp255
g11
(lp256
sg13
S'com.android.server.voiceinteraction.VoiceInteractionSessionConnection'
p257
sg15
(lp258
sg17
(lp259
sg19
(lp260
sg21
I0
sba(iArchitecture
Entity
p261
(dp262
g11
(lp263
sg13
S'com.android.server.voiceinteraction.VoiceInteractionSessionConnection$1'
p264
sg15
(lp265
sg17
(lp266
sg19
(lp267
sg21
I0
sba(iArchitecture
Entity
p268
(dp269
g11
(lp270
sg13
S'com.android.server.voiceinteraction.VoiceInteractionSessionConnection$2'
p271
sg15
(lp272
sg17
(lp273
sg19
(lp274
sg21
I0
sba(iArchitecture
Entity
p275
(dp276
g11
(lp277
sg13
S'com.android.server.voiceinteraction.VoiceInteractionSessionConnection$3'
p278
sg15
(lp279
sg17
(lp280
sg19
(lp281
sg21
I0
sba(iArchitecture
Entity
p282
(dp283
g11
(lp284
sg13
S'com.android.server.voiceinteraction.VoiceInteractionSessionConnection$4'
p285
sg15
(lp286
sg17
(lp287
sg19
(lp288
sg21
I0
sba(iArchitecture
Entity
p289
(dp290
g11
(lp291
sg13
S'com.android.server.voiceinteraction.VoiceInteractionSessionConnection$5'
p292
sg15
(lp293
sg17
(lp294
sg19
(lp295
sg21
I0
sba(iArchitecture
Entity
p296
(dp297
g11
(lp298
sg13
S'com.android.server.voiceinteraction.VoiceInteractionSessionConnection$AssistDataForActivity'
p299
sg15
(lp300
sg17
(lp301
sg19
(lp302
sg21
I0
sba(iArchitecture
Entity
p303
(dp304
g11
(lp305
sg13
S'com.android.server.voiceinteraction.VoiceInteractionSessionConnection$Callback'
p306
sg15
(lp307
sg17
(lp308
sg19
(lp309
sg21
I0
sbasg155
(lp310
g173
ag180
ag187
ag194
ag201
ag208
ag215
ag222
ag229
ag236
ag243
ag250
ag257
ag264
ag271
ag278
ag285
ag292
ag299
ag306
asg21
I0
sg157
S'com.android.server.voiceinteraction.ss'
p311
sbasg159
g160
sg155
(lp312
sg162
I00
sg157
S'7.0.0_r1'
p313
sba.