(lp0
(iArchitecture
Architecture
p1
(dp2
S'clusters'
p3
(lp4
(iArchitecture
Cluster
p5
(dp6
S'entities'
p7
(lp8
(iArchitecture
Entity
p9
(dp10
S'issue_ids'
p11
(lp12
sS'name'
p13
S'android.service.persistentdata.IPersistentDataBlockService'
p14
sS'descs'
p15
(lp16
sS'labels'
p17
(lp18
sS'titles'
p19
(lp20
sS'change'
p21
I0
sba(iArchitecture
Entity
p22
(dp23
g11
(lp24
sg13
S'android.service.persistentdata.IPersistentDataBlockService$Stub'
p25
sg15
(lp26
sg17
(lp27
sg19
(lp28
sg21
I0
sba(iArchitecture
Entity
p29
(dp30
g11
(lp31
sg13
S'android.service.persistentdata.IPersistentDataBlockService$Stub$Proxy'
p32
sg15
(lp33
sg17
(lp34
sg19
(lp35
sg21
I0
sba(iArchitecture
Entity
p36
(dp37
g11
(lp38
sg13
S'android.service.persistentdata.PersistentDataBlockManager'
p39
sg15
(lp40
sg17
(lp41
sg19
(lp42
sg21
I0
sba(iArchitecture
Entity
p43
(dp44
g11
(lp45
sg13
S'android.service.restrictions.RestrictionsReceiver'
p46
sg15
(lp47
sg17
(lp48
sg19
(lp49
sg21
I0
sbasS'classes'
p50
(lp51
g14
ag25
ag32
ag39
ag46
asg21
I0
sS'label'
p52
S'android.app.ss'
p53
sba(iArchitecture
Cluster
p54
(dp55
g7
(lp56
(iArchitecture
Entity
p57
(dp58
g11
(lp59
sg13
S'android.service.media.IMediaBrowserService'
p60
sg15
(lp61
sg17
(lp62
sg19
(lp63
sg21
I0
sba(iArchitecture
Entity
p64
(dp65
g11
(lp66
sg13
S'android.service.media.IMediaBrowserService$Stub'
p67
sg15
(lp68
sg17
(lp69
sg19
(lp70
sg21
I0
sba(iArchitecture
Entity
p71
(dp72
g11
(lp73
sg13
S'android.service.media.IMediaBrowserService$Stub$Proxy'
p74
sg15
(lp75
sg17
(lp76
sg19
(lp77
sg21
I0
sba(iArchitecture
Entity
p78
(dp79
g11
(lp80
sg13
S'android.service.media.IMediaBrowserServiceCallbacks$Stub'
p81
sg15
(lp82
sg17
(lp83
sg19
(lp84
sg21
I0
sba(iArchitecture
Entity
p85
(dp86
g11
(lp87
sg13
S'android.service.media.IMediaBrowserServiceCallbacks$Stub$Proxy'
p88
sg15
(lp89
sg17
(lp90
sg19
(lp91
sg21
I0
sbasg50
(lp92
g60
ag67
ag74
ag81
ag88
asg21
I0
sg52
S'android.media.browse.ss'
p93
sba(iArchitecture
Cluster
p94
(dp95
g7
(lp96
(iArchitecture
Entity
p97
(dp98
g11
(lp99
sg13
S'android.service.carrier.CarrierIdentifier'
p100
sg15
(lp101
sg17
(lp102
sg19
(lp103
sg21
I0
sba(iArchitecture
Entity
p104
(dp105
g11
(lp106
sg13
S'android.service.carrier.CarrierIdentifier$1'
p107
sg15
(lp108
sg17
(lp109
sg19
(lp110
sg21
I0
sba(iArchitecture
Entity
p111
(dp112
g11
(lp113
sg13
S'android.service.carrier.CarrierMessagingService'
p114
sg15
(lp115
sg17
(lp116
sg19
(lp117
sg21
I0
sba(iArchitecture
Entity
p118
(dp119
g11
(lp120
sg13
S'android.service.carrier.CarrierMessagingService$ICarrierMessagingWrapper'
p121
sg15
(lp122
sg17
(lp123
sg19
(lp124
sg21
I0
sba(iArchitecture
Entity
p125
(dp126
g11
(lp127
sg13
S'android.service.carrier.CarrierMessagingService$ICarrierMessagingWrapper$1'
p128
sg15
(lp129
sg17
(lp130
sg19
(lp131
sg21
I0
sba(iArchitecture
Entity
p132
(dp133
g11
(lp134
sg13
S'android.service.carrier.CarrierMessagingService$ICarrierMessagingWrapper$2'
p135
sg15
(lp136
sg17
(lp137
sg19
(lp138
sg21
I0
sba(iArchitecture
Entity
p139
(dp140
g11
(lp141
sg13
S'android.service.carrier.CarrierMessagingService$ICarrierMessagingWrapper$3'
p142
sg15
(lp143
sg17
(lp144
sg19
(lp145
sg21
I0
sba(iArchitecture
Entity
p146
(dp147
g11
(lp148
sg13
S'android.service.carrier.CarrierMessagingService$ICarrierMessagingWrapper$4'
p149
sg15
(lp150
sg17
(lp151
sg19
(lp152
sg21
I0
sba(iArchitecture
Entity
p153
(dp154
g11
(lp155
sg13
S'android.service.carrier.CarrierMessagingService$ICarrierMessagingWrapper$5'
p156
sg15
(lp157
sg17
(lp158
sg19
(lp159
sg21
I0
sba(iArchitecture
Entity
p160
(dp161
g11
(lp162
sg13
S'android.service.carrier.CarrierMessagingService$ICarrierMessagingWrapper$6'
p163
sg15
(lp164
sg17
(lp165
sg19
(lp166
sg21
I0
sba(iArchitecture
Entity
p167
(dp168
g11
(lp169
sg13
S'android.service.carrier.CarrierMessagingService$ResultCallback'
p170
sg15
(lp171
sg17
(lp172
sg19
(lp173
sg21
I0
sba(iArchitecture
Entity
p174
(dp175
g11
(lp176
sg13
S'android.service.carrier.CarrierMessagingService$SendMmsResult'
p177
sg15
(lp178
sg17
(lp179
sg19
(lp180
sg21
I0
sba(iArchitecture
Entity
p181
(dp182
g11
(lp183
sg13
S'android.service.carrier.CarrierMessagingService$SendMultipartSmsResult'
p184
sg15
(lp185
sg17
(lp186
sg19
(lp187
sg21
I0
sba(iArchitecture
Entity
p188
(dp189
g11
(lp190
sg13
S'android.service.carrier.CarrierMessagingService$SendSmsResult'
p191
sg15
(lp192
sg17
(lp193
sg19
(lp194
sg21
I0
sba(iArchitecture
Entity
p195
(dp196
g11
(lp197
sg13
S'android.service.carrier.CarrierService'
p198
sg15
(lp199
sg17
(lp200
sg19
(lp201
sg21
I0
sba(iArchitecture
Entity
p202
(dp203
g11
(lp204
sg13
S'android.service.carrier.CarrierService$ICarrierServiceWrapper'
p205
sg15
(lp206
sg17
(lp207
sg19
(lp208
sg21
I0
sba(iArchitecture
Entity
p209
(dp210
g11
(lp211
sg13
S'android.service.carrier.ICarrierMessagingCallback'
p212
sg15
(lp213
sg17
(lp214
sg19
(lp215
sg21
I0
sba(iArchitecture
Entity
p216
(dp217
g11
(lp218
sg13
S'android.service.carrier.ICarrierMessagingCallback$Stub'
p219
sg15
(lp220
sg17
(lp221
sg19
(lp222
sg21
I0
sba(iArchitecture
Entity
p223
(dp224
g11
(lp225
sg13
S'android.service.carrier.ICarrierMessagingCallback$Stub$Proxy'
p226
sg15
(lp227
sg17
(lp228
sg19
(lp229
sg21
I0
sba(iArchitecture
Entity
p230
(dp231
g11
(lp232
sg13
S'android.service.carrier.ICarrierMessagingService'
p233
sg15
(lp234
sg17
(lp235
sg19
(lp236
sg21
I0
sba(iArchitecture
Entity
p237
(dp238
g11
(lp239
sg13
S'android.service.carrier.ICarrierMessagingService$Stub'
p240
sg15
(lp241
sg17
(lp242
sg19
(lp243
sg21
I0
sba(iArchitecture
Entity
p244
(dp245
g11
(lp246
sg13
S'android.service.carrier.ICarrierMessagingService$Stub$Proxy'
p247
sg15
(lp248
sg17
(lp249
sg19
(lp250
sg21
I0
sba(iArchitecture
Entity
p251
(dp252
g11
(lp253
sg13
S'android.service.carrier.ICarrierService'
p254
sg15
(lp255
sg17
(lp256
sg19
(lp257
sg21
I0
sba(iArchitecture
Entity
p258
(dp259
g11
(lp260
sg13
S'android.service.carrier.ICarrierService$Stub'
p261
sg15
(lp262
sg17
(lp263
sg19
(lp264
sg21
I0
sba(iArchitecture
Entity
p265
(dp266
g11
(lp267
sg13
S'android.service.carrier.ICarrierService$Stub$Proxy'
p268
sg15
(lp269
sg17
(lp270
sg19
(lp271
sg21
I0
sba(iArchitecture
Entity
p272
(dp273
g11
(lp274
sg13
S'android.service.carrier.MessagePdu'
p275
sg15
(lp276
sg17
(lp277
sg19
(lp278
sg21
I0
sba(iArchitecture
Entity
p279
(dp280
g11
(lp281
sg13
S'android.service.carrier.MessagePdu$1'
p282
sg15
(lp283
sg17
(lp284
sg19
(lp285
sg21
I0
sbasg50
(lp286
g100
ag107
ag114
ag121
ag128
ag135
ag142
ag149
ag156
ag163
ag170
ag177
ag184
ag191
ag198
ag205
ag212
ag219
ag226
ag233
ag240
ag247
ag254
ag261
ag268
ag275
ag282
asg21
I0
sg52
S'android.service.carrier.ss'
p287
sba(iArchitecture
Cluster
p288
(dp289
g7
(lp290
(iArchitecture
Entity
p291
(dp292
g11
(lp293
sg13
S'android.service.chooser.ChooserTarget'
p294
sg15
(lp295
sg17
(lp296
sg19
(lp297
sg21
I0
sba(iArchitecture
Entity
p298
(dp299
g11
(lp300
sg13
S'android.service.chooser.ChooserTarget$1'
p301
sg15
(lp302
sg17
(lp303
sg19
(lp304
sg21
I0
sba(iArchitecture
Entity
p305
(dp306
g11
(lp307
sg13
S'android.service.chooser.ChooserTargetService'
p308
sg15
(lp309
sg17
(lp310
sg19
(lp311
sg21
I0
sba(iArchitecture
Entity
p312
(dp313
g11
(lp314
sg13
S'android.service.chooser.ChooserTargetService$IChooserTargetServiceWrapper'
p315
sg15
(lp316
sg17
(lp317
sg19
(lp318
sg21
I0
sbasg50
(lp319
g294
ag301
ag308
ag315
asg21
I0
sg52
S'android.service.chooser.ss'
p320
sba(iArchitecture
Cluster
p321
(dp322
g7
(lp323
(iArchitecture
Entity
p324
(dp325
g11
(lp326
sg13
S'android.service.dreams.DreamService'
p327
sg15
(lp328
sg17
(lp329
sg19
(lp330
sg21
I0
sba(iArchitecture
Entity
p331
(dp332
g11
(lp333
sg13
S'android.service.dreams.DreamService$1'
p334
sg15
(lp335
sg17
(lp336
sg19
(lp337
sg21
I0
sba(iArchitecture
Entity
p338
(dp339
g11
(lp340
sg13
S'android.service.dreams.DreamService$2'
p341
sg15
(lp342
sg17
(lp343
sg19
(lp344
sg21
I0
sba(iArchitecture
Entity
p345
(dp346
g11
(lp347
sg13
S'android.service.dreams.DreamService$DreamServiceWrapper'
p348
sg15
(lp349
sg17
(lp350
sg19
(lp351
sg21
I0
sba(iArchitecture
Entity
p352
(dp353
g11
(lp354
sg13
S'android.service.dreams.DreamService$DreamServiceWrapper$1'
p355
sg15
(lp356
sg17
(lp357
sg19
(lp358
sg21
I0
sba(iArchitecture
Entity
p359
(dp360
g11
(lp361
sg13
S'android.service.dreams.DreamService$DreamServiceWrapper$2'
p362
sg15
(lp363
sg17
(lp364
sg19
(lp365
sg21
I0
sba(iArchitecture
Entity
p366
(dp367
g11
(lp368
sg13
S'android.service.dreams.DreamService$DreamServiceWrapper$3'
p369
sg15
(lp370
sg17
(lp371
sg19
(lp372
sg21
I0
sbasg50
(lp373
g327
ag334
ag341
ag348
ag355
ag362
ag369
asg21
I0
sg52
S'android.service.dreams.ss'
p374
sba(iArchitecture
Cluster
p375
(dp376
g7
(lp377
(iArchitecture
Entity
p378
(dp379
g11
(lp380
sg13
S'android.service.gatekeeper.GateKeeperResponse'
p381
sg15
(lp382
sg17
(lp383
sg19
(lp384
sg21
I0
sba(iArchitecture
Entity
p385
(dp386
g11
(lp387
sg13
S'android.service.gatekeeper.GateKeeperResponse$1'
p388
sg15
(lp389
sg17
(lp390
sg19
(lp391
sg21
I0
sbasg50
(lp392
g381
ag388
asg21
I0
sg52
S'android.service.gatekeeper.ss'
p393
sba(iArchitecture
Cluster
p394
(dp395
g7
(lp396
(iArchitecture
Entity
p397
(dp398
g11
(lp399
sg13
S'android.service.media.CameraPrewarmService'
p400
sg15
(lp401
sg17
(lp402
sg19
(lp403
sg21
I0
sba(iArchitecture
Entity
p404
(dp405
g11
(lp406
sg13
S'android.service.media.CameraPrewarmService$1'
p407
sg15
(lp408
sg17
(lp409
sg19
(lp410
sg21
I0
sba(iArchitecture
Entity
p411
(dp412
g11
(lp413
sg13
S'android.service.media.IMediaBrowserServiceCallbacks'
p414
sg15
(lp415
sg17
(lp416
sg19
(lp417
sg21
I0
sba(iArchitecture
Entity
p418
(dp419
g11
(lp420
sg13
S'android.service.media.MediaBrowserService'
p421
sg15
(lp422
sg17
(lp423
sg19
(lp424
sg21
I0
sba(iArchitecture
Entity
p425
(dp426
g11
(lp427
sg13
S'android.service.media.MediaBrowserService$1'
p428
sg15
(lp429
sg17
(lp430
sg19
(lp431
sg21
I0
sba(iArchitecture
Entity
p432
(dp433
g11
(lp434
sg13
S'android.service.media.MediaBrowserService$2'
p435
sg15
(lp436
sg17
(lp437
sg19
(lp438
sg21
I0
sba(iArchitecture
Entity
p439
(dp440
g11
(lp441
sg13
S'android.service.media.MediaBrowserService$3'
p442
sg15
(lp443
sg17
(lp444
sg19
(lp445
sg21
I0
sba(iArchitecture
Entity
p446
(dp447
g11
(lp448
sg13
S'android.service.media.MediaBrowserService$4'
p449
sg15
(lp450
sg17
(lp451
sg19
(lp452
sg21
I0
sba(iArchitecture
Entity
p453
(dp454
g11
(lp455
sg13
S'android.service.media.MediaBrowserService$BrowserRoot'
p456
sg15
(lp457
sg17
(lp458
sg19
(lp459
sg21
I0
sba(iArchitecture
Entity
p460
(dp461
g11
(lp462
sg13
S'android.service.media.MediaBrowserService$ConnectionRecord'
p463
sg15
(lp464
sg17
(lp465
sg19
(lp466
sg21
I0
sba(iArchitecture
Entity
p467
(dp468
g11
(lp469
sg13
S'android.service.media.MediaBrowserService$Result'
p470
sg15
(lp471
sg17
(lp472
sg19
(lp473
sg21
I0
sba(iArchitecture
Entity
p474
(dp475
g11
(lp476
sg13
S'android.service.media.MediaBrowserService$ServiceBinder'
p477
sg15
(lp478
sg17
(lp479
sg19
(lp480
sg21
I0
sba(iArchitecture
Entity
p481
(dp482
g11
(lp483
sg13
S'android.service.media.MediaBrowserService$ServiceBinder$1'
p484
sg15
(lp485
sg17
(lp486
sg19
(lp487
sg21
I0
sba(iArchitecture
Entity
p488
(dp489
g11
(lp490
sg13
S'android.service.media.MediaBrowserService$ServiceBinder$2'
p491
sg15
(lp492
sg17
(lp493
sg19
(lp494
sg21
I0
sba(iArchitecture
Entity
p495
(dp496
g11
(lp497
sg13
S'android.service.media.MediaBrowserService$ServiceBinder$3'
p498
sg15
(lp499
sg17
(lp500
sg19
(lp501
sg21
I0
sba(iArchitecture
Entity
p502
(dp503
g11
(lp504
sg13
S'android.service.media.MediaBrowserService$ServiceBinder$4'
p505
sg15
(lp506
sg17
(lp507
sg19
(lp508
sg21
I0
sba(iArchitecture
Entity
p509
(dp510
g11
(lp511
sg13
S'android.service.media.MediaBrowserService$ServiceBinder$5'
p512
sg15
(lp513
sg17
(lp514
sg19
(lp515
sg21
I0
sbasg50
(lp516
g400
ag407
ag414
ag421
ag428
ag435
ag442
ag449
ag456
ag463
ag470
ag477
ag484
ag491
ag498
ag505
ag512
asg21
I0
sg52
S'android.service.media.ss'
p517
sba(iArchitecture
Cluster
p518
(dp519
g7
(lp520
(iArchitecture
Entity
p521
(dp522
g11
(lp523
sg13
S'android.service.notification.Condition'
p524
sg15
(lp525
sg17
(lp526
sg19
(lp527
sg21
I0
sba(iArchitecture
Entity
p528
(dp529
g11
(lp530
sg13
S'android.service.notification.Condition$1'
p531
sg15
(lp532
sg17
(lp533
sg19
(lp534
sg21
I0
sba(iArchitecture
Entity
p535
(dp536
g11
(lp537
sg13
S'android.service.notification.ConditionProviderService'
p538
sg15
(lp539
sg17
(lp540
sg19
(lp541
sg21
I0
sba(iArchitecture
Entity
p542
(dp543
g11
(lp544
sg13
S'android.service.notification.ConditionProviderService$H'
p545
sg15
(lp546
sg17
(lp547
sg19
(lp548
sg21
I0
sba(iArchitecture
Entity
p549
(dp550
g11
(lp551
sg13
S'android.service.notification.ConditionProviderService$Provider'
p552
sg15
(lp553
sg17
(lp554
sg19
(lp555
sg21
I0
sba(iArchitecture
Entity
p556
(dp557
g11
(lp558
sg13
S'android.service.notification.NotificationListenerService'
p559
sg15
(lp560
sg17
(lp561
sg19
(lp562
sg21
I0
sba(iArchitecture
Entity
p563
(dp564
g11
(lp565
sg13
S'android.service.notification.NotificationListenerService$INotificationListenerWrapper'
p566
sg15
(lp567
sg17
(lp568
sg19
(lp569
sg21
I0
sba(iArchitecture
Entity
p570
(dp571
g11
(lp572
sg13
S'android.service.notification.NotificationListenerService$Ranking'
p573
sg15
(lp574
sg17
(lp575
sg19
(lp576
sg21
I0
sba(iArchitecture
Entity
p577
(dp578
g11
(lp579
sg13
S'android.service.notification.NotificationListenerService$RankingMap'
p580
sg15
(lp581
sg17
(lp582
sg19
(lp583
sg21
I0
sba(iArchitecture
Entity
p584
(dp585
g11
(lp586
sg13
S'android.service.notification.NotificationListenerService$RankingMap$1'
p587
sg15
(lp588
sg17
(lp589
sg19
(lp590
sg21
I0
sba(iArchitecture
Entity
p591
(dp592
g11
(lp593
sg13
S'android.service.notification.NotificationRankingUpdate'
p594
sg15
(lp595
sg17
(lp596
sg19
(lp597
sg21
I0
sba(iArchitecture
Entity
p598
(dp599
g11
(lp600
sg13
S'android.service.notification.NotificationRankingUpdate$1'
p601
sg15
(lp602
sg17
(lp603
sg19
(lp604
sg21
I0
sba(iArchitecture
Entity
p605
(dp606
g11
(lp607
sg13
S'android.service.notification.StatusBarNotification'
p608
sg15
(lp609
sg17
(lp610
sg19
(lp611
sg21
I0
sba(iArchitecture
Entity
p612
(dp613
g11
(lp614
sg13
S'android.service.notification.StatusBarNotification$1'
p615
sg15
(lp616
sg17
(lp617
sg19
(lp618
sg21
I0
sba(iArchitecture
Entity
p619
(dp620
g11
(lp621
sg13
S'android.service.notification.ZenModeConfig'
p622
sg15
(lp623
sg17
(lp624
sg19
(lp625
sg21
I0
sba(iArchitecture
Entity
p626
(dp627
g11
(lp628
sg13
S'android.service.notification.ZenModeConfig$1'
p629
sg15
(lp630
sg17
(lp631
sg19
(lp632
sg21
I0
sba(iArchitecture
Entity
p633
(dp634
g11
(lp635
sg13
S'android.service.notification.ZenModeConfig$Diff'
p636
sg15
(lp637
sg17
(lp638
sg19
(lp639
sg21
I0
sbasg50
(lp640
g524
ag531
ag538
ag545
ag552
ag559
ag566
ag573
ag580
ag587
ag594
ag601
ag608
ag615
ag622
ag629
ag636
asg21
I0
sg52
S'android.service.notification.ss'
p641
sba(iArchitecture
Cluster
p642
(dp643
g7
(lp644
(iArchitecture
Entity
p645
(dp646
g11
(lp647
sg13
S'android.service.textservice.SpellCheckerService'
p648
sg15
(lp649
sg17
(lp650
sg19
(lp651
sg21
I0
sba(iArchitecture
Entity
p652
(dp653
g11
(lp654
sg13
S'android.service.textservice.SpellCheckerService$InternalISpellCheckerSession'
p655
sg15
(lp656
sg17
(lp657
sg19
(lp658
sg21
I0
sba(iArchitecture
Entity
p659
(dp660
g11
(lp661
sg13
S'android.service.textservice.SpellCheckerService$SentenceLevelAdapter'
p662
sg15
(lp663
sg17
(lp664
sg19
(lp665
sg21
I0
sba(iArchitecture
Entity
p666
(dp667
g11
(lp668
sg13
S'android.service.textservice.SpellCheckerService$SentenceLevelAdapter$SentenceTextInfoParams'
p669
sg15
(lp670
sg17
(lp671
sg19
(lp672
sg21
I0
sba(iArchitecture
Entity
p673
(dp674
g11
(lp675
sg13
S'android.service.textservice.SpellCheckerService$SentenceLevelAdapter$SentenceWordItem'
p676
sg15
(lp677
sg17
(lp678
sg19
(lp679
sg21
I0
sba(iArchitecture
Entity
p680
(dp681
g11
(lp682
sg13
S'android.service.textservice.SpellCheckerService$Session'
p683
sg15
(lp684
sg17
(lp685
sg19
(lp686
sg21
I0
sba(iArchitecture
Entity
p687
(dp688
g11
(lp689
sg13
S'android.service.textservice.SpellCheckerService$SpellCheckerServiceBinder'
p690
sg15
(lp691
sg17
(lp692
sg19
(lp693
sg21
I0
sbasg50
(lp694
g648
ag655
ag662
ag669
ag676
ag683
ag690
asg21
I0
sg52
S'android.service.textservice.ss'
p695
sba(iArchitecture
Cluster
p696
(dp697
g7
(lp698
(iArchitecture
Entity
p699
(dp700
g11
(lp701
sg13
S'android.service.trust.TrustAgentService'
p702
sg15
(lp703
sg17
(lp704
sg19
(lp705
sg21
I0
sba(iArchitecture
Entity
p706
(dp707
g11
(lp708
sg13
S'android.service.trust.TrustAgentService$1'
p709
sg15
(lp710
sg17
(lp711
sg19
(lp712
sg21
I0
sba(iArchitecture
Entity
p713
(dp714
g11
(lp715
sg13
S'android.service.trust.TrustAgentService$2'
p716
sg15
(lp717
sg17
(lp718
sg19
(lp719
sg21
I0
sba(iArchitecture
Entity
p720
(dp721
g11
(lp722
sg13
S'android.service.trust.TrustAgentService$ConfigurationData'
p723
sg15
(lp724
sg17
(lp725
sg19
(lp726
sg21
I0
sba(iArchitecture
Entity
p727
(dp728
g11
(lp729
sg13
S'android.service.trust.TrustAgentService$TrustAgentServiceWrapper'
p730
sg15
(lp731
sg17
(lp732
sg19
(lp733
sg21
I0
sbasg50
(lp734
g702
ag709
ag716
ag723
ag730
asg21
I0
sg52
S'android.service.trust.ss'
p735
sba(iArchitecture
Cluster
p736
(dp737
g7
(lp738
(iArchitecture
Entity
p739
(dp740
g11
(lp741
sg13
S'android.service.voice.AlwaysOnHotwordDetector'
p742
sg15
(lp743
sg17
(lp744
sg19
(lp745
sg21
I0
sba(iArchitecture
Entity
p746
(dp747
g11
(lp748
sg13
S'android.service.voice.AlwaysOnHotwordDetector$Callback'
p749
sg15
(lp750
sg17
(lp751
sg19
(lp752
sg21
I0
sba(iArchitecture
Entity
p753
(dp754
g11
(lp755
sg13
S'android.service.voice.AlwaysOnHotwordDetector$EventPayload'
p756
sg15
(lp757
sg17
(lp758
sg19
(lp759
sg21
I0
sba(iArchitecture
Entity
p760
(dp761
g11
(lp762
sg13
S'android.service.voice.AlwaysOnHotwordDetector$MyHandler'
p763
sg15
(lp764
sg17
(lp765
sg19
(lp766
sg21
I0
sba(iArchitecture
Entity
p767
(dp768
g11
(lp769
sg13
S'android.service.voice.AlwaysOnHotwordDetector$RefreshAvailabiltyTask'
p770
sg15
(lp771
sg17
(lp772
sg19
(lp773
sg21
I0
sba(iArchitecture
Entity
p774
(dp775
g11
(lp776
sg13
S'android.service.voice.AlwaysOnHotwordDetector$SoundTriggerListener'
p777
sg15
(lp778
sg17
(lp779
sg19
(lp780
sg21
I0
sba(iArchitecture
Entity
p781
(dp782
g11
(lp783
sg13
S'android.service.voice.IVoiceInteractionService'
p784
sg15
(lp785
sg17
(lp786
sg19
(lp787
sg21
I0
sba(iArchitecture
Entity
p788
(dp789
g11
(lp790
sg13
S'android.service.voice.IVoiceInteractionService$Stub'
p791
sg15
(lp792
sg17
(lp793
sg19
(lp794
sg21
I0
sba(iArchitecture
Entity
p795
(dp796
g11
(lp797
sg13
S'android.service.voice.IVoiceInteractionService$Stub$Proxy'
p798
sg15
(lp799
sg17
(lp800
sg19
(lp801
sg21
I0
sba(iArchitecture
Entity
p802
(dp803
g11
(lp804
sg13
S'android.service.voice.IVoiceInteractionSession$Stub'
p805
sg15
(lp806
sg17
(lp807
sg19
(lp808
sg21
I0
sba(iArchitecture
Entity
p809
(dp810
g11
(lp811
sg13
S'android.service.voice.IVoiceInteractionSession$Stub$Proxy'
p812
sg15
(lp813
sg17
(lp814
sg19
(lp815
sg21
I0
sba(iArchitecture
Entity
p816
(dp817
g11
(lp818
sg13
S'android.service.voice.VoiceInteractionService'
p819
sg15
(lp820
sg17
(lp821
sg19
(lp822
sg21
I0
sba(iArchitecture
Entity
p823
(dp824
g11
(lp825
sg13
S'android.service.voice.VoiceInteractionService$1'
p826
sg15
(lp827
sg17
(lp828
sg19
(lp829
sg21
I0
sba(iArchitecture
Entity
p830
(dp831
g11
(lp832
sg13
S'android.service.voice.VoiceInteractionService$MyHandler'
p833
sg15
(lp834
sg17
(lp835
sg19
(lp836
sg21
I0
sba(iArchitecture
Entity
p837
(dp838
g11
(lp839
sg13
S'android.service.voice.VoiceInteractionSession'
p840
sg15
(lp841
sg17
(lp842
sg19
(lp843
sg21
I0
sba(iArchitecture
Entity
p844
(dp845
g11
(lp846
sg13
S'android.service.voice.VoiceInteractionSession$1'
p847
sg15
(lp848
sg17
(lp849
sg19
(lp850
sg21
I0
sba(iArchitecture
Entity
p851
(dp852
g11
(lp853
sg13
S'android.service.voice.VoiceInteractionSession$2'
p854
sg15
(lp855
sg17
(lp856
sg19
(lp857
sg21
I0
sba(iArchitecture
Entity
p858
(dp859
g11
(lp860
sg13
S'android.service.voice.VoiceInteractionSession$2$1'
p861
sg15
(lp862
sg17
(lp863
sg19
(lp864
sg21
I0
sba(iArchitecture
Entity
p865
(dp866
g11
(lp867
sg13
S'android.service.voice.VoiceInteractionSession$3'
p868
sg15
(lp869
sg17
(lp870
sg19
(lp871
sg21
I0
sba(iArchitecture
Entity
p872
(dp873
g11
(lp874
sg13
S'android.service.voice.VoiceInteractionSession$4'
p875
sg15
(lp876
sg17
(lp877
sg19
(lp878
sg21
I0
sba(iArchitecture
Entity
p879
(dp880
g11
(lp881
sg13
S'android.service.voice.VoiceInteractionSession$AbortVoiceRequest'
p882
sg15
(lp883
sg17
(lp884
sg19
(lp885
sg21
I0
sba(iArchitecture
Entity
p886
(dp887
g11
(lp888
sg13
S'android.service.voice.VoiceInteractionSession$CommandRequest'
p889
sg15
(lp890
sg17
(lp891
sg19
(lp892
sg21
I0
sba(iArchitecture
Entity
p893
(dp894
g11
(lp895
sg13
S'android.service.voice.VoiceInteractionSession$CompleteVoiceRequest'
p896
sg15
(lp897
sg17
(lp898
sg19
(lp899
sg21
I0
sba(iArchitecture
Entity
p900
(dp901
g11
(lp902
sg13
S'android.service.voice.VoiceInteractionSession$ConfirmationRequest'
p903
sg15
(lp904
sg17
(lp905
sg19
(lp906
sg21
I0
sba(iArchitecture
Entity
p907
(dp908
g11
(lp909
sg13
S'android.service.voice.VoiceInteractionSession$Insets'
p910
sg15
(lp911
sg17
(lp912
sg19
(lp913
sg21
I0
sba(iArchitecture
Entity
p914
(dp915
g11
(lp916
sg13
S'android.service.voice.VoiceInteractionSession$MyCallbacks'
p917
sg15
(lp918
sg17
(lp919
sg19
(lp920
sg21
I0
sba(iArchitecture
Entity
p921
(dp922
g11
(lp923
sg13
S'android.service.voice.VoiceInteractionSession$PickOptionRequest'
p924
sg15
(lp925
sg17
(lp926
sg19
(lp927
sg21
I0
sba(iArchitecture
Entity
p928
(dp929
g11
(lp930
sg13
S'android.service.voice.VoiceInteractionSession$Request'
p931
sg15
(lp932
sg17
(lp933
sg19
(lp934
sg21
I0
sba(iArchitecture
Entity
p935
(dp936
g11
(lp937
sg13
S'android.service.voice.VoiceInteractionSession$Request$1'
p938
sg15
(lp939
sg17
(lp940
sg19
(lp941
sg21
I0
sba(iArchitecture
Entity
p942
(dp943
g11
(lp944
sg13
S'android.service.voice.VoiceInteractionSessionService'
p945
sg15
(lp946
sg17
(lp947
sg19
(lp948
sg21
I0
sba(iArchitecture
Entity
p949
(dp950
g11
(lp951
sg13
S'android.service.voice.VoiceInteractionSessionService$1'
p952
sg15
(lp953
sg17
(lp954
sg19
(lp955
sg21
I0
sba(iArchitecture
Entity
p956
(dp957
g11
(lp958
sg13
S'android.service.voice.VoiceInteractionSessionService$2'
p959
sg15
(lp960
sg17
(lp961
sg19
(lp962
sg21
I0
sbasg50
(lp963
g742
ag749
ag756
ag763
ag770
ag777
ag784
ag791
ag798
ag805
ag812
ag819
ag826
ag833
ag840
ag847
ag854
ag861
ag868
ag875
ag882
ag889
ag896
ag903
ag910
ag917
ag924
ag931
ag938
ag945
ag952
ag959
asg21
I0
sg52
S'android.service.voice.ss'
p964
sba(iArchitecture
Cluster
p965
(dp966
g7
(lp967
(iArchitecture
Entity
p968
(dp969
g11
(lp970
sg13
S'android.service.wallpaper.IWallpaperConnection'
p971
sg15
(lp972
sg17
(lp973
sg19
(lp974
sg21
I0
sba(iArchitecture
Entity
p975
(dp976
g11
(lp977
sg13
S'android.service.wallpaper.WallpaperService'
p978
sg15
(lp979
sg17
(lp980
sg19
(lp981
sg21
I0
sba(iArchitecture
Entity
p982
(dp983
g11
(lp984
sg13
S'android.service.wallpaper.WallpaperService$Engine'
p985
sg15
(lp986
sg17
(lp987
sg19
(lp988
sg21
I0
sba(iArchitecture
Entity
p989
(dp990
g11
(lp991
sg13
S'android.service.wallpaper.WallpaperService$Engine$1'
p992
sg15
(lp993
sg17
(lp994
sg19
(lp995
sg21
I0
sba(iArchitecture
Entity
p996
(dp997
g11
(lp998
sg13
S'android.service.wallpaper.WallpaperService$Engine$2'
p999
sg15
(lp1000
sg17
(lp1001
sg19
(lp1002
sg21
I0
sba(iArchitecture
Entity
p1003
(dp1004
g11
(lp1005
sg13
S'android.service.wallpaper.WallpaperService$Engine$3'
p1006
sg15
(lp1007
sg17
(lp1008
sg19
(lp1009
sg21
I0
sba(iArchitecture
Entity
p1010
(dp1011
g11
(lp1012
sg13
S'android.service.wallpaper.WallpaperService$Engine$WallpaperInputEventReceiver'
p1013
sg15
(lp1014
sg17
(lp1015
sg19
(lp1016
sg21
I0
sba(iArchitecture
Entity
p1017
(dp1018
g11
(lp1019
sg13
S'android.service.wallpaper.WallpaperService$IWallpaperEngineWrapper'
p1020
sg15
(lp1021
sg17
(lp1022
sg19
(lp1023
sg21
I0
sba(iArchitecture
Entity
p1024
(dp1025
g11
(lp1026
sg13
S'android.service.wallpaper.WallpaperService$IWallpaperServiceWrapper'
p1027
sg15
(lp1028
sg17
(lp1029
sg19
(lp1030
sg21
I0
sba(iArchitecture
Entity
p1031
(dp1032
g11
(lp1033
sg13
S'android.service.wallpaper.WallpaperService$WallpaperCommand'
p1034
sg15
(lp1035
sg17
(lp1036
sg19
(lp1037
sg21
I0
sbasg50
(lp1038
g971
ag978
ag985
ag992
ag999
ag1006
ag1013
ag1020
ag1027
ag1034
asg21
I0
sg52
S'android.service.wallpaper.ss'
p1039
sba(iArchitecture
Cluster
p1040
(dp1041
g7
(lp1042
(iArchitecture
Entity
p1043
(dp1044
g11
(lp1045
sg13
S'android.service.chooser.IChooserTargetResult'
p1046
sg15
(lp1047
sg17
(lp1048
sg19
(lp1049
sg21
I0
sba(iArchitecture
Entity
p1050
(dp1051
g11
(lp1052
sg13
S'android.service.chooser.IChooserTargetResult$Stub'
p1053
sg15
(lp1054
sg17
(lp1055
sg19
(lp1056
sg21
I0
sba(iArchitecture
Entity
p1057
(dp1058
g11
(lp1059
sg13
S'android.service.chooser.IChooserTargetResult$Stub$Proxy'
p1060
sg15
(lp1061
sg17
(lp1062
sg19
(lp1063
sg21
I0
sba(iArchitecture
Entity
p1064
(dp1065
g11
(lp1066
sg13
S'android.service.chooser.IChooserTargetService'
p1067
sg15
(lp1068
sg17
(lp1069
sg19
(lp1070
sg21
I0
sba(iArchitecture
Entity
p1071
(dp1072
g11
(lp1073
sg13
S'android.service.chooser.IChooserTargetService$Stub'
p1074
sg15
(lp1075
sg17
(lp1076
sg19
(lp1077
sg21
I0
sba(iArchitecture
Entity
p1078
(dp1079
g11
(lp1080
sg13
S'android.service.chooser.IChooserTargetService$Stub$Proxy'
p1081
sg15
(lp1082
sg17
(lp1083
sg19
(lp1084
sg21
I0
sbasg50
(lp1085
g1046
ag1053
ag1060
ag1067
ag1074
ag1081
asg21
I0
sg52
S'com.android.internal.app.ss'
p1086
sba(iArchitecture
Cluster
p1087
(dp1088
g7
(lp1089
(iArchitecture
Entity
p1090
(dp1091
g11
(lp1092
sg13
S'android.service.dreams.DreamManagerInternal'
p1093
sg15
(lp1094
sg17
(lp1095
sg19
(lp1096
sg21
I0
sba(iArchitecture
Entity
p1097
(dp1098
g11
(lp1099
sg13
S'android.service.dreams.IDreamService'
p1100
sg15
(lp1101
sg17
(lp1102
sg19
(lp1103
sg21
I0
sba(iArchitecture
Entity
p1104
(dp1105
g11
(lp1106
sg13
S'android.service.dreams.IDreamService$Stub'
p1107
sg15
(lp1108
sg17
(lp1109
sg19
(lp1110
sg21
I0
sba(iArchitecture
Entity
p1111
(dp1112
g11
(lp1113
sg13
S'android.service.dreams.IDreamService$Stub$Proxy'
p1114
sg15
(lp1115
sg17
(lp1116
sg19
(lp1117
sg21
I0
sbasg50
(lp1118
g1093
ag1100
ag1107
ag1114
asg21
I0
sg52
S'com.android.server.dreams.ss'
p1119
sba(iArchitecture
Cluster
p1120
(dp1121
g7
(lp1122
(iArchitecture
Entity
p1123
(dp1124
g11
(lp1125
sg13
S'android.service.notification.IConditionListener'
p1126
sg15
(lp1127
sg17
(lp1128
sg19
(lp1129
sg21
I0
sba(iArchitecture
Entity
p1130
(dp1131
g11
(lp1132
sg13
S'android.service.notification.IConditionListener$Stub'
p1133
sg15
(lp1134
sg17
(lp1135
sg19
(lp1136
sg21
I0
sba(iArchitecture
Entity
p1137
(dp1138
g11
(lp1139
sg13
S'android.service.notification.IConditionListener$Stub$Proxy'
p1140
sg15
(lp1141
sg17
(lp1142
sg19
(lp1143
sg21
I0
sba(iArchitecture
Entity
p1144
(dp1145
g11
(lp1146
sg13
S'android.service.notification.IConditionProvider'
p1147
sg15
(lp1148
sg17
(lp1149
sg19
(lp1150
sg21
I0
sba(iArchitecture
Entity
p1151
(dp1152
g11
(lp1153
sg13
S'android.service.notification.IConditionProvider$Stub'
p1154
sg15
(lp1155
sg17
(lp1156
sg19
(lp1157
sg21
I0
sba(iArchitecture
Entity
p1158
(dp1159
g11
(lp1160
sg13
S'android.service.notification.IConditionProvider$Stub$Proxy'
p1161
sg15
(lp1162
sg17
(lp1163
sg19
(lp1164
sg21
I0
sba(iArchitecture
Entity
p1165
(dp1166
g11
(lp1167
sg13
S'android.service.notification.INotificationListener'
p1168
sg15
(lp1169
sg17
(lp1170
sg19
(lp1171
sg21
I0
sba(iArchitecture
Entity
p1172
(dp1173
g11
(lp1174
sg13
S'android.service.notification.INotificationListener$Stub'
p1175
sg15
(lp1176
sg17
(lp1177
sg19
(lp1178
sg21
I0
sba(iArchitecture
Entity
p1179
(dp1180
g11
(lp1181
sg13
S'android.service.notification.INotificationListener$Stub$Proxy'
p1182
sg15
(lp1183
sg17
(lp1184
sg19
(lp1185
sg21
I0
sba(iArchitecture
Entity
p1186
(dp1187
g11
(lp1188
sg13
S'android.service.notification.IStatusBarNotificationHolder'
p1189
sg15
(lp1190
sg17
(lp1191
sg19
(lp1192
sg21
I0
sba(iArchitecture
Entity
p1193
(dp1194
g11
(lp1195
sg13
S'android.service.notification.IStatusBarNotificationHolder$Stub'
p1196
sg15
(lp1197
sg17
(lp1198
sg19
(lp1199
sg21
I0
sba(iArchitecture
Entity
p1200
(dp1201
g11
(lp1202
sg13
S'android.service.notification.IStatusBarNotificationHolder$Stub$Proxy'
p1203
sg15
(lp1204
sg17
(lp1205
sg19
(lp1206
sg21
I0
sba(iArchitecture
Entity
p1207
(dp1208
g11
(lp1209
sg13
S'android.service.notification.ZenModeConfig$EventInfo'
p1210
sg15
(lp1211
sg17
(lp1212
sg19
(lp1213
sg21
I0
sba(iArchitecture
Entity
p1214
(dp1215
g11
(lp1216
sg13
S'android.service.notification.ZenModeConfig$Migration'
p1217
sg15
(lp1218
sg17
(lp1219
sg19
(lp1220
sg21
I0
sba(iArchitecture
Entity
p1221
(dp1222
g11
(lp1223
sg13
S'android.service.notification.ZenModeConfig$ScheduleInfo'
p1224
sg15
(lp1225
sg17
(lp1226
sg19
(lp1227
sg21
I0
sba(iArchitecture
Entity
p1228
(dp1229
g11
(lp1230
sg13
S'android.service.notification.ZenModeConfig$XmlV1'
p1231
sg15
(lp1232
sg17
(lp1233
sg19
(lp1234
sg21
I0
sba(iArchitecture
Entity
p1235
(dp1236
g11
(lp1237
sg13
S'android.service.notification.ZenModeConfig$ZenRule'
p1238
sg15
(lp1239
sg17
(lp1240
sg19
(lp1241
sg21
I0
sba(iArchitecture
Entity
p1242
(dp1243
g11
(lp1244
sg13
S'android.service.notification.ZenModeConfig$ZenRule$1'
p1245
sg15
(lp1246
sg17
(lp1247
sg19
(lp1248
sg21
I0
sbasg50
(lp1249
g1126
ag1133
ag1140
ag1147
ag1154
ag1161
ag1168
ag1175
ag1182
ag1189
ag1196
ag1203
ag1210
ag1217
ag1224
ag1231
ag1238
ag1245
asg21
I0
sg52
S'com.android.server.notification.ss'
p1250
sba(iArchitecture
Cluster
p1251
(dp1252
g7
(lp1253
(iArchitecture
Entity
p1254
(dp1255
g11
(lp1256
sg13
S'android.service.wallpaper.WallpaperSettingsActivity'
p1257
sg15
(lp1258
sg17
(lp1259
sg19
(lp1260
sg21
I0
sbasg50
(lp1261
g1257
asg21
I0
sg52
S'com.android.server.pm.ss'
p1262
sba(iArchitecture
Cluster
p1263
(dp1264
g7
(lp1265
(iArchitecture
Entity
p1266
(dp1267
g11
(lp1268
sg13
S'android.service.dreams.IDreamManager'
p1269
sg15
(lp1270
sg17
(lp1271
sg19
(lp1272
sg21
I0
sba(iArchitecture
Entity
p1273
(dp1274
g11
(lp1275
sg13
S'android.service.dreams.IDreamManager$Stub'
p1276
sg15
(lp1277
sg17
(lp1278
sg19
(lp1279
sg21
I0
sba(iArchitecture
Entity
p1280
(dp1281
g11
(lp1282
sg13
S'android.service.dreams.IDreamManager$Stub$Proxy'
p1283
sg15
(lp1284
sg17
(lp1285
sg19
(lp1286
sg21
I0
sbasg50
(lp1287
g1269
ag1276
ag1283
asg21
I0
sg52
S'com.android.server.policy.ss'
p1288
sba(iArchitecture
Cluster
p1289
(dp1290
g7
(lp1291
(iArchitecture
Entity
p1292
(dp1293
g11
(lp1294
sg13
S'android.service.dreams.Sandman'
p1295
sg15
(lp1296
sg17
(lp1297
sg19
(lp1298
sg21
I0
sba(iArchitecture
Entity
p1299
(dp1300
g11
(lp1301
sg13
S'android.service.gatekeeper.IGateKeeperService'
p1302
sg15
(lp1303
sg17
(lp1304
sg19
(lp1305
sg21
I0
sba(iArchitecture
Entity
p1306
(dp1307
g11
(lp1308
sg13
S'android.service.gatekeeper.IGateKeeperService$Stub'
p1309
sg15
(lp1310
sg17
(lp1311
sg19
(lp1312
sg21
I0
sba(iArchitecture
Entity
p1313
(dp1314
g11
(lp1315
sg13
S'android.service.gatekeeper.IGateKeeperService$Stub$Proxy'
p1316
sg15
(lp1317
sg17
(lp1318
sg19
(lp1319
sg21
I0
sbasg50
(lp1320
g1295
ag1302
ag1309
ag1316
asg21
I0
sg52
S'com.android.server.ss'
p1321
sba(iArchitecture
Cluster
p1322
(dp1323
g7
(lp1324
(iArchitecture
Entity
p1325
(dp1326
g11
(lp1327
sg13
S'android.service.trust.ITrustAgentService'
p1328
sg15
(lp1329
sg17
(lp1330
sg19
(lp1331
sg21
I0
sba(iArchitecture
Entity
p1332
(dp1333
g11
(lp1334
sg13
S'android.service.trust.ITrustAgentService$Stub'
p1335
sg15
(lp1336
sg17
(lp1337
sg19
(lp1338
sg21
I0
sba(iArchitecture
Entity
p1339
(dp1340
g11
(lp1341
sg13
S'android.service.trust.ITrustAgentService$Stub$Proxy'
p1342
sg15
(lp1343
sg17
(lp1344
sg19
(lp1345
sg21
I0
sba(iArchitecture
Entity
p1346
(dp1347
g11
(lp1348
sg13
S'android.service.trust.ITrustAgentServiceCallback'
p1349
sg15
(lp1350
sg17
(lp1351
sg19
(lp1352
sg21
I0
sba(iArchitecture
Entity
p1353
(dp1354
g11
(lp1355
sg13
S'android.service.trust.ITrustAgentServiceCallback$Stub'
p1356
sg15
(lp1357
sg17
(lp1358
sg19
(lp1359
sg21
I0
sba(iArchitecture
Entity
p1360
(dp1361
g11
(lp1362
sg13
S'android.service.trust.ITrustAgentServiceCallback$Stub$Proxy'
p1363
sg15
(lp1364
sg17
(lp1365
sg19
(lp1366
sg21
I0
sbasg50
(lp1367
g1328
ag1335
ag1342
ag1349
ag1356
ag1363
asg21
I0
sg52
S'com.android.server.trust.ss'
p1368
sba(iArchitecture
Cluster
p1369
(dp1370
g7
(lp1371
(iArchitecture
Entity
p1372
(dp1373
g11
(lp1374
sg13
S'android.service.voice.IVoiceInteractionSession'
p1375
sg15
(lp1376
sg17
(lp1377
sg19
(lp1378
sg21
I0
sba(iArchitecture
Entity
p1379
(dp1380
g11
(lp1381
sg13
S'android.service.voice.IVoiceInteractionSessionService'
p1382
sg15
(lp1383
sg17
(lp1384
sg19
(lp1385
sg21
I0
sba(iArchitecture
Entity
p1386
(dp1387
g11
(lp1388
sg13
S'android.service.voice.IVoiceInteractionSessionService$Stub'
p1389
sg15
(lp1390
sg17
(lp1391
sg19
(lp1392
sg21
I0
sba(iArchitecture
Entity
p1393
(dp1394
g11
(lp1395
sg13
S'android.service.voice.IVoiceInteractionSessionService$Stub$Proxy'
p1396
sg15
(lp1397
sg17
(lp1398
sg19
(lp1399
sg21
I0
sba(iArchitecture
Entity
p1400
(dp1401
g11
(lp1402
sg13
S'android.service.voice.VoiceInteractionServiceInfo'
p1403
sg15
(lp1404
sg17
(lp1405
sg19
(lp1406
sg21
I0
sbasg50
(lp1407
g1375
ag1382
ag1389
ag1396
ag1403
asg21
I0
sg52
S'com.android.server.voiceinteraction.ss'
p1408
sba(iArchitecture
Cluster
p1409
(dp1410
g7
(lp1411
(iArchitecture
Entity
p1412
(dp1413
g11
(lp1414
sg13
S'android.service.wallpaper.IWallpaperConnection$Stub'
p1415
sg15
(lp1416
sg17
(lp1417
sg19
(lp1418
sg21
I0
sba(iArchitecture
Entity
p1419
(dp1420
g11
(lp1421
sg13
S'android.service.wallpaper.IWallpaperConnection$Stub$Proxy'
p1422
sg15
(lp1423
sg17
(lp1424
sg19
(lp1425
sg21
I0
sba(iArchitecture
Entity
p1426
(dp1427
g11
(lp1428
sg13
S'android.service.wallpaper.IWallpaperEngine'
p1429
sg15
(lp1430
sg17
(lp1431
sg19
(lp1432
sg21
I0
sba(iArchitecture
Entity
p1433
(dp1434
g11
(lp1435
sg13
S'android.service.wallpaper.IWallpaperEngine$Stub'
p1436
sg15
(lp1437
sg17
(lp1438
sg19
(lp1439
sg21
I0
sba(iArchitecture
Entity
p1440
(dp1441
g11
(lp1442
sg13
S'android.service.wallpaper.IWallpaperEngine$Stub$Proxy'
p1443
sg15
(lp1444
sg17
(lp1445
sg19
(lp1446
sg21
I0
sba(iArchitecture
Entity
p1447
(dp1448
g11
(lp1449
sg13
S'android.service.wallpaper.IWallpaperService'
p1450
sg15
(lp1451
sg17
(lp1452
sg19
(lp1453
sg21
I0
sba(iArchitecture
Entity
p1454
(dp1455
g11
(lp1456
sg13
S'android.service.wallpaper.IWallpaperService$Stub'
p1457
sg15
(lp1458
sg17
(lp1459
sg19
(lp1460
sg21
I0
sba(iArchitecture
Entity
p1461
(dp1462
g11
(lp1463
sg13
S'android.service.wallpaper.IWallpaperService$Stub$Proxy'
p1464
sg15
(lp1465
sg17
(lp1466
sg19
(lp1467
sg21
I0
sbasg50
(lp1468
g1415
ag1422
ag1429
ag1436
ag1443
ag1450
ag1457
ag1464
asg21
I0
sg52
S'com.android.server.wallpaper.ss'
p1469
sbasS'target_sub'
p1470
S'android.service'
p1471
sg50
(lp1472
sS'is_component_arch'
p1473
I00
sg52
S'6.0.0_r1'
p1474
sba(iArchitecture
Architecture
p1475
(dp1476
g3
(lp1477
(iArchitecture
Cluster
p1478
(dp1479
g7
(lp1480
(iArchitecture
Entity
p1481
(dp1482
g11
(lp1483
sg13
S'android.service.persistentdata.IPersistentDataBlockService'
p1484
sg15
(lp1485
sg17
(lp1486
sg19
(lp1487
sg21
I0
sba(iArchitecture
Entity
p1488
(dp1489
g11
(lp1490
sg13
S'android.service.persistentdata.IPersistentDataBlockService$Stub'
p1491
sg15
(lp1492
sg17
(lp1493
sg19
(lp1494
sg21
I0
sba(iArchitecture
Entity
p1495
(dp1496
g11
(lp1497
sg13
S'android.service.persistentdata.IPersistentDataBlockService$Stub$Proxy'
p1498
sg15
(lp1499
sg17
(lp1500
sg19
(lp1501
sg21
I0
sba(iArchitecture
Entity
p1502
(dp1503
g11
(lp1504
sg13
S'android.service.persistentdata.PersistentDataBlockManager'
p1505
sg15
(lp1506
sg17
(lp1507
sg19
(lp1508
sg21
I0
sba(iArchitecture
Entity
p1509
(dp1510
g11
(lp1511
sg13
S'android.service.restrictions.RestrictionsReceiver'
p1512
sg15
(lp1513
sg17
(lp1514
sg19
(lp1515
sg21
I0
sbasg50
(lp1516
g1484
ag1491
ag1498
ag1505
ag1512
asg21
I0
sg52
S'android.app.ss'
p1517
sba(iArchitecture
Cluster
p1518
(dp1519
g7
(lp1520
(iArchitecture
Entity
p1521
(dp1522
g11
(lp1523
sg13
S'android.service.media.IMediaBrowserService'
p1524
sg15
(lp1525
sg17
(lp1526
sg19
(lp1527
sg21
I0
sba(iArchitecture
Entity
p1528
(dp1529
g11
(lp1530
sg13
S'android.service.media.IMediaBrowserService$Stub'
p1531
sg15
(lp1532
sg17
(lp1533
sg19
(lp1534
sg21
I0
sba(iArchitecture
Entity
p1535
(dp1536
g11
(lp1537
sg13
S'android.service.media.IMediaBrowserService$Stub$Proxy'
p1538
sg15
(lp1539
sg17
(lp1540
sg19
(lp1541
sg21
I0
sba(iArchitecture
Entity
p1542
(dp1543
g11
(lp1544
sg13
S'android.service.media.IMediaBrowserServiceCallbacks$Stub'
p1545
sg15
(lp1546
sg17
(lp1547
sg19
(lp1548
sg21
I0
sbasg50
(lp1549
g1524
ag1531
ag1538
ag1545
asg21
I0
sg52
S'android.media.browse.ss'
p1550
sba(iArchitecture
Cluster
p1551
(dp1552
g7
(lp1553
(iArchitecture
Entity
p1554
(dp1555
g11
(lp1556
sg13
S'android.service.carrier.CarrierIdentifier'
p1557
sg15
(lp1558
sg17
(lp1559
sg19
(lp1560
sg21
I0
sba(iArchitecture
Entity
p1561
(dp1562
g11
(lp1563
sg13
S'android.service.carrier.CarrierIdentifier$1'
p1564
sg15
(lp1565
sg17
(lp1566
sg19
(lp1567
sg21
I0
sba(iArchitecture
Entity
p1568
(dp1569
g11
(lp1570
sg13
S'android.service.carrier.CarrierMessagingService'
p1571
sg15
(lp1572
sg17
(lp1573
sg19
(lp1574
sg21
I0
sba(iArchitecture
Entity
p1575
(dp1576
g11
(lp1577
sg13
S'android.service.carrier.CarrierMessagingService$1'
p1578
sg15
(lp1579
sg17
(lp1580
sg19
(lp1581
sg21
I0
sba(iArchitecture
Entity
p1582
(dp1583
g11
(lp1584
sg13
S'android.service.carrier.CarrierMessagingService$ICarrierMessagingWrapper'
p1585
sg15
(lp1586
sg17
(lp1587
sg19
(lp1588
sg21
I0
sba(iArchitecture
Entity
p1589
(dp1590
g11
(lp1591
sg13
S'android.service.carrier.CarrierMessagingService$ICarrierMessagingWrapper$1'
p1592
sg15
(lp1593
sg17
(lp1594
sg19
(lp1595
sg21
I0
sba(iArchitecture
Entity
p1596
(dp1597
g11
(lp1598
sg13
S'android.service.carrier.CarrierMessagingService$ICarrierMessagingWrapper$2'
p1599
sg15
(lp1600
sg17
(lp1601
sg19
(lp1602
sg21
I0
sba(iArchitecture
Entity
p1603
(dp1604
g11
(lp1605
sg13
S'android.service.carrier.CarrierMessagingService$ICarrierMessagingWrapper$3'
p1606
sg15
(lp1607
sg17
(lp1608
sg19
(lp1609
sg21
I0
sba(iArchitecture
Entity
p1610
(dp1611
g11
(lp1612
sg13
S'android.service.carrier.CarrierMessagingService$ICarrierMessagingWrapper$4'
p1613
sg15
(lp1614
sg17
(lp1615
sg19
(lp1616
sg21
I0
sba(iArchitecture
Entity
p1617
(dp1618
g11
(lp1619
sg13
S'android.service.carrier.CarrierMessagingService$ICarrierMessagingWrapper$5'
p1620
sg15
(lp1621
sg17
(lp1622
sg19
(lp1623
sg21
I0
sba(iArchitecture
Entity
p1624
(dp1625
g11
(lp1626
sg13
S'android.service.carrier.CarrierMessagingService$ICarrierMessagingWrapper$6'
p1627
sg15
(lp1628
sg17
(lp1629
sg19
(lp1630
sg21
I0
sba(iArchitecture
Entity
p1631
(dp1632
g11
(lp1633
sg13
S'android.service.carrier.CarrierMessagingService$ResultCallback'
p1634
sg15
(lp1635
sg17
(lp1636
sg19
(lp1637
sg21
I0
sba(iArchitecture
Entity
p1638
(dp1639
g11
(lp1640
sg13
S'android.service.carrier.CarrierMessagingService$SendMmsResult'
p1641
sg15
(lp1642
sg17
(lp1643
sg19
(lp1644
sg21
I0
sba(iArchitecture
Entity
p1645
(dp1646
g11
(lp1647
sg13
S'android.service.carrier.CarrierMessagingService$SendMultipartSmsResult'
p1648
sg15
(lp1649
sg17
(lp1650
sg19
(lp1651
sg21
I0
sba(iArchitecture
Entity
p1652
(dp1653
g11
(lp1654
sg13
S'android.service.carrier.CarrierMessagingService$SendSmsResult'
p1655
sg15
(lp1656
sg17
(lp1657
sg19
(lp1658
sg21
I0
sba(iArchitecture
Entity
p1659
(dp1660
g11
(lp1661
sg13
S'android.service.carrier.CarrierService'
p1662
sg15
(lp1663
sg17
(lp1664
sg19
(lp1665
sg21
I0
sba(iArchitecture
Entity
p1666
(dp1667
g11
(lp1668
sg13
S'android.service.carrier.CarrierService$ICarrierServiceWrapper'
p1669
sg15
(lp1670
sg17
(lp1671
sg19
(lp1672
sg21
I0
sba(iArchitecture
Entity
p1673
(dp1674
g11
(lp1675
sg13
S'android.service.carrier.ICarrierMessagingCallback'
p1676
sg15
(lp1677
sg17
(lp1678
sg19
(lp1679
sg21
I0
sba(iArchitecture
Entity
p1680
(dp1681
g11
(lp1682
sg13
S'android.service.carrier.ICarrierMessagingCallback$Stub'
p1683
sg15
(lp1684
sg17
(lp1685
sg19
(lp1686
sg21
I0
sba(iArchitecture
Entity
p1687
(dp1688
g11
(lp1689
sg13
S'android.service.carrier.ICarrierMessagingCallback$Stub$Proxy'
p1690
sg15
(lp1691
sg17
(lp1692
sg19
(lp1693
sg21
I0
sba(iArchitecture
Entity
p1694
(dp1695
g11
(lp1696
sg13
S'android.service.carrier.ICarrierMessagingService'
p1697
sg15
(lp1698
sg17
(lp1699
sg19
(lp1700
sg21
I0
sba(iArchitecture
Entity
p1701
(dp1702
g11
(lp1703
sg13
S'android.service.carrier.ICarrierMessagingService$Stub'
p1704
sg15
(lp1705
sg17
(lp1706
sg19
(lp1707
sg21
I0
sba(iArchitecture
Entity
p1708
(dp1709
g11
(lp1710
sg13
S'android.service.carrier.ICarrierMessagingService$Stub$Proxy'
p1711
sg15
(lp1712
sg17
(lp1713
sg19
(lp1714
sg21
I0
sba(iArchitecture
Entity
p1715
(dp1716
g11
(lp1717
sg13
S'android.service.carrier.ICarrierService'
p1718
sg15
(lp1719
sg17
(lp1720
sg19
(lp1721
sg21
I0
sba(iArchitecture
Entity
p1722
(dp1723
g11
(lp1724
sg13
S'android.service.carrier.ICarrierService$Stub'
p1725
sg15
(lp1726
sg17
(lp1727
sg19
(lp1728
sg21
I0
sba(iArchitecture
Entity
p1729
(dp1730
g11
(lp1731
sg13
S'android.service.carrier.ICarrierService$Stub$Proxy'
p1732
sg15
(lp1733
sg17
(lp1734
sg19
(lp1735
sg21
I0
sba(iArchitecture
Entity
p1736
(dp1737
g11
(lp1738
sg13
S'android.service.carrier.MessagePdu'
p1739
sg15
(lp1740
sg17
(lp1741
sg19
(lp1742
sg21
I0
sba(iArchitecture
Entity
p1743
(dp1744
g11
(lp1745
sg13
S'android.service.carrier.MessagePdu$1'
p1746
sg15
(lp1747
sg17
(lp1748
sg19
(lp1749
sg21
I0
sbasg50
(lp1750
g1557
ag1564
ag1571
ag1578
ag1585
ag1592
ag1599
ag1606
ag1613
ag1620
ag1627
ag1634
ag1641
ag1648
ag1655
ag1662
ag1669
ag1676
ag1683
ag1690
ag1697
ag1704
ag1711
ag1718
ag1725
ag1732
ag1739
ag1746
asg21
I0
sg52
S'android.service.carrier.ss'
p1751
sba(iArchitecture
Cluster
p1752
(dp1753
g7
(lp1754
(iArchitecture
Entity
p1755
(dp1756
g11
(lp1757
sg13
S'android.service.chooser.ChooserTarget'
p1758
sg15
(lp1759
sg17
(lp1760
sg19
(lp1761
sg21
I0
sba(iArchitecture
Entity
p1762
(dp1763
g11
(lp1764
sg13
S'android.service.chooser.ChooserTarget$1'
p1765
sg15
(lp1766
sg17
(lp1767
sg19
(lp1768
sg21
I0
sba(iArchitecture
Entity
p1769
(dp1770
g11
(lp1771
sg13
S'android.service.chooser.ChooserTargetService'
p1772
sg15
(lp1773
sg17
(lp1774
sg19
(lp1775
sg21
I0
sba(iArchitecture
Entity
p1776
(dp1777
g11
(lp1778
sg13
S'android.service.chooser.ChooserTargetService$IChooserTargetServiceWrapper'
p1779
sg15
(lp1780
sg17
(lp1781
sg19
(lp1782
sg21
I0
sbasg50
(lp1783
g1758
ag1765
ag1772
ag1779
asg21
I0
sg52
S'android.service.chooser.ss'
p1784
sba(iArchitecture
Cluster
p1785
(dp1786
g7
(lp1787
(iArchitecture
Entity
p1788
(dp1789
g11
(lp1790
sg13
S'android.service.dreams.DreamService'
p1791
sg15
(lp1792
sg17
(lp1793
sg19
(lp1794
sg21
I0
sba(iArchitecture
Entity
p1795
(dp1796
g11
(lp1797
sg13
S'android.service.dreams.DreamService$1'
p1798
sg15
(lp1799
sg17
(lp1800
sg19
(lp1801
sg21
I0
sba(iArchitecture
Entity
p1802
(dp1803
g11
(lp1804
sg13
S'android.service.dreams.DreamService$2'
p1805
sg15
(lp1806
sg17
(lp1807
sg19
(lp1808
sg21
I0
sba(iArchitecture
Entity
p1809
(dp1810
g11
(lp1811
sg13
S'android.service.dreams.DreamService$DreamServiceWrapper'
p1812
sg15
(lp1813
sg17
(lp1814
sg19
(lp1815
sg21
I0
sba(iArchitecture
Entity
p1816
(dp1817
g11
(lp1818
sg13
S'android.service.dreams.DreamService$DreamServiceWrapper$1'
p1819
sg15
(lp1820
sg17
(lp1821
sg19
(lp1822
sg21
I0
sba(iArchitecture
Entity
p1823
(dp1824
g11
(lp1825
sg13
S'android.service.dreams.DreamService$DreamServiceWrapper$2'
p1826
sg15
(lp1827
sg17
(lp1828
sg19
(lp1829
sg21
I0
sba(iArchitecture
Entity
p1830
(dp1831
g11
(lp1832
sg13
S'android.service.dreams.DreamService$DreamServiceWrapper$3'
p1833
sg15
(lp1834
sg17
(lp1835
sg19
(lp1836
sg21
I0
sbasg50
(lp1837
g1791
ag1798
ag1805
ag1812
ag1819
ag1826
ag1833
asg21
I0
sg52
S'android.service.dreams.ss'
p1838
sba(iArchitecture
Cluster
p1839
(dp1840
g7
(lp1841
(iArchitecture
Entity
p1842
(dp1843
g11
(lp1844
sg13
S'android.service.gatekeeper.GateKeeperResponse'
p1845
sg15
(lp1846
sg17
(lp1847
sg19
(lp1848
sg21
I0
sba(iArchitecture
Entity
p1849
(dp1850
g11
(lp1851
sg13
S'android.service.gatekeeper.GateKeeperResponse$1'
p1852
sg15
(lp1853
sg17
(lp1854
sg19
(lp1855
sg21
I0
sbasg50
(lp1856
g1845
ag1852
asg21
I0
sg52
S'android.service.gatekeeper.ss'
p1857
sba(iArchitecture
Cluster
p1858
(dp1859
g7
(lp1860
(iArchitecture
Entity
p1861
(dp1862
g11
(lp1863
sg13
S'android.service.media.CameraPrewarmService'
p1864
sg15
(lp1865
sg17
(lp1866
sg19
(lp1867
sg21
I0
sba(iArchitecture
Entity
p1868
(dp1869
g11
(lp1870
sg13
S'android.service.media.CameraPrewarmService$1'
p1871
sg15
(lp1872
sg17
(lp1873
sg19
(lp1874
sg21
I0
sba(iArchitecture
Entity
p1875
(dp1876
g11
(lp1877
sg13
S'android.service.media.IMediaBrowserServiceCallbacks'
p1878
sg15
(lp1879
sg17
(lp1880
sg19
(lp1881
sg21
I0
sba(iArchitecture
Entity
p1882
(dp1883
g11
(lp1884
sg13
S'android.service.media.IMediaBrowserServiceCallbacks$Stub$Proxy'
p1885
sg15
(lp1886
sg17
(lp1887
sg19
(lp1888
sg21
I0
sba(iArchitecture
Entity
p1889
(dp1890
g11
(lp1891
sg13
S'android.service.media.MediaBrowserService'
p1892
sg15
(lp1893
sg17
(lp1894
sg19
(lp1895
sg21
I0
sba(iArchitecture
Entity
p1896
(dp1897
g11
(lp1898
sg13
S'android.service.media.MediaBrowserService$1'
p1899
sg15
(lp1900
sg17
(lp1901
sg19
(lp1902
sg21
I0
sba(iArchitecture
Entity
p1903
(dp1904
g11
(lp1905
sg13
S'android.service.media.MediaBrowserService$2'
p1906
sg15
(lp1907
sg17
(lp1908
sg19
(lp1909
sg21
I0
sba(iArchitecture
Entity
p1910
(dp1911
g11
(lp1912
sg13
S'android.service.media.MediaBrowserService$3'
p1913
sg15
(lp1914
sg17
(lp1915
sg19
(lp1916
sg21
I0
sba(iArchitecture
Entity
p1917
(dp1918
g11
(lp1919
sg13
S'android.service.media.MediaBrowserService$4'
p1920
sg15
(lp1921
sg17
(lp1922
sg19
(lp1923
sg21
I0
sba(iArchitecture
Entity
p1924
(dp1925
g11
(lp1926
sg13
S'android.service.media.MediaBrowserService$BrowserRoot'
p1927
sg15
(lp1928
sg17
(lp1929
sg19
(lp1930
sg21
I0
sba(iArchitecture
Entity
p1931
(dp1932
g11
(lp1933
sg13
S'android.service.media.MediaBrowserService$ConnectionRecord'
p1934
sg15
(lp1935
sg17
(lp1936
sg19
(lp1937
sg21
I0
sba(iArchitecture
Entity
p1938
(dp1939
g11
(lp1940
sg13
S'android.service.media.MediaBrowserService$Result'
p1941
sg15
(lp1942
sg17
(lp1943
sg19
(lp1944
sg21
I0
sba(iArchitecture
Entity
p1945
(dp1946
g11
(lp1947
sg13
S'android.service.media.MediaBrowserService$ServiceBinder'
p1948
sg15
(lp1949
sg17
(lp1950
sg19
(lp1951
sg21
I0
sba(iArchitecture
Entity
p1952
(dp1953
g11
(lp1954
sg13
S'android.service.media.MediaBrowserService$ServiceBinder$1'
p1955
sg15
(lp1956
sg17
(lp1957
sg19
(lp1958
sg21
I0
sba(iArchitecture
Entity
p1959
(dp1960
g11
(lp1961
sg13
S'android.service.media.MediaBrowserService$ServiceBinder$2'
p1962
sg15
(lp1963
sg17
(lp1964
sg19
(lp1965
sg21
I0
sba(iArchitecture
Entity
p1966
(dp1967
g11
(lp1968
sg13
S'android.service.media.MediaBrowserService$ServiceBinder$3'
p1969
sg15
(lp1970
sg17
(lp1971
sg19
(lp1972
sg21
I0
sba(iArchitecture
Entity
p1973
(dp1974
g11
(lp1975
sg13
S'android.service.media.MediaBrowserService$ServiceBinder$4'
p1976
sg15
(lp1977
sg17
(lp1978
sg19
(lp1979
sg21
I0
sba(iArchitecture
Entity
p1980
(dp1981
g11
(lp1982
sg13
S'android.service.media.MediaBrowserService$ServiceBinder$5'
p1983
sg15
(lp1984
sg17
(lp1985
sg19
(lp1986
sg21
I0
sbasg50
(lp1987
g1864
ag1871
ag1878
ag1885
ag1892
ag1899
ag1906
ag1913
ag1920
ag1927
ag1934
ag1941
ag1948
ag1955
ag1962
ag1969
ag1976
ag1983
asg21
I0
sg52
S'android.service.media.ss'
p1988
sba(iArchitecture
Cluster
p1989
(dp1990
g7
(lp1991
(iArchitecture
Entity
p1992
(dp1993
g11
(lp1994
sg13
S'android.service.notification.Adjustment'
p1995
sg15
(lp1996
sg17
(lp1997
sg19
(lp1998
sg21
I0
sba(iArchitecture
Entity
p1999
(dp2000
g11
(lp2001
sg13
S'android.service.notification.Adjustment$1'
p2002
sg15
(lp2003
sg17
(lp2004
sg19
(lp2005
sg21
I0
sba(iArchitecture
Entity
p2006
(dp2007
g11
(lp2008
sg13
S'android.service.notification.Condition'
p2009
sg15
(lp2010
sg17
(lp2011
sg19
(lp2012
sg21
I0
sba(iArchitecture
Entity
p2013
(dp2014
g11
(lp2015
sg13
S'android.service.notification.Condition$1'
p2016
sg15
(lp2017
sg17
(lp2018
sg19
(lp2019
sg21
I0
sba(iArchitecture
Entity
p2020
(dp2021
g11
(lp2022
sg13
S'android.service.notification.ConditionProviderService'
p2023
sg15
(lp2024
sg17
(lp2025
sg19
(lp2026
sg21
I0
sba(iArchitecture
Entity
p2027
(dp2028
g11
(lp2029
sg13
S'android.service.notification.ConditionProviderService$H'
p2030
sg15
(lp2031
sg17
(lp2032
sg19
(lp2033
sg21
I0
sba(iArchitecture
Entity
p2034
(dp2035
g11
(lp2036
sg13
S'android.service.notification.ConditionProviderService$Provider'
p2037
sg15
(lp2038
sg17
(lp2039
sg19
(lp2040
sg21
I0
sba(iArchitecture
Entity
p2041
(dp2042
g11
(lp2043
sg13
S'android.service.notification.IConditionListener'
p2044
sg15
(lp2045
sg17
(lp2046
sg19
(lp2047
sg21
I0
sba(iArchitecture
Entity
p2048
(dp2049
g11
(lp2050
sg13
S'android.service.notification.IConditionListener$Stub'
p2051
sg15
(lp2052
sg17
(lp2053
sg19
(lp2054
sg21
I0
sba(iArchitecture
Entity
p2055
(dp2056
g11
(lp2057
sg13
S'android.service.notification.IConditionListener$Stub$Proxy'
p2058
sg15
(lp2059
sg17
(lp2060
sg19
(lp2061
sg21
I0
sba(iArchitecture
Entity
p2062
(dp2063
g11
(lp2064
sg13
S'android.service.notification.NotificationListenerService'
p2065
sg15
(lp2066
sg17
(lp2067
sg19
(lp2068
sg21
I0
sba(iArchitecture
Entity
p2069
(dp2070
g11
(lp2071
sg13
S'android.service.notification.NotificationListenerService$MyHandler'
p2072
sg15
(lp2073
sg17
(lp2074
sg19
(lp2075
sg21
I0
sba(iArchitecture
Entity
p2076
(dp2077
g11
(lp2078
sg13
S'android.service.notification.NotificationListenerService$NotificationListenerWrapper'
p2079
sg15
(lp2080
sg17
(lp2081
sg19
(lp2082
sg21
I0
sba(iArchitecture
Entity
p2083
(dp2084
g11
(lp2085
sg13
S'android.service.notification.NotificationListenerService$RankingMap'
p2086
sg15
(lp2087
sg17
(lp2088
sg19
(lp2089
sg21
I0
sba(iArchitecture
Entity
p2090
(dp2091
g11
(lp2092
sg13
S'android.service.notification.NotificationListenerService$RankingMap$1'
p2093
sg15
(lp2094
sg17
(lp2095
sg19
(lp2096
sg21
I0
sba(iArchitecture
Entity
p2097
(dp2098
g11
(lp2099
sg13
S'android.service.notification.NotificationRankerService'
p2100
sg15
(lp2101
sg17
(lp2102
sg19
(lp2103
sg21
I0
sba(iArchitecture
Entity
p2104
(dp2105
g11
(lp2106
sg13
S'android.service.notification.NotificationRankerService$MyHandler'
p2107
sg15
(lp2108
sg17
(lp2109
sg19
(lp2110
sg21
I0
sba(iArchitecture
Entity
p2111
(dp2112
g11
(lp2113
sg13
S'android.service.notification.NotificationRankerService$NotificationRankingServiceWrapper'
p2114
sg15
(lp2115
sg17
(lp2116
sg19
(lp2117
sg21
I0
sba(iArchitecture
Entity
p2118
(dp2119
g11
(lp2120
sg13
S'android.service.notification.NotificationRankingUpdate'
p2121
sg15
(lp2122
sg17
(lp2123
sg19
(lp2124
sg21
I0
sba(iArchitecture
Entity
p2125
(dp2126
g11
(lp2127
sg13
S'android.service.notification.NotificationRankingUpdate$1'
p2128
sg15
(lp2129
sg17
(lp2130
sg19
(lp2131
sg21
I0
sba(iArchitecture
Entity
p2132
(dp2133
g11
(lp2134
sg13
S'android.service.notification.StatusBarNotification'
p2135
sg15
(lp2136
sg17
(lp2137
sg19
(lp2138
sg21
I0
sba(iArchitecture
Entity
p2139
(dp2140
g11
(lp2141
sg13
S'android.service.notification.StatusBarNotification$1'
p2142
sg15
(lp2143
sg17
(lp2144
sg19
(lp2145
sg21
I0
sba(iArchitecture
Entity
p2146
(dp2147
g11
(lp2148
sg13
S'android.service.notification.ZenModeConfig'
p2149
sg15
(lp2150
sg17
(lp2151
sg19
(lp2152
sg21
I0
sba(iArchitecture
Entity
p2153
(dp2154
g11
(lp2155
sg13
S'android.service.notification.ZenModeConfig$1'
p2156
sg15
(lp2157
sg17
(lp2158
sg19
(lp2159
sg21
I0
sbasg50
(lp2160
g1995
ag2002
ag2009
ag2016
ag2023
ag2030
ag2037
ag2044
ag2051
ag2058
ag2065
ag2072
ag2079
ag2086
ag2093
ag2100
ag2107
ag2114
ag2121
ag2128
ag2135
ag2142
ag2149
ag2156
asg21
I0
sg52
S'android.service.notification.ss'
p2161
sba(iArchitecture
Cluster
p2162
(dp2163
g7
(lp2164
(iArchitecture
Entity
p2165
(dp2166
g11
(lp2167
sg13
S'android.service.quicksettings.IQSService'
p2168
sg15
(lp2169
sg17
(lp2170
sg19
(lp2171
sg21
I0
sba(iArchitecture
Entity
p2172
(dp2173
g11
(lp2174
sg13
S'android.service.quicksettings.IQSService$Stub'
p2175
sg15
(lp2176
sg17
(lp2177
sg19
(lp2178
sg21
I0
sba(iArchitecture
Entity
p2179
(dp2180
g11
(lp2181
sg13
S'android.service.quicksettings.IQSService$Stub$Proxy'
p2182
sg15
(lp2183
sg17
(lp2184
sg19
(lp2185
sg21
I0
sba(iArchitecture
Entity
p2186
(dp2187
g11
(lp2188
sg13
S'android.service.quicksettings.IQSTileService'
p2189
sg15
(lp2190
sg17
(lp2191
sg19
(lp2192
sg21
I0
sba(iArchitecture
Entity
p2193
(dp2194
g11
(lp2195
sg13
S'android.service.quicksettings.IQSTileService$Stub'
p2196
sg15
(lp2197
sg17
(lp2198
sg19
(lp2199
sg21
I0
sba(iArchitecture
Entity
p2200
(dp2201
g11
(lp2202
sg13
S'android.service.quicksettings.IQSTileService$Stub$Proxy'
p2203
sg15
(lp2204
sg17
(lp2205
sg19
(lp2206
sg21
I0
sba(iArchitecture
Entity
p2207
(dp2208
g11
(lp2209
sg13
S'android.service.quicksettings.Tile'
p2210
sg15
(lp2211
sg17
(lp2212
sg19
(lp2213
sg21
I0
sba(iArchitecture
Entity
p2214
(dp2215
g11
(lp2216
sg13
S'android.service.quicksettings.Tile$1'
p2217
sg15
(lp2218
sg17
(lp2219
sg19
(lp2220
sg21
I0
sba(iArchitecture
Entity
p2221
(dp2222
g11
(lp2223
sg13
S'android.service.quicksettings.TileService'
p2224
sg15
(lp2225
sg17
(lp2226
sg19
(lp2227
sg21
I0
sba(iArchitecture
Entity
p2228
(dp2229
g11
(lp2230
sg13
S'android.service.quicksettings.TileService$1'
p2231
sg15
(lp2232
sg17
(lp2233
sg19
(lp2234
sg21
I0
sba(iArchitecture
Entity
p2235
(dp2236
g11
(lp2237
sg13
S'android.service.quicksettings.TileService$2'
p2238
sg15
(lp2239
sg17
(lp2240
sg19
(lp2241
sg21
I0
sba(iArchitecture
Entity
p2242
(dp2243
g11
(lp2244
sg13
S'android.service.quicksettings.TileService$H'
p2245
sg15
(lp2246
sg17
(lp2247
sg19
(lp2248
sg21
I0
sbasg50
(lp2249
g2168
ag2175
ag2182
ag2189
ag2196
ag2203
ag2210
ag2217
ag2224
ag2231
ag2238
ag2245
asg21
I0
sg52
S'android.service.quicksettings.ss'
p2250
sba(iArchitecture
Cluster
p2251
(dp2252
g7
(lp2253
(iArchitecture
Entity
p2254
(dp2255
g11
(lp2256
sg13
S'android.service.textservice.SpellCheckerService'
p2257
sg15
(lp2258
sg17
(lp2259
sg19
(lp2260
sg21
I0
sba(iArchitecture
Entity
p2261
(dp2262
g11
(lp2263
sg13
S'android.service.textservice.SpellCheckerService$InternalISpellCheckerSession'
p2264
sg15
(lp2265
sg17
(lp2266
sg19
(lp2267
sg21
I0
sba(iArchitecture
Entity
p2268
(dp2269
g11
(lp2270
sg13
S'android.service.textservice.SpellCheckerService$SentenceLevelAdapter'
p2271
sg15
(lp2272
sg17
(lp2273
sg19
(lp2274
sg21
I0
sba(iArchitecture
Entity
p2275
(dp2276
g11
(lp2277
sg13
S'android.service.textservice.SpellCheckerService$SentenceLevelAdapter$SentenceTextInfoParams'
p2278
sg15
(lp2279
sg17
(lp2280
sg19
(lp2281
sg21
I0
sba(iArchitecture
Entity
p2282
(dp2283
g11
(lp2284
sg13
S'android.service.textservice.SpellCheckerService$SentenceLevelAdapter$SentenceWordItem'
p2285
sg15
(lp2286
sg17
(lp2287
sg19
(lp2288
sg21
I0
sba(iArchitecture
Entity
p2289
(dp2290
g11
(lp2291
sg13
S'android.service.textservice.SpellCheckerService$Session'
p2292
sg15
(lp2293
sg17
(lp2294
sg19
(lp2295
sg21
I0
sba(iArchitecture
Entity
p2296
(dp2297
g11
(lp2298
sg13
S'android.service.textservice.SpellCheckerService$SpellCheckerServiceBinder'
p2299
sg15
(lp2300
sg17
(lp2301
sg19
(lp2302
sg21
I0
sbasg50
(lp2303
g2257
ag2264
ag2271
ag2278
ag2285
ag2292
ag2299
asg21
I0
sg52
S'android.service.textservice.ss'
p2304
sba(iArchitecture
Cluster
p2305
(dp2306
g7
(lp2307
(iArchitecture
Entity
p2308
(dp2309
g11
(lp2310
sg13
S'android.service.trust.TrustAgentService'
p2311
sg15
(lp2312
sg17
(lp2313
sg19
(lp2314
sg21
I0
sba(iArchitecture
Entity
p2315
(dp2316
g11
(lp2317
sg13
S'android.service.trust.TrustAgentService$1'
p2318
sg15
(lp2319
sg17
(lp2320
sg19
(lp2321
sg21
I0
sba(iArchitecture
Entity
p2322
(dp2323
g11
(lp2324
sg13
S'android.service.trust.TrustAgentService$2'
p2325
sg15
(lp2326
sg17
(lp2327
sg19
(lp2328
sg21
I0
sba(iArchitecture
Entity
p2329
(dp2330
g11
(lp2331
sg13
S'android.service.trust.TrustAgentService$ConfigurationData'
p2332
sg15
(lp2333
sg17
(lp2334
sg19
(lp2335
sg21
I0
sba(iArchitecture
Entity
p2336
(dp2337
g11
(lp2338
sg13
S'android.service.trust.TrustAgentService$TrustAgentServiceWrapper'
p2339
sg15
(lp2340
sg17
(lp2341
sg19
(lp2342
sg21
I0
sbasg50
(lp2343
g2311
ag2318
ag2325
ag2332
ag2339
asg21
I0
sg52
S'android.service.trust.ss'
p2344
sba(iArchitecture
Cluster
p2345
(dp2346
g7
(lp2347
(iArchitecture
Entity
p2348
(dp2349
g11
(lp2350
sg13
S'android.service.voice.AlwaysOnHotwordDetector'
p2351
sg15
(lp2352
sg17
(lp2353
sg19
(lp2354
sg21
I0
sba(iArchitecture
Entity
p2355
(dp2356
g11
(lp2357
sg13
S'android.service.voice.AlwaysOnHotwordDetector$Callback'
p2358
sg15
(lp2359
sg17
(lp2360
sg19
(lp2361
sg21
I0
sba(iArchitecture
Entity
p2362
(dp2363
g11
(lp2364
sg13
S'android.service.voice.AlwaysOnHotwordDetector$EventPayload'
p2365
sg15
(lp2366
sg17
(lp2367
sg19
(lp2368
sg21
I0
sba(iArchitecture
Entity
p2369
(dp2370
g11
(lp2371
sg13
S'android.service.voice.AlwaysOnHotwordDetector$MyHandler'
p2372
sg15
(lp2373
sg17
(lp2374
sg19
(lp2375
sg21
I0
sba(iArchitecture
Entity
p2376
(dp2377
g11
(lp2378
sg13
S'android.service.voice.AlwaysOnHotwordDetector$RefreshAvailabiltyTask'
p2379
sg15
(lp2380
sg17
(lp2381
sg19
(lp2382
sg21
I0
sba(iArchitecture
Entity
p2383
(dp2384
g11
(lp2385
sg13
S'android.service.voice.AlwaysOnHotwordDetector$SoundTriggerListener'
p2386
sg15
(lp2387
sg17
(lp2388
sg19
(lp2389
sg21
I0
sba(iArchitecture
Entity
p2390
(dp2391
g11
(lp2392
sg13
S'android.service.voice.IVoiceInteractionService'
p2393
sg15
(lp2394
sg17
(lp2395
sg19
(lp2396
sg21
I0
sba(iArchitecture
Entity
p2397
(dp2398
g11
(lp2399
sg13
S'android.service.voice.IVoiceInteractionService$Stub'
p2400
sg15
(lp2401
sg17
(lp2402
sg19
(lp2403
sg21
I0
sba(iArchitecture
Entity
p2404
(dp2405
g11
(lp2406
sg13
S'android.service.voice.IVoiceInteractionService$Stub$Proxy'
p2407
sg15
(lp2408
sg17
(lp2409
sg19
(lp2410
sg21
I0
sba(iArchitecture
Entity
p2411
(dp2412
g11
(lp2413
sg13
S'android.service.voice.VoiceInteractionService'
p2414
sg15
(lp2415
sg17
(lp2416
sg19
(lp2417
sg21
I0
sba(iArchitecture
Entity
p2418
(dp2419
g11
(lp2420
sg13
S'android.service.voice.VoiceInteractionService$1'
p2421
sg15
(lp2422
sg17
(lp2423
sg19
(lp2424
sg21
I0
sba(iArchitecture
Entity
p2425
(dp2426
g11
(lp2427
sg13
S'android.service.voice.VoiceInteractionService$MyHandler'
p2428
sg15
(lp2429
sg17
(lp2430
sg19
(lp2431
sg21
I0
sba(iArchitecture
Entity
p2432
(dp2433
g11
(lp2434
sg13
S'android.service.voice.VoiceInteractionSession'
p2435
sg15
(lp2436
sg17
(lp2437
sg19
(lp2438
sg21
I0
sba(iArchitecture
Entity
p2439
(dp2440
g11
(lp2441
sg13
S'android.service.voice.VoiceInteractionSession$1'
p2442
sg15
(lp2443
sg17
(lp2444
sg19
(lp2445
sg21
I0
sba(iArchitecture
Entity
p2446
(dp2447
g11
(lp2448
sg13
S'android.service.voice.VoiceInteractionSession$2'
p2449
sg15
(lp2450
sg17
(lp2451
sg19
(lp2452
sg21
I0
sba(iArchitecture
Entity
p2453
(dp2454
g11
(lp2455
sg13
S'android.service.voice.VoiceInteractionSession$2$1'
p2456
sg15
(lp2457
sg17
(lp2458
sg19
(lp2459
sg21
I0
sba(iArchitecture
Entity
p2460
(dp2461
g11
(lp2462
sg13
S'android.service.voice.VoiceInteractionSession$3'
p2463
sg15
(lp2464
sg17
(lp2465
sg19
(lp2466
sg21
I0
sba(iArchitecture
Entity
p2467
(dp2468
g11
(lp2469
sg13
S'android.service.voice.VoiceInteractionSession$4'
p2470
sg15
(lp2471
sg17
(lp2472
sg19
(lp2473
sg21
I0
sba(iArchitecture
Entity
p2474
(dp2475
g11
(lp2476
sg13
S'android.service.voice.VoiceInteractionSession$AbortVoiceRequest'
p2477
sg15
(lp2478
sg17
(lp2479
sg19
(lp2480
sg21
I0
sba(iArchitecture
Entity
p2481
(dp2482
g11
(lp2483
sg13
S'android.service.voice.VoiceInteractionSession$CommandRequest'
p2484
sg15
(lp2485
sg17
(lp2486
sg19
(lp2487
sg21
I0
sba(iArchitecture
Entity
p2488
(dp2489
g11
(lp2490
sg13
S'android.service.voice.VoiceInteractionSession$CompleteVoiceRequest'
p2491
sg15
(lp2492
sg17
(lp2493
sg19
(lp2494
sg21
I0
sba(iArchitecture
Entity
p2495
(dp2496
g11
(lp2497
sg13
S'android.service.voice.VoiceInteractionSession$ConfirmationRequest'
p2498
sg15
(lp2499
sg17
(lp2500
sg19
(lp2501
sg21
I0
sba(iArchitecture
Entity
p2502
(dp2503
g11
(lp2504
sg13
S'android.service.voice.VoiceInteractionSession$Insets'
p2505
sg15
(lp2506
sg17
(lp2507
sg19
(lp2508
sg21
I0
sba(iArchitecture
Entity
p2509
(dp2510
g11
(lp2511
sg13
S'android.service.voice.VoiceInteractionSession$MyCallbacks'
p2512
sg15
(lp2513
sg17
(lp2514
sg19
(lp2515
sg21
I0
sba(iArchitecture
Entity
p2516
(dp2517
g11
(lp2518
sg13
S'android.service.voice.VoiceInteractionSession$PickOptionRequest'
p2519
sg15
(lp2520
sg17
(lp2521
sg19
(lp2522
sg21
I0
sba(iArchitecture
Entity
p2523
(dp2524
g11
(lp2525
sg13
S'android.service.voice.VoiceInteractionSession$Request'
p2526
sg15
(lp2527
sg17
(lp2528
sg19
(lp2529
sg21
I0
sba(iArchitecture
Entity
p2530
(dp2531
g11
(lp2532
sg13
S'android.service.voice.VoiceInteractionSession$Request$1'
p2533
sg15
(lp2534
sg17
(lp2535
sg19
(lp2536
sg21
I0
sba(iArchitecture
Entity
p2537
(dp2538
g11
(lp2539
sg13
S'android.service.voice.VoiceInteractionSessionService'
p2540
sg15
(lp2541
sg17
(lp2542
sg19
(lp2543
sg21
I0
sba(iArchitecture
Entity
p2544
(dp2545
g11
(lp2546
sg13
S'android.service.voice.VoiceInteractionSessionService$1'
p2547
sg15
(lp2548
sg17
(lp2549
sg19
(lp2550
sg21
I0
sba(iArchitecture
Entity
p2551
(dp2552
g11
(lp2553
sg13
S'android.service.voice.VoiceInteractionSessionService$2'
p2554
sg15
(lp2555
sg17
(lp2556
sg19
(lp2557
sg21
I0
sbasg50
(lp2558
g2351
ag2358
ag2365
ag2372
ag2379
ag2386
ag2393
ag2400
ag2407
ag2414
ag2421
ag2428
ag2435
ag2442
ag2449
ag2456
ag2463
ag2470
ag2477
ag2484
ag2491
ag2498
ag2505
ag2512
ag2519
ag2526
ag2533
ag2540
ag2547
ag2554
asg21
I0
sg52
S'android.service.voice.ss'
p2559
sba(iArchitecture
Cluster
p2560
(dp2561
g7
(lp2562
(iArchitecture
Entity
p2563
(dp2564
g11
(lp2565
sg13
S'android.service.vr.VrListenerService'
p2566
sg15
(lp2567
sg17
(lp2568
sg19
(lp2569
sg21
I0
sba(iArchitecture
Entity
p2570
(dp2571
g11
(lp2572
sg13
S'android.service.vr.VrListenerService$1'
p2573
sg15
(lp2574
sg17
(lp2575
sg19
(lp2576
sg21
I0
sba(iArchitecture
Entity
p2577
(dp2578
g11
(lp2579
sg13
S'android.service.vr.VrListenerService$VrListenerHandler'
p2580
sg15
(lp2581
sg17
(lp2582
sg19
(lp2583
sg21
I0
sbasg50
(lp2584
g2566
ag2573
ag2580
asg21
I0
sg52
S'android.service.vr.ss'
p2585
sba(iArchitecture
Cluster
p2586
(dp2587
g7
(lp2588
(iArchitecture
Entity
p2589
(dp2590
g11
(lp2591
sg13
S'android.service.wallpaper.IWallpaperConnection'
p2592
sg15
(lp2593
sg17
(lp2594
sg19
(lp2595
sg21
I0
sba(iArchitecture
Entity
p2596
(dp2597
g11
(lp2598
sg13
S'android.service.wallpaper.WallpaperService'
p2599
sg15
(lp2600
sg17
(lp2601
sg19
(lp2602
sg21
I0
sba(iArchitecture
Entity
p2603
(dp2604
g11
(lp2605
sg13
S'android.service.wallpaper.WallpaperService$Engine'
p2606
sg15
(lp2607
sg17
(lp2608
sg19
(lp2609
sg21
I0
sba(iArchitecture
Entity
p2610
(dp2611
g11
(lp2612
sg13
S'android.service.wallpaper.WallpaperService$Engine$1'
p2613
sg15
(lp2614
sg17
(lp2615
sg19
(lp2616
sg21
I0
sba(iArchitecture
Entity
p2617
(dp2618
g11
(lp2619
sg13
S'android.service.wallpaper.WallpaperService$Engine$2'
p2620
sg15
(lp2621
sg17
(lp2622
sg19
(lp2623
sg21
I0
sba(iArchitecture
Entity
p2624
(dp2625
g11
(lp2626
sg13
S'android.service.wallpaper.WallpaperService$Engine$3'
p2627
sg15
(lp2628
sg17
(lp2629
sg19
(lp2630
sg21
I0
sba(iArchitecture
Entity
p2631
(dp2632
g11
(lp2633
sg13
S'android.service.wallpaper.WallpaperService$Engine$WallpaperInputEventReceiver'
p2634
sg15
(lp2635
sg17
(lp2636
sg19
(lp2637
sg21
I0
sba(iArchitecture
Entity
p2638
(dp2639
g11
(lp2640
sg13
S'android.service.wallpaper.WallpaperService$IWallpaperEngineWrapper'
p2641
sg15
(lp2642
sg17
(lp2643
sg19
(lp2644
sg21
I0
sba(iArchitecture
Entity
p2645
(dp2646
g11
(lp2647
sg13
S'android.service.wallpaper.WallpaperService$IWallpaperServiceWrapper'
p2648
sg15
(lp2649
sg17
(lp2650
sg19
(lp2651
sg21
I0
sba(iArchitecture
Entity
p2652
(dp2653
g11
(lp2654
sg13
S'android.service.wallpaper.WallpaperService$WallpaperCommand'
p2655
sg15
(lp2656
sg17
(lp2657
sg19
(lp2658
sg21
I0
sbasg50
(lp2659
g2592
ag2599
ag2606
ag2613
ag2620
ag2627
ag2634
ag2641
ag2648
ag2655
asg21
I0
sg52
S'android.service.wallpaper.ss'
p2660
sba(iArchitecture
Cluster
p2661
(dp2662
g7
(lp2663
(iArchitecture
Entity
p2664
(dp2665
g11
(lp2666
sg13
S'android.service.chooser.IChooserTargetResult'
p2667
sg15
(lp2668
sg17
(lp2669
sg19
(lp2670
sg21
I0
sba(iArchitecture
Entity
p2671
(dp2672
g11
(lp2673
sg13
S'android.service.chooser.IChooserTargetResult$Stub'
p2674
sg15
(lp2675
sg17
(lp2676
sg19
(lp2677
sg21
I0
sba(iArchitecture
Entity
p2678
(dp2679
g11
(lp2680
sg13
S'android.service.chooser.IChooserTargetResult$Stub$Proxy'
p2681
sg15
(lp2682
sg17
(lp2683
sg19
(lp2684
sg21
I0
sba(iArchitecture
Entity
p2685
(dp2686
g11
(lp2687
sg13
S'android.service.chooser.IChooserTargetService'
p2688
sg15
(lp2689
sg17
(lp2690
sg19
(lp2691
sg21
I0
sba(iArchitecture
Entity
p2692
(dp2693
g11
(lp2694
sg13
S'android.service.chooser.IChooserTargetService$Stub'
p2695
sg15
(lp2696
sg17
(lp2697
sg19
(lp2698
sg21
I0
sba(iArchitecture
Entity
p2699
(dp2700
g11
(lp2701
sg13
S'android.service.chooser.IChooserTargetService$Stub$Proxy'
p2702
sg15
(lp2703
sg17
(lp2704
sg19
(lp2705
sg21
I0
sbasg50
(lp2706
g2667
ag2674
ag2681
ag2688
ag2695
ag2702
asg21
I0
sg52
S'com.android.internal.app.ss'
p2707
sba(iArchitecture
Cluster
p2708
(dp2709
g7
(lp2710
(iArchitecture
Entity
p2711
(dp2712
g11
(lp2713
sg13
S'android.service.voice.IVoiceInteractionSession'
p2714
sg15
(lp2715
sg17
(lp2716
sg19
(lp2717
sg21
I0
sba(iArchitecture
Entity
p2718
(dp2719
g11
(lp2720
sg13
S'android.service.voice.IVoiceInteractionSession$Stub'
p2721
sg15
(lp2722
sg17
(lp2723
sg19
(lp2724
sg21
I0
sba(iArchitecture
Entity
p2725
(dp2726
g11
(lp2727
sg13
S'android.service.voice.IVoiceInteractionSession$Stub$Proxy'
p2728
sg15
(lp2729
sg17
(lp2730
sg19
(lp2731
sg21
I0
sbasg50
(lp2732
g2714
ag2721
ag2728
asg21
I0
sg52
S'com.android.server.am.ss'
p2733
sba(iArchitecture
Cluster
p2734
(dp2735
g7
(lp2736
(iArchitecture
Entity
p2737
(dp2738
g11
(lp2739
sg13
S'android.service.dreams.DreamManagerInternal'
p2740
sg15
(lp2741
sg17
(lp2742
sg19
(lp2743
sg21
I0
sba(iArchitecture
Entity
p2744
(dp2745
g11
(lp2746
sg13
S'android.service.dreams.IDreamService'
p2747
sg15
(lp2748
sg17
(lp2749
sg19
(lp2750
sg21
I0
sba(iArchitecture
Entity
p2751
(dp2752
g11
(lp2753
sg13
S'android.service.dreams.IDreamService$Stub'
p2754
sg15
(lp2755
sg17
(lp2756
sg19
(lp2757
sg21
I0
sba(iArchitecture
Entity
p2758
(dp2759
g11
(lp2760
sg13
S'android.service.dreams.IDreamService$Stub$Proxy'
p2761
sg15
(lp2762
sg17
(lp2763
sg19
(lp2764
sg21
I0
sbasg50
(lp2765
g2740
ag2747
ag2754
ag2761
asg21
I0
sg52
S'com.android.server.dreams.ss'
p2766
sba(iArchitecture
Cluster
p2767
(dp2768
g7
(lp2769
(iArchitecture
Entity
p2770
(dp2771
g11
(lp2772
sg13
S'android.service.notification.IConditionProvider'
p2773
sg15
(lp2774
sg17
(lp2775
sg19
(lp2776
sg21
I0
sba(iArchitecture
Entity
p2777
(dp2778
g11
(lp2779
sg13
S'android.service.notification.IConditionProvider$Stub'
p2780
sg15
(lp2781
sg17
(lp2782
sg19
(lp2783
sg21
I0
sba(iArchitecture
Entity
p2784
(dp2785
g11
(lp2786
sg13
S'android.service.notification.IConditionProvider$Stub$Proxy'
p2787
sg15
(lp2788
sg17
(lp2789
sg19
(lp2790
sg21
I0
sba(iArchitecture
Entity
p2791
(dp2792
g11
(lp2793
sg13
S'android.service.notification.INotificationListener'
p2794
sg15
(lp2795
sg17
(lp2796
sg19
(lp2797
sg21
I0
sba(iArchitecture
Entity
p2798
(dp2799
g11
(lp2800
sg13
S'android.service.notification.INotificationListener$Stub'
p2801
sg15
(lp2802
sg17
(lp2803
sg19
(lp2804
sg21
I0
sba(iArchitecture
Entity
p2805
(dp2806
g11
(lp2807
sg13
S'android.service.notification.INotificationListener$Stub$Proxy'
p2808
sg15
(lp2809
sg17
(lp2810
sg19
(lp2811
sg21
I0
sba(iArchitecture
Entity
p2812
(dp2813
g11
(lp2814
sg13
S'android.service.notification.IStatusBarNotificationHolder'
p2815
sg15
(lp2816
sg17
(lp2817
sg19
(lp2818
sg21
I0
sba(iArchitecture
Entity
p2819
(dp2820
g11
(lp2821
sg13
S'android.service.notification.IStatusBarNotificationHolder$Stub'
p2822
sg15
(lp2823
sg17
(lp2824
sg19
(lp2825
sg21
I0
sba(iArchitecture
Entity
p2826
(dp2827
g11
(lp2828
sg13
S'android.service.notification.IStatusBarNotificationHolder$Stub$Proxy'
p2829
sg15
(lp2830
sg17
(lp2831
sg19
(lp2832
sg21
I0
sba(iArchitecture
Entity
p2833
(dp2834
g11
(lp2835
sg13
S'android.service.notification.NotificationListenerService$Ranking'
p2836
sg15
(lp2837
sg17
(lp2838
sg19
(lp2839
sg21
I0
sba(iArchitecture
Entity
p2840
(dp2841
g11
(lp2842
sg13
S'android.service.notification.ZenModeConfig$Diff'
p2843
sg15
(lp2844
sg17
(lp2845
sg19
(lp2846
sg21
I0
sba(iArchitecture
Entity
p2847
(dp2848
g11
(lp2849
sg13
S'android.service.notification.ZenModeConfig$EventInfo'
p2850
sg15
(lp2851
sg17
(lp2852
sg19
(lp2853
sg21
I0
sba(iArchitecture
Entity
p2854
(dp2855
g11
(lp2856
sg13
S'android.service.notification.ZenModeConfig$Migration'
p2857
sg15
(lp2858
sg17
(lp2859
sg19
(lp2860
sg21
I0
sba(iArchitecture
Entity
p2861
(dp2862
g11
(lp2863
sg13
S'android.service.notification.ZenModeConfig$ScheduleInfo'
p2864
sg15
(lp2865
sg17
(lp2866
sg19
(lp2867
sg21
I0
sba(iArchitecture
Entity
p2868
(dp2869
g11
(lp2870
sg13
S'android.service.notification.ZenModeConfig$XmlV1'
p2871
sg15
(lp2872
sg17
(lp2873
sg19
(lp2874
sg21
I0
sba(iArchitecture
Entity
p2875
(dp2876
g11
(lp2877
sg13
S'android.service.notification.ZenModeConfig$ZenRule'
p2878
sg15
(lp2879
sg17
(lp2880
sg19
(lp2881
sg21
I0
sba(iArchitecture
Entity
p2882
(dp2883
g11
(lp2884
sg13
S'android.service.notification.ZenModeConfig$ZenRule$1'
p2885
sg15
(lp2886
sg17
(lp2887
sg19
(lp2888
sg21
I0
sbasg50
(lp2889
g2773
ag2780
ag2787
ag2794
ag2801
ag2808
ag2815
ag2822
ag2829
ag2836
ag2843
ag2850
ag2857
ag2864
ag2871
ag2878
ag2885
asg21
I0
sg52
S'com.android.server.notification.ss'
p2890
sba(iArchitecture
Cluster
p2891
(dp2892
g7
(lp2893
(iArchitecture
Entity
p2894
(dp2895
g11
(lp2896
sg13
S'android.service.gatekeeper.IGateKeeperService'
p2897
sg15
(lp2898
sg17
(lp2899
sg19
(lp2900
sg21
I0
sba(iArchitecture
Entity
p2901
(dp2902
g11
(lp2903
sg13
S'android.service.gatekeeper.IGateKeeperService$Stub'
p2904
sg15
(lp2905
sg17
(lp2906
sg19
(lp2907
sg21
I0
sba(iArchitecture
Entity
p2908
(dp2909
g11
(lp2910
sg13
S'android.service.gatekeeper.IGateKeeperService$Stub$Proxy'
p2911
sg15
(lp2912
sg17
(lp2913
sg19
(lp2914
sg21
I0
sba(iArchitecture
Entity
p2915
(dp2916
g11
(lp2917
sg13
S'android.service.wallpaper.WallpaperSettingsActivity'
p2918
sg15
(lp2919
sg17
(lp2920
sg19
(lp2921
sg21
I0
sbasg50
(lp2922
g2897
ag2904
ag2911
ag2918
asg21
I0
sg52
S'com.android.server.pm.ss'
p2923
sba(iArchitecture
Cluster
p2924
(dp2925
g7
(lp2926
(iArchitecture
Entity
p2927
(dp2928
g11
(lp2929
sg13
S'android.service.dreams.IDreamManager'
p2930
sg15
(lp2931
sg17
(lp2932
sg19
(lp2933
sg21
I0
sba(iArchitecture
Entity
p2934
(dp2935
g11
(lp2936
sg13
S'android.service.dreams.IDreamManager$Stub'
p2937
sg15
(lp2938
sg17
(lp2939
sg19
(lp2940
sg21
I0
sba(iArchitecture
Entity
p2941
(dp2942
g11
(lp2943
sg13
S'android.service.dreams.IDreamManager$Stub$Proxy'
p2944
sg15
(lp2945
sg17
(lp2946
sg19
(lp2947
sg21
I0
sbasg50
(lp2948
g2930
ag2937
ag2944
asg21
I0
sg52
S'com.android.server.policy.ss'
p2949
sba(iArchitecture
Cluster
p2950
(dp2951
g7
(lp2952
(iArchitecture
Entity
p2953
(dp2954
g11
(lp2955
sg13
S'android.service.dreams.Sandman'
p2956
sg15
(lp2957
sg17
(lp2958
sg19
(lp2959
sg21
I0
sbasg50
(lp2960
g2956
asg21
I0
sg52
S'com.android.server.ss'
p2961
sba(iArchitecture
Cluster
p2962
(dp2963
g7
(lp2964
(iArchitecture
Entity
p2965
(dp2966
g11
(lp2967
sg13
S'android.service.trust.ITrustAgentService'
p2968
sg15
(lp2969
sg17
(lp2970
sg19
(lp2971
sg21
I0
sba(iArchitecture
Entity
p2972
(dp2973
g11
(lp2974
sg13
S'android.service.trust.ITrustAgentService$Stub'
p2975
sg15
(lp2976
sg17
(lp2977
sg19
(lp2978
sg21
I0
sba(iArchitecture
Entity
p2979
(dp2980
g11
(lp2981
sg13
S'android.service.trust.ITrustAgentService$Stub$Proxy'
p2982
sg15
(lp2983
sg17
(lp2984
sg19
(lp2985
sg21
I0
sba(iArchitecture
Entity
p2986
(dp2987
g11
(lp2988
sg13
S'android.service.trust.ITrustAgentServiceCallback'
p2989
sg15
(lp2990
sg17
(lp2991
sg19
(lp2992
sg21
I0
sba(iArchitecture
Entity
p2993
(dp2994
g11
(lp2995
sg13
S'android.service.trust.ITrustAgentServiceCallback$Stub'
p2996
sg15
(lp2997
sg17
(lp2998
sg19
(lp2999
sg21
I0
sba(iArchitecture
Entity
p3000
(dp3001
g11
(lp3002
sg13
S'android.service.trust.ITrustAgentServiceCallback$Stub$Proxy'
p3003
sg15
(lp3004
sg17
(lp3005
sg19
(lp3006
sg21
I0
sbasg50
(lp3007
g2968
ag2975
ag2982
ag2989
ag2996
ag3003
asg21
I0
sg52
S'com.android.server.trust.ss'
p3008
sba(iArchitecture
Cluster
p3009
(dp3010
g7
(lp3011
(iArchitecture
Entity
p3012
(dp3013
g11
(lp3014
sg13
S'android.service.voice.IVoiceInteractionSessionService'
p3015
sg15
(lp3016
sg17
(lp3017
sg19
(lp3018
sg21
I0
sba(iArchitecture
Entity
p3019
(dp3020
g11
(lp3021
sg13
S'android.service.voice.IVoiceInteractionSessionService$Stub'
p3022
sg15
(lp3023
sg17
(lp3024
sg19
(lp3025
sg21
I0
sba(iArchitecture
Entity
p3026
(dp3027
g11
(lp3028
sg13
S'android.service.voice.IVoiceInteractionSessionService$Stub$Proxy'
p3029
sg15
(lp3030
sg17
(lp3031
sg19
(lp3032
sg21
I0
sba(iArchitecture
Entity
p3033
(dp3034
g11
(lp3035
sg13
S'android.service.voice.VoiceInteractionManagerInternal'
p3036
sg15
(lp3037
sg17
(lp3038
sg19
(lp3039
sg21
I0
sba(iArchitecture
Entity
p3040
(dp3041
g11
(lp3042
sg13
S'android.service.voice.VoiceInteractionServiceInfo'
p3043
sg15
(lp3044
sg17
(lp3045
sg19
(lp3046
sg21
I0
sbasg50
(lp3047
g3015
ag3022
ag3029
ag3036
ag3043
asg21
I0
sg52
S'com.android.server.voiceinteraction.ss'
p3048
sba(iArchitecture
Cluster
p3049
(dp3050
g7
(lp3051
(iArchitecture
Entity
p3052
(dp3053
g11
(lp3054
sg13
S'android.service.vr.IVrListener'
p3055
sg15
(lp3056
sg17
(lp3057
sg19
(lp3058
sg21
I0
sba(iArchitecture
Entity
p3059
(dp3060
g11
(lp3061
sg13
S'android.service.vr.IVrListener$Stub'
p3062
sg15
(lp3063
sg17
(lp3064
sg19
(lp3065
sg21
I0
sba(iArchitecture
Entity
p3066
(dp3067
g11
(lp3068
sg13
S'android.service.vr.IVrListener$Stub$Proxy'
p3069
sg15
(lp3070
sg17
(lp3071
sg19
(lp3072
sg21
I0
sba(iArchitecture
Entity
p3073
(dp3074
g11
(lp3075
sg13
S'android.service.vr.IVrManager'
p3076
sg15
(lp3077
sg17
(lp3078
sg19
(lp3079
sg21
I0
sba(iArchitecture
Entity
p3080
(dp3081
g11
(lp3082
sg13
S'android.service.vr.IVrManager$Stub'
p3083
sg15
(lp3084
sg17
(lp3085
sg19
(lp3086
sg21
I0
sba(iArchitecture
Entity
p3087
(dp3088
g11
(lp3089
sg13
S'android.service.vr.IVrManager$Stub$Proxy'
p3090
sg15
(lp3091
sg17
(lp3092
sg19
(lp3093
sg21
I0
sba(iArchitecture
Entity
p3094
(dp3095
g11
(lp3096
sg13
S'android.service.vr.IVrStateCallbacks'
p3097
sg15
(lp3098
sg17
(lp3099
sg19
(lp3100
sg21
I0
sba(iArchitecture
Entity
p3101
(dp3102
g11
(lp3103
sg13
S'android.service.vr.IVrStateCallbacks$Stub'
p3104
sg15
(lp3105
sg17
(lp3106
sg19
(lp3107
sg21
I0
sba(iArchitecture
Entity
p3108
(dp3109
g11
(lp3110
sg13
S'android.service.vr.IVrStateCallbacks$Stub$Proxy'
p3111
sg15
(lp3112
sg17
(lp3113
sg19
(lp3114
sg21
I0
sbasg50
(lp3115
g3055
ag3062
ag3069
ag3076
ag3083
ag3090
ag3097
ag3104
ag3111
asg21
I0
sg52
S'com.android.server.vr.ss'
p3116
sba(iArchitecture
Cluster
p3117
(dp3118
g7
(lp3119
(iArchitecture
Entity
p3120
(dp3121
g11
(lp3122
sg13
S'android.service.wallpaper.IWallpaperConnection$Stub'
p3123
sg15
(lp3124
sg17
(lp3125
sg19
(lp3126
sg21
I0
sba(iArchitecture
Entity
p3127
(dp3128
g11
(lp3129
sg13
S'android.service.wallpaper.IWallpaperConnection$Stub$Proxy'
p3130
sg15
(lp3131
sg17
(lp3132
sg19
(lp3133
sg21
I0
sba(iArchitecture
Entity
p3134
(dp3135
g11
(lp3136
sg13
S'android.service.wallpaper.IWallpaperEngine'
p3137
sg15
(lp3138
sg17
(lp3139
sg19
(lp3140
sg21
I0
sba(iArchitecture
Entity
p3141
(dp3142
g11
(lp3143
sg13
S'android.service.wallpaper.IWallpaperEngine$Stub'
p3144
sg15
(lp3145
sg17
(lp3146
sg19
(lp3147
sg21
I0
sba(iArchitecture
Entity
p3148
(dp3149
g11
(lp3150
sg13
S'android.service.wallpaper.IWallpaperEngine$Stub$Proxy'
p3151
sg15
(lp3152
sg17
(lp3153
sg19
(lp3154
sg21
I0
sba(iArchitecture
Entity
p3155
(dp3156
g11
(lp3157
sg13
S'android.service.wallpaper.IWallpaperService'
p3158
sg15
(lp3159
sg17
(lp3160
sg19
(lp3161
sg21
I0
sba(iArchitecture
Entity
p3162
(dp3163
g11
(lp3164
sg13
S'android.service.wallpaper.IWallpaperService$Stub'
p3165
sg15
(lp3166
sg17
(lp3167
sg19
(lp3168
sg21
I0
sba(iArchitecture
Entity
p3169
(dp3170
g11
(lp3171
sg13
S'android.service.wallpaper.IWallpaperService$Stub$Proxy'
p3172
sg15
(lp3173
sg17
(lp3174
sg19
(lp3175
sg21
I0
sbasg50
(lp3176
g3123
ag3130
ag3137
ag3144
ag3151
ag3158
ag3165
ag3172
asg21
I0
sg52
S'com.android.server.wallpaper.ss'
p3177
sbasg1470
g1471
sg50
(lp3178
sg1473
I00
sg52
S'7.0.0_r1'
p3179
sba.