(lp0
(iArchitecture
Architecture
p1
(dp2
S'clusters'
p3
(lp4
(iArchitecture
Cluster
p5
(dp6
S'entities'
p7
(lp8
(iArchitecture
Entity
p9
(dp10
S'issue_ids'
p11
(lp12
sS'name'
p13
S'com.android.server.statusbar.StatusBarManagerInternal'
p14
sS'descs'
p15
(lp16
sS'labels'
p17
(lp18
sS'titles'
p19
(lp20
sS'change'
p21
I0
sbasS'classes'
p22
(lp23
g14
asg21
I0
sS'label'
p24
S'com.android.server.notification.ss'
p25
sba(iArchitecture
Cluster
p26
(dp27
g7
(lp28
(iArchitecture
Entity
p29
(dp30
g11
(lp31
sg13
S'com.android.server.statusbar.StatusBarManagerService'
p32
sg15
(lp33
sg17
(lp34
sg19
(lp35
sg21
I0
sba(iArchitecture
Entity
p36
(dp37
g11
(lp38
sg13
S'com.android.server.statusbar.StatusBarManagerService$1'
p39
sg15
(lp40
sg17
(lp41
sg19
(lp42
sg21
I0
sba(iArchitecture
Entity
p43
(dp44
g11
(lp45
sg13
S'com.android.server.statusbar.StatusBarManagerService$2'
p46
sg15
(lp47
sg17
(lp48
sg19
(lp49
sg21
I0
sba(iArchitecture
Entity
p50
(dp51
g11
(lp52
sg13
S'com.android.server.statusbar.StatusBarManagerService$3'
p53
sg15
(lp54
sg17
(lp55
sg19
(lp56
sg21
I0
sba(iArchitecture
Entity
p57
(dp58
g11
(lp59
sg13
S'com.android.server.statusbar.StatusBarManagerService$4'
p60
sg15
(lp61
sg17
(lp62
sg19
(lp63
sg21
I0
sba(iArchitecture
Entity
p64
(dp65
g11
(lp66
sg13
S'com.android.server.statusbar.StatusBarManagerService$5'
p67
sg15
(lp68
sg17
(lp69
sg19
(lp70
sg21
I0
sba(iArchitecture
Entity
p71
(dp72
g11
(lp73
sg13
S'com.android.server.statusbar.StatusBarManagerService$DisableRecord'
p74
sg15
(lp75
sg17
(lp76
sg19
(lp77
sg21
I0
sbasg22
(lp78
g32
ag39
ag46
ag53
ag60
ag67
ag74
asg21
I0
sg24
S'com.android.server.statusbar.ss'
p79
sbasS'target_sub'
p80
S'com.android.server.statusbar'
p81
sg22
(lp82
sS'is_component_arch'
p83
I00
sg24
S'6.0.0_r1'
p84
sba(iArchitecture
Architecture
p85
(dp86
g3
(lp87
(iArchitecture
Cluster
p88
(dp89
g7
(lp90
(iArchitecture
Entity
p91
(dp92
g11
(lp93
sg13
S'com.android.server.statusbar.StatusBarManagerInternal'
p94
sg15
(lp95
sg17
(lp96
sg19
(lp97
sg21
I0
sbasg22
(lp98
g94
asg21
I0
sg24
S'com.android.server.policy.ss'
p99
sba(iArchitecture
Cluster
p100
(dp101
g7
(lp102
(iArchitecture
Entity
p103
(dp104
g11
(lp105
sg13
S'com.android.server.statusbar.StatusBarManagerService'
p106
sg15
(lp107
sg17
(lp108
sg19
(lp109
sg21
I0
sba(iArchitecture
Entity
p110
(dp111
g11
(lp112
sg13
S'com.android.server.statusbar.StatusBarManagerService$1'
p113
sg15
(lp114
sg17
(lp115
sg19
(lp116
sg21
I0
sba(iArchitecture
Entity
p117
(dp118
g11
(lp119
sg13
S'com.android.server.statusbar.StatusBarManagerService$2'
p120
sg15
(lp121
sg17
(lp122
sg19
(lp123
sg21
I0
sba(iArchitecture
Entity
p124
(dp125
g11
(lp126
sg13
S'com.android.server.statusbar.StatusBarManagerService$3'
p127
sg15
(lp128
sg17
(lp129
sg19
(lp130
sg21
I0
sba(iArchitecture
Entity
p131
(dp132
g11
(lp133
sg13
S'com.android.server.statusbar.StatusBarManagerService$4'
p134
sg15
(lp135
sg17
(lp136
sg19
(lp137
sg21
I0
sba(iArchitecture
Entity
p138
(dp139
g11
(lp140
sg13
S'com.android.server.statusbar.StatusBarManagerService$5'
p141
sg15
(lp142
sg17
(lp143
sg19
(lp144
sg21
I0
sba(iArchitecture
Entity
p145
(dp146
g11
(lp147
sg13
S'com.android.server.statusbar.StatusBarManagerService$DisableRecord'
p148
sg15
(lp149
sg17
(lp150
sg19
(lp151
sg21
I0
sba(iArchitecture
Entity
p152
(dp153
g11
(lp154
sg13
S'com.android.server.statusbar.StatusBarShellCommand'
p155
sg15
(lp156
sg17
(lp157
sg19
(lp158
sg21
I0
sbasg22
(lp159
g106
ag113
ag120
ag127
ag134
ag141
ag148
ag155
asg21
I0
sg24
S'com.android.server.statusbar.ss'
p160
sbasg80
g81
sg22
(lp161
sg83
I00
sg24
S'7.0.0_r1'
p162
sba.