(lp0
(iArchitecture
Architecture
p1
(dp2
S'clusters'
p3
(lp4
(iArchitecture
Cluster
p5
(dp6
S'entities'
p7
(lp8
(iArchitecture
Entity
p9
(dp10
S'issue_ids'
p11
(lp12
sS'name'
p13
S'com.android.server.webkit.WebViewUpdateService'
p14
sS'descs'
p15
(lp16
sS'labels'
p17
(lp18
sS'titles'
p19
(lp20
sS'change'
p21
I0
sba(iArchitecture
Entity
p22
(dp23
g11
(lp24
sg13
S'com.android.server.webkit.WebViewUpdateService$1'
p25
sg15
(lp26
sg17
(lp27
sg19
(lp28
sg21
I0
sba(iArchitecture
Entity
p29
(dp30
g11
(lp31
sg13
S'com.android.server.webkit.WebViewUpdateService$BinderService'
p32
sg15
(lp33
sg17
(lp34
sg19
(lp35
sg21
I0
sbasS'classes'
p36
(lp37
g14
ag25
ag32
asg21
I0
sS'label'
p38
S'com.android.server.webkit.ss'
p39
sbasS'target_sub'
p40
S'com.android.server.webkit'
p41
sg36
(lp42
sS'is_component_arch'
p43
I00
sg38
S'6.0.0_r1'
p44
sba(iArchitecture
Architecture
p45
(dp46
g3
(lp47
(iArchitecture
Cluster
p48
(dp49
g7
(lp50
(iArchitecture
Entity
p51
(dp52
g11
(lp53
sg13
S'com.android.server.webkit.SystemImpl'
p54
sg15
(lp55
sg17
(lp56
sg19
(lp57
sg21
I0
sba(iArchitecture
Entity
p58
(dp59
g11
(lp60
sg13
S'com.android.server.webkit.SystemImpl$1'
p61
sg15
(lp62
sg17
(lp63
sg19
(lp64
sg21
I0
sba(iArchitecture
Entity
p65
(dp66
g11
(lp67
sg13
S'com.android.server.webkit.SystemImpl$LazyHolder'
p68
sg15
(lp69
sg17
(lp70
sg19
(lp71
sg21
I0
sba(iArchitecture
Entity
p72
(dp73
g11
(lp74
sg13
S'com.android.server.webkit.SystemInterface'
p75
sg15
(lp76
sg17
(lp77
sg19
(lp78
sg21
I0
sba(iArchitecture
Entity
p79
(dp80
g11
(lp81
sg13
S'com.android.server.webkit.WebViewUpdateService'
p82
sg15
(lp83
sg17
(lp84
sg19
(lp85
sg21
I0
sba(iArchitecture
Entity
p86
(dp87
g11
(lp88
sg13
S'com.android.server.webkit.WebViewUpdateService$1'
p89
sg15
(lp90
sg17
(lp91
sg19
(lp92
sg21
I0
sba(iArchitecture
Entity
p93
(dp94
g11
(lp95
sg13
S'com.android.server.webkit.WebViewUpdateService$BinderService'
p96
sg15
(lp97
sg17
(lp98
sg19
(lp99
sg21
I0
sba(iArchitecture
Entity
p100
(dp101
g11
(lp102
sg13
S'com.android.server.webkit.WebViewUpdateServiceImpl'
p103
sg15
(lp104
sg17
(lp105
sg19
(lp106
sg21
I0
sba(iArchitecture
Entity
p107
(dp108
g11
(lp109
sg13
S'com.android.server.webkit.WebViewUpdateServiceImpl$WebViewUpdater'
p110
sg15
(lp111
sg17
(lp112
sg19
(lp113
sg21
I0
sba(iArchitecture
Entity
p114
(dp115
g11
(lp116
sg13
S'com.android.server.webkit.WebViewUpdateServiceImpl$WebViewUpdater$ProviderAndPackageInfo'
p117
sg15
(lp118
sg17
(lp119
sg19
(lp120
sg21
I0
sba(iArchitecture
Entity
p121
(dp122
g11
(lp123
sg13
S'com.android.server.webkit.WebViewUpdateServiceShellCommand'
p124
sg15
(lp125
sg17
(lp126
sg19
(lp127
sg21
I0
sbasg36
(lp128
g54
ag61
ag68
ag75
ag82
ag89
ag96
ag103
ag110
ag117
ag124
asg21
I0
sg38
S'com.android.server.webkit.ss'
p129
sbasg40
g41
sg36
(lp130
sg43
I00
sg38
S'7.0.0_r1'
p131
sba.