(lp0
(iArchitecture
Architecture
p1
(dp2
S'clusters'
p3
(lp4
(iArchitecture
Cluster
p5
(dp6
S'entities'
p7
(lp8
(iArchitecture
Entity
p9
(dp10
S'issue_ids'
p11
(lp12
sS'name'
p13
S'android.telephony.CarrierConfigManager'
p14
sS'descs'
p15
(lp16
sS'labels'
p17
(lp18
sS'titles'
p19
(lp20
sS'change'
p21
I0
sba(iArchitecture
Entity
p22
(dp23
g11
(lp24
sg13
S'android.telephony.PreciseDisconnectCause'
p25
sg15
(lp26
sg17
(lp27
sg19
(lp28
sg21
I0
sba(iArchitecture
Entity
p29
(dp30
g11
(lp31
sg13
S'android.telephony.Rlog'
p32
sg15
(lp33
sg17
(lp34
sg19
(lp35
sg21
I0
sba(iArchitecture
Entity
p36
(dp37
g11
(lp38
sg13
S'android.telephony.SubscriptionManager'
p39
sg15
(lp40
sg17
(lp41
sg19
(lp42
sg21
I0
sbasS'classes'
p43
(lp44
g14
ag25
ag32
ag39
asg21
I0
sS'label'
p45
S'android.app.ss'
p46
sba(iArchitecture
Cluster
p47
(dp48
g7
(lp49
(iArchitecture
Entity
p50
(dp51
g11
(lp52
sg13
S'android.telephony.cdma.CdmaSmsCbProgramData'
p53
sg15
(lp54
sg17
(lp55
sg19
(lp56
sg21
I0
sba(iArchitecture
Entity
p57
(dp58
g11
(lp59
sg13
S'android.telephony.cdma.CdmaSmsCbProgramData$1'
p60
sg15
(lp61
sg17
(lp62
sg19
(lp63
sg21
I0
sba(iArchitecture
Entity
p64
(dp65
g11
(lp66
sg13
S'android.telephony.cdma.CdmaSmsCbProgramResults'
p67
sg15
(lp68
sg17
(lp69
sg19
(lp70
sg21
I0
sba(iArchitecture
Entity
p71
(dp72
g11
(lp73
sg13
S'android.telephony.cdma.CdmaSmsCbProgramResults$1'
p74
sg15
(lp75
sg17
(lp76
sg19
(lp77
sg21
I0
sbasg43
(lp78
g53
ag60
ag67
ag74
asg21
I0
sg45
S'android.telephony.cdma.ss'
p79
sba(iArchitecture
Cluster
p80
(dp81
g7
(lp82
(iArchitecture
Entity
p83
(dp84
g11
(lp85
sg13
S'android.telephony.CellIdentityCdma'
p86
sg15
(lp87
sg17
(lp88
sg19
(lp89
sg21
I0
sba(iArchitecture
Entity
p90
(dp91
g11
(lp92
sg13
S'android.telephony.CellIdentityCdma$1'
p93
sg15
(lp94
sg17
(lp95
sg19
(lp96
sg21
I0
sba(iArchitecture
Entity
p97
(dp98
g11
(lp99
sg13
S'android.telephony.CellIdentityGsm'
p100
sg15
(lp101
sg17
(lp102
sg19
(lp103
sg21
I0
sba(iArchitecture
Entity
p104
(dp105
g11
(lp106
sg13
S'android.telephony.CellIdentityGsm$1'
p107
sg15
(lp108
sg17
(lp109
sg19
(lp110
sg21
I0
sba(iArchitecture
Entity
p111
(dp112
g11
(lp113
sg13
S'android.telephony.CellIdentityLte'
p114
sg15
(lp115
sg17
(lp116
sg19
(lp117
sg21
I0
sba(iArchitecture
Entity
p118
(dp119
g11
(lp120
sg13
S'android.telephony.CellIdentityLte$1'
p121
sg15
(lp122
sg17
(lp123
sg19
(lp124
sg21
I0
sba(iArchitecture
Entity
p125
(dp126
g11
(lp127
sg13
S'android.telephony.CellIdentityWcdma'
p128
sg15
(lp129
sg17
(lp130
sg19
(lp131
sg21
I0
sba(iArchitecture
Entity
p132
(dp133
g11
(lp134
sg13
S'android.telephony.CellIdentityWcdma$1'
p135
sg15
(lp136
sg17
(lp137
sg19
(lp138
sg21
I0
sba(iArchitecture
Entity
p139
(dp140
g11
(lp141
sg13
S'android.telephony.CellInfo'
p142
sg15
(lp143
sg17
(lp144
sg19
(lp145
sg21
I0
sba(iArchitecture
Entity
p146
(dp147
g11
(lp148
sg13
S'android.telephony.CellInfo$1'
p149
sg15
(lp150
sg17
(lp151
sg19
(lp152
sg21
I0
sba(iArchitecture
Entity
p153
(dp154
g11
(lp155
sg13
S'android.telephony.CellInfoCdma'
p156
sg15
(lp157
sg17
(lp158
sg19
(lp159
sg21
I0
sba(iArchitecture
Entity
p160
(dp161
g11
(lp162
sg13
S'android.telephony.CellInfoCdma$1'
p163
sg15
(lp164
sg17
(lp165
sg19
(lp166
sg21
I0
sba(iArchitecture
Entity
p167
(dp168
g11
(lp169
sg13
S'android.telephony.CellInfoGsm'
p170
sg15
(lp171
sg17
(lp172
sg19
(lp173
sg21
I0
sba(iArchitecture
Entity
p174
(dp175
g11
(lp176
sg13
S'android.telephony.CellInfoGsm$1'
p177
sg15
(lp178
sg17
(lp179
sg19
(lp180
sg21
I0
sba(iArchitecture
Entity
p181
(dp182
g11
(lp183
sg13
S'android.telephony.CellInfoLte'
p184
sg15
(lp185
sg17
(lp186
sg19
(lp187
sg21
I0
sba(iArchitecture
Entity
p188
(dp189
g11
(lp190
sg13
S'android.telephony.CellInfoLte$1'
p191
sg15
(lp192
sg17
(lp193
sg19
(lp194
sg21
I0
sba(iArchitecture
Entity
p195
(dp196
g11
(lp197
sg13
S'android.telephony.CellInfoWcdma'
p198
sg15
(lp199
sg17
(lp200
sg19
(lp201
sg21
I0
sba(iArchitecture
Entity
p202
(dp203
g11
(lp204
sg13
S'android.telephony.CellInfoWcdma$1'
p205
sg15
(lp206
sg17
(lp207
sg19
(lp208
sg21
I0
sba(iArchitecture
Entity
p209
(dp210
g11
(lp211
sg13
S'android.telephony.CellLocation'
p212
sg15
(lp213
sg17
(lp214
sg19
(lp215
sg21
I0
sba(iArchitecture
Entity
p216
(dp217
g11
(lp218
sg13
S'android.telephony.CellSignalStrength'
p219
sg15
(lp220
sg17
(lp221
sg19
(lp222
sg21
I0
sba(iArchitecture
Entity
p223
(dp224
g11
(lp225
sg13
S'android.telephony.CellSignalStrengthCdma'
p226
sg15
(lp227
sg17
(lp228
sg19
(lp229
sg21
I0
sba(iArchitecture
Entity
p230
(dp231
g11
(lp232
sg13
S'android.telephony.CellSignalStrengthCdma$1'
p233
sg15
(lp234
sg17
(lp235
sg19
(lp236
sg21
I0
sba(iArchitecture
Entity
p237
(dp238
g11
(lp239
sg13
S'android.telephony.CellSignalStrengthGsm'
p240
sg15
(lp241
sg17
(lp242
sg19
(lp243
sg21
I0
sba(iArchitecture
Entity
p244
(dp245
g11
(lp246
sg13
S'android.telephony.CellSignalStrengthGsm$1'
p247
sg15
(lp248
sg17
(lp249
sg19
(lp250
sg21
I0
sba(iArchitecture
Entity
p251
(dp252
g11
(lp253
sg13
S'android.telephony.CellSignalStrengthLte'
p254
sg15
(lp255
sg17
(lp256
sg19
(lp257
sg21
I0
sba(iArchitecture
Entity
p258
(dp259
g11
(lp260
sg13
S'android.telephony.CellSignalStrengthLte$1'
p261
sg15
(lp262
sg17
(lp263
sg19
(lp264
sg21
I0
sba(iArchitecture
Entity
p265
(dp266
g11
(lp267
sg13
S'android.telephony.CellSignalStrengthWcdma'
p268
sg15
(lp269
sg17
(lp270
sg19
(lp271
sg21
I0
sba(iArchitecture
Entity
p272
(dp273
g11
(lp274
sg13
S'android.telephony.CellSignalStrengthWcdma$1'
p275
sg15
(lp276
sg17
(lp277
sg19
(lp278
sg21
I0
sba(iArchitecture
Entity
p279
(dp280
g11
(lp281
sg13
S'android.telephony.DataConnectionRealTimeInfo'
p282
sg15
(lp283
sg17
(lp284
sg19
(lp285
sg21
I0
sba(iArchitecture
Entity
p286
(dp287
g11
(lp288
sg13
S'android.telephony.DataConnectionRealTimeInfo$1'
p289
sg15
(lp290
sg17
(lp291
sg19
(lp292
sg21
I0
sba(iArchitecture
Entity
p293
(dp294
g11
(lp295
sg13
S'android.telephony.IccOpenLogicalChannelResponse'
p296
sg15
(lp297
sg17
(lp298
sg19
(lp299
sg21
I0
sba(iArchitecture
Entity
p300
(dp301
g11
(lp302
sg13
S'android.telephony.IccOpenLogicalChannelResponse$1'
p303
sg15
(lp304
sg17
(lp305
sg19
(lp306
sg21
I0
sba(iArchitecture
Entity
p307
(dp308
g11
(lp309
sg13
S'android.telephony.JapanesePhoneNumberFormatter'
p310
sg15
(lp311
sg17
(lp312
sg19
(lp313
sg21
I0
sba(iArchitecture
Entity
p314
(dp315
g11
(lp316
sg13
S'android.telephony.ModemActivityInfo'
p317
sg15
(lp318
sg17
(lp319
sg19
(lp320
sg21
I0
sba(iArchitecture
Entity
p321
(dp322
g11
(lp323
sg13
S'android.telephony.ModemActivityInfo$1'
p324
sg15
(lp325
sg17
(lp326
sg19
(lp327
sg21
I0
sba(iArchitecture
Entity
p328
(dp329
g11
(lp330
sg13
S'android.telephony.NeighboringCellInfo'
p331
sg15
(lp332
sg17
(lp333
sg19
(lp334
sg21
I0
sba(iArchitecture
Entity
p335
(dp336
g11
(lp337
sg13
S'android.telephony.NeighboringCellInfo$1'
p338
sg15
(lp339
sg17
(lp340
sg19
(lp341
sg21
I0
sba(iArchitecture
Entity
p342
(dp343
g11
(lp344
sg13
S'android.telephony.PhoneNumberFormattingTextWatcher'
p345
sg15
(lp346
sg17
(lp347
sg19
(lp348
sg21
I0
sba(iArchitecture
Entity
p349
(dp350
g11
(lp351
sg13
S'android.telephony.PhoneNumberUtils'
p352
sg15
(lp353
sg17
(lp354
sg19
(lp355
sg21
I0
sba(iArchitecture
Entity
p356
(dp357
g11
(lp358
sg13
S'android.telephony.PhoneNumberUtils$CountryCallingCodeAndNewIndex'
p359
sg15
(lp360
sg17
(lp361
sg19
(lp362
sg21
I0
sba(iArchitecture
Entity
p363
(dp364
g11
(lp365
sg13
S'android.telephony.PhoneStateListener'
p366
sg15
(lp367
sg17
(lp368
sg19
(lp369
sg21
I0
sba(iArchitecture
Entity
p370
(dp371
g11
(lp372
sg13
S'android.telephony.PhoneStateListener$1'
p373
sg15
(lp374
sg17
(lp375
sg19
(lp376
sg21
I0
sba(iArchitecture
Entity
p377
(dp378
g11
(lp379
sg13
S'android.telephony.PhoneStateListener$2'
p380
sg15
(lp381
sg17
(lp382
sg19
(lp383
sg21
I0
sba(iArchitecture
Entity
p384
(dp385
g11
(lp386
sg13
S'android.telephony.PreciseCallState'
p387
sg15
(lp388
sg17
(lp389
sg19
(lp390
sg21
I0
sba(iArchitecture
Entity
p391
(dp392
g11
(lp393
sg13
S'android.telephony.PreciseCallState$1'
p394
sg15
(lp395
sg17
(lp396
sg19
(lp397
sg21
I0
sba(iArchitecture
Entity
p398
(dp399
g11
(lp400
sg13
S'android.telephony.PreciseDataConnectionState'
p401
sg15
(lp402
sg17
(lp403
sg19
(lp404
sg21
I0
sba(iArchitecture
Entity
p405
(dp406
g11
(lp407
sg13
S'android.telephony.PreciseDataConnectionState$1'
p408
sg15
(lp409
sg17
(lp410
sg19
(lp411
sg21
I0
sba(iArchitecture
Entity
p412
(dp413
g11
(lp414
sg13
S'android.telephony.RadioAccessFamily'
p415
sg15
(lp416
sg17
(lp417
sg19
(lp418
sg21
I0
sba(iArchitecture
Entity
p419
(dp420
g11
(lp421
sg13
S'android.telephony.RadioAccessFamily$1'
p422
sg15
(lp423
sg17
(lp424
sg19
(lp425
sg21
I0
sba(iArchitecture
Entity
p426
(dp427
g11
(lp428
sg13
S'android.telephony.ServiceState'
p429
sg15
(lp430
sg17
(lp431
sg19
(lp432
sg21
I0
sba(iArchitecture
Entity
p433
(dp434
g11
(lp435
sg13
S'android.telephony.ServiceState$1'
p436
sg15
(lp437
sg17
(lp438
sg19
(lp439
sg21
I0
sba(iArchitecture
Entity
p440
(dp441
g11
(lp442
sg13
S'android.telephony.SignalStrength'
p443
sg15
(lp444
sg17
(lp445
sg19
(lp446
sg21
I0
sba(iArchitecture
Entity
p447
(dp448
g11
(lp449
sg13
S'android.telephony.SignalStrength$1'
p450
sg15
(lp451
sg17
(lp452
sg19
(lp453
sg21
I0
sba(iArchitecture
Entity
p454
(dp455
g11
(lp456
sg13
S'android.telephony.SubscriptionInfo'
p457
sg15
(lp458
sg17
(lp459
sg19
(lp460
sg21
I0
sba(iArchitecture
Entity
p461
(dp462
g11
(lp463
sg13
S'android.telephony.SubscriptionInfo$1'
p464
sg15
(lp465
sg17
(lp466
sg19
(lp467
sg21
I0
sba(iArchitecture
Entity
p468
(dp469
g11
(lp470
sg13
S'android.telephony.TelephonyManager'
p471
sg15
(lp472
sg17
(lp473
sg19
(lp474
sg21
I0
sba(iArchitecture
Entity
p475
(dp476
g11
(lp477
sg13
S'android.telephony.TelephonyManager$MultiSimVariants'
p478
sg15
(lp479
sg17
(lp480
sg19
(lp481
sg21
I0
sba(iArchitecture
Entity
p482
(dp483
g11
(lp484
sg13
S'android.telephony.TelephonyManager$WifiCallingChoices'
p485
sg15
(lp486
sg17
(lp487
sg19
(lp488
sg21
I0
sba(iArchitecture
Entity
p489
(dp490
g11
(lp491
sg13
S'android.telephony.VoLteServiceState'
p492
sg15
(lp493
sg17
(lp494
sg19
(lp495
sg21
I0
sba(iArchitecture
Entity
p496
(dp497
g11
(lp498
sg13
S'android.telephony.VoLteServiceState$1'
p499
sg15
(lp500
sg17
(lp501
sg19
(lp502
sg21
I0
sba(iArchitecture
Entity
p503
(dp504
g11
(lp505
sg13
S'android.telephony.cdma.CdmaCellLocation'
p506
sg15
(lp507
sg17
(lp508
sg19
(lp509
sg21
I0
sbasg43
(lp510
g86
ag93
ag100
ag107
ag114
ag121
ag128
ag135
ag142
ag149
ag156
ag163
ag170
ag177
ag184
ag191
ag198
ag205
ag212
ag219
ag226
ag233
ag240
ag247
ag254
ag261
ag268
ag275
ag282
ag289
ag296
ag303
ag310
ag317
ag324
ag331
ag338
ag345
ag352
ag359
ag366
ag373
ag380
ag387
ag394
ag401
ag408
ag415
ag422
ag429
ag436
ag443
ag450
ag457
ag464
ag471
ag478
ag485
ag492
ag499
ag506
asg21
I0
sg45
S'android.telephony.ss'
p511
sba(iArchitecture
Cluster
p512
(dp513
g7
(lp514
(iArchitecture
Entity
p515
(dp516
g11
(lp517
sg13
S'android.telephony.DisconnectCause'
p518
sg15
(lp519
sg17
(lp520
sg19
(lp521
sg21
I0
sbasg43
(lp522
g518
asg21
I0
sg45
S'com.android.server.backup.ss'
p523
sba(iArchitecture
Cluster
p524
(dp525
g7
(lp526
(iArchitecture
Entity
p527
(dp528
g11
(lp529
sg13
S'android.telephony.SmsMessage'
p530
sg15
(lp531
sg17
(lp532
sg19
(lp533
sg21
I0
sba(iArchitecture
Entity
p534
(dp535
g11
(lp536
sg13
S'android.telephony.SubscriptionManager$OnSubscriptionsChangedListener'
p537
sg15
(lp538
sg17
(lp539
sg19
(lp540
sg21
I0
sba(iArchitecture
Entity
p541
(dp542
g11
(lp543
sg13
S'android.telephony.SubscriptionManager$OnSubscriptionsChangedListener$1'
p544
sg15
(lp545
sg17
(lp546
sg19
(lp547
sg21
I0
sba(iArchitecture
Entity
p548
(dp549
g11
(lp550
sg13
S'android.telephony.SubscriptionManager$OnSubscriptionsChangedListener$2'
p551
sg15
(lp552
sg17
(lp553
sg19
(lp554
sg21
I0
sba(iArchitecture
Entity
p555
(dp556
g11
(lp557
sg13
S'android.telephony.gsm.GsmCellLocation'
p558
sg15
(lp559
sg17
(lp560
sg19
(lp561
sg21
I0
sbasg43
(lp562
g530
ag537
ag544
ag551
ag558
asg21
I0
sg45
S'com.android.server.location.ss'
p563
sbasS'target_sub'
p564
S'android.telephony'
p565
sg43
(lp566
sS'is_component_arch'
p567
I00
sg45
S'6.0.0_r1'
p568
sba(iArchitecture
Architecture
p569
(dp570
g3
(lp571
(iArchitecture
Cluster
p572
(dp573
g7
(lp574
(iArchitecture
Entity
p575
(dp576
g11
(lp577
sg13
S'android.telephony.CarrierConfigManager'
p578
sg15
(lp579
sg17
(lp580
sg19
(lp581
sg21
I0
sba(iArchitecture
Entity
p582
(dp583
g11
(lp584
sg13
S'android.telephony.PreciseDisconnectCause'
p585
sg15
(lp586
sg17
(lp587
sg19
(lp588
sg21
I0
sba(iArchitecture
Entity
p589
(dp590
g11
(lp591
sg13
S'android.telephony.Rlog'
p592
sg15
(lp593
sg17
(lp594
sg19
(lp595
sg21
I0
sba(iArchitecture
Entity
p596
(dp597
g11
(lp598
sg13
S'android.telephony.SubscriptionManager'
p599
sg15
(lp600
sg17
(lp601
sg19
(lp602
sg21
I0
sbasg43
(lp603
g578
ag585
ag592
ag599
asg21
I0
sg45
S'android.app.ss'
p604
sba(iArchitecture
Cluster
p605
(dp606
g7
(lp607
(iArchitecture
Entity
p608
(dp609
g11
(lp610
sg13
S'android.telephony.cdma.CdmaSmsCbProgramData'
p611
sg15
(lp612
sg17
(lp613
sg19
(lp614
sg21
I0
sba(iArchitecture
Entity
p615
(dp616
g11
(lp617
sg13
S'android.telephony.cdma.CdmaSmsCbProgramData$1'
p618
sg15
(lp619
sg17
(lp620
sg19
(lp621
sg21
I0
sba(iArchitecture
Entity
p622
(dp623
g11
(lp624
sg13
S'android.telephony.cdma.CdmaSmsCbProgramResults'
p625
sg15
(lp626
sg17
(lp627
sg19
(lp628
sg21
I0
sba(iArchitecture
Entity
p629
(dp630
g11
(lp631
sg13
S'android.telephony.cdma.CdmaSmsCbProgramResults$1'
p632
sg15
(lp633
sg17
(lp634
sg19
(lp635
sg21
I0
sbasg43
(lp636
g611
ag618
ag625
ag632
asg21
I0
sg45
S'android.telephony.cdma.ss'
p637
sba(iArchitecture
Cluster
p638
(dp639
g7
(lp640
(iArchitecture
Entity
p641
(dp642
g11
(lp643
sg13
S'android.telephony.CellIdentityCdma'
p644
sg15
(lp645
sg17
(lp646
sg19
(lp647
sg21
I0
sba(iArchitecture
Entity
p648
(dp649
g11
(lp650
sg13
S'android.telephony.CellIdentityCdma$1'
p651
sg15
(lp652
sg17
(lp653
sg19
(lp654
sg21
I0
sba(iArchitecture
Entity
p655
(dp656
g11
(lp657
sg13
S'android.telephony.CellIdentityGsm'
p658
sg15
(lp659
sg17
(lp660
sg19
(lp661
sg21
I0
sba(iArchitecture
Entity
p662
(dp663
g11
(lp664
sg13
S'android.telephony.CellIdentityGsm$1'
p665
sg15
(lp666
sg17
(lp667
sg19
(lp668
sg21
I0
sba(iArchitecture
Entity
p669
(dp670
g11
(lp671
sg13
S'android.telephony.CellIdentityLte'
p672
sg15
(lp673
sg17
(lp674
sg19
(lp675
sg21
I0
sba(iArchitecture
Entity
p676
(dp677
g11
(lp678
sg13
S'android.telephony.CellIdentityLte$1'
p679
sg15
(lp680
sg17
(lp681
sg19
(lp682
sg21
I0
sba(iArchitecture
Entity
p683
(dp684
g11
(lp685
sg13
S'android.telephony.CellIdentityWcdma'
p686
sg15
(lp687
sg17
(lp688
sg19
(lp689
sg21
I0
sba(iArchitecture
Entity
p690
(dp691
g11
(lp692
sg13
S'android.telephony.CellIdentityWcdma$1'
p693
sg15
(lp694
sg17
(lp695
sg19
(lp696
sg21
I0
sba(iArchitecture
Entity
p697
(dp698
g11
(lp699
sg13
S'android.telephony.CellInfo'
p700
sg15
(lp701
sg17
(lp702
sg19
(lp703
sg21
I0
sba(iArchitecture
Entity
p704
(dp705
g11
(lp706
sg13
S'android.telephony.CellInfo$1'
p707
sg15
(lp708
sg17
(lp709
sg19
(lp710
sg21
I0
sba(iArchitecture
Entity
p711
(dp712
g11
(lp713
sg13
S'android.telephony.CellInfoCdma'
p714
sg15
(lp715
sg17
(lp716
sg19
(lp717
sg21
I0
sba(iArchitecture
Entity
p718
(dp719
g11
(lp720
sg13
S'android.telephony.CellInfoCdma$1'
p721
sg15
(lp722
sg17
(lp723
sg19
(lp724
sg21
I0
sba(iArchitecture
Entity
p725
(dp726
g11
(lp727
sg13
S'android.telephony.CellInfoGsm'
p728
sg15
(lp729
sg17
(lp730
sg19
(lp731
sg21
I0
sba(iArchitecture
Entity
p732
(dp733
g11
(lp734
sg13
S'android.telephony.CellInfoGsm$1'
p735
sg15
(lp736
sg17
(lp737
sg19
(lp738
sg21
I0
sba(iArchitecture
Entity
p739
(dp740
g11
(lp741
sg13
S'android.telephony.CellInfoLte'
p742
sg15
(lp743
sg17
(lp744
sg19
(lp745
sg21
I0
sba(iArchitecture
Entity
p746
(dp747
g11
(lp748
sg13
S'android.telephony.CellInfoLte$1'
p749
sg15
(lp750
sg17
(lp751
sg19
(lp752
sg21
I0
sba(iArchitecture
Entity
p753
(dp754
g11
(lp755
sg13
S'android.telephony.CellInfoWcdma'
p756
sg15
(lp757
sg17
(lp758
sg19
(lp759
sg21
I0
sba(iArchitecture
Entity
p760
(dp761
g11
(lp762
sg13
S'android.telephony.CellInfoWcdma$1'
p763
sg15
(lp764
sg17
(lp765
sg19
(lp766
sg21
I0
sba(iArchitecture
Entity
p767
(dp768
g11
(lp769
sg13
S'android.telephony.CellLocation'
p770
sg15
(lp771
sg17
(lp772
sg19
(lp773
sg21
I0
sba(iArchitecture
Entity
p774
(dp775
g11
(lp776
sg13
S'android.telephony.CellSignalStrength'
p777
sg15
(lp778
sg17
(lp779
sg19
(lp780
sg21
I0
sba(iArchitecture
Entity
p781
(dp782
g11
(lp783
sg13
S'android.telephony.CellSignalStrengthCdma'
p784
sg15
(lp785
sg17
(lp786
sg19
(lp787
sg21
I0
sba(iArchitecture
Entity
p788
(dp789
g11
(lp790
sg13
S'android.telephony.CellSignalStrengthCdma$1'
p791
sg15
(lp792
sg17
(lp793
sg19
(lp794
sg21
I0
sba(iArchitecture
Entity
p795
(dp796
g11
(lp797
sg13
S'android.telephony.CellSignalStrengthGsm'
p798
sg15
(lp799
sg17
(lp800
sg19
(lp801
sg21
I0
sba(iArchitecture
Entity
p802
(dp803
g11
(lp804
sg13
S'android.telephony.CellSignalStrengthGsm$1'
p805
sg15
(lp806
sg17
(lp807
sg19
(lp808
sg21
I0
sba(iArchitecture
Entity
p809
(dp810
g11
(lp811
sg13
S'android.telephony.CellSignalStrengthLte'
p812
sg15
(lp813
sg17
(lp814
sg19
(lp815
sg21
I0
sba(iArchitecture
Entity
p816
(dp817
g11
(lp818
sg13
S'android.telephony.CellSignalStrengthLte$1'
p819
sg15
(lp820
sg17
(lp821
sg19
(lp822
sg21
I0
sba(iArchitecture
Entity
p823
(dp824
g11
(lp825
sg13
S'android.telephony.CellSignalStrengthWcdma'
p826
sg15
(lp827
sg17
(lp828
sg19
(lp829
sg21
I0
sba(iArchitecture
Entity
p830
(dp831
g11
(lp832
sg13
S'android.telephony.CellSignalStrengthWcdma$1'
p833
sg15
(lp834
sg17
(lp835
sg19
(lp836
sg21
I0
sba(iArchitecture
Entity
p837
(dp838
g11
(lp839
sg13
S'android.telephony.DataConnectionRealTimeInfo'
p840
sg15
(lp841
sg17
(lp842
sg19
(lp843
sg21
I0
sba(iArchitecture
Entity
p844
(dp845
g11
(lp846
sg13
S'android.telephony.DataConnectionRealTimeInfo$1'
p847
sg15
(lp848
sg17
(lp849
sg19
(lp850
sg21
I0
sba(iArchitecture
Entity
p851
(dp852
g11
(lp853
sg13
S'android.telephony.IccOpenLogicalChannelResponse'
p854
sg15
(lp855
sg17
(lp856
sg19
(lp857
sg21
I0
sba(iArchitecture
Entity
p858
(dp859
g11
(lp860
sg13
S'android.telephony.IccOpenLogicalChannelResponse$1'
p861
sg15
(lp862
sg17
(lp863
sg19
(lp864
sg21
I0
sba(iArchitecture
Entity
p865
(dp866
g11
(lp867
sg13
S'android.telephony.JapanesePhoneNumberFormatter'
p868
sg15
(lp869
sg17
(lp870
sg19
(lp871
sg21
I0
sba(iArchitecture
Entity
p872
(dp873
g11
(lp874
sg13
S'android.telephony.ModemActivityInfo'
p875
sg15
(lp876
sg17
(lp877
sg19
(lp878
sg21
I0
sba(iArchitecture
Entity
p879
(dp880
g11
(lp881
sg13
S'android.telephony.ModemActivityInfo$1'
p882
sg15
(lp883
sg17
(lp884
sg19
(lp885
sg21
I0
sba(iArchitecture
Entity
p886
(dp887
g11
(lp888
sg13
S'android.telephony.NeighboringCellInfo'
p889
sg15
(lp890
sg17
(lp891
sg19
(lp892
sg21
I0
sba(iArchitecture
Entity
p893
(dp894
g11
(lp895
sg13
S'android.telephony.NeighboringCellInfo$1'
p896
sg15
(lp897
sg17
(lp898
sg19
(lp899
sg21
I0
sba(iArchitecture
Entity
p900
(dp901
g11
(lp902
sg13
S'android.telephony.PhoneNumberFormattingTextWatcher'
p903
sg15
(lp904
sg17
(lp905
sg19
(lp906
sg21
I0
sba(iArchitecture
Entity
p907
(dp908
g11
(lp909
sg13
S'android.telephony.PhoneNumberUtils'
p910
sg15
(lp911
sg17
(lp912
sg19
(lp913
sg21
I0
sba(iArchitecture
Entity
p914
(dp915
g11
(lp916
sg13
S'android.telephony.PhoneNumberUtils$CountryCallingCodeAndNewIndex'
p917
sg15
(lp918
sg17
(lp919
sg19
(lp920
sg21
I0
sba(iArchitecture
Entity
p921
(dp922
g11
(lp923
sg13
S'android.telephony.PhoneStateListener'
p924
sg15
(lp925
sg17
(lp926
sg19
(lp927
sg21
I0
sba(iArchitecture
Entity
p928
(dp929
g11
(lp930
sg13
S'android.telephony.PhoneStateListener$1'
p931
sg15
(lp932
sg17
(lp933
sg19
(lp934
sg21
I0
sba(iArchitecture
Entity
p935
(dp936
g11
(lp937
sg13
S'android.telephony.PhoneStateListener$IPhoneStateListenerStub'
p938
sg15
(lp939
sg17
(lp940
sg19
(lp941
sg21
I0
sba(iArchitecture
Entity
p942
(dp943
g11
(lp944
sg13
S'android.telephony.PreciseCallState'
p945
sg15
(lp946
sg17
(lp947
sg19
(lp948
sg21
I0
sba(iArchitecture
Entity
p949
(dp950
g11
(lp951
sg13
S'android.telephony.PreciseCallState$1'
p952
sg15
(lp953
sg17
(lp954
sg19
(lp955
sg21
I0
sba(iArchitecture
Entity
p956
(dp957
g11
(lp958
sg13
S'android.telephony.PreciseDataConnectionState'
p959
sg15
(lp960
sg17
(lp961
sg19
(lp962
sg21
I0
sba(iArchitecture
Entity
p963
(dp964
g11
(lp965
sg13
S'android.telephony.PreciseDataConnectionState$1'
p966
sg15
(lp967
sg17
(lp968
sg19
(lp969
sg21
I0
sba(iArchitecture
Entity
p970
(dp971
g11
(lp972
sg13
S'android.telephony.RadioAccessFamily'
p973
sg15
(lp974
sg17
(lp975
sg19
(lp976
sg21
I0
sba(iArchitecture
Entity
p977
(dp978
g11
(lp979
sg13
S'android.telephony.RadioAccessFamily$1'
p980
sg15
(lp981
sg17
(lp982
sg19
(lp983
sg21
I0
sba(iArchitecture
Entity
p984
(dp985
g11
(lp986
sg13
S'android.telephony.ServiceState'
p987
sg15
(lp988
sg17
(lp989
sg19
(lp990
sg21
I0
sba(iArchitecture
Entity
p991
(dp992
g11
(lp993
sg13
S'android.telephony.ServiceState$1'
p994
sg15
(lp995
sg17
(lp996
sg19
(lp997
sg21
I0
sba(iArchitecture
Entity
p998
(dp999
g11
(lp1000
sg13
S'android.telephony.SignalStrength'
p1001
sg15
(lp1002
sg17
(lp1003
sg19
(lp1004
sg21
I0
sba(iArchitecture
Entity
p1005
(dp1006
g11
(lp1007
sg13
S'android.telephony.SignalStrength$1'
p1008
sg15
(lp1009
sg17
(lp1010
sg19
(lp1011
sg21
I0
sba(iArchitecture
Entity
p1012
(dp1013
g11
(lp1014
sg13
S'android.telephony.SubscriptionInfo'
p1015
sg15
(lp1016
sg17
(lp1017
sg19
(lp1018
sg21
I0
sba(iArchitecture
Entity
p1019
(dp1020
g11
(lp1021
sg13
S'android.telephony.SubscriptionInfo$1'
p1022
sg15
(lp1023
sg17
(lp1024
sg19
(lp1025
sg21
I0
sba(iArchitecture
Entity
p1026
(dp1027
g11
(lp1028
sg13
S'android.telephony.TelephonyManager'
p1029
sg15
(lp1030
sg17
(lp1031
sg19
(lp1032
sg21
I0
sba(iArchitecture
Entity
p1033
(dp1034
g11
(lp1035
sg13
S'android.telephony.TelephonyManager$MultiSimVariants'
p1036
sg15
(lp1037
sg17
(lp1038
sg19
(lp1039
sg21
I0
sba(iArchitecture
Entity
p1040
(dp1041
g11
(lp1042
sg13
S'android.telephony.TelephonyManager$WifiCallingChoices'
p1043
sg15
(lp1044
sg17
(lp1045
sg19
(lp1046
sg21
I0
sba(iArchitecture
Entity
p1047
(dp1048
g11
(lp1049
sg13
S'android.telephony.VoLteServiceState'
p1050
sg15
(lp1051
sg17
(lp1052
sg19
(lp1053
sg21
I0
sba(iArchitecture
Entity
p1054
(dp1055
g11
(lp1056
sg13
S'android.telephony.VoLteServiceState$1'
p1057
sg15
(lp1058
sg17
(lp1059
sg19
(lp1060
sg21
I0
sba(iArchitecture
Entity
p1061
(dp1062
g11
(lp1063
sg13
S'android.telephony.cdma.CdmaCellLocation'
p1064
sg15
(lp1065
sg17
(lp1066
sg19
(lp1067
sg21
I0
sbasg43
(lp1068
g644
ag651
ag658
ag665
ag672
ag679
ag686
ag693
ag700
ag707
ag714
ag721
ag728
ag735
ag742
ag749
ag756
ag763
ag770
ag777
ag784
ag791
ag798
ag805
ag812
ag819
ag826
ag833
ag840
ag847
ag854
ag861
ag868
ag875
ag882
ag889
ag896
ag903
ag910
ag917
ag924
ag931
ag938
ag945
ag952
ag959
ag966
ag973
ag980
ag987
ag994
ag1001
ag1008
ag1015
ag1022
ag1029
ag1036
ag1043
ag1050
ag1057
ag1064
asg21
I0
sg45
S'android.telephony.ss'
p1069
sba(iArchitecture
Cluster
p1070
(dp1071
g7
(lp1072
(iArchitecture
Entity
p1073
(dp1074
g11
(lp1075
sg13
S'android.telephony.SmsMessage'
p1076
sg15
(lp1077
sg17
(lp1078
sg19
(lp1079
sg21
I0
sba(iArchitecture
Entity
p1080
(dp1081
g11
(lp1082
sg13
S'android.telephony.SubscriptionManager$OnSubscriptionsChangedListener'
p1083
sg15
(lp1084
sg17
(lp1085
sg19
(lp1086
sg21
I0
sba(iArchitecture
Entity
p1087
(dp1088
g11
(lp1089
sg13
S'android.telephony.SubscriptionManager$OnSubscriptionsChangedListener$1'
p1090
sg15
(lp1091
sg17
(lp1092
sg19
(lp1093
sg21
I0
sba(iArchitecture
Entity
p1094
(dp1095
g11
(lp1096
sg13
S'android.telephony.SubscriptionManager$OnSubscriptionsChangedListener$2'
p1097
sg15
(lp1098
sg17
(lp1099
sg19
(lp1100
sg21
I0
sba(iArchitecture
Entity
p1101
(dp1102
g11
(lp1103
sg13
S'android.telephony.gsm.GsmCellLocation'
p1104
sg15
(lp1105
sg17
(lp1106
sg19
(lp1107
sg21
I0
sbasg43
(lp1108
g1076
ag1083
ag1090
ag1097
ag1104
asg21
I0
sg45
S'com.android.server.location.ss'
p1109
sba(iArchitecture
Cluster
p1110
(dp1111
g7
(lp1112
(iArchitecture
Entity
p1113
(dp1114
g11
(lp1115
sg13
S'android.telephony.DisconnectCause'
p1116
sg15
(lp1117
sg17
(lp1118
sg19
(lp1119
sg21
I0
sbasg43
(lp1120
g1116
asg21
I0
sg45
S'com.android.server.pm.ss'
p1121
sbasg564
g565
sg43
(lp1122
sg567
I00
sg45
S'7.0.0_r1'
p1123
sba.