(lp0
(iArchitecture
Architecture
p1
(dp2
S'clusters'
p3
(lp4
(iArchitecture
Cluster
p5
(dp6
S'entities'
p7
(lp8
(iArchitecture
Entity
p9
(dp10
S'issue_ids'
p11
(lp12
sS'name'
p13
S'android.nfc.NfcManager'
p14
sS'descs'
p15
(lp16
sS'labels'
p17
(lp18
sS'titles'
p19
(lp20
sS'change'
p21
I0
sbasS'classes'
p22
(lp23
g14
asg21
I0
sS'label'
p24
S'android.app.ss'
p25
sba(iArchitecture
Cluster
p26
(dp27
g7
(lp28
(iArchitecture
Entity
p29
(dp30
g11
(lp31
sg13
S'android.nfc.cardemulation.AidGroup'
p32
sg15
(lp33
sg17
(lp34
sg19
(lp35
sg21
I0
sba(iArchitecture
Entity
p36
(dp37
g11
(lp38
sg13
S'android.nfc.cardemulation.AidGroup$1'
p39
sg15
(lp40
sg17
(lp41
sg19
(lp42
sg21
I0
sba(iArchitecture
Entity
p43
(dp44
g11
(lp45
sg13
S'android.nfc.cardemulation.ApduServiceInfo'
p46
sg15
(lp47
sg17
(lp48
sg19
(lp49
sg21
I0
sba(iArchitecture
Entity
p50
(dp51
g11
(lp52
sg13
S'android.nfc.cardemulation.ApduServiceInfo$1'
p53
sg15
(lp54
sg17
(lp55
sg19
(lp56
sg21
I0
sba(iArchitecture
Entity
p57
(dp58
g11
(lp59
sg13
S'android.nfc.cardemulation.CardEmulation'
p60
sg15
(lp61
sg17
(lp62
sg19
(lp63
sg21
I0
sba(iArchitecture
Entity
p64
(dp65
g11
(lp66
sg13
S'android.nfc.cardemulation.HostApduService'
p67
sg15
(lp68
sg17
(lp69
sg19
(lp70
sg21
I0
sba(iArchitecture
Entity
p71
(dp72
g11
(lp73
sg13
S'android.nfc.cardemulation.HostApduService$MsgHandler'
p74
sg15
(lp75
sg17
(lp76
sg19
(lp77
sg21
I0
sbasg22
(lp78
g32
ag39
ag46
ag53
ag60
ag67
ag74
asg21
I0
sg24
S'android.nfc.cardemulation.ss'
p79
sba(iArchitecture
Cluster
p80
(dp81
g7
(lp82
(iArchitecture
Entity
p83
(dp84
g11
(lp85
sg13
S'android.nfc.ApduList'
p86
sg15
(lp87
sg17
(lp88
sg19
(lp89
sg21
I0
sba(iArchitecture
Entity
p90
(dp91
g11
(lp92
sg13
S'android.nfc.ApduList$1'
p93
sg15
(lp94
sg17
(lp95
sg19
(lp96
sg21
I0
sba(iArchitecture
Entity
p97
(dp98
g11
(lp99
sg13
S'android.nfc.BeamShareData'
p100
sg15
(lp101
sg17
(lp102
sg19
(lp103
sg21
I0
sba(iArchitecture
Entity
p104
(dp105
g11
(lp106
sg13
S'android.nfc.BeamShareData$1'
p107
sg15
(lp108
sg17
(lp109
sg19
(lp110
sg21
I0
sba(iArchitecture
Entity
p111
(dp112
g11
(lp113
sg13
S'android.nfc.FormatException'
p114
sg15
(lp115
sg17
(lp116
sg19
(lp117
sg21
I0
sba(iArchitecture
Entity
p118
(dp119
g11
(lp120
sg13
S'android.nfc.IAppCallback'
p121
sg15
(lp122
sg17
(lp123
sg19
(lp124
sg21
I0
sba(iArchitecture
Entity
p125
(dp126
g11
(lp127
sg13
S'android.nfc.IAppCallback$Stub'
p128
sg15
(lp129
sg17
(lp130
sg19
(lp131
sg21
I0
sba(iArchitecture
Entity
p132
(dp133
g11
(lp134
sg13
S'android.nfc.IAppCallback$Stub$Proxy'
p135
sg15
(lp136
sg17
(lp137
sg19
(lp138
sg21
I0
sba(iArchitecture
Entity
p139
(dp140
g11
(lp141
sg13
S'android.nfc.INfcAdapter'
p142
sg15
(lp143
sg17
(lp144
sg19
(lp145
sg21
I0
sba(iArchitecture
Entity
p146
(dp147
g11
(lp148
sg13
S'android.nfc.INfcAdapter$Stub'
p149
sg15
(lp150
sg17
(lp151
sg19
(lp152
sg21
I0
sba(iArchitecture
Entity
p153
(dp154
g11
(lp155
sg13
S'android.nfc.INfcAdapter$Stub$Proxy'
p156
sg15
(lp157
sg17
(lp158
sg19
(lp159
sg21
I0
sba(iArchitecture
Entity
p160
(dp161
g11
(lp162
sg13
S'android.nfc.INfcAdapterExtras'
p163
sg15
(lp164
sg17
(lp165
sg19
(lp166
sg21
I0
sba(iArchitecture
Entity
p167
(dp168
g11
(lp169
sg13
S'android.nfc.INfcAdapterExtras$Stub'
p170
sg15
(lp171
sg17
(lp172
sg19
(lp173
sg21
I0
sba(iArchitecture
Entity
p174
(dp175
g11
(lp176
sg13
S'android.nfc.INfcAdapterExtras$Stub$Proxy'
p177
sg15
(lp178
sg17
(lp179
sg19
(lp180
sg21
I0
sba(iArchitecture
Entity
p181
(dp182
g11
(lp183
sg13
S'android.nfc.INfcCardEmulation'
p184
sg15
(lp185
sg17
(lp186
sg19
(lp187
sg21
I0
sba(iArchitecture
Entity
p188
(dp189
g11
(lp190
sg13
S'android.nfc.INfcCardEmulation$Stub'
p191
sg15
(lp192
sg17
(lp193
sg19
(lp194
sg21
I0
sba(iArchitecture
Entity
p195
(dp196
g11
(lp197
sg13
S'android.nfc.INfcCardEmulation$Stub$Proxy'
p198
sg15
(lp199
sg17
(lp200
sg19
(lp201
sg21
I0
sba(iArchitecture
Entity
p202
(dp203
g11
(lp204
sg13
S'android.nfc.INfcTag'
p205
sg15
(lp206
sg17
(lp207
sg19
(lp208
sg21
I0
sba(iArchitecture
Entity
p209
(dp210
g11
(lp211
sg13
S'android.nfc.INfcTag$Stub'
p212
sg15
(lp213
sg17
(lp214
sg19
(lp215
sg21
I0
sba(iArchitecture
Entity
p216
(dp217
g11
(lp218
sg13
S'android.nfc.INfcTag$Stub$Proxy'
p219
sg15
(lp220
sg17
(lp221
sg19
(lp222
sg21
I0
sba(iArchitecture
Entity
p223
(dp224
g11
(lp225
sg13
S'android.nfc.INfcUnlockHandler'
p226
sg15
(lp227
sg17
(lp228
sg19
(lp229
sg21
I0
sba(iArchitecture
Entity
p230
(dp231
g11
(lp232
sg13
S'android.nfc.INfcUnlockHandler$Stub'
p233
sg15
(lp234
sg17
(lp235
sg19
(lp236
sg21
I0
sba(iArchitecture
Entity
p237
(dp238
g11
(lp239
sg13
S'android.nfc.INfcUnlockHandler$Stub$Proxy'
p240
sg15
(lp241
sg17
(lp242
sg19
(lp243
sg21
I0
sba(iArchitecture
Entity
p244
(dp245
g11
(lp246
sg13
S'android.nfc.NdefMessage'
p247
sg15
(lp248
sg17
(lp249
sg19
(lp250
sg21
I0
sba(iArchitecture
Entity
p251
(dp252
g11
(lp253
sg13
S'android.nfc.NdefMessage$1'
p254
sg15
(lp255
sg17
(lp256
sg19
(lp257
sg21
I0
sba(iArchitecture
Entity
p258
(dp259
g11
(lp260
sg13
S'android.nfc.NdefRecord'
p261
sg15
(lp262
sg17
(lp263
sg19
(lp264
sg21
I0
sba(iArchitecture
Entity
p265
(dp266
g11
(lp267
sg13
S'android.nfc.NdefRecord$1'
p268
sg15
(lp269
sg17
(lp270
sg19
(lp271
sg21
I0
sba(iArchitecture
Entity
p272
(dp273
g11
(lp274
sg13
S'android.nfc.NfcActivityManager'
p275
sg15
(lp276
sg17
(lp277
sg19
(lp278
sg21
I0
sba(iArchitecture
Entity
p279
(dp280
g11
(lp281
sg13
S'android.nfc.NfcActivityManager$NfcActivityState'
p282
sg15
(lp283
sg17
(lp284
sg19
(lp285
sg21
I0
sba(iArchitecture
Entity
p286
(dp287
g11
(lp288
sg13
S'android.nfc.NfcActivityManager$NfcApplicationState'
p289
sg15
(lp290
sg17
(lp291
sg19
(lp292
sg21
I0
sba(iArchitecture
Entity
p293
(dp294
g11
(lp295
sg13
S'android.nfc.NfcAdapter'
p296
sg15
(lp297
sg17
(lp298
sg19
(lp299
sg21
I0
sba(iArchitecture
Entity
p300
(dp301
g11
(lp302
sg13
S'android.nfc.NfcAdapter$1'
p303
sg15
(lp304
sg17
(lp305
sg19
(lp306
sg21
I0
sba(iArchitecture
Entity
p307
(dp308
g11
(lp309
sg13
S'android.nfc.NfcAdapter$2'
p310
sg15
(lp311
sg17
(lp312
sg19
(lp313
sg21
I0
sba(iArchitecture
Entity
p314
(dp315
g11
(lp316
sg13
S'android.nfc.NfcAdapter$CreateBeamUrisCallback'
p317
sg15
(lp318
sg17
(lp319
sg19
(lp320
sg21
I0
sba(iArchitecture
Entity
p321
(dp322
g11
(lp323
sg13
S'android.nfc.NfcAdapter$CreateNdefMessageCallback'
p324
sg15
(lp325
sg17
(lp326
sg19
(lp327
sg21
I0
sba(iArchitecture
Entity
p328
(dp329
g11
(lp330
sg13
S'android.nfc.NfcAdapter$NfcUnlockHandler'
p331
sg15
(lp332
sg17
(lp333
sg19
(lp334
sg21
I0
sba(iArchitecture
Entity
p335
(dp336
g11
(lp337
sg13
S'android.nfc.NfcAdapter$OnNdefPushCompleteCallback'
p338
sg15
(lp339
sg17
(lp340
sg19
(lp341
sg21
I0
sba(iArchitecture
Entity
p342
(dp343
g11
(lp344
sg13
S'android.nfc.NfcAdapter$ReaderCallback'
p345
sg15
(lp346
sg17
(lp347
sg19
(lp348
sg21
I0
sba(iArchitecture
Entity
p349
(dp350
g11
(lp351
sg13
S'android.nfc.NfcEvent'
p352
sg15
(lp353
sg17
(lp354
sg19
(lp355
sg21
I0
sba(iArchitecture
Entity
p356
(dp357
g11
(lp358
sg13
S'android.nfc.Tag'
p359
sg15
(lp360
sg17
(lp361
sg19
(lp362
sg21
I0
sba(iArchitecture
Entity
p363
(dp364
g11
(lp365
sg13
S'android.nfc.Tag$1'
p366
sg15
(lp367
sg17
(lp368
sg19
(lp369
sg21
I0
sba(iArchitecture
Entity
p370
(dp371
g11
(lp372
sg13
S'android.nfc.TagLostException'
p373
sg15
(lp374
sg17
(lp375
sg19
(lp376
sg21
I0
sba(iArchitecture
Entity
p377
(dp378
g11
(lp379
sg13
S'android.nfc.TechListParcel'
p380
sg15
(lp381
sg17
(lp382
sg19
(lp383
sg21
I0
sba(iArchitecture
Entity
p384
(dp385
g11
(lp386
sg13
S'android.nfc.TechListParcel$1'
p387
sg15
(lp388
sg17
(lp389
sg19
(lp390
sg21
I0
sba(iArchitecture
Entity
p391
(dp392
g11
(lp393
sg13
S'android.nfc.TransceiveResult'
p394
sg15
(lp395
sg17
(lp396
sg19
(lp397
sg21
I0
sba(iArchitecture
Entity
p398
(dp399
g11
(lp400
sg13
S'android.nfc.TransceiveResult$1'
p401
sg15
(lp402
sg17
(lp403
sg19
(lp404
sg21
I0
sba(iArchitecture
Entity
p405
(dp406
g11
(lp407
sg13
S'android.nfc.tech.IsoDep'
p408
sg15
(lp409
sg17
(lp410
sg19
(lp411
sg21
I0
sba(iArchitecture
Entity
p412
(dp413
g11
(lp414
sg13
S'android.nfc.tech.MifareClassic'
p415
sg15
(lp416
sg17
(lp417
sg19
(lp418
sg21
I0
sba(iArchitecture
Entity
p419
(dp420
g11
(lp421
sg13
S'android.nfc.tech.MifareUltralight'
p422
sg15
(lp423
sg17
(lp424
sg19
(lp425
sg21
I0
sba(iArchitecture
Entity
p426
(dp427
g11
(lp428
sg13
S'android.nfc.tech.Ndef'
p429
sg15
(lp430
sg17
(lp431
sg19
(lp432
sg21
I0
sba(iArchitecture
Entity
p433
(dp434
g11
(lp435
sg13
S'android.nfc.tech.NdefFormatable'
p436
sg15
(lp437
sg17
(lp438
sg19
(lp439
sg21
I0
sba(iArchitecture
Entity
p440
(dp441
g11
(lp442
sg13
S'android.nfc.tech.NfcA'
p443
sg15
(lp444
sg17
(lp445
sg19
(lp446
sg21
I0
sba(iArchitecture
Entity
p447
(dp448
g11
(lp449
sg13
S'android.nfc.tech.NfcB'
p450
sg15
(lp451
sg17
(lp452
sg19
(lp453
sg21
I0
sba(iArchitecture
Entity
p454
(dp455
g11
(lp456
sg13
S'android.nfc.tech.NfcBarcode'
p457
sg15
(lp458
sg17
(lp459
sg19
(lp460
sg21
I0
sba(iArchitecture
Entity
p461
(dp462
g11
(lp463
sg13
S'android.nfc.tech.NfcF'
p464
sg15
(lp465
sg17
(lp466
sg19
(lp467
sg21
I0
sba(iArchitecture
Entity
p468
(dp469
g11
(lp470
sg13
S'android.nfc.tech.NfcV'
p471
sg15
(lp472
sg17
(lp473
sg19
(lp474
sg21
I0
sbasg22
(lp475
g86
ag93
ag100
ag107
ag114
ag121
ag128
ag135
ag142
ag149
ag156
ag163
ag170
ag177
ag184
ag191
ag198
ag205
ag212
ag219
ag226
ag233
ag240
ag247
ag254
ag261
ag268
ag275
ag282
ag289
ag296
ag303
ag310
ag317
ag324
ag331
ag338
ag345
ag352
ag359
ag366
ag373
ag380
ag387
ag394
ag401
ag408
ag415
ag422
ag429
ag436
ag443
ag450
ag457
ag464
ag471
asg21
I0
sg24
S'android.nfc.ss'
p476
sba(iArchitecture
Cluster
p477
(dp478
g7
(lp479
(iArchitecture
Entity
p480
(dp481
g11
(lp482
sg13
S'android.nfc.tech.BasicTagTechnology'
p483
sg15
(lp484
sg17
(lp485
sg19
(lp486
sg21
I0
sba(iArchitecture
Entity
p487
(dp488
g11
(lp489
sg13
S'android.nfc.tech.TagTechnology'
p490
sg15
(lp491
sg17
(lp492
sg19
(lp493
sg21
I0
sbasg22
(lp494
g483
ag490
asg21
I0
sg24
S'android.nfc.tech.ss'
p495
sba(iArchitecture
Cluster
p496
(dp497
g7
(lp498
(iArchitecture
Entity
p499
(dp500
g11
(lp501
sg13
S'android.nfc.ErrorCodes'
p502
sg15
(lp503
sg17
(lp504
sg19
(lp505
sg21
I0
sba(iArchitecture
Entity
p506
(dp507
g11
(lp508
sg13
S'android.nfc.cardemulation.OffHostApduService'
p509
sg15
(lp510
sg17
(lp511
sg19
(lp512
sg21
I0
sbasg22
(lp513
g502
ag509
asg21
I0
sg24
S'com.android.server.pm.ss'
p514
sbasS'target_sub'
p515
S'android.nfc'
p516
sg22
(lp517
sS'is_component_arch'
p518
I00
sg24
S'6.0.0_r1'
p519
sba(iArchitecture
Architecture
p520
(dp521
g3
(lp522
(iArchitecture
Cluster
p523
(dp524
g7
(lp525
(iArchitecture
Entity
p526
(dp527
g11
(lp528
sg13
S'android.nfc.NfcManager'
p529
sg15
(lp530
sg17
(lp531
sg19
(lp532
sg21
I0
sbasg22
(lp533
g529
asg21
I0
sg24
S'android.app.ss'
p534
sba(iArchitecture
Cluster
p535
(dp536
g7
(lp537
(iArchitecture
Entity
p538
(dp539
g11
(lp540
sg13
S'android.nfc.cardemulation.AidGroup'
p541
sg15
(lp542
sg17
(lp543
sg19
(lp544
sg21
I0
sba(iArchitecture
Entity
p545
(dp546
g11
(lp547
sg13
S'android.nfc.cardemulation.AidGroup$1'
p548
sg15
(lp549
sg17
(lp550
sg19
(lp551
sg21
I0
sba(iArchitecture
Entity
p552
(dp553
g11
(lp554
sg13
S'android.nfc.cardemulation.ApduServiceInfo'
p555
sg15
(lp556
sg17
(lp557
sg19
(lp558
sg21
I0
sba(iArchitecture
Entity
p559
(dp560
g11
(lp561
sg13
S'android.nfc.cardemulation.ApduServiceInfo$1'
p562
sg15
(lp563
sg17
(lp564
sg19
(lp565
sg21
I0
sba(iArchitecture
Entity
p566
(dp567
g11
(lp568
sg13
S'android.nfc.cardemulation.CardEmulation'
p569
sg15
(lp570
sg17
(lp571
sg19
(lp572
sg21
I0
sba(iArchitecture
Entity
p573
(dp574
g11
(lp575
sg13
S'android.nfc.cardemulation.HostApduService'
p576
sg15
(lp577
sg17
(lp578
sg19
(lp579
sg21
I0
sba(iArchitecture
Entity
p580
(dp581
g11
(lp582
sg13
S'android.nfc.cardemulation.HostApduService$MsgHandler'
p583
sg15
(lp584
sg17
(lp585
sg19
(lp586
sg21
I0
sba(iArchitecture
Entity
p587
(dp588
g11
(lp589
sg13
S'android.nfc.cardemulation.HostNfcFService'
p590
sg15
(lp591
sg17
(lp592
sg19
(lp593
sg21
I0
sba(iArchitecture
Entity
p594
(dp595
g11
(lp596
sg13
S'android.nfc.cardemulation.HostNfcFService$MsgHandler'
p597
sg15
(lp598
sg17
(lp599
sg19
(lp600
sg21
I0
sba(iArchitecture
Entity
p601
(dp602
g11
(lp603
sg13
S'android.nfc.cardemulation.NfcFCardEmulation'
p604
sg15
(lp605
sg17
(lp606
sg19
(lp607
sg21
I0
sba(iArchitecture
Entity
p608
(dp609
g11
(lp610
sg13
S'android.nfc.cardemulation.NfcFServiceInfo'
p611
sg15
(lp612
sg17
(lp613
sg19
(lp614
sg21
I0
sba(iArchitecture
Entity
p615
(dp616
g11
(lp617
sg13
S'android.nfc.cardemulation.NfcFServiceInfo$1'
p618
sg15
(lp619
sg17
(lp620
sg19
(lp621
sg21
I0
sbasg22
(lp622
g541
ag548
ag555
ag562
ag569
ag576
ag583
ag590
ag597
ag604
ag611
ag618
asg21
I0
sg24
S'android.nfc.cardemulation.ss'
p623
sba(iArchitecture
Cluster
p624
(dp625
g7
(lp626
(iArchitecture
Entity
p627
(dp628
g11
(lp629
sg13
S'android.nfc.ApduList'
p630
sg15
(lp631
sg17
(lp632
sg19
(lp633
sg21
I0
sba(iArchitecture
Entity
p634
(dp635
g11
(lp636
sg13
S'android.nfc.ApduList$1'
p637
sg15
(lp638
sg17
(lp639
sg19
(lp640
sg21
I0
sba(iArchitecture
Entity
p641
(dp642
g11
(lp643
sg13
S'android.nfc.BeamShareData'
p644
sg15
(lp645
sg17
(lp646
sg19
(lp647
sg21
I0
sba(iArchitecture
Entity
p648
(dp649
g11
(lp650
sg13
S'android.nfc.BeamShareData$1'
p651
sg15
(lp652
sg17
(lp653
sg19
(lp654
sg21
I0
sba(iArchitecture
Entity
p655
(dp656
g11
(lp657
sg13
S'android.nfc.FormatException'
p658
sg15
(lp659
sg17
(lp660
sg19
(lp661
sg21
I0
sba(iArchitecture
Entity
p662
(dp663
g11
(lp664
sg13
S'android.nfc.IAppCallback$Stub'
p665
sg15
(lp666
sg17
(lp667
sg19
(lp668
sg21
I0
sba(iArchitecture
Entity
p669
(dp670
g11
(lp671
sg13
S'android.nfc.IAppCallback$Stub$Proxy'
p672
sg15
(lp673
sg17
(lp674
sg19
(lp675
sg21
I0
sba(iArchitecture
Entity
p676
(dp677
g11
(lp678
sg13
S'android.nfc.INfcTag'
p679
sg15
(lp680
sg17
(lp681
sg19
(lp682
sg21
I0
sba(iArchitecture
Entity
p683
(dp684
g11
(lp685
sg13
S'android.nfc.INfcTag$Stub'
p686
sg15
(lp687
sg17
(lp688
sg19
(lp689
sg21
I0
sba(iArchitecture
Entity
p690
(dp691
g11
(lp692
sg13
S'android.nfc.INfcTag$Stub$Proxy'
p693
sg15
(lp694
sg17
(lp695
sg19
(lp696
sg21
I0
sba(iArchitecture
Entity
p697
(dp698
g11
(lp699
sg13
S'android.nfc.NdefMessage'
p700
sg15
(lp701
sg17
(lp702
sg19
(lp703
sg21
I0
sba(iArchitecture
Entity
p704
(dp705
g11
(lp706
sg13
S'android.nfc.NdefMessage$1'
p707
sg15
(lp708
sg17
(lp709
sg19
(lp710
sg21
I0
sba(iArchitecture
Entity
p711
(dp712
g11
(lp713
sg13
S'android.nfc.NdefRecord'
p714
sg15
(lp715
sg17
(lp716
sg19
(lp717
sg21
I0
sba(iArchitecture
Entity
p718
(dp719
g11
(lp720
sg13
S'android.nfc.NdefRecord$1'
p721
sg15
(lp722
sg17
(lp723
sg19
(lp724
sg21
I0
sba(iArchitecture
Entity
p725
(dp726
g11
(lp727
sg13
S'android.nfc.NfcActivityManager'
p728
sg15
(lp729
sg17
(lp730
sg19
(lp731
sg21
I0
sba(iArchitecture
Entity
p732
(dp733
g11
(lp734
sg13
S'android.nfc.NfcActivityManager$NfcActivityState'
p735
sg15
(lp736
sg17
(lp737
sg19
(lp738
sg21
I0
sba(iArchitecture
Entity
p739
(dp740
g11
(lp741
sg13
S'android.nfc.NfcActivityManager$NfcApplicationState'
p742
sg15
(lp743
sg17
(lp744
sg19
(lp745
sg21
I0
sba(iArchitecture
Entity
p746
(dp747
g11
(lp748
sg13
S'android.nfc.NfcAdapter'
p749
sg15
(lp750
sg17
(lp751
sg19
(lp752
sg21
I0
sba(iArchitecture
Entity
p753
(dp754
g11
(lp755
sg13
S'android.nfc.NfcAdapter$1'
p756
sg15
(lp757
sg17
(lp758
sg19
(lp759
sg21
I0
sba(iArchitecture
Entity
p760
(dp761
g11
(lp762
sg13
S'android.nfc.NfcAdapter$2'
p763
sg15
(lp764
sg17
(lp765
sg19
(lp766
sg21
I0
sba(iArchitecture
Entity
p767
(dp768
g11
(lp769
sg13
S'android.nfc.NfcAdapter$2$1'
p770
sg15
(lp771
sg17
(lp772
sg19
(lp773
sg21
I0
sba(iArchitecture
Entity
p774
(dp775
g11
(lp776
sg13
S'android.nfc.NfcAdapter$3'
p777
sg15
(lp778
sg17
(lp779
sg19
(lp780
sg21
I0
sba(iArchitecture
Entity
p781
(dp782
g11
(lp783
sg13
S'android.nfc.NfcAdapter$CreateBeamUrisCallback'
p784
sg15
(lp785
sg17
(lp786
sg19
(lp787
sg21
I0
sba(iArchitecture
Entity
p788
(dp789
g11
(lp790
sg13
S'android.nfc.NfcAdapter$CreateNdefMessageCallback'
p791
sg15
(lp792
sg17
(lp793
sg19
(lp794
sg21
I0
sba(iArchitecture
Entity
p795
(dp796
g11
(lp797
sg13
S'android.nfc.NfcAdapter$NfcUnlockHandler'
p798
sg15
(lp799
sg17
(lp800
sg19
(lp801
sg21
I0
sba(iArchitecture
Entity
p802
(dp803
g11
(lp804
sg13
S'android.nfc.NfcAdapter$OnNdefPushCompleteCallback'
p805
sg15
(lp806
sg17
(lp807
sg19
(lp808
sg21
I0
sba(iArchitecture
Entity
p809
(dp810
g11
(lp811
sg13
S'android.nfc.NfcAdapter$OnTagRemovedListener'
p812
sg15
(lp813
sg17
(lp814
sg19
(lp815
sg21
I0
sba(iArchitecture
Entity
p816
(dp817
g11
(lp818
sg13
S'android.nfc.NfcAdapter$ReaderCallback'
p819
sg15
(lp820
sg17
(lp821
sg19
(lp822
sg21
I0
sba(iArchitecture
Entity
p823
(dp824
g11
(lp825
sg13
S'android.nfc.NfcEvent'
p826
sg15
(lp827
sg17
(lp828
sg19
(lp829
sg21
I0
sba(iArchitecture
Entity
p830
(dp831
g11
(lp832
sg13
S'android.nfc.Tag'
p833
sg15
(lp834
sg17
(lp835
sg19
(lp836
sg21
I0
sba(iArchitecture
Entity
p837
(dp838
g11
(lp839
sg13
S'android.nfc.Tag$1'
p840
sg15
(lp841
sg17
(lp842
sg19
(lp843
sg21
I0
sba(iArchitecture
Entity
p844
(dp845
g11
(lp846
sg13
S'android.nfc.TagLostException'
p847
sg15
(lp848
sg17
(lp849
sg19
(lp850
sg21
I0
sba(iArchitecture
Entity
p851
(dp852
g11
(lp853
sg13
S'android.nfc.TechListParcel'
p854
sg15
(lp855
sg17
(lp856
sg19
(lp857
sg21
I0
sba(iArchitecture
Entity
p858
(dp859
g11
(lp860
sg13
S'android.nfc.TechListParcel$1'
p861
sg15
(lp862
sg17
(lp863
sg19
(lp864
sg21
I0
sba(iArchitecture
Entity
p865
(dp866
g11
(lp867
sg13
S'android.nfc.TransceiveResult'
p868
sg15
(lp869
sg17
(lp870
sg19
(lp871
sg21
I0
sba(iArchitecture
Entity
p872
(dp873
g11
(lp874
sg13
S'android.nfc.TransceiveResult$1'
p875
sg15
(lp876
sg17
(lp877
sg19
(lp878
sg21
I0
sba(iArchitecture
Entity
p879
(dp880
g11
(lp881
sg13
S'android.nfc.tech.IsoDep'
p882
sg15
(lp883
sg17
(lp884
sg19
(lp885
sg21
I0
sba(iArchitecture
Entity
p886
(dp887
g11
(lp888
sg13
S'android.nfc.tech.MifareClassic'
p889
sg15
(lp890
sg17
(lp891
sg19
(lp892
sg21
I0
sba(iArchitecture
Entity
p893
(dp894
g11
(lp895
sg13
S'android.nfc.tech.MifareUltralight'
p896
sg15
(lp897
sg17
(lp898
sg19
(lp899
sg21
I0
sba(iArchitecture
Entity
p900
(dp901
g11
(lp902
sg13
S'android.nfc.tech.Ndef'
p903
sg15
(lp904
sg17
(lp905
sg19
(lp906
sg21
I0
sba(iArchitecture
Entity
p907
(dp908
g11
(lp909
sg13
S'android.nfc.tech.NdefFormatable'
p910
sg15
(lp911
sg17
(lp912
sg19
(lp913
sg21
I0
sba(iArchitecture
Entity
p914
(dp915
g11
(lp916
sg13
S'android.nfc.tech.NfcA'
p917
sg15
(lp918
sg17
(lp919
sg19
(lp920
sg21
I0
sba(iArchitecture
Entity
p921
(dp922
g11
(lp923
sg13
S'android.nfc.tech.NfcB'
p924
sg15
(lp925
sg17
(lp926
sg19
(lp927
sg21
I0
sba(iArchitecture
Entity
p928
(dp929
g11
(lp930
sg13
S'android.nfc.tech.NfcBarcode'
p931
sg15
(lp932
sg17
(lp933
sg19
(lp934
sg21
I0
sba(iArchitecture
Entity
p935
(dp936
g11
(lp937
sg13
S'android.nfc.tech.NfcF'
p938
sg15
(lp939
sg17
(lp940
sg19
(lp941
sg21
I0
sba(iArchitecture
Entity
p942
(dp943
g11
(lp944
sg13
S'android.nfc.tech.NfcV'
p945
sg15
(lp946
sg17
(lp947
sg19
(lp948
sg21
I0
sbasg22
(lp949
g630
ag637
ag644
ag651
ag658
ag665
ag672
ag679
ag686
ag693
ag700
ag707
ag714
ag721
ag728
ag735
ag742
ag749
ag756
ag763
ag770
ag777
ag784
ag791
ag798
ag805
ag812
ag819
ag826
ag833
ag840
ag847
ag854
ag861
ag868
ag875
ag882
ag889
ag896
ag903
ag910
ag917
ag924
ag931
ag938
ag945
asg21
I0
sg24
S'android.nfc.ss'
p950
sba(iArchitecture
Cluster
p951
(dp952
g7
(lp953
(iArchitecture
Entity
p954
(dp955
g11
(lp956
sg13
S'android.nfc.tech.BasicTagTechnology'
p957
sg15
(lp958
sg17
(lp959
sg19
(lp960
sg21
I0
sba(iArchitecture
Entity
p961
(dp962
g11
(lp963
sg13
S'android.nfc.tech.TagTechnology'
p964
sg15
(lp965
sg17
(lp966
sg19
(lp967
sg21
I0
sbasg22
(lp968
g957
ag964
asg21
I0
sg24
S'android.nfc.tech.ss'
p969
sba(iArchitecture
Cluster
p970
(dp971
g7
(lp972
(iArchitecture
Entity
p973
(dp974
g11
(lp975
sg13
S'android.nfc.IAppCallback'
p976
sg15
(lp977
sg17
(lp978
sg19
(lp979
sg21
I0
sbasg22
(lp980
g976
asg21
I0
sg24
S'com.android.server.camera.ss'
p981
sba(iArchitecture
Cluster
p982
(dp983
g7
(lp984
(iArchitecture
Entity
p985
(dp986
g11
(lp987
sg13
S'android.nfc.ErrorCodes'
p988
sg15
(lp989
sg17
(lp990
sg19
(lp991
sg21
I0
sba(iArchitecture
Entity
p992
(dp993
g11
(lp994
sg13
S'android.nfc.cardemulation.OffHostApduService'
p995
sg15
(lp996
sg17
(lp997
sg19
(lp998
sg21
I0
sbasg22
(lp999
g988
ag995
asg21
I0
sg24
S'com.android.server.pm.ss'
p1000
sba(iArchitecture
Cluster
p1001
(dp1002
g7
(lp1003
(iArchitecture
Entity
p1004
(dp1005
g11
(lp1006
sg13
S'android.nfc.INfcAdapter'
p1007
sg15
(lp1008
sg17
(lp1009
sg19
(lp1010
sg21
I0
sba(iArchitecture
Entity
p1011
(dp1012
g11
(lp1013
sg13
S'android.nfc.INfcAdapter$Stub'
p1014
sg15
(lp1015
sg17
(lp1016
sg19
(lp1017
sg21
I0
sba(iArchitecture
Entity
p1018
(dp1019
g11
(lp1020
sg13
S'android.nfc.INfcAdapter$Stub$Proxy'
p1021
sg15
(lp1022
sg17
(lp1023
sg19
(lp1024
sg21
I0
sba(iArchitecture
Entity
p1025
(dp1026
g11
(lp1027
sg13
S'android.nfc.INfcAdapterExtras'
p1028
sg15
(lp1029
sg17
(lp1030
sg19
(lp1031
sg21
I0
sba(iArchitecture
Entity
p1032
(dp1033
g11
(lp1034
sg13
S'android.nfc.INfcAdapterExtras$Stub'
p1035
sg15
(lp1036
sg17
(lp1037
sg19
(lp1038
sg21
I0
sba(iArchitecture
Entity
p1039
(dp1040
g11
(lp1041
sg13
S'android.nfc.INfcAdapterExtras$Stub$Proxy'
p1042
sg15
(lp1043
sg17
(lp1044
sg19
(lp1045
sg21
I0
sba(iArchitecture
Entity
p1046
(dp1047
g11
(lp1048
sg13
S'android.nfc.INfcCardEmulation'
p1049
sg15
(lp1050
sg17
(lp1051
sg19
(lp1052
sg21
I0
sba(iArchitecture
Entity
p1053
(dp1054
g11
(lp1055
sg13
S'android.nfc.INfcCardEmulation$Stub'
p1056
sg15
(lp1057
sg17
(lp1058
sg19
(lp1059
sg21
I0
sba(iArchitecture
Entity
p1060
(dp1061
g11
(lp1062
sg13
S'android.nfc.INfcCardEmulation$Stub$Proxy'
p1063
sg15
(lp1064
sg17
(lp1065
sg19
(lp1066
sg21
I0
sba(iArchitecture
Entity
p1067
(dp1068
g11
(lp1069
sg13
S'android.nfc.INfcFCardEmulation'
p1070
sg15
(lp1071
sg17
(lp1072
sg19
(lp1073
sg21
I0
sba(iArchitecture
Entity
p1074
(dp1075
g11
(lp1076
sg13
S'android.nfc.INfcFCardEmulation$Stub'
p1077
sg15
(lp1078
sg17
(lp1079
sg19
(lp1080
sg21
I0
sba(iArchitecture
Entity
p1081
(dp1082
g11
(lp1083
sg13
S'android.nfc.INfcFCardEmulation$Stub$Proxy'
p1084
sg15
(lp1085
sg17
(lp1086
sg19
(lp1087
sg21
I0
sba(iArchitecture
Entity
p1088
(dp1089
g11
(lp1090
sg13
S'android.nfc.INfcUnlockHandler'
p1091
sg15
(lp1092
sg17
(lp1093
sg19
(lp1094
sg21
I0
sba(iArchitecture
Entity
p1095
(dp1096
g11
(lp1097
sg13
S'android.nfc.INfcUnlockHandler$Stub'
p1098
sg15
(lp1099
sg17
(lp1100
sg19
(lp1101
sg21
I0
sba(iArchitecture
Entity
p1102
(dp1103
g11
(lp1104
sg13
S'android.nfc.INfcUnlockHandler$Stub$Proxy'
p1105
sg15
(lp1106
sg17
(lp1107
sg19
(lp1108
sg21
I0
sba(iArchitecture
Entity
p1109
(dp1110
g11
(lp1111
sg13
S'android.nfc.ITagRemovedCallback'
p1112
sg15
(lp1113
sg17
(lp1114
sg19
(lp1115
sg21
I0
sba(iArchitecture
Entity
p1116
(dp1117
g11
(lp1118
sg13
S'android.nfc.ITagRemovedCallback$Stub'
p1119
sg15
(lp1120
sg17
(lp1121
sg19
(lp1122
sg21
I0
sba(iArchitecture
Entity
p1123
(dp1124
g11
(lp1125
sg13
S'android.nfc.ITagRemovedCallback$Stub$Proxy'
p1126
sg15
(lp1127
sg17
(lp1128
sg19
(lp1129
sg21
I0
sbasg22
(lp1130
g1007
ag1014
ag1021
ag1028
ag1035
ag1042
ag1049
ag1056
ag1063
ag1070
ag1077
ag1084
ag1091
ag1098
ag1105
ag1112
ag1119
ag1126
asg21
I0
sg24
S'com.android.server.power.ss'
p1131
sbasg515
g516
sg22
(lp1132
sg518
I00
sg24
S'7.0.0_r1'
p1133
sba.