(lp0
(iArchitecture
Architecture
p1
(dp2
S'clusters'
p3
(lp4
(iArchitecture
Cluster
p5
(dp6
S'entities'
p7
(lp8
(iArchitecture
Entity
p9
(dp10
S'issue_ids'
p11
(lp12
sS'name'
p13
S'com.android.server.tv.PersistentDataStore'
p14
sS'descs'
p15
(lp16
sS'labels'
p17
(lp18
sS'titles'
p19
(lp20
sS'change'
p21
I0
sba(iArchitecture
Entity
p22
(dp23
g11
(lp24
sg13
S'com.android.server.tv.PersistentDataStore$1'
p25
sg15
(lp26
sg17
(lp27
sg19
(lp28
sg21
I0
sba(iArchitecture
Entity
p29
(dp30
g11
(lp31
sg13
S'com.android.server.tv.TvInputHal'
p32
sg15
(lp33
sg17
(lp34
sg19
(lp35
sg21
I0
sba(iArchitecture
Entity
p36
(dp37
g11
(lp38
sg13
S'com.android.server.tv.TvInputHal$Callback'
p39
sg15
(lp40
sg17
(lp41
sg19
(lp42
sg21
I0
sba(iArchitecture
Entity
p43
(dp44
g11
(lp45
sg13
S'com.android.server.tv.TvInputHardwareManager'
p46
sg15
(lp47
sg17
(lp48
sg19
(lp49
sg21
I0
sba(iArchitecture
Entity
p50
(dp51
g11
(lp52
sg13
S'com.android.server.tv.TvInputHardwareManager$1'
p53
sg15
(lp54
sg17
(lp55
sg19
(lp56
sg21
I0
sba(iArchitecture
Entity
p57
(dp58
g11
(lp59
sg13
S'com.android.server.tv.TvInputHardwareManager$2'
p60
sg15
(lp61
sg17
(lp62
sg19
(lp63
sg21
I0
sba(iArchitecture
Entity
p64
(dp65
g11
(lp66
sg13
S'com.android.server.tv.TvInputHardwareManager$Connection'
p67
sg15
(lp68
sg17
(lp69
sg19
(lp70
sg21
I0
sba(iArchitecture
Entity
p71
(dp72
g11
(lp73
sg13
S'com.android.server.tv.TvInputHardwareManager$HdmiDeviceEventListener'
p74
sg15
(lp75
sg17
(lp76
sg19
(lp77
sg21
I0
sba(iArchitecture
Entity
p78
(dp79
g11
(lp80
sg13
S'com.android.server.tv.TvInputHardwareManager$HdmiHotplugEventListener'
p81
sg15
(lp82
sg17
(lp83
sg19
(lp84
sg21
I0
sba(iArchitecture
Entity
p85
(dp86
g11
(lp87
sg13
S'com.android.server.tv.TvInputHardwareManager$HdmiSystemAudioModeChangeListener'
p88
sg15
(lp89
sg17
(lp90
sg19
(lp91
sg21
I0
sba(iArchitecture
Entity
p92
(dp93
g11
(lp94
sg13
S'com.android.server.tv.TvInputHardwareManager$Listener'
p95
sg15
(lp96
sg17
(lp97
sg19
(lp98
sg21
I0
sba(iArchitecture
Entity
p99
(dp100
g11
(lp101
sg13
S'com.android.server.tv.TvInputHardwareManager$ListenerHandler'
p102
sg15
(lp103
sg17
(lp104
sg19
(lp105
sg21
I0
sba(iArchitecture
Entity
p106
(dp107
g11
(lp108
sg13
S'com.android.server.tv.TvInputHardwareManager$TvInputHardwareImpl'
p109
sg15
(lp110
sg17
(lp111
sg19
(lp112
sg21
I0
sba(iArchitecture
Entity
p113
(dp114
g11
(lp115
sg13
S'com.android.server.tv.TvInputHardwareManager$TvInputHardwareImpl$1'
p116
sg15
(lp117
sg17
(lp118
sg19
(lp119
sg21
I0
sba(iArchitecture
Entity
p120
(dp121
g11
(lp122
sg13
S'com.android.server.tv.TvInputManagerService'
p123
sg15
(lp124
sg17
(lp125
sg19
(lp126
sg21
I0
sba(iArchitecture
Entity
p127
(dp128
g11
(lp129
sg13
S'com.android.server.tv.TvInputManagerService$1'
p130
sg15
(lp131
sg17
(lp132
sg19
(lp133
sg21
I0
sba(iArchitecture
Entity
p134
(dp135
g11
(lp136
sg13
S'com.android.server.tv.TvInputManagerService$2'
p137
sg15
(lp138
sg17
(lp139
sg19
(lp140
sg21
I0
sba(iArchitecture
Entity
p141
(dp142
g11
(lp143
sg13
S'com.android.server.tv.TvInputManagerService$BinderService'
p144
sg15
(lp145
sg17
(lp146
sg19
(lp147
sg21
I0
sba(iArchitecture
Entity
p148
(dp149
g11
(lp150
sg13
S'com.android.server.tv.TvInputManagerService$BinderService$1'
p151
sg15
(lp152
sg17
(lp153
sg19
(lp154
sg21
I0
sba(iArchitecture
Entity
p155
(dp156
g11
(lp157
sg13
S'com.android.server.tv.TvInputManagerService$ClientState'
p158
sg15
(lp159
sg17
(lp160
sg19
(lp161
sg21
I0
sba(iArchitecture
Entity
p162
(dp163
g11
(lp164
sg13
S'com.android.server.tv.TvInputManagerService$HardwareListener'
p165
sg15
(lp166
sg17
(lp167
sg19
(lp168
sg21
I0
sba(iArchitecture
Entity
p169
(dp170
g11
(lp171
sg13
S'com.android.server.tv.TvInputManagerService$InputServiceConnection'
p172
sg15
(lp173
sg17
(lp174
sg19
(lp175
sg21
I0
sba(iArchitecture
Entity
p176
(dp177
g11
(lp178
sg13
S'com.android.server.tv.TvInputManagerService$ServiceCallback'
p179
sg15
(lp180
sg17
(lp181
sg19
(lp182
sg21
I0
sba(iArchitecture
Entity
p183
(dp184
g11
(lp185
sg13
S'com.android.server.tv.TvInputManagerService$ServiceState'
p186
sg15
(lp187
sg17
(lp188
sg19
(lp189
sg21
I0
sba(iArchitecture
Entity
p190
(dp191
g11
(lp192
sg13
S'com.android.server.tv.TvInputManagerService$SessionCallback'
p193
sg15
(lp194
sg17
(lp195
sg19
(lp196
sg21
I0
sba(iArchitecture
Entity
p197
(dp198
g11
(lp199
sg13
S'com.android.server.tv.TvInputManagerService$SessionNotFoundException'
p200
sg15
(lp201
sg17
(lp202
sg19
(lp203
sg21
I0
sba(iArchitecture
Entity
p204
(dp205
g11
(lp206
sg13
S'com.android.server.tv.TvInputManagerService$SessionState'
p207
sg15
(lp208
sg17
(lp209
sg19
(lp210
sg21
I0
sba(iArchitecture
Entity
p211
(dp212
g11
(lp213
sg13
S'com.android.server.tv.TvInputManagerService$TvInputState'
p214
sg15
(lp215
sg17
(lp216
sg19
(lp217
sg21
I0
sba(iArchitecture
Entity
p218
(dp219
g11
(lp220
sg13
S'com.android.server.tv.TvInputManagerService$UserState'
p221
sg15
(lp222
sg17
(lp223
sg19
(lp224
sg21
I0
sba(iArchitecture
Entity
p225
(dp226
g11
(lp227
sg13
S'com.android.server.tv.TvInputManagerService$WatchLogHandler'
p228
sg15
(lp229
sg17
(lp230
sg19
(lp231
sg21
I0
sbasS'classes'
p232
(lp233
g14
ag25
ag32
ag39
ag46
ag53
ag60
ag67
ag74
ag81
ag88
ag95
ag102
ag109
ag116
ag123
ag130
ag137
ag144
ag151
ag158
ag165
ag172
ag179
ag186
ag193
ag200
ag207
ag214
ag221
ag228
asg21
I0
sS'label'
p234
S'com.android.server.tv.ss'
p235
sbasS'target_sub'
p236
S'com.android.server.tv'
p237
sg232
(lp238
sS'is_component_arch'
p239
I00
sg234
S'6.0.0_r1'
p240
sba(iArchitecture
Architecture
p241
(dp242
g3
(lp243
(iArchitecture
Cluster
p244
(dp245
g7
(lp246
(iArchitecture
Entity
p247
(dp248
g11
(lp249
sg13
S'com.android.server.tv.PersistentDataStore'
p250
sg15
(lp251
sg17
(lp252
sg19
(lp253
sg21
I0
sba(iArchitecture
Entity
p254
(dp255
g11
(lp256
sg13
S'com.android.server.tv.PersistentDataStore$1'
p257
sg15
(lp258
sg17
(lp259
sg19
(lp260
sg21
I0
sba(iArchitecture
Entity
p261
(dp262
g11
(lp263
sg13
S'com.android.server.tv.TvInputHal'
p264
sg15
(lp265
sg17
(lp266
sg19
(lp267
sg21
I0
sba(iArchitecture
Entity
p268
(dp269
g11
(lp270
sg13
S'com.android.server.tv.TvInputHal$Callback'
p271
sg15
(lp272
sg17
(lp273
sg19
(lp274
sg21
I0
sba(iArchitecture
Entity
p275
(dp276
g11
(lp277
sg13
S'com.android.server.tv.TvInputHardwareManager'
p278
sg15
(lp279
sg17
(lp280
sg19
(lp281
sg21
I0
sba(iArchitecture
Entity
p282
(dp283
g11
(lp284
sg13
S'com.android.server.tv.TvInputHardwareManager$1'
p285
sg15
(lp286
sg17
(lp287
sg19
(lp288
sg21
I0
sba(iArchitecture
Entity
p289
(dp290
g11
(lp291
sg13
S'com.android.server.tv.TvInputHardwareManager$2'
p292
sg15
(lp293
sg17
(lp294
sg19
(lp295
sg21
I0
sba(iArchitecture
Entity
p296
(dp297
g11
(lp298
sg13
S'com.android.server.tv.TvInputHardwareManager$Connection'
p299
sg15
(lp300
sg17
(lp301
sg19
(lp302
sg21
I0
sba(iArchitecture
Entity
p303
(dp304
g11
(lp305
sg13
S'com.android.server.tv.TvInputHardwareManager$HdmiDeviceEventListener'
p306
sg15
(lp307
sg17
(lp308
sg19
(lp309
sg21
I0
sba(iArchitecture
Entity
p310
(dp311
g11
(lp312
sg13
S'com.android.server.tv.TvInputHardwareManager$HdmiHotplugEventListener'
p313
sg15
(lp314
sg17
(lp315
sg19
(lp316
sg21
I0
sba(iArchitecture
Entity
p317
(dp318
g11
(lp319
sg13
S'com.android.server.tv.TvInputHardwareManager$HdmiSystemAudioModeChangeListener'
p320
sg15
(lp321
sg17
(lp322
sg19
(lp323
sg21
I0
sba(iArchitecture
Entity
p324
(dp325
g11
(lp326
sg13
S'com.android.server.tv.TvInputHardwareManager$Listener'
p327
sg15
(lp328
sg17
(lp329
sg19
(lp330
sg21
I0
sba(iArchitecture
Entity
p331
(dp332
g11
(lp333
sg13
S'com.android.server.tv.TvInputHardwareManager$ListenerHandler'
p334
sg15
(lp335
sg17
(lp336
sg19
(lp337
sg21
I0
sba(iArchitecture
Entity
p338
(dp339
g11
(lp340
sg13
S'com.android.server.tv.TvInputHardwareManager$TvInputHardwareImpl'
p341
sg15
(lp342
sg17
(lp343
sg19
(lp344
sg21
I0
sba(iArchitecture
Entity
p345
(dp346
g11
(lp347
sg13
S'com.android.server.tv.TvInputHardwareManager$TvInputHardwareImpl$1'
p348
sg15
(lp349
sg17
(lp350
sg19
(lp351
sg21
I0
sba(iArchitecture
Entity
p352
(dp353
g11
(lp354
sg13
S'com.android.server.tv.TvInputManagerService'
p355
sg15
(lp356
sg17
(lp357
sg19
(lp358
sg21
I0
sba(iArchitecture
Entity
p359
(dp360
g11
(lp361
sg13
S'com.android.server.tv.TvInputManagerService$1'
p362
sg15
(lp363
sg17
(lp364
sg19
(lp365
sg21
I0
sba(iArchitecture
Entity
p366
(dp367
g11
(lp368
sg13
S'com.android.server.tv.TvInputManagerService$2'
p369
sg15
(lp370
sg17
(lp371
sg19
(lp372
sg21
I0
sba(iArchitecture
Entity
p373
(dp374
g11
(lp375
sg13
S'com.android.server.tv.TvInputManagerService$BinderService'
p376
sg15
(lp377
sg17
(lp378
sg19
(lp379
sg21
I0
sba(iArchitecture
Entity
p380
(dp381
g11
(lp382
sg13
S'com.android.server.tv.TvInputManagerService$BinderService$1'
p383
sg15
(lp384
sg17
(lp385
sg19
(lp386
sg21
I0
sba(iArchitecture
Entity
p387
(dp388
g11
(lp389
sg13
S'com.android.server.tv.TvInputManagerService$ClientState'
p390
sg15
(lp391
sg17
(lp392
sg19
(lp393
sg21
I0
sba(iArchitecture
Entity
p394
(dp395
g11
(lp396
sg13
S'com.android.server.tv.TvInputManagerService$HardwareListener'
p397
sg15
(lp398
sg17
(lp399
sg19
(lp400
sg21
I0
sba(iArchitecture
Entity
p401
(dp402
g11
(lp403
sg13
S'com.android.server.tv.TvInputManagerService$InputServiceConnection'
p404
sg15
(lp405
sg17
(lp406
sg19
(lp407
sg21
I0
sba(iArchitecture
Entity
p408
(dp409
g11
(lp410
sg13
S'com.android.server.tv.TvInputManagerService$ServiceCallback'
p411
sg15
(lp412
sg17
(lp413
sg19
(lp414
sg21
I0
sba(iArchitecture
Entity
p415
(dp416
g11
(lp417
sg13
S'com.android.server.tv.TvInputManagerService$ServiceState'
p418
sg15
(lp419
sg17
(lp420
sg19
(lp421
sg21
I0
sba(iArchitecture
Entity
p422
(dp423
g11
(lp424
sg13
S'com.android.server.tv.TvInputManagerService$SessionCallback'
p425
sg15
(lp426
sg17
(lp427
sg19
(lp428
sg21
I0
sba(iArchitecture
Entity
p429
(dp430
g11
(lp431
sg13
S'com.android.server.tv.TvInputManagerService$SessionNotFoundException'
p432
sg15
(lp433
sg17
(lp434
sg19
(lp435
sg21
I0
sba(iArchitecture
Entity
p436
(dp437
g11
(lp438
sg13
S'com.android.server.tv.TvInputManagerService$SessionState'
p439
sg15
(lp440
sg17
(lp441
sg19
(lp442
sg21
I0
sba(iArchitecture
Entity
p443
(dp444
g11
(lp445
sg13
S'com.android.server.tv.TvInputManagerService$TvInputState'
p446
sg15
(lp447
sg17
(lp448
sg19
(lp449
sg21
I0
sba(iArchitecture
Entity
p450
(dp451
g11
(lp452
sg13
S'com.android.server.tv.TvInputManagerService$UserState'
p453
sg15
(lp454
sg17
(lp455
sg19
(lp456
sg21
I0
sba(iArchitecture
Entity
p457
(dp458
g11
(lp459
sg13
S'com.android.server.tv.TvInputManagerService$WatchLogHandler'
p460
sg15
(lp461
sg17
(lp462
sg19
(lp463
sg21
I0
sba(iArchitecture
Entity
p464
(dp465
g11
(lp466
sg13
S'com.android.server.tv.TvRemoteProviderProxy'
p467
sg15
(lp468
sg17
(lp469
sg19
(lp470
sg21
I0
sba(iArchitecture
Entity
p471
(dp472
g11
(lp473
sg13
S'com.android.server.tv.TvRemoteProviderProxy$Connection'
p474
sg15
(lp475
sg17
(lp476
sg19
(lp477
sg21
I0
sba(iArchitecture
Entity
p478
(dp479
g11
(lp480
sg13
S'com.android.server.tv.TvRemoteProviderProxy$Connection$1'
p481
sg15
(lp482
sg17
(lp483
sg19
(lp484
sg21
I0
sba(iArchitecture
Entity
p485
(dp486
g11
(lp487
sg13
S'com.android.server.tv.TvRemoteProviderProxy$Connection$2'
p488
sg15
(lp489
sg17
(lp490
sg19
(lp491
sg21
I0
sba(iArchitecture
Entity
p492
(dp493
g11
(lp494
sg13
S'com.android.server.tv.TvRemoteProviderProxy$ProviderMethods'
p495
sg15
(lp496
sg17
(lp497
sg19
(lp498
sg21
I0
sba(iArchitecture
Entity
p499
(dp500
g11
(lp501
sg13
S'com.android.server.tv.TvRemoteProviderProxy$RemoteServiceInputProvider'
p502
sg15
(lp503
sg17
(lp504
sg19
(lp505
sg21
I0
sba(iArchitecture
Entity
p506
(dp507
g11
(lp508
sg13
S'com.android.server.tv.TvRemoteProviderWatcher'
p509
sg15
(lp510
sg17
(lp511
sg19
(lp512
sg21
I0
sba(iArchitecture
Entity
p513
(dp514
g11
(lp515
sg13
S'com.android.server.tv.TvRemoteProviderWatcher$1'
p516
sg15
(lp517
sg17
(lp518
sg19
(lp519
sg21
I0
sba(iArchitecture
Entity
p520
(dp521
g11
(lp522
sg13
S'com.android.server.tv.TvRemoteProviderWatcher$2'
p523
sg15
(lp524
sg17
(lp525
sg19
(lp526
sg21
I0
sba(iArchitecture
Entity
p527
(dp528
g11
(lp529
sg13
S'com.android.server.tv.TvRemoteProviderWatcher$ProviderMethods'
p530
sg15
(lp531
sg17
(lp532
sg19
(lp533
sg21
I0
sba(iArchitecture
Entity
p534
(dp535
g11
(lp536
sg13
S'com.android.server.tv.TvRemoteService'
p537
sg15
(lp538
sg17
(lp539
sg19
(lp540
sg21
I0
sba(iArchitecture
Entity
p541
(dp542
g11
(lp543
sg13
S'com.android.server.tv.TvRemoteService$UserHandler'
p544
sg15
(lp545
sg17
(lp546
sg19
(lp547
sg21
I0
sba(iArchitecture
Entity
p548
(dp549
g11
(lp550
sg13
S'com.android.server.tv.TvRemoteService$UserProvider'
p551
sg15
(lp552
sg17
(lp553
sg19
(lp554
sg21
I0
sba(iArchitecture
Entity
p555
(dp556
g11
(lp557
sg13
S'com.android.server.tv.UinputBridge'
p558
sg15
(lp559
sg17
(lp560
sg19
(lp561
sg21
I0
sbasg232
(lp562
g250
ag257
ag264
ag271
ag278
ag285
ag292
ag299
ag306
ag313
ag320
ag327
ag334
ag341
ag348
ag355
ag362
ag369
ag376
ag383
ag390
ag397
ag404
ag411
ag418
ag425
ag432
ag439
ag446
ag453
ag460
ag467
ag474
ag481
ag488
ag495
ag502
ag509
ag516
ag523
ag530
ag537
ag544
ag551
ag558
asg21
I0
sg234
S'com.android.server.tv.ss'
p563
sbasg236
g237
sg232
(lp564
sg239
I00
sg234
S'7.0.0_r1'
p565
sba.