(lp0
(iArchitecture
Architecture
p1
(dp2
S'clusters'
p3
(lp4
(iArchitecture
Cluster
p5
(dp6
S'entities'
p7
(lp8
(iArchitecture
Entity
p9
(dp10
S'issue_ids'
p11
(lp12
sS'name'
p13
S'android.provider.DocumentsProvider'
p14
sS'descs'
p15
(lp16
sS'labels'
p17
(lp18
sS'titles'
p19
(lp20
sS'change'
p21
I0
sba(iArchitecture
Entity
p22
(dp23
g11
(lp24
sg13
S'android.provider.Downloads'
p25
sg15
(lp26
sg17
(lp27
sg19
(lp28
sg21
I0
sba(iArchitecture
Entity
p29
(dp30
g11
(lp31
sg13
S'android.provider.Downloads$Impl'
p32
sg15
(lp33
sg17
(lp34
sg19
(lp35
sg21
I0
sba(iArchitecture
Entity
p36
(dp37
g11
(lp38
sg13
S'android.provider.Downloads$Impl$RequestHeaders'
p39
sg15
(lp40
sg17
(lp41
sg19
(lp42
sg21
I0
sba(iArchitecture
Entity
p43
(dp44
g11
(lp45
sg13
S'android.provider.SearchIndexablesProvider'
p46
sg15
(lp47
sg17
(lp48
sg19
(lp49
sg21
I0
sbasS'classes'
p50
(lp51
g14
ag25
ag32
ag39
ag46
asg21
I0
sS'label'
p52
S'android.app.ss'
p53
sba(iArchitecture
Cluster
p54
(dp55
g7
(lp56
(iArchitecture
Entity
p57
(dp58
g11
(lp59
sg13
S'android.provider.MediaStore$Audio'
p60
sg15
(lp61
sg17
(lp62
sg19
(lp63
sg21
I0
sba(iArchitecture
Entity
p64
(dp65
g11
(lp66
sg13
S'android.provider.MediaStore$Audio$AlbumColumns'
p67
sg15
(lp68
sg17
(lp69
sg19
(lp70
sg21
I0
sba(iArchitecture
Entity
p71
(dp72
g11
(lp73
sg13
S'android.provider.MediaStore$Audio$Albums'
p74
sg15
(lp75
sg17
(lp76
sg19
(lp77
sg21
I0
sba(iArchitecture
Entity
p78
(dp79
g11
(lp80
sg13
S'android.provider.MediaStore$Audio$ArtistColumns'
p81
sg15
(lp82
sg17
(lp83
sg19
(lp84
sg21
I0
sba(iArchitecture
Entity
p85
(dp86
g11
(lp87
sg13
S'android.provider.MediaStore$Audio$Artists'
p88
sg15
(lp89
sg17
(lp90
sg19
(lp91
sg21
I0
sba(iArchitecture
Entity
p92
(dp93
g11
(lp94
sg13
S'android.provider.MediaStore$Audio$Artists$Albums'
p95
sg15
(lp96
sg17
(lp97
sg19
(lp98
sg21
I0
sba(iArchitecture
Entity
p99
(dp100
g11
(lp101
sg13
S'android.provider.MediaStore$Audio$AudioColumns'
p102
sg15
(lp103
sg17
(lp104
sg19
(lp105
sg21
I0
sba(iArchitecture
Entity
p106
(dp107
g11
(lp108
sg13
S'android.provider.MediaStore$Audio$Genres'
p109
sg15
(lp110
sg17
(lp111
sg19
(lp112
sg21
I0
sba(iArchitecture
Entity
p113
(dp114
g11
(lp115
sg13
S'android.provider.MediaStore$Audio$Genres$Members'
p116
sg15
(lp117
sg17
(lp118
sg19
(lp119
sg21
I0
sba(iArchitecture
Entity
p120
(dp121
g11
(lp122
sg13
S'android.provider.MediaStore$Audio$GenresColumns'
p123
sg15
(lp124
sg17
(lp125
sg19
(lp126
sg21
I0
sba(iArchitecture
Entity
p127
(dp128
g11
(lp129
sg13
S'android.provider.MediaStore$Audio$Media'
p130
sg15
(lp131
sg17
(lp132
sg19
(lp133
sg21
I0
sba(iArchitecture
Entity
p134
(dp135
g11
(lp136
sg13
S'android.provider.MediaStore$Audio$Playlists'
p137
sg15
(lp138
sg17
(lp139
sg19
(lp140
sg21
I0
sba(iArchitecture
Entity
p141
(dp142
g11
(lp143
sg13
S'android.provider.MediaStore$Audio$Playlists$Members'
p144
sg15
(lp145
sg17
(lp146
sg19
(lp147
sg21
I0
sba(iArchitecture
Entity
p148
(dp149
g11
(lp150
sg13
S'android.provider.MediaStore$Audio$PlaylistsColumns'
p151
sg15
(lp152
sg17
(lp153
sg19
(lp154
sg21
I0
sba(iArchitecture
Entity
p155
(dp156
g11
(lp157
sg13
S'android.provider.MediaStore$Audio$Radio'
p158
sg15
(lp159
sg17
(lp160
sg19
(lp161
sg21
I0
sba(iArchitecture
Entity
p162
(dp163
g11
(lp164
sg13
S'android.provider.MediaStore$Files'
p165
sg15
(lp166
sg17
(lp167
sg19
(lp168
sg21
I0
sba(iArchitecture
Entity
p169
(dp170
g11
(lp171
sg13
S'android.provider.MediaStore$Files$FileColumns'
p172
sg15
(lp173
sg17
(lp174
sg19
(lp175
sg21
I0
sbasg50
(lp176
g60
ag67
ag74
ag81
ag88
ag95
ag102
ag109
ag116
ag123
ag130
ag137
ag144
ag151
ag158
ag165
ag172
asg21
I0
sg52
S'android.mtp.ss'
p177
sba(iArchitecture
Cluster
p178
(dp179
g7
(lp180
(iArchitecture
Entity
p181
(dp182
g11
(lp183
sg13
S'android.provider.BaseColumns'
p184
sg15
(lp185
sg17
(lp186
sg19
(lp187
sg21
I0
sba(iArchitecture
Entity
p188
(dp189
g11
(lp190
sg13
S'android.provider.Browser'
p191
sg15
(lp192
sg17
(lp193
sg19
(lp194
sg21
I0
sba(iArchitecture
Entity
p195
(dp196
g11
(lp197
sg13
S'android.provider.Browser$BookmarkColumns'
p198
sg15
(lp199
sg17
(lp200
sg19
(lp201
sg21
I0
sba(iArchitecture
Entity
p202
(dp203
g11
(lp204
sg13
S'android.provider.Browser$SearchColumns'
p205
sg15
(lp206
sg17
(lp207
sg19
(lp208
sg21
I0
sba(iArchitecture
Entity
p209
(dp210
g11
(lp211
sg13
S'android.provider.BrowserContract'
p212
sg15
(lp213
sg17
(lp214
sg19
(lp215
sg21
I0
sba(iArchitecture
Entity
p216
(dp217
g11
(lp218
sg13
S'android.provider.BrowserContract$Accounts'
p219
sg15
(lp220
sg17
(lp221
sg19
(lp222
sg21
I0
sba(iArchitecture
Entity
p223
(dp224
g11
(lp225
sg13
S'android.provider.BrowserContract$BaseSyncColumns'
p226
sg15
(lp227
sg17
(lp228
sg19
(lp229
sg21
I0
sba(iArchitecture
Entity
p230
(dp231
g11
(lp232
sg13
S'android.provider.BrowserContract$Bookmarks'
p233
sg15
(lp234
sg17
(lp235
sg19
(lp236
sg21
I0
sba(iArchitecture
Entity
p237
(dp238
g11
(lp239
sg13
S'android.provider.BrowserContract$ChromeSyncColumns'
p240
sg15
(lp241
sg17
(lp242
sg19
(lp243
sg21
I0
sba(iArchitecture
Entity
p244
(dp245
g11
(lp246
sg13
S'android.provider.BrowserContract$Combined'
p247
sg15
(lp248
sg17
(lp249
sg19
(lp250
sg21
I0
sba(iArchitecture
Entity
p251
(dp252
g11
(lp253
sg13
S'android.provider.BrowserContract$CommonColumns'
p254
sg15
(lp255
sg17
(lp256
sg19
(lp257
sg21
I0
sba(iArchitecture
Entity
p258
(dp259
g11
(lp260
sg13
S'android.provider.BrowserContract$History'
p261
sg15
(lp262
sg17
(lp263
sg19
(lp264
sg21
I0
sba(iArchitecture
Entity
p265
(dp266
g11
(lp267
sg13
S'android.provider.BrowserContract$HistoryColumns'
p268
sg15
(lp269
sg17
(lp270
sg19
(lp271
sg21
I0
sba(iArchitecture
Entity
p272
(dp273
g11
(lp274
sg13
S'android.provider.BrowserContract$ImageColumns'
p275
sg15
(lp276
sg17
(lp277
sg19
(lp278
sg21
I0
sba(iArchitecture
Entity
p279
(dp280
g11
(lp281
sg13
S'android.provider.BrowserContract$ImageMappingColumns'
p282
sg15
(lp283
sg17
(lp284
sg19
(lp285
sg21
I0
sba(iArchitecture
Entity
p286
(dp287
g11
(lp288
sg13
S'android.provider.BrowserContract$ImageMappings'
p289
sg15
(lp290
sg17
(lp291
sg19
(lp292
sg21
I0
sba(iArchitecture
Entity
p293
(dp294
g11
(lp295
sg13
S'android.provider.BrowserContract$Images'
p296
sg15
(lp297
sg17
(lp298
sg19
(lp299
sg21
I0
sba(iArchitecture
Entity
p300
(dp301
g11
(lp302
sg13
S'android.provider.BrowserContract$Searches'
p303
sg15
(lp304
sg17
(lp305
sg19
(lp306
sg21
I0
sba(iArchitecture
Entity
p307
(dp308
g11
(lp309
sg13
S'android.provider.BrowserContract$Settings'
p310
sg15
(lp311
sg17
(lp312
sg19
(lp313
sg21
I0
sba(iArchitecture
Entity
p314
(dp315
g11
(lp316
sg13
S'android.provider.BrowserContract$SyncColumns'
p317
sg15
(lp318
sg17
(lp319
sg19
(lp320
sg21
I0
sba(iArchitecture
Entity
p321
(dp322
g11
(lp323
sg13
S'android.provider.BrowserContract$SyncState'
p324
sg15
(lp325
sg17
(lp326
sg19
(lp327
sg21
I0
sba(iArchitecture
Entity
p328
(dp329
g11
(lp330
sg13
S'android.provider.CalendarContract'
p331
sg15
(lp332
sg17
(lp333
sg19
(lp334
sg21
I0
sba(iArchitecture
Entity
p335
(dp336
g11
(lp337
sg13
S'android.provider.CalendarContract$Attendees'
p338
sg15
(lp339
sg17
(lp340
sg19
(lp341
sg21
I0
sba(iArchitecture
Entity
p342
(dp343
g11
(lp344
sg13
S'android.provider.CalendarContract$AttendeesColumns'
p345
sg15
(lp346
sg17
(lp347
sg19
(lp348
sg21
I0
sba(iArchitecture
Entity
p349
(dp350
g11
(lp351
sg13
S'android.provider.CalendarContract$CalendarAlerts'
p352
sg15
(lp353
sg17
(lp354
sg19
(lp355
sg21
I0
sba(iArchitecture
Entity
p356
(dp357
g11
(lp358
sg13
S'android.provider.CalendarContract$CalendarAlertsColumns'
p359
sg15
(lp360
sg17
(lp361
sg19
(lp362
sg21
I0
sba(iArchitecture
Entity
p363
(dp364
g11
(lp365
sg13
S'android.provider.CalendarContract$CalendarCache'
p366
sg15
(lp367
sg17
(lp368
sg19
(lp369
sg21
I0
sba(iArchitecture
Entity
p370
(dp371
g11
(lp372
sg13
S'android.provider.CalendarContract$CalendarCacheColumns'
p373
sg15
(lp374
sg17
(lp375
sg19
(lp376
sg21
I0
sba(iArchitecture
Entity
p377
(dp378
g11
(lp379
sg13
S'android.provider.CalendarContract$CalendarColumns'
p380
sg15
(lp381
sg17
(lp382
sg19
(lp383
sg21
I0
sba(iArchitecture
Entity
p384
(dp385
g11
(lp386
sg13
S'android.provider.CalendarContract$CalendarEntity'
p387
sg15
(lp388
sg17
(lp389
sg19
(lp390
sg21
I0
sba(iArchitecture
Entity
p391
(dp392
g11
(lp393
sg13
S'android.provider.CalendarContract$CalendarEntity$EntityIteratorImpl'
p394
sg15
(lp395
sg17
(lp396
sg19
(lp397
sg21
I0
sba(iArchitecture
Entity
p398
(dp399
g11
(lp400
sg13
S'android.provider.CalendarContract$CalendarMetaData'
p401
sg15
(lp402
sg17
(lp403
sg19
(lp404
sg21
I0
sba(iArchitecture
Entity
p405
(dp406
g11
(lp407
sg13
S'android.provider.CalendarContract$CalendarMetaDataColumns'
p408
sg15
(lp409
sg17
(lp410
sg19
(lp411
sg21
I0
sba(iArchitecture
Entity
p412
(dp413
g11
(lp414
sg13
S'android.provider.CalendarContract$CalendarSyncColumns'
p415
sg15
(lp416
sg17
(lp417
sg19
(lp418
sg21
I0
sba(iArchitecture
Entity
p419
(dp420
g11
(lp421
sg13
S'android.provider.CalendarContract$Calendars'
p422
sg15
(lp423
sg17
(lp424
sg19
(lp425
sg21
I0
sba(iArchitecture
Entity
p426
(dp427
g11
(lp428
sg13
S'android.provider.CalendarContract$Colors'
p429
sg15
(lp430
sg17
(lp431
sg19
(lp432
sg21
I0
sba(iArchitecture
Entity
p433
(dp434
g11
(lp435
sg13
S'android.provider.CalendarContract$ColorsColumns'
p436
sg15
(lp437
sg17
(lp438
sg19
(lp439
sg21
I0
sba(iArchitecture
Entity
p440
(dp441
g11
(lp442
sg13
S'android.provider.CalendarContract$EventDays'
p443
sg15
(lp444
sg17
(lp445
sg19
(lp446
sg21
I0
sba(iArchitecture
Entity
p447
(dp448
g11
(lp449
sg13
S'android.provider.CalendarContract$EventDaysColumns'
p450
sg15
(lp451
sg17
(lp452
sg19
(lp453
sg21
I0
sba(iArchitecture
Entity
p454
(dp455
g11
(lp456
sg13
S'android.provider.CalendarContract$Events'
p457
sg15
(lp458
sg17
(lp459
sg19
(lp460
sg21
I0
sba(iArchitecture
Entity
p461
(dp462
g11
(lp463
sg13
S'android.provider.CalendarContract$EventsColumns'
p464
sg15
(lp465
sg17
(lp466
sg19
(lp467
sg21
I0
sba(iArchitecture
Entity
p468
(dp469
g11
(lp470
sg13
S'android.provider.CalendarContract$EventsEntity'
p471
sg15
(lp472
sg17
(lp473
sg19
(lp474
sg21
I0
sba(iArchitecture
Entity
p475
(dp476
g11
(lp477
sg13
S'android.provider.CalendarContract$EventsEntity$EntityIteratorImpl'
p478
sg15
(lp479
sg17
(lp480
sg19
(lp481
sg21
I0
sba(iArchitecture
Entity
p482
(dp483
g11
(lp484
sg13
S'android.provider.CalendarContract$EventsRawTimes'
p485
sg15
(lp486
sg17
(lp487
sg19
(lp488
sg21
I0
sba(iArchitecture
Entity
p489
(dp490
g11
(lp491
sg13
S'android.provider.CalendarContract$EventsRawTimesColumns'
p492
sg15
(lp493
sg17
(lp494
sg19
(lp495
sg21
I0
sba(iArchitecture
Entity
p496
(dp497
g11
(lp498
sg13
S'android.provider.CalendarContract$ExtendedProperties'
p499
sg15
(lp500
sg17
(lp501
sg19
(lp502
sg21
I0
sba(iArchitecture
Entity
p503
(dp504
g11
(lp505
sg13
S'android.provider.CalendarContract$ExtendedPropertiesColumns'
p506
sg15
(lp507
sg17
(lp508
sg19
(lp509
sg21
I0
sba(iArchitecture
Entity
p510
(dp511
g11
(lp512
sg13
S'android.provider.CalendarContract$Instances'
p513
sg15
(lp514
sg17
(lp515
sg19
(lp516
sg21
I0
sba(iArchitecture
Entity
p517
(dp518
g11
(lp519
sg13
S'android.provider.CalendarContract$Reminders'
p520
sg15
(lp521
sg17
(lp522
sg19
(lp523
sg21
I0
sba(iArchitecture
Entity
p524
(dp525
g11
(lp526
sg13
S'android.provider.CalendarContract$RemindersColumns'
p527
sg15
(lp528
sg17
(lp529
sg19
(lp530
sg21
I0
sba(iArchitecture
Entity
p531
(dp532
g11
(lp533
sg13
S'android.provider.CalendarContract$SyncColumns'
p534
sg15
(lp535
sg17
(lp536
sg19
(lp537
sg21
I0
sba(iArchitecture
Entity
p538
(dp539
g11
(lp540
sg13
S'android.provider.CalendarContract$SyncState'
p541
sg15
(lp542
sg17
(lp543
sg19
(lp544
sg21
I0
sba(iArchitecture
Entity
p545
(dp546
g11
(lp547
sg13
S'android.provider.CallLog'
p548
sg15
(lp549
sg17
(lp550
sg19
(lp551
sg21
I0
sba(iArchitecture
Entity
p552
(dp553
g11
(lp554
sg13
S'android.provider.CallLog$Calls'
p555
sg15
(lp556
sg17
(lp557
sg19
(lp558
sg21
I0
sba(iArchitecture
Entity
p559
(dp560
g11
(lp561
sg13
S'android.provider.Contacts'
p562
sg15
(lp563
sg17
(lp564
sg19
(lp565
sg21
I0
sba(iArchitecture
Entity
p566
(dp567
g11
(lp568
sg13
S'android.provider.Contacts$ContactMethods'
p569
sg15
(lp570
sg17
(lp571
sg19
(lp572
sg21
I0
sba(iArchitecture
Entity
p573
(dp574
g11
(lp575
sg13
S'android.provider.Contacts$ContactMethods$ProviderNames'
p576
sg15
(lp577
sg17
(lp578
sg19
(lp579
sg21
I0
sba(iArchitecture
Entity
p580
(dp581
g11
(lp582
sg13
S'android.provider.Contacts$ContactMethodsColumns'
p583
sg15
(lp584
sg17
(lp585
sg19
(lp586
sg21
I0
sba(iArchitecture
Entity
p587
(dp588
g11
(lp589
sg13
S'android.provider.Contacts$Extensions'
p590
sg15
(lp591
sg17
(lp592
sg19
(lp593
sg21
I0
sba(iArchitecture
Entity
p594
(dp595
g11
(lp596
sg13
S'android.provider.Contacts$ExtensionsColumns'
p597
sg15
(lp598
sg17
(lp599
sg19
(lp600
sg21
I0
sba(iArchitecture
Entity
p601
(dp602
g11
(lp603
sg13
S'android.provider.Contacts$GroupMembership'
p604
sg15
(lp605
sg17
(lp606
sg19
(lp607
sg21
I0
sba(iArchitecture
Entity
p608
(dp609
g11
(lp610
sg13
S'android.provider.Contacts$Groups'
p611
sg15
(lp612
sg17
(lp613
sg19
(lp614
sg21
I0
sba(iArchitecture
Entity
p615
(dp616
g11
(lp617
sg13
S'android.provider.Contacts$GroupsColumns'
p618
sg15
(lp619
sg17
(lp620
sg19
(lp621
sg21
I0
sba(iArchitecture
Entity
p622
(dp623
g11
(lp624
sg13
S'android.provider.Contacts$Intents'
p625
sg15
(lp626
sg17
(lp627
sg19
(lp628
sg21
I0
sba(iArchitecture
Entity
p629
(dp630
g11
(lp631
sg13
S'android.provider.Contacts$Intents$Insert'
p632
sg15
(lp633
sg17
(lp634
sg19
(lp635
sg21
I0
sba(iArchitecture
Entity
p636
(dp637
g11
(lp638
sg13
S'android.provider.Contacts$Intents$UI'
p639
sg15
(lp640
sg17
(lp641
sg19
(lp642
sg21
I0
sba(iArchitecture
Entity
p643
(dp644
g11
(lp645
sg13
S'android.provider.Contacts$OrganizationColumns'
p646
sg15
(lp647
sg17
(lp648
sg19
(lp649
sg21
I0
sba(iArchitecture
Entity
p650
(dp651
g11
(lp652
sg13
S'android.provider.Contacts$Organizations'
p653
sg15
(lp654
sg17
(lp655
sg19
(lp656
sg21
I0
sba(iArchitecture
Entity
p657
(dp658
g11
(lp659
sg13
S'android.provider.Contacts$People'
p660
sg15
(lp661
sg17
(lp662
sg19
(lp663
sg21
I0
sba(iArchitecture
Entity
p664
(dp665
g11
(lp666
sg13
S'android.provider.Contacts$People$ContactMethods'
p667
sg15
(lp668
sg17
(lp669
sg19
(lp670
sg21
I0
sba(iArchitecture
Entity
p671
(dp672
g11
(lp673
sg13
S'android.provider.Contacts$People$Extensions'
p674
sg15
(lp675
sg17
(lp676
sg19
(lp677
sg21
I0
sba(iArchitecture
Entity
p678
(dp679
g11
(lp680
sg13
S'android.provider.Contacts$People$Phones'
p681
sg15
(lp682
sg17
(lp683
sg19
(lp684
sg21
I0
sba(iArchitecture
Entity
p685
(dp686
g11
(lp687
sg13
S'android.provider.Contacts$PeopleColumns'
p688
sg15
(lp689
sg17
(lp690
sg19
(lp691
sg21
I0
sba(iArchitecture
Entity
p692
(dp693
g11
(lp694
sg13
S'android.provider.Contacts$Phones'
p695
sg15
(lp696
sg17
(lp697
sg19
(lp698
sg21
I0
sba(iArchitecture
Entity
p699
(dp700
g11
(lp701
sg13
S'android.provider.Contacts$PhonesColumns'
p702
sg15
(lp703
sg17
(lp704
sg19
(lp705
sg21
I0
sba(iArchitecture
Entity
p706
(dp707
g11
(lp708
sg13
S'android.provider.Contacts$Photos'
p709
sg15
(lp710
sg17
(lp711
sg19
(lp712
sg21
I0
sba(iArchitecture
Entity
p713
(dp714
g11
(lp715
sg13
S'android.provider.Contacts$PhotosColumns'
p716
sg15
(lp717
sg17
(lp718
sg19
(lp719
sg21
I0
sba(iArchitecture
Entity
p720
(dp721
g11
(lp722
sg13
S'android.provider.Contacts$Presence'
p723
sg15
(lp724
sg17
(lp725
sg19
(lp726
sg21
I0
sba(iArchitecture
Entity
p727
(dp728
g11
(lp729
sg13
S'android.provider.Contacts$PresenceColumns'
p730
sg15
(lp731
sg17
(lp732
sg19
(lp733
sg21
I0
sba(iArchitecture
Entity
p734
(dp735
g11
(lp736
sg13
S'android.provider.Contacts$Settings'
p737
sg15
(lp738
sg17
(lp739
sg19
(lp740
sg21
I0
sba(iArchitecture
Entity
p741
(dp742
g11
(lp743
sg13
S'android.provider.Contacts$SettingsColumns'
p744
sg15
(lp745
sg17
(lp746
sg19
(lp747
sg21
I0
sba(iArchitecture
Entity
p748
(dp749
g11
(lp750
sg13
S'android.provider.ContactsContract'
p751
sg15
(lp752
sg17
(lp753
sg19
(lp754
sg21
I0
sba(iArchitecture
Entity
p755
(dp756
g11
(lp757
sg13
S'android.provider.ContactsContract$AggregationExceptions'
p758
sg15
(lp759
sg17
(lp760
sg19
(lp761
sg21
I0
sba(iArchitecture
Entity
p762
(dp763
g11
(lp764
sg13
S'android.provider.ContactsContract$Authorization'
p765
sg15
(lp766
sg17
(lp767
sg19
(lp768
sg21
I0
sba(iArchitecture
Entity
p769
(dp770
g11
(lp771
sg13
S'android.provider.ContactsContract$BaseSyncColumns'
p772
sg15
(lp773
sg17
(lp774
sg19
(lp775
sg21
I0
sba(iArchitecture
Entity
p776
(dp777
g11
(lp778
sg13
S'android.provider.ContactsContract$CommonDataKinds'
p779
sg15
(lp780
sg17
(lp781
sg19
(lp782
sg21
I0
sba(iArchitecture
Entity
p783
(dp784
g11
(lp785
sg13
S'android.provider.ContactsContract$CommonDataKinds$BaseTypes'
p786
sg15
(lp787
sg17
(lp788
sg19
(lp789
sg21
I0
sba(iArchitecture
Entity
p790
(dp791
g11
(lp792
sg13
S'android.provider.ContactsContract$CommonDataKinds$Callable'
p793
sg15
(lp794
sg17
(lp795
sg19
(lp796
sg21
I0
sba(iArchitecture
Entity
p797
(dp798
g11
(lp799
sg13
S'android.provider.ContactsContract$CommonDataKinds$CommonColumns'
p800
sg15
(lp801
sg17
(lp802
sg19
(lp803
sg21
I0
sba(iArchitecture
Entity
p804
(dp805
g11
(lp806
sg13
S'android.provider.ContactsContract$CommonDataKinds$Contactables'
p807
sg15
(lp808
sg17
(lp809
sg19
(lp810
sg21
I0
sba(iArchitecture
Entity
p811
(dp812
g11
(lp813
sg13
S'android.provider.ContactsContract$CommonDataKinds$Email'
p814
sg15
(lp815
sg17
(lp816
sg19
(lp817
sg21
I0
sba(iArchitecture
Entity
p818
(dp819
g11
(lp820
sg13
S'android.provider.ContactsContract$CommonDataKinds$Event'
p821
sg15
(lp822
sg17
(lp823
sg19
(lp824
sg21
I0
sba(iArchitecture
Entity
p825
(dp826
g11
(lp827
sg13
S'android.provider.ContactsContract$CommonDataKinds$GroupMembership'
p828
sg15
(lp829
sg17
(lp830
sg19
(lp831
sg21
I0
sba(iArchitecture
Entity
p832
(dp833
g11
(lp834
sg13
S'android.provider.ContactsContract$CommonDataKinds$Identity'
p835
sg15
(lp836
sg17
(lp837
sg19
(lp838
sg21
I0
sba(iArchitecture
Entity
p839
(dp840
g11
(lp841
sg13
S'android.provider.ContactsContract$CommonDataKinds$Im'
p842
sg15
(lp843
sg17
(lp844
sg19
(lp845
sg21
I0
sba(iArchitecture
Entity
p846
(dp847
g11
(lp848
sg13
S'android.provider.ContactsContract$CommonDataKinds$Nickname'
p849
sg15
(lp850
sg17
(lp851
sg19
(lp852
sg21
I0
sba(iArchitecture
Entity
p853
(dp854
g11
(lp855
sg13
S'android.provider.ContactsContract$CommonDataKinds$Note'
p856
sg15
(lp857
sg17
(lp858
sg19
(lp859
sg21
I0
sba(iArchitecture
Entity
p860
(dp861
g11
(lp862
sg13
S'android.provider.ContactsContract$CommonDataKinds$Organization'
p863
sg15
(lp864
sg17
(lp865
sg19
(lp866
sg21
I0
sba(iArchitecture
Entity
p867
(dp868
g11
(lp869
sg13
S'android.provider.ContactsContract$CommonDataKinds$Phone'
p870
sg15
(lp871
sg17
(lp872
sg19
(lp873
sg21
I0
sba(iArchitecture
Entity
p874
(dp875
g11
(lp876
sg13
S'android.provider.ContactsContract$CommonDataKinds$Photo'
p877
sg15
(lp878
sg17
(lp879
sg19
(lp880
sg21
I0
sba(iArchitecture
Entity
p881
(dp882
g11
(lp883
sg13
S'android.provider.ContactsContract$CommonDataKinds$Relation'
p884
sg15
(lp885
sg17
(lp886
sg19
(lp887
sg21
I0
sba(iArchitecture
Entity
p888
(dp889
g11
(lp890
sg13
S'android.provider.ContactsContract$CommonDataKinds$SipAddress'
p891
sg15
(lp892
sg17
(lp893
sg19
(lp894
sg21
I0
sba(iArchitecture
Entity
p895
(dp896
g11
(lp897
sg13
S'android.provider.ContactsContract$CommonDataKinds$StructuredName'
p898
sg15
(lp899
sg17
(lp900
sg19
(lp901
sg21
I0
sba(iArchitecture
Entity
p902
(dp903
g11
(lp904
sg13
S'android.provider.ContactsContract$CommonDataKinds$StructuredPostal'
p905
sg15
(lp906
sg17
(lp907
sg19
(lp908
sg21
I0
sba(iArchitecture
Entity
p909
(dp910
g11
(lp911
sg13
S'android.provider.ContactsContract$CommonDataKinds$Website'
p912
sg15
(lp913
sg17
(lp914
sg19
(lp915
sg21
I0
sba(iArchitecture
Entity
p916
(dp917
g11
(lp918
sg13
S'android.provider.ContactsContract$ContactCounts'
p919
sg15
(lp920
sg17
(lp921
sg19
(lp922
sg21
I0
sba(iArchitecture
Entity
p923
(dp924
g11
(lp925
sg13
S'android.provider.ContactsContract$ContactNameColumns'
p926
sg15
(lp927
sg17
(lp928
sg19
(lp929
sg21
I0
sba(iArchitecture
Entity
p930
(dp931
g11
(lp932
sg13
S'android.provider.ContactsContract$ContactOptionsColumns'
p933
sg15
(lp934
sg17
(lp935
sg19
(lp936
sg21
I0
sba(iArchitecture
Entity
p937
(dp938
g11
(lp939
sg13
S'android.provider.ContactsContract$ContactStatusColumns'
p940
sg15
(lp941
sg17
(lp942
sg19
(lp943
sg21
I0
sba(iArchitecture
Entity
p944
(dp945
g11
(lp946
sg13
S'android.provider.ContactsContract$Contacts'
p947
sg15
(lp948
sg17
(lp949
sg19
(lp950
sg21
I0
sba(iArchitecture
Entity
p951
(dp952
g11
(lp953
sg13
S'android.provider.ContactsContract$Contacts$AggregationSuggestions'
p954
sg15
(lp955
sg17
(lp956
sg19
(lp957
sg21
I0
sba(iArchitecture
Entity
p958
(dp959
g11
(lp960
sg13
S'android.provider.ContactsContract$Contacts$AggregationSuggestions$Builder'
p961
sg15
(lp962
sg17
(lp963
sg19
(lp964
sg21
I0
sba(iArchitecture
Entity
p965
(dp966
g11
(lp967
sg13
S'android.provider.ContactsContract$Contacts$Data'
p968
sg15
(lp969
sg17
(lp970
sg19
(lp971
sg21
I0
sba(iArchitecture
Entity
p972
(dp973
g11
(lp974
sg13
S'android.provider.ContactsContract$Contacts$Entity'
p975
sg15
(lp976
sg17
(lp977
sg19
(lp978
sg21
I0
sba(iArchitecture
Entity
p979
(dp980
g11
(lp981
sg13
S'android.provider.ContactsContract$Contacts$Photo'
p982
sg15
(lp983
sg17
(lp984
sg19
(lp985
sg21
I0
sba(iArchitecture
Entity
p986
(dp987
g11
(lp988
sg13
S'android.provider.ContactsContract$Contacts$StreamItems'
p989
sg15
(lp990
sg17
(lp991
sg19
(lp992
sg21
I0
sba(iArchitecture
Entity
p993
(dp994
g11
(lp995
sg13
S'android.provider.ContactsContract$ContactsColumns'
p996
sg15
(lp997
sg17
(lp998
sg19
(lp999
sg21
I0
sba(iArchitecture
Entity
p1000
(dp1001
g11
(lp1002
sg13
S'android.provider.ContactsContract$Data'
p1003
sg15
(lp1004
sg17
(lp1005
sg19
(lp1006
sg21
I0
sba(iArchitecture
Entity
p1007
(dp1008
g11
(lp1009
sg13
S'android.provider.ContactsContract$DataColumns'
p1010
sg15
(lp1011
sg17
(lp1012
sg19
(lp1013
sg21
I0
sba(iArchitecture
Entity
p1014
(dp1015
g11
(lp1016
sg13
S'android.provider.ContactsContract$DataColumnsWithJoins'
p1017
sg15
(lp1018
sg17
(lp1019
sg19
(lp1020
sg21
I0
sba(iArchitecture
Entity
p1021
(dp1022
g11
(lp1023
sg13
S'android.provider.ContactsContract$DataUsageFeedback'
p1024
sg15
(lp1025
sg17
(lp1026
sg19
(lp1027
sg21
I0
sba(iArchitecture
Entity
p1028
(dp1029
g11
(lp1030
sg13
S'android.provider.ContactsContract$DataUsageStatColumns'
p1031
sg15
(lp1032
sg17
(lp1033
sg19
(lp1034
sg21
I0
sba(iArchitecture
Entity
p1035
(dp1036
g11
(lp1037
sg13
S'android.provider.ContactsContract$DeletedContacts'
p1038
sg15
(lp1039
sg17
(lp1040
sg19
(lp1041
sg21
I0
sba(iArchitecture
Entity
p1042
(dp1043
g11
(lp1044
sg13
S'android.provider.ContactsContract$DeletedContactsColumns'
p1045
sg15
(lp1046
sg17
(lp1047
sg19
(lp1048
sg21
I0
sba(iArchitecture
Entity
p1049
(dp1050
g11
(lp1051
sg13
S'android.provider.ContactsContract$Directory'
p1052
sg15
(lp1053
sg17
(lp1054
sg19
(lp1055
sg21
I0
sba(iArchitecture
Entity
p1056
(dp1057
g11
(lp1058
sg13
S'android.provider.ContactsContract$DisplayNameSources'
p1059
sg15
(lp1060
sg17
(lp1061
sg19
(lp1062
sg21
I0
sba(iArchitecture
Entity
p1063
(dp1064
g11
(lp1065
sg13
S'android.provider.ContactsContract$DisplayPhoto'
p1066
sg15
(lp1067
sg17
(lp1068
sg19
(lp1069
sg21
I0
sba(iArchitecture
Entity
p1070
(dp1071
g11
(lp1072
sg13
S'android.provider.ContactsContract$FullNameStyle'
p1073
sg15
(lp1074
sg17
(lp1075
sg19
(lp1076
sg21
I0
sba(iArchitecture
Entity
p1077
(dp1078
g11
(lp1079
sg13
S'android.provider.ContactsContract$Groups'
p1080
sg15
(lp1081
sg17
(lp1082
sg19
(lp1083
sg21
I0
sba(iArchitecture
Entity
p1084
(dp1085
g11
(lp1086
sg13
S'android.provider.ContactsContract$Groups$EntityIteratorImpl'
p1087
sg15
(lp1088
sg17
(lp1089
sg19
(lp1090
sg21
I0
sba(iArchitecture
Entity
p1091
(dp1092
g11
(lp1093
sg13
S'android.provider.ContactsContract$GroupsColumns'
p1094
sg15
(lp1095
sg17
(lp1096
sg19
(lp1097
sg21
I0
sba(iArchitecture
Entity
p1098
(dp1099
g11
(lp1100
sg13
S'android.provider.ContactsContract$Intents'
p1101
sg15
(lp1102
sg17
(lp1103
sg19
(lp1104
sg21
I0
sba(iArchitecture
Entity
p1105
(dp1106
g11
(lp1107
sg13
S'android.provider.ContactsContract$Intents$Insert'
p1108
sg15
(lp1109
sg17
(lp1110
sg19
(lp1111
sg21
I0
sba(iArchitecture
Entity
p1112
(dp1113
g11
(lp1114
sg13
S'android.provider.ContactsContract$PhoneLookup'
p1115
sg15
(lp1116
sg17
(lp1117
sg19
(lp1118
sg21
I0
sba(iArchitecture
Entity
p1119
(dp1120
g11
(lp1121
sg13
S'android.provider.ContactsContract$PhoneLookupColumns'
p1122
sg15
(lp1123
sg17
(lp1124
sg19
(lp1125
sg21
I0
sba(iArchitecture
Entity
p1126
(dp1127
g11
(lp1128
sg13
S'android.provider.ContactsContract$PhoneticNameStyle'
p1129
sg15
(lp1130
sg17
(lp1131
sg19
(lp1132
sg21
I0
sba(iArchitecture
Entity
p1133
(dp1134
g11
(lp1135
sg13
S'android.provider.ContactsContract$PhotoFiles'
p1136
sg15
(lp1137
sg17
(lp1138
sg19
(lp1139
sg21
I0
sba(iArchitecture
Entity
p1140
(dp1141
g11
(lp1142
sg13
S'android.provider.ContactsContract$PhotoFilesColumns'
p1143
sg15
(lp1144
sg17
(lp1145
sg19
(lp1146
sg21
I0
sba(iArchitecture
Entity
p1147
(dp1148
g11
(lp1149
sg13
S'android.provider.ContactsContract$PinnedPositions'
p1150
sg15
(lp1151
sg17
(lp1152
sg19
(lp1153
sg21
I0
sba(iArchitecture
Entity
p1154
(dp1155
g11
(lp1156
sg13
S'android.provider.ContactsContract$Presence'
p1157
sg15
(lp1158
sg17
(lp1159
sg19
(lp1160
sg21
I0
sba(iArchitecture
Entity
p1161
(dp1162
g11
(lp1163
sg13
S'android.provider.ContactsContract$PresenceColumns'
p1164
sg15
(lp1165
sg17
(lp1166
sg19
(lp1167
sg21
I0
sba(iArchitecture
Entity
p1168
(dp1169
g11
(lp1170
sg13
S'android.provider.ContactsContract$Profile'
p1171
sg15
(lp1172
sg17
(lp1173
sg19
(lp1174
sg21
I0
sba(iArchitecture
Entity
p1175
(dp1176
g11
(lp1177
sg13
S'android.provider.ContactsContract$ProfileSyncState'
p1178
sg15
(lp1179
sg17
(lp1180
sg19
(lp1181
sg21
I0
sba(iArchitecture
Entity
p1182
(dp1183
g11
(lp1184
sg13
S'android.provider.ContactsContract$ProviderStatus'
p1185
sg15
(lp1186
sg17
(lp1187
sg19
(lp1188
sg21
I0
sba(iArchitecture
Entity
p1189
(dp1190
g11
(lp1191
sg13
S'android.provider.ContactsContract$RawContacts'
p1192
sg15
(lp1193
sg17
(lp1194
sg19
(lp1195
sg21
I0
sba(iArchitecture
Entity
p1196
(dp1197
g11
(lp1198
sg13
S'android.provider.ContactsContract$RawContacts$Data'
p1199
sg15
(lp1200
sg17
(lp1201
sg19
(lp1202
sg21
I0
sba(iArchitecture
Entity
p1203
(dp1204
g11
(lp1205
sg13
S'android.provider.ContactsContract$RawContacts$DisplayPhoto'
p1206
sg15
(lp1207
sg17
(lp1208
sg19
(lp1209
sg21
I0
sba(iArchitecture
Entity
p1210
(dp1211
g11
(lp1212
sg13
S'android.provider.ContactsContract$RawContacts$Entity'
p1213
sg15
(lp1214
sg17
(lp1215
sg19
(lp1216
sg21
I0
sba(iArchitecture
Entity
p1217
(dp1218
g11
(lp1219
sg13
S'android.provider.ContactsContract$RawContacts$EntityIteratorImpl'
p1220
sg15
(lp1221
sg17
(lp1222
sg19
(lp1223
sg21
I0
sba(iArchitecture
Entity
p1224
(dp1225
g11
(lp1226
sg13
S'android.provider.ContactsContract$RawContacts$StreamItems'
p1227
sg15
(lp1228
sg17
(lp1229
sg19
(lp1230
sg21
I0
sba(iArchitecture
Entity
p1231
(dp1232
g11
(lp1233
sg13
S'android.provider.ContactsContract$RawContactsColumns'
p1234
sg15
(lp1235
sg17
(lp1236
sg19
(lp1237
sg21
I0
sba(iArchitecture
Entity
p1238
(dp1239
g11
(lp1240
sg13
S'android.provider.ContactsContract$RawContactsEntity'
p1241
sg15
(lp1242
sg17
(lp1243
sg19
(lp1244
sg21
I0
sba(iArchitecture
Entity
p1245
(dp1246
g11
(lp1247
sg13
S'android.provider.ContactsContract$SearchSnippets'
p1248
sg15
(lp1249
sg17
(lp1250
sg19
(lp1251
sg21
I0
sba(iArchitecture
Entity
p1252
(dp1253
g11
(lp1254
sg13
S'android.provider.ContactsContract$Settings'
p1255
sg15
(lp1256
sg17
(lp1257
sg19
(lp1258
sg21
I0
sba(iArchitecture
Entity
p1259
(dp1260
g11
(lp1261
sg13
S'android.provider.ContactsContract$SettingsColumns'
p1262
sg15
(lp1263
sg17
(lp1264
sg19
(lp1265
sg21
I0
sba(iArchitecture
Entity
p1266
(dp1267
g11
(lp1268
sg13
S'android.provider.ContactsContract$StatusColumns'
p1269
sg15
(lp1270
sg17
(lp1271
sg19
(lp1272
sg21
I0
sba(iArchitecture
Entity
p1273
(dp1274
g11
(lp1275
sg13
S'android.provider.ContactsContract$StatusUpdates'
p1276
sg15
(lp1277
sg17
(lp1278
sg19
(lp1279
sg21
I0
sba(iArchitecture
Entity
p1280
(dp1281
g11
(lp1282
sg13
S'android.provider.ContactsContract$StreamItemPhotos'
p1283
sg15
(lp1284
sg17
(lp1285
sg19
(lp1286
sg21
I0
sba(iArchitecture
Entity
p1287
(dp1288
g11
(lp1289
sg13
S'android.provider.ContactsContract$StreamItemPhotosColumns'
p1290
sg15
(lp1291
sg17
(lp1292
sg19
(lp1293
sg21
I0
sba(iArchitecture
Entity
p1294
(dp1295
g11
(lp1296
sg13
S'android.provider.ContactsContract$StreamItems'
p1297
sg15
(lp1298
sg17
(lp1299
sg19
(lp1300
sg21
I0
sba(iArchitecture
Entity
p1301
(dp1302
g11
(lp1303
sg13
S'android.provider.ContactsContract$StreamItems$StreamItemPhotos'
p1304
sg15
(lp1305
sg17
(lp1306
sg19
(lp1307
sg21
I0
sba(iArchitecture
Entity
p1308
(dp1309
g11
(lp1310
sg13
S'android.provider.ContactsContract$StreamItemsColumns'
p1311
sg15
(lp1312
sg17
(lp1313
sg19
(lp1314
sg21
I0
sba(iArchitecture
Entity
p1315
(dp1316
g11
(lp1317
sg13
S'android.provider.ContactsContract$SyncColumns'
p1318
sg15
(lp1319
sg17
(lp1320
sg19
(lp1321
sg21
I0
sba(iArchitecture
Entity
p1322
(dp1323
g11
(lp1324
sg13
S'android.provider.ContactsContract$SyncState'
p1325
sg15
(lp1326
sg17
(lp1327
sg19
(lp1328
sg21
I0
sba(iArchitecture
Entity
p1329
(dp1330
g11
(lp1331
sg13
S'android.provider.ContactsContract$SyncStateColumns'
p1332
sg15
(lp1333
sg17
(lp1334
sg19
(lp1335
sg21
I0
sba(iArchitecture
Entity
p1336
(dp1337
g11
(lp1338
sg13
S'android.provider.DocumentsContract'
p1339
sg15
(lp1340
sg17
(lp1341
sg19
(lp1342
sg21
I0
sba(iArchitecture
Entity
p1343
(dp1344
g11
(lp1345
sg13
S'android.provider.DocumentsContract$Document'
p1346
sg15
(lp1347
sg17
(lp1348
sg19
(lp1349
sg21
I0
sba(iArchitecture
Entity
p1350
(dp1351
g11
(lp1352
sg13
S'android.provider.DocumentsContract$Root'
p1353
sg15
(lp1354
sg17
(lp1355
sg19
(lp1356
sg21
I0
sba(iArchitecture
Entity
p1357
(dp1358
g11
(lp1359
sg13
S'android.provider.MediaStore'
p1360
sg15
(lp1361
sg17
(lp1362
sg19
(lp1363
sg21
I0
sba(iArchitecture
Entity
p1364
(dp1365
g11
(lp1366
sg13
S'android.provider.MediaStore$Images'
p1367
sg15
(lp1368
sg17
(lp1369
sg19
(lp1370
sg21
I0
sba(iArchitecture
Entity
p1371
(dp1372
g11
(lp1373
sg13
S'android.provider.MediaStore$Images$ImageColumns'
p1374
sg15
(lp1375
sg17
(lp1376
sg19
(lp1377
sg21
I0
sba(iArchitecture
Entity
p1378
(dp1379
g11
(lp1380
sg13
S'android.provider.MediaStore$Images$Media'
p1381
sg15
(lp1382
sg17
(lp1383
sg19
(lp1384
sg21
I0
sba(iArchitecture
Entity
p1385
(dp1386
g11
(lp1387
sg13
S'android.provider.MediaStore$Images$Thumbnails'
p1388
sg15
(lp1389
sg17
(lp1390
sg19
(lp1391
sg21
I0
sba(iArchitecture
Entity
p1392
(dp1393
g11
(lp1394
sg13
S'android.provider.MediaStore$InternalThumbnails'
p1395
sg15
(lp1396
sg17
(lp1397
sg19
(lp1398
sg21
I0
sba(iArchitecture
Entity
p1399
(dp1400
g11
(lp1401
sg13
S'android.provider.MediaStore$MediaColumns'
p1402
sg15
(lp1403
sg17
(lp1404
sg19
(lp1405
sg21
I0
sba(iArchitecture
Entity
p1406
(dp1407
g11
(lp1408
sg13
S'android.provider.MediaStore$Video'
p1409
sg15
(lp1410
sg17
(lp1411
sg19
(lp1412
sg21
I0
sba(iArchitecture
Entity
p1413
(dp1414
g11
(lp1415
sg13
S'android.provider.MediaStore$Video$Media'
p1416
sg15
(lp1417
sg17
(lp1418
sg19
(lp1419
sg21
I0
sba(iArchitecture
Entity
p1420
(dp1421
g11
(lp1422
sg13
S'android.provider.MediaStore$Video$Thumbnails'
p1423
sg15
(lp1424
sg17
(lp1425
sg19
(lp1426
sg21
I0
sba(iArchitecture
Entity
p1427
(dp1428
g11
(lp1429
sg13
S'android.provider.MediaStore$Video$VideoColumns'
p1430
sg15
(lp1431
sg17
(lp1432
sg19
(lp1433
sg21
I0
sba(iArchitecture
Entity
p1434
(dp1435
g11
(lp1436
sg13
S'android.provider.OpenableColumns'
p1437
sg15
(lp1438
sg17
(lp1439
sg19
(lp1440
sg21
I0
sba(iArchitecture
Entity
p1441
(dp1442
g11
(lp1443
sg13
S'android.provider.SearchIndexableData'
p1444
sg15
(lp1445
sg17
(lp1446
sg19
(lp1447
sg21
I0
sba(iArchitecture
Entity
p1448
(dp1449
g11
(lp1450
sg13
S'android.provider.SearchIndexableResource'
p1451
sg15
(lp1452
sg17
(lp1453
sg19
(lp1454
sg21
I0
sba(iArchitecture
Entity
p1455
(dp1456
g11
(lp1457
sg13
S'android.provider.SearchIndexablesContract'
p1458
sg15
(lp1459
sg17
(lp1460
sg19
(lp1461
sg21
I0
sba(iArchitecture
Entity
p1462
(dp1463
g11
(lp1464
sg13
S'android.provider.SearchIndexablesContract$BaseColumns'
p1465
sg15
(lp1466
sg17
(lp1467
sg19
(lp1468
sg21
I0
sba(iArchitecture
Entity
p1469
(dp1470
g11
(lp1471
sg13
S'android.provider.SearchIndexablesContract$NonIndexableKey'
p1472
sg15
(lp1473
sg17
(lp1474
sg19
(lp1475
sg21
I0
sba(iArchitecture
Entity
p1476
(dp1477
g11
(lp1478
sg13
S'android.provider.SearchIndexablesContract$RawData'
p1479
sg15
(lp1480
sg17
(lp1481
sg19
(lp1482
sg21
I0
sba(iArchitecture
Entity
p1483
(dp1484
g11
(lp1485
sg13
S'android.provider.SearchIndexablesContract$XmlResource'
p1486
sg15
(lp1487
sg17
(lp1488
sg19
(lp1489
sg21
I0
sba(iArchitecture
Entity
p1490
(dp1491
g11
(lp1492
sg13
S'android.provider.SearchRecentSuggestions'
p1493
sg15
(lp1494
sg17
(lp1495
sg19
(lp1496
sg21
I0
sba(iArchitecture
Entity
p1497
(dp1498
g11
(lp1499
sg13
S'android.provider.SearchRecentSuggestions$1'
p1500
sg15
(lp1501
sg17
(lp1502
sg19
(lp1503
sg21
I0
sba(iArchitecture
Entity
p1504
(dp1505
g11
(lp1506
sg13
S'android.provider.SearchRecentSuggestions$SuggestionColumns'
p1507
sg15
(lp1508
sg17
(lp1509
sg19
(lp1510
sg21
I0
sba(iArchitecture
Entity
p1511
(dp1512
g11
(lp1513
sg13
S'android.provider.Settings'
p1514
sg15
(lp1515
sg17
(lp1516
sg19
(lp1517
sg21
I0
sba(iArchitecture
Entity
p1518
(dp1519
g11
(lp1520
sg13
S'android.provider.Settings$Bookmarks'
p1521
sg15
(lp1522
sg17
(lp1523
sg19
(lp1524
sg21
I0
sba(iArchitecture
Entity
p1525
(dp1526
g11
(lp1527
sg13
S'android.provider.SyncStateContract'
p1528
sg15
(lp1529
sg17
(lp1530
sg19
(lp1531
sg21
I0
sba(iArchitecture
Entity
p1532
(dp1533
g11
(lp1534
sg13
S'android.provider.SyncStateContract$Columns'
p1535
sg15
(lp1536
sg17
(lp1537
sg19
(lp1538
sg21
I0
sba(iArchitecture
Entity
p1539
(dp1540
g11
(lp1541
sg13
S'android.provider.SyncStateContract$Constants'
p1542
sg15
(lp1543
sg17
(lp1544
sg19
(lp1545
sg21
I0
sba(iArchitecture
Entity
p1546
(dp1547
g11
(lp1548
sg13
S'android.provider.SyncStateContract$Helpers'
p1549
sg15
(lp1550
sg17
(lp1551
sg19
(lp1552
sg21
I0
sba(iArchitecture
Entity
p1553
(dp1554
g11
(lp1555
sg13
S'android.provider.UserDictionary'
p1556
sg15
(lp1557
sg17
(lp1558
sg19
(lp1559
sg21
I0
sba(iArchitecture
Entity
p1560
(dp1561
g11
(lp1562
sg13
S'android.provider.UserDictionary$Words'
p1563
sg15
(lp1564
sg17
(lp1565
sg19
(lp1566
sg21
I0
sba(iArchitecture
Entity
p1567
(dp1568
g11
(lp1569
sg13
S'android.provider.VoicemailContract'
p1570
sg15
(lp1571
sg17
(lp1572
sg19
(lp1573
sg21
I0
sba(iArchitecture
Entity
p1574
(dp1575
g11
(lp1576
sg13
S'android.provider.VoicemailContract$Status'
p1577
sg15
(lp1578
sg17
(lp1579
sg19
(lp1580
sg21
I0
sba(iArchitecture
Entity
p1581
(dp1582
g11
(lp1583
sg13
S'android.provider.VoicemailContract$Voicemails'
p1584
sg15
(lp1585
sg17
(lp1586
sg19
(lp1587
sg21
I0
sbasg50
(lp1588
g184
ag191
ag198
ag205
ag212
ag219
ag226
ag233
ag240
ag247
ag254
ag261
ag268
ag275
ag282
ag289
ag296
ag303
ag310
ag317
ag324
ag331
ag338
ag345
ag352
ag359
ag366
ag373
ag380
ag387
ag394
ag401
ag408
ag415
ag422
ag429
ag436
ag443
ag450
ag457
ag464
ag471
ag478
ag485
ag492
ag499
ag506
ag513
ag520
ag527
ag534
ag541
ag548
ag555
ag562
ag569
ag576
ag583
ag590
ag597
ag604
ag611
ag618
ag625
ag632
ag639
ag646
ag653
ag660
ag667
ag674
ag681
ag688
ag695
ag702
ag709
ag716
ag723
ag730
ag737
ag744
ag751
ag758
ag765
ag772
ag779
ag786
ag793
ag800
ag807
ag814
ag821
ag828
ag835
ag842
ag849
ag856
ag863
ag870
ag877
ag884
ag891
ag898
ag905
ag912
ag919
ag926
ag933
ag940
ag947
ag954
ag961
ag968
ag975
ag982
ag989
ag996
ag1003
ag1010
ag1017
ag1024
ag1031
ag1038
ag1045
ag1052
ag1059
ag1066
ag1073
ag1080
ag1087
ag1094
ag1101
ag1108
ag1115
ag1122
ag1129
ag1136
ag1143
ag1150
ag1157
ag1164
ag1171
ag1178
ag1185
ag1192
ag1199
ag1206
ag1213
ag1220
ag1227
ag1234
ag1241
ag1248
ag1255
ag1262
ag1269
ag1276
ag1283
ag1290
ag1297
ag1304
ag1311
ag1318
ag1325
ag1332
ag1339
ag1346
ag1353
ag1360
ag1367
ag1374
ag1381
ag1388
ag1395
ag1402
ag1409
ag1416
ag1423
ag1430
ag1437
ag1444
ag1451
ag1458
ag1465
ag1472
ag1479
ag1486
ag1493
ag1500
ag1507
ag1514
ag1521
ag1528
ag1535
ag1542
ag1549
ag1556
ag1563
ag1570
ag1577
ag1584
asg21
I0
sg52
S'android.provider.ss'
p1589
sba(iArchitecture
Cluster
p1590
(dp1591
g7
(lp1592
(iArchitecture
Entity
p1593
(dp1594
g11
(lp1595
sg13
S'android.provider.ContactsContract$QuickContact'
p1596
sg15
(lp1597
sg17
(lp1598
sg19
(lp1599
sg21
I0
sbasg50
(lp1600
g1596
asg21
I0
sg52
S'android.widget.ss'
p1601
sba(iArchitecture
Cluster
p1602
(dp1603
g7
(lp1604
(iArchitecture
Entity
p1605
(dp1606
g11
(lp1607
sg13
S'android.provider.Settings$Global'
p1608
sg15
(lp1609
sg17
(lp1610
sg19
(lp1611
sg21
I0
sba(iArchitecture
Entity
p1612
(dp1613
g11
(lp1614
sg13
S'android.provider.Settings$NameValueCache'
p1615
sg15
(lp1616
sg17
(lp1617
sg19
(lp1618
sg21
I0
sba(iArchitecture
Entity
p1619
(dp1620
g11
(lp1621
sg13
S'android.provider.Settings$NameValueTable'
p1622
sg15
(lp1623
sg17
(lp1624
sg19
(lp1625
sg21
I0
sba(iArchitecture
Entity
p1626
(dp1627
g11
(lp1628
sg13
S'android.provider.Settings$Secure'
p1629
sg15
(lp1630
sg17
(lp1631
sg19
(lp1632
sg21
I0
sba(iArchitecture
Entity
p1633
(dp1634
g11
(lp1635
sg13
S'android.provider.Settings$System'
p1636
sg15
(lp1637
sg17
(lp1638
sg19
(lp1639
sg21
I0
sba(iArchitecture
Entity
p1640
(dp1641
g11
(lp1642
sg13
S'android.provider.Settings$System$1'
p1643
sg15
(lp1644
sg17
(lp1645
sg19
(lp1646
sg21
I0
sba(iArchitecture
Entity
p1647
(dp1648
g11
(lp1649
sg13
S'android.provider.Settings$System$2'
p1650
sg15
(lp1651
sg17
(lp1652
sg19
(lp1653
sg21
I0
sba(iArchitecture
Entity
p1654
(dp1655
g11
(lp1656
sg13
S'android.provider.Settings$System$3'
p1657
sg15
(lp1658
sg17
(lp1659
sg19
(lp1660
sg21
I0
sba(iArchitecture
Entity
p1661
(dp1662
g11
(lp1663
sg13
S'android.provider.Settings$System$4'
p1664
sg15
(lp1665
sg17
(lp1666
sg19
(lp1667
sg21
I0
sba(iArchitecture
Entity
p1668
(dp1669
g11
(lp1670
sg13
S'android.provider.Settings$System$5'
p1671
sg15
(lp1672
sg17
(lp1673
sg19
(lp1674
sg21
I0
sba(iArchitecture
Entity
p1675
(dp1676
g11
(lp1677
sg13
S'android.provider.Settings$System$6'
p1678
sg15
(lp1679
sg17
(lp1680
sg19
(lp1681
sg21
I0
sba(iArchitecture
Entity
p1682
(dp1683
g11
(lp1684
sg13
S'android.provider.Settings$System$7'
p1685
sg15
(lp1686
sg17
(lp1687
sg19
(lp1688
sg21
I0
sba(iArchitecture
Entity
p1689
(dp1690
g11
(lp1691
sg13
S'android.provider.Settings$System$8'
p1692
sg15
(lp1693
sg17
(lp1694
sg19
(lp1695
sg21
I0
sba(iArchitecture
Entity
p1696
(dp1697
g11
(lp1698
sg13
S'android.provider.Settings$System$9'
p1699
sg15
(lp1700
sg17
(lp1701
sg19
(lp1702
sg21
I0
sba(iArchitecture
Entity
p1703
(dp1704
g11
(lp1705
sg13
S'android.provider.Settings$System$DiscreteValueValidator'
p1706
sg15
(lp1707
sg17
(lp1708
sg19
(lp1709
sg21
I0
sba(iArchitecture
Entity
p1710
(dp1711
g11
(lp1712
sg13
S'android.provider.Settings$System$InclusiveFloatRangeValidator'
p1713
sg15
(lp1714
sg17
(lp1715
sg19
(lp1716
sg21
I0
sba(iArchitecture
Entity
p1717
(dp1718
g11
(lp1719
sg13
S'android.provider.Settings$System$InclusiveIntegerRangeValidator'
p1720
sg15
(lp1721
sg17
(lp1722
sg19
(lp1723
sg21
I0
sba(iArchitecture
Entity
p1724
(dp1725
g11
(lp1726
sg13
S'android.provider.Settings$System$Validator'
p1727
sg15
(lp1728
sg17
(lp1729
sg19
(lp1730
sg21
I0
sbasg50
(lp1731
g1608
ag1615
ag1622
ag1629
ag1636
ag1643
ag1650
ag1657
ag1664
ag1671
ag1678
ag1685
ag1692
ag1699
ag1706
ag1713
ag1720
ag1727
asg21
I0
sg52
S'com.android.server.audio.ss'
p1732
sba(iArchitecture
Cluster
p1733
(dp1734
g7
(lp1735
(iArchitecture
Entity
p1736
(dp1737
g11
(lp1738
sg13
S'android.provider.ContactsInternal'
p1739
sg15
(lp1740
sg17
(lp1741
sg19
(lp1742
sg21
I0
sbasg50
(lp1743
g1739
asg21
I0
sg52
S'com.android.server.devicepolicy.ss'
p1744
sba(iArchitecture
Cluster
p1745
(dp1746
g7
(lp1747
(iArchitecture
Entity
p1748
(dp1749
g11
(lp1750
sg13
S'android.provider.Settings$SettingNotFoundException'
p1751
sg15
(lp1752
sg17
(lp1753
sg19
(lp1754
sg21
I0
sbasg50
(lp1755
g1751
asg21
I0
sg52
S'com.android.server.input.ss'
p1756
sba(iArchitecture
Cluster
p1757
(dp1758
g7
(lp1759
(iArchitecture
Entity
p1760
(dp1761
g11
(lp1762
sg13
S'android.provider.Telephony$Carriers'
p1763
sg15
(lp1764
sg17
(lp1765
sg19
(lp1766
sg21
I0
sba(iArchitecture
Entity
p1767
(dp1768
g11
(lp1769
sg13
S'android.provider.Telephony$Sms$Intents'
p1770
sg15
(lp1771
sg17
(lp1772
sg19
(lp1773
sg21
I0
sbasg50
(lp1774
g1763
ag1770
asg21
I0
sg52
S'com.android.server.location.ss'
p1775
sba(iArchitecture
Cluster
p1776
(dp1777
g7
(lp1778
(iArchitecture
Entity
p1779
(dp1780
g11
(lp1781
sg13
S'android.provider.AlarmClock'
p1782
sg15
(lp1783
sg17
(lp1784
sg19
(lp1785
sg21
I0
sba(iArchitecture
Entity
p1786
(dp1787
g11
(lp1788
sg13
S'android.provider.LiveFolders'
p1789
sg15
(lp1790
sg17
(lp1791
sg19
(lp1792
sg21
I0
sba(iArchitecture
Entity
p1793
(dp1794
g11
(lp1795
sg13
S'android.provider.SyncConstValue'
p1796
sg15
(lp1797
sg17
(lp1798
sg19
(lp1799
sg21
I0
sbasg50
(lp1800
g1782
ag1789
ag1796
asg21
I0
sg52
S'com.android.server.pm.ss'
p1801
sbasS'target_sub'
p1802
S'android.provider'
p1803
sg50
(lp1804
sS'is_component_arch'
p1805
I00
sg52
S'6.0.0_r1'
p1806
sba(iArchitecture
Architecture
p1807
(dp1808
g3
(lp1809
(iArchitecture
Cluster
p1810
(dp1811
g7
(lp1812
(iArchitecture
Entity
p1813
(dp1814
g11
(lp1815
sg13
S'android.provider.Downloads'
p1816
sg15
(lp1817
sg17
(lp1818
sg19
(lp1819
sg21
I0
sba(iArchitecture
Entity
p1820
(dp1821
g11
(lp1822
sg13
S'android.provider.Downloads$Impl'
p1823
sg15
(lp1824
sg17
(lp1825
sg19
(lp1826
sg21
I0
sba(iArchitecture
Entity
p1827
(dp1828
g11
(lp1829
sg13
S'android.provider.Downloads$Impl$RequestHeaders'
p1830
sg15
(lp1831
sg17
(lp1832
sg19
(lp1833
sg21
I0
sbasg50
(lp1834
g1816
ag1823
ag1830
asg21
I0
sg52
S'android.app.ss'
p1835
sba(iArchitecture
Cluster
p1836
(dp1837
g7
(lp1838
(iArchitecture
Entity
p1839
(dp1840
g11
(lp1841
sg13
S'android.provider.MediaStore$Audio'
p1842
sg15
(lp1843
sg17
(lp1844
sg19
(lp1845
sg21
I0
sba(iArchitecture
Entity
p1846
(dp1847
g11
(lp1848
sg13
S'android.provider.MediaStore$Audio$AlbumColumns'
p1849
sg15
(lp1850
sg17
(lp1851
sg19
(lp1852
sg21
I0
sba(iArchitecture
Entity
p1853
(dp1854
g11
(lp1855
sg13
S'android.provider.MediaStore$Audio$Albums'
p1856
sg15
(lp1857
sg17
(lp1858
sg19
(lp1859
sg21
I0
sba(iArchitecture
Entity
p1860
(dp1861
g11
(lp1862
sg13
S'android.provider.MediaStore$Audio$ArtistColumns'
p1863
sg15
(lp1864
sg17
(lp1865
sg19
(lp1866
sg21
I0
sba(iArchitecture
Entity
p1867
(dp1868
g11
(lp1869
sg13
S'android.provider.MediaStore$Audio$Artists'
p1870
sg15
(lp1871
sg17
(lp1872
sg19
(lp1873
sg21
I0
sba(iArchitecture
Entity
p1874
(dp1875
g11
(lp1876
sg13
S'android.provider.MediaStore$Audio$Artists$Albums'
p1877
sg15
(lp1878
sg17
(lp1879
sg19
(lp1880
sg21
I0
sba(iArchitecture
Entity
p1881
(dp1882
g11
(lp1883
sg13
S'android.provider.MediaStore$Audio$AudioColumns'
p1884
sg15
(lp1885
sg17
(lp1886
sg19
(lp1887
sg21
I0
sba(iArchitecture
Entity
p1888
(dp1889
g11
(lp1890
sg13
S'android.provider.MediaStore$Audio$Genres'
p1891
sg15
(lp1892
sg17
(lp1893
sg19
(lp1894
sg21
I0
sba(iArchitecture
Entity
p1895
(dp1896
g11
(lp1897
sg13
S'android.provider.MediaStore$Audio$Genres$Members'
p1898
sg15
(lp1899
sg17
(lp1900
sg19
(lp1901
sg21
I0
sba(iArchitecture
Entity
p1902
(dp1903
g11
(lp1904
sg13
S'android.provider.MediaStore$Audio$GenresColumns'
p1905
sg15
(lp1906
sg17
(lp1907
sg19
(lp1908
sg21
I0
sba(iArchitecture
Entity
p1909
(dp1910
g11
(lp1911
sg13
S'android.provider.MediaStore$Audio$Media'
p1912
sg15
(lp1913
sg17
(lp1914
sg19
(lp1915
sg21
I0
sba(iArchitecture
Entity
p1916
(dp1917
g11
(lp1918
sg13
S'android.provider.MediaStore$Audio$Playlists'
p1919
sg15
(lp1920
sg17
(lp1921
sg19
(lp1922
sg21
I0
sba(iArchitecture
Entity
p1923
(dp1924
g11
(lp1925
sg13
S'android.provider.MediaStore$Audio$Playlists$Members'
p1926
sg15
(lp1927
sg17
(lp1928
sg19
(lp1929
sg21
I0
sba(iArchitecture
Entity
p1930
(dp1931
g11
(lp1932
sg13
S'android.provider.MediaStore$Audio$PlaylistsColumns'
p1933
sg15
(lp1934
sg17
(lp1935
sg19
(lp1936
sg21
I0
sba(iArchitecture
Entity
p1937
(dp1938
g11
(lp1939
sg13
S'android.provider.MediaStore$Audio$Radio'
p1940
sg15
(lp1941
sg17
(lp1942
sg19
(lp1943
sg21
I0
sba(iArchitecture
Entity
p1944
(dp1945
g11
(lp1946
sg13
S'android.provider.MediaStore$Files'
p1947
sg15
(lp1948
sg17
(lp1949
sg19
(lp1950
sg21
I0
sba(iArchitecture
Entity
p1951
(dp1952
g11
(lp1953
sg13
S'android.provider.MediaStore$Files$FileColumns'
p1954
sg15
(lp1955
sg17
(lp1956
sg19
(lp1957
sg21
I0
sbasg50
(lp1958
g1842
ag1849
ag1856
ag1863
ag1870
ag1877
ag1884
ag1891
ag1898
ag1905
ag1912
ag1919
ag1926
ag1933
ag1940
ag1947
ag1954
asg21
I0
sg52
S'android.mtp.ss'
p1959
sba(iArchitecture
Cluster
p1960
(dp1961
g7
(lp1962
(iArchitecture
Entity
p1963
(dp1964
g11
(lp1965
sg13
S'android.provider.BaseColumns'
p1966
sg15
(lp1967
sg17
(lp1968
sg19
(lp1969
sg21
I0
sba(iArchitecture
Entity
p1970
(dp1971
g11
(lp1972
sg13
S'android.provider.BlockedNumberContract'
p1973
sg15
(lp1974
sg17
(lp1975
sg19
(lp1976
sg21
I0
sba(iArchitecture
Entity
p1977
(dp1978
g11
(lp1979
sg13
S'android.provider.BlockedNumberContract$BlockedNumbers'
p1980
sg15
(lp1981
sg17
(lp1982
sg19
(lp1983
sg21
I0
sba(iArchitecture
Entity
p1984
(dp1985
g11
(lp1986
sg13
S'android.provider.BlockedNumberContract$SystemContract'
p1987
sg15
(lp1988
sg17
(lp1989
sg19
(lp1990
sg21
I0
sba(iArchitecture
Entity
p1991
(dp1992
g11
(lp1993
sg13
S'android.provider.BlockedNumberContract$SystemContract$BlockSuppressionStatus'
p1994
sg15
(lp1995
sg17
(lp1996
sg19
(lp1997
sg21
I0
sba(iArchitecture
Entity
p1998
(dp1999
g11
(lp2000
sg13
S'android.provider.Browser'
p2001
sg15
(lp2002
sg17
(lp2003
sg19
(lp2004
sg21
I0
sba(iArchitecture
Entity
p2005
(dp2006
g11
(lp2007
sg13
S'android.provider.Browser$BookmarkColumns'
p2008
sg15
(lp2009
sg17
(lp2010
sg19
(lp2011
sg21
I0
sba(iArchitecture
Entity
p2012
(dp2013
g11
(lp2014
sg13
S'android.provider.Browser$SearchColumns'
p2015
sg15
(lp2016
sg17
(lp2017
sg19
(lp2018
sg21
I0
sba(iArchitecture
Entity
p2019
(dp2020
g11
(lp2021
sg13
S'android.provider.BrowserContract'
p2022
sg15
(lp2023
sg17
(lp2024
sg19
(lp2025
sg21
I0
sba(iArchitecture
Entity
p2026
(dp2027
g11
(lp2028
sg13
S'android.provider.BrowserContract$Accounts'
p2029
sg15
(lp2030
sg17
(lp2031
sg19
(lp2032
sg21
I0
sba(iArchitecture
Entity
p2033
(dp2034
g11
(lp2035
sg13
S'android.provider.BrowserContract$BaseSyncColumns'
p2036
sg15
(lp2037
sg17
(lp2038
sg19
(lp2039
sg21
I0
sba(iArchitecture
Entity
p2040
(dp2041
g11
(lp2042
sg13
S'android.provider.BrowserContract$Bookmarks'
p2043
sg15
(lp2044
sg17
(lp2045
sg19
(lp2046
sg21
I0
sba(iArchitecture
Entity
p2047
(dp2048
g11
(lp2049
sg13
S'android.provider.BrowserContract$ChromeSyncColumns'
p2050
sg15
(lp2051
sg17
(lp2052
sg19
(lp2053
sg21
I0
sba(iArchitecture
Entity
p2054
(dp2055
g11
(lp2056
sg13
S'android.provider.BrowserContract$Combined'
p2057
sg15
(lp2058
sg17
(lp2059
sg19
(lp2060
sg21
I0
sba(iArchitecture
Entity
p2061
(dp2062
g11
(lp2063
sg13
S'android.provider.BrowserContract$CommonColumns'
p2064
sg15
(lp2065
sg17
(lp2066
sg19
(lp2067
sg21
I0
sba(iArchitecture
Entity
p2068
(dp2069
g11
(lp2070
sg13
S'android.provider.BrowserContract$History'
p2071
sg15
(lp2072
sg17
(lp2073
sg19
(lp2074
sg21
I0
sba(iArchitecture
Entity
p2075
(dp2076
g11
(lp2077
sg13
S'android.provider.BrowserContract$HistoryColumns'
p2078
sg15
(lp2079
sg17
(lp2080
sg19
(lp2081
sg21
I0
sba(iArchitecture
Entity
p2082
(dp2083
g11
(lp2084
sg13
S'android.provider.BrowserContract$ImageColumns'
p2085
sg15
(lp2086
sg17
(lp2087
sg19
(lp2088
sg21
I0
sba(iArchitecture
Entity
p2089
(dp2090
g11
(lp2091
sg13
S'android.provider.BrowserContract$ImageMappingColumns'
p2092
sg15
(lp2093
sg17
(lp2094
sg19
(lp2095
sg21
I0
sba(iArchitecture
Entity
p2096
(dp2097
g11
(lp2098
sg13
S'android.provider.BrowserContract$ImageMappings'
p2099
sg15
(lp2100
sg17
(lp2101
sg19
(lp2102
sg21
I0
sba(iArchitecture
Entity
p2103
(dp2104
g11
(lp2105
sg13
S'android.provider.BrowserContract$Images'
p2106
sg15
(lp2107
sg17
(lp2108
sg19
(lp2109
sg21
I0
sba(iArchitecture
Entity
p2110
(dp2111
g11
(lp2112
sg13
S'android.provider.BrowserContract$Searches'
p2113
sg15
(lp2114
sg17
(lp2115
sg19
(lp2116
sg21
I0
sba(iArchitecture
Entity
p2117
(dp2118
g11
(lp2119
sg13
S'android.provider.BrowserContract$Settings'
p2120
sg15
(lp2121
sg17
(lp2122
sg19
(lp2123
sg21
I0
sba(iArchitecture
Entity
p2124
(dp2125
g11
(lp2126
sg13
S'android.provider.BrowserContract$SyncColumns'
p2127
sg15
(lp2128
sg17
(lp2129
sg19
(lp2130
sg21
I0
sba(iArchitecture
Entity
p2131
(dp2132
g11
(lp2133
sg13
S'android.provider.BrowserContract$SyncState'
p2134
sg15
(lp2135
sg17
(lp2136
sg19
(lp2137
sg21
I0
sba(iArchitecture
Entity
p2138
(dp2139
g11
(lp2140
sg13
S'android.provider.CalendarContract'
p2141
sg15
(lp2142
sg17
(lp2143
sg19
(lp2144
sg21
I0
sba(iArchitecture
Entity
p2145
(dp2146
g11
(lp2147
sg13
S'android.provider.CalendarContract$Attendees'
p2148
sg15
(lp2149
sg17
(lp2150
sg19
(lp2151
sg21
I0
sba(iArchitecture
Entity
p2152
(dp2153
g11
(lp2154
sg13
S'android.provider.CalendarContract$AttendeesColumns'
p2155
sg15
(lp2156
sg17
(lp2157
sg19
(lp2158
sg21
I0
sba(iArchitecture
Entity
p2159
(dp2160
g11
(lp2161
sg13
S'android.provider.CalendarContract$CalendarAlerts'
p2162
sg15
(lp2163
sg17
(lp2164
sg19
(lp2165
sg21
I0
sba(iArchitecture
Entity
p2166
(dp2167
g11
(lp2168
sg13
S'android.provider.CalendarContract$CalendarAlertsColumns'
p2169
sg15
(lp2170
sg17
(lp2171
sg19
(lp2172
sg21
I0
sba(iArchitecture
Entity
p2173
(dp2174
g11
(lp2175
sg13
S'android.provider.CalendarContract$CalendarCache'
p2176
sg15
(lp2177
sg17
(lp2178
sg19
(lp2179
sg21
I0
sba(iArchitecture
Entity
p2180
(dp2181
g11
(lp2182
sg13
S'android.provider.CalendarContract$CalendarCacheColumns'
p2183
sg15
(lp2184
sg17
(lp2185
sg19
(lp2186
sg21
I0
sba(iArchitecture
Entity
p2187
(dp2188
g11
(lp2189
sg13
S'android.provider.CalendarContract$CalendarColumns'
p2190
sg15
(lp2191
sg17
(lp2192
sg19
(lp2193
sg21
I0
sba(iArchitecture
Entity
p2194
(dp2195
g11
(lp2196
sg13
S'android.provider.CalendarContract$CalendarEntity'
p2197
sg15
(lp2198
sg17
(lp2199
sg19
(lp2200
sg21
I0
sba(iArchitecture
Entity
p2201
(dp2202
g11
(lp2203
sg13
S'android.provider.CalendarContract$CalendarEntity$EntityIteratorImpl'
p2204
sg15
(lp2205
sg17
(lp2206
sg19
(lp2207
sg21
I0
sba(iArchitecture
Entity
p2208
(dp2209
g11
(lp2210
sg13
S'android.provider.CalendarContract$CalendarMetaData'
p2211
sg15
(lp2212
sg17
(lp2213
sg19
(lp2214
sg21
I0
sba(iArchitecture
Entity
p2215
(dp2216
g11
(lp2217
sg13
S'android.provider.CalendarContract$CalendarMetaDataColumns'
p2218
sg15
(lp2219
sg17
(lp2220
sg19
(lp2221
sg21
I0
sba(iArchitecture
Entity
p2222
(dp2223
g11
(lp2224
sg13
S'android.provider.CalendarContract$CalendarSyncColumns'
p2225
sg15
(lp2226
sg17
(lp2227
sg19
(lp2228
sg21
I0
sba(iArchitecture
Entity
p2229
(dp2230
g11
(lp2231
sg13
S'android.provider.CalendarContract$Calendars'
p2232
sg15
(lp2233
sg17
(lp2234
sg19
(lp2235
sg21
I0
sba(iArchitecture
Entity
p2236
(dp2237
g11
(lp2238
sg13
S'android.provider.CalendarContract$Colors'
p2239
sg15
(lp2240
sg17
(lp2241
sg19
(lp2242
sg21
I0
sba(iArchitecture
Entity
p2243
(dp2244
g11
(lp2245
sg13
S'android.provider.CalendarContract$ColorsColumns'
p2246
sg15
(lp2247
sg17
(lp2248
sg19
(lp2249
sg21
I0
sba(iArchitecture
Entity
p2250
(dp2251
g11
(lp2252
sg13
S'android.provider.CalendarContract$EventDays'
p2253
sg15
(lp2254
sg17
(lp2255
sg19
(lp2256
sg21
I0
sba(iArchitecture
Entity
p2257
(dp2258
g11
(lp2259
sg13
S'android.provider.CalendarContract$EventDaysColumns'
p2260
sg15
(lp2261
sg17
(lp2262
sg19
(lp2263
sg21
I0
sba(iArchitecture
Entity
p2264
(dp2265
g11
(lp2266
sg13
S'android.provider.CalendarContract$Events'
p2267
sg15
(lp2268
sg17
(lp2269
sg19
(lp2270
sg21
I0
sba(iArchitecture
Entity
p2271
(dp2272
g11
(lp2273
sg13
S'android.provider.CalendarContract$EventsColumns'
p2274
sg15
(lp2275
sg17
(lp2276
sg19
(lp2277
sg21
I0
sba(iArchitecture
Entity
p2278
(dp2279
g11
(lp2280
sg13
S'android.provider.CalendarContract$EventsEntity'
p2281
sg15
(lp2282
sg17
(lp2283
sg19
(lp2284
sg21
I0
sba(iArchitecture
Entity
p2285
(dp2286
g11
(lp2287
sg13
S'android.provider.CalendarContract$EventsEntity$EntityIteratorImpl'
p2288
sg15
(lp2289
sg17
(lp2290
sg19
(lp2291
sg21
I0
sba(iArchitecture
Entity
p2292
(dp2293
g11
(lp2294
sg13
S'android.provider.CalendarContract$EventsRawTimes'
p2295
sg15
(lp2296
sg17
(lp2297
sg19
(lp2298
sg21
I0
sba(iArchitecture
Entity
p2299
(dp2300
g11
(lp2301
sg13
S'android.provider.CalendarContract$EventsRawTimesColumns'
p2302
sg15
(lp2303
sg17
(lp2304
sg19
(lp2305
sg21
I0
sba(iArchitecture
Entity
p2306
(dp2307
g11
(lp2308
sg13
S'android.provider.CalendarContract$ExtendedProperties'
p2309
sg15
(lp2310
sg17
(lp2311
sg19
(lp2312
sg21
I0
sba(iArchitecture
Entity
p2313
(dp2314
g11
(lp2315
sg13
S'android.provider.CalendarContract$ExtendedPropertiesColumns'
p2316
sg15
(lp2317
sg17
(lp2318
sg19
(lp2319
sg21
I0
sba(iArchitecture
Entity
p2320
(dp2321
g11
(lp2322
sg13
S'android.provider.CalendarContract$Instances'
p2323
sg15
(lp2324
sg17
(lp2325
sg19
(lp2326
sg21
I0
sba(iArchitecture
Entity
p2327
(dp2328
g11
(lp2329
sg13
S'android.provider.CalendarContract$Reminders'
p2330
sg15
(lp2331
sg17
(lp2332
sg19
(lp2333
sg21
I0
sba(iArchitecture
Entity
p2334
(dp2335
g11
(lp2336
sg13
S'android.provider.CalendarContract$RemindersColumns'
p2337
sg15
(lp2338
sg17
(lp2339
sg19
(lp2340
sg21
I0
sba(iArchitecture
Entity
p2341
(dp2342
g11
(lp2343
sg13
S'android.provider.CalendarContract$SyncColumns'
p2344
sg15
(lp2345
sg17
(lp2346
sg19
(lp2347
sg21
I0
sba(iArchitecture
Entity
p2348
(dp2349
g11
(lp2350
sg13
S'android.provider.CalendarContract$SyncState'
p2351
sg15
(lp2352
sg17
(lp2353
sg19
(lp2354
sg21
I0
sba(iArchitecture
Entity
p2355
(dp2356
g11
(lp2357
sg13
S'android.provider.CallLog'
p2358
sg15
(lp2359
sg17
(lp2360
sg19
(lp2361
sg21
I0
sba(iArchitecture
Entity
p2362
(dp2363
g11
(lp2364
sg13
S'android.provider.CallLog$Calls'
p2365
sg15
(lp2366
sg17
(lp2367
sg19
(lp2368
sg21
I0
sba(iArchitecture
Entity
p2369
(dp2370
g11
(lp2371
sg13
S'android.provider.Contacts'
p2372
sg15
(lp2373
sg17
(lp2374
sg19
(lp2375
sg21
I0
sba(iArchitecture
Entity
p2376
(dp2377
g11
(lp2378
sg13
S'android.provider.Contacts$ContactMethods'
p2379
sg15
(lp2380
sg17
(lp2381
sg19
(lp2382
sg21
I0
sba(iArchitecture
Entity
p2383
(dp2384
g11
(lp2385
sg13
S'android.provider.Contacts$ContactMethods$ProviderNames'
p2386
sg15
(lp2387
sg17
(lp2388
sg19
(lp2389
sg21
I0
sba(iArchitecture
Entity
p2390
(dp2391
g11
(lp2392
sg13
S'android.provider.Contacts$ContactMethodsColumns'
p2393
sg15
(lp2394
sg17
(lp2395
sg19
(lp2396
sg21
I0
sba(iArchitecture
Entity
p2397
(dp2398
g11
(lp2399
sg13
S'android.provider.Contacts$Extensions'
p2400
sg15
(lp2401
sg17
(lp2402
sg19
(lp2403
sg21
I0
sba(iArchitecture
Entity
p2404
(dp2405
g11
(lp2406
sg13
S'android.provider.Contacts$ExtensionsColumns'
p2407
sg15
(lp2408
sg17
(lp2409
sg19
(lp2410
sg21
I0
sba(iArchitecture
Entity
p2411
(dp2412
g11
(lp2413
sg13
S'android.provider.Contacts$GroupMembership'
p2414
sg15
(lp2415
sg17
(lp2416
sg19
(lp2417
sg21
I0
sba(iArchitecture
Entity
p2418
(dp2419
g11
(lp2420
sg13
S'android.provider.Contacts$Groups'
p2421
sg15
(lp2422
sg17
(lp2423
sg19
(lp2424
sg21
I0
sba(iArchitecture
Entity
p2425
(dp2426
g11
(lp2427
sg13
S'android.provider.Contacts$GroupsColumns'
p2428
sg15
(lp2429
sg17
(lp2430
sg19
(lp2431
sg21
I0
sba(iArchitecture
Entity
p2432
(dp2433
g11
(lp2434
sg13
S'android.provider.Contacts$Intents'
p2435
sg15
(lp2436
sg17
(lp2437
sg19
(lp2438
sg21
I0
sba(iArchitecture
Entity
p2439
(dp2440
g11
(lp2441
sg13
S'android.provider.Contacts$Intents$Insert'
p2442
sg15
(lp2443
sg17
(lp2444
sg19
(lp2445
sg21
I0
sba(iArchitecture
Entity
p2446
(dp2447
g11
(lp2448
sg13
S'android.provider.Contacts$Intents$UI'
p2449
sg15
(lp2450
sg17
(lp2451
sg19
(lp2452
sg21
I0
sba(iArchitecture
Entity
p2453
(dp2454
g11
(lp2455
sg13
S'android.provider.Contacts$OrganizationColumns'
p2456
sg15
(lp2457
sg17
(lp2458
sg19
(lp2459
sg21
I0
sba(iArchitecture
Entity
p2460
(dp2461
g11
(lp2462
sg13
S'android.provider.Contacts$Organizations'
p2463
sg15
(lp2464
sg17
(lp2465
sg19
(lp2466
sg21
I0
sba(iArchitecture
Entity
p2467
(dp2468
g11
(lp2469
sg13
S'android.provider.Contacts$People'
p2470
sg15
(lp2471
sg17
(lp2472
sg19
(lp2473
sg21
I0
sba(iArchitecture
Entity
p2474
(dp2475
g11
(lp2476
sg13
S'android.provider.Contacts$People$ContactMethods'
p2477
sg15
(lp2478
sg17
(lp2479
sg19
(lp2480
sg21
I0
sba(iArchitecture
Entity
p2481
(dp2482
g11
(lp2483
sg13
S'android.provider.Contacts$People$Extensions'
p2484
sg15
(lp2485
sg17
(lp2486
sg19
(lp2487
sg21
I0
sba(iArchitecture
Entity
p2488
(dp2489
g11
(lp2490
sg13
S'android.provider.Contacts$People$Phones'
p2491
sg15
(lp2492
sg17
(lp2493
sg19
(lp2494
sg21
I0
sba(iArchitecture
Entity
p2495
(dp2496
g11
(lp2497
sg13
S'android.provider.Contacts$PeopleColumns'
p2498
sg15
(lp2499
sg17
(lp2500
sg19
(lp2501
sg21
I0
sba(iArchitecture
Entity
p2502
(dp2503
g11
(lp2504
sg13
S'android.provider.Contacts$Phones'
p2505
sg15
(lp2506
sg17
(lp2507
sg19
(lp2508
sg21
I0
sba(iArchitecture
Entity
p2509
(dp2510
g11
(lp2511
sg13
S'android.provider.Contacts$PhonesColumns'
p2512
sg15
(lp2513
sg17
(lp2514
sg19
(lp2515
sg21
I0
sba(iArchitecture
Entity
p2516
(dp2517
g11
(lp2518
sg13
S'android.provider.Contacts$Photos'
p2519
sg15
(lp2520
sg17
(lp2521
sg19
(lp2522
sg21
I0
sba(iArchitecture
Entity
p2523
(dp2524
g11
(lp2525
sg13
S'android.provider.Contacts$PhotosColumns'
p2526
sg15
(lp2527
sg17
(lp2528
sg19
(lp2529
sg21
I0
sba(iArchitecture
Entity
p2530
(dp2531
g11
(lp2532
sg13
S'android.provider.Contacts$Presence'
p2533
sg15
(lp2534
sg17
(lp2535
sg19
(lp2536
sg21
I0
sba(iArchitecture
Entity
p2537
(dp2538
g11
(lp2539
sg13
S'android.provider.Contacts$PresenceColumns'
p2540
sg15
(lp2541
sg17
(lp2542
sg19
(lp2543
sg21
I0
sba(iArchitecture
Entity
p2544
(dp2545
g11
(lp2546
sg13
S'android.provider.Contacts$Settings'
p2547
sg15
(lp2548
sg17
(lp2549
sg19
(lp2550
sg21
I0
sba(iArchitecture
Entity
p2551
(dp2552
g11
(lp2553
sg13
S'android.provider.Contacts$SettingsColumns'
p2554
sg15
(lp2555
sg17
(lp2556
sg19
(lp2557
sg21
I0
sba(iArchitecture
Entity
p2558
(dp2559
g11
(lp2560
sg13
S'android.provider.ContactsContract'
p2561
sg15
(lp2562
sg17
(lp2563
sg19
(lp2564
sg21
I0
sba(iArchitecture
Entity
p2565
(dp2566
g11
(lp2567
sg13
S'android.provider.ContactsContract$AggregationExceptions'
p2568
sg15
(lp2569
sg17
(lp2570
sg19
(lp2571
sg21
I0
sba(iArchitecture
Entity
p2572
(dp2573
g11
(lp2574
sg13
S'android.provider.ContactsContract$Authorization'
p2575
sg15
(lp2576
sg17
(lp2577
sg19
(lp2578
sg21
I0
sba(iArchitecture
Entity
p2579
(dp2580
g11
(lp2581
sg13
S'android.provider.ContactsContract$BaseSyncColumns'
p2582
sg15
(lp2583
sg17
(lp2584
sg19
(lp2585
sg21
I0
sba(iArchitecture
Entity
p2586
(dp2587
g11
(lp2588
sg13
S'android.provider.ContactsContract$CommonDataKinds'
p2589
sg15
(lp2590
sg17
(lp2591
sg19
(lp2592
sg21
I0
sba(iArchitecture
Entity
p2593
(dp2594
g11
(lp2595
sg13
S'android.provider.ContactsContract$CommonDataKinds$BaseTypes'
p2596
sg15
(lp2597
sg17
(lp2598
sg19
(lp2599
sg21
I0
sba(iArchitecture
Entity
p2600
(dp2601
g11
(lp2602
sg13
S'android.provider.ContactsContract$CommonDataKinds$Callable'
p2603
sg15
(lp2604
sg17
(lp2605
sg19
(lp2606
sg21
I0
sba(iArchitecture
Entity
p2607
(dp2608
g11
(lp2609
sg13
S'android.provider.ContactsContract$CommonDataKinds$CommonColumns'
p2610
sg15
(lp2611
sg17
(lp2612
sg19
(lp2613
sg21
I0
sba(iArchitecture
Entity
p2614
(dp2615
g11
(lp2616
sg13
S'android.provider.ContactsContract$CommonDataKinds$Contactables'
p2617
sg15
(lp2618
sg17
(lp2619
sg19
(lp2620
sg21
I0
sba(iArchitecture
Entity
p2621
(dp2622
g11
(lp2623
sg13
S'android.provider.ContactsContract$CommonDataKinds$Email'
p2624
sg15
(lp2625
sg17
(lp2626
sg19
(lp2627
sg21
I0
sba(iArchitecture
Entity
p2628
(dp2629
g11
(lp2630
sg13
S'android.provider.ContactsContract$CommonDataKinds$Event'
p2631
sg15
(lp2632
sg17
(lp2633
sg19
(lp2634
sg21
I0
sba(iArchitecture
Entity
p2635
(dp2636
g11
(lp2637
sg13
S'android.provider.ContactsContract$CommonDataKinds$GroupMembership'
p2638
sg15
(lp2639
sg17
(lp2640
sg19
(lp2641
sg21
I0
sba(iArchitecture
Entity
p2642
(dp2643
g11
(lp2644
sg13
S'android.provider.ContactsContract$CommonDataKinds$Identity'
p2645
sg15
(lp2646
sg17
(lp2647
sg19
(lp2648
sg21
I0
sba(iArchitecture
Entity
p2649
(dp2650
g11
(lp2651
sg13
S'android.provider.ContactsContract$CommonDataKinds$Im'
p2652
sg15
(lp2653
sg17
(lp2654
sg19
(lp2655
sg21
I0
sba(iArchitecture
Entity
p2656
(dp2657
g11
(lp2658
sg13
S'android.provider.ContactsContract$CommonDataKinds$Nickname'
p2659
sg15
(lp2660
sg17
(lp2661
sg19
(lp2662
sg21
I0
sba(iArchitecture
Entity
p2663
(dp2664
g11
(lp2665
sg13
S'android.provider.ContactsContract$CommonDataKinds$Note'
p2666
sg15
(lp2667
sg17
(lp2668
sg19
(lp2669
sg21
I0
sba(iArchitecture
Entity
p2670
(dp2671
g11
(lp2672
sg13
S'android.provider.ContactsContract$CommonDataKinds$Organization'
p2673
sg15
(lp2674
sg17
(lp2675
sg19
(lp2676
sg21
I0
sba(iArchitecture
Entity
p2677
(dp2678
g11
(lp2679
sg13
S'android.provider.ContactsContract$CommonDataKinds$Phone'
p2680
sg15
(lp2681
sg17
(lp2682
sg19
(lp2683
sg21
I0
sba(iArchitecture
Entity
p2684
(dp2685
g11
(lp2686
sg13
S'android.provider.ContactsContract$CommonDataKinds$Photo'
p2687
sg15
(lp2688
sg17
(lp2689
sg19
(lp2690
sg21
I0
sba(iArchitecture
Entity
p2691
(dp2692
g11
(lp2693
sg13
S'android.provider.ContactsContract$CommonDataKinds$Relation'
p2694
sg15
(lp2695
sg17
(lp2696
sg19
(lp2697
sg21
I0
sba(iArchitecture
Entity
p2698
(dp2699
g11
(lp2700
sg13
S'android.provider.ContactsContract$CommonDataKinds$SipAddress'
p2701
sg15
(lp2702
sg17
(lp2703
sg19
(lp2704
sg21
I0
sba(iArchitecture
Entity
p2705
(dp2706
g11
(lp2707
sg13
S'android.provider.ContactsContract$CommonDataKinds$StructuredName'
p2708
sg15
(lp2709
sg17
(lp2710
sg19
(lp2711
sg21
I0
sba(iArchitecture
Entity
p2712
(dp2713
g11
(lp2714
sg13
S'android.provider.ContactsContract$CommonDataKinds$StructuredPostal'
p2715
sg15
(lp2716
sg17
(lp2717
sg19
(lp2718
sg21
I0
sba(iArchitecture
Entity
p2719
(dp2720
g11
(lp2721
sg13
S'android.provider.ContactsContract$CommonDataKinds$Website'
p2722
sg15
(lp2723
sg17
(lp2724
sg19
(lp2725
sg21
I0
sba(iArchitecture
Entity
p2726
(dp2727
g11
(lp2728
sg13
S'android.provider.ContactsContract$ContactCounts'
p2729
sg15
(lp2730
sg17
(lp2731
sg19
(lp2732
sg21
I0
sba(iArchitecture
Entity
p2733
(dp2734
g11
(lp2735
sg13
S'android.provider.ContactsContract$ContactNameColumns'
p2736
sg15
(lp2737
sg17
(lp2738
sg19
(lp2739
sg21
I0
sba(iArchitecture
Entity
p2740
(dp2741
g11
(lp2742
sg13
S'android.provider.ContactsContract$ContactOptionsColumns'
p2743
sg15
(lp2744
sg17
(lp2745
sg19
(lp2746
sg21
I0
sba(iArchitecture
Entity
p2747
(dp2748
g11
(lp2749
sg13
S'android.provider.ContactsContract$ContactStatusColumns'
p2750
sg15
(lp2751
sg17
(lp2752
sg19
(lp2753
sg21
I0
sba(iArchitecture
Entity
p2754
(dp2755
g11
(lp2756
sg13
S'android.provider.ContactsContract$Contacts'
p2757
sg15
(lp2758
sg17
(lp2759
sg19
(lp2760
sg21
I0
sba(iArchitecture
Entity
p2761
(dp2762
g11
(lp2763
sg13
S'android.provider.ContactsContract$Contacts$AggregationSuggestions'
p2764
sg15
(lp2765
sg17
(lp2766
sg19
(lp2767
sg21
I0
sba(iArchitecture
Entity
p2768
(dp2769
g11
(lp2770
sg13
S'android.provider.ContactsContract$Contacts$AggregationSuggestions$Builder'
p2771
sg15
(lp2772
sg17
(lp2773
sg19
(lp2774
sg21
I0
sba(iArchitecture
Entity
p2775
(dp2776
g11
(lp2777
sg13
S'android.provider.ContactsContract$Contacts$Data'
p2778
sg15
(lp2779
sg17
(lp2780
sg19
(lp2781
sg21
I0
sba(iArchitecture
Entity
p2782
(dp2783
g11
(lp2784
sg13
S'android.provider.ContactsContract$Contacts$Entity'
p2785
sg15
(lp2786
sg17
(lp2787
sg19
(lp2788
sg21
I0
sba(iArchitecture
Entity
p2789
(dp2790
g11
(lp2791
sg13
S'android.provider.ContactsContract$Contacts$Photo'
p2792
sg15
(lp2793
sg17
(lp2794
sg19
(lp2795
sg21
I0
sba(iArchitecture
Entity
p2796
(dp2797
g11
(lp2798
sg13
S'android.provider.ContactsContract$Contacts$StreamItems'
p2799
sg15
(lp2800
sg17
(lp2801
sg19
(lp2802
sg21
I0
sba(iArchitecture
Entity
p2803
(dp2804
g11
(lp2805
sg13
S'android.provider.ContactsContract$ContactsColumns'
p2806
sg15
(lp2807
sg17
(lp2808
sg19
(lp2809
sg21
I0
sba(iArchitecture
Entity
p2810
(dp2811
g11
(lp2812
sg13
S'android.provider.ContactsContract$Data'
p2813
sg15
(lp2814
sg17
(lp2815
sg19
(lp2816
sg21
I0
sba(iArchitecture
Entity
p2817
(dp2818
g11
(lp2819
sg13
S'android.provider.ContactsContract$DataColumns'
p2820
sg15
(lp2821
sg17
(lp2822
sg19
(lp2823
sg21
I0
sba(iArchitecture
Entity
p2824
(dp2825
g11
(lp2826
sg13
S'android.provider.ContactsContract$DataColumnsWithJoins'
p2827
sg15
(lp2828
sg17
(lp2829
sg19
(lp2830
sg21
I0
sba(iArchitecture
Entity
p2831
(dp2832
g11
(lp2833
sg13
S'android.provider.ContactsContract$DataUsageFeedback'
p2834
sg15
(lp2835
sg17
(lp2836
sg19
(lp2837
sg21
I0
sba(iArchitecture
Entity
p2838
(dp2839
g11
(lp2840
sg13
S'android.provider.ContactsContract$DataUsageStatColumns'
p2841
sg15
(lp2842
sg17
(lp2843
sg19
(lp2844
sg21
I0
sba(iArchitecture
Entity
p2845
(dp2846
g11
(lp2847
sg13
S'android.provider.ContactsContract$DeletedContacts'
p2848
sg15
(lp2849
sg17
(lp2850
sg19
(lp2851
sg21
I0
sba(iArchitecture
Entity
p2852
(dp2853
g11
(lp2854
sg13
S'android.provider.ContactsContract$DeletedContactsColumns'
p2855
sg15
(lp2856
sg17
(lp2857
sg19
(lp2858
sg21
I0
sba(iArchitecture
Entity
p2859
(dp2860
g11
(lp2861
sg13
S'android.provider.ContactsContract$Directory'
p2862
sg15
(lp2863
sg17
(lp2864
sg19
(lp2865
sg21
I0
sba(iArchitecture
Entity
p2866
(dp2867
g11
(lp2868
sg13
S'android.provider.ContactsContract$DisplayNameSources'
p2869
sg15
(lp2870
sg17
(lp2871
sg19
(lp2872
sg21
I0
sba(iArchitecture
Entity
p2873
(dp2874
g11
(lp2875
sg13
S'android.provider.ContactsContract$DisplayPhoto'
p2876
sg15
(lp2877
sg17
(lp2878
sg19
(lp2879
sg21
I0
sba(iArchitecture
Entity
p2880
(dp2881
g11
(lp2882
sg13
S'android.provider.ContactsContract$FullNameStyle'
p2883
sg15
(lp2884
sg17
(lp2885
sg19
(lp2886
sg21
I0
sba(iArchitecture
Entity
p2887
(dp2888
g11
(lp2889
sg13
S'android.provider.ContactsContract$Groups'
p2890
sg15
(lp2891
sg17
(lp2892
sg19
(lp2893
sg21
I0
sba(iArchitecture
Entity
p2894
(dp2895
g11
(lp2896
sg13
S'android.provider.ContactsContract$Groups$EntityIteratorImpl'
p2897
sg15
(lp2898
sg17
(lp2899
sg19
(lp2900
sg21
I0
sba(iArchitecture
Entity
p2901
(dp2902
g11
(lp2903
sg13
S'android.provider.ContactsContract$GroupsColumns'
p2904
sg15
(lp2905
sg17
(lp2906
sg19
(lp2907
sg21
I0
sba(iArchitecture
Entity
p2908
(dp2909
g11
(lp2910
sg13
S'android.provider.ContactsContract$Intents'
p2911
sg15
(lp2912
sg17
(lp2913
sg19
(lp2914
sg21
I0
sba(iArchitecture
Entity
p2915
(dp2916
g11
(lp2917
sg13
S'android.provider.ContactsContract$Intents$Insert'
p2918
sg15
(lp2919
sg17
(lp2920
sg19
(lp2921
sg21
I0
sba(iArchitecture
Entity
p2922
(dp2923
g11
(lp2924
sg13
S'android.provider.ContactsContract$MetadataSync'
p2925
sg15
(lp2926
sg17
(lp2927
sg19
(lp2928
sg21
I0
sba(iArchitecture
Entity
p2929
(dp2930
g11
(lp2931
sg13
S'android.provider.ContactsContract$MetadataSyncColumns'
p2932
sg15
(lp2933
sg17
(lp2934
sg19
(lp2935
sg21
I0
sba(iArchitecture
Entity
p2936
(dp2937
g11
(lp2938
sg13
S'android.provider.ContactsContract$MetadataSyncState'
p2939
sg15
(lp2940
sg17
(lp2941
sg19
(lp2942
sg21
I0
sba(iArchitecture
Entity
p2943
(dp2944
g11
(lp2945
sg13
S'android.provider.ContactsContract$MetadataSyncStateColumns'
p2946
sg15
(lp2947
sg17
(lp2948
sg19
(lp2949
sg21
I0
sba(iArchitecture
Entity
p2950
(dp2951
g11
(lp2952
sg13
S'android.provider.ContactsContract$PhoneLookup'
p2953
sg15
(lp2954
sg17
(lp2955
sg19
(lp2956
sg21
I0
sba(iArchitecture
Entity
p2957
(dp2958
g11
(lp2959
sg13
S'android.provider.ContactsContract$PhoneLookupColumns'
p2960
sg15
(lp2961
sg17
(lp2962
sg19
(lp2963
sg21
I0
sba(iArchitecture
Entity
p2964
(dp2965
g11
(lp2966
sg13
S'android.provider.ContactsContract$PhoneticNameStyle'
p2967
sg15
(lp2968
sg17
(lp2969
sg19
(lp2970
sg21
I0
sba(iArchitecture
Entity
p2971
(dp2972
g11
(lp2973
sg13
S'android.provider.ContactsContract$PhotoFiles'
p2974
sg15
(lp2975
sg17
(lp2976
sg19
(lp2977
sg21
I0
sba(iArchitecture
Entity
p2978
(dp2979
g11
(lp2980
sg13
S'android.provider.ContactsContract$PhotoFilesColumns'
p2981
sg15
(lp2982
sg17
(lp2983
sg19
(lp2984
sg21
I0
sba(iArchitecture
Entity
p2985
(dp2986
g11
(lp2987
sg13
S'android.provider.ContactsContract$PinnedPositions'
p2988
sg15
(lp2989
sg17
(lp2990
sg19
(lp2991
sg21
I0
sba(iArchitecture
Entity
p2992
(dp2993
g11
(lp2994
sg13
S'android.provider.ContactsContract$Presence'
p2995
sg15
(lp2996
sg17
(lp2997
sg19
(lp2998
sg21
I0
sba(iArchitecture
Entity
p2999
(dp3000
g11
(lp3001
sg13
S'android.provider.ContactsContract$PresenceColumns'
p3002
sg15
(lp3003
sg17
(lp3004
sg19
(lp3005
sg21
I0
sba(iArchitecture
Entity
p3006
(dp3007
g11
(lp3008
sg13
S'android.provider.ContactsContract$Profile'
p3009
sg15
(lp3010
sg17
(lp3011
sg19
(lp3012
sg21
I0
sba(iArchitecture
Entity
p3013
(dp3014
g11
(lp3015
sg13
S'android.provider.ContactsContract$ProfileSyncState'
p3016
sg15
(lp3017
sg17
(lp3018
sg19
(lp3019
sg21
I0
sba(iArchitecture
Entity
p3020
(dp3021
g11
(lp3022
sg13
S'android.provider.ContactsContract$ProviderStatus'
p3023
sg15
(lp3024
sg17
(lp3025
sg19
(lp3026
sg21
I0
sba(iArchitecture
Entity
p3027
(dp3028
g11
(lp3029
sg13
S'android.provider.ContactsContract$RawContacts'
p3030
sg15
(lp3031
sg17
(lp3032
sg19
(lp3033
sg21
I0
sba(iArchitecture
Entity
p3034
(dp3035
g11
(lp3036
sg13
S'android.provider.ContactsContract$RawContacts$Data'
p3037
sg15
(lp3038
sg17
(lp3039
sg19
(lp3040
sg21
I0
sba(iArchitecture
Entity
p3041
(dp3042
g11
(lp3043
sg13
S'android.provider.ContactsContract$RawContacts$DisplayPhoto'
p3044
sg15
(lp3045
sg17
(lp3046
sg19
(lp3047
sg21
I0
sba(iArchitecture
Entity
p3048
(dp3049
g11
(lp3050
sg13
S'android.provider.ContactsContract$RawContacts$Entity'
p3051
sg15
(lp3052
sg17
(lp3053
sg19
(lp3054
sg21
I0
sba(iArchitecture
Entity
p3055
(dp3056
g11
(lp3057
sg13
S'android.provider.ContactsContract$RawContacts$EntityIteratorImpl'
p3058
sg15
(lp3059
sg17
(lp3060
sg19
(lp3061
sg21
I0
sba(iArchitecture
Entity
p3062
(dp3063
g11
(lp3064
sg13
S'android.provider.ContactsContract$RawContacts$StreamItems'
p3065
sg15
(lp3066
sg17
(lp3067
sg19
(lp3068
sg21
I0
sba(iArchitecture
Entity
p3069
(dp3070
g11
(lp3071
sg13
S'android.provider.ContactsContract$RawContactsColumns'
p3072
sg15
(lp3073
sg17
(lp3074
sg19
(lp3075
sg21
I0
sba(iArchitecture
Entity
p3076
(dp3077
g11
(lp3078
sg13
S'android.provider.ContactsContract$RawContactsEntity'
p3079
sg15
(lp3080
sg17
(lp3081
sg19
(lp3082
sg21
I0
sba(iArchitecture
Entity
p3083
(dp3084
g11
(lp3085
sg13
S'android.provider.ContactsContract$SearchSnippets'
p3086
sg15
(lp3087
sg17
(lp3088
sg19
(lp3089
sg21
I0
sba(iArchitecture
Entity
p3090
(dp3091
g11
(lp3092
sg13
S'android.provider.ContactsContract$Settings'
p3093
sg15
(lp3094
sg17
(lp3095
sg19
(lp3096
sg21
I0
sba(iArchitecture
Entity
p3097
(dp3098
g11
(lp3099
sg13
S'android.provider.ContactsContract$SettingsColumns'
p3100
sg15
(lp3101
sg17
(lp3102
sg19
(lp3103
sg21
I0
sba(iArchitecture
Entity
p3104
(dp3105
g11
(lp3106
sg13
S'android.provider.ContactsContract$StatusColumns'
p3107
sg15
(lp3108
sg17
(lp3109
sg19
(lp3110
sg21
I0
sba(iArchitecture
Entity
p3111
(dp3112
g11
(lp3113
sg13
S'android.provider.ContactsContract$StatusUpdates'
p3114
sg15
(lp3115
sg17
(lp3116
sg19
(lp3117
sg21
I0
sba(iArchitecture
Entity
p3118
(dp3119
g11
(lp3120
sg13
S'android.provider.ContactsContract$StreamItemPhotos'
p3121
sg15
(lp3122
sg17
(lp3123
sg19
(lp3124
sg21
I0
sba(iArchitecture
Entity
p3125
(dp3126
g11
(lp3127
sg13
S'android.provider.ContactsContract$StreamItemPhotosColumns'
p3128
sg15
(lp3129
sg17
(lp3130
sg19
(lp3131
sg21
I0
sba(iArchitecture
Entity
p3132
(dp3133
g11
(lp3134
sg13
S'android.provider.ContactsContract$StreamItems'
p3135
sg15
(lp3136
sg17
(lp3137
sg19
(lp3138
sg21
I0
sba(iArchitecture
Entity
p3139
(dp3140
g11
(lp3141
sg13
S'android.provider.ContactsContract$StreamItems$StreamItemPhotos'
p3142
sg15
(lp3143
sg17
(lp3144
sg19
(lp3145
sg21
I0
sba(iArchitecture
Entity
p3146
(dp3147
g11
(lp3148
sg13
S'android.provider.ContactsContract$StreamItemsColumns'
p3149
sg15
(lp3150
sg17
(lp3151
sg19
(lp3152
sg21
I0
sba(iArchitecture
Entity
p3153
(dp3154
g11
(lp3155
sg13
S'android.provider.ContactsContract$SyncColumns'
p3156
sg15
(lp3157
sg17
(lp3158
sg19
(lp3159
sg21
I0
sba(iArchitecture
Entity
p3160
(dp3161
g11
(lp3162
sg13
S'android.provider.ContactsContract$SyncState'
p3163
sg15
(lp3164
sg17
(lp3165
sg19
(lp3166
sg21
I0
sba(iArchitecture
Entity
p3167
(dp3168
g11
(lp3169
sg13
S'android.provider.ContactsContract$SyncStateColumns'
p3170
sg15
(lp3171
sg17
(lp3172
sg19
(lp3173
sg21
I0
sba(iArchitecture
Entity
p3174
(dp3175
g11
(lp3176
sg13
S'android.provider.DocumentsContract'
p3177
sg15
(lp3178
sg17
(lp3179
sg19
(lp3180
sg21
I0
sba(iArchitecture
Entity
p3181
(dp3182
g11
(lp3183
sg13
S'android.provider.DocumentsContract$Document'
p3184
sg15
(lp3185
sg17
(lp3186
sg19
(lp3187
sg21
I0
sba(iArchitecture
Entity
p3188
(dp3189
g11
(lp3190
sg13
S'android.provider.DocumentsContract$Root'
p3191
sg15
(lp3192
sg17
(lp3193
sg19
(lp3194
sg21
I0
sba(iArchitecture
Entity
p3195
(dp3196
g11
(lp3197
sg13
S'android.provider.MediaStore'
p3198
sg15
(lp3199
sg17
(lp3200
sg19
(lp3201
sg21
I0
sba(iArchitecture
Entity
p3202
(dp3203
g11
(lp3204
sg13
S'android.provider.MediaStore$Images'
p3205
sg15
(lp3206
sg17
(lp3207
sg19
(lp3208
sg21
I0
sba(iArchitecture
Entity
p3209
(dp3210
g11
(lp3211
sg13
S'android.provider.MediaStore$Images$ImageColumns'
p3212
sg15
(lp3213
sg17
(lp3214
sg19
(lp3215
sg21
I0
sba(iArchitecture
Entity
p3216
(dp3217
g11
(lp3218
sg13
S'android.provider.MediaStore$Images$Media'
p3219
sg15
(lp3220
sg17
(lp3221
sg19
(lp3222
sg21
I0
sba(iArchitecture
Entity
p3223
(dp3224
g11
(lp3225
sg13
S'android.provider.MediaStore$Images$Thumbnails'
p3226
sg15
(lp3227
sg17
(lp3228
sg19
(lp3229
sg21
I0
sba(iArchitecture
Entity
p3230
(dp3231
g11
(lp3232
sg13
S'android.provider.MediaStore$InternalThumbnails'
p3233
sg15
(lp3234
sg17
(lp3235
sg19
(lp3236
sg21
I0
sba(iArchitecture
Entity
p3237
(dp3238
g11
(lp3239
sg13
S'android.provider.MediaStore$MediaColumns'
p3240
sg15
(lp3241
sg17
(lp3242
sg19
(lp3243
sg21
I0
sba(iArchitecture
Entity
p3244
(dp3245
g11
(lp3246
sg13
S'android.provider.MediaStore$Video'
p3247
sg15
(lp3248
sg17
(lp3249
sg19
(lp3250
sg21
I0
sba(iArchitecture
Entity
p3251
(dp3252
g11
(lp3253
sg13
S'android.provider.MediaStore$Video$Media'
p3254
sg15
(lp3255
sg17
(lp3256
sg19
(lp3257
sg21
I0
sba(iArchitecture
Entity
p3258
(dp3259
g11
(lp3260
sg13
S'android.provider.MediaStore$Video$Thumbnails'
p3261
sg15
(lp3262
sg17
(lp3263
sg19
(lp3264
sg21
I0
sba(iArchitecture
Entity
p3265
(dp3266
g11
(lp3267
sg13
S'android.provider.MediaStore$Video$VideoColumns'
p3268
sg15
(lp3269
sg17
(lp3270
sg19
(lp3271
sg21
I0
sba(iArchitecture
Entity
p3272
(dp3273
g11
(lp3274
sg13
S'android.provider.OpenableColumns'
p3275
sg15
(lp3276
sg17
(lp3277
sg19
(lp3278
sg21
I0
sba(iArchitecture
Entity
p3279
(dp3280
g11
(lp3281
sg13
S'android.provider.SearchIndexableData'
p3282
sg15
(lp3283
sg17
(lp3284
sg19
(lp3285
sg21
I0
sba(iArchitecture
Entity
p3286
(dp3287
g11
(lp3288
sg13
S'android.provider.SearchIndexableResource'
p3289
sg15
(lp3290
sg17
(lp3291
sg19
(lp3292
sg21
I0
sba(iArchitecture
Entity
p3293
(dp3294
g11
(lp3295
sg13
S'android.provider.SearchIndexablesContract'
p3296
sg15
(lp3297
sg17
(lp3298
sg19
(lp3299
sg21
I0
sba(iArchitecture
Entity
p3300
(dp3301
g11
(lp3302
sg13
S'android.provider.SearchIndexablesContract$BaseColumns'
p3303
sg15
(lp3304
sg17
(lp3305
sg19
(lp3306
sg21
I0
sba(iArchitecture
Entity
p3307
(dp3308
g11
(lp3309
sg13
S'android.provider.SearchIndexablesContract$NonIndexableKey'
p3310
sg15
(lp3311
sg17
(lp3312
sg19
(lp3313
sg21
I0
sba(iArchitecture
Entity
p3314
(dp3315
g11
(lp3316
sg13
S'android.provider.SearchIndexablesContract$RawData'
p3317
sg15
(lp3318
sg17
(lp3319
sg19
(lp3320
sg21
I0
sba(iArchitecture
Entity
p3321
(dp3322
g11
(lp3323
sg13
S'android.provider.SearchIndexablesContract$XmlResource'
p3324
sg15
(lp3325
sg17
(lp3326
sg19
(lp3327
sg21
I0
sba(iArchitecture
Entity
p3328
(dp3329
g11
(lp3330
sg13
S'android.provider.SearchRecentSuggestions'
p3331
sg15
(lp3332
sg17
(lp3333
sg19
(lp3334
sg21
I0
sba(iArchitecture
Entity
p3335
(dp3336
g11
(lp3337
sg13
S'android.provider.SearchRecentSuggestions$1'
p3338
sg15
(lp3339
sg17
(lp3340
sg19
(lp3341
sg21
I0
sba(iArchitecture
Entity
p3342
(dp3343
g11
(lp3344
sg13
S'android.provider.SearchRecentSuggestions$SuggestionColumns'
p3345
sg15
(lp3346
sg17
(lp3347
sg19
(lp3348
sg21
I0
sba(iArchitecture
Entity
p3349
(dp3350
g11
(lp3351
sg13
S'android.provider.Settings'
p3352
sg15
(lp3353
sg17
(lp3354
sg19
(lp3355
sg21
I0
sba(iArchitecture
Entity
p3356
(dp3357
g11
(lp3358
sg13
S'android.provider.Settings$Bookmarks'
p3359
sg15
(lp3360
sg17
(lp3361
sg19
(lp3362
sg21
I0
sba(iArchitecture
Entity
p3363
(dp3364
g11
(lp3365
sg13
S'android.provider.Settings$GenerationTracker'
p3366
sg15
(lp3367
sg17
(lp3368
sg19
(lp3369
sg21
I0
sba(iArchitecture
Entity
p3370
(dp3371
g11
(lp3372
sg13
S'android.provider.SyncStateContract'
p3373
sg15
(lp3374
sg17
(lp3375
sg19
(lp3376
sg21
I0
sba(iArchitecture
Entity
p3377
(dp3378
g11
(lp3379
sg13
S'android.provider.SyncStateContract$Columns'
p3380
sg15
(lp3381
sg17
(lp3382
sg19
(lp3383
sg21
I0
sba(iArchitecture
Entity
p3384
(dp3385
g11
(lp3386
sg13
S'android.provider.SyncStateContract$Constants'
p3387
sg15
(lp3388
sg17
(lp3389
sg19
(lp3390
sg21
I0
sba(iArchitecture
Entity
p3391
(dp3392
g11
(lp3393
sg13
S'android.provider.SyncStateContract$Helpers'
p3394
sg15
(lp3395
sg17
(lp3396
sg19
(lp3397
sg21
I0
sba(iArchitecture
Entity
p3398
(dp3399
g11
(lp3400
sg13
S'android.provider.UserDictionary'
p3401
sg15
(lp3402
sg17
(lp3403
sg19
(lp3404
sg21
I0
sba(iArchitecture
Entity
p3405
(dp3406
g11
(lp3407
sg13
S'android.provider.UserDictionary$Words'
p3408
sg15
(lp3409
sg17
(lp3410
sg19
(lp3411
sg21
I0
sba(iArchitecture
Entity
p3412
(dp3413
g11
(lp3414
sg13
S'android.provider.VoicemailContract'
p3415
sg15
(lp3416
sg17
(lp3417
sg19
(lp3418
sg21
I0
sba(iArchitecture
Entity
p3419
(dp3420
g11
(lp3421
sg13
S'android.provider.VoicemailContract$Status'
p3422
sg15
(lp3423
sg17
(lp3424
sg19
(lp3425
sg21
I0
sba(iArchitecture
Entity
p3426
(dp3427
g11
(lp3428
sg13
S'android.provider.VoicemailContract$Voicemails'
p3429
sg15
(lp3430
sg17
(lp3431
sg19
(lp3432
sg21
I0
sbasg50
(lp3433
g1966
ag1973
ag1980
ag1987
ag1994
ag2001
ag2008
ag2015
ag2022
ag2029
ag2036
ag2043
ag2050
ag2057
ag2064
ag2071
ag2078
ag2085
ag2092
ag2099
ag2106
ag2113
ag2120
ag2127
ag2134
ag2141
ag2148
ag2155
ag2162
ag2169
ag2176
ag2183
ag2190
ag2197
ag2204
ag2211
ag2218
ag2225
ag2232
ag2239
ag2246
ag2253
ag2260
ag2267
ag2274
ag2281
ag2288
ag2295
ag2302
ag2309
ag2316
ag2323
ag2330
ag2337
ag2344
ag2351
ag2358
ag2365
ag2372
ag2379
ag2386
ag2393
ag2400
ag2407
ag2414
ag2421
ag2428
ag2435
ag2442
ag2449
ag2456
ag2463
ag2470
ag2477
ag2484
ag2491
ag2498
ag2505
ag2512
ag2519
ag2526
ag2533
ag2540
ag2547
ag2554
ag2561
ag2568
ag2575
ag2582
ag2589
ag2596
ag2603
ag2610
ag2617
ag2624
ag2631
ag2638
ag2645
ag2652
ag2659
ag2666
ag2673
ag2680
ag2687
ag2694
ag2701
ag2708
ag2715
ag2722
ag2729
ag2736
ag2743
ag2750
ag2757
ag2764
ag2771
ag2778
ag2785
ag2792
ag2799
ag2806
ag2813
ag2820
ag2827
ag2834
ag2841
ag2848
ag2855
ag2862
ag2869
ag2876
ag2883
ag2890
ag2897
ag2904
ag2911
ag2918
ag2925
ag2932
ag2939
ag2946
ag2953
ag2960
ag2967
ag2974
ag2981
ag2988
ag2995
ag3002
ag3009
ag3016
ag3023
ag3030
ag3037
ag3044
ag3051
ag3058
ag3065
ag3072
ag3079
ag3086
ag3093
ag3100
ag3107
ag3114
ag3121
ag3128
ag3135
ag3142
ag3149
ag3156
ag3163
ag3170
ag3177
ag3184
ag3191
ag3198
ag3205
ag3212
ag3219
ag3226
ag3233
ag3240
ag3247
ag3254
ag3261
ag3268
ag3275
ag3282
ag3289
ag3296
ag3303
ag3310
ag3317
ag3324
ag3331
ag3338
ag3345
ag3352
ag3359
ag3366
ag3373
ag3380
ag3387
ag3394
ag3401
ag3408
ag3415
ag3422
ag3429
asg21
I0
sg52
S'android.provider.ss'
p3434
sba(iArchitecture
Cluster
p3435
(dp3436
g7
(lp3437
(iArchitecture
Entity
p3438
(dp3439
g11
(lp3440
sg13
S'android.provider.ContactsContract$QuickContact'
p3441
sg15
(lp3442
sg17
(lp3443
sg19
(lp3444
sg21
I0
sbasg50
(lp3445
g3441
asg21
I0
sg52
S'android.widget.ss'
p3446
sba(iArchitecture
Cluster
p3447
(dp3448
g7
(lp3449
(iArchitecture
Entity
p3450
(dp3451
g11
(lp3452
sg13
S'android.provider.Settings$Secure'
p3453
sg15
(lp3454
sg17
(lp3455
sg19
(lp3456
sg21
I0
sbasg50
(lp3457
g3453
asg21
I0
sg52
S'com.android.server.accessibility.ss'
p3458
sba(iArchitecture
Cluster
p3459
(dp3460
g7
(lp3461
(iArchitecture
Entity
p3462
(dp3463
g11
(lp3464
sg13
S'android.provider.Settings$Global'
p3465
sg15
(lp3466
sg17
(lp3467
sg19
(lp3468
sg21
I0
sba(iArchitecture
Entity
p3469
(dp3470
g11
(lp3471
sg13
S'android.provider.Settings$NameValueCache'
p3472
sg15
(lp3473
sg17
(lp3474
sg19
(lp3475
sg21
I0
sba(iArchitecture
Entity
p3476
(dp3477
g11
(lp3478
sg13
S'android.provider.Settings$NameValueCache$_java_lang_String_getStringForUser_android_content_ContentResolver_cr_java_lang_String_name_int_userHandle_LambdaImpl0'
p3479
sg15
(lp3480
sg17
(lp3481
sg19
(lp3482
sg21
I0
sba(iArchitecture
Entity
p3483
(dp3484
g11
(lp3485
sg13
S'android.provider.Settings$NameValueTable'
p3486
sg15
(lp3487
sg17
(lp3488
sg19
(lp3489
sg21
I0
sba(iArchitecture
Entity
p3490
(dp3491
g11
(lp3492
sg13
S'android.provider.Settings$System'
p3493
sg15
(lp3494
sg17
(lp3495
sg19
(lp3496
sg21
I0
sba(iArchitecture
Entity
p3497
(dp3498
g11
(lp3499
sg13
S'android.provider.Settings$System$1'
p3500
sg15
(lp3501
sg17
(lp3502
sg19
(lp3503
sg21
I0
sba(iArchitecture
Entity
p3504
(dp3505
g11
(lp3506
sg13
S'android.provider.Settings$System$2'
p3507
sg15
(lp3508
sg17
(lp3509
sg19
(lp3510
sg21
I0
sba(iArchitecture
Entity
p3511
(dp3512
g11
(lp3513
sg13
S'android.provider.Settings$System$3'
p3514
sg15
(lp3515
sg17
(lp3516
sg19
(lp3517
sg21
I0
sba(iArchitecture
Entity
p3518
(dp3519
g11
(lp3520
sg13
S'android.provider.Settings$System$4'
p3521
sg15
(lp3522
sg17
(lp3523
sg19
(lp3524
sg21
I0
sba(iArchitecture
Entity
p3525
(dp3526
g11
(lp3527
sg13
S'android.provider.Settings$System$5'
p3528
sg15
(lp3529
sg17
(lp3530
sg19
(lp3531
sg21
I0
sba(iArchitecture
Entity
p3532
(dp3533
g11
(lp3534
sg13
S'android.provider.Settings$System$6'
p3535
sg15
(lp3536
sg17
(lp3537
sg19
(lp3538
sg21
I0
sba(iArchitecture
Entity
p3539
(dp3540
g11
(lp3541
sg13
S'android.provider.Settings$System$7'
p3542
sg15
(lp3543
sg17
(lp3544
sg19
(lp3545
sg21
I0
sba(iArchitecture
Entity
p3546
(dp3547
g11
(lp3548
sg13
S'android.provider.Settings$System$8'
p3549
sg15
(lp3550
sg17
(lp3551
sg19
(lp3552
sg21
I0
sba(iArchitecture
Entity
p3553
(dp3554
g11
(lp3555
sg13
S'android.provider.Settings$System$9'
p3556
sg15
(lp3557
sg17
(lp3558
sg19
(lp3559
sg21
I0
sba(iArchitecture
Entity
p3560
(dp3561
g11
(lp3562
sg13
S'android.provider.Settings$System$DiscreteValueValidator'
p3563
sg15
(lp3564
sg17
(lp3565
sg19
(lp3566
sg21
I0
sba(iArchitecture
Entity
p3567
(dp3568
g11
(lp3569
sg13
S'android.provider.Settings$System$InclusiveFloatRangeValidator'
p3570
sg15
(lp3571
sg17
(lp3572
sg19
(lp3573
sg21
I0
sba(iArchitecture
Entity
p3574
(dp3575
g11
(lp3576
sg13
S'android.provider.Settings$System$InclusiveIntegerRangeValidator'
p3577
sg15
(lp3578
sg17
(lp3579
sg19
(lp3580
sg21
I0
sba(iArchitecture
Entity
p3581
(dp3582
g11
(lp3583
sg13
S'android.provider.Settings$System$Validator'
p3584
sg15
(lp3585
sg17
(lp3586
sg19
(lp3587
sg21
I0
sbasg50
(lp3588
g3465
ag3472
ag3479
ag3486
ag3493
ag3500
ag3507
ag3514
ag3521
ag3528
ag3535
ag3542
ag3549
ag3556
ag3563
ag3570
ag3577
ag3584
asg21
I0
sg52
S'com.android.server.audio.ss'
p3589
sba(iArchitecture
Cluster
p3590
(dp3591
g7
(lp3592
(iArchitecture
Entity
p3593
(dp3594
g11
(lp3595
sg13
S'android.provider.ContactsInternal'
p3596
sg15
(lp3597
sg17
(lp3598
sg19
(lp3599
sg21
I0
sbasg50
(lp3600
g3596
asg21
I0
sg52
S'com.android.server.devicepolicy.ss'
p3601
sba(iArchitecture
Cluster
p3602
(dp3603
g7
(lp3604
(iArchitecture
Entity
p3605
(dp3606
g11
(lp3607
sg13
S'android.provider.Telephony$Carriers'
p3608
sg15
(lp3609
sg17
(lp3610
sg19
(lp3611
sg21
I0
sba(iArchitecture
Entity
p3612
(dp3613
g11
(lp3614
sg13
S'android.provider.Telephony$Sms$Intents'
p3615
sg15
(lp3616
sg17
(lp3617
sg19
(lp3618
sg21
I0
sbasg50
(lp3619
g3608
ag3615
asg21
I0
sg52
S'com.android.server.location.ss'
p3620
sba(iArchitecture
Cluster
p3621
(dp3622
g7
(lp3623
(iArchitecture
Entity
p3624
(dp3625
g11
(lp3626
sg13
S'android.provider.AlarmClock'
p3627
sg15
(lp3628
sg17
(lp3629
sg19
(lp3630
sg21
I0
sba(iArchitecture
Entity
p3631
(dp3632
g11
(lp3633
sg13
S'android.provider.DocumentsProvider'
p3634
sg15
(lp3635
sg17
(lp3636
sg19
(lp3637
sg21
I0
sba(iArchitecture
Entity
p3638
(dp3639
g11
(lp3640
sg13
S'android.provider.LiveFolders'
p3641
sg15
(lp3642
sg17
(lp3643
sg19
(lp3644
sg21
I0
sba(iArchitecture
Entity
p3645
(dp3646
g11
(lp3647
sg13
S'android.provider.SearchIndexablesProvider'
p3648
sg15
(lp3649
sg17
(lp3650
sg19
(lp3651
sg21
I0
sba(iArchitecture
Entity
p3652
(dp3653
g11
(lp3654
sg13
S'android.provider.SyncConstValue'
p3655
sg15
(lp3656
sg17
(lp3657
sg19
(lp3658
sg21
I0
sbasg50
(lp3659
g3627
ag3634
ag3641
ag3648
ag3655
asg21
I0
sg52
S'com.android.server.pm.ss'
p3660
sba(iArchitecture
Cluster
p3661
(dp3662
g7
(lp3663
(iArchitecture
Entity
p3664
(dp3665
g11
(lp3666
sg13
S'android.provider.Settings$SettingNotFoundException'
p3667
sg15
(lp3668
sg17
(lp3669
sg19
(lp3670
sg21
I0
sbasg50
(lp3671
g3667
asg21
I0
sg52
S'com.android.server.power.ss'
p3672
sbasg1802
g1803
sg50
(lp3673
sg1805
I00
sg52
S'7.0.0_r1'
p3674
sba.