(lp0
(iArchitecture
Architecture
p1
(dp2
S'clusters'
p3
(lp4
(iArchitecture
Cluster
p5
(dp6
S'entities'
p7
(lp8
(iArchitecture
Entity
p9
(dp10
S'issue_ids'
p11
(lp12
sS'name'
p13
S'android.renderscript.Allocation'
p14
sS'descs'
p15
(lp16
sS'labels'
p17
(lp18
sS'titles'
p19
(lp20
sS'change'
p21
I0
sba(iArchitecture
Entity
p22
(dp23
g11
(lp24
sg13
S'android.renderscript.Allocation$MipmapControl'
p25
sg15
(lp26
sg17
(lp27
sg19
(lp28
sg21
I0
sba(iArchitecture
Entity
p29
(dp30
g11
(lp31
sg13
S'android.renderscript.Allocation$OnBufferAvailableListener'
p32
sg15
(lp33
sg17
(lp34
sg19
(lp35
sg21
I0
sba(iArchitecture
Entity
p36
(dp37
g11
(lp38
sg13
S'android.renderscript.AllocationAdapter'
p39
sg15
(lp40
sg17
(lp41
sg19
(lp42
sg21
I0
sba(iArchitecture
Entity
p43
(dp44
g11
(lp45
sg13
S'android.renderscript.BaseObj'
p46
sg15
(lp47
sg17
(lp48
sg19
(lp49
sg21
I0
sba(iArchitecture
Entity
p50
(dp51
g11
(lp52
sg13
S'android.renderscript.Byte2'
p53
sg15
(lp54
sg17
(lp55
sg19
(lp56
sg21
I0
sba(iArchitecture
Entity
p57
(dp58
g11
(lp59
sg13
S'android.renderscript.Byte3'
p60
sg15
(lp61
sg17
(lp62
sg19
(lp63
sg21
I0
sba(iArchitecture
Entity
p64
(dp65
g11
(lp66
sg13
S'android.renderscript.Byte4'
p67
sg15
(lp68
sg17
(lp69
sg19
(lp70
sg21
I0
sba(iArchitecture
Entity
p71
(dp72
g11
(lp73
sg13
S'android.renderscript.Double2'
p74
sg15
(lp75
sg17
(lp76
sg19
(lp77
sg21
I0
sba(iArchitecture
Entity
p78
(dp79
g11
(lp80
sg13
S'android.renderscript.Double3'
p81
sg15
(lp82
sg17
(lp83
sg19
(lp84
sg21
I0
sba(iArchitecture
Entity
p85
(dp86
g11
(lp87
sg13
S'android.renderscript.Double4'
p88
sg15
(lp89
sg17
(lp90
sg19
(lp91
sg21
I0
sba(iArchitecture
Entity
p92
(dp93
g11
(lp94
sg13
S'android.renderscript.Element'
p95
sg15
(lp96
sg17
(lp97
sg19
(lp98
sg21
I0
sba(iArchitecture
Entity
p99
(dp100
g11
(lp101
sg13
S'android.renderscript.Element$Builder'
p102
sg15
(lp103
sg17
(lp104
sg19
(lp105
sg21
I0
sba(iArchitecture
Entity
p106
(dp107
g11
(lp108
sg13
S'android.renderscript.Element$DataKind'
p109
sg15
(lp110
sg17
(lp111
sg19
(lp112
sg21
I0
sba(iArchitecture
Entity
p113
(dp114
g11
(lp115
sg13
S'android.renderscript.Element$DataType'
p116
sg15
(lp117
sg17
(lp118
sg19
(lp119
sg21
I0
sba(iArchitecture
Entity
p120
(dp121
g11
(lp122
sg13
S'android.renderscript.FieldPacker'
p123
sg15
(lp124
sg17
(lp125
sg19
(lp126
sg21
I0
sba(iArchitecture
Entity
p127
(dp128
g11
(lp129
sg13
S'android.renderscript.FileA3D'
p130
sg15
(lp131
sg17
(lp132
sg19
(lp133
sg21
I0
sba(iArchitecture
Entity
p134
(dp135
g11
(lp136
sg13
S'android.renderscript.FileA3D$EntryType'
p137
sg15
(lp138
sg17
(lp139
sg19
(lp140
sg21
I0
sba(iArchitecture
Entity
p141
(dp142
g11
(lp143
sg13
S'android.renderscript.FileA3D$IndexEntry'
p144
sg15
(lp145
sg17
(lp146
sg19
(lp147
sg21
I0
sba(iArchitecture
Entity
p148
(dp149
g11
(lp150
sg13
S'android.renderscript.Float2'
p151
sg15
(lp152
sg17
(lp153
sg19
(lp154
sg21
I0
sba(iArchitecture
Entity
p155
(dp156
g11
(lp157
sg13
S'android.renderscript.Float3'
p158
sg15
(lp159
sg17
(lp160
sg19
(lp161
sg21
I0
sba(iArchitecture
Entity
p162
(dp163
g11
(lp164
sg13
S'android.renderscript.Float4'
p165
sg15
(lp166
sg17
(lp167
sg19
(lp168
sg21
I0
sba(iArchitecture
Entity
p169
(dp170
g11
(lp171
sg13
S'android.renderscript.Font'
p172
sg15
(lp173
sg17
(lp174
sg19
(lp175
sg21
I0
sba(iArchitecture
Entity
p176
(dp177
g11
(lp178
sg13
S'android.renderscript.Font$FontFamily'
p179
sg15
(lp180
sg17
(lp181
sg19
(lp182
sg21
I0
sba(iArchitecture
Entity
p183
(dp184
g11
(lp185
sg13
S'android.renderscript.Font$Style'
p186
sg15
(lp187
sg17
(lp188
sg19
(lp189
sg21
I0
sba(iArchitecture
Entity
p190
(dp191
g11
(lp192
sg13
S'android.renderscript.Int2'
p193
sg15
(lp194
sg17
(lp195
sg19
(lp196
sg21
I0
sba(iArchitecture
Entity
p197
(dp198
g11
(lp199
sg13
S'android.renderscript.Int3'
p200
sg15
(lp201
sg17
(lp202
sg19
(lp203
sg21
I0
sba(iArchitecture
Entity
p204
(dp205
g11
(lp206
sg13
S'android.renderscript.Int4'
p207
sg15
(lp208
sg17
(lp209
sg19
(lp210
sg21
I0
sba(iArchitecture
Entity
p211
(dp212
g11
(lp213
sg13
S'android.renderscript.Long2'
p214
sg15
(lp215
sg17
(lp216
sg19
(lp217
sg21
I0
sba(iArchitecture
Entity
p218
(dp219
g11
(lp220
sg13
S'android.renderscript.Long3'
p221
sg15
(lp222
sg17
(lp223
sg19
(lp224
sg21
I0
sba(iArchitecture
Entity
p225
(dp226
g11
(lp227
sg13
S'android.renderscript.Long4'
p228
sg15
(lp229
sg17
(lp230
sg19
(lp231
sg21
I0
sba(iArchitecture
Entity
p232
(dp233
g11
(lp234
sg13
S'android.renderscript.Matrix2f'
p235
sg15
(lp236
sg17
(lp237
sg19
(lp238
sg21
I0
sba(iArchitecture
Entity
p239
(dp240
g11
(lp241
sg13
S'android.renderscript.Matrix3f'
p242
sg15
(lp243
sg17
(lp244
sg19
(lp245
sg21
I0
sba(iArchitecture
Entity
p246
(dp247
g11
(lp248
sg13
S'android.renderscript.Matrix4f'
p249
sg15
(lp250
sg17
(lp251
sg19
(lp252
sg21
I0
sba(iArchitecture
Entity
p253
(dp254
g11
(lp255
sg13
S'android.renderscript.Mesh'
p256
sg15
(lp257
sg17
(lp258
sg19
(lp259
sg21
I0
sba(iArchitecture
Entity
p260
(dp261
g11
(lp262
sg13
S'android.renderscript.Mesh$AllocationBuilder'
p263
sg15
(lp264
sg17
(lp265
sg19
(lp266
sg21
I0
sba(iArchitecture
Entity
p267
(dp268
g11
(lp269
sg13
S'android.renderscript.Mesh$AllocationBuilder$Entry'
p270
sg15
(lp271
sg17
(lp272
sg19
(lp273
sg21
I0
sba(iArchitecture
Entity
p274
(dp275
g11
(lp276
sg13
S'android.renderscript.Mesh$Builder'
p277
sg15
(lp278
sg17
(lp279
sg19
(lp280
sg21
I0
sba(iArchitecture
Entity
p281
(dp282
g11
(lp283
sg13
S'android.renderscript.Mesh$Builder$Entry'
p284
sg15
(lp285
sg17
(lp286
sg19
(lp287
sg21
I0
sba(iArchitecture
Entity
p288
(dp289
g11
(lp290
sg13
S'android.renderscript.Mesh$Primitive'
p291
sg15
(lp292
sg17
(lp293
sg19
(lp294
sg21
I0
sba(iArchitecture
Entity
p295
(dp296
g11
(lp297
sg13
S'android.renderscript.Mesh$TriangleMeshBuilder'
p298
sg15
(lp299
sg17
(lp300
sg19
(lp301
sg21
I0
sba(iArchitecture
Entity
p302
(dp303
g11
(lp304
sg13
S'android.renderscript.Program'
p305
sg15
(lp306
sg17
(lp307
sg19
(lp308
sg21
I0
sba(iArchitecture
Entity
p309
(dp310
g11
(lp311
sg13
S'android.renderscript.Program$BaseProgramBuilder'
p312
sg15
(lp313
sg17
(lp314
sg19
(lp315
sg21
I0
sba(iArchitecture
Entity
p316
(dp317
g11
(lp318
sg13
S'android.renderscript.Program$ProgramParam'
p319
sg15
(lp320
sg17
(lp321
sg19
(lp322
sg21
I0
sba(iArchitecture
Entity
p323
(dp324
g11
(lp325
sg13
S'android.renderscript.Program$TextureType'
p326
sg15
(lp327
sg17
(lp328
sg19
(lp329
sg21
I0
sba(iArchitecture
Entity
p330
(dp331
g11
(lp332
sg13
S'android.renderscript.ProgramFragment'
p333
sg15
(lp334
sg17
(lp335
sg19
(lp336
sg21
I0
sba(iArchitecture
Entity
p337
(dp338
g11
(lp339
sg13
S'android.renderscript.ProgramFragment$Builder'
p340
sg15
(lp341
sg17
(lp342
sg19
(lp343
sg21
I0
sba(iArchitecture
Entity
p344
(dp345
g11
(lp346
sg13
S'android.renderscript.ProgramFragmentFixedFunction'
p347
sg15
(lp348
sg17
(lp349
sg19
(lp350
sg21
I0
sba(iArchitecture
Entity
p351
(dp352
g11
(lp353
sg13
S'android.renderscript.ProgramFragmentFixedFunction$Builder'
p354
sg15
(lp355
sg17
(lp356
sg19
(lp357
sg21
I0
sba(iArchitecture
Entity
p358
(dp359
g11
(lp360
sg13
S'android.renderscript.ProgramFragmentFixedFunction$Builder$EnvMode'
p361
sg15
(lp362
sg17
(lp363
sg19
(lp364
sg21
I0
sba(iArchitecture
Entity
p365
(dp366
g11
(lp367
sg13
S'android.renderscript.ProgramFragmentFixedFunction$Builder$Format'
p368
sg15
(lp369
sg17
(lp370
sg19
(lp371
sg21
I0
sba(iArchitecture
Entity
p372
(dp373
g11
(lp374
sg13
S'android.renderscript.ProgramFragmentFixedFunction$Builder$Slot'
p375
sg15
(lp376
sg17
(lp377
sg19
(lp378
sg21
I0
sba(iArchitecture
Entity
p379
(dp380
g11
(lp381
sg13
S'android.renderscript.ProgramFragmentFixedFunction$InternalBuilder'
p382
sg15
(lp383
sg17
(lp384
sg19
(lp385
sg21
I0
sba(iArchitecture
Entity
p386
(dp387
g11
(lp388
sg13
S'android.renderscript.ProgramRaster'
p389
sg15
(lp390
sg17
(lp391
sg19
(lp392
sg21
I0
sba(iArchitecture
Entity
p393
(dp394
g11
(lp395
sg13
S'android.renderscript.ProgramRaster$Builder'
p396
sg15
(lp397
sg17
(lp398
sg19
(lp399
sg21
I0
sba(iArchitecture
Entity
p400
(dp401
g11
(lp402
sg13
S'android.renderscript.ProgramRaster$CullMode'
p403
sg15
(lp404
sg17
(lp405
sg19
(lp406
sg21
I0
sba(iArchitecture
Entity
p407
(dp408
g11
(lp409
sg13
S'android.renderscript.ProgramStore'
p410
sg15
(lp411
sg17
(lp412
sg19
(lp413
sg21
I0
sba(iArchitecture
Entity
p414
(dp415
g11
(lp416
sg13
S'android.renderscript.ProgramStore$BlendDstFunc'
p417
sg15
(lp418
sg17
(lp419
sg19
(lp420
sg21
I0
sba(iArchitecture
Entity
p421
(dp422
g11
(lp423
sg13
S'android.renderscript.ProgramStore$BlendSrcFunc'
p424
sg15
(lp425
sg17
(lp426
sg19
(lp427
sg21
I0
sba(iArchitecture
Entity
p428
(dp429
g11
(lp430
sg13
S'android.renderscript.ProgramStore$Builder'
p431
sg15
(lp432
sg17
(lp433
sg19
(lp434
sg21
I0
sba(iArchitecture
Entity
p435
(dp436
g11
(lp437
sg13
S'android.renderscript.ProgramStore$DepthFunc'
p438
sg15
(lp439
sg17
(lp440
sg19
(lp441
sg21
I0
sba(iArchitecture
Entity
p442
(dp443
g11
(lp444
sg13
S'android.renderscript.ProgramVertex'
p445
sg15
(lp446
sg17
(lp447
sg19
(lp448
sg21
I0
sba(iArchitecture
Entity
p449
(dp450
g11
(lp451
sg13
S'android.renderscript.ProgramVertex$Builder'
p452
sg15
(lp453
sg17
(lp454
sg19
(lp455
sg21
I0
sba(iArchitecture
Entity
p456
(dp457
g11
(lp458
sg13
S'android.renderscript.ProgramVertexFixedFunction'
p459
sg15
(lp460
sg17
(lp461
sg19
(lp462
sg21
I0
sba(iArchitecture
Entity
p463
(dp464
g11
(lp465
sg13
S'android.renderscript.ProgramVertexFixedFunction$Builder'
p466
sg15
(lp467
sg17
(lp468
sg19
(lp469
sg21
I0
sba(iArchitecture
Entity
p470
(dp471
g11
(lp472
sg13
S'android.renderscript.ProgramVertexFixedFunction$Constants'
p473
sg15
(lp474
sg17
(lp475
sg19
(lp476
sg21
I0
sba(iArchitecture
Entity
p477
(dp478
g11
(lp479
sg13
S'android.renderscript.ProgramVertexFixedFunction$InternalBuilder'
p480
sg15
(lp481
sg17
(lp482
sg19
(lp483
sg21
I0
sba(iArchitecture
Entity
p484
(dp485
g11
(lp486
sg13
S'android.renderscript.RSDriverException'
p487
sg15
(lp488
sg17
(lp489
sg19
(lp490
sg21
I0
sba(iArchitecture
Entity
p491
(dp492
g11
(lp493
sg13
S'android.renderscript.RSIllegalArgumentException'
p494
sg15
(lp495
sg17
(lp496
sg19
(lp497
sg21
I0
sba(iArchitecture
Entity
p498
(dp499
g11
(lp500
sg13
S'android.renderscript.RSInvalidStateException'
p501
sg15
(lp502
sg17
(lp503
sg19
(lp504
sg21
I0
sba(iArchitecture
Entity
p505
(dp506
g11
(lp507
sg13
S'android.renderscript.RSRuntimeException'
p508
sg15
(lp509
sg17
(lp510
sg19
(lp511
sg21
I0
sba(iArchitecture
Entity
p512
(dp513
g11
(lp514
sg13
S'android.renderscript.RSTextureView'
p515
sg15
(lp516
sg17
(lp517
sg19
(lp518
sg21
I0
sba(iArchitecture
Entity
p519
(dp520
g11
(lp521
sg13
S'android.renderscript.RenderScript'
p522
sg15
(lp523
sg17
(lp524
sg19
(lp525
sg21
I0
sba(iArchitecture
Entity
p526
(dp527
g11
(lp528
sg13
S'android.renderscript.RenderScript$ContextType'
p529
sg15
(lp530
sg17
(lp531
sg19
(lp532
sg21
I0
sba(iArchitecture
Entity
p533
(dp534
g11
(lp535
sg13
S'android.renderscript.RenderScript$MessageThread'
p536
sg15
(lp537
sg17
(lp538
sg19
(lp539
sg21
I0
sba(iArchitecture
Entity
p540
(dp541
g11
(lp542
sg13
S'android.renderscript.RenderScript$Priority'
p543
sg15
(lp544
sg17
(lp545
sg19
(lp546
sg21
I0
sba(iArchitecture
Entity
p547
(dp548
g11
(lp549
sg13
S'android.renderscript.RenderScript$RSErrorHandler'
p550
sg15
(lp551
sg17
(lp552
sg19
(lp553
sg21
I0
sba(iArchitecture
Entity
p554
(dp555
g11
(lp556
sg13
S'android.renderscript.RenderScript$RSMessageHandler'
p557
sg15
(lp558
sg17
(lp559
sg19
(lp560
sg21
I0
sba(iArchitecture
Entity
p561
(dp562
g11
(lp563
sg13
S'android.renderscript.RenderScriptCacheDir'
p564
sg15
(lp565
sg17
(lp566
sg19
(lp567
sg21
I0
sba(iArchitecture
Entity
p568
(dp569
g11
(lp570
sg13
S'android.renderscript.RenderScriptGL'
p571
sg15
(lp572
sg17
(lp573
sg19
(lp574
sg21
I0
sba(iArchitecture
Entity
p575
(dp576
g11
(lp577
sg13
S'android.renderscript.RenderScriptGL$SurfaceConfig'
p578
sg15
(lp579
sg17
(lp580
sg19
(lp581
sg21
I0
sba(iArchitecture
Entity
p582
(dp583
g11
(lp584
sg13
S'android.renderscript.Sampler'
p585
sg15
(lp586
sg17
(lp587
sg19
(lp588
sg21
I0
sba(iArchitecture
Entity
p589
(dp590
g11
(lp591
sg13
S'android.renderscript.Sampler$Builder'
p592
sg15
(lp593
sg17
(lp594
sg19
(lp595
sg21
I0
sba(iArchitecture
Entity
p596
(dp597
g11
(lp598
sg13
S'android.renderscript.Sampler$Value'
p599
sg15
(lp600
sg17
(lp601
sg19
(lp602
sg21
I0
sba(iArchitecture
Entity
p603
(dp604
g11
(lp605
sg13
S'android.renderscript.Script'
p606
sg15
(lp607
sg17
(lp608
sg19
(lp609
sg21
I0
sba(iArchitecture
Entity
p610
(dp611
g11
(lp612
sg13
S'android.renderscript.Script$Builder'
p613
sg15
(lp614
sg17
(lp615
sg19
(lp616
sg21
I0
sba(iArchitecture
Entity
p617
(dp618
g11
(lp619
sg13
S'android.renderscript.Script$FieldBase'
p620
sg15
(lp621
sg17
(lp622
sg19
(lp623
sg21
I0
sba(iArchitecture
Entity
p624
(dp625
g11
(lp626
sg13
S'android.renderscript.Script$FieldID'
p627
sg15
(lp628
sg17
(lp629
sg19
(lp630
sg21
I0
sba(iArchitecture
Entity
p631
(dp632
g11
(lp633
sg13
S'android.renderscript.Script$InvokeID'
p634
sg15
(lp635
sg17
(lp636
sg19
(lp637
sg21
I0
sba(iArchitecture
Entity
p638
(dp639
g11
(lp640
sg13
S'android.renderscript.Script$KernelID'
p641
sg15
(lp642
sg17
(lp643
sg19
(lp644
sg21
I0
sba(iArchitecture
Entity
p645
(dp646
g11
(lp647
sg13
S'android.renderscript.Script$LaunchOptions'
p648
sg15
(lp649
sg17
(lp650
sg19
(lp651
sg21
I0
sba(iArchitecture
Entity
p652
(dp653
g11
(lp654
sg13
S'android.renderscript.ScriptC'
p655
sg15
(lp656
sg17
(lp657
sg19
(lp658
sg21
I0
sba(iArchitecture
Entity
p659
(dp660
g11
(lp661
sg13
S'android.renderscript.ScriptGroup'
p662
sg15
(lp663
sg17
(lp664
sg19
(lp665
sg21
I0
sba(iArchitecture
Entity
p666
(dp667
g11
(lp668
sg13
S'android.renderscript.ScriptGroup$Binding'
p669
sg15
(lp670
sg17
(lp671
sg19
(lp672
sg21
I0
sba(iArchitecture
Entity
p673
(dp674
g11
(lp675
sg13
S'android.renderscript.ScriptGroup$Builder'
p676
sg15
(lp677
sg17
(lp678
sg19
(lp679
sg21
I0
sba(iArchitecture
Entity
p680
(dp681
g11
(lp682
sg13
S'android.renderscript.ScriptGroup$Builder2'
p683
sg15
(lp684
sg17
(lp685
sg19
(lp686
sg21
I0
sba(iArchitecture
Entity
p687
(dp688
g11
(lp689
sg13
S'android.renderscript.ScriptGroup$Closure'
p690
sg15
(lp691
sg17
(lp692
sg19
(lp693
sg21
I0
sba(iArchitecture
Entity
p694
(dp695
g11
(lp696
sg13
S'android.renderscript.ScriptGroup$Closure$ValueAndSize'
p697
sg15
(lp698
sg17
(lp699
sg19
(lp700
sg21
I0
sba(iArchitecture
Entity
p701
(dp702
g11
(lp703
sg13
S'android.renderscript.ScriptGroup$ConnectLine'
p704
sg15
(lp705
sg17
(lp706
sg19
(lp707
sg21
I0
sba(iArchitecture
Entity
p708
(dp709
g11
(lp710
sg13
S'android.renderscript.ScriptGroup$Future'
p711
sg15
(lp712
sg17
(lp713
sg19
(lp714
sg21
I0
sba(iArchitecture
Entity
p715
(dp716
g11
(lp717
sg13
S'android.renderscript.ScriptGroup$IO'
p718
sg15
(lp719
sg17
(lp720
sg19
(lp721
sg21
I0
sba(iArchitecture
Entity
p722
(dp723
g11
(lp724
sg13
S'android.renderscript.ScriptGroup$Input'
p725
sg15
(lp726
sg17
(lp727
sg19
(lp728
sg21
I0
sba(iArchitecture
Entity
p729
(dp730
g11
(lp731
sg13
S'android.renderscript.ScriptGroup$Node'
p732
sg15
(lp733
sg17
(lp734
sg19
(lp735
sg21
I0
sba(iArchitecture
Entity
p736
(dp737
g11
(lp738
sg13
S'android.renderscript.ScriptIntrinsicBlur'
p739
sg15
(lp740
sg17
(lp741
sg19
(lp742
sg21
I0
sba(iArchitecture
Entity
p743
(dp744
g11
(lp745
sg13
S'android.renderscript.ScriptIntrinsicColorMatrix'
p746
sg15
(lp747
sg17
(lp748
sg19
(lp749
sg21
I0
sba(iArchitecture
Entity
p750
(dp751
g11
(lp752
sg13
S'android.renderscript.ScriptIntrinsicConvolve3x3'
p753
sg15
(lp754
sg17
(lp755
sg19
(lp756
sg21
I0
sba(iArchitecture
Entity
p757
(dp758
g11
(lp759
sg13
S'android.renderscript.ScriptIntrinsicConvolve5x5'
p760
sg15
(lp761
sg17
(lp762
sg19
(lp763
sg21
I0
sba(iArchitecture
Entity
p764
(dp765
g11
(lp766
sg13
S'android.renderscript.ScriptIntrinsicHistogram'
p767
sg15
(lp768
sg17
(lp769
sg19
(lp770
sg21
I0
sba(iArchitecture
Entity
p771
(dp772
g11
(lp773
sg13
S'android.renderscript.ScriptIntrinsicResize'
p774
sg15
(lp775
sg17
(lp776
sg19
(lp777
sg21
I0
sba(iArchitecture
Entity
p778
(dp779
g11
(lp780
sg13
S'android.renderscript.ScriptIntrinsicYuvToRGB'
p781
sg15
(lp782
sg17
(lp783
sg19
(lp784
sg21
I0
sba(iArchitecture
Entity
p785
(dp786
g11
(lp787
sg13
S'android.renderscript.Short2'
p788
sg15
(lp789
sg17
(lp790
sg19
(lp791
sg21
I0
sba(iArchitecture
Entity
p792
(dp793
g11
(lp794
sg13
S'android.renderscript.Short3'
p795
sg15
(lp796
sg17
(lp797
sg19
(lp798
sg21
I0
sba(iArchitecture
Entity
p799
(dp800
g11
(lp801
sg13
S'android.renderscript.Short4'
p802
sg15
(lp803
sg17
(lp804
sg19
(lp805
sg21
I0
sba(iArchitecture
Entity
p806
(dp807
g11
(lp808
sg13
S'android.renderscript.Type'
p809
sg15
(lp810
sg17
(lp811
sg19
(lp812
sg21
I0
sba(iArchitecture
Entity
p813
(dp814
g11
(lp815
sg13
S'android.renderscript.Type$Builder'
p816
sg15
(lp817
sg17
(lp818
sg19
(lp819
sg21
I0
sba(iArchitecture
Entity
p820
(dp821
g11
(lp822
sg13
S'android.renderscript.Type$CubemapFace'
p823
sg15
(lp824
sg17
(lp825
sg19
(lp826
sg21
I0
sbasS'classes'
p827
(lp828
g14
ag25
ag32
ag39
ag46
ag53
ag60
ag67
ag74
ag81
ag88
ag95
ag102
ag109
ag116
ag123
ag130
ag137
ag144
ag151
ag158
ag165
ag172
ag179
ag186
ag193
ag200
ag207
ag214
ag221
ag228
ag235
ag242
ag249
ag256
ag263
ag270
ag277
ag284
ag291
ag298
ag305
ag312
ag319
ag326
ag333
ag340
ag347
ag354
ag361
ag368
ag375
ag382
ag389
ag396
ag403
ag410
ag417
ag424
ag431
ag438
ag445
ag452
ag459
ag466
ag473
ag480
ag487
ag494
ag501
ag508
ag515
ag522
ag529
ag536
ag543
ag550
ag557
ag564
ag571
ag578
ag585
ag592
ag599
ag606
ag613
ag620
ag627
ag634
ag641
ag648
ag655
ag662
ag669
ag676
ag683
ag690
ag697
ag704
ag711
ag718
ag725
ag732
ag739
ag746
ag753
ag760
ag767
ag774
ag781
ag788
ag795
ag802
ag809
ag816
ag823
asg21
I0
sS'label'
p829
S'android.renderscript.ss'
p830
sba(iArchitecture
Cluster
p831
(dp832
g7
(lp833
(iArchitecture
Entity
p834
(dp835
g11
(lp836
sg13
S'android.renderscript.RSSurfaceView'
p837
sg15
(lp838
sg17
(lp839
sg19
(lp840
sg21
I0
sbasg827
(lp841
g837
asg21
I0
sg829
S'android.widget.ss'
p842
sba(iArchitecture
Cluster
p843
(dp844
g7
(lp845
(iArchitecture
Entity
p846
(dp847
g11
(lp848
sg13
S'android.renderscript.ScriptIntrinsic'
p849
sg15
(lp850
sg17
(lp851
sg19
(lp852
sg21
I0
sba(iArchitecture
Entity
p853
(dp854
g11
(lp855
sg13
S'android.renderscript.ScriptIntrinsic3DLUT'
p856
sg15
(lp857
sg17
(lp858
sg19
(lp859
sg21
I0
sba(iArchitecture
Entity
p860
(dp861
g11
(lp862
sg13
S'android.renderscript.ScriptIntrinsicBLAS'
p863
sg15
(lp864
sg17
(lp865
sg19
(lp866
sg21
I0
sba(iArchitecture
Entity
p867
(dp868
g11
(lp869
sg13
S'android.renderscript.ScriptIntrinsicBlend'
p870
sg15
(lp871
sg17
(lp872
sg19
(lp873
sg21
I0
sba(iArchitecture
Entity
p874
(dp875
g11
(lp876
sg13
S'android.renderscript.ScriptIntrinsicLUT'
p877
sg15
(lp878
sg17
(lp879
sg19
(lp880
sg21
I0
sbasg827
(lp881
g849
ag856
ag863
ag870
ag877
asg21
I0
sg829
S'com.android.server.pm.ss'
p882
sbasS'target_sub'
p883
S'android.renderscript'
p884
sg827
(lp885
sS'is_component_arch'
p886
I00
sg829
S'6.0.0_r1'
p887
sba(iArchitecture
Architecture
p888
(dp889
g3
(lp890
(iArchitecture
Cluster
p891
(dp892
g7
(lp893
(iArchitecture
Entity
p894
(dp895
g11
(lp896
sg13
S'android.renderscript.Allocation'
p897
sg15
(lp898
sg17
(lp899
sg19
(lp900
sg21
I0
sba(iArchitecture
Entity
p901
(dp902
g11
(lp903
sg13
S'android.renderscript.Allocation$MipmapControl'
p904
sg15
(lp905
sg17
(lp906
sg19
(lp907
sg21
I0
sba(iArchitecture
Entity
p908
(dp909
g11
(lp910
sg13
S'android.renderscript.Allocation$OnBufferAvailableListener'
p911
sg15
(lp912
sg17
(lp913
sg19
(lp914
sg21
I0
sba(iArchitecture
Entity
p915
(dp916
g11
(lp917
sg13
S'android.renderscript.AllocationAdapter'
p918
sg15
(lp919
sg17
(lp920
sg19
(lp921
sg21
I0
sba(iArchitecture
Entity
p922
(dp923
g11
(lp924
sg13
S'android.renderscript.BaseObj'
p925
sg15
(lp926
sg17
(lp927
sg19
(lp928
sg21
I0
sba(iArchitecture
Entity
p929
(dp930
g11
(lp931
sg13
S'android.renderscript.Byte2'
p932
sg15
(lp933
sg17
(lp934
sg19
(lp935
sg21
I0
sba(iArchitecture
Entity
p936
(dp937
g11
(lp938
sg13
S'android.renderscript.Byte3'
p939
sg15
(lp940
sg17
(lp941
sg19
(lp942
sg21
I0
sba(iArchitecture
Entity
p943
(dp944
g11
(lp945
sg13
S'android.renderscript.Byte4'
p946
sg15
(lp947
sg17
(lp948
sg19
(lp949
sg21
I0
sba(iArchitecture
Entity
p950
(dp951
g11
(lp952
sg13
S'android.renderscript.Double2'
p953
sg15
(lp954
sg17
(lp955
sg19
(lp956
sg21
I0
sba(iArchitecture
Entity
p957
(dp958
g11
(lp959
sg13
S'android.renderscript.Double3'
p960
sg15
(lp961
sg17
(lp962
sg19
(lp963
sg21
I0
sba(iArchitecture
Entity
p964
(dp965
g11
(lp966
sg13
S'android.renderscript.Double4'
p967
sg15
(lp968
sg17
(lp969
sg19
(lp970
sg21
I0
sba(iArchitecture
Entity
p971
(dp972
g11
(lp973
sg13
S'android.renderscript.Element'
p974
sg15
(lp975
sg17
(lp976
sg19
(lp977
sg21
I0
sba(iArchitecture
Entity
p978
(dp979
g11
(lp980
sg13
S'android.renderscript.Element$Builder'
p981
sg15
(lp982
sg17
(lp983
sg19
(lp984
sg21
I0
sba(iArchitecture
Entity
p985
(dp986
g11
(lp987
sg13
S'android.renderscript.Element$DataKind'
p988
sg15
(lp989
sg17
(lp990
sg19
(lp991
sg21
I0
sba(iArchitecture
Entity
p992
(dp993
g11
(lp994
sg13
S'android.renderscript.Element$DataType'
p995
sg15
(lp996
sg17
(lp997
sg19
(lp998
sg21
I0
sba(iArchitecture
Entity
p999
(dp1000
g11
(lp1001
sg13
S'android.renderscript.FieldPacker'
p1002
sg15
(lp1003
sg17
(lp1004
sg19
(lp1005
sg21
I0
sba(iArchitecture
Entity
p1006
(dp1007
g11
(lp1008
sg13
S'android.renderscript.FileA3D'
p1009
sg15
(lp1010
sg17
(lp1011
sg19
(lp1012
sg21
I0
sba(iArchitecture
Entity
p1013
(dp1014
g11
(lp1015
sg13
S'android.renderscript.FileA3D$EntryType'
p1016
sg15
(lp1017
sg17
(lp1018
sg19
(lp1019
sg21
I0
sba(iArchitecture
Entity
p1020
(dp1021
g11
(lp1022
sg13
S'android.renderscript.FileA3D$IndexEntry'
p1023
sg15
(lp1024
sg17
(lp1025
sg19
(lp1026
sg21
I0
sba(iArchitecture
Entity
p1027
(dp1028
g11
(lp1029
sg13
S'android.renderscript.Float2'
p1030
sg15
(lp1031
sg17
(lp1032
sg19
(lp1033
sg21
I0
sba(iArchitecture
Entity
p1034
(dp1035
g11
(lp1036
sg13
S'android.renderscript.Float3'
p1037
sg15
(lp1038
sg17
(lp1039
sg19
(lp1040
sg21
I0
sba(iArchitecture
Entity
p1041
(dp1042
g11
(lp1043
sg13
S'android.renderscript.Float4'
p1044
sg15
(lp1045
sg17
(lp1046
sg19
(lp1047
sg21
I0
sba(iArchitecture
Entity
p1048
(dp1049
g11
(lp1050
sg13
S'android.renderscript.Font'
p1051
sg15
(lp1052
sg17
(lp1053
sg19
(lp1054
sg21
I0
sba(iArchitecture
Entity
p1055
(dp1056
g11
(lp1057
sg13
S'android.renderscript.Font$FontFamily'
p1058
sg15
(lp1059
sg17
(lp1060
sg19
(lp1061
sg21
I0
sba(iArchitecture
Entity
p1062
(dp1063
g11
(lp1064
sg13
S'android.renderscript.Font$Style'
p1065
sg15
(lp1066
sg17
(lp1067
sg19
(lp1068
sg21
I0
sba(iArchitecture
Entity
p1069
(dp1070
g11
(lp1071
sg13
S'android.renderscript.Int2'
p1072
sg15
(lp1073
sg17
(lp1074
sg19
(lp1075
sg21
I0
sba(iArchitecture
Entity
p1076
(dp1077
g11
(lp1078
sg13
S'android.renderscript.Int3'
p1079
sg15
(lp1080
sg17
(lp1081
sg19
(lp1082
sg21
I0
sba(iArchitecture
Entity
p1083
(dp1084
g11
(lp1085
sg13
S'android.renderscript.Int4'
p1086
sg15
(lp1087
sg17
(lp1088
sg19
(lp1089
sg21
I0
sba(iArchitecture
Entity
p1090
(dp1091
g11
(lp1092
sg13
S'android.renderscript.Long2'
p1093
sg15
(lp1094
sg17
(lp1095
sg19
(lp1096
sg21
I0
sba(iArchitecture
Entity
p1097
(dp1098
g11
(lp1099
sg13
S'android.renderscript.Long3'
p1100
sg15
(lp1101
sg17
(lp1102
sg19
(lp1103
sg21
I0
sba(iArchitecture
Entity
p1104
(dp1105
g11
(lp1106
sg13
S'android.renderscript.Long4'
p1107
sg15
(lp1108
sg17
(lp1109
sg19
(lp1110
sg21
I0
sba(iArchitecture
Entity
p1111
(dp1112
g11
(lp1113
sg13
S'android.renderscript.Matrix2f'
p1114
sg15
(lp1115
sg17
(lp1116
sg19
(lp1117
sg21
I0
sba(iArchitecture
Entity
p1118
(dp1119
g11
(lp1120
sg13
S'android.renderscript.Matrix3f'
p1121
sg15
(lp1122
sg17
(lp1123
sg19
(lp1124
sg21
I0
sba(iArchitecture
Entity
p1125
(dp1126
g11
(lp1127
sg13
S'android.renderscript.Matrix4f'
p1128
sg15
(lp1129
sg17
(lp1130
sg19
(lp1131
sg21
I0
sba(iArchitecture
Entity
p1132
(dp1133
g11
(lp1134
sg13
S'android.renderscript.Mesh'
p1135
sg15
(lp1136
sg17
(lp1137
sg19
(lp1138
sg21
I0
sba(iArchitecture
Entity
p1139
(dp1140
g11
(lp1141
sg13
S'android.renderscript.Mesh$AllocationBuilder'
p1142
sg15
(lp1143
sg17
(lp1144
sg19
(lp1145
sg21
I0
sba(iArchitecture
Entity
p1146
(dp1147
g11
(lp1148
sg13
S'android.renderscript.Mesh$AllocationBuilder$Entry'
p1149
sg15
(lp1150
sg17
(lp1151
sg19
(lp1152
sg21
I0
sba(iArchitecture
Entity
p1153
(dp1154
g11
(lp1155
sg13
S'android.renderscript.Mesh$Builder'
p1156
sg15
(lp1157
sg17
(lp1158
sg19
(lp1159
sg21
I0
sba(iArchitecture
Entity
p1160
(dp1161
g11
(lp1162
sg13
S'android.renderscript.Mesh$Builder$Entry'
p1163
sg15
(lp1164
sg17
(lp1165
sg19
(lp1166
sg21
I0
sba(iArchitecture
Entity
p1167
(dp1168
g11
(lp1169
sg13
S'android.renderscript.Mesh$Primitive'
p1170
sg15
(lp1171
sg17
(lp1172
sg19
(lp1173
sg21
I0
sba(iArchitecture
Entity
p1174
(dp1175
g11
(lp1176
sg13
S'android.renderscript.Mesh$TriangleMeshBuilder'
p1177
sg15
(lp1178
sg17
(lp1179
sg19
(lp1180
sg21
I0
sba(iArchitecture
Entity
p1181
(dp1182
g11
(lp1183
sg13
S'android.renderscript.Program'
p1184
sg15
(lp1185
sg17
(lp1186
sg19
(lp1187
sg21
I0
sba(iArchitecture
Entity
p1188
(dp1189
g11
(lp1190
sg13
S'android.renderscript.Program$BaseProgramBuilder'
p1191
sg15
(lp1192
sg17
(lp1193
sg19
(lp1194
sg21
I0
sba(iArchitecture
Entity
p1195
(dp1196
g11
(lp1197
sg13
S'android.renderscript.Program$ProgramParam'
p1198
sg15
(lp1199
sg17
(lp1200
sg19
(lp1201
sg21
I0
sba(iArchitecture
Entity
p1202
(dp1203
g11
(lp1204
sg13
S'android.renderscript.Program$TextureType'
p1205
sg15
(lp1206
sg17
(lp1207
sg19
(lp1208
sg21
I0
sba(iArchitecture
Entity
p1209
(dp1210
g11
(lp1211
sg13
S'android.renderscript.ProgramFragment'
p1212
sg15
(lp1213
sg17
(lp1214
sg19
(lp1215
sg21
I0
sba(iArchitecture
Entity
p1216
(dp1217
g11
(lp1218
sg13
S'android.renderscript.ProgramFragment$Builder'
p1219
sg15
(lp1220
sg17
(lp1221
sg19
(lp1222
sg21
I0
sba(iArchitecture
Entity
p1223
(dp1224
g11
(lp1225
sg13
S'android.renderscript.ProgramFragmentFixedFunction'
p1226
sg15
(lp1227
sg17
(lp1228
sg19
(lp1229
sg21
I0
sba(iArchitecture
Entity
p1230
(dp1231
g11
(lp1232
sg13
S'android.renderscript.ProgramFragmentFixedFunction$Builder'
p1233
sg15
(lp1234
sg17
(lp1235
sg19
(lp1236
sg21
I0
sba(iArchitecture
Entity
p1237
(dp1238
g11
(lp1239
sg13
S'android.renderscript.ProgramFragmentFixedFunction$Builder$EnvMode'
p1240
sg15
(lp1241
sg17
(lp1242
sg19
(lp1243
sg21
I0
sba(iArchitecture
Entity
p1244
(dp1245
g11
(lp1246
sg13
S'android.renderscript.ProgramFragmentFixedFunction$Builder$Format'
p1247
sg15
(lp1248
sg17
(lp1249
sg19
(lp1250
sg21
I0
sba(iArchitecture
Entity
p1251
(dp1252
g11
(lp1253
sg13
S'android.renderscript.ProgramFragmentFixedFunction$Builder$Slot'
p1254
sg15
(lp1255
sg17
(lp1256
sg19
(lp1257
sg21
I0
sba(iArchitecture
Entity
p1258
(dp1259
g11
(lp1260
sg13
S'android.renderscript.ProgramFragmentFixedFunction$InternalBuilder'
p1261
sg15
(lp1262
sg17
(lp1263
sg19
(lp1264
sg21
I0
sba(iArchitecture
Entity
p1265
(dp1266
g11
(lp1267
sg13
S'android.renderscript.ProgramRaster'
p1268
sg15
(lp1269
sg17
(lp1270
sg19
(lp1271
sg21
I0
sba(iArchitecture
Entity
p1272
(dp1273
g11
(lp1274
sg13
S'android.renderscript.ProgramRaster$Builder'
p1275
sg15
(lp1276
sg17
(lp1277
sg19
(lp1278
sg21
I0
sba(iArchitecture
Entity
p1279
(dp1280
g11
(lp1281
sg13
S'android.renderscript.ProgramRaster$CullMode'
p1282
sg15
(lp1283
sg17
(lp1284
sg19
(lp1285
sg21
I0
sba(iArchitecture
Entity
p1286
(dp1287
g11
(lp1288
sg13
S'android.renderscript.ProgramStore'
p1289
sg15
(lp1290
sg17
(lp1291
sg19
(lp1292
sg21
I0
sba(iArchitecture
Entity
p1293
(dp1294
g11
(lp1295
sg13
S'android.renderscript.ProgramStore$BlendDstFunc'
p1296
sg15
(lp1297
sg17
(lp1298
sg19
(lp1299
sg21
I0
sba(iArchitecture
Entity
p1300
(dp1301
g11
(lp1302
sg13
S'android.renderscript.ProgramStore$BlendSrcFunc'
p1303
sg15
(lp1304
sg17
(lp1305
sg19
(lp1306
sg21
I0
sba(iArchitecture
Entity
p1307
(dp1308
g11
(lp1309
sg13
S'android.renderscript.ProgramStore$Builder'
p1310
sg15
(lp1311
sg17
(lp1312
sg19
(lp1313
sg21
I0
sba(iArchitecture
Entity
p1314
(dp1315
g11
(lp1316
sg13
S'android.renderscript.ProgramStore$DepthFunc'
p1317
sg15
(lp1318
sg17
(lp1319
sg19
(lp1320
sg21
I0
sba(iArchitecture
Entity
p1321
(dp1322
g11
(lp1323
sg13
S'android.renderscript.ProgramVertex'
p1324
sg15
(lp1325
sg17
(lp1326
sg19
(lp1327
sg21
I0
sba(iArchitecture
Entity
p1328
(dp1329
g11
(lp1330
sg13
S'android.renderscript.ProgramVertex$Builder'
p1331
sg15
(lp1332
sg17
(lp1333
sg19
(lp1334
sg21
I0
sba(iArchitecture
Entity
p1335
(dp1336
g11
(lp1337
sg13
S'android.renderscript.ProgramVertexFixedFunction'
p1338
sg15
(lp1339
sg17
(lp1340
sg19
(lp1341
sg21
I0
sba(iArchitecture
Entity
p1342
(dp1343
g11
(lp1344
sg13
S'android.renderscript.ProgramVertexFixedFunction$Builder'
p1345
sg15
(lp1346
sg17
(lp1347
sg19
(lp1348
sg21
I0
sba(iArchitecture
Entity
p1349
(dp1350
g11
(lp1351
sg13
S'android.renderscript.ProgramVertexFixedFunction$Constants'
p1352
sg15
(lp1353
sg17
(lp1354
sg19
(lp1355
sg21
I0
sba(iArchitecture
Entity
p1356
(dp1357
g11
(lp1358
sg13
S'android.renderscript.ProgramVertexFixedFunction$InternalBuilder'
p1359
sg15
(lp1360
sg17
(lp1361
sg19
(lp1362
sg21
I0
sba(iArchitecture
Entity
p1363
(dp1364
g11
(lp1365
sg13
S'android.renderscript.RSDriverException'
p1366
sg15
(lp1367
sg17
(lp1368
sg19
(lp1369
sg21
I0
sba(iArchitecture
Entity
p1370
(dp1371
g11
(lp1372
sg13
S'android.renderscript.RSIllegalArgumentException'
p1373
sg15
(lp1374
sg17
(lp1375
sg19
(lp1376
sg21
I0
sba(iArchitecture
Entity
p1377
(dp1378
g11
(lp1379
sg13
S'android.renderscript.RSInvalidStateException'
p1380
sg15
(lp1381
sg17
(lp1382
sg19
(lp1383
sg21
I0
sba(iArchitecture
Entity
p1384
(dp1385
g11
(lp1386
sg13
S'android.renderscript.RSRuntimeException'
p1387
sg15
(lp1388
sg17
(lp1389
sg19
(lp1390
sg21
I0
sba(iArchitecture
Entity
p1391
(dp1392
g11
(lp1393
sg13
S'android.renderscript.RSTextureView'
p1394
sg15
(lp1395
sg17
(lp1396
sg19
(lp1397
sg21
I0
sba(iArchitecture
Entity
p1398
(dp1399
g11
(lp1400
sg13
S'android.renderscript.RenderScript'
p1401
sg15
(lp1402
sg17
(lp1403
sg19
(lp1404
sg21
I0
sba(iArchitecture
Entity
p1405
(dp1406
g11
(lp1407
sg13
S'android.renderscript.RenderScript$ContextType'
p1408
sg15
(lp1409
sg17
(lp1410
sg19
(lp1411
sg21
I0
sba(iArchitecture
Entity
p1412
(dp1413
g11
(lp1414
sg13
S'android.renderscript.RenderScript$MessageThread'
p1415
sg15
(lp1416
sg17
(lp1417
sg19
(lp1418
sg21
I0
sba(iArchitecture
Entity
p1419
(dp1420
g11
(lp1421
sg13
S'android.renderscript.RenderScript$Priority'
p1422
sg15
(lp1423
sg17
(lp1424
sg19
(lp1425
sg21
I0
sba(iArchitecture
Entity
p1426
(dp1427
g11
(lp1428
sg13
S'android.renderscript.RenderScript$RSErrorHandler'
p1429
sg15
(lp1430
sg17
(lp1431
sg19
(lp1432
sg21
I0
sba(iArchitecture
Entity
p1433
(dp1434
g11
(lp1435
sg13
S'android.renderscript.RenderScript$RSMessageHandler'
p1436
sg15
(lp1437
sg17
(lp1438
sg19
(lp1439
sg21
I0
sba(iArchitecture
Entity
p1440
(dp1441
g11
(lp1442
sg13
S'android.renderscript.RenderScriptCacheDir'
p1443
sg15
(lp1444
sg17
(lp1445
sg19
(lp1446
sg21
I0
sba(iArchitecture
Entity
p1447
(dp1448
g11
(lp1449
sg13
S'android.renderscript.RenderScriptGL'
p1450
sg15
(lp1451
sg17
(lp1452
sg19
(lp1453
sg21
I0
sba(iArchitecture
Entity
p1454
(dp1455
g11
(lp1456
sg13
S'android.renderscript.RenderScriptGL$SurfaceConfig'
p1457
sg15
(lp1458
sg17
(lp1459
sg19
(lp1460
sg21
I0
sba(iArchitecture
Entity
p1461
(dp1462
g11
(lp1463
sg13
S'android.renderscript.Sampler'
p1464
sg15
(lp1465
sg17
(lp1466
sg19
(lp1467
sg21
I0
sba(iArchitecture
Entity
p1468
(dp1469
g11
(lp1470
sg13
S'android.renderscript.Sampler$Builder'
p1471
sg15
(lp1472
sg17
(lp1473
sg19
(lp1474
sg21
I0
sba(iArchitecture
Entity
p1475
(dp1476
g11
(lp1477
sg13
S'android.renderscript.Sampler$Value'
p1478
sg15
(lp1479
sg17
(lp1480
sg19
(lp1481
sg21
I0
sba(iArchitecture
Entity
p1482
(dp1483
g11
(lp1484
sg13
S'android.renderscript.Script'
p1485
sg15
(lp1486
sg17
(lp1487
sg19
(lp1488
sg21
I0
sba(iArchitecture
Entity
p1489
(dp1490
g11
(lp1491
sg13
S'android.renderscript.Script$Builder'
p1492
sg15
(lp1493
sg17
(lp1494
sg19
(lp1495
sg21
I0
sba(iArchitecture
Entity
p1496
(dp1497
g11
(lp1498
sg13
S'android.renderscript.Script$FieldBase'
p1499
sg15
(lp1500
sg17
(lp1501
sg19
(lp1502
sg21
I0
sba(iArchitecture
Entity
p1503
(dp1504
g11
(lp1505
sg13
S'android.renderscript.Script$FieldID'
p1506
sg15
(lp1507
sg17
(lp1508
sg19
(lp1509
sg21
I0
sba(iArchitecture
Entity
p1510
(dp1511
g11
(lp1512
sg13
S'android.renderscript.Script$InvokeID'
p1513
sg15
(lp1514
sg17
(lp1515
sg19
(lp1516
sg21
I0
sba(iArchitecture
Entity
p1517
(dp1518
g11
(lp1519
sg13
S'android.renderscript.Script$KernelID'
p1520
sg15
(lp1521
sg17
(lp1522
sg19
(lp1523
sg21
I0
sba(iArchitecture
Entity
p1524
(dp1525
g11
(lp1526
sg13
S'android.renderscript.Script$LaunchOptions'
p1527
sg15
(lp1528
sg17
(lp1529
sg19
(lp1530
sg21
I0
sba(iArchitecture
Entity
p1531
(dp1532
g11
(lp1533
sg13
S'android.renderscript.ScriptGroup'
p1534
sg15
(lp1535
sg17
(lp1536
sg19
(lp1537
sg21
I0
sba(iArchitecture
Entity
p1538
(dp1539
g11
(lp1540
sg13
S'android.renderscript.ScriptGroup$Binding'
p1541
sg15
(lp1542
sg17
(lp1543
sg19
(lp1544
sg21
I0
sba(iArchitecture
Entity
p1545
(dp1546
g11
(lp1547
sg13
S'android.renderscript.ScriptGroup$Builder'
p1548
sg15
(lp1549
sg17
(lp1550
sg19
(lp1551
sg21
I0
sba(iArchitecture
Entity
p1552
(dp1553
g11
(lp1554
sg13
S'android.renderscript.ScriptGroup$Builder2'
p1555
sg15
(lp1556
sg17
(lp1557
sg19
(lp1558
sg21
I0
sba(iArchitecture
Entity
p1559
(dp1560
g11
(lp1561
sg13
S'android.renderscript.ScriptGroup$Closure'
p1562
sg15
(lp1563
sg17
(lp1564
sg19
(lp1565
sg21
I0
sba(iArchitecture
Entity
p1566
(dp1567
g11
(lp1568
sg13
S'android.renderscript.ScriptGroup$Closure$ValueAndSize'
p1569
sg15
(lp1570
sg17
(lp1571
sg19
(lp1572
sg21
I0
sba(iArchitecture
Entity
p1573
(dp1574
g11
(lp1575
sg13
S'android.renderscript.ScriptGroup$ConnectLine'
p1576
sg15
(lp1577
sg17
(lp1578
sg19
(lp1579
sg21
I0
sba(iArchitecture
Entity
p1580
(dp1581
g11
(lp1582
sg13
S'android.renderscript.ScriptGroup$Future'
p1583
sg15
(lp1584
sg17
(lp1585
sg19
(lp1586
sg21
I0
sba(iArchitecture
Entity
p1587
(dp1588
g11
(lp1589
sg13
S'android.renderscript.ScriptGroup$IO'
p1590
sg15
(lp1591
sg17
(lp1592
sg19
(lp1593
sg21
I0
sba(iArchitecture
Entity
p1594
(dp1595
g11
(lp1596
sg13
S'android.renderscript.ScriptGroup$Input'
p1597
sg15
(lp1598
sg17
(lp1599
sg19
(lp1600
sg21
I0
sba(iArchitecture
Entity
p1601
(dp1602
g11
(lp1603
sg13
S'android.renderscript.ScriptGroup$Node'
p1604
sg15
(lp1605
sg17
(lp1606
sg19
(lp1607
sg21
I0
sba(iArchitecture
Entity
p1608
(dp1609
g11
(lp1610
sg13
S'android.renderscript.ScriptIntrinsic3DLUT'
p1611
sg15
(lp1612
sg17
(lp1613
sg19
(lp1614
sg21
I0
sba(iArchitecture
Entity
p1615
(dp1616
g11
(lp1617
sg13
S'android.renderscript.ScriptIntrinsicBlur'
p1618
sg15
(lp1619
sg17
(lp1620
sg19
(lp1621
sg21
I0
sba(iArchitecture
Entity
p1622
(dp1623
g11
(lp1624
sg13
S'android.renderscript.ScriptIntrinsicColorMatrix'
p1625
sg15
(lp1626
sg17
(lp1627
sg19
(lp1628
sg21
I0
sba(iArchitecture
Entity
p1629
(dp1630
g11
(lp1631
sg13
S'android.renderscript.ScriptIntrinsicConvolve3x3'
p1632
sg15
(lp1633
sg17
(lp1634
sg19
(lp1635
sg21
I0
sba(iArchitecture
Entity
p1636
(dp1637
g11
(lp1638
sg13
S'android.renderscript.ScriptIntrinsicConvolve5x5'
p1639
sg15
(lp1640
sg17
(lp1641
sg19
(lp1642
sg21
I0
sba(iArchitecture
Entity
p1643
(dp1644
g11
(lp1645
sg13
S'android.renderscript.ScriptIntrinsicHistogram'
p1646
sg15
(lp1647
sg17
(lp1648
sg19
(lp1649
sg21
I0
sba(iArchitecture
Entity
p1650
(dp1651
g11
(lp1652
sg13
S'android.renderscript.ScriptIntrinsicLUT'
p1653
sg15
(lp1654
sg17
(lp1655
sg19
(lp1656
sg21
I0
sba(iArchitecture
Entity
p1657
(dp1658
g11
(lp1659
sg13
S'android.renderscript.ScriptIntrinsicResize'
p1660
sg15
(lp1661
sg17
(lp1662
sg19
(lp1663
sg21
I0
sba(iArchitecture
Entity
p1664
(dp1665
g11
(lp1666
sg13
S'android.renderscript.ScriptIntrinsicYuvToRGB'
p1667
sg15
(lp1668
sg17
(lp1669
sg19
(lp1670
sg21
I0
sba(iArchitecture
Entity
p1671
(dp1672
g11
(lp1673
sg13
S'android.renderscript.Short2'
p1674
sg15
(lp1675
sg17
(lp1676
sg19
(lp1677
sg21
I0
sba(iArchitecture
Entity
p1678
(dp1679
g11
(lp1680
sg13
S'android.renderscript.Short3'
p1681
sg15
(lp1682
sg17
(lp1683
sg19
(lp1684
sg21
I0
sba(iArchitecture
Entity
p1685
(dp1686
g11
(lp1687
sg13
S'android.renderscript.Short4'
p1688
sg15
(lp1689
sg17
(lp1690
sg19
(lp1691
sg21
I0
sba(iArchitecture
Entity
p1692
(dp1693
g11
(lp1694
sg13
S'android.renderscript.Type'
p1695
sg15
(lp1696
sg17
(lp1697
sg19
(lp1698
sg21
I0
sba(iArchitecture
Entity
p1699
(dp1700
g11
(lp1701
sg13
S'android.renderscript.Type$Builder'
p1702
sg15
(lp1703
sg17
(lp1704
sg19
(lp1705
sg21
I0
sba(iArchitecture
Entity
p1706
(dp1707
g11
(lp1708
sg13
S'android.renderscript.Type$CubemapFace'
p1709
sg15
(lp1710
sg17
(lp1711
sg19
(lp1712
sg21
I0
sbasg827
(lp1713
g897
ag904
ag911
ag918
ag925
ag932
ag939
ag946
ag953
ag960
ag967
ag974
ag981
ag988
ag995
ag1002
ag1009
ag1016
ag1023
ag1030
ag1037
ag1044
ag1051
ag1058
ag1065
ag1072
ag1079
ag1086
ag1093
ag1100
ag1107
ag1114
ag1121
ag1128
ag1135
ag1142
ag1149
ag1156
ag1163
ag1170
ag1177
ag1184
ag1191
ag1198
ag1205
ag1212
ag1219
ag1226
ag1233
ag1240
ag1247
ag1254
ag1261
ag1268
ag1275
ag1282
ag1289
ag1296
ag1303
ag1310
ag1317
ag1324
ag1331
ag1338
ag1345
ag1352
ag1359
ag1366
ag1373
ag1380
ag1387
ag1394
ag1401
ag1408
ag1415
ag1422
ag1429
ag1436
ag1443
ag1450
ag1457
ag1464
ag1471
ag1478
ag1485
ag1492
ag1499
ag1506
ag1513
ag1520
ag1527
ag1534
ag1541
ag1548
ag1555
ag1562
ag1569
ag1576
ag1583
ag1590
ag1597
ag1604
ag1611
ag1618
ag1625
ag1632
ag1639
ag1646
ag1653
ag1660
ag1667
ag1674
ag1681
ag1688
ag1695
ag1702
ag1709
asg21
I0
sg829
S'android.renderscript.ss'
p1714
sba(iArchitecture
Cluster
p1715
(dp1716
g7
(lp1717
(iArchitecture
Entity
p1718
(dp1719
g11
(lp1720
sg13
S'android.renderscript.RSSurfaceView'
p1721
sg15
(lp1722
sg17
(lp1723
sg19
(lp1724
sg21
I0
sbasg827
(lp1725
g1721
asg21
I0
sg829
S'android.widget.ss'
p1726
sba(iArchitecture
Cluster
p1727
(dp1728
g7
(lp1729
(iArchitecture
Entity
p1730
(dp1731
g11
(lp1732
sg13
S'android.renderscript.ScriptC'
p1733
sg15
(lp1734
sg17
(lp1735
sg19
(lp1736
sg21
I0
sba(iArchitecture
Entity
p1737
(dp1738
g11
(lp1739
sg13
S'android.renderscript.ScriptIntrinsic'
p1740
sg15
(lp1741
sg17
(lp1742
sg19
(lp1743
sg21
I0
sba(iArchitecture
Entity
p1744
(dp1745
g11
(lp1746
sg13
S'android.renderscript.ScriptIntrinsicBLAS'
p1747
sg15
(lp1748
sg17
(lp1749
sg19
(lp1750
sg21
I0
sba(iArchitecture
Entity
p1751
(dp1752
g11
(lp1753
sg13
S'android.renderscript.ScriptIntrinsicBlend'
p1754
sg15
(lp1755
sg17
(lp1756
sg19
(lp1757
sg21
I0
sbasg827
(lp1758
g1733
ag1740
ag1747
ag1754
asg21
I0
sg829
S'com.android.server.pm.ss'
p1759
sbasg883
g884
sg827
(lp1760
sg886
I00
sg829
S'7.0.0_r1'
p1761
sba.