(lp0
(iArchitecture
Architecture
p1
(dp2
S'clusters'
p3
(lp4
(iArchitecture
Cluster
p5
(dp6
S'entities'
p7
(lp8
(iArchitecture
Entity
p9
(dp10
S'issue_ids'
p11
(lp12
sS'name'
p13
S'com.android.server.wm.WindowManagerService$OnHardKeyboardStatusChangeListener'
p14
sS'descs'
p15
(lp16
sS'labels'
p17
(lp18
sS'titles'
p19
(lp20
sS'change'
p21
I0
sbasS'classes'
p22
(lp23
g14
asg21
I0
sS'label'
p24
S'com.android.server.ss'
p25
sba(iArchitecture
Cluster
p26
(dp27
g7
(lp28
(iArchitecture
Entity
p29
(dp30
g11
(lp31
sg13
S'com.android.server.wm.AccessibilityController'
p32
sg15
(lp33
sg17
(lp34
sg19
(lp35
sg21
I0
sba(iArchitecture
Entity
p36
(dp37
g11
(lp38
sg13
S'com.android.server.wm.AccessibilityController$DisplayMagnifier'
p39
sg15
(lp40
sg17
(lp41
sg19
(lp42
sg21
I0
sba(iArchitecture
Entity
p43
(dp44
g11
(lp45
sg13
S'com.android.server.wm.AccessibilityController$DisplayMagnifier$MagnifiedViewport'
p46
sg15
(lp47
sg17
(lp48
sg19
(lp49
sg21
I0
sba(iArchitecture
Entity
p50
(dp51
g11
(lp52
sg13
S'com.android.server.wm.AccessibilityController$DisplayMagnifier$MagnifiedViewport$ViewportWindow'
p53
sg15
(lp54
sg17
(lp55
sg19
(lp56
sg21
I0
sba(iArchitecture
Entity
p57
(dp58
g11
(lp59
sg13
S'com.android.server.wm.AccessibilityController$DisplayMagnifier$MagnifiedViewport$ViewportWindow$AnimationController'
p60
sg15
(lp61
sg17
(lp62
sg19
(lp63
sg21
I0
sba(iArchitecture
Entity
p64
(dp65
g11
(lp66
sg13
S'com.android.server.wm.AccessibilityController$DisplayMagnifier$MyHandler'
p67
sg15
(lp68
sg17
(lp69
sg19
(lp70
sg21
I0
sba(iArchitecture
Entity
p71
(dp72
g11
(lp73
sg13
S'com.android.server.wm.AccessibilityController$WindowsForAccessibilityObserver'
p74
sg15
(lp75
sg17
(lp76
sg19
(lp77
sg21
I0
sba(iArchitecture
Entity
p78
(dp79
g11
(lp80
sg13
S'com.android.server.wm.AccessibilityController$WindowsForAccessibilityObserver$MyHandler'
p81
sg15
(lp82
sg17
(lp83
sg19
(lp84
sg21
I0
sba(iArchitecture
Entity
p85
(dp86
g11
(lp87
sg13
S'com.android.server.wm.AppTokenList'
p88
sg15
(lp89
sg17
(lp90
sg19
(lp91
sg21
I0
sba(iArchitecture
Entity
p92
(dp93
g11
(lp94
sg13
S'com.android.server.wm.AppTransition'
p95
sg15
(lp96
sg17
(lp97
sg19
(lp98
sg21
I0
sba(iArchitecture
Entity
p99
(dp100
g11
(lp101
sg13
S'com.android.server.wm.AppTransition$1'
p102
sg15
(lp103
sg17
(lp104
sg19
(lp105
sg21
I0
sba(iArchitecture
Entity
p106
(dp107
g11
(lp108
sg13
S'com.android.server.wm.AppTransition$2'
p109
sg15
(lp110
sg17
(lp111
sg19
(lp112
sg21
I0
sba(iArchitecture
Entity
p113
(dp114
g11
(lp115
sg13
S'com.android.server.wm.AppWindowAnimator'
p116
sg15
(lp117
sg17
(lp118
sg19
(lp119
sg21
I0
sba(iArchitecture
Entity
p120
(dp121
g11
(lp122
sg13
S'com.android.server.wm.AppWindowAnimator$DummyAnimation'
p123
sg15
(lp124
sg17
(lp125
sg19
(lp126
sg21
I0
sba(iArchitecture
Entity
p127
(dp128
g11
(lp129
sg13
S'com.android.server.wm.AppWindowToken'
p130
sg15
(lp131
sg17
(lp132
sg19
(lp133
sg21
I0
sba(iArchitecture
Entity
p134
(dp135
g11
(lp136
sg13
S'com.android.server.wm.BlackFrame'
p137
sg15
(lp138
sg17
(lp139
sg19
(lp140
sg21
I0
sba(iArchitecture
Entity
p141
(dp142
g11
(lp143
sg13
S'com.android.server.wm.BlackFrame$BlackSurface'
p144
sg15
(lp145
sg17
(lp146
sg19
(lp147
sg21
I0
sba(iArchitecture
Entity
p148
(dp149
g11
(lp150
sg13
S'com.android.server.wm.CircularDisplayMask'
p151
sg15
(lp152
sg17
(lp153
sg19
(lp154
sg21
I0
sba(iArchitecture
Entity
p155
(dp156
g11
(lp157
sg13
S'com.android.server.wm.DimLayer'
p158
sg15
(lp159
sg17
(lp160
sg19
(lp161
sg21
I0
sba(iArchitecture
Entity
p162
(dp163
g11
(lp164
sg13
S'com.android.server.wm.DisplayContent'
p165
sg15
(lp166
sg17
(lp167
sg19
(lp168
sg21
I0
sba(iArchitecture
Entity
p169
(dp170
g11
(lp171
sg13
S'com.android.server.wm.DisplayContentList'
p172
sg15
(lp173
sg17
(lp174
sg19
(lp175
sg21
I0
sba(iArchitecture
Entity
p176
(dp177
g11
(lp178
sg13
S'com.android.server.wm.DisplaySettings'
p179
sg15
(lp180
sg17
(lp181
sg19
(lp182
sg21
I0
sba(iArchitecture
Entity
p183
(dp184
g11
(lp185
sg13
S'com.android.server.wm.DisplaySettings$Entry'
p186
sg15
(lp187
sg17
(lp188
sg19
(lp189
sg21
I0
sba(iArchitecture
Entity
p190
(dp191
g11
(lp192
sg13
S'com.android.server.wm.DragState'
p193
sg15
(lp194
sg17
(lp195
sg19
(lp196
sg21
I0
sba(iArchitecture
Entity
p197
(dp198
g11
(lp199
sg13
S'com.android.server.wm.EmulatorDisplayOverlay'
p200
sg15
(lp201
sg17
(lp202
sg19
(lp203
sg21
I0
sba(iArchitecture
Entity
p204
(dp205
g11
(lp206
sg13
S'com.android.server.wm.FocusedStackFrame'
p207
sg15
(lp208
sg17
(lp209
sg19
(lp210
sg21
I0
sba(iArchitecture
Entity
p211
(dp212
g11
(lp213
sg13
S'com.android.server.wm.InputConsumerImpl'
p214
sg15
(lp215
sg17
(lp216
sg19
(lp217
sg21
I0
sba(iArchitecture
Entity
p218
(dp219
g11
(lp220
sg13
S'com.android.server.wm.InputMonitor'
p221
sg15
(lp222
sg17
(lp223
sg19
(lp224
sg21
I0
sba(iArchitecture
Entity
p225
(dp226
g11
(lp227
sg13
S'com.android.server.wm.KeyguardDisableHandler'
p228
sg15
(lp229
sg17
(lp230
sg19
(lp231
sg21
I0
sba(iArchitecture
Entity
p232
(dp233
g11
(lp234
sg13
S'com.android.server.wm.KeyguardDisableHandler$KeyguardTokenWatcher'
p235
sg15
(lp236
sg17
(lp237
sg19
(lp238
sg21
I0
sba(iArchitecture
Entity
p239
(dp240
g11
(lp241
sg13
S'com.android.server.wm.PointerEventDispatcher'
p242
sg15
(lp243
sg17
(lp244
sg19
(lp245
sg21
I0
sba(iArchitecture
Entity
p246
(dp247
g11
(lp248
sg13
S'com.android.server.wm.ScreenRotationAnimation'
p249
sg15
(lp250
sg17
(lp251
sg19
(lp252
sg21
I0
sba(iArchitecture
Entity
p253
(dp254
g11
(lp255
sg13
S'com.android.server.wm.Session'
p256
sg15
(lp257
sg17
(lp258
sg19
(lp259
sg21
I0
sba(iArchitecture
Entity
p260
(dp261
g11
(lp262
sg13
S'com.android.server.wm.StackTapPointerEventListener'
p263
sg15
(lp264
sg17
(lp265
sg19
(lp266
sg21
I0
sba(iArchitecture
Entity
p267
(dp268
g11
(lp269
sg13
S'com.android.server.wm.StartingData'
p270
sg15
(lp271
sg17
(lp272
sg19
(lp273
sg21
I0
sba(iArchitecture
Entity
p274
(dp275
g11
(lp276
sg13
S'com.android.server.wm.StrictModeFlash'
p277
sg15
(lp278
sg17
(lp279
sg19
(lp280
sg21
I0
sba(iArchitecture
Entity
p281
(dp282
g11
(lp283
sg13
S'com.android.server.wm.Task'
p284
sg15
(lp285
sg17
(lp286
sg19
(lp287
sg21
I0
sba(iArchitecture
Entity
p288
(dp289
g11
(lp290
sg13
S'com.android.server.wm.TaskGroup'
p291
sg15
(lp292
sg17
(lp293
sg19
(lp294
sg21
I0
sba(iArchitecture
Entity
p295
(dp296
g11
(lp297
sg13
S'com.android.server.wm.TaskStack'
p298
sg15
(lp299
sg17
(lp300
sg19
(lp301
sg21
I0
sba(iArchitecture
Entity
p302
(dp303
g11
(lp304
sg13
S'com.android.server.wm.ViewServer'
p305
sg15
(lp306
sg17
(lp307
sg19
(lp308
sg21
I0
sba(iArchitecture
Entity
p309
(dp310
g11
(lp311
sg13
S'com.android.server.wm.ViewServer$ViewServerWorker'
p312
sg15
(lp313
sg17
(lp314
sg19
(lp315
sg21
I0
sba(iArchitecture
Entity
p316
(dp317
g11
(lp318
sg13
S'com.android.server.wm.Watermark'
p319
sg15
(lp320
sg17
(lp321
sg19
(lp322
sg21
I0
sba(iArchitecture
Entity
p323
(dp324
g11
(lp325
sg13
S'com.android.server.wm.WindowAnimator'
p326
sg15
(lp327
sg17
(lp328
sg19
(lp329
sg21
I0
sba(iArchitecture
Entity
p330
(dp331
g11
(lp332
sg13
S'com.android.server.wm.WindowAnimator$1'
p333
sg15
(lp334
sg17
(lp335
sg19
(lp336
sg21
I0
sba(iArchitecture
Entity
p337
(dp338
g11
(lp339
sg13
S'com.android.server.wm.WindowAnimator$DisplayContentsAnimator'
p340
sg15
(lp341
sg17
(lp342
sg19
(lp343
sg21
I0
sba(iArchitecture
Entity
p344
(dp345
g11
(lp346
sg13
S'com.android.server.wm.WindowList'
p347
sg15
(lp348
sg17
(lp349
sg19
(lp350
sg21
I0
sba(iArchitecture
Entity
p351
(dp352
g11
(lp353
sg13
S'com.android.server.wm.WindowManagerService'
p354
sg15
(lp355
sg17
(lp356
sg19
(lp357
sg21
I0
sba(iArchitecture
Entity
p358
(dp359
g11
(lp360
sg13
S'com.android.server.wm.WindowManagerService$1'
p361
sg15
(lp362
sg17
(lp363
sg19
(lp364
sg21
I0
sba(iArchitecture
Entity
p365
(dp366
g11
(lp367
sg13
S'com.android.server.wm.WindowManagerService$2'
p368
sg15
(lp369
sg17
(lp370
sg19
(lp371
sg21
I0
sba(iArchitecture
Entity
p372
(dp373
g11
(lp374
sg13
S'com.android.server.wm.WindowManagerService$3'
p375
sg15
(lp376
sg17
(lp377
sg19
(lp378
sg21
I0
sba(iArchitecture
Entity
p379
(dp380
g11
(lp381
sg13
S'com.android.server.wm.WindowManagerService$4'
p382
sg15
(lp383
sg17
(lp384
sg19
(lp385
sg21
I0
sba(iArchitecture
Entity
p386
(dp387
g11
(lp388
sg13
S'com.android.server.wm.WindowManagerService$5'
p389
sg15
(lp390
sg17
(lp391
sg19
(lp392
sg21
I0
sba(iArchitecture
Entity
p393
(dp394
g11
(lp395
sg13
S'com.android.server.wm.WindowManagerService$6'
p396
sg15
(lp397
sg17
(lp398
sg19
(lp399
sg21
I0
sba(iArchitecture
Entity
p400
(dp401
g11
(lp402
sg13
S'com.android.server.wm.WindowManagerService$7'
p403
sg15
(lp404
sg17
(lp405
sg19
(lp406
sg21
I0
sba(iArchitecture
Entity
p407
(dp408
g11
(lp409
sg13
S'com.android.server.wm.WindowManagerService$8'
p410
sg15
(lp411
sg17
(lp412
sg19
(lp413
sg21
I0
sba(iArchitecture
Entity
p414
(dp415
g11
(lp416
sg13
S'com.android.server.wm.WindowManagerService$9'
p417
sg15
(lp418
sg17
(lp419
sg19
(lp420
sg21
I0
sba(iArchitecture
Entity
p421
(dp422
g11
(lp423
sg13
S'com.android.server.wm.WindowManagerService$DragInputEventReceiver'
p424
sg15
(lp425
sg17
(lp426
sg19
(lp427
sg21
I0
sba(iArchitecture
Entity
p428
(dp429
g11
(lp430
sg13
S'com.android.server.wm.WindowManagerService$H'
p431
sg15
(lp432
sg17
(lp433
sg19
(lp434
sg21
I0
sba(iArchitecture
Entity
p435
(dp436
g11
(lp437
sg13
S'com.android.server.wm.WindowManagerService$LayoutFields'
p438
sg15
(lp439
sg17
(lp440
sg19
(lp441
sg21
I0
sba(iArchitecture
Entity
p442
(dp443
g11
(lp444
sg13
S'com.android.server.wm.WindowManagerService$LocalService'
p445
sg15
(lp446
sg17
(lp447
sg19
(lp448
sg21
I0
sba(iArchitecture
Entity
p449
(dp450
g11
(lp451
sg13
S'com.android.server.wm.WindowManagerService$RotationWatcher'
p452
sg15
(lp453
sg17
(lp454
sg19
(lp455
sg21
I0
sba(iArchitecture
Entity
p456
(dp457
g11
(lp458
sg13
S'com.android.server.wm.WindowManagerService$SettingsObserver'
p459
sg15
(lp460
sg17
(lp461
sg19
(lp462
sg21
I0
sba(iArchitecture
Entity
p463
(dp464
g11
(lp465
sg13
S'com.android.server.wm.WindowManagerService$WindowChangeListener'
p466
sg15
(lp467
sg17
(lp468
sg19
(lp469
sg21
I0
sba(iArchitecture
Entity
p470
(dp471
g11
(lp472
sg13
S'com.android.server.wm.WindowState'
p473
sg15
(lp474
sg17
(lp475
sg19
(lp476
sg21
I0
sba(iArchitecture
Entity
p477
(dp478
g11
(lp479
sg13
S'com.android.server.wm.WindowState$1'
p480
sg15
(lp481
sg17
(lp482
sg19
(lp483
sg21
I0
sba(iArchitecture
Entity
p484
(dp485
g11
(lp486
sg13
S'com.android.server.wm.WindowState$2'
p487
sg15
(lp488
sg17
(lp489
sg19
(lp490
sg21
I0
sba(iArchitecture
Entity
p491
(dp492
g11
(lp493
sg13
S'com.android.server.wm.WindowState$DeathRecipient'
p494
sg15
(lp495
sg17
(lp496
sg19
(lp497
sg21
I0
sba(iArchitecture
Entity
p498
(dp499
g11
(lp500
sg13
S'com.android.server.wm.WindowStateAnimator'
p501
sg15
(lp502
sg17
(lp503
sg19
(lp504
sg21
I0
sba(iArchitecture
Entity
p505
(dp506
g11
(lp507
sg13
S'com.android.server.wm.WindowStateAnimator$SurfaceTrace'
p508
sg15
(lp509
sg17
(lp510
sg19
(lp511
sg21
I0
sba(iArchitecture
Entity
p512
(dp513
g11
(lp514
sg13
S'com.android.server.wm.WindowToken'
p515
sg15
(lp516
sg17
(lp517
sg19
(lp518
sg21
I0
sbasg22
(lp519
g32
ag39
ag46
ag53
ag60
ag67
ag74
ag81
ag88
ag95
ag102
ag109
ag116
ag123
ag130
ag137
ag144
ag151
ag158
ag165
ag172
ag179
ag186
ag193
ag200
ag207
ag214
ag221
ag228
ag235
ag242
ag249
ag256
ag263
ag270
ag277
ag284
ag291
ag298
ag305
ag312
ag319
ag326
ag333
ag340
ag347
ag354
ag361
ag368
ag375
ag382
ag389
ag396
ag403
ag410
ag417
ag424
ag431
ag438
ag445
ag452
ag459
ag466
ag473
ag480
ag487
ag494
ag501
ag508
ag515
asg21
I0
sg24
S'com.android.server.wm.ss'
p520
sbasS'target_sub'
p521
S'com.android.server.wm'
p522
sg22
(lp523
sS'is_component_arch'
p524
I00
sg24
S'6.0.0_r1'
p525
sba(iArchitecture
Architecture
p526
(dp527
g3
(lp528
(iArchitecture
Cluster
p529
(dp530
g7
(lp531
(iArchitecture
Entity
p532
(dp533
g11
(lp534
sg13
S'com.android.server.wm.WindowManagerDebugConfig'
p535
sg15
(lp536
sg17
(lp537
sg19
(lp538
sg21
I0
sbasg22
(lp539
g535
asg21
I0
sg24
S'com.android.server.pm.ss'
p540
sba(iArchitecture
Cluster
p541
(dp542
g7
(lp543
(iArchitecture
Entity
p544
(dp545
g11
(lp546
sg13
S'com.android.server.wm.AccessibilityController'
p547
sg15
(lp548
sg17
(lp549
sg19
(lp550
sg21
I0
sba(iArchitecture
Entity
p551
(dp552
g11
(lp553
sg13
S'com.android.server.wm.AccessibilityController$DisplayMagnifier'
p554
sg15
(lp555
sg17
(lp556
sg19
(lp557
sg21
I0
sba(iArchitecture
Entity
p558
(dp559
g11
(lp560
sg13
S'com.android.server.wm.AccessibilityController$DisplayMagnifier$MagnifiedViewport'
p561
sg15
(lp562
sg17
(lp563
sg19
(lp564
sg21
I0
sba(iArchitecture
Entity
p565
(dp566
g11
(lp567
sg13
S'com.android.server.wm.AccessibilityController$DisplayMagnifier$MagnifiedViewport$ViewportWindow'
p568
sg15
(lp569
sg17
(lp570
sg19
(lp571
sg21
I0
sba(iArchitecture
Entity
p572
(dp573
g11
(lp574
sg13
S'com.android.server.wm.AccessibilityController$DisplayMagnifier$MagnifiedViewport$ViewportWindow$AnimationController'
p575
sg15
(lp576
sg17
(lp577
sg19
(lp578
sg21
I0
sba(iArchitecture
Entity
p579
(dp580
g11
(lp581
sg13
S'com.android.server.wm.AccessibilityController$DisplayMagnifier$MyHandler'
p582
sg15
(lp583
sg17
(lp584
sg19
(lp585
sg21
I0
sba(iArchitecture
Entity
p586
(dp587
g11
(lp588
sg13
S'com.android.server.wm.AccessibilityController$WindowsForAccessibilityObserver'
p589
sg15
(lp590
sg17
(lp591
sg19
(lp592
sg21
I0
sba(iArchitecture
Entity
p593
(dp594
g11
(lp595
sg13
S'com.android.server.wm.AccessibilityController$WindowsForAccessibilityObserver$MyHandler'
p596
sg15
(lp597
sg17
(lp598
sg19
(lp599
sg21
I0
sba(iArchitecture
Entity
p600
(dp601
g11
(lp602
sg13
S'com.android.server.wm.AppTokenList'
p603
sg15
(lp604
sg17
(lp605
sg19
(lp606
sg21
I0
sba(iArchitecture
Entity
p607
(dp608
g11
(lp609
sg13
S'com.android.server.wm.AppTransition'
p610
sg15
(lp611
sg17
(lp612
sg19
(lp613
sg21
I0
sba(iArchitecture
Entity
p614
(dp615
g11
(lp616
sg13
S'com.android.server.wm.AppTransition$1'
p617
sg15
(lp618
sg17
(lp619
sg19
(lp620
sg21
I0
sba(iArchitecture
Entity
p621
(dp622
g11
(lp623
sg13
S'com.android.server.wm.AppTransition$2'
p624
sg15
(lp625
sg17
(lp626
sg19
(lp627
sg21
I0
sba(iArchitecture
Entity
p628
(dp629
g11
(lp630
sg13
S'com.android.server.wm.AppTransition$3'
p631
sg15
(lp632
sg17
(lp633
sg19
(lp634
sg21
I0
sba(iArchitecture
Entity
p635
(dp636
g11
(lp637
sg13
S'com.android.server.wm.AppTransition$4'
p638
sg15
(lp639
sg17
(lp640
sg19
(lp641
sg21
I0
sba(iArchitecture
Entity
p642
(dp643
g11
(lp644
sg13
S'com.android.server.wm.AppWindowAnimator'
p645
sg15
(lp646
sg17
(lp647
sg19
(lp648
sg21
I0
sba(iArchitecture
Entity
p649
(dp650
g11
(lp651
sg13
S'com.android.server.wm.AppWindowAnimator$DummyAnimation'
p652
sg15
(lp653
sg17
(lp654
sg19
(lp655
sg21
I0
sba(iArchitecture
Entity
p656
(dp657
g11
(lp658
sg13
S'com.android.server.wm.AppWindowToken'
p659
sg15
(lp660
sg17
(lp661
sg19
(lp662
sg21
I0
sba(iArchitecture
Entity
p663
(dp664
g11
(lp665
sg13
S'com.android.server.wm.BlackFrame'
p666
sg15
(lp667
sg17
(lp668
sg19
(lp669
sg21
I0
sba(iArchitecture
Entity
p670
(dp671
g11
(lp672
sg13
S'com.android.server.wm.BlackFrame$BlackSurface'
p673
sg15
(lp674
sg17
(lp675
sg19
(lp676
sg21
I0
sba(iArchitecture
Entity
p677
(dp678
g11
(lp679
sg13
S'com.android.server.wm.BoundsAnimationController'
p680
sg15
(lp681
sg17
(lp682
sg19
(lp683
sg21
I0
sba(iArchitecture
Entity
p684
(dp685
g11
(lp686
sg13
S'com.android.server.wm.BoundsAnimationController$AnimateBoundsUser'
p687
sg15
(lp688
sg17
(lp689
sg19
(lp690
sg21
I0
sba(iArchitecture
Entity
p691
(dp692
g11
(lp693
sg13
S'com.android.server.wm.BoundsAnimationController$AppTransitionNotifier'
p694
sg15
(lp695
sg17
(lp696
sg19
(lp697
sg21
I0
sba(iArchitecture
Entity
p698
(dp699
g11
(lp700
sg13
S'com.android.server.wm.BoundsAnimationController$BoundsAnimator'
p701
sg15
(lp702
sg17
(lp703
sg19
(lp704
sg21
I0
sba(iArchitecture
Entity
p705
(dp706
g11
(lp707
sg13
S'com.android.server.wm.CircularDisplayMask'
p708
sg15
(lp709
sg17
(lp710
sg19
(lp711
sg21
I0
sba(iArchitecture
Entity
p712
(dp713
g11
(lp714
sg13
S'com.android.server.wm.DimLayer'
p715
sg15
(lp716
sg17
(lp717
sg19
(lp718
sg21
I0
sba(iArchitecture
Entity
p719
(dp720
g11
(lp721
sg13
S'com.android.server.wm.DimLayer$DimLayerUser'
p722
sg15
(lp723
sg17
(lp724
sg19
(lp725
sg21
I0
sba(iArchitecture
Entity
p726
(dp727
g11
(lp728
sg13
S'com.android.server.wm.DimLayerController'
p729
sg15
(lp730
sg17
(lp731
sg19
(lp732
sg21
I0
sba(iArchitecture
Entity
p733
(dp734
g11
(lp735
sg13
S'com.android.server.wm.DimLayerController$DimLayerState'
p736
sg15
(lp737
sg17
(lp738
sg19
(lp739
sg21
I0
sba(iArchitecture
Entity
p740
(dp741
g11
(lp742
sg13
S'com.android.server.wm.DisplayContent'
p743
sg15
(lp744
sg17
(lp745
sg19
(lp746
sg21
I0
sba(iArchitecture
Entity
p747
(dp748
g11
(lp749
sg13
S'com.android.server.wm.DisplayContentList'
p750
sg15
(lp751
sg17
(lp752
sg19
(lp753
sg21
I0
sba(iArchitecture
Entity
p754
(dp755
g11
(lp756
sg13
S'com.android.server.wm.DisplaySettings'
p757
sg15
(lp758
sg17
(lp759
sg19
(lp760
sg21
I0
sba(iArchitecture
Entity
p761
(dp762
g11
(lp763
sg13
S'com.android.server.wm.DisplaySettings$Entry'
p764
sg15
(lp765
sg17
(lp766
sg19
(lp767
sg21
I0
sba(iArchitecture
Entity
p768
(dp769
g11
(lp770
sg13
S'com.android.server.wm.DockedStackDividerController'
p771
sg15
(lp772
sg17
(lp773
sg19
(lp774
sg21
I0
sba(iArchitecture
Entity
p775
(dp776
g11
(lp777
sg13
S'com.android.server.wm.DockedStackDividerController$_void_startImeAdjustAnimation_boolean_adjustedForIme_boolean_adjustedForDivider_com_android_server_wm_WindowState_imeWin_LambdaImpl0'
p778
sg15
(lp779
sg17
(lp780
sg19
(lp781
sg21
I0
sba(iArchitecture
Entity
p782
(dp783
g11
(lp784
sg13
S'com.android.server.wm.DragAndDropPermissionsHandler'
p785
sg15
(lp786
sg17
(lp787
sg19
(lp788
sg21
I0
sba(iArchitecture
Entity
p789
(dp790
g11
(lp791
sg13
S'com.android.server.wm.DragResizeMode'
p792
sg15
(lp793
sg17
(lp794
sg19
(lp795
sg21
I0
sba(iArchitecture
Entity
p796
(dp797
g11
(lp798
sg13
S'com.android.server.wm.DragState'
p799
sg15
(lp800
sg17
(lp801
sg19
(lp802
sg21
I0
sba(iArchitecture
Entity
p803
(dp804
g11
(lp805
sg13
S'com.android.server.wm.EmulatorDisplayOverlay'
p806
sg15
(lp807
sg17
(lp808
sg19
(lp809
sg21
I0
sba(iArchitecture
Entity
p810
(dp811
g11
(lp812
sg13
S'com.android.server.wm.InputConsumerImpl'
p813
sg15
(lp814
sg17
(lp815
sg19
(lp816
sg21
I0
sba(iArchitecture
Entity
p817
(dp818
g11
(lp819
sg13
S'com.android.server.wm.InputMonitor'
p820
sg15
(lp821
sg17
(lp822
sg19
(lp823
sg21
I0
sba(iArchitecture
Entity
p824
(dp825
g11
(lp826
sg13
S'com.android.server.wm.KeyguardDisableHandler'
p827
sg15
(lp828
sg17
(lp829
sg19
(lp830
sg21
I0
sba(iArchitecture
Entity
p831
(dp832
g11
(lp833
sg13
S'com.android.server.wm.KeyguardDisableHandler$KeyguardTokenWatcher'
p834
sg15
(lp835
sg17
(lp836
sg19
(lp837
sg21
I0
sba(iArchitecture
Entity
p838
(dp839
g11
(lp840
sg13
S'com.android.server.wm.PointerEventDispatcher'
p841
sg15
(lp842
sg17
(lp843
sg19
(lp844
sg21
I0
sba(iArchitecture
Entity
p845
(dp846
g11
(lp847
sg13
S'com.android.server.wm.ScreenRotationAnimation'
p848
sg15
(lp849
sg17
(lp850
sg19
(lp851
sg21
I0
sba(iArchitecture
Entity
p852
(dp853
g11
(lp854
sg13
S'com.android.server.wm.Session'
p855
sg15
(lp856
sg17
(lp857
sg19
(lp858
sg21
I0
sba(iArchitecture
Entity
p859
(dp860
g11
(lp861
sg13
S'com.android.server.wm.StartingData'
p862
sg15
(lp863
sg17
(lp864
sg19
(lp865
sg21
I0
sba(iArchitecture
Entity
p866
(dp867
g11
(lp868
sg13
S'com.android.server.wm.StrictModeFlash'
p869
sg15
(lp870
sg17
(lp871
sg19
(lp872
sg21
I0
sba(iArchitecture
Entity
p873
(dp874
g11
(lp875
sg13
S'com.android.server.wm.Task'
p876
sg15
(lp877
sg17
(lp878
sg19
(lp879
sg21
I0
sba(iArchitecture
Entity
p880
(dp881
g11
(lp882
sg13
S'com.android.server.wm.TaskGroup'
p883
sg15
(lp884
sg17
(lp885
sg19
(lp886
sg21
I0
sba(iArchitecture
Entity
p887
(dp888
g11
(lp889
sg13
S'com.android.server.wm.TaskPositioner'
p890
sg15
(lp891
sg17
(lp892
sg19
(lp893
sg21
I0
sba(iArchitecture
Entity
p894
(dp895
g11
(lp896
sg13
S'com.android.server.wm.TaskPositioner$CtrlType'
p897
sg15
(lp898
sg17
(lp899
sg19
(lp900
sg21
I0
sba(iArchitecture
Entity
p901
(dp902
g11
(lp903
sg13
S'com.android.server.wm.TaskPositioner$WindowPositionerEventReceiver'
p904
sg15
(lp905
sg17
(lp906
sg19
(lp907
sg21
I0
sba(iArchitecture
Entity
p908
(dp909
g11
(lp910
sg13
S'com.android.server.wm.TaskStack'
p911
sg15
(lp912
sg17
(lp913
sg19
(lp914
sg21
I0
sba(iArchitecture
Entity
p915
(dp916
g11
(lp917
sg13
S'com.android.server.wm.TaskTapPointerEventListener'
p918
sg15
(lp919
sg17
(lp920
sg19
(lp921
sg21
I0
sba(iArchitecture
Entity
p922
(dp923
g11
(lp924
sg13
S'com.android.server.wm.TaskTapPointerEventListener$TwoFingerScrollListener'
p925
sg15
(lp926
sg17
(lp927
sg19
(lp928
sg21
I0
sba(iArchitecture
Entity
p929
(dp930
g11
(lp931
sg13
S'com.android.server.wm.ViewServer'
p932
sg15
(lp933
sg17
(lp934
sg19
(lp935
sg21
I0
sba(iArchitecture
Entity
p936
(dp937
g11
(lp938
sg13
S'com.android.server.wm.ViewServer$ViewServerWorker'
p939
sg15
(lp940
sg17
(lp941
sg19
(lp942
sg21
I0
sba(iArchitecture
Entity
p943
(dp944
g11
(lp945
sg13
S'com.android.server.wm.WallpaperController'
p946
sg15
(lp947
sg17
(lp948
sg19
(lp949
sg21
I0
sba(iArchitecture
Entity
p950
(dp951
g11
(lp952
sg13
S'com.android.server.wm.WallpaperController$FindWallpaperTargetResult'
p953
sg15
(lp954
sg17
(lp955
sg19
(lp956
sg21
I0
sba(iArchitecture
Entity
p957
(dp958
g11
(lp959
sg13
S'com.android.server.wm.Watermark'
p960
sg15
(lp961
sg17
(lp962
sg19
(lp963
sg21
I0
sba(iArchitecture
Entity
p964
(dp965
g11
(lp966
sg13
S'com.android.server.wm.WindowAnimator'
p967
sg15
(lp968
sg17
(lp969
sg19
(lp970
sg21
I0
sba(iArchitecture
Entity
p971
(dp972
g11
(lp973
sg13
S'com.android.server.wm.WindowAnimator$1'
p974
sg15
(lp975
sg17
(lp976
sg19
(lp977
sg21
I0
sba(iArchitecture
Entity
p978
(dp979
g11
(lp980
sg13
S'com.android.server.wm.WindowAnimator$DisplayContentsAnimator'
p981
sg15
(lp982
sg17
(lp983
sg19
(lp984
sg21
I0
sba(iArchitecture
Entity
p985
(dp986
g11
(lp987
sg13
S'com.android.server.wm.WindowLayersController'
p988
sg15
(lp989
sg17
(lp990
sg19
(lp991
sg21
I0
sba(iArchitecture
Entity
p992
(dp993
g11
(lp994
sg13
S'com.android.server.wm.WindowList'
p995
sg15
(lp996
sg17
(lp997
sg19
(lp998
sg21
I0
sba(iArchitecture
Entity
p999
(dp1000
g11
(lp1001
sg13
S'com.android.server.wm.WindowManagerService'
p1002
sg15
(lp1003
sg17
(lp1004
sg19
(lp1005
sg21
I0
sba(iArchitecture
Entity
p1006
(dp1007
g11
(lp1008
sg13
S'com.android.server.wm.WindowManagerService$1'
p1009
sg15
(lp1010
sg17
(lp1011
sg19
(lp1012
sg21
I0
sba(iArchitecture
Entity
p1013
(dp1014
g11
(lp1015
sg13
S'com.android.server.wm.WindowManagerService$10'
p1016
sg15
(lp1017
sg17
(lp1018
sg19
(lp1019
sg21
I0
sba(iArchitecture
Entity
p1020
(dp1021
g11
(lp1022
sg13
S'com.android.server.wm.WindowManagerService$2'
p1023
sg15
(lp1024
sg17
(lp1025
sg19
(lp1026
sg21
I0
sba(iArchitecture
Entity
p1027
(dp1028
g11
(lp1029
sg13
S'com.android.server.wm.WindowManagerService$3'
p1030
sg15
(lp1031
sg17
(lp1032
sg19
(lp1033
sg21
I0
sba(iArchitecture
Entity
p1034
(dp1035
g11
(lp1036
sg13
S'com.android.server.wm.WindowManagerService$4'
p1037
sg15
(lp1038
sg17
(lp1039
sg19
(lp1040
sg21
I0
sba(iArchitecture
Entity
p1041
(dp1042
g11
(lp1043
sg13
S'com.android.server.wm.WindowManagerService$5'
p1044
sg15
(lp1045
sg17
(lp1046
sg19
(lp1047
sg21
I0
sba(iArchitecture
Entity
p1048
(dp1049
g11
(lp1050
sg13
S'com.android.server.wm.WindowManagerService$6'
p1051
sg15
(lp1052
sg17
(lp1053
sg19
(lp1054
sg21
I0
sba(iArchitecture
Entity
p1055
(dp1056
g11
(lp1057
sg13
S'com.android.server.wm.WindowManagerService$7'
p1058
sg15
(lp1059
sg17
(lp1060
sg19
(lp1061
sg21
I0
sba(iArchitecture
Entity
p1062
(dp1063
g11
(lp1064
sg13
S'com.android.server.wm.WindowManagerService$8'
p1065
sg15
(lp1066
sg17
(lp1067
sg19
(lp1068
sg21
I0
sba(iArchitecture
Entity
p1069
(dp1070
g11
(lp1071
sg13
S'com.android.server.wm.WindowManagerService$9'
p1072
sg15
(lp1073
sg17
(lp1074
sg19
(lp1075
sg21
I0
sba(iArchitecture
Entity
p1076
(dp1077
g11
(lp1078
sg13
S'com.android.server.wm.WindowManagerService$DragInputEventReceiver'
p1079
sg15
(lp1080
sg17
(lp1081
sg19
(lp1082
sg21
I0
sba(iArchitecture
Entity
p1083
(dp1084
g11
(lp1085
sg13
S'com.android.server.wm.WindowManagerService$H'
p1086
sg15
(lp1087
sg17
(lp1088
sg19
(lp1089
sg21
I0
sba(iArchitecture
Entity
p1090
(dp1091
g11
(lp1092
sg13
S'com.android.server.wm.WindowManagerService$HideNavInputConsumer'
p1093
sg15
(lp1094
sg17
(lp1095
sg19
(lp1096
sg21
I0
sba(iArchitecture
Entity
p1097
(dp1098
g11
(lp1099
sg13
S'com.android.server.wm.WindowManagerService$LocalService'
p1100
sg15
(lp1101
sg17
(lp1102
sg19
(lp1103
sg21
I0
sba(iArchitecture
Entity
p1104
(dp1105
g11
(lp1106
sg13
S'com.android.server.wm.WindowManagerService$MousePositionTracker'
p1107
sg15
(lp1108
sg17
(lp1109
sg19
(lp1110
sg21
I0
sba(iArchitecture
Entity
p1111
(dp1112
g11
(lp1113
sg13
S'com.android.server.wm.WindowManagerService$RotationWatcher'
p1114
sg15
(lp1115
sg17
(lp1116
sg19
(lp1117
sg21
I0
sba(iArchitecture
Entity
p1118
(dp1119
g11
(lp1120
sg13
S'com.android.server.wm.WindowManagerService$SettingsObserver'
p1121
sg15
(lp1122
sg17
(lp1123
sg19
(lp1124
sg21
I0
sba(iArchitecture
Entity
p1125
(dp1126
g11
(lp1127
sg13
S'com.android.server.wm.WindowManagerService$UpdateAnimationScaleMode'
p1128
sg15
(lp1129
sg17
(lp1130
sg19
(lp1131
sg21
I0
sba(iArchitecture
Entity
p1132
(dp1133
g11
(lp1134
sg13
S'com.android.server.wm.WindowManagerService$WindowChangeListener'
p1135
sg15
(lp1136
sg17
(lp1137
sg19
(lp1138
sg21
I0
sba(iArchitecture
Entity
p1139
(dp1140
g11
(lp1141
sg13
S'com.android.server.wm.WindowState'
p1142
sg15
(lp1143
sg17
(lp1144
sg19
(lp1145
sg21
I0
sba(iArchitecture
Entity
p1146
(dp1147
g11
(lp1148
sg13
S'com.android.server.wm.WindowState$1'
p1149
sg15
(lp1150
sg17
(lp1151
sg19
(lp1152
sg21
I0
sba(iArchitecture
Entity
p1153
(dp1154
g11
(lp1155
sg13
S'com.android.server.wm.WindowState$2'
p1156
sg15
(lp1157
sg17
(lp1158
sg19
(lp1159
sg21
I0
sba(iArchitecture
Entity
p1160
(dp1161
g11
(lp1162
sg13
S'com.android.server.wm.WindowState$DeadWindowEventReceiver'
p1163
sg15
(lp1164
sg17
(lp1165
sg19
(lp1166
sg21
I0
sba(iArchitecture
Entity
p1167
(dp1168
g11
(lp1169
sg13
S'com.android.server.wm.WindowState$DeathRecipient'
p1170
sg15
(lp1171
sg17
(lp1172
sg19
(lp1173
sg21
I0
sba(iArchitecture
Entity
p1174
(dp1175
g11
(lp1176
sg13
S'com.android.server.wm.WindowStateAnimator'
p1177
sg15
(lp1178
sg17
(lp1179
sg19
(lp1180
sg21
I0
sba(iArchitecture
Entity
p1181
(dp1182
g11
(lp1183
sg13
S'com.android.server.wm.WindowSurfaceController'
p1184
sg15
(lp1185
sg17
(lp1186
sg19
(lp1187
sg21
I0
sba(iArchitecture
Entity
p1188
(dp1189
g11
(lp1190
sg13
S'com.android.server.wm.WindowSurfaceController$SurfaceControlWithBackground'
p1191
sg15
(lp1192
sg17
(lp1193
sg19
(lp1194
sg21
I0
sba(iArchitecture
Entity
p1195
(dp1196
g11
(lp1197
sg13
S'com.android.server.wm.WindowSurfaceController$SurfaceTrace'
p1198
sg15
(lp1199
sg17
(lp1200
sg19
(lp1201
sg21
I0
sba(iArchitecture
Entity
p1202
(dp1203
g11
(lp1204
sg13
S'com.android.server.wm.WindowSurfacePlacer'
p1205
sg15
(lp1206
sg17
(lp1207
sg19
(lp1208
sg21
I0
sba(iArchitecture
Entity
p1209
(dp1210
g11
(lp1211
sg13
S'com.android.server.wm.WindowSurfacePlacer$LayerAndToken'
p1212
sg15
(lp1213
sg17
(lp1214
sg19
(lp1215
sg21
I0
sba(iArchitecture
Entity
p1216
(dp1217
g11
(lp1218
sg13
S'com.android.server.wm.WindowToken'
p1219
sg15
(lp1220
sg17
(lp1221
sg19
(lp1222
sg21
I0
sba(iArchitecture
Entity
p1223
(dp1224
g11
(lp1225
sg13
S'com.android.server.wm.animation.ClipRectLRAnimation'
p1226
sg15
(lp1227
sg17
(lp1228
sg19
(lp1229
sg21
I0
sba(iArchitecture
Entity
p1230
(dp1231
g11
(lp1232
sg13
S'com.android.server.wm.animation.ClipRectTBAnimation'
p1233
sg15
(lp1234
sg17
(lp1235
sg19
(lp1236
sg21
I0
sba(iArchitecture
Entity
p1237
(dp1238
g11
(lp1239
sg13
S'com.android.server.wm.animation.CurvedTranslateAnimation'
p1240
sg15
(lp1241
sg17
(lp1242
sg19
(lp1243
sg21
I0
sbasg22
(lp1244
g547
ag554
ag561
ag568
ag575
ag582
ag589
ag596
ag603
ag610
ag617
ag624
ag631
ag638
ag645
ag652
ag659
ag666
ag673
ag680
ag687
ag694
ag701
ag708
ag715
ag722
ag729
ag736
ag743
ag750
ag757
ag764
ag771
ag778
ag785
ag792
ag799
ag806
ag813
ag820
ag827
ag834
ag841
ag848
ag855
ag862
ag869
ag876
ag883
ag890
ag897
ag904
ag911
ag918
ag925
ag932
ag939
ag946
ag953
ag960
ag967
ag974
ag981
ag988
ag995
ag1002
ag1009
ag1016
ag1023
ag1030
ag1037
ag1044
ag1051
ag1058
ag1065
ag1072
ag1079
ag1086
ag1093
ag1100
ag1107
ag1114
ag1121
ag1128
ag1135
ag1142
ag1149
ag1156
ag1163
ag1170
ag1177
ag1184
ag1191
ag1198
ag1205
ag1212
ag1219
ag1226
ag1233
ag1240
asg21
I0
sg24
S'com.android.server.wm.ss'
p1245
sbasg521
g522
sg22
(lp1246
sg524
I00
sg24
S'7.0.0_r1'
p1247
sba.