(lp0
(iArchitecture
Architecture
p1
(dp2
S'clusters'
p3
(lp4
(iArchitecture
Cluster
p5
(dp6
S'entities'
p7
(lp8
(iArchitecture
Entity
p9
(dp10
S'issue_ids'
p11
(lp12
sS'name'
p13
S'android.security.keymaster.ExportResult'
p14
sS'descs'
p15
(lp16
sS'labels'
p17
(lp18
sS'titles'
p19
(lp20
sS'change'
p21
I0
sba(iArchitecture
Entity
p22
(dp23
g11
(lp24
sg13
S'android.security.keymaster.ExportResult$1'
p25
sg15
(lp26
sg17
(lp27
sg19
(lp28
sg21
I0
sba(iArchitecture
Entity
p29
(dp30
g11
(lp31
sg13
S'android.security.keymaster.KeyCharacteristics'
p32
sg15
(lp33
sg17
(lp34
sg19
(lp35
sg21
I0
sba(iArchitecture
Entity
p36
(dp37
g11
(lp38
sg13
S'android.security.keymaster.KeyCharacteristics$1'
p39
sg15
(lp40
sg17
(lp41
sg19
(lp42
sg21
I0
sba(iArchitecture
Entity
p43
(dp44
g11
(lp45
sg13
S'android.security.keymaster.KeymasterArgument'
p46
sg15
(lp47
sg17
(lp48
sg19
(lp49
sg21
I0
sba(iArchitecture
Entity
p50
(dp51
g11
(lp52
sg13
S'android.security.keymaster.KeymasterArgument$1'
p53
sg15
(lp54
sg17
(lp55
sg19
(lp56
sg21
I0
sba(iArchitecture
Entity
p57
(dp58
g11
(lp59
sg13
S'android.security.keymaster.KeymasterArguments'
p60
sg15
(lp61
sg17
(lp62
sg19
(lp63
sg21
I0
sba(iArchitecture
Entity
p64
(dp65
g11
(lp66
sg13
S'android.security.keymaster.KeymasterArguments$1'
p67
sg15
(lp68
sg17
(lp69
sg19
(lp70
sg21
I0
sba(iArchitecture
Entity
p71
(dp72
g11
(lp73
sg13
S'android.security.keymaster.KeymasterBlob'
p74
sg15
(lp75
sg17
(lp76
sg19
(lp77
sg21
I0
sba(iArchitecture
Entity
p78
(dp79
g11
(lp80
sg13
S'android.security.keymaster.KeymasterBlob$1'
p81
sg15
(lp82
sg17
(lp83
sg19
(lp84
sg21
I0
sba(iArchitecture
Entity
p85
(dp86
g11
(lp87
sg13
S'android.security.keymaster.KeymasterBlobArgument'
p88
sg15
(lp89
sg17
(lp90
sg19
(lp91
sg21
I0
sba(iArchitecture
Entity
p92
(dp93
g11
(lp94
sg13
S'android.security.keymaster.KeymasterBooleanArgument'
p95
sg15
(lp96
sg17
(lp97
sg19
(lp98
sg21
I0
sba(iArchitecture
Entity
p99
(dp100
g11
(lp101
sg13
S'android.security.keymaster.KeymasterDateArgument'
p102
sg15
(lp103
sg17
(lp104
sg19
(lp105
sg21
I0
sba(iArchitecture
Entity
p106
(dp107
g11
(lp108
sg13
S'android.security.keymaster.KeymasterDefs'
p109
sg15
(lp110
sg17
(lp111
sg19
(lp112
sg21
I0
sba(iArchitecture
Entity
p113
(dp114
g11
(lp115
sg13
S'android.security.keymaster.KeymasterIntArgument'
p116
sg15
(lp117
sg17
(lp118
sg19
(lp119
sg21
I0
sba(iArchitecture
Entity
p120
(dp121
g11
(lp122
sg13
S'android.security.keymaster.KeymasterLongArgument'
p123
sg15
(lp124
sg17
(lp125
sg19
(lp126
sg21
I0
sba(iArchitecture
Entity
p127
(dp128
g11
(lp129
sg13
S'android.security.keymaster.OperationResult'
p130
sg15
(lp131
sg17
(lp132
sg19
(lp133
sg21
I0
sba(iArchitecture
Entity
p134
(dp135
g11
(lp136
sg13
S'android.security.keymaster.OperationResult$1'
p137
sg15
(lp138
sg17
(lp139
sg19
(lp140
sg21
I0
sbasS'classes'
p141
(lp142
g14
ag25
ag32
ag39
ag46
ag53
ag60
ag67
ag74
ag81
ag88
ag95
ag102
ag109
ag116
ag123
ag130
ag137
asg21
I0
sS'label'
p143
S'android.security.keymaster.ss'
p144
sba(iArchitecture
Cluster
p145
(dp146
g7
(lp147
(iArchitecture
Entity
p148
(dp149
g11
(lp150
sg13
S'android.security.KeyStoreException'
p151
sg15
(lp152
sg17
(lp153
sg19
(lp154
sg21
I0
sba(iArchitecture
Entity
p155
(dp156
g11
(lp157
sg13
S'android.security.keystore.AndroidKeyStoreAuthenticatedAESCipherSpi'
p158
sg15
(lp159
sg17
(lp160
sg19
(lp161
sg21
I0
sba(iArchitecture
Entity
p162
(dp163
g11
(lp164
sg13
S'android.security.keystore.AndroidKeyStoreAuthenticatedAESCipherSpi$AdditionalAuthenticationDataStream'
p165
sg15
(lp166
sg17
(lp167
sg19
(lp168
sg21
I0
sba(iArchitecture
Entity
p169
(dp170
g11
(lp171
sg13
S'android.security.keystore.AndroidKeyStoreAuthenticatedAESCipherSpi$BufferAllOutputUntilDoFinalStreamer'
p172
sg15
(lp173
sg17
(lp174
sg19
(lp175
sg21
I0
sba(iArchitecture
Entity
p176
(dp177
g11
(lp178
sg13
S'android.security.keystore.AndroidKeyStoreAuthenticatedAESCipherSpi$GCM'
p179
sg15
(lp180
sg17
(lp181
sg19
(lp182
sg21
I0
sba(iArchitecture
Entity
p183
(dp184
g11
(lp185
sg13
S'android.security.keystore.AndroidKeyStoreAuthenticatedAESCipherSpi$GCM$NoPadding'
p186
sg15
(lp187
sg17
(lp188
sg19
(lp189
sg21
I0
sba(iArchitecture
Entity
p190
(dp191
g11
(lp192
sg13
S'android.security.keystore.AndroidKeyStoreBCWorkaroundProvider'
p193
sg15
(lp194
sg17
(lp195
sg19
(lp196
sg21
I0
sba(iArchitecture
Entity
p197
(dp198
g11
(lp199
sg13
S'android.security.keystore.AndroidKeyStoreCipherSpiBase'
p200
sg15
(lp201
sg17
(lp202
sg19
(lp203
sg21
I0
sba(iArchitecture
Entity
p204
(dp205
g11
(lp206
sg13
S'android.security.keystore.AndroidKeyStoreECDSASignatureSpi'
p207
sg15
(lp208
sg17
(lp209
sg19
(lp210
sg21
I0
sba(iArchitecture
Entity
p211
(dp212
g11
(lp213
sg13
S'android.security.keystore.AndroidKeyStoreECDSASignatureSpi$NONE'
p214
sg15
(lp215
sg17
(lp216
sg19
(lp217
sg21
I0
sba(iArchitecture
Entity
p218
(dp219
g11
(lp220
sg13
S'android.security.keystore.AndroidKeyStoreECDSASignatureSpi$NONE$TruncateToFieldSizeMessageStreamer'
p221
sg15
(lp222
sg17
(lp223
sg19
(lp224
sg21
I0
sba(iArchitecture
Entity
p225
(dp226
g11
(lp227
sg13
S'android.security.keystore.AndroidKeyStoreECDSASignatureSpi$SHA1'
p228
sg15
(lp229
sg17
(lp230
sg19
(lp231
sg21
I0
sba(iArchitecture
Entity
p232
(dp233
g11
(lp234
sg13
S'android.security.keystore.AndroidKeyStoreECDSASignatureSpi$SHA224'
p235
sg15
(lp236
sg17
(lp237
sg19
(lp238
sg21
I0
sba(iArchitecture
Entity
p239
(dp240
g11
(lp241
sg13
S'android.security.keystore.AndroidKeyStoreECDSASignatureSpi$SHA256'
p242
sg15
(lp243
sg17
(lp244
sg19
(lp245
sg21
I0
sba(iArchitecture
Entity
p246
(dp247
g11
(lp248
sg13
S'android.security.keystore.AndroidKeyStoreECDSASignatureSpi$SHA384'
p249
sg15
(lp250
sg17
(lp251
sg19
(lp252
sg21
I0
sba(iArchitecture
Entity
p253
(dp254
g11
(lp255
sg13
S'android.security.keystore.AndroidKeyStoreECDSASignatureSpi$SHA512'
p256
sg15
(lp257
sg17
(lp258
sg19
(lp259
sg21
I0
sba(iArchitecture
Entity
p260
(dp261
g11
(lp262
sg13
S'android.security.keystore.AndroidKeyStoreECPrivateKey'
p263
sg15
(lp264
sg17
(lp265
sg19
(lp266
sg21
I0
sba(iArchitecture
Entity
p267
(dp268
g11
(lp269
sg13
S'android.security.keystore.AndroidKeyStoreECPublicKey'
p270
sg15
(lp271
sg17
(lp272
sg19
(lp273
sg21
I0
sba(iArchitecture
Entity
p274
(dp275
g11
(lp276
sg13
S'android.security.keystore.AndroidKeyStoreHmacSpi'
p277
sg15
(lp278
sg17
(lp279
sg19
(lp280
sg21
I0
sba(iArchitecture
Entity
p281
(dp282
g11
(lp283
sg13
S'android.security.keystore.AndroidKeyStoreHmacSpi$HmacSHA1'
p284
sg15
(lp285
sg17
(lp286
sg19
(lp287
sg21
I0
sba(iArchitecture
Entity
p288
(dp289
g11
(lp290
sg13
S'android.security.keystore.AndroidKeyStoreHmacSpi$HmacSHA224'
p291
sg15
(lp292
sg17
(lp293
sg19
(lp294
sg21
I0
sba(iArchitecture
Entity
p295
(dp296
g11
(lp297
sg13
S'android.security.keystore.AndroidKeyStoreHmacSpi$HmacSHA256'
p298
sg15
(lp299
sg17
(lp300
sg19
(lp301
sg21
I0
sba(iArchitecture
Entity
p302
(dp303
g11
(lp304
sg13
S'android.security.keystore.AndroidKeyStoreHmacSpi$HmacSHA384'
p305
sg15
(lp306
sg17
(lp307
sg19
(lp308
sg21
I0
sba(iArchitecture
Entity
p309
(dp310
g11
(lp311
sg13
S'android.security.keystore.AndroidKeyStoreHmacSpi$HmacSHA512'
p312
sg15
(lp313
sg17
(lp314
sg19
(lp315
sg21
I0
sba(iArchitecture
Entity
p316
(dp317
g11
(lp318
sg13
S'android.security.keystore.AndroidKeyStoreKey'
p319
sg15
(lp320
sg17
(lp321
sg19
(lp322
sg21
I0
sba(iArchitecture
Entity
p323
(dp324
g11
(lp325
sg13
S'android.security.keystore.AndroidKeyStoreKeyFactorySpi'
p326
sg15
(lp327
sg17
(lp328
sg19
(lp329
sg21
I0
sba(iArchitecture
Entity
p330
(dp331
g11
(lp332
sg13
S'android.security.keystore.AndroidKeyStoreKeyGeneratorSpi'
p333
sg15
(lp334
sg17
(lp335
sg19
(lp336
sg21
I0
sba(iArchitecture
Entity
p337
(dp338
g11
(lp339
sg13
S'android.security.keystore.AndroidKeyStoreKeyGeneratorSpi$AES'
p340
sg15
(lp341
sg17
(lp342
sg19
(lp343
sg21
I0
sba(iArchitecture
Entity
p344
(dp345
g11
(lp346
sg13
S'android.security.keystore.AndroidKeyStoreKeyGeneratorSpi$HmacBase'
p347
sg15
(lp348
sg17
(lp349
sg19
(lp350
sg21
I0
sba(iArchitecture
Entity
p351
(dp352
g11
(lp353
sg13
S'android.security.keystore.AndroidKeyStoreKeyGeneratorSpi$HmacSHA1'
p354
sg15
(lp355
sg17
(lp356
sg19
(lp357
sg21
I0
sba(iArchitecture
Entity
p358
(dp359
g11
(lp360
sg13
S'android.security.keystore.AndroidKeyStoreKeyGeneratorSpi$HmacSHA224'
p361
sg15
(lp362
sg17
(lp363
sg19
(lp364
sg21
I0
sba(iArchitecture
Entity
p365
(dp366
g11
(lp367
sg13
S'android.security.keystore.AndroidKeyStoreKeyGeneratorSpi$HmacSHA256'
p368
sg15
(lp369
sg17
(lp370
sg19
(lp371
sg21
I0
sba(iArchitecture
Entity
p372
(dp373
g11
(lp374
sg13
S'android.security.keystore.AndroidKeyStoreKeyGeneratorSpi$HmacSHA384'
p375
sg15
(lp376
sg17
(lp377
sg19
(lp378
sg21
I0
sba(iArchitecture
Entity
p379
(dp380
g11
(lp381
sg13
S'android.security.keystore.AndroidKeyStoreKeyGeneratorSpi$HmacSHA512'
p382
sg15
(lp383
sg17
(lp384
sg19
(lp385
sg21
I0
sba(iArchitecture
Entity
p386
(dp387
g11
(lp388
sg13
S'android.security.keystore.AndroidKeyStoreKeyPairGeneratorSpi'
p389
sg15
(lp390
sg17
(lp391
sg19
(lp392
sg21
I0
sba(iArchitecture
Entity
p393
(dp394
g11
(lp395
sg13
S'android.security.keystore.AndroidKeyStoreKeyPairGeneratorSpi$EC'
p396
sg15
(lp397
sg17
(lp398
sg19
(lp399
sg21
I0
sba(iArchitecture
Entity
p400
(dp401
g11
(lp402
sg13
S'android.security.keystore.AndroidKeyStoreKeyPairGeneratorSpi$RSA'
p403
sg15
(lp404
sg17
(lp405
sg19
(lp406
sg21
I0
sba(iArchitecture
Entity
p407
(dp408
g11
(lp409
sg13
S'android.security.keystore.AndroidKeyStorePrivateKey'
p410
sg15
(lp411
sg17
(lp412
sg19
(lp413
sg21
I0
sba(iArchitecture
Entity
p414
(dp415
g11
(lp416
sg13
S'android.security.keystore.AndroidKeyStoreProvider'
p417
sg15
(lp418
sg17
(lp419
sg19
(lp420
sg21
I0
sba(iArchitecture
Entity
p421
(dp422
g11
(lp423
sg13
S'android.security.keystore.AndroidKeyStorePublicKey'
p424
sg15
(lp425
sg17
(lp426
sg19
(lp427
sg21
I0
sba(iArchitecture
Entity
p428
(dp429
g11
(lp430
sg13
S'android.security.keystore.AndroidKeyStoreRSACipherSpi'
p431
sg15
(lp432
sg17
(lp433
sg19
(lp434
sg21
I0
sba(iArchitecture
Entity
p435
(dp436
g11
(lp437
sg13
S'android.security.keystore.AndroidKeyStoreRSACipherSpi$NoPadding'
p438
sg15
(lp439
sg17
(lp440
sg19
(lp441
sg21
I0
sba(iArchitecture
Entity
p442
(dp443
g11
(lp444
sg13
S'android.security.keystore.AndroidKeyStoreRSACipherSpi$OAEPWithMGF1Padding'
p445
sg15
(lp446
sg17
(lp447
sg19
(lp448
sg21
I0
sba(iArchitecture
Entity
p449
(dp450
g11
(lp451
sg13
S'android.security.keystore.AndroidKeyStoreRSACipherSpi$OAEPWithSHA1AndMGF1Padding'
p452
sg15
(lp453
sg17
(lp454
sg19
(lp455
sg21
I0
sba(iArchitecture
Entity
p456
(dp457
g11
(lp458
sg13
S'android.security.keystore.AndroidKeyStoreRSACipherSpi$OAEPWithSHA224AndMGF1Padding'
p459
sg15
(lp460
sg17
(lp461
sg19
(lp462
sg21
I0
sba(iArchitecture
Entity
p463
(dp464
g11
(lp465
sg13
S'android.security.keystore.AndroidKeyStoreRSACipherSpi$OAEPWithSHA256AndMGF1Padding'
p466
sg15
(lp467
sg17
(lp468
sg19
(lp469
sg21
I0
sba(iArchitecture
Entity
p470
(dp471
g11
(lp472
sg13
S'android.security.keystore.AndroidKeyStoreRSACipherSpi$OAEPWithSHA384AndMGF1Padding'
p473
sg15
(lp474
sg17
(lp475
sg19
(lp476
sg21
I0
sba(iArchitecture
Entity
p477
(dp478
g11
(lp479
sg13
S'android.security.keystore.AndroidKeyStoreRSACipherSpi$OAEPWithSHA512AndMGF1Padding'
p480
sg15
(lp481
sg17
(lp482
sg19
(lp483
sg21
I0
sba(iArchitecture
Entity
p484
(dp485
g11
(lp486
sg13
S'android.security.keystore.AndroidKeyStoreRSACipherSpi$PKCS1Padding'
p487
sg15
(lp488
sg17
(lp489
sg19
(lp490
sg21
I0
sba(iArchitecture
Entity
p491
(dp492
g11
(lp493
sg13
S'android.security.keystore.AndroidKeyStoreRSAPrivateKey'
p494
sg15
(lp495
sg17
(lp496
sg19
(lp497
sg21
I0
sba(iArchitecture
Entity
p498
(dp499
g11
(lp500
sg13
S'android.security.keystore.AndroidKeyStoreRSAPublicKey'
p501
sg15
(lp502
sg17
(lp503
sg19
(lp504
sg21
I0
sba(iArchitecture
Entity
p505
(dp506
g11
(lp507
sg13
S'android.security.keystore.AndroidKeyStoreRSASignatureSpi'
p508
sg15
(lp509
sg17
(lp510
sg19
(lp511
sg21
I0
sba(iArchitecture
Entity
p512
(dp513
g11
(lp514
sg13
S'android.security.keystore.AndroidKeyStoreRSASignatureSpi$MD5WithPKCS1Padding'
p515
sg15
(lp516
sg17
(lp517
sg19
(lp518
sg21
I0
sba(iArchitecture
Entity
p519
(dp520
g11
(lp521
sg13
S'android.security.keystore.AndroidKeyStoreRSASignatureSpi$NONEWithPKCS1Padding'
p522
sg15
(lp523
sg17
(lp524
sg19
(lp525
sg21
I0
sba(iArchitecture
Entity
p526
(dp527
g11
(lp528
sg13
S'android.security.keystore.AndroidKeyStoreRSASignatureSpi$PKCS1Padding'
p529
sg15
(lp530
sg17
(lp531
sg19
(lp532
sg21
I0
sba(iArchitecture
Entity
p533
(dp534
g11
(lp535
sg13
S'android.security.keystore.AndroidKeyStoreRSASignatureSpi$PSSPadding'
p536
sg15
(lp537
sg17
(lp538
sg19
(lp539
sg21
I0
sba(iArchitecture
Entity
p540
(dp541
g11
(lp542
sg13
S'android.security.keystore.AndroidKeyStoreRSASignatureSpi$SHA1WithPKCS1Padding'
p543
sg15
(lp544
sg17
(lp545
sg19
(lp546
sg21
I0
sba(iArchitecture
Entity
p547
(dp548
g11
(lp549
sg13
S'android.security.keystore.AndroidKeyStoreRSASignatureSpi$SHA1WithPSSPadding'
p550
sg15
(lp551
sg17
(lp552
sg19
(lp553
sg21
I0
sba(iArchitecture
Entity
p554
(dp555
g11
(lp556
sg13
S'android.security.keystore.AndroidKeyStoreRSASignatureSpi$SHA224WithPKCS1Padding'
p557
sg15
(lp558
sg17
(lp559
sg19
(lp560
sg21
I0
sba(iArchitecture
Entity
p561
(dp562
g11
(lp563
sg13
S'android.security.keystore.AndroidKeyStoreRSASignatureSpi$SHA224WithPSSPadding'
p564
sg15
(lp565
sg17
(lp566
sg19
(lp567
sg21
I0
sba(iArchitecture
Entity
p568
(dp569
g11
(lp570
sg13
S'android.security.keystore.AndroidKeyStoreRSASignatureSpi$SHA256WithPKCS1Padding'
p571
sg15
(lp572
sg17
(lp573
sg19
(lp574
sg21
I0
sba(iArchitecture
Entity
p575
(dp576
g11
(lp577
sg13
S'android.security.keystore.AndroidKeyStoreRSASignatureSpi$SHA256WithPSSPadding'
p578
sg15
(lp579
sg17
(lp580
sg19
(lp581
sg21
I0
sba(iArchitecture
Entity
p582
(dp583
g11
(lp584
sg13
S'android.security.keystore.AndroidKeyStoreRSASignatureSpi$SHA384WithPKCS1Padding'
p585
sg15
(lp586
sg17
(lp587
sg19
(lp588
sg21
I0
sba(iArchitecture
Entity
p589
(dp590
g11
(lp591
sg13
S'android.security.keystore.AndroidKeyStoreRSASignatureSpi$SHA384WithPSSPadding'
p592
sg15
(lp593
sg17
(lp594
sg19
(lp595
sg21
I0
sba(iArchitecture
Entity
p596
(dp597
g11
(lp598
sg13
S'android.security.keystore.AndroidKeyStoreRSASignatureSpi$SHA512WithPKCS1Padding'
p599
sg15
(lp600
sg17
(lp601
sg19
(lp602
sg21
I0
sba(iArchitecture
Entity
p603
(dp604
g11
(lp605
sg13
S'android.security.keystore.AndroidKeyStoreRSASignatureSpi$SHA512WithPSSPadding'
p606
sg15
(lp607
sg17
(lp608
sg19
(lp609
sg21
I0
sba(iArchitecture
Entity
p610
(dp611
g11
(lp612
sg13
S'android.security.keystore.AndroidKeyStoreSecretKey'
p613
sg15
(lp614
sg17
(lp615
sg19
(lp616
sg21
I0
sba(iArchitecture
Entity
p617
(dp618
g11
(lp619
sg13
S'android.security.keystore.AndroidKeyStoreSecretKeyFactorySpi'
p620
sg15
(lp621
sg17
(lp622
sg19
(lp623
sg21
I0
sba(iArchitecture
Entity
p624
(dp625
g11
(lp626
sg13
S'android.security.keystore.AndroidKeyStoreSignatureSpiBase'
p627
sg15
(lp628
sg17
(lp629
sg19
(lp630
sg21
I0
sba(iArchitecture
Entity
p631
(dp632
g11
(lp633
sg13
S'android.security.keystore.AndroidKeyStoreSpi'
p634
sg15
(lp635
sg17
(lp636
sg19
(lp637
sg21
I0
sba(iArchitecture
Entity
p638
(dp639
g11
(lp640
sg13
S'android.security.keystore.AndroidKeyStoreSpi$KeyStoreX509Certificate'
p641
sg15
(lp642
sg17
(lp643
sg19
(lp644
sg21
I0
sba(iArchitecture
Entity
p645
(dp646
g11
(lp647
sg13
S'android.security.keystore.AndroidKeyStoreUnauthenticatedAESCipherSpi'
p648
sg15
(lp649
sg17
(lp650
sg19
(lp651
sg21
I0
sba(iArchitecture
Entity
p652
(dp653
g11
(lp654
sg13
S'android.security.keystore.AndroidKeyStoreUnauthenticatedAESCipherSpi$CBC'
p655
sg15
(lp656
sg17
(lp657
sg19
(lp658
sg21
I0
sba(iArchitecture
Entity
p659
(dp660
g11
(lp661
sg13
S'android.security.keystore.AndroidKeyStoreUnauthenticatedAESCipherSpi$CBC$NoPadding'
p662
sg15
(lp663
sg17
(lp664
sg19
(lp665
sg21
I0
sba(iArchitecture
Entity
p666
(dp667
g11
(lp668
sg13
S'android.security.keystore.AndroidKeyStoreUnauthenticatedAESCipherSpi$CBC$PKCS7Padding'
p669
sg15
(lp670
sg17
(lp671
sg19
(lp672
sg21
I0
sba(iArchitecture
Entity
p673
(dp674
g11
(lp675
sg13
S'android.security.keystore.AndroidKeyStoreUnauthenticatedAESCipherSpi$CTR'
p676
sg15
(lp677
sg17
(lp678
sg19
(lp679
sg21
I0
sba(iArchitecture
Entity
p680
(dp681
g11
(lp682
sg13
S'android.security.keystore.AndroidKeyStoreUnauthenticatedAESCipherSpi$CTR$NoPadding'
p683
sg15
(lp684
sg17
(lp685
sg19
(lp686
sg21
I0
sba(iArchitecture
Entity
p687
(dp688
g11
(lp689
sg13
S'android.security.keystore.AndroidKeyStoreUnauthenticatedAESCipherSpi$ECB'
p690
sg15
(lp691
sg17
(lp692
sg19
(lp693
sg21
I0
sba(iArchitecture
Entity
p694
(dp695
g11
(lp696
sg13
S'android.security.keystore.AndroidKeyStoreUnauthenticatedAESCipherSpi$ECB$NoPadding'
p697
sg15
(lp698
sg17
(lp699
sg19
(lp700
sg21
I0
sba(iArchitecture
Entity
p701
(dp702
g11
(lp703
sg13
S'android.security.keystore.AndroidKeyStoreUnauthenticatedAESCipherSpi$ECB$PKCS7Padding'
p704
sg15
(lp705
sg17
(lp706
sg19
(lp707
sg21
I0
sba(iArchitecture
Entity
p708
(dp709
g11
(lp710
sg13
S'android.security.keystore.ArrayUtils'
p711
sg15
(lp712
sg17
(lp713
sg19
(lp714
sg21
I0
sba(iArchitecture
Entity
p715
(dp716
g11
(lp717
sg13
S'android.security.keystore.DelegatingX509Certificate'
p718
sg15
(lp719
sg17
(lp720
sg19
(lp721
sg21
I0
sba(iArchitecture
Entity
p722
(dp723
g11
(lp724
sg13
S'android.security.keystore.KeyGenParameterSpec'
p725
sg15
(lp726
sg17
(lp727
sg19
(lp728
sg21
I0
sba(iArchitecture
Entity
p729
(dp730
g11
(lp731
sg13
S'android.security.keystore.KeyGenParameterSpec$Builder'
p732
sg15
(lp733
sg17
(lp734
sg19
(lp735
sg21
I0
sba(iArchitecture
Entity
p736
(dp737
g11
(lp738
sg13
S'android.security.keystore.KeyInfo'
p739
sg15
(lp740
sg17
(lp741
sg19
(lp742
sg21
I0
sba(iArchitecture
Entity
p743
(dp744
g11
(lp745
sg13
S'android.security.keystore.KeyProperties'
p746
sg15
(lp747
sg17
(lp748
sg19
(lp749
sg21
I0
sba(iArchitecture
Entity
p750
(dp751
g11
(lp752
sg13
S'android.security.keystore.KeyProperties$BlockMode'
p753
sg15
(lp754
sg17
(lp755
sg19
(lp756
sg21
I0
sba(iArchitecture
Entity
p757
(dp758
g11
(lp759
sg13
S'android.security.keystore.KeyProperties$Digest'
p760
sg15
(lp761
sg17
(lp762
sg19
(lp763
sg21
I0
sba(iArchitecture
Entity
p764
(dp765
g11
(lp766
sg13
S'android.security.keystore.KeyProperties$EncryptionPadding'
p767
sg15
(lp768
sg17
(lp769
sg19
(lp770
sg21
I0
sba(iArchitecture
Entity
p771
(dp772
g11
(lp773
sg13
S'android.security.keystore.KeyProperties$KeyAlgorithm'
p774
sg15
(lp775
sg17
(lp776
sg19
(lp777
sg21
I0
sba(iArchitecture
Entity
p778
(dp779
g11
(lp780
sg13
S'android.security.keystore.KeyProperties$Origin'
p781
sg15
(lp782
sg17
(lp783
sg19
(lp784
sg21
I0
sba(iArchitecture
Entity
p785
(dp786
g11
(lp787
sg13
S'android.security.keystore.KeyProperties$Purpose'
p788
sg15
(lp789
sg17
(lp790
sg19
(lp791
sg21
I0
sba(iArchitecture
Entity
p792
(dp793
g11
(lp794
sg13
S'android.security.keystore.KeyProperties$SignaturePadding'
p795
sg15
(lp796
sg17
(lp797
sg19
(lp798
sg21
I0
sba(iArchitecture
Entity
p799
(dp800
g11
(lp801
sg13
S'android.security.keystore.KeyProtection'
p802
sg15
(lp803
sg17
(lp804
sg19
(lp805
sg21
I0
sba(iArchitecture
Entity
p806
(dp807
g11
(lp808
sg13
S'android.security.keystore.KeyProtection$Builder'
p809
sg15
(lp810
sg17
(lp811
sg19
(lp812
sg21
I0
sba(iArchitecture
Entity
p813
(dp814
g11
(lp815
sg13
S'android.security.keystore.KeyStoreConnectException'
p816
sg15
(lp817
sg17
(lp818
sg19
(lp819
sg21
I0
sba(iArchitecture
Entity
p820
(dp821
g11
(lp822
sg13
S'android.security.keystore.KeyStoreCryptoOperation'
p823
sg15
(lp824
sg17
(lp825
sg19
(lp826
sg21
I0
sba(iArchitecture
Entity
p827
(dp828
g11
(lp829
sg13
S'android.security.keystore.KeyStoreCryptoOperationChunkedStreamer'
p830
sg15
(lp831
sg17
(lp832
sg19
(lp833
sg21
I0
sba(iArchitecture
Entity
p834
(dp835
g11
(lp836
sg13
S'android.security.keystore.KeyStoreCryptoOperationChunkedStreamer$MainDataStream'
p837
sg15
(lp838
sg17
(lp839
sg19
(lp840
sg21
I0
sba(iArchitecture
Entity
p841
(dp842
g11
(lp843
sg13
S'android.security.keystore.KeyStoreCryptoOperationChunkedStreamer$Stream'
p844
sg15
(lp845
sg17
(lp846
sg19
(lp847
sg21
I0
sba(iArchitecture
Entity
p848
(dp849
g11
(lp850
sg13
S'android.security.keystore.KeyStoreCryptoOperationStreamer'
p851
sg15
(lp852
sg17
(lp853
sg19
(lp854
sg21
I0
sba(iArchitecture
Entity
p855
(dp856
g11
(lp857
sg13
S'android.security.keystore.KeyStoreCryptoOperationUtils'
p858
sg15
(lp859
sg17
(lp860
sg19
(lp861
sg21
I0
sba(iArchitecture
Entity
p862
(dp863
g11
(lp864
sg13
S'android.security.keystore.KeymasterUtils'
p865
sg15
(lp866
sg17
(lp867
sg19
(lp868
sg21
I0
sba(iArchitecture
Entity
p869
(dp870
g11
(lp871
sg13
S'android.security.keystore.Utils'
p872
sg15
(lp873
sg17
(lp874
sg19
(lp875
sg21
I0
sbasg141
(lp876
g151
ag158
ag165
ag172
ag179
ag186
ag193
ag200
ag207
ag214
ag221
ag228
ag235
ag242
ag249
ag256
ag263
ag270
ag277
ag284
ag291
ag298
ag305
ag312
ag319
ag326
ag333
ag340
ag347
ag354
ag361
ag368
ag375
ag382
ag389
ag396
ag403
ag410
ag417
ag424
ag431
ag438
ag445
ag452
ag459
ag466
ag473
ag480
ag487
ag494
ag501
ag508
ag515
ag522
ag529
ag536
ag543
ag550
ag557
ag564
ag571
ag578
ag585
ag592
ag599
ag606
ag613
ag620
ag627
ag634
ag641
ag648
ag655
ag662
ag669
ag676
ag683
ag690
ag697
ag704
ag711
ag718
ag725
ag732
ag739
ag746
ag753
ag760
ag767
ag774
ag781
ag788
ag795
ag802
ag809
ag816
ag823
ag830
ag837
ag844
ag851
ag858
ag865
ag872
asg21
I0
sg143
S'android.security.keystore.ss'
p877
sba(iArchitecture
Cluster
p878
(dp879
g7
(lp880
(iArchitecture
Entity
p881
(dp882
g11
(lp883
sg13
S'android.security.Credentials'
p884
sg15
(lp885
sg17
(lp886
sg19
(lp887
sg21
I0
sba(iArchitecture
Entity
p888
(dp889
g11
(lp890
sg13
S'android.security.GateKeeper'
p891
sg15
(lp892
sg17
(lp893
sg19
(lp894
sg21
I0
sba(iArchitecture
Entity
p895
(dp896
g11
(lp897
sg13
S'android.security.IKeystoreService'
p898
sg15
(lp899
sg17
(lp900
sg19
(lp901
sg21
I0
sba(iArchitecture
Entity
p902
(dp903
g11
(lp904
sg13
S'android.security.IKeystoreService$Stub'
p905
sg15
(lp906
sg17
(lp907
sg19
(lp908
sg21
I0
sba(iArchitecture
Entity
p909
(dp910
g11
(lp911
sg13
S'android.security.IKeystoreService$Stub$Proxy'
p912
sg15
(lp913
sg17
(lp914
sg19
(lp915
sg21
I0
sba(iArchitecture
Entity
p916
(dp917
g11
(lp918
sg13
S'android.security.KeyChain'
p919
sg15
(lp920
sg17
(lp921
sg19
(lp922
sg21
I0
sba(iArchitecture
Entity
p923
(dp924
g11
(lp925
sg13
S'android.security.KeyChain$1'
p926
sg15
(lp927
sg17
(lp928
sg19
(lp929
sg21
I0
sba(iArchitecture
Entity
p930
(dp931
g11
(lp932
sg13
S'android.security.KeyChain$AliasResponse'
p933
sg15
(lp934
sg17
(lp935
sg19
(lp936
sg21
I0
sba(iArchitecture
Entity
p937
(dp938
g11
(lp939
sg13
S'android.security.KeyChainAliasCallback'
p940
sg15
(lp941
sg17
(lp942
sg19
(lp943
sg21
I0
sba(iArchitecture
Entity
p944
(dp945
g11
(lp946
sg13
S'android.security.KeyChainException'
p947
sg15
(lp948
sg17
(lp949
sg19
(lp950
sg21
I0
sba(iArchitecture
Entity
p951
(dp952
g11
(lp953
sg13
S'android.security.KeyPairGeneratorSpec'
p954
sg15
(lp955
sg17
(lp956
sg19
(lp957
sg21
I0
sba(iArchitecture
Entity
p958
(dp959
g11
(lp960
sg13
S'android.security.KeyPairGeneratorSpec$Builder'
p961
sg15
(lp962
sg17
(lp963
sg19
(lp964
sg21
I0
sba(iArchitecture
Entity
p965
(dp966
g11
(lp967
sg13
S'android.security.KeyStore'
p968
sg15
(lp969
sg17
(lp970
sg19
(lp971
sg21
I0
sba(iArchitecture
Entity
p972
(dp973
g11
(lp974
sg13
S'android.security.KeyStore$State'
p975
sg15
(lp976
sg17
(lp977
sg19
(lp978
sg21
I0
sba(iArchitecture
Entity
p979
(dp980
g11
(lp981
sg13
S'android.security.KeyStoreParameter'
p982
sg15
(lp983
sg17
(lp984
sg19
(lp985
sg21
I0
sba(iArchitecture
Entity
p986
(dp987
g11
(lp988
sg13
S'android.security.KeyStoreParameter$Builder'
p989
sg15
(lp990
sg17
(lp991
sg19
(lp992
sg21
I0
sba(iArchitecture
Entity
p993
(dp994
g11
(lp995
sg13
S'android.security.KeystoreArguments'
p996
sg15
(lp997
sg17
(lp998
sg19
(lp999
sg21
I0
sba(iArchitecture
Entity
p1000
(dp1001
g11
(lp1002
sg13
S'android.security.KeystoreArguments$1'
p1003
sg15
(lp1004
sg17
(lp1005
sg19
(lp1006
sg21
I0
sba(iArchitecture
Entity
p1007
(dp1008
g11
(lp1009
sg13
S'android.security.NetworkSecurityPolicy'
p1010
sg15
(lp1011
sg17
(lp1012
sg19
(lp1013
sg21
I0
sba(iArchitecture
Entity
p1014
(dp1015
g11
(lp1016
sg13
S'android.security.SystemKeyStore'
p1017
sg15
(lp1018
sg17
(lp1019
sg19
(lp1020
sg21
I0
sba(iArchitecture
Entity
p1021
(dp1022
g11
(lp1023
sg13
S'android.security.keystore.KeyExpiredException'
p1024
sg15
(lp1025
sg17
(lp1026
sg19
(lp1027
sg21
I0
sba(iArchitecture
Entity
p1028
(dp1029
g11
(lp1030
sg13
S'android.security.keystore.KeyNotYetValidException'
p1031
sg15
(lp1032
sg17
(lp1033
sg19
(lp1034
sg21
I0
sba(iArchitecture
Entity
p1035
(dp1036
g11
(lp1037
sg13
S'android.security.keystore.KeyPermanentlyInvalidatedException'
p1038
sg15
(lp1039
sg17
(lp1040
sg19
(lp1041
sg21
I0
sba(iArchitecture
Entity
p1042
(dp1043
g11
(lp1044
sg13
S'android.security.keystore.UserNotAuthenticatedException'
p1045
sg15
(lp1046
sg17
(lp1047
sg19
(lp1048
sg21
I0
sbasg141
(lp1049
g884
ag891
ag898
ag905
ag912
ag919
ag926
ag933
ag940
ag947
ag954
ag961
ag968
ag975
ag982
ag989
ag996
ag1003
ag1010
ag1017
ag1024
ag1031
ag1038
ag1045
asg21
I0
sg143
S'android.security.ss'
p1050
sba(iArchitecture
Cluster
p1051
(dp1052
g7
(lp1053
(iArchitecture
Entity
p1054
(dp1055
g11
(lp1056
sg13
S'android.security.IKeyChainAliasCallback'
p1057
sg15
(lp1058
sg17
(lp1059
sg19
(lp1060
sg21
I0
sba(iArchitecture
Entity
p1061
(dp1062
g11
(lp1063
sg13
S'android.security.IKeyChainAliasCallback$Stub'
p1064
sg15
(lp1065
sg17
(lp1066
sg19
(lp1067
sg21
I0
sba(iArchitecture
Entity
p1068
(dp1069
g11
(lp1070
sg13
S'android.security.IKeyChainAliasCallback$Stub$Proxy'
p1071
sg15
(lp1072
sg17
(lp1073
sg19
(lp1074
sg21
I0
sba(iArchitecture
Entity
p1075
(dp1076
g11
(lp1077
sg13
S'android.security.IKeyChainService'
p1078
sg15
(lp1079
sg17
(lp1080
sg19
(lp1081
sg21
I0
sba(iArchitecture
Entity
p1082
(dp1083
g11
(lp1084
sg13
S'android.security.IKeyChainService$Stub'
p1085
sg15
(lp1086
sg17
(lp1087
sg19
(lp1088
sg21
I0
sba(iArchitecture
Entity
p1089
(dp1090
g11
(lp1091
sg13
S'android.security.IKeyChainService$Stub$Proxy'
p1092
sg15
(lp1093
sg17
(lp1094
sg19
(lp1095
sg21
I0
sba(iArchitecture
Entity
p1096
(dp1097
g11
(lp1098
sg13
S'android.security.KeyChain$KeyChainConnection'
p1099
sg15
(lp1100
sg17
(lp1101
sg19
(lp1102
sg21
I0
sbasg141
(lp1103
g1057
ag1064
ag1071
ag1078
ag1085
ag1092
ag1099
asg21
I0
sg143
S'com.android.server.devicepolicy.ss'
p1104
sbasS'target_sub'
p1105
S'android.security'
p1106
sg141
(lp1107
sS'is_component_arch'
p1108
I00
sg143
S'6.0.0_r1'
p1109
sba(iArchitecture
Architecture
p1110
(dp1111
g3
(lp1112
(iArchitecture
Cluster
p1113
(dp1114
g7
(lp1115
(iArchitecture
Entity
p1116
(dp1117
g11
(lp1118
sg13
S'android.security.keymaster.ExportResult'
p1119
sg15
(lp1120
sg17
(lp1121
sg19
(lp1122
sg21
I0
sba(iArchitecture
Entity
p1123
(dp1124
g11
(lp1125
sg13
S'android.security.keymaster.ExportResult$1'
p1126
sg15
(lp1127
sg17
(lp1128
sg19
(lp1129
sg21
I0
sba(iArchitecture
Entity
p1130
(dp1131
g11
(lp1132
sg13
S'android.security.keymaster.KeyCharacteristics'
p1133
sg15
(lp1134
sg17
(lp1135
sg19
(lp1136
sg21
I0
sba(iArchitecture
Entity
p1137
(dp1138
g11
(lp1139
sg13
S'android.security.keymaster.KeyCharacteristics$1'
p1140
sg15
(lp1141
sg17
(lp1142
sg19
(lp1143
sg21
I0
sba(iArchitecture
Entity
p1144
(dp1145
g11
(lp1146
sg13
S'android.security.keymaster.KeymasterArgument'
p1147
sg15
(lp1148
sg17
(lp1149
sg19
(lp1150
sg21
I0
sba(iArchitecture
Entity
p1151
(dp1152
g11
(lp1153
sg13
S'android.security.keymaster.KeymasterArgument$1'
p1154
sg15
(lp1155
sg17
(lp1156
sg19
(lp1157
sg21
I0
sba(iArchitecture
Entity
p1158
(dp1159
g11
(lp1160
sg13
S'android.security.keymaster.KeymasterArguments'
p1161
sg15
(lp1162
sg17
(lp1163
sg19
(lp1164
sg21
I0
sba(iArchitecture
Entity
p1165
(dp1166
g11
(lp1167
sg13
S'android.security.keymaster.KeymasterArguments$1'
p1168
sg15
(lp1169
sg17
(lp1170
sg19
(lp1171
sg21
I0
sba(iArchitecture
Entity
p1172
(dp1173
g11
(lp1174
sg13
S'android.security.keymaster.KeymasterBlob'
p1175
sg15
(lp1176
sg17
(lp1177
sg19
(lp1178
sg21
I0
sba(iArchitecture
Entity
p1179
(dp1180
g11
(lp1181
sg13
S'android.security.keymaster.KeymasterBlob$1'
p1182
sg15
(lp1183
sg17
(lp1184
sg19
(lp1185
sg21
I0
sba(iArchitecture
Entity
p1186
(dp1187
g11
(lp1188
sg13
S'android.security.keymaster.KeymasterBlobArgument'
p1189
sg15
(lp1190
sg17
(lp1191
sg19
(lp1192
sg21
I0
sba(iArchitecture
Entity
p1193
(dp1194
g11
(lp1195
sg13
S'android.security.keymaster.KeymasterBooleanArgument'
p1196
sg15
(lp1197
sg17
(lp1198
sg19
(lp1199
sg21
I0
sba(iArchitecture
Entity
p1200
(dp1201
g11
(lp1202
sg13
S'android.security.keymaster.KeymasterCertificateChain'
p1203
sg15
(lp1204
sg17
(lp1205
sg19
(lp1206
sg21
I0
sba(iArchitecture
Entity
p1207
(dp1208
g11
(lp1209
sg13
S'android.security.keymaster.KeymasterCertificateChain$1'
p1210
sg15
(lp1211
sg17
(lp1212
sg19
(lp1213
sg21
I0
sba(iArchitecture
Entity
p1214
(dp1215
g11
(lp1216
sg13
S'android.security.keymaster.KeymasterDateArgument'
p1217
sg15
(lp1218
sg17
(lp1219
sg19
(lp1220
sg21
I0
sba(iArchitecture
Entity
p1221
(dp1222
g11
(lp1223
sg13
S'android.security.keymaster.KeymasterDefs'
p1224
sg15
(lp1225
sg17
(lp1226
sg19
(lp1227
sg21
I0
sba(iArchitecture
Entity
p1228
(dp1229
g11
(lp1230
sg13
S'android.security.keymaster.KeymasterIntArgument'
p1231
sg15
(lp1232
sg17
(lp1233
sg19
(lp1234
sg21
I0
sba(iArchitecture
Entity
p1235
(dp1236
g11
(lp1237
sg13
S'android.security.keymaster.KeymasterLongArgument'
p1238
sg15
(lp1239
sg17
(lp1240
sg19
(lp1241
sg21
I0
sba(iArchitecture
Entity
p1242
(dp1243
g11
(lp1244
sg13
S'android.security.keymaster.OperationResult'
p1245
sg15
(lp1246
sg17
(lp1247
sg19
(lp1248
sg21
I0
sba(iArchitecture
Entity
p1249
(dp1250
g11
(lp1251
sg13
S'android.security.keymaster.OperationResult$1'
p1252
sg15
(lp1253
sg17
(lp1254
sg19
(lp1255
sg21
I0
sbasg141
(lp1256
g1119
ag1126
ag1133
ag1140
ag1147
ag1154
ag1161
ag1168
ag1175
ag1182
ag1189
ag1196
ag1203
ag1210
ag1217
ag1224
ag1231
ag1238
ag1245
ag1252
asg21
I0
sg143
S'android.security.keymaster.ss'
p1257
sba(iArchitecture
Cluster
p1258
(dp1259
g7
(lp1260
(iArchitecture
Entity
p1261
(dp1262
g11
(lp1263
sg13
S'android.security.KeyStoreException'
p1264
sg15
(lp1265
sg17
(lp1266
sg19
(lp1267
sg21
I0
sba(iArchitecture
Entity
p1268
(dp1269
g11
(lp1270
sg13
S'android.security.keystore.AndroidKeyStoreAuthenticatedAESCipherSpi'
p1271
sg15
(lp1272
sg17
(lp1273
sg19
(lp1274
sg21
I0
sba(iArchitecture
Entity
p1275
(dp1276
g11
(lp1277
sg13
S'android.security.keystore.AndroidKeyStoreAuthenticatedAESCipherSpi$AdditionalAuthenticationDataStream'
p1278
sg15
(lp1279
sg17
(lp1280
sg19
(lp1281
sg21
I0
sba(iArchitecture
Entity
p1282
(dp1283
g11
(lp1284
sg13
S'android.security.keystore.AndroidKeyStoreAuthenticatedAESCipherSpi$BufferAllOutputUntilDoFinalStreamer'
p1285
sg15
(lp1286
sg17
(lp1287
sg19
(lp1288
sg21
I0
sba(iArchitecture
Entity
p1289
(dp1290
g11
(lp1291
sg13
S'android.security.keystore.AndroidKeyStoreAuthenticatedAESCipherSpi$GCM'
p1292
sg15
(lp1293
sg17
(lp1294
sg19
(lp1295
sg21
I0
sba(iArchitecture
Entity
p1296
(dp1297
g11
(lp1298
sg13
S'android.security.keystore.AndroidKeyStoreAuthenticatedAESCipherSpi$GCM$NoPadding'
p1299
sg15
(lp1300
sg17
(lp1301
sg19
(lp1302
sg21
I0
sba(iArchitecture
Entity
p1303
(dp1304
g11
(lp1305
sg13
S'android.security.keystore.AndroidKeyStoreBCWorkaroundProvider'
p1306
sg15
(lp1307
sg17
(lp1308
sg19
(lp1309
sg21
I0
sba(iArchitecture
Entity
p1310
(dp1311
g11
(lp1312
sg13
S'android.security.keystore.AndroidKeyStoreCipherSpiBase'
p1313
sg15
(lp1314
sg17
(lp1315
sg19
(lp1316
sg21
I0
sba(iArchitecture
Entity
p1317
(dp1318
g11
(lp1319
sg13
S'android.security.keystore.AndroidKeyStoreECDSASignatureSpi'
p1320
sg15
(lp1321
sg17
(lp1322
sg19
(lp1323
sg21
I0
sba(iArchitecture
Entity
p1324
(dp1325
g11
(lp1326
sg13
S'android.security.keystore.AndroidKeyStoreECDSASignatureSpi$NONE'
p1327
sg15
(lp1328
sg17
(lp1329
sg19
(lp1330
sg21
I0
sba(iArchitecture
Entity
p1331
(dp1332
g11
(lp1333
sg13
S'android.security.keystore.AndroidKeyStoreECDSASignatureSpi$NONE$TruncateToFieldSizeMessageStreamer'
p1334
sg15
(lp1335
sg17
(lp1336
sg19
(lp1337
sg21
I0
sba(iArchitecture
Entity
p1338
(dp1339
g11
(lp1340
sg13
S'android.security.keystore.AndroidKeyStoreECDSASignatureSpi$SHA1'
p1341
sg15
(lp1342
sg17
(lp1343
sg19
(lp1344
sg21
I0
sba(iArchitecture
Entity
p1345
(dp1346
g11
(lp1347
sg13
S'android.security.keystore.AndroidKeyStoreECDSASignatureSpi$SHA224'
p1348
sg15
(lp1349
sg17
(lp1350
sg19
(lp1351
sg21
I0
sba(iArchitecture
Entity
p1352
(dp1353
g11
(lp1354
sg13
S'android.security.keystore.AndroidKeyStoreECDSASignatureSpi$SHA256'
p1355
sg15
(lp1356
sg17
(lp1357
sg19
(lp1358
sg21
I0
sba(iArchitecture
Entity
p1359
(dp1360
g11
(lp1361
sg13
S'android.security.keystore.AndroidKeyStoreECDSASignatureSpi$SHA384'
p1362
sg15
(lp1363
sg17
(lp1364
sg19
(lp1365
sg21
I0
sba(iArchitecture
Entity
p1366
(dp1367
g11
(lp1368
sg13
S'android.security.keystore.AndroidKeyStoreECDSASignatureSpi$SHA512'
p1369
sg15
(lp1370
sg17
(lp1371
sg19
(lp1372
sg21
I0
sba(iArchitecture
Entity
p1373
(dp1374
g11
(lp1375
sg13
S'android.security.keystore.AndroidKeyStoreECPrivateKey'
p1376
sg15
(lp1377
sg17
(lp1378
sg19
(lp1379
sg21
I0
sba(iArchitecture
Entity
p1380
(dp1381
g11
(lp1382
sg13
S'android.security.keystore.AndroidKeyStoreECPublicKey'
p1383
sg15
(lp1384
sg17
(lp1385
sg19
(lp1386
sg21
I0
sba(iArchitecture
Entity
p1387
(dp1388
g11
(lp1389
sg13
S'android.security.keystore.AndroidKeyStoreHmacSpi'
p1390
sg15
(lp1391
sg17
(lp1392
sg19
(lp1393
sg21
I0
sba(iArchitecture
Entity
p1394
(dp1395
g11
(lp1396
sg13
S'android.security.keystore.AndroidKeyStoreHmacSpi$HmacSHA1'
p1397
sg15
(lp1398
sg17
(lp1399
sg19
(lp1400
sg21
I0
sba(iArchitecture
Entity
p1401
(dp1402
g11
(lp1403
sg13
S'android.security.keystore.AndroidKeyStoreHmacSpi$HmacSHA224'
p1404
sg15
(lp1405
sg17
(lp1406
sg19
(lp1407
sg21
I0
sba(iArchitecture
Entity
p1408
(dp1409
g11
(lp1410
sg13
S'android.security.keystore.AndroidKeyStoreHmacSpi$HmacSHA256'
p1411
sg15
(lp1412
sg17
(lp1413
sg19
(lp1414
sg21
I0
sba(iArchitecture
Entity
p1415
(dp1416
g11
(lp1417
sg13
S'android.security.keystore.AndroidKeyStoreHmacSpi$HmacSHA384'
p1418
sg15
(lp1419
sg17
(lp1420
sg19
(lp1421
sg21
I0
sba(iArchitecture
Entity
p1422
(dp1423
g11
(lp1424
sg13
S'android.security.keystore.AndroidKeyStoreHmacSpi$HmacSHA512'
p1425
sg15
(lp1426
sg17
(lp1427
sg19
(lp1428
sg21
I0
sba(iArchitecture
Entity
p1429
(dp1430
g11
(lp1431
sg13
S'android.security.keystore.AndroidKeyStoreKey'
p1432
sg15
(lp1433
sg17
(lp1434
sg19
(lp1435
sg21
I0
sba(iArchitecture
Entity
p1436
(dp1437
g11
(lp1438
sg13
S'android.security.keystore.AndroidKeyStoreKeyFactorySpi'
p1439
sg15
(lp1440
sg17
(lp1441
sg19
(lp1442
sg21
I0
sba(iArchitecture
Entity
p1443
(dp1444
g11
(lp1445
sg13
S'android.security.keystore.AndroidKeyStoreKeyGeneratorSpi'
p1446
sg15
(lp1447
sg17
(lp1448
sg19
(lp1449
sg21
I0
sba(iArchitecture
Entity
p1450
(dp1451
g11
(lp1452
sg13
S'android.security.keystore.AndroidKeyStoreKeyGeneratorSpi$AES'
p1453
sg15
(lp1454
sg17
(lp1455
sg19
(lp1456
sg21
I0
sba(iArchitecture
Entity
p1457
(dp1458
g11
(lp1459
sg13
S'android.security.keystore.AndroidKeyStoreKeyGeneratorSpi$HmacBase'
p1460
sg15
(lp1461
sg17
(lp1462
sg19
(lp1463
sg21
I0
sba(iArchitecture
Entity
p1464
(dp1465
g11
(lp1466
sg13
S'android.security.keystore.AndroidKeyStoreKeyGeneratorSpi$HmacSHA1'
p1467
sg15
(lp1468
sg17
(lp1469
sg19
(lp1470
sg21
I0
sba(iArchitecture
Entity
p1471
(dp1472
g11
(lp1473
sg13
S'android.security.keystore.AndroidKeyStoreKeyGeneratorSpi$HmacSHA224'
p1474
sg15
(lp1475
sg17
(lp1476
sg19
(lp1477
sg21
I0
sba(iArchitecture
Entity
p1478
(dp1479
g11
(lp1480
sg13
S'android.security.keystore.AndroidKeyStoreKeyGeneratorSpi$HmacSHA256'
p1481
sg15
(lp1482
sg17
(lp1483
sg19
(lp1484
sg21
I0
sba(iArchitecture
Entity
p1485
(dp1486
g11
(lp1487
sg13
S'android.security.keystore.AndroidKeyStoreKeyGeneratorSpi$HmacSHA384'
p1488
sg15
(lp1489
sg17
(lp1490
sg19
(lp1491
sg21
I0
sba(iArchitecture
Entity
p1492
(dp1493
g11
(lp1494
sg13
S'android.security.keystore.AndroidKeyStoreKeyGeneratorSpi$HmacSHA512'
p1495
sg15
(lp1496
sg17
(lp1497
sg19
(lp1498
sg21
I0
sba(iArchitecture
Entity
p1499
(dp1500
g11
(lp1501
sg13
S'android.security.keystore.AndroidKeyStoreKeyPairGeneratorSpi'
p1502
sg15
(lp1503
sg17
(lp1504
sg19
(lp1505
sg21
I0
sba(iArchitecture
Entity
p1506
(dp1507
g11
(lp1508
sg13
S'android.security.keystore.AndroidKeyStoreKeyPairGeneratorSpi$EC'
p1509
sg15
(lp1510
sg17
(lp1511
sg19
(lp1512
sg21
I0
sba(iArchitecture
Entity
p1513
(dp1514
g11
(lp1515
sg13
S'android.security.keystore.AndroidKeyStoreKeyPairGeneratorSpi$RSA'
p1516
sg15
(lp1517
sg17
(lp1518
sg19
(lp1519
sg21
I0
sba(iArchitecture
Entity
p1520
(dp1521
g11
(lp1522
sg13
S'android.security.keystore.AndroidKeyStoreLoadStoreParameter'
p1523
sg15
(lp1524
sg17
(lp1525
sg19
(lp1526
sg21
I0
sba(iArchitecture
Entity
p1527
(dp1528
g11
(lp1529
sg13
S'android.security.keystore.AndroidKeyStorePrivateKey'
p1530
sg15
(lp1531
sg17
(lp1532
sg19
(lp1533
sg21
I0
sba(iArchitecture
Entity
p1534
(dp1535
g11
(lp1536
sg13
S'android.security.keystore.AndroidKeyStoreProvider'
p1537
sg15
(lp1538
sg17
(lp1539
sg19
(lp1540
sg21
I0
sba(iArchitecture
Entity
p1541
(dp1542
g11
(lp1543
sg13
S'android.security.keystore.AndroidKeyStorePublicKey'
p1544
sg15
(lp1545
sg17
(lp1546
sg19
(lp1547
sg21
I0
sba(iArchitecture
Entity
p1548
(dp1549
g11
(lp1550
sg13
S'android.security.keystore.AndroidKeyStoreRSACipherSpi'
p1551
sg15
(lp1552
sg17
(lp1553
sg19
(lp1554
sg21
I0
sba(iArchitecture
Entity
p1555
(dp1556
g11
(lp1557
sg13
S'android.security.keystore.AndroidKeyStoreRSACipherSpi$NoPadding'
p1558
sg15
(lp1559
sg17
(lp1560
sg19
(lp1561
sg21
I0
sba(iArchitecture
Entity
p1562
(dp1563
g11
(lp1564
sg13
S'android.security.keystore.AndroidKeyStoreRSACipherSpi$OAEPWithMGF1Padding'
p1565
sg15
(lp1566
sg17
(lp1567
sg19
(lp1568
sg21
I0
sba(iArchitecture
Entity
p1569
(dp1570
g11
(lp1571
sg13
S'android.security.keystore.AndroidKeyStoreRSACipherSpi$OAEPWithSHA1AndMGF1Padding'
p1572
sg15
(lp1573
sg17
(lp1574
sg19
(lp1575
sg21
I0
sba(iArchitecture
Entity
p1576
(dp1577
g11
(lp1578
sg13
S'android.security.keystore.AndroidKeyStoreRSACipherSpi$OAEPWithSHA224AndMGF1Padding'
p1579
sg15
(lp1580
sg17
(lp1581
sg19
(lp1582
sg21
I0
sba(iArchitecture
Entity
p1583
(dp1584
g11
(lp1585
sg13
S'android.security.keystore.AndroidKeyStoreRSACipherSpi$OAEPWithSHA256AndMGF1Padding'
p1586
sg15
(lp1587
sg17
(lp1588
sg19
(lp1589
sg21
I0
sba(iArchitecture
Entity
p1590
(dp1591
g11
(lp1592
sg13
S'android.security.keystore.AndroidKeyStoreRSACipherSpi$OAEPWithSHA384AndMGF1Padding'
p1593
sg15
(lp1594
sg17
(lp1595
sg19
(lp1596
sg21
I0
sba(iArchitecture
Entity
p1597
(dp1598
g11
(lp1599
sg13
S'android.security.keystore.AndroidKeyStoreRSACipherSpi$OAEPWithSHA512AndMGF1Padding'
p1600
sg15
(lp1601
sg17
(lp1602
sg19
(lp1603
sg21
I0
sba(iArchitecture
Entity
p1604
(dp1605
g11
(lp1606
sg13
S'android.security.keystore.AndroidKeyStoreRSACipherSpi$PKCS1Padding'
p1607
sg15
(lp1608
sg17
(lp1609
sg19
(lp1610
sg21
I0
sba(iArchitecture
Entity
p1611
(dp1612
g11
(lp1613
sg13
S'android.security.keystore.AndroidKeyStoreRSAPrivateKey'
p1614
sg15
(lp1615
sg17
(lp1616
sg19
(lp1617
sg21
I0
sba(iArchitecture
Entity
p1618
(dp1619
g11
(lp1620
sg13
S'android.security.keystore.AndroidKeyStoreRSAPublicKey'
p1621
sg15
(lp1622
sg17
(lp1623
sg19
(lp1624
sg21
I0
sba(iArchitecture
Entity
p1625
(dp1626
g11
(lp1627
sg13
S'android.security.keystore.AndroidKeyStoreRSASignatureSpi'
p1628
sg15
(lp1629
sg17
(lp1630
sg19
(lp1631
sg21
I0
sba(iArchitecture
Entity
p1632
(dp1633
g11
(lp1634
sg13
S'android.security.keystore.AndroidKeyStoreRSASignatureSpi$MD5WithPKCS1Padding'
p1635
sg15
(lp1636
sg17
(lp1637
sg19
(lp1638
sg21
I0
sba(iArchitecture
Entity
p1639
(dp1640
g11
(lp1641
sg13
S'android.security.keystore.AndroidKeyStoreRSASignatureSpi$NONEWithPKCS1Padding'
p1642
sg15
(lp1643
sg17
(lp1644
sg19
(lp1645
sg21
I0
sba(iArchitecture
Entity
p1646
(dp1647
g11
(lp1648
sg13
S'android.security.keystore.AndroidKeyStoreRSASignatureSpi$PKCS1Padding'
p1649
sg15
(lp1650
sg17
(lp1651
sg19
(lp1652
sg21
I0
sba(iArchitecture
Entity
p1653
(dp1654
g11
(lp1655
sg13
S'android.security.keystore.AndroidKeyStoreRSASignatureSpi$PSSPadding'
p1656
sg15
(lp1657
sg17
(lp1658
sg19
(lp1659
sg21
I0
sba(iArchitecture
Entity
p1660
(dp1661
g11
(lp1662
sg13
S'android.security.keystore.AndroidKeyStoreRSASignatureSpi$SHA1WithPKCS1Padding'
p1663
sg15
(lp1664
sg17
(lp1665
sg19
(lp1666
sg21
I0
sba(iArchitecture
Entity
p1667
(dp1668
g11
(lp1669
sg13
S'android.security.keystore.AndroidKeyStoreRSASignatureSpi$SHA1WithPSSPadding'
p1670
sg15
(lp1671
sg17
(lp1672
sg19
(lp1673
sg21
I0
sba(iArchitecture
Entity
p1674
(dp1675
g11
(lp1676
sg13
S'android.security.keystore.AndroidKeyStoreRSASignatureSpi$SHA224WithPKCS1Padding'
p1677
sg15
(lp1678
sg17
(lp1679
sg19
(lp1680
sg21
I0
sba(iArchitecture
Entity
p1681
(dp1682
g11
(lp1683
sg13
S'android.security.keystore.AndroidKeyStoreRSASignatureSpi$SHA224WithPSSPadding'
p1684
sg15
(lp1685
sg17
(lp1686
sg19
(lp1687
sg21
I0
sba(iArchitecture
Entity
p1688
(dp1689
g11
(lp1690
sg13
S'android.security.keystore.AndroidKeyStoreRSASignatureSpi$SHA256WithPKCS1Padding'
p1691
sg15
(lp1692
sg17
(lp1693
sg19
(lp1694
sg21
I0
sba(iArchitecture
Entity
p1695
(dp1696
g11
(lp1697
sg13
S'android.security.keystore.AndroidKeyStoreRSASignatureSpi$SHA256WithPSSPadding'
p1698
sg15
(lp1699
sg17
(lp1700
sg19
(lp1701
sg21
I0
sba(iArchitecture
Entity
p1702
(dp1703
g11
(lp1704
sg13
S'android.security.keystore.AndroidKeyStoreRSASignatureSpi$SHA384WithPKCS1Padding'
p1705
sg15
(lp1706
sg17
(lp1707
sg19
(lp1708
sg21
I0
sba(iArchitecture
Entity
p1709
(dp1710
g11
(lp1711
sg13
S'android.security.keystore.AndroidKeyStoreRSASignatureSpi$SHA384WithPSSPadding'
p1712
sg15
(lp1713
sg17
(lp1714
sg19
(lp1715
sg21
I0
sba(iArchitecture
Entity
p1716
(dp1717
g11
(lp1718
sg13
S'android.security.keystore.AndroidKeyStoreRSASignatureSpi$SHA512WithPKCS1Padding'
p1719
sg15
(lp1720
sg17
(lp1721
sg19
(lp1722
sg21
I0
sba(iArchitecture
Entity
p1723
(dp1724
g11
(lp1725
sg13
S'android.security.keystore.AndroidKeyStoreRSASignatureSpi$SHA512WithPSSPadding'
p1726
sg15
(lp1727
sg17
(lp1728
sg19
(lp1729
sg21
I0
sba(iArchitecture
Entity
p1730
(dp1731
g11
(lp1732
sg13
S'android.security.keystore.AndroidKeyStoreSecretKey'
p1733
sg15
(lp1734
sg17
(lp1735
sg19
(lp1736
sg21
I0
sba(iArchitecture
Entity
p1737
(dp1738
g11
(lp1739
sg13
S'android.security.keystore.AndroidKeyStoreSecretKeyFactorySpi'
p1740
sg15
(lp1741
sg17
(lp1742
sg19
(lp1743
sg21
I0
sba(iArchitecture
Entity
p1744
(dp1745
g11
(lp1746
sg13
S'android.security.keystore.AndroidKeyStoreSignatureSpiBase'
p1747
sg15
(lp1748
sg17
(lp1749
sg19
(lp1750
sg21
I0
sba(iArchitecture
Entity
p1751
(dp1752
g11
(lp1753
sg13
S'android.security.keystore.AndroidKeyStoreSpi'
p1754
sg15
(lp1755
sg17
(lp1756
sg19
(lp1757
sg21
I0
sba(iArchitecture
Entity
p1758
(dp1759
g11
(lp1760
sg13
S'android.security.keystore.AndroidKeyStoreSpi$KeyStoreX509Certificate'
p1761
sg15
(lp1762
sg17
(lp1763
sg19
(lp1764
sg21
I0
sba(iArchitecture
Entity
p1765
(dp1766
g11
(lp1767
sg13
S'android.security.keystore.AndroidKeyStoreUnauthenticatedAESCipherSpi'
p1768
sg15
(lp1769
sg17
(lp1770
sg19
(lp1771
sg21
I0
sba(iArchitecture
Entity
p1772
(dp1773
g11
(lp1774
sg13
S'android.security.keystore.AndroidKeyStoreUnauthenticatedAESCipherSpi$CBC'
p1775
sg15
(lp1776
sg17
(lp1777
sg19
(lp1778
sg21
I0
sba(iArchitecture
Entity
p1779
(dp1780
g11
(lp1781
sg13
S'android.security.keystore.AndroidKeyStoreUnauthenticatedAESCipherSpi$CBC$NoPadding'
p1782
sg15
(lp1783
sg17
(lp1784
sg19
(lp1785
sg21
I0
sba(iArchitecture
Entity
p1786
(dp1787
g11
(lp1788
sg13
S'android.security.keystore.AndroidKeyStoreUnauthenticatedAESCipherSpi$CBC$PKCS7Padding'
p1789
sg15
(lp1790
sg17
(lp1791
sg19
(lp1792
sg21
I0
sba(iArchitecture
Entity
p1793
(dp1794
g11
(lp1795
sg13
S'android.security.keystore.AndroidKeyStoreUnauthenticatedAESCipherSpi$CTR'
p1796
sg15
(lp1797
sg17
(lp1798
sg19
(lp1799
sg21
I0
sba(iArchitecture
Entity
p1800
(dp1801
g11
(lp1802
sg13
S'android.security.keystore.AndroidKeyStoreUnauthenticatedAESCipherSpi$CTR$NoPadding'
p1803
sg15
(lp1804
sg17
(lp1805
sg19
(lp1806
sg21
I0
sba(iArchitecture
Entity
p1807
(dp1808
g11
(lp1809
sg13
S'android.security.keystore.AndroidKeyStoreUnauthenticatedAESCipherSpi$ECB'
p1810
sg15
(lp1811
sg17
(lp1812
sg19
(lp1813
sg21
I0
sba(iArchitecture
Entity
p1814
(dp1815
g11
(lp1816
sg13
S'android.security.keystore.AndroidKeyStoreUnauthenticatedAESCipherSpi$ECB$NoPadding'
p1817
sg15
(lp1818
sg17
(lp1819
sg19
(lp1820
sg21
I0
sba(iArchitecture
Entity
p1821
(dp1822
g11
(lp1823
sg13
S'android.security.keystore.AndroidKeyStoreUnauthenticatedAESCipherSpi$ECB$PKCS7Padding'
p1824
sg15
(lp1825
sg17
(lp1826
sg19
(lp1827
sg21
I0
sba(iArchitecture
Entity
p1828
(dp1829
g11
(lp1830
sg13
S'android.security.keystore.ArrayUtils'
p1831
sg15
(lp1832
sg17
(lp1833
sg19
(lp1834
sg21
I0
sba(iArchitecture
Entity
p1835
(dp1836
g11
(lp1837
sg13
S'android.security.keystore.DelegatingX509Certificate'
p1838
sg15
(lp1839
sg17
(lp1840
sg19
(lp1841
sg21
I0
sba(iArchitecture
Entity
p1842
(dp1843
g11
(lp1844
sg13
S'android.security.keystore.KeyGenParameterSpec'
p1845
sg15
(lp1846
sg17
(lp1847
sg19
(lp1848
sg21
I0
sba(iArchitecture
Entity
p1849
(dp1850
g11
(lp1851
sg13
S'android.security.keystore.KeyGenParameterSpec$Builder'
p1852
sg15
(lp1853
sg17
(lp1854
sg19
(lp1855
sg21
I0
sba(iArchitecture
Entity
p1856
(dp1857
g11
(lp1858
sg13
S'android.security.keystore.KeyInfo'
p1859
sg15
(lp1860
sg17
(lp1861
sg19
(lp1862
sg21
I0
sba(iArchitecture
Entity
p1863
(dp1864
g11
(lp1865
sg13
S'android.security.keystore.KeyProperties'
p1866
sg15
(lp1867
sg17
(lp1868
sg19
(lp1869
sg21
I0
sba(iArchitecture
Entity
p1870
(dp1871
g11
(lp1872
sg13
S'android.security.keystore.KeyProperties$BlockMode'
p1873
sg15
(lp1874
sg17
(lp1875
sg19
(lp1876
sg21
I0
sba(iArchitecture
Entity
p1877
(dp1878
g11
(lp1879
sg13
S'android.security.keystore.KeyProperties$Digest'
p1880
sg15
(lp1881
sg17
(lp1882
sg19
(lp1883
sg21
I0
sba(iArchitecture
Entity
p1884
(dp1885
g11
(lp1886
sg13
S'android.security.keystore.KeyProperties$EncryptionPadding'
p1887
sg15
(lp1888
sg17
(lp1889
sg19
(lp1890
sg21
I0
sba(iArchitecture
Entity
p1891
(dp1892
g11
(lp1893
sg13
S'android.security.keystore.KeyProperties$KeyAlgorithm'
p1894
sg15
(lp1895
sg17
(lp1896
sg19
(lp1897
sg21
I0
sba(iArchitecture
Entity
p1898
(dp1899
g11
(lp1900
sg13
S'android.security.keystore.KeyProperties$Origin'
p1901
sg15
(lp1902
sg17
(lp1903
sg19
(lp1904
sg21
I0
sba(iArchitecture
Entity
p1905
(dp1906
g11
(lp1907
sg13
S'android.security.keystore.KeyProperties$Purpose'
p1908
sg15
(lp1909
sg17
(lp1910
sg19
(lp1911
sg21
I0
sba(iArchitecture
Entity
p1912
(dp1913
g11
(lp1914
sg13
S'android.security.keystore.KeyProperties$SignaturePadding'
p1915
sg15
(lp1916
sg17
(lp1917
sg19
(lp1918
sg21
I0
sba(iArchitecture
Entity
p1919
(dp1920
g11
(lp1921
sg13
S'android.security.keystore.KeyStoreConnectException'
p1922
sg15
(lp1923
sg17
(lp1924
sg19
(lp1925
sg21
I0
sba(iArchitecture
Entity
p1926
(dp1927
g11
(lp1928
sg13
S'android.security.keystore.KeyStoreCryptoOperation'
p1929
sg15
(lp1930
sg17
(lp1931
sg19
(lp1932
sg21
I0
sba(iArchitecture
Entity
p1933
(dp1934
g11
(lp1935
sg13
S'android.security.keystore.KeyStoreCryptoOperationChunkedStreamer'
p1936
sg15
(lp1937
sg17
(lp1938
sg19
(lp1939
sg21
I0
sba(iArchitecture
Entity
p1940
(dp1941
g11
(lp1942
sg13
S'android.security.keystore.KeyStoreCryptoOperationChunkedStreamer$MainDataStream'
p1943
sg15
(lp1944
sg17
(lp1945
sg19
(lp1946
sg21
I0
sba(iArchitecture
Entity
p1947
(dp1948
g11
(lp1949
sg13
S'android.security.keystore.KeyStoreCryptoOperationChunkedStreamer$Stream'
p1950
sg15
(lp1951
sg17
(lp1952
sg19
(lp1953
sg21
I0
sba(iArchitecture
Entity
p1954
(dp1955
g11
(lp1956
sg13
S'android.security.keystore.KeyStoreCryptoOperationStreamer'
p1957
sg15
(lp1958
sg17
(lp1959
sg19
(lp1960
sg21
I0
sba(iArchitecture
Entity
p1961
(dp1962
g11
(lp1963
sg13
S'android.security.keystore.KeyStoreCryptoOperationUtils'
p1964
sg15
(lp1965
sg17
(lp1966
sg19
(lp1967
sg21
I0
sba(iArchitecture
Entity
p1968
(dp1969
g11
(lp1970
sg13
S'android.security.keystore.KeymasterUtils'
p1971
sg15
(lp1972
sg17
(lp1973
sg19
(lp1974
sg21
I0
sba(iArchitecture
Entity
p1975
(dp1976
g11
(lp1977
sg13
S'android.security.keystore.Utils'
p1978
sg15
(lp1979
sg17
(lp1980
sg19
(lp1981
sg21
I0
sbasg141
(lp1982
g1264
ag1271
ag1278
ag1285
ag1292
ag1299
ag1306
ag1313
ag1320
ag1327
ag1334
ag1341
ag1348
ag1355
ag1362
ag1369
ag1376
ag1383
ag1390
ag1397
ag1404
ag1411
ag1418
ag1425
ag1432
ag1439
ag1446
ag1453
ag1460
ag1467
ag1474
ag1481
ag1488
ag1495
ag1502
ag1509
ag1516
ag1523
ag1530
ag1537
ag1544
ag1551
ag1558
ag1565
ag1572
ag1579
ag1586
ag1593
ag1600
ag1607
ag1614
ag1621
ag1628
ag1635
ag1642
ag1649
ag1656
ag1663
ag1670
ag1677
ag1684
ag1691
ag1698
ag1705
ag1712
ag1719
ag1726
ag1733
ag1740
ag1747
ag1754
ag1761
ag1768
ag1775
ag1782
ag1789
ag1796
ag1803
ag1810
ag1817
ag1824
ag1831
ag1838
ag1845
ag1852
ag1859
ag1866
ag1873
ag1880
ag1887
ag1894
ag1901
ag1908
ag1915
ag1922
ag1929
ag1936
ag1943
ag1950
ag1957
ag1964
ag1971
ag1978
asg21
I0
sg143
S'android.security.keystore.ss'
p1983
sba(iArchitecture
Cluster
p1984
(dp1985
g7
(lp1986
(iArchitecture
Entity
p1987
(dp1988
g11
(lp1989
sg13
S'android.security.net.config.ApplicationConfig'
p1990
sg15
(lp1991
sg17
(lp1992
sg19
(lp1993
sg21
I0
sba(iArchitecture
Entity
p1994
(dp1995
g11
(lp1996
sg13
S'android.security.net.config.CertificateSource'
p1997
sg15
(lp1998
sg17
(lp1999
sg19
(lp2000
sg21
I0
sba(iArchitecture
Entity
p2001
(dp2002
g11
(lp2003
sg13
S'android.security.net.config.CertificatesEntryRef'
p2004
sg15
(lp2005
sg17
(lp2006
sg19
(lp2007
sg21
I0
sba(iArchitecture
Entity
p2008
(dp2009
g11
(lp2010
sg13
S'android.security.net.config.ConfigNetworkSecurityPolicy'
p2011
sg15
(lp2012
sg17
(lp2013
sg19
(lp2014
sg21
I0
sba(iArchitecture
Entity
p2015
(dp2016
g11
(lp2017
sg13
S'android.security.net.config.ConfigSource'
p2018
sg15
(lp2019
sg17
(lp2020
sg19
(lp2021
sg21
I0
sba(iArchitecture
Entity
p2022
(dp2023
g11
(lp2024
sg13
S'android.security.net.config.DirectoryCertificateSource'
p2025
sg15
(lp2026
sg17
(lp2027
sg19
(lp2028
sg21
I0
sba(iArchitecture
Entity
p2029
(dp2030
g11
(lp2031
sg13
S'android.security.net.config.DirectoryCertificateSource$1'
p2032
sg15
(lp2033
sg17
(lp2034
sg19
(lp2035
sg21
I0
sba(iArchitecture
Entity
p2036
(dp2037
g11
(lp2038
sg13
S'android.security.net.config.DirectoryCertificateSource$2'
p2039
sg15
(lp2040
sg17
(lp2041
sg19
(lp2042
sg21
I0
sba(iArchitecture
Entity
p2043
(dp2044
g11
(lp2045
sg13
S'android.security.net.config.DirectoryCertificateSource$3'
p2046
sg15
(lp2047
sg17
(lp2048
sg19
(lp2049
sg21
I0
sba(iArchitecture
Entity
p2050
(dp2051
g11
(lp2052
sg13
S'android.security.net.config.DirectoryCertificateSource$CertSelector'
p2053
sg15
(lp2054
sg17
(lp2055
sg19
(lp2056
sg21
I0
sba(iArchitecture
Entity
p2057
(dp2058
g11
(lp2059
sg13
S'android.security.net.config.Domain'
p2060
sg15
(lp2061
sg17
(lp2062
sg19
(lp2063
sg21
I0
sba(iArchitecture
Entity
p2064
(dp2065
g11
(lp2066
sg13
S'android.security.net.config.KeyStoreCertificateSource'
p2067
sg15
(lp2068
sg17
(lp2069
sg19
(lp2070
sg21
I0
sba(iArchitecture
Entity
p2071
(dp2072
g11
(lp2073
sg13
S'android.security.net.config.KeyStoreConfigSource'
p2074
sg15
(lp2075
sg17
(lp2076
sg19
(lp2077
sg21
I0
sba(iArchitecture
Entity
p2078
(dp2079
g11
(lp2080
sg13
S'android.security.net.config.ManifestConfigSource'
p2081
sg15
(lp2082
sg17
(lp2083
sg19
(lp2084
sg21
I0
sba(iArchitecture
Entity
p2085
(dp2086
g11
(lp2087
sg13
S'android.security.net.config.ManifestConfigSource$DefaultConfigSource'
p2088
sg15
(lp2089
sg17
(lp2090
sg19
(lp2091
sg21
I0
sba(iArchitecture
Entity
p2092
(dp2093
g11
(lp2094
sg13
S'android.security.net.config.NetworkSecurityConfig'
p2095
sg15
(lp2096
sg17
(lp2097
sg19
(lp2098
sg21
I0
sba(iArchitecture
Entity
p2099
(dp2100
g11
(lp2101
sg13
S'android.security.net.config.NetworkSecurityConfig$1'
p2102
sg15
(lp2103
sg17
(lp2104
sg19
(lp2105
sg21
I0
sba(iArchitecture
Entity
p2106
(dp2107
g11
(lp2108
sg13
S'android.security.net.config.NetworkSecurityConfig$Builder'
p2109
sg15
(lp2110
sg17
(lp2111
sg19
(lp2112
sg21
I0
sba(iArchitecture
Entity
p2113
(dp2114
g11
(lp2115
sg13
S'android.security.net.config.NetworkSecurityConfigProvider'
p2116
sg15
(lp2117
sg17
(lp2118
sg19
(lp2119
sg21
I0
sba(iArchitecture
Entity
p2120
(dp2121
g11
(lp2122
sg13
S'android.security.net.config.NetworkSecurityTrustManager'
p2123
sg15
(lp2124
sg17
(lp2125
sg19
(lp2126
sg21
I0
sba(iArchitecture
Entity
p2127
(dp2128
g11
(lp2129
sg13
S'android.security.net.config.Pin'
p2130
sg15
(lp2131
sg17
(lp2132
sg19
(lp2133
sg21
I0
sba(iArchitecture
Entity
p2134
(dp2135
g11
(lp2136
sg13
S'android.security.net.config.PinSet'
p2137
sg15
(lp2138
sg17
(lp2139
sg19
(lp2140
sg21
I0
sba(iArchitecture
Entity
p2141
(dp2142
g11
(lp2143
sg13
S'android.security.net.config.ResourceCertificateSource'
p2144
sg15
(lp2145
sg17
(lp2146
sg19
(lp2147
sg21
I0
sba(iArchitecture
Entity
p2148
(dp2149
g11
(lp2150
sg13
S'android.security.net.config.RootTrustManager'
p2151
sg15
(lp2152
sg17
(lp2153
sg19
(lp2154
sg21
I0
sba(iArchitecture
Entity
p2155
(dp2156
g11
(lp2157
sg13
S'android.security.net.config.RootTrustManagerFactorySpi'
p2158
sg15
(lp2159
sg17
(lp2160
sg19
(lp2161
sg21
I0
sba(iArchitecture
Entity
p2162
(dp2163
g11
(lp2164
sg13
S'android.security.net.config.RootTrustManagerFactorySpi$ApplicationConfigParameters'
p2165
sg15
(lp2166
sg17
(lp2167
sg19
(lp2168
sg21
I0
sba(iArchitecture
Entity
p2169
(dp2170
g11
(lp2171
sg13
S'android.security.net.config.SystemCertificateSource'
p2172
sg15
(lp2173
sg17
(lp2174
sg19
(lp2175
sg21
I0
sba(iArchitecture
Entity
p2176
(dp2177
g11
(lp2178
sg13
S'android.security.net.config.SystemCertificateSource$NoPreloadHolder'
p2179
sg15
(lp2180
sg17
(lp2181
sg19
(lp2182
sg21
I0
sba(iArchitecture
Entity
p2183
(dp2184
g11
(lp2185
sg13
S'android.security.net.config.TrustAnchor'
p2186
sg15
(lp2187
sg17
(lp2188
sg19
(lp2189
sg21
I0
sba(iArchitecture
Entity
p2190
(dp2191
g11
(lp2192
sg13
S'android.security.net.config.TrustedCertificateStoreAdapter'
p2193
sg15
(lp2194
sg17
(lp2195
sg19
(lp2196
sg21
I0
sba(iArchitecture
Entity
p2197
(dp2198
g11
(lp2199
sg13
S'android.security.net.config.UserCertificateSource'
p2200
sg15
(lp2201
sg17
(lp2202
sg19
(lp2203
sg21
I0
sba(iArchitecture
Entity
p2204
(dp2205
g11
(lp2206
sg13
S'android.security.net.config.UserCertificateSource$NoPreloadHolder'
p2207
sg15
(lp2208
sg17
(lp2209
sg19
(lp2210
sg21
I0
sba(iArchitecture
Entity
p2211
(dp2212
g11
(lp2213
sg13
S'android.security.net.config.XmlConfigSource'
p2214
sg15
(lp2215
sg17
(lp2216
sg19
(lp2217
sg21
I0
sba(iArchitecture
Entity
p2218
(dp2219
g11
(lp2220
sg13
S'android.security.net.config.XmlConfigSource$ParserException'
p2221
sg15
(lp2222
sg17
(lp2223
sg19
(lp2224
sg21
I0
sbasg141
(lp2225
g1990
ag1997
ag2004
ag2011
ag2018
ag2025
ag2032
ag2039
ag2046
ag2053
ag2060
ag2067
ag2074
ag2081
ag2088
ag2095
ag2102
ag2109
ag2116
ag2123
ag2130
ag2137
ag2144
ag2151
ag2158
ag2165
ag2172
ag2179
ag2186
ag2193
ag2200
ag2207
ag2214
ag2221
asg21
I0
sg143
S'android.security.net.config.ss'
p2226
sba(iArchitecture
Cluster
p2227
(dp2228
g7
(lp2229
(iArchitecture
Entity
p2230
(dp2231
g11
(lp2232
sg13
S'android.security.Credentials'
p2233
sg15
(lp2234
sg17
(lp2235
sg19
(lp2236
sg21
I0
sba(iArchitecture
Entity
p2237
(dp2238
g11
(lp2239
sg13
S'android.security.FrameworkNetworkSecurityPolicy'
p2240
sg15
(lp2241
sg17
(lp2242
sg19
(lp2243
sg21
I0
sba(iArchitecture
Entity
p2244
(dp2245
g11
(lp2246
sg13
S'android.security.IKeystoreService'
p2247
sg15
(lp2248
sg17
(lp2249
sg19
(lp2250
sg21
I0
sba(iArchitecture
Entity
p2251
(dp2252
g11
(lp2253
sg13
S'android.security.IKeystoreService$Stub'
p2254
sg15
(lp2255
sg17
(lp2256
sg19
(lp2257
sg21
I0
sba(iArchitecture
Entity
p2258
(dp2259
g11
(lp2260
sg13
S'android.security.IKeystoreService$Stub$Proxy'
p2261
sg15
(lp2262
sg17
(lp2263
sg19
(lp2264
sg21
I0
sba(iArchitecture
Entity
p2265
(dp2266
g11
(lp2267
sg13
S'android.security.KeyChain'
p2268
sg15
(lp2269
sg17
(lp2270
sg19
(lp2271
sg21
I0
sba(iArchitecture
Entity
p2272
(dp2273
g11
(lp2274
sg13
S'android.security.KeyChain$1'
p2275
sg15
(lp2276
sg17
(lp2277
sg19
(lp2278
sg21
I0
sba(iArchitecture
Entity
p2279
(dp2280
g11
(lp2281
sg13
S'android.security.KeyChain$AliasResponse'
p2282
sg15
(lp2283
sg17
(lp2284
sg19
(lp2285
sg21
I0
sba(iArchitecture
Entity
p2286
(dp2287
g11
(lp2288
sg13
S'android.security.KeyChainAliasCallback'
p2289
sg15
(lp2290
sg17
(lp2291
sg19
(lp2292
sg21
I0
sba(iArchitecture
Entity
p2293
(dp2294
g11
(lp2295
sg13
S'android.security.KeyChainException'
p2296
sg15
(lp2297
sg17
(lp2298
sg19
(lp2299
sg21
I0
sba(iArchitecture
Entity
p2300
(dp2301
g11
(lp2302
sg13
S'android.security.KeyPairGeneratorSpec'
p2303
sg15
(lp2304
sg17
(lp2305
sg19
(lp2306
sg21
I0
sba(iArchitecture
Entity
p2307
(dp2308
g11
(lp2309
sg13
S'android.security.KeyPairGeneratorSpec$Builder'
p2310
sg15
(lp2311
sg17
(lp2312
sg19
(lp2313
sg21
I0
sba(iArchitecture
Entity
p2314
(dp2315
g11
(lp2316
sg13
S'android.security.KeyStore'
p2317
sg15
(lp2318
sg17
(lp2319
sg19
(lp2320
sg21
I0
sba(iArchitecture
Entity
p2321
(dp2322
g11
(lp2323
sg13
S'android.security.KeyStore$State'
p2324
sg15
(lp2325
sg17
(lp2326
sg19
(lp2327
sg21
I0
sba(iArchitecture
Entity
p2328
(dp2329
g11
(lp2330
sg13
S'android.security.KeyStoreParameter'
p2331
sg15
(lp2332
sg17
(lp2333
sg19
(lp2334
sg21
I0
sba(iArchitecture
Entity
p2335
(dp2336
g11
(lp2337
sg13
S'android.security.KeyStoreParameter$Builder'
p2338
sg15
(lp2339
sg17
(lp2340
sg19
(lp2341
sg21
I0
sba(iArchitecture
Entity
p2342
(dp2343
g11
(lp2344
sg13
S'android.security.KeystoreArguments'
p2345
sg15
(lp2346
sg17
(lp2347
sg19
(lp2348
sg21
I0
sba(iArchitecture
Entity
p2349
(dp2350
g11
(lp2351
sg13
S'android.security.KeystoreArguments$1'
p2352
sg15
(lp2353
sg17
(lp2354
sg19
(lp2355
sg21
I0
sba(iArchitecture
Entity
p2356
(dp2357
g11
(lp2358
sg13
S'android.security.NetworkSecurityPolicy'
p2359
sg15
(lp2360
sg17
(lp2361
sg19
(lp2362
sg21
I0
sba(iArchitecture
Entity
p2363
(dp2364
g11
(lp2365
sg13
S'android.security.keystore.KeyExpiredException'
p2366
sg15
(lp2367
sg17
(lp2368
sg19
(lp2369
sg21
I0
sba(iArchitecture
Entity
p2370
(dp2371
g11
(lp2372
sg13
S'android.security.keystore.KeyNotYetValidException'
p2373
sg15
(lp2374
sg17
(lp2375
sg19
(lp2376
sg21
I0
sba(iArchitecture
Entity
p2377
(dp2378
g11
(lp2379
sg13
S'android.security.keystore.KeyPermanentlyInvalidatedException'
p2380
sg15
(lp2381
sg17
(lp2382
sg19
(lp2383
sg21
I0
sba(iArchitecture
Entity
p2384
(dp2385
g11
(lp2386
sg13
S'android.security.keystore.UserNotAuthenticatedException'
p2387
sg15
(lp2388
sg17
(lp2389
sg19
(lp2390
sg21
I0
sbasg141
(lp2391
g2233
ag2240
ag2247
ag2254
ag2261
ag2268
ag2275
ag2282
ag2289
ag2296
ag2303
ag2310
ag2317
ag2324
ag2331
ag2338
ag2345
ag2352
ag2359
ag2366
ag2373
ag2380
ag2387
asg21
I0
sg143
S'android.security.ss'
p2392
sba(iArchitecture
Cluster
p2393
(dp2394
g7
(lp2395
(iArchitecture
Entity
p2396
(dp2397
g11
(lp2398
sg13
S'android.security.IKeyChainAliasCallback'
p2399
sg15
(lp2400
sg17
(lp2401
sg19
(lp2402
sg21
I0
sba(iArchitecture
Entity
p2403
(dp2404
g11
(lp2405
sg13
S'android.security.IKeyChainAliasCallback$Stub'
p2406
sg15
(lp2407
sg17
(lp2408
sg19
(lp2409
sg21
I0
sba(iArchitecture
Entity
p2410
(dp2411
g11
(lp2412
sg13
S'android.security.IKeyChainAliasCallback$Stub$Proxy'
p2413
sg15
(lp2414
sg17
(lp2415
sg19
(lp2416
sg21
I0
sba(iArchitecture
Entity
p2417
(dp2418
g11
(lp2419
sg13
S'android.security.IKeyChainService'
p2420
sg15
(lp2421
sg17
(lp2422
sg19
(lp2423
sg21
I0
sba(iArchitecture
Entity
p2424
(dp2425
g11
(lp2426
sg13
S'android.security.IKeyChainService$Stub'
p2427
sg15
(lp2428
sg17
(lp2429
sg19
(lp2430
sg21
I0
sba(iArchitecture
Entity
p2431
(dp2432
g11
(lp2433
sg13
S'android.security.IKeyChainService$Stub$Proxy'
p2434
sg15
(lp2435
sg17
(lp2436
sg19
(lp2437
sg21
I0
sba(iArchitecture
Entity
p2438
(dp2439
g11
(lp2440
sg13
S'android.security.KeyChain$KeyChainConnection'
p2441
sg15
(lp2442
sg17
(lp2443
sg19
(lp2444
sg21
I0
sbasg141
(lp2445
g2399
ag2406
ag2413
ag2420
ag2427
ag2434
ag2441
asg21
I0
sg143
S'com.android.server.devicepolicy.ss'
p2446
sba(iArchitecture
Cluster
p2447
(dp2448
g7
(lp2449
(iArchitecture
Entity
p2450
(dp2451
g11
(lp2452
sg13
S'android.security.GateKeeper'
p2453
sg15
(lp2454
sg17
(lp2455
sg19
(lp2456
sg21
I0
sba(iArchitecture
Entity
p2457
(dp2458
g11
(lp2459
sg13
S'android.security.SystemKeyStore'
p2460
sg15
(lp2461
sg17
(lp2462
sg19
(lp2463
sg21
I0
sbasg141
(lp2464
g2453
ag2460
asg21
I0
sg143
S'com.android.server.pm.ss'
p2465
sba(iArchitecture
Cluster
p2466
(dp2467
g7
(lp2468
(iArchitecture
Entity
p2469
(dp2470
g11
(lp2471
sg13
S'android.security.keystore.KeyProtection'
p2472
sg15
(lp2473
sg17
(lp2474
sg19
(lp2475
sg21
I0
sba(iArchitecture
Entity
p2476
(dp2477
g11
(lp2478
sg13
S'android.security.keystore.KeyProtection$Builder'
p2479
sg15
(lp2480
sg17
(lp2481
sg19
(lp2482
sg21
I0
sbasg141
(lp2483
g2472
ag2479
asg21
I0
sg143
S'com.android.server.ss'
p2484
sbasg1105
g1106
sg141
(lp2485
sg1108
I00
sg143
S'7.0.0_r1'
p2486
sba.