(lp0
(iArchitecture
Architecture
p1
(dp2
S'clusters'
p3
(lp4
(iArchitecture
Cluster
p5
(dp6
S'entities'
p7
(lp8
(iArchitecture
Entity
p9
(dp10
S'issue_ids'
p11
(lp12
sS'name'
p13
S'android.mtp.MtpConstants'
p14
sS'descs'
p15
(lp16
sS'labels'
p17
(lp18
sS'titles'
p19
(lp20
sS'change'
p21
I0
sbasS'classes'
p22
(lp23
g14
asg21
I0
sS'label'
p24
S'android.media.ss'
p25
sba(iArchitecture
Cluster
p26
(dp27
g7
(lp28
(iArchitecture
Entity
p29
(dp30
g11
(lp31
sg13
S'android.mtp.MtpDatabase'
p32
sg15
(lp33
sg17
(lp34
sg19
(lp35
sg21
I0
sba(iArchitecture
Entity
p36
(dp37
g11
(lp38
sg13
S'android.mtp.MtpDatabase$1'
p39
sg15
(lp40
sg17
(lp41
sg19
(lp42
sg21
I0
sba(iArchitecture
Entity
p43
(dp44
g11
(lp45
sg13
S'android.mtp.MtpDevice'
p46
sg15
(lp47
sg17
(lp48
sg19
(lp49
sg21
I0
sba(iArchitecture
Entity
p50
(dp51
g11
(lp52
sg13
S'android.mtp.MtpDeviceInfo'
p53
sg15
(lp54
sg17
(lp55
sg19
(lp56
sg21
I0
sba(iArchitecture
Entity
p57
(dp58
g11
(lp59
sg13
S'android.mtp.MtpObjectInfo'
p60
sg15
(lp61
sg17
(lp62
sg19
(lp63
sg21
I0
sba(iArchitecture
Entity
p64
(dp65
g11
(lp66
sg13
S'android.mtp.MtpPropertyGroup'
p67
sg15
(lp68
sg17
(lp69
sg19
(lp70
sg21
I0
sba(iArchitecture
Entity
p71
(dp72
g11
(lp73
sg13
S'android.mtp.MtpPropertyGroup$Property'
p74
sg15
(lp75
sg17
(lp76
sg19
(lp77
sg21
I0
sba(iArchitecture
Entity
p78
(dp79
g11
(lp80
sg13
S'android.mtp.MtpPropertyList'
p81
sg15
(lp82
sg17
(lp83
sg19
(lp84
sg21
I0
sba(iArchitecture
Entity
p85
(dp86
g11
(lp87
sg13
S'android.mtp.MtpServer'
p88
sg15
(lp89
sg17
(lp90
sg19
(lp91
sg21
I0
sba(iArchitecture
Entity
p92
(dp93
g11
(lp94
sg13
S'android.mtp.MtpStorage'
p95
sg15
(lp96
sg17
(lp97
sg19
(lp98
sg21
I0
sba(iArchitecture
Entity
p99
(dp100
g11
(lp101
sg13
S'android.mtp.MtpStorageInfo'
p102
sg15
(lp103
sg17
(lp104
sg19
(lp105
sg21
I0
sbasg22
(lp106
g32
ag39
ag46
ag53
ag60
ag67
ag74
ag81
ag88
ag95
ag102
asg21
I0
sg24
S'android.mtp.ss'
p107
sbasS'target_sub'
p108
S'android.mtp'
p109
sg22
(lp110
sS'is_component_arch'
p111
I00
sg24
S'6.0.0_r1'
p112
sba(iArchitecture
Architecture
p113
(dp114
g3
(lp115
(iArchitecture
Cluster
p116
(dp117
g7
(lp118
(iArchitecture
Entity
p119
(dp120
g11
(lp121
sg13
S'android.mtp.MtpConstants'
p122
sg15
(lp123
sg17
(lp124
sg19
(lp125
sg21
I0
sbasg22
(lp126
g122
asg21
I0
sg24
S'android.media.ss'
p127
sba(iArchitecture
Cluster
p128
(dp129
g7
(lp130
(iArchitecture
Entity
p131
(dp132
g11
(lp133
sg13
S'android.mtp.MtpDatabase'
p134
sg15
(lp135
sg17
(lp136
sg19
(lp137
sg21
I0
sba(iArchitecture
Entity
p138
(dp139
g11
(lp140
sg13
S'android.mtp.MtpDatabase$1'
p141
sg15
(lp142
sg17
(lp143
sg19
(lp144
sg21
I0
sba(iArchitecture
Entity
p145
(dp146
g11
(lp147
sg13
S'android.mtp.MtpDevice'
p148
sg15
(lp149
sg17
(lp150
sg19
(lp151
sg21
I0
sba(iArchitecture
Entity
p152
(dp153
g11
(lp154
sg13
S'android.mtp.MtpDevice$1'
p155
sg15
(lp156
sg17
(lp157
sg19
(lp158
sg21
I0
sba(iArchitecture
Entity
p159
(dp160
g11
(lp161
sg13
S'android.mtp.MtpDeviceInfo'
p162
sg15
(lp163
sg17
(lp164
sg19
(lp165
sg21
I0
sba(iArchitecture
Entity
p166
(dp167
g11
(lp168
sg13
S'android.mtp.MtpEvent'
p169
sg15
(lp170
sg17
(lp171
sg19
(lp172
sg21
I0
sba(iArchitecture
Entity
p173
(dp174
g11
(lp175
sg13
S'android.mtp.MtpEvent$IllegalParameterAccess'
p176
sg15
(lp177
sg17
(lp178
sg19
(lp179
sg21
I0
sba(iArchitecture
Entity
p180
(dp181
g11
(lp182
sg13
S'android.mtp.MtpObjectInfo'
p183
sg15
(lp184
sg17
(lp185
sg19
(lp186
sg21
I0
sba(iArchitecture
Entity
p187
(dp188
g11
(lp189
sg13
S'android.mtp.MtpObjectInfo$Builder'
p190
sg15
(lp191
sg17
(lp192
sg19
(lp193
sg21
I0
sba(iArchitecture
Entity
p194
(dp195
g11
(lp196
sg13
S'android.mtp.MtpPropertyGroup'
p197
sg15
(lp198
sg17
(lp199
sg19
(lp200
sg21
I0
sba(iArchitecture
Entity
p201
(dp202
g11
(lp203
sg13
S'android.mtp.MtpPropertyGroup$Property'
p204
sg15
(lp205
sg17
(lp206
sg19
(lp207
sg21
I0
sba(iArchitecture
Entity
p208
(dp209
g11
(lp210
sg13
S'android.mtp.MtpPropertyList'
p211
sg15
(lp212
sg17
(lp213
sg19
(lp214
sg21
I0
sba(iArchitecture
Entity
p215
(dp216
g11
(lp217
sg13
S'android.mtp.MtpServer'
p218
sg15
(lp219
sg17
(lp220
sg19
(lp221
sg21
I0
sba(iArchitecture
Entity
p222
(dp223
g11
(lp224
sg13
S'android.mtp.MtpStorage'
p225
sg15
(lp226
sg17
(lp227
sg19
(lp228
sg21
I0
sba(iArchitecture
Entity
p229
(dp230
g11
(lp231
sg13
S'android.mtp.MtpStorageInfo'
p232
sg15
(lp233
sg17
(lp234
sg19
(lp235
sg21
I0
sbasg22
(lp236
g134
ag141
ag148
ag155
ag162
ag169
ag176
ag183
ag190
ag197
ag204
ag211
ag218
ag225
ag232
asg21
I0
sg24
S'android.mtp.ss'
p237
sbasg108
g109
sg22
(lp238
sg111
I00
sg24
S'7.0.0_r1'
p239
sba.