(lp0
(iArchitecture
Architecture
p1
(dp2
S'clusters'
p3
(lp4
(iArchitecture
Cluster
p5
(dp6
S'entities'
p7
(lp8
(iArchitecture
Entity
p9
(dp10
S'issue_ids'
p11
(lp12
sS'name'
p13
S'android.gesture.Gesture'
p14
sS'descs'
p15
(lp16
sS'labels'
p17
(lp18
sS'titles'
p19
(lp20
sS'change'
p21
I0
sba(iArchitecture
Entity
p22
(dp23
g11
(lp24
sg13
S'android.gesture.Gesture$1'
p25
sg15
(lp26
sg17
(lp27
sg19
(lp28
sg21
I0
sba(iArchitecture
Entity
p29
(dp30
g11
(lp31
sg13
S'android.gesture.GestureLibraries'
p32
sg15
(lp33
sg17
(lp34
sg19
(lp35
sg21
I0
sba(iArchitecture
Entity
p36
(dp37
g11
(lp38
sg13
S'android.gesture.GestureLibraries$FileGestureLibrary'
p39
sg15
(lp40
sg17
(lp41
sg19
(lp42
sg21
I0
sba(iArchitecture
Entity
p43
(dp44
g11
(lp45
sg13
S'android.gesture.GestureLibraries$ResourceGestureLibrary'
p46
sg15
(lp47
sg17
(lp48
sg19
(lp49
sg21
I0
sba(iArchitecture
Entity
p50
(dp51
g11
(lp52
sg13
S'android.gesture.GestureLibrary'
p53
sg15
(lp54
sg17
(lp55
sg19
(lp56
sg21
I0
sba(iArchitecture
Entity
p57
(dp58
g11
(lp59
sg13
S'android.gesture.GestureOverlayView'
p60
sg15
(lp61
sg17
(lp62
sg19
(lp63
sg21
I0
sba(iArchitecture
Entity
p64
(dp65
g11
(lp66
sg13
S'android.gesture.GestureOverlayView$FadeOutRunnable'
p67
sg15
(lp68
sg17
(lp69
sg19
(lp70
sg21
I0
sba(iArchitecture
Entity
p71
(dp72
g11
(lp73
sg13
S'android.gesture.GestureOverlayView$OnGestureListener'
p74
sg15
(lp75
sg17
(lp76
sg19
(lp77
sg21
I0
sba(iArchitecture
Entity
p78
(dp79
g11
(lp80
sg13
S'android.gesture.GestureOverlayView$OnGesturePerformedListener'
p81
sg15
(lp82
sg17
(lp83
sg19
(lp84
sg21
I0
sba(iArchitecture
Entity
p85
(dp86
g11
(lp87
sg13
S'android.gesture.GestureOverlayView$OnGesturingListener'
p88
sg15
(lp89
sg17
(lp90
sg19
(lp91
sg21
I0
sba(iArchitecture
Entity
p92
(dp93
g11
(lp94
sg13
S'android.gesture.GestureStore'
p95
sg15
(lp96
sg17
(lp97
sg19
(lp98
sg21
I0
sba(iArchitecture
Entity
p99
(dp100
g11
(lp101
sg13
S'android.gesture.GestureUtils'
p102
sg15
(lp103
sg17
(lp104
sg19
(lp105
sg21
I0
sba(iArchitecture
Entity
p106
(dp107
g11
(lp108
sg13
S'android.gesture.Instance'
p109
sg15
(lp110
sg17
(lp111
sg19
(lp112
sg21
I0
sba(iArchitecture
Entity
p113
(dp114
g11
(lp115
sg13
S'android.gesture.InstanceLearner'
p116
sg15
(lp117
sg17
(lp118
sg19
(lp119
sg21
I0
sba(iArchitecture
Entity
p120
(dp121
g11
(lp122
sg13
S'android.gesture.InstanceLearner$1'
p123
sg15
(lp124
sg17
(lp125
sg19
(lp126
sg21
I0
sba(iArchitecture
Entity
p127
(dp128
g11
(lp129
sg13
S'android.gesture.Learner'
p130
sg15
(lp131
sg17
(lp132
sg19
(lp133
sg21
I0
sba(iArchitecture
Entity
p134
(dp135
g11
(lp136
sg13
S'android.gesture.OrientedBoundingBox'
p137
sg15
(lp138
sg17
(lp139
sg19
(lp140
sg21
I0
sba(iArchitecture
Entity
p141
(dp142
g11
(lp143
sg13
S'android.gesture.Prediction'
p144
sg15
(lp145
sg17
(lp146
sg19
(lp147
sg21
I0
sbasS'classes'
p148
(lp149
g14
ag25
ag32
ag39
ag46
ag53
ag60
ag67
ag74
ag81
ag88
ag95
ag102
ag109
ag116
ag123
ag130
ag137
ag144
asg21
I0
sS'label'
p150
S'android.gesture.ss'
p151
sba(iArchitecture
Cluster
p152
(dp153
g7
(lp154
(iArchitecture
Entity
p155
(dp156
g11
(lp157
sg13
S'android.gesture.GesturePoint'
p158
sg15
(lp159
sg17
(lp160
sg19
(lp161
sg21
I0
sba(iArchitecture
Entity
p162
(dp163
g11
(lp164
sg13
S'android.gesture.GestureStroke'
p165
sg15
(lp166
sg17
(lp167
sg19
(lp168
sg21
I0
sbasg148
(lp169
g158
ag165
asg21
I0
sg150
S'com.android.server.accessibility.ss'
p170
sba(iArchitecture
Cluster
p171
(dp172
g7
(lp173
(iArchitecture
Entity
p174
(dp175
g11
(lp176
sg13
S'android.gesture.GestureConstants'
p177
sg15
(lp178
sg17
(lp179
sg19
(lp180
sg21
I0
sbasg148
(lp181
g177
asg21
I0
sg150
S'com.android.server.pm.ss'
p182
sbasS'target_sub'
p183
S'android.gesture'
p184
sg148
(lp185
sS'is_component_arch'
p186
I00
sg150
S'6.0.0_r1'
p187
sba(iArchitecture
Architecture
p188
(dp189
g3
(lp190
(iArchitecture
Cluster
p191
(dp192
g7
(lp193
(iArchitecture
Entity
p194
(dp195
g11
(lp196
sg13
S'android.gesture.Gesture'
p197
sg15
(lp198
sg17
(lp199
sg19
(lp200
sg21
I0
sba(iArchitecture
Entity
p201
(dp202
g11
(lp203
sg13
S'android.gesture.Gesture$1'
p204
sg15
(lp205
sg17
(lp206
sg19
(lp207
sg21
I0
sba(iArchitecture
Entity
p208
(dp209
g11
(lp210
sg13
S'android.gesture.GestureLibraries'
p211
sg15
(lp212
sg17
(lp213
sg19
(lp214
sg21
I0
sba(iArchitecture
Entity
p215
(dp216
g11
(lp217
sg13
S'android.gesture.GestureLibraries$FileGestureLibrary'
p218
sg15
(lp219
sg17
(lp220
sg19
(lp221
sg21
I0
sba(iArchitecture
Entity
p222
(dp223
g11
(lp224
sg13
S'android.gesture.GestureLibraries$ResourceGestureLibrary'
p225
sg15
(lp226
sg17
(lp227
sg19
(lp228
sg21
I0
sba(iArchitecture
Entity
p229
(dp230
g11
(lp231
sg13
S'android.gesture.GestureLibrary'
p232
sg15
(lp233
sg17
(lp234
sg19
(lp235
sg21
I0
sba(iArchitecture
Entity
p236
(dp237
g11
(lp238
sg13
S'android.gesture.GestureOverlayView'
p239
sg15
(lp240
sg17
(lp241
sg19
(lp242
sg21
I0
sba(iArchitecture
Entity
p243
(dp244
g11
(lp245
sg13
S'android.gesture.GestureOverlayView$FadeOutRunnable'
p246
sg15
(lp247
sg17
(lp248
sg19
(lp249
sg21
I0
sba(iArchitecture
Entity
p250
(dp251
g11
(lp252
sg13
S'android.gesture.GestureOverlayView$OnGestureListener'
p253
sg15
(lp254
sg17
(lp255
sg19
(lp256
sg21
I0
sba(iArchitecture
Entity
p257
(dp258
g11
(lp259
sg13
S'android.gesture.GestureOverlayView$OnGesturePerformedListener'
p260
sg15
(lp261
sg17
(lp262
sg19
(lp263
sg21
I0
sba(iArchitecture
Entity
p264
(dp265
g11
(lp266
sg13
S'android.gesture.GestureOverlayView$OnGesturingListener'
p267
sg15
(lp268
sg17
(lp269
sg19
(lp270
sg21
I0
sba(iArchitecture
Entity
p271
(dp272
g11
(lp273
sg13
S'android.gesture.GestureStore'
p274
sg15
(lp275
sg17
(lp276
sg19
(lp277
sg21
I0
sba(iArchitecture
Entity
p278
(dp279
g11
(lp280
sg13
S'android.gesture.GestureUtils'
p281
sg15
(lp282
sg17
(lp283
sg19
(lp284
sg21
I0
sba(iArchitecture
Entity
p285
(dp286
g11
(lp287
sg13
S'android.gesture.Instance'
p288
sg15
(lp289
sg17
(lp290
sg19
(lp291
sg21
I0
sba(iArchitecture
Entity
p292
(dp293
g11
(lp294
sg13
S'android.gesture.InstanceLearner'
p295
sg15
(lp296
sg17
(lp297
sg19
(lp298
sg21
I0
sba(iArchitecture
Entity
p299
(dp300
g11
(lp301
sg13
S'android.gesture.InstanceLearner$1'
p302
sg15
(lp303
sg17
(lp304
sg19
(lp305
sg21
I0
sba(iArchitecture
Entity
p306
(dp307
g11
(lp308
sg13
S'android.gesture.Learner'
p309
sg15
(lp310
sg17
(lp311
sg19
(lp312
sg21
I0
sba(iArchitecture
Entity
p313
(dp314
g11
(lp315
sg13
S'android.gesture.OrientedBoundingBox'
p316
sg15
(lp317
sg17
(lp318
sg19
(lp319
sg21
I0
sba(iArchitecture
Entity
p320
(dp321
g11
(lp322
sg13
S'android.gesture.Prediction'
p323
sg15
(lp324
sg17
(lp325
sg19
(lp326
sg21
I0
sbasg148
(lp327
g197
ag204
ag211
ag218
ag225
ag232
ag239
ag246
ag253
ag260
ag267
ag274
ag281
ag288
ag295
ag302
ag309
ag316
ag323
asg21
I0
sg150
S'android.gesture.ss'
p328
sba(iArchitecture
Cluster
p329
(dp330
g7
(lp331
(iArchitecture
Entity
p332
(dp333
g11
(lp334
sg13
S'android.gesture.GesturePoint'
p335
sg15
(lp336
sg17
(lp337
sg19
(lp338
sg21
I0
sba(iArchitecture
Entity
p339
(dp340
g11
(lp341
sg13
S'android.gesture.GestureStroke'
p342
sg15
(lp343
sg17
(lp344
sg19
(lp345
sg21
I0
sbasg148
(lp346
g335
ag342
asg21
I0
sg150
S'com.android.server.accessibility.ss'
p347
sba(iArchitecture
Cluster
p348
(dp349
g7
(lp350
(iArchitecture
Entity
p351
(dp352
g11
(lp353
sg13
S'android.gesture.GestureConstants'
p354
sg15
(lp355
sg17
(lp356
sg19
(lp357
sg21
I0
sbasg148
(lp358
g354
asg21
I0
sg150
S'com.android.server.pm.ss'
p359
sbasg183
g184
sg148
(lp360
sg186
I00
sg150
S'7.0.0_r1'
p361
sba.