(lp0
(iArchitecture
Architecture
p1
(dp2
S'clusters'
p3
(lp4
(iArchitecture
Cluster
p5
(dp6
S'entities'
p7
(lp8
(iArchitecture
Entity
p9
(dp10
S'issue_ids'
p11
(lp12
sS'name'
p13
S'android.accessibilityservice.AccessibilityService'
p14
sS'descs'
p15
(lp16
sS'labels'
p17
(lp18
sS'titles'
p19
(lp20
sS'change'
p21
I0
sba(iArchitecture
Entity
p22
(dp23
g11
(lp24
sg13
S'android.accessibilityservice.AccessibilityService$1'
p25
sg15
(lp26
sg17
(lp27
sg19
(lp28
sg21
I0
sba(iArchitecture
Entity
p29
(dp30
g11
(lp31
sg13
S'android.accessibilityservice.AccessibilityServiceInfo'
p32
sg15
(lp33
sg17
(lp34
sg19
(lp35
sg21
I0
sba(iArchitecture
Entity
p36
(dp37
g11
(lp38
sg13
S'android.accessibilityservice.AccessibilityServiceInfo$1'
p39
sg15
(lp40
sg17
(lp41
sg19
(lp42
sg21
I0
sba(iArchitecture
Entity
p43
(dp44
g11
(lp45
sg13
S'android.accessibilityservice.AccessibilityServiceInfo$CapabilityInfo'
p46
sg15
(lp47
sg17
(lp48
sg19
(lp49
sg21
I0
sbasS'classes'
p50
(lp51
g14
ag25
ag32
ag39
ag46
asg21
I0
sS'label'
p52
S'android.accessibilityservice.ss'
p53
sba(iArchitecture
Cluster
p54
(dp55
g7
(lp56
(iArchitecture
Entity
p57
(dp58
g11
(lp59
sg13
S'android.accessibilityservice.AccessibilityService$Callbacks'
p60
sg15
(lp61
sg17
(lp62
sg19
(lp63
sg21
I0
sba(iArchitecture
Entity
p64
(dp65
g11
(lp66
sg13
S'android.accessibilityservice.AccessibilityService$IAccessibilityServiceClientWrapper'
p67
sg15
(lp68
sg17
(lp69
sg19
(lp70
sg21
I0
sbasg50
(lp71
g60
ag67
asg21
I0
sg52
S'android.app.ss'
p72
sba(iArchitecture
Cluster
p73
(dp74
g7
(lp75
(iArchitecture
Entity
p76
(dp77
g11
(lp78
sg13
S'android.accessibilityservice.IAccessibilityServiceClient'
p79
sg15
(lp80
sg17
(lp81
sg19
(lp82
sg21
I0
sba(iArchitecture
Entity
p83
(dp84
g11
(lp85
sg13
S'android.accessibilityservice.IAccessibilityServiceClient$Stub'
p86
sg15
(lp87
sg17
(lp88
sg19
(lp89
sg21
I0
sba(iArchitecture
Entity
p90
(dp91
g11
(lp92
sg13
S'android.accessibilityservice.IAccessibilityServiceClient$Stub$Proxy'
p93
sg15
(lp94
sg17
(lp95
sg19
(lp96
sg21
I0
sba(iArchitecture
Entity
p97
(dp98
g11
(lp99
sg13
S'android.accessibilityservice.IAccessibilityServiceConnection'
p100
sg15
(lp101
sg17
(lp102
sg19
(lp103
sg21
I0
sba(iArchitecture
Entity
p104
(dp105
g11
(lp106
sg13
S'android.accessibilityservice.IAccessibilityServiceConnection$Stub'
p107
sg15
(lp108
sg17
(lp109
sg19
(lp110
sg21
I0
sba(iArchitecture
Entity
p111
(dp112
g11
(lp113
sg13
S'android.accessibilityservice.IAccessibilityServiceConnection$Stub$Proxy'
p114
sg15
(lp115
sg17
(lp116
sg19
(lp117
sg21
I0
sbasg50
(lp118
g79
ag86
ag93
ag100
ag107
ag114
asg21
I0
sg52
S'com.android.server.accessibility.ss'
p119
sbasS'target_sub'
p120
S'android.accessibilityservice'
p121
sg50
(lp122
sS'is_component_arch'
p123
I00
sg52
S'6.0.0_r1'
p124
sba(iArchitecture
Architecture
p125
(dp126
g3
(lp127
(iArchitecture
Cluster
p128
(dp129
g7
(lp130
(iArchitecture
Entity
p131
(dp132
g11
(lp133
sg13
S'android.accessibilityservice.AccessibilityService'
p134
sg15
(lp135
sg17
(lp136
sg19
(lp137
sg21
I0
sba(iArchitecture
Entity
p138
(dp139
g11
(lp140
sg13
S'android.accessibilityservice.AccessibilityService$1'
p141
sg15
(lp142
sg17
(lp143
sg19
(lp144
sg21
I0
sba(iArchitecture
Entity
p145
(dp146
g11
(lp147
sg13
S'android.accessibilityservice.AccessibilityService$2'
p148
sg15
(lp149
sg17
(lp150
sg19
(lp151
sg21
I0
sba(iArchitecture
Entity
p152
(dp153
g11
(lp154
sg13
S'android.accessibilityservice.AccessibilityService$GestureResultCallback'
p155
sg15
(lp156
sg17
(lp157
sg19
(lp158
sg21
I0
sba(iArchitecture
Entity
p159
(dp160
g11
(lp161
sg13
S'android.accessibilityservice.AccessibilityService$GestureResultCallbackInfo'
p162
sg15
(lp163
sg17
(lp164
sg19
(lp165
sg21
I0
sba(iArchitecture
Entity
p166
(dp167
g11
(lp168
sg13
S'android.accessibilityservice.AccessibilityService$MagnificationController'
p169
sg15
(lp170
sg17
(lp171
sg19
(lp172
sg21
I0
sba(iArchitecture
Entity
p173
(dp174
g11
(lp175
sg13
S'android.accessibilityservice.AccessibilityService$MagnificationController$1'
p176
sg15
(lp177
sg17
(lp178
sg19
(lp179
sg21
I0
sba(iArchitecture
Entity
p180
(dp181
g11
(lp182
sg13
S'android.accessibilityservice.AccessibilityService$MagnificationController$OnMagnificationChangedListener'
p183
sg15
(lp184
sg17
(lp185
sg19
(lp186
sg21
I0
sba(iArchitecture
Entity
p187
(dp188
g11
(lp189
sg13
S'android.accessibilityservice.AccessibilityService$SoftKeyboardController'
p190
sg15
(lp191
sg17
(lp192
sg19
(lp193
sg21
I0
sba(iArchitecture
Entity
p194
(dp195
g11
(lp196
sg13
S'android.accessibilityservice.AccessibilityService$SoftKeyboardController$1'
p197
sg15
(lp198
sg17
(lp199
sg19
(lp200
sg21
I0
sba(iArchitecture
Entity
p201
(dp202
g11
(lp203
sg13
S'android.accessibilityservice.AccessibilityService$SoftKeyboardController$OnShowModeChangedListener'
p204
sg15
(lp205
sg17
(lp206
sg19
(lp207
sg21
I0
sba(iArchitecture
Entity
p208
(dp209
g11
(lp210
sg13
S'android.accessibilityservice.AccessibilityServiceInfo'
p211
sg15
(lp212
sg17
(lp213
sg19
(lp214
sg21
I0
sba(iArchitecture
Entity
p215
(dp216
g11
(lp217
sg13
S'android.accessibilityservice.AccessibilityServiceInfo$1'
p218
sg15
(lp219
sg17
(lp220
sg19
(lp221
sg21
I0
sba(iArchitecture
Entity
p222
(dp223
g11
(lp224
sg13
S'android.accessibilityservice.AccessibilityServiceInfo$CapabilityInfo'
p225
sg15
(lp226
sg17
(lp227
sg19
(lp228
sg21
I0
sba(iArchitecture
Entity
p229
(dp230
g11
(lp231
sg13
S'android.accessibilityservice.GestureDescription'
p232
sg15
(lp233
sg17
(lp234
sg19
(lp235
sg21
I0
sba(iArchitecture
Entity
p236
(dp237
g11
(lp238
sg13
S'android.accessibilityservice.GestureDescription$Builder'
p239
sg15
(lp240
sg17
(lp241
sg19
(lp242
sg21
I0
sba(iArchitecture
Entity
p243
(dp244
g11
(lp245
sg13
S'android.accessibilityservice.GestureDescription$MotionEventGenerator'
p246
sg15
(lp247
sg17
(lp248
sg19
(lp249
sg21
I0
sba(iArchitecture
Entity
p250
(dp251
g11
(lp252
sg13
S'android.accessibilityservice.GestureDescription$StrokeDescription'
p253
sg15
(lp254
sg17
(lp255
sg19
(lp256
sg21
I0
sba(iArchitecture
Entity
p257
(dp258
g11
(lp259
sg13
S'android.accessibilityservice.GestureDescription$TouchPoint'
p260
sg15
(lp261
sg17
(lp262
sg19
(lp263
sg21
I0
sba(iArchitecture
Entity
p264
(dp265
g11
(lp266
sg13
S'android.accessibilityservice.IAccessibilityServiceConnection'
p267
sg15
(lp268
sg17
(lp269
sg19
(lp270
sg21
I0
sba(iArchitecture
Entity
p271
(dp272
g11
(lp273
sg13
S'android.accessibilityservice.IAccessibilityServiceConnection$Stub'
p274
sg15
(lp275
sg17
(lp276
sg19
(lp277
sg21
I0
sba(iArchitecture
Entity
p278
(dp279
g11
(lp280
sg13
S'android.accessibilityservice.IAccessibilityServiceConnection$Stub$Proxy'
p281
sg15
(lp282
sg17
(lp283
sg19
(lp284
sg21
I0
sbasg50
(lp285
g134
ag141
ag148
ag155
ag162
ag169
ag176
ag183
ag190
ag197
ag204
ag211
ag218
ag225
ag232
ag239
ag246
ag253
ag260
ag267
ag274
ag281
asg21
I0
sg52
S'android.accessibilityservice.ss'
p286
sba(iArchitecture
Cluster
p287
(dp288
g7
(lp289
(iArchitecture
Entity
p290
(dp291
g11
(lp292
sg13
S'android.accessibilityservice.AccessibilityService$Callbacks'
p293
sg15
(lp294
sg17
(lp295
sg19
(lp296
sg21
I0
sba(iArchitecture
Entity
p297
(dp298
g11
(lp299
sg13
S'android.accessibilityservice.AccessibilityService$IAccessibilityServiceClientWrapper'
p300
sg15
(lp301
sg17
(lp302
sg19
(lp303
sg21
I0
sba(iArchitecture
Entity
p304
(dp305
g11
(lp306
sg13
S'android.accessibilityservice.IAccessibilityServiceClient'
p307
sg15
(lp308
sg17
(lp309
sg19
(lp310
sg21
I0
sba(iArchitecture
Entity
p311
(dp312
g11
(lp313
sg13
S'android.accessibilityservice.IAccessibilityServiceClient$Stub'
p314
sg15
(lp315
sg17
(lp316
sg19
(lp317
sg21
I0
sba(iArchitecture
Entity
p318
(dp319
g11
(lp320
sg13
S'android.accessibilityservice.IAccessibilityServiceClient$Stub$Proxy'
p321
sg15
(lp322
sg17
(lp323
sg19
(lp324
sg21
I0
sbasg50
(lp325
g293
ag300
ag307
ag314
ag321
asg21
I0
sg52
S'android.app.ss'
p326
sbasg120
g121
sg50
(lp327
sg123
I00
sg52
S'7.0.0_r1'
p328
sba.