(lp0
(iArchitecture
Architecture
p1
(dp2
S'clusters'
p3
(lp4
(iArchitecture
Cluster
p5
(dp6
S'entities'
p7
(lp8
(iArchitecture
Entity
p9
(dp10
S'issue_ids'
p11
(lp12
sS'name'
p13
S'android.printservice.PrintDocument'
p14
sS'descs'
p15
(lp16
sS'labels'
p17
(lp18
sS'titles'
p19
(lp20
sS'change'
p21
I0
sba(iArchitecture
Entity
p22
(dp23
g11
(lp24
sg13
S'android.printservice.PrintJob'
p25
sg15
(lp26
sg17
(lp27
sg19
(lp28
sg21
I0
sba(iArchitecture
Entity
p29
(dp30
g11
(lp31
sg13
S'android.printservice.PrintService'
p32
sg15
(lp33
sg17
(lp34
sg19
(lp35
sg21
I0
sba(iArchitecture
Entity
p36
(dp37
g11
(lp38
sg13
S'android.printservice.PrintService$1'
p39
sg15
(lp40
sg17
(lp41
sg19
(lp42
sg21
I0
sba(iArchitecture
Entity
p43
(dp44
g11
(lp45
sg13
S'android.printservice.PrintService$ServiceHandler'
p46
sg15
(lp47
sg17
(lp48
sg19
(lp49
sg21
I0
sba(iArchitecture
Entity
p50
(dp51
g11
(lp52
sg13
S'android.printservice.PrintServiceInfo'
p53
sg15
(lp54
sg17
(lp55
sg19
(lp56
sg21
I0
sba(iArchitecture
Entity
p57
(dp58
g11
(lp59
sg13
S'android.printservice.PrintServiceInfo$1'
p60
sg15
(lp61
sg17
(lp62
sg19
(lp63
sg21
I0
sba(iArchitecture
Entity
p64
(dp65
g11
(lp66
sg13
S'android.printservice.PrinterDiscoverySession'
p67
sg15
(lp68
sg17
(lp69
sg19
(lp70
sg21
I0
sbasS'classes'
p71
(lp72
g14
ag25
ag32
ag39
ag46
ag53
ag60
ag67
asg21
I0
sS'label'
p73
S'android.printservice.ss'
p74
sba(iArchitecture
Cluster
p75
(dp76
g7
(lp77
(iArchitecture
Entity
p78
(dp79
g11
(lp80
sg13
S'android.printservice.IPrintService'
p81
sg15
(lp82
sg17
(lp83
sg19
(lp84
sg21
I0
sba(iArchitecture
Entity
p85
(dp86
g11
(lp87
sg13
S'android.printservice.IPrintService$Stub'
p88
sg15
(lp89
sg17
(lp90
sg19
(lp91
sg21
I0
sba(iArchitecture
Entity
p92
(dp93
g11
(lp94
sg13
S'android.printservice.IPrintService$Stub$Proxy'
p95
sg15
(lp96
sg17
(lp97
sg19
(lp98
sg21
I0
sba(iArchitecture
Entity
p99
(dp100
g11
(lp101
sg13
S'android.printservice.IPrintServiceClient'
p102
sg15
(lp103
sg17
(lp104
sg19
(lp105
sg21
I0
sba(iArchitecture
Entity
p106
(dp107
g11
(lp108
sg13
S'android.printservice.IPrintServiceClient$Stub'
p109
sg15
(lp110
sg17
(lp111
sg19
(lp112
sg21
I0
sba(iArchitecture
Entity
p113
(dp114
g11
(lp115
sg13
S'android.printservice.IPrintServiceClient$Stub$Proxy'
p116
sg15
(lp117
sg17
(lp118
sg19
(lp119
sg21
I0
sbasg71
(lp120
g81
ag88
ag95
ag102
ag109
ag116
asg21
I0
sg73
S'com.android.server.print.ss'
p121
sbasS'target_sub'
p122
S'android.printservice'
p123
sg71
(lp124
sS'is_component_arch'
p125
I00
sg73
S'6.0.0_r1'
p126
sba(iArchitecture
Architecture
p127
(dp128
g3
(lp129
(iArchitecture
Cluster
p130
(dp131
g7
(lp132
(iArchitecture
Entity
p133
(dp134
g11
(lp135
sg13
S'android.printservice.recommendation.IRecommendationsChangeListener'
p136
sg15
(lp137
sg17
(lp138
sg19
(lp139
sg21
I0
sba(iArchitecture
Entity
p140
(dp141
g11
(lp142
sg13
S'android.printservice.recommendation.IRecommendationsChangeListener$Stub'
p143
sg15
(lp144
sg17
(lp145
sg19
(lp146
sg21
I0
sba(iArchitecture
Entity
p147
(dp148
g11
(lp149
sg13
S'android.printservice.recommendation.IRecommendationsChangeListener$Stub$Proxy'
p150
sg15
(lp151
sg17
(lp152
sg19
(lp153
sg21
I0
sbasg71
(lp154
g136
ag143
ag150
asg21
I0
sg73
S'android.app.ss'
p155
sba(iArchitecture
Cluster
p156
(dp157
g7
(lp158
(iArchitecture
Entity
p159
(dp160
g11
(lp161
sg13
S'android.printservice.recommendation.RecommendationInfo'
p162
sg15
(lp163
sg17
(lp164
sg19
(lp165
sg21
I0
sba(iArchitecture
Entity
p166
(dp167
g11
(lp168
sg13
S'android.printservice.recommendation.RecommendationInfo$1'
p169
sg15
(lp170
sg17
(lp171
sg19
(lp172
sg21
I0
sba(iArchitecture
Entity
p173
(dp174
g11
(lp175
sg13
S'android.printservice.recommendation.RecommendationService'
p176
sg15
(lp177
sg17
(lp178
sg19
(lp179
sg21
I0
sba(iArchitecture
Entity
p180
(dp181
g11
(lp182
sg13
S'android.printservice.recommendation.RecommendationService$1'
p183
sg15
(lp184
sg17
(lp185
sg19
(lp186
sg21
I0
sba(iArchitecture
Entity
p187
(dp188
g11
(lp189
sg13
S'android.printservice.recommendation.RecommendationService$MyHandler'
p190
sg15
(lp191
sg17
(lp192
sg19
(lp193
sg21
I0
sbasg71
(lp194
g162
ag169
ag176
ag183
ag190
asg21
I0
sg73
S'android.printservice.recommendation.ss'
p195
sba(iArchitecture
Cluster
p196
(dp197
g7
(lp198
(iArchitecture
Entity
p199
(dp200
g11
(lp201
sg13
S'android.printservice.CustomPrinterIconCallback'
p202
sg15
(lp203
sg17
(lp204
sg19
(lp205
sg21
I0
sba(iArchitecture
Entity
p206
(dp207
g11
(lp208
sg13
S'android.printservice.IPrintServiceClient'
p209
sg15
(lp210
sg17
(lp211
sg19
(lp212
sg21
I0
sba(iArchitecture
Entity
p213
(dp214
g11
(lp215
sg13
S'android.printservice.PrintDocument'
p216
sg15
(lp217
sg17
(lp218
sg19
(lp219
sg21
I0
sba(iArchitecture
Entity
p220
(dp221
g11
(lp222
sg13
S'android.printservice.PrintJob'
p223
sg15
(lp224
sg17
(lp225
sg19
(lp226
sg21
I0
sba(iArchitecture
Entity
p227
(dp228
g11
(lp229
sg13
S'android.printservice.PrintService'
p230
sg15
(lp231
sg17
(lp232
sg19
(lp233
sg21
I0
sba(iArchitecture
Entity
p234
(dp235
g11
(lp236
sg13
S'android.printservice.PrintService$1'
p237
sg15
(lp238
sg17
(lp239
sg19
(lp240
sg21
I0
sba(iArchitecture
Entity
p241
(dp242
g11
(lp243
sg13
S'android.printservice.PrintService$ServiceHandler'
p244
sg15
(lp245
sg17
(lp246
sg19
(lp247
sg21
I0
sba(iArchitecture
Entity
p248
(dp249
g11
(lp250
sg13
S'android.printservice.PrintServiceInfo'
p251
sg15
(lp252
sg17
(lp253
sg19
(lp254
sg21
I0
sba(iArchitecture
Entity
p255
(dp256
g11
(lp257
sg13
S'android.printservice.PrintServiceInfo$1'
p258
sg15
(lp259
sg17
(lp260
sg19
(lp261
sg21
I0
sba(iArchitecture
Entity
p262
(dp263
g11
(lp264
sg13
S'android.printservice.PrinterDiscoverySession'
p265
sg15
(lp266
sg17
(lp267
sg19
(lp268
sg21
I0
sbasg71
(lp269
g202
ag209
ag216
ag223
ag230
ag237
ag244
ag251
ag258
ag265
asg21
I0
sg73
S'android.printservice.ss'
p270
sba(iArchitecture
Cluster
p271
(dp272
g7
(lp273
(iArchitecture
Entity
p274
(dp275
g11
(lp276
sg13
S'android.printservice.IPrintService'
p277
sg15
(lp278
sg17
(lp279
sg19
(lp280
sg21
I0
sba(iArchitecture
Entity
p281
(dp282
g11
(lp283
sg13
S'android.printservice.IPrintService$Stub'
p284
sg15
(lp285
sg17
(lp286
sg19
(lp287
sg21
I0
sba(iArchitecture
Entity
p288
(dp289
g11
(lp290
sg13
S'android.printservice.IPrintService$Stub$Proxy'
p291
sg15
(lp292
sg17
(lp293
sg19
(lp294
sg21
I0
sba(iArchitecture
Entity
p295
(dp296
g11
(lp297
sg13
S'android.printservice.IPrintServiceClient$Stub'
p298
sg15
(lp299
sg17
(lp300
sg19
(lp301
sg21
I0
sba(iArchitecture
Entity
p302
(dp303
g11
(lp304
sg13
S'android.printservice.IPrintServiceClient$Stub$Proxy'
p305
sg15
(lp306
sg17
(lp307
sg19
(lp308
sg21
I0
sba(iArchitecture
Entity
p309
(dp310
g11
(lp311
sg13
S'android.printservice.recommendation.IRecommendationService'
p312
sg15
(lp313
sg17
(lp314
sg19
(lp315
sg21
I0
sba(iArchitecture
Entity
p316
(dp317
g11
(lp318
sg13
S'android.printservice.recommendation.IRecommendationService$Stub'
p319
sg15
(lp320
sg17
(lp321
sg19
(lp322
sg21
I0
sba(iArchitecture
Entity
p323
(dp324
g11
(lp325
sg13
S'android.printservice.recommendation.IRecommendationService$Stub$Proxy'
p326
sg15
(lp327
sg17
(lp328
sg19
(lp329
sg21
I0
sba(iArchitecture
Entity
p330
(dp331
g11
(lp332
sg13
S'android.printservice.recommendation.IRecommendationServiceCallbacks'
p333
sg15
(lp334
sg17
(lp335
sg19
(lp336
sg21
I0
sba(iArchitecture
Entity
p337
(dp338
g11
(lp339
sg13
S'android.printservice.recommendation.IRecommendationServiceCallbacks$Stub'
p340
sg15
(lp341
sg17
(lp342
sg19
(lp343
sg21
I0
sba(iArchitecture
Entity
p344
(dp345
g11
(lp346
sg13
S'android.printservice.recommendation.IRecommendationServiceCallbacks$Stub$Proxy'
p347
sg15
(lp348
sg17
(lp349
sg19
(lp350
sg21
I0
sbasg71
(lp351
g277
ag284
ag291
ag298
ag305
ag312
ag319
ag326
ag333
ag340
ag347
asg21
I0
sg73
S'com.android.server.print.ss'
p352
sbasg122
g123
sg71
(lp353
sg125
I00
sg73
S'7.0.0_r1'
p354
sba.