(lp0
(iArchitecture
Architecture
p1
(dp2
S'clusters'
p3
(lp4
(iArchitecture
Cluster
p5
(dp6
S'entities'
p7
(lp8
(iArchitecture
Entity
p9
(dp10
S'issue_ids'
p11
(lp12
sS'name'
p13
S'com.android.server.updates.SELinuxPolicyInstallReceiver'
p14
sS'descs'
p15
(lp16
sS'labels'
p17
(lp18
sS'titles'
p19
(lp20
sS'change'
p21
I0
sbasS'classes'
p22
(lp23
g14
asg21
I0
sS'label'
p24
S'com.android.server.backup.ss'
p25
sba(iArchitecture
Cluster
p26
(dp27
g7
(lp28
(iArchitecture
Entity
p29
(dp30
g11
(lp31
sg13
S'com.android.server.updates.CarrierProvisioningUrlsInstallReceiver'
p32
sg15
(lp33
sg17
(lp34
sg19
(lp35
sg21
I0
sba(iArchitecture
Entity
p36
(dp37
g11
(lp38
sg13
S'com.android.server.updates.CertPinInstallReceiver'
p39
sg15
(lp40
sg17
(lp41
sg19
(lp42
sg21
I0
sba(iArchitecture
Entity
p43
(dp44
g11
(lp45
sg13
S'com.android.server.updates.IntentFirewallInstallReceiver'
p46
sg15
(lp47
sg17
(lp48
sg19
(lp49
sg21
I0
sba(iArchitecture
Entity
p50
(dp51
g11
(lp52
sg13
S'com.android.server.updates.SmsShortCodesInstallReceiver'
p53
sg15
(lp54
sg17
(lp55
sg19
(lp56
sg21
I0
sbasg22
(lp57
g32
ag39
ag46
ag53
asg21
I0
sg24
S'com.android.server.pm.ss'
p58
sba(iArchitecture
Cluster
p59
(dp60
g7
(lp61
(iArchitecture
Entity
p62
(dp63
g11
(lp64
sg13
S'com.android.server.updates.ConfigUpdateInstallReceiver'
p65
sg15
(lp66
sg17
(lp67
sg19
(lp68
sg21
I0
sba(iArchitecture
Entity
p69
(dp70
g11
(lp71
sg13
S'com.android.server.updates.ConfigUpdateInstallReceiver$1'
p72
sg15
(lp73
sg17
(lp74
sg19
(lp75
sg21
I0
sba(iArchitecture
Entity
p76
(dp77
g11
(lp78
sg13
S'com.android.server.updates.TzDataInstallReceiver'
p79
sg15
(lp80
sg17
(lp81
sg19
(lp82
sg21
I0
sbasg22
(lp83
g65
ag72
ag79
asg21
I0
sg24
S'com.android.server.updates.ss'
p84
sbasS'target_sub'
p85
S'com.android.server.updates'
p86
sg22
(lp87
sS'is_component_arch'
p88
I00
sg24
S'6.0.0_r1'
p89
sba(iArchitecture
Architecture
p90
(dp91
g3
(lp92
(iArchitecture
Cluster
p93
(dp94
g7
(lp95
(iArchitecture
Entity
p96
(dp97
g11
(lp98
sg13
S'com.android.server.updates.ApnDbInstallReceiver'
p99
sg15
(lp100
sg17
(lp101
sg19
(lp102
sg21
I0
sba(iArchitecture
Entity
p103
(dp104
g11
(lp105
sg13
S'com.android.server.updates.CarrierProvisioningUrlsInstallReceiver'
p106
sg15
(lp107
sg17
(lp108
sg19
(lp109
sg21
I0
sba(iArchitecture
Entity
p110
(dp111
g11
(lp112
sg13
S'com.android.server.updates.CertPinInstallReceiver'
p113
sg15
(lp114
sg17
(lp115
sg19
(lp116
sg21
I0
sba(iArchitecture
Entity
p117
(dp118
g11
(lp119
sg13
S'com.android.server.updates.IntentFirewallInstallReceiver'
p120
sg15
(lp121
sg17
(lp122
sg19
(lp123
sg21
I0
sba(iArchitecture
Entity
p124
(dp125
g11
(lp126
sg13
S'com.android.server.updates.SELinuxPolicyInstallReceiver'
p127
sg15
(lp128
sg17
(lp129
sg19
(lp130
sg21
I0
sba(iArchitecture
Entity
p131
(dp132
g11
(lp133
sg13
S'com.android.server.updates.SmsShortCodesInstallReceiver'
p134
sg15
(lp135
sg17
(lp136
sg19
(lp137
sg21
I0
sbasg22
(lp138
g99
ag106
ag113
ag120
ag127
ag134
asg21
I0
sg24
S'com.android.server.pm.ss'
p139
sba(iArchitecture
Cluster
p140
(dp141
g7
(lp142
(iArchitecture
Entity
p143
(dp144
g11
(lp145
sg13
S'com.android.server.updates.ConfigUpdateInstallReceiver'
p146
sg15
(lp147
sg17
(lp148
sg19
(lp149
sg21
I0
sba(iArchitecture
Entity
p150
(dp151
g11
(lp152
sg13
S'com.android.server.updates.ConfigUpdateInstallReceiver$1'
p153
sg15
(lp154
sg17
(lp155
sg19
(lp156
sg21
I0
sba(iArchitecture
Entity
p157
(dp158
g11
(lp159
sg13
S'com.android.server.updates.TzDataInstallReceiver'
p160
sg15
(lp161
sg17
(lp162
sg19
(lp163
sg21
I0
sbasg22
(lp164
g146
ag153
ag160
asg21
I0
sg24
S'com.android.server.updates.ss'
p165
sbasg85
g86
sg22
(lp166
sg88
I00
sg24
S'7.0.0_r1'
p167
sba.