(lp0
(iArchitecture
Architecture
p1
(dp2
S'clusters'
p3
(lp4
(iArchitecture
Cluster
p5
(dp6
S'entities'
p7
(lp8
(iArchitecture
Entity
p9
(dp10
S'issue_ids'
p11
(lp12
sS'name'
p13
S'android.speech.RecognizerIntent'
p14
sS'descs'
p15
(lp16
sS'labels'
p17
(lp18
sS'titles'
p19
(lp20
sS'change'
p21
I0
sbasS'classes'
p22
(lp23
g14
asg21
I0
sS'label'
p24
S'android.app.ss'
p25
sba(iArchitecture
Cluster
p26
(dp27
g7
(lp28
(iArchitecture
Entity
p29
(dp30
g11
(lp31
sg13
S'android.speech.IRecognitionListener'
p32
sg15
(lp33
sg17
(lp34
sg19
(lp35
sg21
I0
sba(iArchitecture
Entity
p36
(dp37
g11
(lp38
sg13
S'android.speech.IRecognitionListener$Stub'
p39
sg15
(lp40
sg17
(lp41
sg19
(lp42
sg21
I0
sba(iArchitecture
Entity
p43
(dp44
g11
(lp45
sg13
S'android.speech.IRecognitionListener$Stub$Proxy'
p46
sg15
(lp47
sg17
(lp48
sg19
(lp49
sg21
I0
sba(iArchitecture
Entity
p50
(dp51
g11
(lp52
sg13
S'android.speech.IRecognitionService'
p53
sg15
(lp54
sg17
(lp55
sg19
(lp56
sg21
I0
sba(iArchitecture
Entity
p57
(dp58
g11
(lp59
sg13
S'android.speech.IRecognitionService$Stub'
p60
sg15
(lp61
sg17
(lp62
sg19
(lp63
sg21
I0
sba(iArchitecture
Entity
p64
(dp65
g11
(lp66
sg13
S'android.speech.IRecognitionService$Stub$Proxy'
p67
sg15
(lp68
sg17
(lp69
sg19
(lp70
sg21
I0
sba(iArchitecture
Entity
p71
(dp72
g11
(lp73
sg13
S'android.speech.RecognitionListener'
p74
sg15
(lp75
sg17
(lp76
sg19
(lp77
sg21
I0
sba(iArchitecture
Entity
p78
(dp79
g11
(lp80
sg13
S'android.speech.RecognitionService'
p81
sg15
(lp82
sg17
(lp83
sg19
(lp84
sg21
I0
sba(iArchitecture
Entity
p85
(dp86
g11
(lp87
sg13
S'android.speech.RecognitionService$1'
p88
sg15
(lp89
sg17
(lp90
sg19
(lp91
sg21
I0
sba(iArchitecture
Entity
p92
(dp93
g11
(lp94
sg13
S'android.speech.RecognitionService$2'
p95
sg15
(lp96
sg17
(lp97
sg19
(lp98
sg21
I0
sba(iArchitecture
Entity
p99
(dp100
g11
(lp101
sg13
S'android.speech.RecognitionService$Callback'
p102
sg15
(lp103
sg17
(lp104
sg19
(lp105
sg21
I0
sba(iArchitecture
Entity
p106
(dp107
g11
(lp108
sg13
S'android.speech.RecognitionService$RecognitionServiceBinder'
p109
sg15
(lp110
sg17
(lp111
sg19
(lp112
sg21
I0
sba(iArchitecture
Entity
p113
(dp114
g11
(lp115
sg13
S'android.speech.RecognitionService$StartListeningArgs'
p116
sg15
(lp117
sg17
(lp118
sg19
(lp119
sg21
I0
sba(iArchitecture
Entity
p120
(dp121
g11
(lp122
sg13
S'android.speech.SpeechRecognizer'
p123
sg15
(lp124
sg17
(lp125
sg19
(lp126
sg21
I0
sba(iArchitecture
Entity
p127
(dp128
g11
(lp129
sg13
S'android.speech.SpeechRecognizer$1'
p130
sg15
(lp131
sg17
(lp132
sg19
(lp133
sg21
I0
sba(iArchitecture
Entity
p134
(dp135
g11
(lp136
sg13
S'android.speech.SpeechRecognizer$Connection'
p137
sg15
(lp138
sg17
(lp139
sg19
(lp140
sg21
I0
sba(iArchitecture
Entity
p141
(dp142
g11
(lp143
sg13
S'android.speech.SpeechRecognizer$InternalListener'
p144
sg15
(lp145
sg17
(lp146
sg19
(lp147
sg21
I0
sba(iArchitecture
Entity
p148
(dp149
g11
(lp150
sg13
S'android.speech.SpeechRecognizer$InternalListener$1'
p151
sg15
(lp152
sg17
(lp153
sg19
(lp154
sg21
I0
sbasg22
(lp155
g32
ag39
ag46
ag53
ag60
ag67
ag74
ag81
ag88
ag95
ag102
ag109
ag116
ag123
ag130
ag137
ag144
ag151
asg21
I0
sg24
S'android.speech.ss'
p156
sba(iArchitecture
Cluster
p157
(dp158
g7
(lp159
(iArchitecture
Entity
p160
(dp161
g11
(lp162
sg13
S'android.speech.tts.AbstractEventLogger'
p163
sg15
(lp164
sg17
(lp165
sg19
(lp166
sg21
I0
sba(iArchitecture
Entity
p167
(dp168
g11
(lp169
sg13
S'android.speech.tts.AbstractSynthesisCallback'
p170
sg15
(lp171
sg17
(lp172
sg19
(lp173
sg21
I0
sba(iArchitecture
Entity
p174
(dp175
g11
(lp176
sg13
S'android.speech.tts.AudioPlaybackHandler'
p177
sg15
(lp178
sg17
(lp179
sg19
(lp180
sg21
I0
sba(iArchitecture
Entity
p181
(dp182
g11
(lp183
sg13
S'android.speech.tts.AudioPlaybackHandler$MessageLoop'
p184
sg15
(lp185
sg17
(lp186
sg19
(lp187
sg21
I0
sba(iArchitecture
Entity
p188
(dp189
g11
(lp190
sg13
S'android.speech.tts.AudioPlaybackQueueItem'
p191
sg15
(lp192
sg17
(lp193
sg19
(lp194
sg21
I0
sba(iArchitecture
Entity
p195
(dp196
g11
(lp197
sg13
S'android.speech.tts.AudioPlaybackQueueItem$1'
p198
sg15
(lp199
sg17
(lp200
sg19
(lp201
sg21
I0
sba(iArchitecture
Entity
p202
(dp203
g11
(lp204
sg13
S'android.speech.tts.AudioPlaybackQueueItem$2'
p205
sg15
(lp206
sg17
(lp207
sg19
(lp208
sg21
I0
sba(iArchitecture
Entity
p209
(dp210
g11
(lp211
sg13
S'android.speech.tts.BlockingAudioTrack'
p212
sg15
(lp213
sg17
(lp214
sg19
(lp215
sg21
I0
sba(iArchitecture
Entity
p216
(dp217
g11
(lp218
sg13
S'android.speech.tts.EventLogTags'
p219
sg15
(lp220
sg17
(lp221
sg19
(lp222
sg21
I0
sba(iArchitecture
Entity
p223
(dp224
g11
(lp225
sg13
S'android.speech.tts.EventLoggerV1'
p226
sg15
(lp227
sg17
(lp228
sg19
(lp229
sg21
I0
sba(iArchitecture
Entity
p230
(dp231
g11
(lp232
sg13
S'android.speech.tts.FileSynthesisCallback'
p233
sg15
(lp234
sg17
(lp235
sg19
(lp236
sg21
I0
sba(iArchitecture
Entity
p237
(dp238
g11
(lp239
sg13
S'android.speech.tts.ITextToSpeechCallback'
p240
sg15
(lp241
sg17
(lp242
sg19
(lp243
sg21
I0
sba(iArchitecture
Entity
p244
(dp245
g11
(lp246
sg13
S'android.speech.tts.ITextToSpeechCallback$Stub'
p247
sg15
(lp248
sg17
(lp249
sg19
(lp250
sg21
I0
sba(iArchitecture
Entity
p251
(dp252
g11
(lp253
sg13
S'android.speech.tts.ITextToSpeechCallback$Stub$Proxy'
p254
sg15
(lp255
sg17
(lp256
sg19
(lp257
sg21
I0
sba(iArchitecture
Entity
p258
(dp259
g11
(lp260
sg13
S'android.speech.tts.ITextToSpeechService'
p261
sg15
(lp262
sg17
(lp263
sg19
(lp264
sg21
I0
sba(iArchitecture
Entity
p265
(dp266
g11
(lp267
sg13
S'android.speech.tts.ITextToSpeechService$Stub'
p268
sg15
(lp269
sg17
(lp270
sg19
(lp271
sg21
I0
sba(iArchitecture
Entity
p272
(dp273
g11
(lp274
sg13
S'android.speech.tts.ITextToSpeechService$Stub$Proxy'
p275
sg15
(lp276
sg17
(lp277
sg19
(lp278
sg21
I0
sba(iArchitecture
Entity
p279
(dp280
g11
(lp281
sg13
S'android.speech.tts.PlaybackQueueItem'
p282
sg15
(lp283
sg17
(lp284
sg19
(lp285
sg21
I0
sba(iArchitecture
Entity
p286
(dp287
g11
(lp288
sg13
S'android.speech.tts.PlaybackSynthesisCallback'
p289
sg15
(lp290
sg17
(lp291
sg19
(lp292
sg21
I0
sba(iArchitecture
Entity
p293
(dp294
g11
(lp295
sg13
S'android.speech.tts.SilencePlaybackQueueItem'
p296
sg15
(lp297
sg17
(lp298
sg19
(lp299
sg21
I0
sba(iArchitecture
Entity
p300
(dp301
g11
(lp302
sg13
S'android.speech.tts.SynthesisCallback'
p303
sg15
(lp304
sg17
(lp305
sg19
(lp306
sg21
I0
sba(iArchitecture
Entity
p307
(dp308
g11
(lp309
sg13
S'android.speech.tts.SynthesisPlaybackQueueItem'
p310
sg15
(lp311
sg17
(lp312
sg19
(lp313
sg21
I0
sba(iArchitecture
Entity
p314
(dp315
g11
(lp316
sg13
S'android.speech.tts.SynthesisPlaybackQueueItem$ListEntry'
p317
sg15
(lp318
sg17
(lp319
sg19
(lp320
sg21
I0
sba(iArchitecture
Entity
p321
(dp322
g11
(lp323
sg13
S'android.speech.tts.SynthesisRequest'
p324
sg15
(lp325
sg17
(lp326
sg19
(lp327
sg21
I0
sba(iArchitecture
Entity
p328
(dp329
g11
(lp330
sg13
S'android.speech.tts.TextToSpeech'
p331
sg15
(lp332
sg17
(lp333
sg19
(lp334
sg21
I0
sba(iArchitecture
Entity
p335
(dp336
g11
(lp337
sg13
S'android.speech.tts.TextToSpeech$1'
p338
sg15
(lp339
sg17
(lp340
sg19
(lp341
sg21
I0
sba(iArchitecture
Entity
p342
(dp343
g11
(lp344
sg13
S'android.speech.tts.TextToSpeech$10'
p345
sg15
(lp346
sg17
(lp347
sg19
(lp348
sg21
I0
sba(iArchitecture
Entity
p349
(dp350
g11
(lp351
sg13
S'android.speech.tts.TextToSpeech$11'
p352
sg15
(lp353
sg17
(lp354
sg19
(lp355
sg21
I0
sba(iArchitecture
Entity
p356
(dp357
g11
(lp358
sg13
S'android.speech.tts.TextToSpeech$12'
p359
sg15
(lp360
sg17
(lp361
sg19
(lp362
sg21
I0
sba(iArchitecture
Entity
p363
(dp364
g11
(lp365
sg13
S'android.speech.tts.TextToSpeech$13'
p366
sg15
(lp367
sg17
(lp368
sg19
(lp369
sg21
I0
sba(iArchitecture
Entity
p370
(dp371
g11
(lp372
sg13
S'android.speech.tts.TextToSpeech$14'
p373
sg15
(lp374
sg17
(lp375
sg19
(lp376
sg21
I0
sba(iArchitecture
Entity
p377
(dp378
g11
(lp379
sg13
S'android.speech.tts.TextToSpeech$15'
p380
sg15
(lp381
sg17
(lp382
sg19
(lp383
sg21
I0
sba(iArchitecture
Entity
p384
(dp385
g11
(lp386
sg13
S'android.speech.tts.TextToSpeech$16'
p387
sg15
(lp388
sg17
(lp389
sg19
(lp390
sg21
I0
sba(iArchitecture
Entity
p391
(dp392
g11
(lp393
sg13
S'android.speech.tts.TextToSpeech$17'
p394
sg15
(lp395
sg17
(lp396
sg19
(lp397
sg21
I0
sba(iArchitecture
Entity
p398
(dp399
g11
(lp400
sg13
S'android.speech.tts.TextToSpeech$2'
p401
sg15
(lp402
sg17
(lp403
sg19
(lp404
sg21
I0
sba(iArchitecture
Entity
p405
(dp406
g11
(lp407
sg13
S'android.speech.tts.TextToSpeech$3'
p408
sg15
(lp409
sg17
(lp410
sg19
(lp411
sg21
I0
sba(iArchitecture
Entity
p412
(dp413
g11
(lp414
sg13
S'android.speech.tts.TextToSpeech$4'
p415
sg15
(lp416
sg17
(lp417
sg19
(lp418
sg21
I0
sba(iArchitecture
Entity
p419
(dp420
g11
(lp421
sg13
S'android.speech.tts.TextToSpeech$5'
p422
sg15
(lp423
sg17
(lp424
sg19
(lp425
sg21
I0
sba(iArchitecture
Entity
p426
(dp427
g11
(lp428
sg13
S'android.speech.tts.TextToSpeech$6'
p429
sg15
(lp430
sg17
(lp431
sg19
(lp432
sg21
I0
sba(iArchitecture
Entity
p433
(dp434
g11
(lp435
sg13
S'android.speech.tts.TextToSpeech$7'
p436
sg15
(lp437
sg17
(lp438
sg19
(lp439
sg21
I0
sba(iArchitecture
Entity
p440
(dp441
g11
(lp442
sg13
S'android.speech.tts.TextToSpeech$8'
p443
sg15
(lp444
sg17
(lp445
sg19
(lp446
sg21
I0
sba(iArchitecture
Entity
p447
(dp448
g11
(lp449
sg13
S'android.speech.tts.TextToSpeech$9'
p450
sg15
(lp451
sg17
(lp452
sg19
(lp453
sg21
I0
sba(iArchitecture
Entity
p454
(dp455
g11
(lp456
sg13
S'android.speech.tts.TextToSpeech$Action'
p457
sg15
(lp458
sg17
(lp459
sg19
(lp460
sg21
I0
sba(iArchitecture
Entity
p461
(dp462
g11
(lp463
sg13
S'android.speech.tts.TextToSpeech$Connection'
p464
sg15
(lp465
sg17
(lp466
sg19
(lp467
sg21
I0
sba(iArchitecture
Entity
p468
(dp469
g11
(lp470
sg13
S'android.speech.tts.TextToSpeech$Connection$1'
p471
sg15
(lp472
sg17
(lp473
sg19
(lp474
sg21
I0
sba(iArchitecture
Entity
p475
(dp476
g11
(lp477
sg13
S'android.speech.tts.TextToSpeech$Connection$SetupConnectionAsyncTask'
p478
sg15
(lp479
sg17
(lp480
sg19
(lp481
sg21
I0
sba(iArchitecture
Entity
p482
(dp483
g11
(lp484
sg13
S'android.speech.tts.TextToSpeech$Engine'
p485
sg15
(lp486
sg17
(lp487
sg19
(lp488
sg21
I0
sba(iArchitecture
Entity
p489
(dp490
g11
(lp491
sg13
S'android.speech.tts.TextToSpeech$EngineInfo'
p492
sg15
(lp493
sg17
(lp494
sg19
(lp495
sg21
I0
sba(iArchitecture
Entity
p496
(dp497
g11
(lp498
sg13
S'android.speech.tts.TextToSpeech$OnUtteranceCompletedListener'
p499
sg15
(lp500
sg17
(lp501
sg19
(lp502
sg21
I0
sba(iArchitecture
Entity
p503
(dp504
g11
(lp505
sg13
S'android.speech.tts.TextToSpeechService'
p506
sg15
(lp507
sg17
(lp508
sg19
(lp509
sg21
I0
sba(iArchitecture
Entity
p510
(dp511
g11
(lp512
sg13
S'android.speech.tts.TextToSpeechService$1'
p513
sg15
(lp514
sg17
(lp515
sg19
(lp516
sg21
I0
sba(iArchitecture
Entity
p517
(dp518
g11
(lp519
sg13
S'android.speech.tts.TextToSpeechService$AudioOutputParams'
p520
sg15
(lp521
sg17
(lp522
sg19
(lp523
sg21
I0
sba(iArchitecture
Entity
p524
(dp525
g11
(lp526
sg13
S'android.speech.tts.TextToSpeechService$AudioSpeechItemV1'
p527
sg15
(lp528
sg17
(lp529
sg19
(lp530
sg21
I0
sba(iArchitecture
Entity
p531
(dp532
g11
(lp533
sg13
S'android.speech.tts.TextToSpeechService$CallbackMap'
p534
sg15
(lp535
sg17
(lp536
sg19
(lp537
sg21
I0
sba(iArchitecture
Entity
p538
(dp539
g11
(lp540
sg13
S'android.speech.tts.TextToSpeechService$LoadLanguageItem'
p541
sg15
(lp542
sg17
(lp543
sg19
(lp544
sg21
I0
sba(iArchitecture
Entity
p545
(dp546
g11
(lp547
sg13
S'android.speech.tts.TextToSpeechService$LoadVoiceItem'
p548
sg15
(lp549
sg17
(lp550
sg19
(lp551
sg21
I0
sba(iArchitecture
Entity
p552
(dp553
g11
(lp554
sg13
S'android.speech.tts.TextToSpeechService$SilenceSpeechItem'
p555
sg15
(lp556
sg17
(lp557
sg19
(lp558
sg21
I0
sba(iArchitecture
Entity
p559
(dp560
g11
(lp561
sg13
S'android.speech.tts.TextToSpeechService$SpeechItem'
p562
sg15
(lp563
sg17
(lp564
sg19
(lp565
sg21
I0
sba(iArchitecture
Entity
p566
(dp567
g11
(lp568
sg13
S'android.speech.tts.TextToSpeechService$SpeechItemV1'
p569
sg15
(lp570
sg17
(lp571
sg19
(lp572
sg21
I0
sba(iArchitecture
Entity
p573
(dp574
g11
(lp575
sg13
S'android.speech.tts.TextToSpeechService$SynthHandler'
p576
sg15
(lp577
sg17
(lp578
sg19
(lp579
sg21
I0
sba(iArchitecture
Entity
p580
(dp581
g11
(lp582
sg13
S'android.speech.tts.TextToSpeechService$SynthHandler$1'
p583
sg15
(lp584
sg17
(lp585
sg19
(lp586
sg21
I0
sba(iArchitecture
Entity
p587
(dp588
g11
(lp589
sg13
S'android.speech.tts.TextToSpeechService$SynthHandler$2'
p590
sg15
(lp591
sg17
(lp592
sg19
(lp593
sg21
I0
sba(iArchitecture
Entity
p594
(dp595
g11
(lp596
sg13
S'android.speech.tts.TextToSpeechService$SynthHandler$3'
p597
sg15
(lp598
sg17
(lp599
sg19
(lp600
sg21
I0
sba(iArchitecture
Entity
p601
(dp602
g11
(lp603
sg13
S'android.speech.tts.TextToSpeechService$SynthThread'
p604
sg15
(lp605
sg17
(lp606
sg19
(lp607
sg21
I0
sba(iArchitecture
Entity
p608
(dp609
g11
(lp610
sg13
S'android.speech.tts.TextToSpeechService$SynthesisSpeechItemV1'
p611
sg15
(lp612
sg17
(lp613
sg19
(lp614
sg21
I0
sba(iArchitecture
Entity
p615
(dp616
g11
(lp617
sg13
S'android.speech.tts.TextToSpeechService$SynthesisToFileOutputStreamSpeechItemV1'
p618
sg15
(lp619
sg17
(lp620
sg19
(lp621
sg21
I0
sba(iArchitecture
Entity
p622
(dp623
g11
(lp624
sg13
S'android.speech.tts.TextToSpeechService$UtteranceProgressDispatcher'
p625
sg15
(lp626
sg17
(lp627
sg19
(lp628
sg21
I0
sba(iArchitecture
Entity
p629
(dp630
g11
(lp631
sg13
S'android.speech.tts.TextToSpeechService$UtteranceSpeechItem'
p632
sg15
(lp633
sg17
(lp634
sg19
(lp635
sg21
I0
sba(iArchitecture
Entity
p636
(dp637
g11
(lp638
sg13
S'android.speech.tts.TtsEngines'
p639
sg15
(lp640
sg17
(lp641
sg19
(lp642
sg21
I0
sba(iArchitecture
Entity
p643
(dp644
g11
(lp645
sg13
S'android.speech.tts.TtsEngines$EngineInfoComparator'
p646
sg15
(lp647
sg17
(lp648
sg19
(lp649
sg21
I0
sba(iArchitecture
Entity
p650
(dp651
g11
(lp652
sg13
S'android.speech.tts.UtteranceProgressListener'
p653
sg15
(lp654
sg17
(lp655
sg19
(lp656
sg21
I0
sba(iArchitecture
Entity
p657
(dp658
g11
(lp659
sg13
S'android.speech.tts.UtteranceProgressListener$1'
p660
sg15
(lp661
sg17
(lp662
sg19
(lp663
sg21
I0
sba(iArchitecture
Entity
p664
(dp665
g11
(lp666
sg13
S'android.speech.tts.Voice'
p667
sg15
(lp668
sg17
(lp669
sg19
(lp670
sg21
I0
sba(iArchitecture
Entity
p671
(dp672
g11
(lp673
sg13
S'android.speech.tts.Voice$1'
p674
sg15
(lp675
sg17
(lp676
sg19
(lp677
sg21
I0
sbasg22
(lp678
g163
ag170
ag177
ag184
ag191
ag198
ag205
ag212
ag219
ag226
ag233
ag240
ag247
ag254
ag261
ag268
ag275
ag282
ag289
ag296
ag303
ag310
ag317
ag324
ag331
ag338
ag345
ag352
ag359
ag366
ag373
ag380
ag387
ag394
ag401
ag408
ag415
ag422
ag429
ag436
ag443
ag450
ag457
ag464
ag471
ag478
ag485
ag492
ag499
ag506
ag513
ag520
ag527
ag534
ag541
ag548
ag555
ag562
ag569
ag576
ag583
ag590
ag597
ag604
ag611
ag618
ag625
ag632
ag639
ag646
ag653
ag660
ag667
ag674
asg21
I0
sg24
S'android.speech.tts.ss'
p679
sba(iArchitecture
Cluster
p680
(dp681
g7
(lp682
(iArchitecture
Entity
p683
(dp684
g11
(lp685
sg13
S'android.speech.RecognizerResultsIntent'
p686
sg15
(lp687
sg17
(lp688
sg19
(lp689
sg21
I0
sbasg22
(lp690
g686
asg21
I0
sg24
S'com.android.server.pm.ss'
p691
sba(iArchitecture
Cluster
p692
(dp693
g7
(lp694
(iArchitecture
Entity
p695
(dp696
g11
(lp697
sg13
S'android.speech.tts.TextToSpeech$OnInitListener'
p698
sg15
(lp699
sg17
(lp700
sg19
(lp701
sg21
I0
sbasg22
(lp702
g698
asg21
I0
sg24
S'com.android.server.policy.ss'
p703
sbasS'target_sub'
p704
S'android.speech'
p705
sg22
(lp706
sS'is_component_arch'
p707
I00
sg24
S'6.0.0_r1'
p708
sba(iArchitecture
Architecture
p709
(dp710
g3
(lp711
(iArchitecture
Cluster
p712
(dp713
g7
(lp714
(iArchitecture
Entity
p715
(dp716
g11
(lp717
sg13
S'android.speech.RecognizerIntent'
p718
sg15
(lp719
sg17
(lp720
sg19
(lp721
sg21
I0
sbasg22
(lp722
g718
asg21
I0
sg24
S'android.app.ss'
p723
sba(iArchitecture
Cluster
p724
(dp725
g7
(lp726
(iArchitecture
Entity
p727
(dp728
g11
(lp729
sg13
S'android.speech.IRecognitionListener'
p730
sg15
(lp731
sg17
(lp732
sg19
(lp733
sg21
I0
sba(iArchitecture
Entity
p734
(dp735
g11
(lp736
sg13
S'android.speech.IRecognitionListener$Stub'
p737
sg15
(lp738
sg17
(lp739
sg19
(lp740
sg21
I0
sba(iArchitecture
Entity
p741
(dp742
g11
(lp743
sg13
S'android.speech.IRecognitionListener$Stub$Proxy'
p744
sg15
(lp745
sg17
(lp746
sg19
(lp747
sg21
I0
sba(iArchitecture
Entity
p748
(dp749
g11
(lp750
sg13
S'android.speech.IRecognitionService'
p751
sg15
(lp752
sg17
(lp753
sg19
(lp754
sg21
I0
sba(iArchitecture
Entity
p755
(dp756
g11
(lp757
sg13
S'android.speech.IRecognitionService$Stub'
p758
sg15
(lp759
sg17
(lp760
sg19
(lp761
sg21
I0
sba(iArchitecture
Entity
p762
(dp763
g11
(lp764
sg13
S'android.speech.IRecognitionService$Stub$Proxy'
p765
sg15
(lp766
sg17
(lp767
sg19
(lp768
sg21
I0
sba(iArchitecture
Entity
p769
(dp770
g11
(lp771
sg13
S'android.speech.RecognitionListener'
p772
sg15
(lp773
sg17
(lp774
sg19
(lp775
sg21
I0
sba(iArchitecture
Entity
p776
(dp777
g11
(lp778
sg13
S'android.speech.RecognitionService'
p779
sg15
(lp780
sg17
(lp781
sg19
(lp782
sg21
I0
sba(iArchitecture
Entity
p783
(dp784
g11
(lp785
sg13
S'android.speech.RecognitionService$1'
p786
sg15
(lp787
sg17
(lp788
sg19
(lp789
sg21
I0
sba(iArchitecture
Entity
p790
(dp791
g11
(lp792
sg13
S'android.speech.RecognitionService$2'
p793
sg15
(lp794
sg17
(lp795
sg19
(lp796
sg21
I0
sba(iArchitecture
Entity
p797
(dp798
g11
(lp799
sg13
S'android.speech.RecognitionService$Callback'
p800
sg15
(lp801
sg17
(lp802
sg19
(lp803
sg21
I0
sba(iArchitecture
Entity
p804
(dp805
g11
(lp806
sg13
S'android.speech.RecognitionService$RecognitionServiceBinder'
p807
sg15
(lp808
sg17
(lp809
sg19
(lp810
sg21
I0
sba(iArchitecture
Entity
p811
(dp812
g11
(lp813
sg13
S'android.speech.RecognitionService$StartListeningArgs'
p814
sg15
(lp815
sg17
(lp816
sg19
(lp817
sg21
I0
sba(iArchitecture
Entity
p818
(dp819
g11
(lp820
sg13
S'android.speech.SpeechRecognizer'
p821
sg15
(lp822
sg17
(lp823
sg19
(lp824
sg21
I0
sba(iArchitecture
Entity
p825
(dp826
g11
(lp827
sg13
S'android.speech.SpeechRecognizer$1'
p828
sg15
(lp829
sg17
(lp830
sg19
(lp831
sg21
I0
sba(iArchitecture
Entity
p832
(dp833
g11
(lp834
sg13
S'android.speech.SpeechRecognizer$Connection'
p835
sg15
(lp836
sg17
(lp837
sg19
(lp838
sg21
I0
sba(iArchitecture
Entity
p839
(dp840
g11
(lp841
sg13
S'android.speech.SpeechRecognizer$InternalListener'
p842
sg15
(lp843
sg17
(lp844
sg19
(lp845
sg21
I0
sba(iArchitecture
Entity
p846
(dp847
g11
(lp848
sg13
S'android.speech.SpeechRecognizer$InternalListener$1'
p849
sg15
(lp850
sg17
(lp851
sg19
(lp852
sg21
I0
sbasg22
(lp853
g730
ag737
ag744
ag751
ag758
ag765
ag772
ag779
ag786
ag793
ag800
ag807
ag814
ag821
ag828
ag835
ag842
ag849
asg21
I0
sg24
S'android.speech.ss'
p854
sba(iArchitecture
Cluster
p855
(dp856
g7
(lp857
(iArchitecture
Entity
p858
(dp859
g11
(lp860
sg13
S'android.speech.tts.AbstractEventLogger'
p861
sg15
(lp862
sg17
(lp863
sg19
(lp864
sg21
I0
sba(iArchitecture
Entity
p865
(dp866
g11
(lp867
sg13
S'android.speech.tts.AbstractSynthesisCallback'
p868
sg15
(lp869
sg17
(lp870
sg19
(lp871
sg21
I0
sba(iArchitecture
Entity
p872
(dp873
g11
(lp874
sg13
S'android.speech.tts.AudioPlaybackHandler'
p875
sg15
(lp876
sg17
(lp877
sg19
(lp878
sg21
I0
sba(iArchitecture
Entity
p879
(dp880
g11
(lp881
sg13
S'android.speech.tts.AudioPlaybackHandler$MessageLoop'
p882
sg15
(lp883
sg17
(lp884
sg19
(lp885
sg21
I0
sba(iArchitecture
Entity
p886
(dp887
g11
(lp888
sg13
S'android.speech.tts.AudioPlaybackQueueItem'
p889
sg15
(lp890
sg17
(lp891
sg19
(lp892
sg21
I0
sba(iArchitecture
Entity
p893
(dp894
g11
(lp895
sg13
S'android.speech.tts.AudioPlaybackQueueItem$1'
p896
sg15
(lp897
sg17
(lp898
sg19
(lp899
sg21
I0
sba(iArchitecture
Entity
p900
(dp901
g11
(lp902
sg13
S'android.speech.tts.AudioPlaybackQueueItem$2'
p903
sg15
(lp904
sg17
(lp905
sg19
(lp906
sg21
I0
sba(iArchitecture
Entity
p907
(dp908
g11
(lp909
sg13
S'android.speech.tts.BlockingAudioTrack'
p910
sg15
(lp911
sg17
(lp912
sg19
(lp913
sg21
I0
sba(iArchitecture
Entity
p914
(dp915
g11
(lp916
sg13
S'android.speech.tts.EventLogTags'
p917
sg15
(lp918
sg17
(lp919
sg19
(lp920
sg21
I0
sba(iArchitecture
Entity
p921
(dp922
g11
(lp923
sg13
S'android.speech.tts.EventLoggerV1'
p924
sg15
(lp925
sg17
(lp926
sg19
(lp927
sg21
I0
sba(iArchitecture
Entity
p928
(dp929
g11
(lp930
sg13
S'android.speech.tts.FileSynthesisCallback'
p931
sg15
(lp932
sg17
(lp933
sg19
(lp934
sg21
I0
sba(iArchitecture
Entity
p935
(dp936
g11
(lp937
sg13
S'android.speech.tts.ITextToSpeechCallback'
p938
sg15
(lp939
sg17
(lp940
sg19
(lp941
sg21
I0
sba(iArchitecture
Entity
p942
(dp943
g11
(lp944
sg13
S'android.speech.tts.ITextToSpeechCallback$Stub'
p945
sg15
(lp946
sg17
(lp947
sg19
(lp948
sg21
I0
sba(iArchitecture
Entity
p949
(dp950
g11
(lp951
sg13
S'android.speech.tts.ITextToSpeechCallback$Stub$Proxy'
p952
sg15
(lp953
sg17
(lp954
sg19
(lp955
sg21
I0
sba(iArchitecture
Entity
p956
(dp957
g11
(lp958
sg13
S'android.speech.tts.ITextToSpeechService'
p959
sg15
(lp960
sg17
(lp961
sg19
(lp962
sg21
I0
sba(iArchitecture
Entity
p963
(dp964
g11
(lp965
sg13
S'android.speech.tts.ITextToSpeechService$Stub'
p966
sg15
(lp967
sg17
(lp968
sg19
(lp969
sg21
I0
sba(iArchitecture
Entity
p970
(dp971
g11
(lp972
sg13
S'android.speech.tts.ITextToSpeechService$Stub$Proxy'
p973
sg15
(lp974
sg17
(lp975
sg19
(lp976
sg21
I0
sba(iArchitecture
Entity
p977
(dp978
g11
(lp979
sg13
S'android.speech.tts.PlaybackQueueItem'
p980
sg15
(lp981
sg17
(lp982
sg19
(lp983
sg21
I0
sba(iArchitecture
Entity
p984
(dp985
g11
(lp986
sg13
S'android.speech.tts.PlaybackSynthesisCallback'
p987
sg15
(lp988
sg17
(lp989
sg19
(lp990
sg21
I0
sba(iArchitecture
Entity
p991
(dp992
g11
(lp993
sg13
S'android.speech.tts.SilencePlaybackQueueItem'
p994
sg15
(lp995
sg17
(lp996
sg19
(lp997
sg21
I0
sba(iArchitecture
Entity
p998
(dp999
g11
(lp1000
sg13
S'android.speech.tts.SynthesisCallback'
p1001
sg15
(lp1002
sg17
(lp1003
sg19
(lp1004
sg21
I0
sba(iArchitecture
Entity
p1005
(dp1006
g11
(lp1007
sg13
S'android.speech.tts.SynthesisPlaybackQueueItem'
p1008
sg15
(lp1009
sg17
(lp1010
sg19
(lp1011
sg21
I0
sba(iArchitecture
Entity
p1012
(dp1013
g11
(lp1014
sg13
S'android.speech.tts.SynthesisPlaybackQueueItem$ListEntry'
p1015
sg15
(lp1016
sg17
(lp1017
sg19
(lp1018
sg21
I0
sba(iArchitecture
Entity
p1019
(dp1020
g11
(lp1021
sg13
S'android.speech.tts.SynthesisRequest'
p1022
sg15
(lp1023
sg17
(lp1024
sg19
(lp1025
sg21
I0
sba(iArchitecture
Entity
p1026
(dp1027
g11
(lp1028
sg13
S'android.speech.tts.TextToSpeech'
p1029
sg15
(lp1030
sg17
(lp1031
sg19
(lp1032
sg21
I0
sba(iArchitecture
Entity
p1033
(dp1034
g11
(lp1035
sg13
S'android.speech.tts.TextToSpeech$1'
p1036
sg15
(lp1037
sg17
(lp1038
sg19
(lp1039
sg21
I0
sba(iArchitecture
Entity
p1040
(dp1041
g11
(lp1042
sg13
S'android.speech.tts.TextToSpeech$10'
p1043
sg15
(lp1044
sg17
(lp1045
sg19
(lp1046
sg21
I0
sba(iArchitecture
Entity
p1047
(dp1048
g11
(lp1049
sg13
S'android.speech.tts.TextToSpeech$11'
p1050
sg15
(lp1051
sg17
(lp1052
sg19
(lp1053
sg21
I0
sba(iArchitecture
Entity
p1054
(dp1055
g11
(lp1056
sg13
S'android.speech.tts.TextToSpeech$12'
p1057
sg15
(lp1058
sg17
(lp1059
sg19
(lp1060
sg21
I0
sba(iArchitecture
Entity
p1061
(dp1062
g11
(lp1063
sg13
S'android.speech.tts.TextToSpeech$13'
p1064
sg15
(lp1065
sg17
(lp1066
sg19
(lp1067
sg21
I0
sba(iArchitecture
Entity
p1068
(dp1069
g11
(lp1070
sg13
S'android.speech.tts.TextToSpeech$14'
p1071
sg15
(lp1072
sg17
(lp1073
sg19
(lp1074
sg21
I0
sba(iArchitecture
Entity
p1075
(dp1076
g11
(lp1077
sg13
S'android.speech.tts.TextToSpeech$15'
p1078
sg15
(lp1079
sg17
(lp1080
sg19
(lp1081
sg21
I0
sba(iArchitecture
Entity
p1082
(dp1083
g11
(lp1084
sg13
S'android.speech.tts.TextToSpeech$16'
p1085
sg15
(lp1086
sg17
(lp1087
sg19
(lp1088
sg21
I0
sba(iArchitecture
Entity
p1089
(dp1090
g11
(lp1091
sg13
S'android.speech.tts.TextToSpeech$17'
p1092
sg15
(lp1093
sg17
(lp1094
sg19
(lp1095
sg21
I0
sba(iArchitecture
Entity
p1096
(dp1097
g11
(lp1098
sg13
S'android.speech.tts.TextToSpeech$2'
p1099
sg15
(lp1100
sg17
(lp1101
sg19
(lp1102
sg21
I0
sba(iArchitecture
Entity
p1103
(dp1104
g11
(lp1105
sg13
S'android.speech.tts.TextToSpeech$3'
p1106
sg15
(lp1107
sg17
(lp1108
sg19
(lp1109
sg21
I0
sba(iArchitecture
Entity
p1110
(dp1111
g11
(lp1112
sg13
S'android.speech.tts.TextToSpeech$4'
p1113
sg15
(lp1114
sg17
(lp1115
sg19
(lp1116
sg21
I0
sba(iArchitecture
Entity
p1117
(dp1118
g11
(lp1119
sg13
S'android.speech.tts.TextToSpeech$5'
p1120
sg15
(lp1121
sg17
(lp1122
sg19
(lp1123
sg21
I0
sba(iArchitecture
Entity
p1124
(dp1125
g11
(lp1126
sg13
S'android.speech.tts.TextToSpeech$6'
p1127
sg15
(lp1128
sg17
(lp1129
sg19
(lp1130
sg21
I0
sba(iArchitecture
Entity
p1131
(dp1132
g11
(lp1133
sg13
S'android.speech.tts.TextToSpeech$7'
p1134
sg15
(lp1135
sg17
(lp1136
sg19
(lp1137
sg21
I0
sba(iArchitecture
Entity
p1138
(dp1139
g11
(lp1140
sg13
S'android.speech.tts.TextToSpeech$8'
p1141
sg15
(lp1142
sg17
(lp1143
sg19
(lp1144
sg21
I0
sba(iArchitecture
Entity
p1145
(dp1146
g11
(lp1147
sg13
S'android.speech.tts.TextToSpeech$9'
p1148
sg15
(lp1149
sg17
(lp1150
sg19
(lp1151
sg21
I0
sba(iArchitecture
Entity
p1152
(dp1153
g11
(lp1154
sg13
S'android.speech.tts.TextToSpeech$Action'
p1155
sg15
(lp1156
sg17
(lp1157
sg19
(lp1158
sg21
I0
sba(iArchitecture
Entity
p1159
(dp1160
g11
(lp1161
sg13
S'android.speech.tts.TextToSpeech$Connection'
p1162
sg15
(lp1163
sg17
(lp1164
sg19
(lp1165
sg21
I0
sba(iArchitecture
Entity
p1166
(dp1167
g11
(lp1168
sg13
S'android.speech.tts.TextToSpeech$Connection$1'
p1169
sg15
(lp1170
sg17
(lp1171
sg19
(lp1172
sg21
I0
sba(iArchitecture
Entity
p1173
(dp1174
g11
(lp1175
sg13
S'android.speech.tts.TextToSpeech$Connection$SetupConnectionAsyncTask'
p1176
sg15
(lp1177
sg17
(lp1178
sg19
(lp1179
sg21
I0
sba(iArchitecture
Entity
p1180
(dp1181
g11
(lp1182
sg13
S'android.speech.tts.TextToSpeech$Engine'
p1183
sg15
(lp1184
sg17
(lp1185
sg19
(lp1186
sg21
I0
sba(iArchitecture
Entity
p1187
(dp1188
g11
(lp1189
sg13
S'android.speech.tts.TextToSpeech$EngineInfo'
p1190
sg15
(lp1191
sg17
(lp1192
sg19
(lp1193
sg21
I0
sba(iArchitecture
Entity
p1194
(dp1195
g11
(lp1196
sg13
S'android.speech.tts.TextToSpeech$OnUtteranceCompletedListener'
p1197
sg15
(lp1198
sg17
(lp1199
sg19
(lp1200
sg21
I0
sba(iArchitecture
Entity
p1201
(dp1202
g11
(lp1203
sg13
S'android.speech.tts.TextToSpeechService'
p1204
sg15
(lp1205
sg17
(lp1206
sg19
(lp1207
sg21
I0
sba(iArchitecture
Entity
p1208
(dp1209
g11
(lp1210
sg13
S'android.speech.tts.TextToSpeechService$1'
p1211
sg15
(lp1212
sg17
(lp1213
sg19
(lp1214
sg21
I0
sba(iArchitecture
Entity
p1215
(dp1216
g11
(lp1217
sg13
S'android.speech.tts.TextToSpeechService$AudioOutputParams'
p1218
sg15
(lp1219
sg17
(lp1220
sg19
(lp1221
sg21
I0
sba(iArchitecture
Entity
p1222
(dp1223
g11
(lp1224
sg13
S'android.speech.tts.TextToSpeechService$AudioSpeechItemV1'
p1225
sg15
(lp1226
sg17
(lp1227
sg19
(lp1228
sg21
I0
sba(iArchitecture
Entity
p1229
(dp1230
g11
(lp1231
sg13
S'android.speech.tts.TextToSpeechService$CallbackMap'
p1232
sg15
(lp1233
sg17
(lp1234
sg19
(lp1235
sg21
I0
sba(iArchitecture
Entity
p1236
(dp1237
g11
(lp1238
sg13
S'android.speech.tts.TextToSpeechService$LoadLanguageItem'
p1239
sg15
(lp1240
sg17
(lp1241
sg19
(lp1242
sg21
I0
sba(iArchitecture
Entity
p1243
(dp1244
g11
(lp1245
sg13
S'android.speech.tts.TextToSpeechService$LoadVoiceItem'
p1246
sg15
(lp1247
sg17
(lp1248
sg19
(lp1249
sg21
I0
sba(iArchitecture
Entity
p1250
(dp1251
g11
(lp1252
sg13
S'android.speech.tts.TextToSpeechService$SilenceSpeechItem'
p1253
sg15
(lp1254
sg17
(lp1255
sg19
(lp1256
sg21
I0
sba(iArchitecture
Entity
p1257
(dp1258
g11
(lp1259
sg13
S'android.speech.tts.TextToSpeechService$SpeechItem'
p1260
sg15
(lp1261
sg17
(lp1262
sg19
(lp1263
sg21
I0
sba(iArchitecture
Entity
p1264
(dp1265
g11
(lp1266
sg13
S'android.speech.tts.TextToSpeechService$SpeechItemV1'
p1267
sg15
(lp1268
sg17
(lp1269
sg19
(lp1270
sg21
I0
sba(iArchitecture
Entity
p1271
(dp1272
g11
(lp1273
sg13
S'android.speech.tts.TextToSpeechService$SynthHandler'
p1274
sg15
(lp1275
sg17
(lp1276
sg19
(lp1277
sg21
I0
sba(iArchitecture
Entity
p1278
(dp1279
g11
(lp1280
sg13
S'android.speech.tts.TextToSpeechService$SynthHandler$1'
p1281
sg15
(lp1282
sg17
(lp1283
sg19
(lp1284
sg21
I0
sba(iArchitecture
Entity
p1285
(dp1286
g11
(lp1287
sg13
S'android.speech.tts.TextToSpeechService$SynthHandler$2'
p1288
sg15
(lp1289
sg17
(lp1290
sg19
(lp1291
sg21
I0
sba(iArchitecture
Entity
p1292
(dp1293
g11
(lp1294
sg13
S'android.speech.tts.TextToSpeechService$SynthHandler$3'
p1295
sg15
(lp1296
sg17
(lp1297
sg19
(lp1298
sg21
I0
sba(iArchitecture
Entity
p1299
(dp1300
g11
(lp1301
sg13
S'android.speech.tts.TextToSpeechService$SynthThread'
p1302
sg15
(lp1303
sg17
(lp1304
sg19
(lp1305
sg21
I0
sba(iArchitecture
Entity
p1306
(dp1307
g11
(lp1308
sg13
S'android.speech.tts.TextToSpeechService$SynthesisSpeechItemV1'
p1309
sg15
(lp1310
sg17
(lp1311
sg19
(lp1312
sg21
I0
sba(iArchitecture
Entity
p1313
(dp1314
g11
(lp1315
sg13
S'android.speech.tts.TextToSpeechService$SynthesisToFileOutputStreamSpeechItemV1'
p1316
sg15
(lp1317
sg17
(lp1318
sg19
(lp1319
sg21
I0
sba(iArchitecture
Entity
p1320
(dp1321
g11
(lp1322
sg13
S'android.speech.tts.TextToSpeechService$UtteranceProgressDispatcher'
p1323
sg15
(lp1324
sg17
(lp1325
sg19
(lp1326
sg21
I0
sba(iArchitecture
Entity
p1327
(dp1328
g11
(lp1329
sg13
S'android.speech.tts.TextToSpeechService$UtteranceSpeechItem'
p1330
sg15
(lp1331
sg17
(lp1332
sg19
(lp1333
sg21
I0
sba(iArchitecture
Entity
p1334
(dp1335
g11
(lp1336
sg13
S'android.speech.tts.TtsEngines'
p1337
sg15
(lp1338
sg17
(lp1339
sg19
(lp1340
sg21
I0
sba(iArchitecture
Entity
p1341
(dp1342
g11
(lp1343
sg13
S'android.speech.tts.TtsEngines$EngineInfoComparator'
p1344
sg15
(lp1345
sg17
(lp1346
sg19
(lp1347
sg21
I0
sba(iArchitecture
Entity
p1348
(dp1349
g11
(lp1350
sg13
S'android.speech.tts.UtteranceProgressListener'
p1351
sg15
(lp1352
sg17
(lp1353
sg19
(lp1354
sg21
I0
sba(iArchitecture
Entity
p1355
(dp1356
g11
(lp1357
sg13
S'android.speech.tts.UtteranceProgressListener$1'
p1358
sg15
(lp1359
sg17
(lp1360
sg19
(lp1361
sg21
I0
sba(iArchitecture
Entity
p1362
(dp1363
g11
(lp1364
sg13
S'android.speech.tts.Voice'
p1365
sg15
(lp1366
sg17
(lp1367
sg19
(lp1368
sg21
I0
sba(iArchitecture
Entity
p1369
(dp1370
g11
(lp1371
sg13
S'android.speech.tts.Voice$1'
p1372
sg15
(lp1373
sg17
(lp1374
sg19
(lp1375
sg21
I0
sbasg22
(lp1376
g861
ag868
ag875
ag882
ag889
ag896
ag903
ag910
ag917
ag924
ag931
ag938
ag945
ag952
ag959
ag966
ag973
ag980
ag987
ag994
ag1001
ag1008
ag1015
ag1022
ag1029
ag1036
ag1043
ag1050
ag1057
ag1064
ag1071
ag1078
ag1085
ag1092
ag1099
ag1106
ag1113
ag1120
ag1127
ag1134
ag1141
ag1148
ag1155
ag1162
ag1169
ag1176
ag1183
ag1190
ag1197
ag1204
ag1211
ag1218
ag1225
ag1232
ag1239
ag1246
ag1253
ag1260
ag1267
ag1274
ag1281
ag1288
ag1295
ag1302
ag1309
ag1316
ag1323
ag1330
ag1337
ag1344
ag1351
ag1358
ag1365
ag1372
asg21
I0
sg24
S'android.speech.tts.ss'
p1377
sba(iArchitecture
Cluster
p1378
(dp1379
g7
(lp1380
(iArchitecture
Entity
p1381
(dp1382
g11
(lp1383
sg13
S'android.speech.RecognizerResultsIntent'
p1384
sg15
(lp1385
sg17
(lp1386
sg19
(lp1387
sg21
I0
sbasg22
(lp1388
g1384
asg21
I0
sg24
S'com.android.server.pm.ss'
p1389
sba(iArchitecture
Cluster
p1390
(dp1391
g7
(lp1392
(iArchitecture
Entity
p1393
(dp1394
g11
(lp1395
sg13
S'android.speech.tts.TextToSpeech$OnInitListener'
p1396
sg15
(lp1397
sg17
(lp1398
sg19
(lp1399
sg21
I0
sbasg22
(lp1400
g1396
asg21
I0
sg24
S'com.android.server.policy.ss'
p1401
sbasg704
g705
sg22
(lp1402
sg707
I00
sg24
S'7.0.0_r1'
p1403
sba.